                        	titl "SMITHBUG-FORTH-M6802 OPERATING SYSTEM"
                        ;
                        ; Combined SMITHBUG and FIG-FORTH Build for Land Boards SIMPLE-6802 card
                        ;
                        ; SIMPLE-6802 card Wiki page
                        ;	http://land-boards.com/blwiki/index.php?title=SIMPLE-6802
                        ; 
                        ; SIMPLE-6802 Memory Map
                        ;	0x0000-0x7FFF - 32KB SRAM
                        ;		SMITHBUG uses RAM from 0x7F00 to the end of the RAM
                        ;		FIG-FORTH uses RAM from 0x00E0
                        ;	0x8000-0xBFFF - I/O Space
                        ;		0x8000 - ACIA (+0=C/S, +1=D)
                        ;	0xC000-0xFFFF - 16KB ROM
                        ;		SMITHBUG ROM code starts at $C000
                        ;		FIG-FORTH ROM code starts at $D000
                        ;		0xFFFE-0xFFFF - ROM start vector (physically top of the 8KB ROM)
                        ;
                        ; Build Instructions
                        ; 	Uses a68 assembler
                        ;		https://www.retrotechnology.com/restore/a68.html
                        ;	Windows Command line to make S-Record output.
                        ;		A68 SMITHBUG_FORTH_SIMPLE-6802_C000.ASM -l SMITHBUG_FORTH_SIMPLE-6802_C000.LST -s SMITHBUG_FORTH_SIMPLE-6802_C000.S
                        ;	IMPORTANT - Manually delete the RAM lines in SMITHBUG_FORTH_SIMPLE-6802_C000.S file (near top of the file)
                        ;		S1130148C5464F5254C8E74DD9FADF1981A0017842
                        ;		S1130158000028432920466F72746820496E74652C
                        ;		S1130168726573742047726F75702C203139373972
                        ;		S10E017884544153CB0148D52AD36CBA
                        ;	Use srec_cat
                        ;		https://srecord.sourceforge.net/
                        ;		...to shift from EPROM absolute addresses to 0x0000 base address as HEX file for programmer
                        ;		srec_cat SMITHBUG_FORTH_SIMPLE-6802_C000.s -offset - -minimum-addr SMITHBUG_FORTH_SIMPLE-6802_C000.s -o SMITHBUG_FORTH_SIMPLE-FC.hex -Intel
                        ;
                        ; SMITHBUG Commands
                        ;	D	DISASSEMBLE CODE
                        ;	V	VIEW MEMORY
                        ;	E	CHANGE MEMORY
                        ;	I	FILL MEMORY
                        ;	M	MOVE MEMORY
                        ;	&	S1 LOAD PROGRAM
                        ;	J	JUMP TO TARGET PROGRAM
                        ;	G	GO TO PROGRAM
                        ;	R	PRINT
                        ;	@	ASCII CONVERSION
                        ;	H	PRINTER ON
                        ;	F	FIND 
                        ;	K	CONTINUE AFTER BREAK
                        ;	T	TRACE PROGRAM
                        ;	1	BREAKPOINT ONE
                        ;	2	BREAKPOINT TWO
                        ;	Q	HARDWARE LOCATION
                        ;	*	HARDWARE LOCATION (TBA)
                        ;	O	ECHO ON
                        ;	N	ECHO OFF
                        ;	4	RUN FORTH
                        ;
                        ; DGG - Addresses for ACIA
   8000                 ACIACS	EQU	$8000		; ACIA Control/Status port
   8001                 ACIADA	EQU	ACIACS+1	; ACIA data port
                        ;
                        ; RAM used by FORTH is below
                        ; Manually delete from S-records file befpre running srec_cat
   00e0                 	org	$E0	;variables
                        
   00e0                 N	rmb	10	;used as scratch by (FIND),ENCLOSE,CMOVE,EMIT,KEY,
                        ;                              SP@,SWAP,DOES>,COLD
                        
                        ;	These locations are used by the TRACE routine :
                        
   00ea                 TRLIM	rmb	1	;the count for tracing without user intervention
   00eb                 TRACEM	rmb	1	;non-zero = trace mode
   00ec                 BRKPT	rmb	2	;the breakpoint address at which
                        ;              	 the program will go into trace mode
   00ee                 VECT	rmb	2	;vector to machine code
                        ;               	 (only needed if the TRACE routine is resident)
                        
                        ;	Registers used by the FORTH virtual machine:
                        ;	Starting at $OOFO:
                        
   00f0                 W	rmb	2	;the instruction register points to 6800 code
   00f2                 IP	rmb	2	;the instruction pointer points to pointer to 6800 code
   00f4                 RP	rmb	2	;the return stack pointer
   00f6                 UP	rmb	2	;the pointer to base of current user's 'USER' table
                        ;           		 (altered during multi-tasking)
                        
                        ;	This system is shown with one user, but additional users
                        ;	may be added by allocating additional user tables:
                        ;	UORIG2 rmb 64 data table for user #2
                        ;
                        ;	Some of this stuff gets initialized during
                        ;	COLD sta a rt and WARM sta a rt:
                        ; 	[ names correspond to FORTH words of similar (no X) name ]
                        
   0100                 	org	$100
                        
   0100                 UORIG	rmb	6	;3 reserved variables
   0106                 XSPZER	rmb	2	;initial top of data stack for this user
   0108                 XRZERO	rmb	2	;initial top of return stack
   010a                 XTIB	rmb	2	;sta a rt of terminal input buffer
   010c                 XWIDTH	rmb	2	;name field width
   010e                 XWARN	rmb	2	;warning message mode (0 = no disc)
   0110                 XFENCE	rmb	2	;fence for FORGET
   0112                 XDP	rmb	2	;dictionary pointer
   0114                 XVOCL	rmb	2	;vocabulary linking
   0116                 XBLK	rmb	2	;disc block being accessed
   0118                 XIN	rmb	2	;scan pointer into the block
   011a                 XOUT	rmb	2	;cursor position
   011c                 XSCR	rmb	2	;disc screen being accessed (O=terminal)
   011e                 XOFSET	rmb	2	;disc sector offset for multi-disc
   0120                 XCONT	rmb	2	;last word in primary search vocabulary
   0122                 XCURR	rmb	2	;last word in extensible vocabulary
   0124                 XSTATE	rmb	2	;flag for 'interpret' or 'COMPILE' modes
   0126                 XBASE	rmb	2	;number base for I/O numeric conversion
   0128                 XDPL	rmb	2	;DECIMAl point place
   012a                 XFLD	rmb	2	
   012c                 XCSP	rmb	2	;current stack position, for COMPILE checks
   012e                 XRNUM	rmb	2	
   0130                 XHLD	rmb	2	
   0132                 XDELAY	rmb	2	;carriage return delay count
   0134                 XCOLUM	rmb	2	;carriage width
   0136                 IOSTAT	rmb	2	;last acia status from write/read
   0138                 	rmb	2	;(4 spares!)
   013a                 	rmb	2	
   013c                 	rmb	2	
   013e                 	rmb	2	
                        
                        ;
                        ;   end of user table, sta a rt of common system variables
                        ;
                        
   0140                 XUSE	rmb	2
   0142                 XPREV	rmb	2
   0144                 	rmb	4	;(spares)
                        
                        ;  These things, up through the lable 'REND', are overwritten
                        ;  at time of cold load and should have the same contents
                        ;  as shown here:
                        
   0148   c5            	fcb	$C5	;immediate
   0149   46 4f 52 54   	fcc	"FORT"	;fcc	4,FORTH
   014d   c8            	fcb	$C8
   014e   e7 4d         	fdb	NOOP-7
   0150   d9 fa df 19   FORTH	fdb	DODOES,DOVOC,$81A0,TASK-7
   0154   81 a0 01 78   
   0158   00 00         	fdb	0
                        
   015a   28 43 29 20   	fcc	"(C) Forth Interest Group, 1979"
   015e   46 6f 72 74   
   0162   68 20 49 6e   
   0166   74 65 72 65   
   016a   73 74 20 47   
   016e   72 6f 75 70   
   0172   2c 20 31 39   
   0176   37 39         
                        
   0178   84            	fcb	$84
   0179   54 41 53      	fcc	"TAS"	;fcc	3,TASK
   017c   cb            	fcb	$CB
   017d   01 48         	fdb	FORTH-8
   017f   d5 2a d3 6c   TASK	fdb	DOCOL,SEMIS
                        
   0183                 REND	equ	*	;(first empty location in dictionary)
                        
                        ; DGG - Set the start of the 256 byte scratchpad SRAM which is at the top of the 32KB of user memory
                        ;       to reflect the SIMPLE-6802 Memory Map
   7f00                 VAR_SM	EQU	$7F00		; TOP OF USER MEMORY
                        ;
   7f00                 		ORG VAR_SM
                        ; DGG - RAM variables for SMITHBUG
   7f00                 BUFF_SM		RMB 2		;V2: Buffer to protect system scratch
   7f02                 IOV			RMB 2		;here and below same as V1
   7f04                 BEGA		RMB 2
   7f06                 ENDA		RMB 2
   7f08                 NIO			RMB 2
   7f0a                 SP			RMB 2
   7f0c                 ACIAT		RMB 1
   7f0d                 ECHO		RMB 1
   7f0e                 XHI			RMB 1
   7f0f                 XLOW		RMB 1
   7f10                 TEMP		RMB 1
   7f11                 TW			RMB 2
   7f13                 TFLAG		RMB 1
   7f14                 XTEMP		RMB 2
   7f16                 BKFLG		RMB 1
   7f17                 SWIPTR		RMB 45
   7f44                 STACK		RMB 8
   7f4c                 PRINTR		RMB 3
   7f4f                 BFLAG 		RMB 1
   7f50                 MFLAG		RMB 1
   7f51                 XFLAG		RMB 1
   7f52                 BITE2		RMB 1
   7f53                 BITE3		RMB 15
   7f62                 TSTACK		RMB 1
   7f63                 OPSAVE		RMB 1
   7f64                 PB1			RMB 1
   7f65                 PB2			RMB 1
   7f66                 PB3			RMB 1
   7f67                 BYTECT		RMB 1
   7f68                 PC1			RMB 1
   7f69                 PC2			RMB 1
   7f6a                 BPOINT		RMB 3
   7f6d                 BKFLG2		RMB 1
   7f6e                 MCONT		RMB 1
                        ; V2 S-record data area
   7f6f                 TEMPX1		RMB 2			; S-Load Temporary X register
   7f71                 ADDRESS		RMB 1			; Build 16 bit address byte 1
   7f72                 ADDRESS1	RMB 1			; Build 16 bit address byte 2
   7f73                 BYTESTORE	RMB 1			; Save Byte Count
   7f74                 TEMPA		RMB 1			; Save A Register
                        ;
                        ;	OPT	MEMORY
                        ;
                        ; DGG - SIMPLE-6802 HAS 16KB ROM at $C000 - $FFFF
                        ; SMITHBUG HAS USES $C000-$CFFF
   c000                 	ORG	$C000			;V1 has $F800H
                        ;
                        ;	ENTER POWER ON SEQUENCE
                        ;
   c000                 START EQU *
   c000   8e 7f 44      	LDS #STACK
   c003   bf 7f 0a      	STS SP
   c006   7f 7f 0d      	CLR ECHO		; DGG - default to serial port echo on
   c009   ce c1 25      	LDX #SFE		; DGG - VECTORED SWI ROUTINE
   c00c   ff 7f 17      	STX SWIPTR
   c00f   ff 7f 08      	STX NIO
                        ;
                        ;	ACIA INITIALISE
                        ;
   c012   86 03         	LDAA	#$03	;RESET CODE
   c014   b7 80 00      	STAA	ACIACS
   c017   01            	NOP
   c018   01            	NOP
   c019   01            	NOP
   c01a   86 15         	LDAA	#$15	;8N1 NON-INTERRUPT
   c01c   b7 7f 0c      	STAA	ACIAT
                        ;
                        ;	COMMAND CONTROL
                        ;
   c01f   b6 7f 0c      CONTRL LDA A ACIAT
   c022   b7 80 00      	STA A ACIACS
   c025   8e 7f 44      	LDS #STACK	;SET CONTRL STACK POINTER
   c028   8e 7f 62      	LDS #TSTACK
   c02b   7f 7f 13      	CLR TFLAG
   c02e   7f 7f 16      	CLR BKFLG
   c031   7f 7f 6d      	CLR BKFLG2
   c034   ce c7 70      	LDX #MCL
   c037   8d 61         	BSR PDATA1
   c039   8d 59         	BSR INCH
   c03b   16            	TAB
   c03c   bd c0 ef      	JSR OUTS
                        ;
                        ; CHECK IF COMMAND IS VALID AND JUMP TO APPLICATION
                        ;
   c03f   ce c7 c5      	LDX #FUTABL
   c042   e1 00         NXTCHR CMP B 0,X
   c044   27 0b         	BEQ GOODCH
   c046   08            	INX
   c047   08            	INX
   c048   08            	INX
   c049   8c c8 04      	CPX #TBLEND
   c04c   26 f4         	BNE NXTCHR
   c04e   7e c4 46      	JMP CKCBA
   c051   ee 01         GOODCH	LDX 1,X
   c053   6e 00         	JMP 0,X
                        ;
                        ;  IRQ INTERUPT SEQUENCE
                        ;
   c055   fe 7f 02      IO	LDX IOV
   c058   6e 00         	JMP 0,X
                        ;
                        ;  NMI SEQUENCE
                        ;
   c05a   fe 7f 08      POWDWN LDX NIO
   c05d   6e 00         	JMP 0,X
                        ;
                        ;  SWI SEQUENCE
                        ;
   c05f   fe 7f 17      SWI	LDX SWIPTR
   c062   6e 00         	JMP 0,X
   c064   86 3f         LOAD19 LDA A #$3F
   c066   8d 29         	BSR OUTCH
   c068   20 b5         C1	BRA CONTRL
                        ;
                        ;  BUILD ADDRESS
                        ;
   c06a   8d 0c         BADDR	BSR BYTE
   c06c   b7 7f 0e      	STA A XHI
   c06f   8d 07         	BSR BYTE
   c071   b7 7f 0f      	STA A XLOW
   c074   fe 7f 0e      	LDX XHI
   c077   39            	RTS
                        ;
                        ;  INPUT ONE BYTE
                        ;
   c078   8d 53         BYTE	BSR INHEX
   c07a   48            	ASL A
   c07b   48            	ASL A
   c07c   48            	ASL A
   c07d   48            	ASL A
   c07e   16            	TAB
   c07f   8d 4c         	BSR INHEX
   c081   1b            	ABA
   c082   39            	RTS
                        ;
                        ;  OUTPUT LEFT HEX NUMBER
                        ;
   c083   44            OUTHL	LSR A
   c084   44            	LSR A
   c085   44            	LSR A
   c086   44            	LSR A
                        ;
                        ;  OUTPUT RIGHT HEX NUMBER
                        ;
   c087   84 0f         OUTHR	AND A #$F
   c089   8b 30         	ADD A #$30
   c08b   81 39         	CMP A #$39
   c08d   23 02         	BLS OUTCH
   c08f   8b 07         	ADD A #$7
   c091   7e c2 0a      OUTCH	JMP OUTEEE
   c094   7e c1 f3      INCH	JMP INEEE
                        ;
   c097   8d f8         PDATA2	BSR OUTCH
   c099   08            	INX
   c09a   a6 00         PDATA1	LDA A 0,X
   c09c   81 04         	CMP A #$4
   c09e   26 f7         	BNE PDATA2
   c0a0   39            	RTS
                        ;
                        ; CHANGE MEMORY
                        ;
   c0a1   8d c7         CHANGE	BSR BADDR
   c0a3   ce c7 70      CHA51	LDX #MCL
   c0a6   8d f2         	BSR PDATA1
   c0a8   8d 72         	BSR OUTXHI
   c0aa   8d 41         	BSR OUT2HS
   c0ac   ff 7f 0e      	STX XHI
   c0af   8d e3         	BSR INCH
   c0b1   81 20         	CMP A #$20
   c0b3   27 ee         	BEQ CHA51
   c0b5   81 5e         	CMP A #$5E
   c0b7   26 07         	BNE CHM1
   c0b9   09            	DEX
   c0ba   09            	DEX
   c0bb   ff 7f 0e      	STX XHI
   c0be   20 e3         	BRA CHA51
   c0c0   8d 0d         CHM1	BSR INHEX+2
   c0c2   8d b6         	BSR BYTE+2
   c0c4   09            	DEX
   c0c5   a7 00         	STA A 0,X
   c0c7   a1 00         	CMP A 0,X
   c0c9   27 d8         	BEQ CHA51
                        ;
   c0cb   20 97         XBK	BRA LOAD19
                        ;
   c0cd   8d c5         INHEX	BSR INCH
   c0cf   80 30         	SUB A #$30
   c0d1   2b 95         	BMI C1
   c0d3   81 09         	CMP A #$9
   c0d5   2f 0a         	BLE IN1HG
   c0d7   81 11         	CMP A #$11
   c0d9   2b 8d         	BMI C1
   c0db   81 16         	CMP A #$16
   c0dd   2e 89         	BGT C1
   c0df   80 07         	SUB A #$7
   c0e1   39            IN1HG	RTS
                        ;
                        ;
   c0e2   a6 00         OUT2H	LDA A 0,X
   c0e4   8d 9d         	BSR OUTHL
   c0e6   a6 00         	LDA A 0,X
   c0e8   08            	INX
   c0e9   20 9c         	BRA OUTHR
                        ;
   c0eb   8d f5         OUT4HS	BSR OUT2H
   c0ed   8d f3         OUT2HS	BSR OUT2H
   c0ef   86 20         OUTS	LDA A #$20
   c0f1   20 9e         	BRA OUTCH
                        ;
                        ; SET BREAK POINTS
                        ;
   c0f3   bd c2 66      BKPNT2	JSR ADDR
   c0f6   ff 7f 68      	STX PC1
   c0f9   a6 00         	LDA A 0,X
   c0fb   b7 7f 6d      	STA A BKFLG2
   c0fe   27 cb         	BEQ XBK
   c100   86 3f         	LDA A #$3F
   c102   a7 00         	STA A 0,X
   c104   bd c2 66      BKPNT	JSR ADDR
   c107   ff 7f 65      	STX PB2
   c10a   a6 00         	LDA A 0,X
   c10c   b7 7f 16      	STA A BKFLG
   c10f   27 ba         	BEQ XBK
   c111   86 3f         	LDA A #$3F
   c113   a7 00         	STA A 0,X
   c115   bd c2 c9      	JSR CRLF
                        ;
                        ; FALL INTO GO COMMAND
                        ;
   c118   be 7f 0a      CONTG	LDS SP
   c11b   3b            	RTI
                        ;
                        ; PRINT XHI ADDRESS SUB
                        ;
   c11c   ce 7f 0e      OUTXHI	LDX #XHI
   c11f   8d ca         	BSR OUT4HS
   c121   fe 7f 0e      	LDX XHI
   c124   39            	RTS
                        ;
                        ; VECTORED SWI ROUTINE
                        ;
   c125   bf 7f 0a      SFE	STS SP
   c128   30            	TSX
   c129   6d 06         	TST 6,X
   c12b   26 02         	BNE *+4
   c12d   6a 05         	DEC 5,X
   c12f   6a 06         	DEC 6,X
   c131   8e 7f 62      	LDS #TSTACK
   c134   7d 7f 13      	TST TFLAG
   c137   27 18         	BEQ PRINT
   c139   fe 7f 68      	LDX PC1
   c13c   b6 7f 63      	LDA A OPSAVE
   c13f   a7 00         	STA A 0,X
   c141   7d 7f 4f      	TST BFLAG
   c144   27 08         	BEQ DISPLY
   c146   fe 7f 6a      	LDX BPOINT
   c149   b6 7f 6c      	LDA A BPOINT+2
   c14c   a7 00         	STA A 0,X
   c14e   7e c2 e9      DISPLY	JMP RETURN
                        ;
                        ; PRINT REGISTERS
                        ;
   c151   fe 7f 0a      PRINT	LDX SP
   c154   86 06         	LDA A #6
   c156   b7 7f 6e      	STA A MCONT
   c159   e6 01         	LDA B 1,X
   c15b   58            	ASL B
   c15c   58            	ASL B
   c15d   ce c7 87      	LDX #CSET
                        ;
   c160   86 2d         DSOOP	LDA A #$2D
   c162   58            	ASL B
   c163   24 02         	BCC DSOOP1
   c165   a6 00         	LDA A 0,X
   c167   bd c2 0a      DSOOP1	JSR OUTEEE
   c16a   08            	INX
   c16b   7a 7f 6e      	DEC MCONT
   c16e   26 f0         	BNE DSOOP
   c170   ce c7 76      	LDX #BREG
   c173   8d 5a         	BSR PDAT
   c175   fe 7f 0a      	LDX SP
   c178   08            	INX
   c179   08            	INX
   c17a   bd c0 ed      	JSR OUT2HS
   c17d   ff 7f 10      	STX TEMP
   c180   ce c7 7a      	LDX #AREG
   c183   8d 4a         	BSR PDAT
   c185   fe 7f 10      	LDX TEMP
   c188   bd c0 ed      	JSR OUT2HS
   c18b   ff 7f 10      	STX TEMP
   c18e   ce c7 7d      	LDX #XREG
   c191   8d 3c         	BSR PDAT
   c193   fe 7f 10      	LDX TEMP
   c196   8d 52         	BSR PRTS
   c198   ff 7f 10      	STX TEMP
   c19b   7d 7f 13      	TST TFLAG
   c19e   26 0a         	BNE PNTS
   c1a0   ce c7 83      	LDX #PCTR
   c1a3   8d 2a         	BSR PDAT
   c1a5   fe 7f 10      	LDX TEMP
   c1a8   8d 40         	BSR PRTS
   c1aa   ce c7 80      PNTS	LDX #SREG
   c1ad   8d 20         	BSR PDAT
   c1af   ce 7f 0a      	LDX #SP
   c1b2   7d 7f 13      	TST TFLAG
   c1b5   26 22         	BNE PRINTS
   c1b7   8d 31         	BSR PRTS
                        ;
                        ; CHECK IF ANY BREAK POINTS ARE SET
                        ;
   c1b9   b6 7f 16      	LDA A BKFLG
   c1bc   26 0f         	BNE C2
   c1be   fe 7f 65      	LDX PB2
   c1c1   a7 00         	STA A 0,X
   c1c3   b6 7f 6d      	LDA A BKFLG2
   c1c6   27 05         	BEQ C2
   c1c8   fe 7f 68      	LDX PC1
   c1cb   a7 00         	STA A 0,X
   c1cd   20 1e         C2	BRA CR8
   c1cf   7e c0 9a      PDAT	JMP PDATA1
                        ;
                        ; SET ECHO FUNCTION
                        ;
   c1d2   5f            ECHON	CLR B
   c1d3   50            PRNTON NEG B
   c1d4   f7 7f 0d      ECHOFF STA B ECHO
   c1d7   20 14         	BRA CR8
                        ;
                        ;  PRINT STACK POINTER
                        ;
   c1d9   e6 00         PRINTS LDA B 0,X
   c1db   a6 01         	LDA A 1,X
   c1dd   8b 07         	ADD A #7
   c1df   c9 00         	ADC B #0
   c1e1   f7 7f 10      	STA B TEMP
   c1e4   b7 7f 11      	STA A TEMP+1
   c1e7   ce 7f 10      	LDX #TEMP
   c1ea   7e c0 eb      PRTS	JMP OUT4HS
                        ;
                        ;changes from version 1 are below see 006.jpg
                        ;
   c1ed   20 5a         CR8	BRA IFILL1
                        ;
                        ;     SAVE X REGISTER
                        ;
   c1ef   ff 7f 14      SAV	STX XTEMP
   c1f2   39            	RTS
                        ;
                        ;	INPUT ONE CHAR INTO A-REGISTER
                        ;
   c1f3   8d fa         INEEE 	BSR	SAV
   c1f5   b6 80 00      IN1	LDAA	ACIACS
   c1f8   47            	ASRA
   c1f9   24 fa         	BCC	IN1	;RECEIVE NOT READY
   c1fb   b6 80 01      	LDAA	ACIADA	;INPUT CHARACTER
   c1fe   84 7f         	ANDA	#$7F	;RESET PARITY BIT
   c200   81 7f         	CMPA	#$7F
   c202   27 f1         	BEQ	IN1	;IF RUBOUT, GET NEXT CHAR
   c204   7d 7f 0d      	TST ECHO
   c207   2f 01         	BLE OUTEEE
   c209   39            	RTS
                        ;
                        ;	OUTPUT ONE CHAR 
                        ;
   c20a   36            OUTEEE	PSH	A
   c20b   b6 80 00      OUTEEE1 LDA A	ACIACS
   c20e   47            	ASR A
   c20f   47            	ASR A
   c210   24 f9         	BCC	OUTEEE1
   c212   32            	PUL A
   c213   b7 80 01      	STA A	ACIADA
   c216   39            	RTS
                        ;
                        ; changes from V1 are above
                        ;
                        ;  HERE ON JUMP COMMAND
                        ;
   c217   ce d0 00      GOFORTH	LDX	#$D000
   c21a   6e 00         		JMP	0,X
                        
   c21c   ce c7 b5      JUMP	LDX #TOADD
   c21f   8d 32         	BSR ENDADD+3
   c221   8e 7f 44      	LDS #STACK
   c224   6e 00         	JMP 0,X
                        ;
                        ;  ASCII IN "@" COMMAND
                        ;
   c226   8d 23         ASCII	BSR BAD2
   c228   08            	INX
   c229   09            ASC01	DEX
   c22a   8d c7         ASC02	BSR INEEE
   c22c   81 08         	CMP A #$8
   c22e   27 f9         	BEQ ASC01
   c230   a7 00         	STA A 0,X
   c232   81 04         	CMP A #$4
   c234   27 60         	BEQ CR9
   c236   08            	INX
   c237   20 f1         	BRA ASC02
                        ;
                        ;  FILL MEMORY "I" COMMAND
                        ;
   c239   8d 1e         IFILL	BSR LIMITS
   c23b   8d 2e         	BSR VALUE
   c23d   fe 7f 04      	LDX BEGA
   c240   09            	DEX
   c241   08            IFILL2	INX
   c242   a7 00         	STA A 0,X
   c244   bc 7f 06      	CPX ENDA
   c247   26 f8         	BNE IFILL2
   c249   20 4b         IFILL1	BRA CR9
                        ;
                        ;  INPUT DATA SUB ROUTINE
                        ;
   c24b   ce c7 9b      BAD2	LDX #FROMAD
   c24e   20 03         	BRA *+5
   c250   ce c7 a8      ENDADD	LDX #THRUAD
   c253   bd c0 9a      	JSR PDATA1
   c256   7e c0 6a      	JMP BADDR
   c259   8d f0         LIMITS	BSR BAD2
   c25b   ff 7f 04      	STX BEGA
   c25e   8d f0         	BSR ENDADD
   c260   ff 7f 06      	STX ENDA
   c263   7e c2 c9      	JMP CRLF
   c266   fe c7 91      ADDR	LDX ADASC
   c269   20 e8         	BRA ENDADD+3
   c26b   ce c7 be      VALUE	LDX #VALASC
   c26e   bd c0 9a      	JSR PDATA1
   c271   7e c0 78      	JMP BYTE
                        ;
                        ; BLOCK MOVE "M" COMMAND
                        ;
   c274   8d e3         MOVE	BSR LIMITS
   c276   ce c7 b5      	LDX #TOADD
   c279   8d d8         	BSR ENDADD+3
   c27b   fe 7f 04      	LDX BEGA
   c27e   09            	DEX
   c27f   08            BMC1	INX
   c280   a6 00         	LDA A 0,X
   c282   ff 7f 04      	STX BEGA
   c285   fe 7f 0e      	LDX XHI
   c288   a7 00         	STA A 0,X
   c28a   08            	INX
   c28b   ff 7f 0e      	STX XHI
   c28e   fe 7f 04      	LDX BEGA
   c291   bc 7f 06      	CPX ENDA
   c294   26 e9         	BNE BMC1
   c296   7e c0 1f      CR9	JMP CONTRL
                        ;
                        ;  SEARCH MEMORY "S" COMMAND
                        ;
   c299   8d be         FIND	BSR LIMITS
   c29b   8d ce         	BSR VALUE
   c29d   16            	TAB
   c29e   fe 7f 04      	LDX BEGA
   c2a1   09            	DEX
   c2a2   08            SMC1	INX
   c2a3   a6 00         	LDA A 0,X
   c2a5   11            	CBA
   c2a6   26 08         	BNE SMC2
   c2a8   ff 7f 0e      	STX XHI
   c2ab   8d 1c         	BSR CRLF
   c2ad   bd c1 1c      	JSR OUTXHI
   c2b0   bc 7f 06      SMC2	CPX ENDA
   c2b3   26 ed         	BNE SMC1
   c2b5   20 df         	BRA CR9
                        ;
                        ;  SUB ROUTINE TO ADD SPACE
                        ;
   c2b7   86 20         SKIP	LDA A #$20
   c2b9   bd c2 0a      	JSR OUTEEE
   c2bc   5a            	DEC B 
   c2bd   26 f8         	BNE SKIP
   c2bf   39            	RTS
                        ;
                        ;  PRINT BYTE IN A REGISTER
                        ;
   c2c0   b7 7f 67      PNTBYT	STA A BYTECT
   c2c3   ce 7f 67      	LDX #BYTECT
   c2c6   7e c0 e2      	JMP OUT2H
                        ;
                        ;  CARRIAGE RETURN NON PROMPT
                        ;
   c2c9   ce c7 8d      CRLF	LDX #CRLFAS
   c2cc   7e c0 9a      	JMP PDATA1
                        ;
                        ;  DISASSEMBLE "D" COMMAND
                        ;
   c2cf   bd c2 4b      DISSA	JSR BAD2
   c2d2   20 1d         	BRA DISS
                        ;
                        ;  TRACE COMMAND "T"
                        ;
   c2d4   bd c2 4b      TRACE	JSR 	BAD2
   c2d7   8d f0         	BSR 	CRLF
   c2d9   fe 7f 0a      	LDX 	SP
   c2dc   f6 7f 0e      	LDA B 	XHI
   c2df   e7 06         	STA B 	6,X
   c2e1   b6 7f 0f      	LDA A 	XLOW
   c2e4   a7 07         	STA A 	7,X
   c2e6   7c 7f 13      KONTIN	INC 	TFLAG
   c2e9   bd c1 51      RETURN	JSR 	PRINT
   c2ec   fe 7f 0a      	LDX 	SP
   c2ef   ee 06         	LDX 	6,X
   c2f1   ff 7f 68      DISS	STX 	PC1
   c2f4   8d d3         DISIN	BSR 	CRLF
   c2f6   ce 7f 68      	LDX 	#PC1
   c2f9   bd c0 eb      	JSR 	OUT4HS
   c2fc   ce 7f 4f      	LDX 	#BFLAG
   c2ff   86 05         	LDA A 	#5
   c301   6f 00         CLEAR	CLR 	0,X
   c303   08            	INX
   c304   4a            	DEC A
   c305   26 fa         	BNE 	CLEAR
   c307   fe 7f 68      	LDX 	PC1
   c30a   e6 00         	LDA B 0,X
   c30c   bd c0 ed      	JSR 	OUT2HS
   c30f   ff 7f 68      	STX 	PC1
   c312   a6 00         	LDA A 	0,X
   c314   b7 7f 65      	STA A 	PB2
   c317   a6 01         	LDA A 	1,X
   c319   b7 7f 66      	STA A 	PB3
   c31c   f7 7f 64      	STA B 	PB1
   c31f   17            	TBA
   c320   bd c5 1d      	JSR 	TBLKUP
   c323   b6 7f 10      	LDA A 	TEMP
   c326   81 2a         	CMP A 	#$2A
   c328   26 03         	BNE 	OKOP
   c32a   7e c3 ee      	JMP 	NOTBB
   c32d   b6 7f 64      OKOP	LDA A 	PB1
   c330   81 8d         	CMP A 	#$8D
   c332   26 05         	BNE 	NEXT_SM
   c334   7c 7f 4f      	INC 	BFLAG
   c337   20 2d         	BRA 	PUT1
   c339   84 f0         NEXT_SM	AND A 	#$F0
   c33b   81 60         	CMP A 	#$60
   c33d   27 18         	BEQ 	ISX
   c33f   81 a0         	CMP A 	#$A0
   c341   27 14         	BEQ  	ISX
   c343   81 e0         	CMP A	#$E0
   c345   27 10          	BEQ  	ISX
   c347   81 80         	CMP A	#$80
   c349   27 04         	BEQ 	IMM
   c34b   81 c0         	CMP A 	#$C0
   c34d   26 17         	BNE 	PUT1
   c34f   7c 7f 50      IMM	INC 	MFLAG
   c352   ce c7 5e      	LDX 	#SPLBD0
   c355   20 0c         	BRA 	PUT
   c357   7c 7f 51      ISX	INC 	XFLAG
   c35a   b6 7f 65      	LDA A 	PB2
   c35d   bd c2 c0      	JSR	PNTBYT
   c360   ce c7 61      	LDX 	#COMMX
   c363   bd c0 9a      PUT	JSR 	PDATA1
   c366   fe 7f 68      PUT1	LDX 	PC1
   c369   b6 7f 64      	LDA A 	PB1
   c36c   81 8c         	CMP A 	#$8C
   c36e   27 1d         	BEQ 	BYT3
   c370   81 8e         	CMP A 	#$8E
   c372   27 19         	BEQ 	BYT3
   c374   81 ce         	CMP A 	#$CE  
   c376   27 15         	BEQ 	BYT3
   c378   84 f0         	AND A 	#$F0
   c37a   81 20         	CMP A 	#$20
   c37c   26 05         	BNE 	NOTB
   c37e   7c 7f 4f      	INC 	BFLAG
   c381   20 25         	BRA 	BYT2
   c383   81 60         NOTB	CMP A 	#$60
   c385   25 43         	BCS 	BYT1
   c387   84 30         	AND A 	#$30
   c389   81 30         	CMP A 	#$30
   c38b   26 1b         	BNE 	BYT2
   c38d   7c 7f 53      BYT3	INC 	BITE3
   c390   7d 7f 50      	TST 	MFLAG
   c393   26 05         	BNE 	BYT31
   c395   86 24         	LDA A 	#$24
   c397   bd c2 0a      	JSR 	OUTEEE
   c39a   a6 00         BYT31	LDA A 	0,X
   c39c   08            	INX
   c39d   ff 7f 68      	STX 	PC1
   c3a0   bd c2 c0      	JSR 	PNTBYT
   c3a3   fe 7f 68      	LDX 	PC1
   c3a6   20 03         	BRA 	BYT21
   c3a8   7c 7f 52      BYT2	INC 	BITE2
   c3ab   a6 00         BYT21	LDA A 	0,X
   c3ad   08            	INX
   c3ae   ff 7f 68      	STX 	PC1
   c3b1   7d 7f 51      	TST 	XFLAG
   c3b4   26 14         	BNE 	BYT1
   c3b6   7d 7f 53      	TST 	BITE3
   c3b9   26 0c         	BNE 	BYT22
   c3bb   7d 7f 50      	TST 	MFLAG
   c3be   26 07         	BNE 	BYT22
   c3c0   16            	TAB
   c3c1   86 24         	LDA A 	#$24
   c3c3   bd c2 0a      	JSR 	OUTEEE
   c3c6   17            	TBA
   c3c7   bd c2 c0      BYT22	JSR 	PNTBYT
   c3ca   7d 7f 4f      BYT1	TST 	BFLAG
   c3cd   27 1f         	BEQ 	NOTBB
   c3cf   c6 03         	LDA B 	#3
   c3d1   bd c2 b7      	JSR 	SKIP
   c3d4   4f            	CLR A
   c3d5   f6 7f 65      	LDA B 	PB2
   c3d8   2c 02         	BGE 	DPOS
   c3da   86 ff         	LDA A 	#$FF
   c3dc   fb 7f 69      DPOS	ADD B 	PC2
   c3df   b9 7f 68      	ADC A 	PC1
   c3e2   b7 7f 6a      	STA A 	BPOINT
   c3e5   f7 7f 6b      	STA B 	BPOINT+1
   c3e8   ce 7f 6a      	LDX 	#BPOINT
   c3eb   bd c0 eb      	JSR 	OUT4HS
                        ;
                        ; PRINT ASCII VALUE OF INST
                        ;
   c3ee   c6 0d         NOTBB	LDA B #$D
   c3f0   86 01         	LDA A #1
   c3f2   7d 7f 52      	TST BITE2
   c3f5   27 19         	BEQ PAVOI3
   c3f7   c6 01         	LDA B #1
   c3f9   7d 7f 4f      	TST BFLAG
   c3fc   26 0e         	BNE PAVOI2
   c3fe   c6 08         	LDA B #8
   c400   7d 7f 50      	TST MFLAG
   c403   26 07         	BNE PAVOI2
   c405   7d 7f 50      	TST MFLAG
   c408   26 02         	BNE PAVOI2
   c40a   c6 09         	LDA B #9
   c40c   86 02         PAVOI2	LDA A #2
   c40e   20 10         	BRA PAVOI8
                        ;
   c410   7d 7f 53      PAVOI3	TST BITE3
   c413   27 0b         	BEQ PAVOI8
   c415   86 03         	LDA A #3
   c417   c6 06         	LDA B #6
   c419   7d 7f 50      	TST MFLAG
   c41c   27 02         	BEQ PAVOI8
   c41e   c6 05         	LDA B #5
   c420   36            PAVOI8	PSH A
   c421   bd c2 b7      	JSR SKIP
   c424   33            	PUL B
   c425   ce 7f 64      	LDX #PB1
   c428   a6 00         PAVOI4	LDA A 0,X
   c42a   81 20         	CMP A #$20
   c42c   2f 04         	BLE PAVOI5
   c42e   81 60         	CMP A #$60
   c430   2f 02         	BLE PAVOI9
   c432   86 2e         PAVOI5	LDA A #$2E
   c434   08            PAVOI9	INX
   c435   bd c2 0a      	JSR OUTEEE
   c438   5a            	DEC B
   c439   26 ed         	BNE PAVOI4
   c43b   bd c1 f3      NOT1	JSR INEEE
   c43e   16            	TAB			; SAVE INPUT CHAR IN B REG
   c43f   bd c0 ef      	JSR OUTS
   c442   c1 20         	CMP B #$20
   c444   27 34         	BEQ DOT_SM
                        ;
                        ;  CHECK INPUT COMMAND
                        ;  A, B, C, X, OR S
                        ;
   c446   fe 7f 0a      CKCBA	LDX SP
   c449   08            	INX
   c44a   c1 43         	CMP B #$43	; C
   c44c   27 1c         	BEQ RDC
   c44e   08            	INX
   c44f   c1 42         	CMP B #$42	; B
   c451   27 17         	BEQ RDC
   c453   08            	INX
   c454   c1 41         	CMP B #$41	; A
   c456   27 12         	BEQ RDC
   c458   08            	INX
   c459   c1 58         	CMP B #$58	; X
   c45b   27 07         	BEQ RDX
   c45d   ce 7f 0a      	LDX #SP
   c460   c1 53         	CMP B #$53	; S
   c462   26 13         	BNE RETNOT
   c464   bd c0 78      RDX	JSR BYTE
   c467   a7 00         	STA A 0,X
   c469   08            	INX
   c46a   bd c0 78      RDC	JSR BYTE
   c46d   a7 00         	STA A 0,X
   c46f   bd c2 c9      	JSR CRLF
   c472   bd c1 51      	JSR PRINT
                        ;
                        ;  WILL RETURN HERE IN TRACE
                        ;
   c475   20 c4         	BRA NOT1
   c477   7e c0 1f      RETNOT	JMP CONTRL
   c47a   7d 7f 13      DOT_SM	TST TFLAG
   c47d   26 03         	BNE DOT1
   c47f   7e c2 f4      	JMP DISIN
                        ;
   c482   c6 3f         DOT1	LDA B #$3F
   c484   b6 7f 64      	LDA A PB1
   c487   81 8d         	CMP A #$8D
   c489   26 09         	BNE TSTB
   c48b   fe 7f 6a      	LDX BPOINT
   c48e   ff 7f 68      	STX PC1
   c491   7f 7f 4f      	CLR BFLAG
   c494   7d 7f 4f      TSTB	TST BFLAG
   c497   27 0c         	BEQ TSTJ
   c499   fe 7f 6a      	LDX BPOINT
   c49c   a6 00         	LDA A 0,X
   c49e   b7 7f 6c      	STA A BPOINT+2
   c4a1   e7 00         	STA B 0,X
   c4a3   20 48         	BRA EXEC_SM
                        ;
   c4a5   81 6e         TSTJ	CMP A #$6E
   c4a7   27 14         	BEQ ISXD
   c4a9   81 ad         	CMP A #$AD
   c4ab   27 10         	BEQ ISXD
   c4ad   81 7e         	CMP A #$7E
   c4af   27 04         	BEQ ISJ
   c4b1   81 bd         	CMP A #$BD
   c4b3   26 1c         	BNE NOTJ
   c4b5   fe 7f 65      ISJ	LDX PB2
   c4b8   ff 7f 68      	STX PC1
   c4bb   20 30         	BRA EXEC_SM
   c4bd   fe 7f 0a      ISXD	LDX SP
   c4c0   a6 05         	LDA A 5,X
   c4c2   bb 7f 65      	ADD A PB2
   c4c5   b7 7f 69      	STA A PC2
   c4c8   a6 04         	LDA A 4,X
   c4ca   89 00         	ADC A #0
   c4cc   b7 7f 68      	STA A PC1
   c4cf   20 1c         	BRA EXEC_SM
                        ;
   c4d1   fe 7f 0a      NOTJ	LDX SP
   c4d4   81 39         	CMP A #$39
   c4d6   26 04         	BNE NOTRTS
   c4d8   ee 08         NOTJ1	LDX 8,X
   c4da   20 06         	BRA EXR
                        ;
   c4dc   81 38         NOTRTS	CMP A #$38
   c4de   26 05         	BNE NOTRTI
   c4e0   ee 0d         	LDX 13,X
   c4e2   ff 7f 68      EXR	STX PC1
   c4e5   81 3f         NOTRTI	CMP A #$3F
   c4e7   27 15         	BEQ NONO
   c4e9   81 3e         	CMP A #$3E
   c4eb   27 11         	BEQ NONO
                        ;
   c4ed   fe 7f 68      EXEC_SM	LDX PC1
   c4f0   a6 00         	LDA A 0,X
   c4f2   b7 7f 63      	STA A OPSAVE
   c4f5   e7 00         	STA B 0,X
   c4f7   e1 00         	CMP B 0,X
   c4f9   26 06         	BNE CKROM
   c4fb   7e c1 18      	JMP CONTG
                        ;
   c4fe   7e c0 64      NONO	JMP LOAD19
                        ;
   c501   b6 7f 68      CKROM	LDA A PC1
   c504   81 e0         	CMP A #$E0
   c506   25 f6         	BCS NONO
                        ;
                        ;  GET JSR OR JMP
                        ;
   c508   fe 7f 0a      	LDX SP
   c50b   b6 7f 64      	LDA A PB1
   c50e   81 7e         	CMP A #$7E
   c510   27 c6         	BEQ NOTJ1
   c512   81 bd         	CMP A #$BD
   c514   26 e8         	BNE NONO
   c516   ee 06         	LDX 6,X
   c518   08            	INX
   c519   08            	INX
   c51a   08            	INX
   c51b   20 9b         	BRA ISJ+3
                        ;
                        ;Disassembler "PSH A = MISSING A" bug removed......
                        ;
                        ;  INSTRUCTION NMEMONIC LOOKUP
                        ;  ROUTINE FOR 68XX OP CODES
                        ;
   c51d   81 40         TBLKUP CMP A #$40
   c51f   24 26         	BCC IMLR6
   c521   bd c5 b5      IMLR1	JSR PNT3C
   c524   b6 7f 64      	LDA A PB1
   c527   81 32         	CMP A #$32
   c529   27 11         	BEQ IMLR3
   c52b   81 36         	CMP A #$36  ;had £ instead of #
   c52d   27 0d         	BEQ IMLR3
   c52f   81 33         	CMP A #$33
   c531   27 0e         	BEQ IMLR4
   c533   81 37         	CMP A #$37
   c535   27 0a         	BEQ IMLR4
   c537   ce c7 64      IMLR2	LDX #BLANK
   c53a   20 08         	BRA IMLR5
                        ;
   c53c   ce c7 68      IMLR3	LDX #PNTA
   c53f   20 03         	BRA IMLR5	;end of "bug removed"
                        ;
   c541   ce c7 6c      IMLR4	LDX #PNTB
   c544   7e c0 9a      IMLR5	JMP PDATA1
   c547   81 4e         IMLR6	CMP A #$4E
   c549   27 04         	BEQ IMLR7
   c54b   81 5e         	CMP A #$5E
   c54d   26 03         	BNE IMLR8
                        ;
   c54f   4f            IMLR7	CLR A
   c550   20 cf         	BRA IMLR1
                        ;
   c552   81 80         IMLR8	CMP A #$80
   c554   24 19         	BCC IMLR9
   c556   84 4f         	AND A #$4F
   c558   bd c5 b5      	JSR PNT3C
   c55b   b6 7f 10      	LDA A TEMP
   c55e   81 2a         	CMP A #$2A
   c560   27 d5         	BEQ IMLR2
   c562   b6 7f 64      	LDA A PB1
   c565   81 60         	CMP A #$60
   c567   24 ce         	BCC IMLR2
   c569   84 10         	AND A #$10
   c56b   27 cf         	BEQ IMLR3
   c56d   20 d2         	BRA IMLR4
                        ;
   c56f   84 3f         IMLR9	AND A #$3F
   c571   81 0f         	CMP A #$F
   c573   27 da         	BEQ IMLR7
   c575   81 07         	CMP A #$7
   c577   27 d6         	BEQ IMLR7
   c579   84 0f         	AND A #$F
   c57b   81 03         	CMP A #$3
   c57d   27 d0         	BEQ IMLR7
   c57f   81 0c         	CMP A #$C
   c581   2c 0e         	BGE IMLR10
   c583   8b 50         	ADD A #$50
   c585   bd c5 b5      	JSR PNT3C
   c588   b6 7f 64      	LDA A PB1
   c58b   84 40         	AND A #$40
   c58d   27 ad         	BEQ IMLR3
   c58f   20 b0         	BRA IMLR4
                        ;
   c591   b6 7f 64      IMLR10	LDA A PB1
   c594   81 8d         	CMP A #$8D
   c596   26 04         	BNE IMLR11
   c598   86 53         	LDA A #$53
   c59a   20 85         	BRA IMLR1
                        ;
   c59c   81 c0         IMLR11	CMP A #$C0
   c59e   24 0a         	BCC IMLR12
   c5a0   81 9d         	CMP A #$9D
   c5a2   27 ab         	BEQ IMLR7
   c5a4   84 0f         	AND A #$F
   c5a6   8b 50         	ADD A #$50
   c5a8   20 08         	BRA IMLR13
                        ;
   c5aa   84 0f         IMLR12	AND A #$F
   c5ac   8b 52         	ADD A #$52
   c5ae   81 60         	CMP A #$60
   c5b0   2d 9d         	BLT IMLR7
                        ;
   c5b2   7e c5 21      IMLR13	JMP IMLR1
                        ;
   c5b5   5f            PNT3C	CLR B
   c5b6   b7 7f 10      	STA A TEMP
   c5b9   48            	ASL A
   c5ba   bb 7f 10      	ADD A TEMP
   c5bd   c9 00         	ADC B #$0
   c5bf   ce c6 38      	LDX #TBL
   c5c2   ff 7f 14      	STX XTEMP
   c5c5   bb 7f 15      	ADD A XTEMP+1
   c5c8   f9 7f 14      	ADC B XTEMP
   c5cb   f7 7f 14      	STA B XTEMP
   c5ce   b7 7f 15      	STA A XTEMP+1
   c5d1   fe 7f 14      	LDX XTEMP
   c5d4   a6 00         	LDA A 0,X
   c5d6   b7 7f 10      	STA A TEMP
   c5d9   8d 06         	BSR OUTA
   c5db   a6 01         	LDA A 1,X
   c5dd   8d 02         	BSR OUTA
   c5df   a6 02         	LDA A 2,X
                        ;
   c5e1   7e c2 0a      OUTA	JMP OUTEEE
                        ;
                        ;  "V" VIEW COMMAND
                        ;
   c5e4   bd c2 4b      VIEW	JSR BAD2
   c5e7   86 08         VCOM1	LDA A #8
   c5e9   b7 7f 6e      	STA A MCONT
   c5ec   bd c2 c9      VCOM5	JSR CRLF
   c5ef   bd c1 1c      	JSR OUTXHI			; PRINT ADDRESS
   c5f2   c6 10         	LDA B #$10			; B IS CHAR COUNT - VIEW 16 BYTES PER LINE
   c5f4   bd c0 ed      VCOM9	JSR OUT2HS		; WRITE OUT HEX VALUE OF BYTE
   c5f7   5a            	DEC B
   c5f8   c5 03         	BIT B #3
   c5fa   26 05         	BNE VCOM10
   c5fc   bd c0 ef      	JSR OUTS
   c5ff   c1 00         	CMP B #$0
   c601   26 f1         VCOM10	BNE VCOM9
   c603   bd c2 c9      	JSR CRLF
   c606   c6 05         	LDA B #$5
   c608   bd c2 b7      	JSR SKIP
   c60b   fe 7f 0e      	LDX XHI
   c60e   c6 10         	LDA B #$10
   c610   a6 00         VCOM2	LDA A 0,X
   c612   81 20         	CMP A #$20
   c614   25 04         	BCS VCOM3
                        ;	CMP A #$5F				; DGG ORIGINAL PRINTED UPPER CASE ONLY
   c616   81 7f         	CMP A #$7F				; DGG - FIX TO INCLUDE LOWER CASE
   c618   25 02         	BCS VCOM4
   c61a   86 2e         VCOM3	LDA A #$2E			; PRINT A PERIOD
   c61c   8d c3         VCOM4	BSR OUTA
   c61e   08            	INX
   c61f   5a            	DEC B
   c620   26 ee         	BNE VCOM2
   c622   ff 7f 0e      	STX XHI
   c625   7a 7f 6e      	DEC MCONT
   c628   26 c2         	BNE VCOM5
   c62a   bd c1 f3      	JSR INEEE				; WAIT FOR CONTINE OR EXIT KEY
   c62d   81 20         	CMP A #$20				; SPACE TO CONTINUE VIEW
   c62f   27 b6         	BEQ VCOM1
   c631   81 56         	CMP A #$56
   c633   27 af         	BEQ VIEW
   c635   7e c0 1f      	JMP CONTRL
                        ;
                        ; MNKEMONIC TABLE
                        ;
   c638   2a 2a 2a 4e   TBL	FCC "***NOPNOP***"
   c63c   4f 50 4e 4f   
   c640   50 2a 2a 2a   
   c644   2a 2a 2a 2a   	FCC "******TAPTPA"
   c648   2a 2a 54 41   
   c64c   50 54 50 41   
   c650   49 4e 58 44   	FCC "INXDEXCLVSEV"
   c654   45 58 43 4c   
   c658   56 53 45 56   
   c65c   43 4c 43 53   	FCC "CLCSECCLISEI"
   c660   45 43 43 4c   
   c664   49 53 45 49   
   c668   53 42 41 43   	FCC "SBACBA******"
   c66c   42 41 2a 2a   
   c670   2a 2a 2a 2a   
   c674   2a 2a 2a 2a   	FCC "******TABTBA"
   c678   2a 2a 54 41   
   c67c   42 54 42 41   
   c680   2a 2a 2a 44   	FCC "***DAA***ABA"
   c684   41 41 2a 2a   
   c688   2a 41 42 41   
   c68c   2a 2a 2a 2a   	FCC "************"
   c690   2a 2a 2a 2a   
   c694   2a 2a 2a 2a   
   c698   42 52 41 2a   	FCC "BRA***BHIBLS"
   c69c   2a 2a 42 48   
   c6a0   49 42 4c 53   
   c6a4   42 43 43 42   	FCC "BCCBCSBNEBEQ"
   c6a8   43 53 42 4e   
   c6ac   45 42 45 51   
   c6b0   42 56 43 42   	FCC "BVCBVSBPLBMI"
   c6b4   56 53 42 50   
   c6b8   4c 42 4d 49   
   c6bc   42 47 45 42   	FCC "BGEBLTBGTBLE"
   c6c0   4c 54 42 47   
   c6c4   54 42 4c 45   
   c6c8   54 53 58 49   	FCC "TSXINSPULPUL"
   c6cc   4e 53 50 55   
   c6d0   4c 50 55 4c   
   c6d4   44 45 53 54   	FCC "DESTXSPSHPSH"
   c6d8   58 53 50 53   
   c6dc   48 50 53 48   
   c6e0   2a 2a 2a 52   	FCC "***RTS***RTI"
   c6e4   54 53 2a 2a   
   c6e8   2a 52 54 49   
   c6ec   2a 2a 2a 2a   	FCC "******WAISWI"
   c6f0   2a 2a 57 41   
   c6f4   49 53 57 49   
   c6f8   4e 45 47 2a   	FCC "NEG******COM"
   c6fc   2a 2a 2a 2a   
   c700   2a 43 4f 4d   
   c704   4c 53 52 2a   	FCC "LSR***RORASR"
   c708   2a 2a 52 4f   
   c70c   52 41 53 52   
   c710   41 53 4c 52   	FCC "ASLROLDEC***"
   c714   4f 4c 44 45   
   c718   43 2a 2a 2a   
   c71c   49 4e 43 54   	FCC "INCTSTJMPCLR"
   c720   53 54 4a 4d   
   c724   50 43 4c 52   
   c728   53 55 42 43   	FCC "SUBCMPSBCBSR"
   c72c   4d 50 53 42   
   c730   43 42 53 52   
   c734   41 4e 44 42   	FCC "ANDBITLDASTA"
   c738   49 54 4c 44   
   c73c   41 53 54 41   
   c740   45 4f 52 41   	FCC "EORADCORAADD"
   c744   44 43 4f 52   
   c748   41 41 44 44   
   c74c   43 50 58 4a   	FCC "CPXJSRLDSSTS"
   c750   53 52 4c 44   
   c754   53 53 54 53   
   c758   4c 44 58 53   	FCC "LDXSTX"
   c75c   54 58         
   c75e   23 24         SPLBD0 	FCC "#$"
   c760   04            	 FCB $4
   c761   2c 58 04      COMMX	 FCB $2C,$58,$04
   c764   20 20 20      BLANK	 FCB $20,$20,$20
   c767   04            	 FCB $04
   c768   20 41 20      PNTA	 FCC " A "
   c76b   04            	 FCB $04
   c76c   20 42 20      PNTB	 FCC " B "
   c76f   04            	 FCB $04
   c770   0d 0a 15 13   MCL	 FCB $D,$A,$15,$13,$3E,$04
   c774   3e 04         
   c776   20 42 3d 04   BREG	 FCB $20,$42,$3D,$04
   c77a   41 3d 04      AREG	 FCB $41,$3D,$04
   c77d   58 3d 04      XREG	 FCB $58,$3D,$04
   c780   53 3d 04      SREG	 FCB $53,$3D,$04
   c783   50 43 3d 04   PCTR	 FCB $50,$43,$3D,$04
   c787   48 49 4e 5a   CSET	 FCB $48,$49,$4E,$5A,$56,$43
   c78b   56 43         
   c78d   0d 0a 15 04   CRLFAS 	 FCB $0D,$0A,$15,$04
   c791   0d 0a         ADASC	 FCB $0D,$0A
   c793   42 4b 41 44   	 FCB $42,$4B,$41,$44,$44,$52,$20,$04
   c797   44 52 20 04   
   c79b   0d 0a 46 52   FROMAD	 FCB $0D,$0A,$46,$52,$4F,$4D,$20
   c79f   4f 4d 20      
   c7a2   41 44 44 52   	 FCB $41,$44,$44,$52,$20,$04
   c7a6   20 04         
   c7a8   0d 0a 54 48   THRUAD 	 FCB $0D,$0A,$54,$48,$52,$55,$20,$41
   c7ac   52 55 20 41   
   c7b0   44 44 52 20   	 FCB $44,$44,$52,$20,$04
   c7b4   04            
   c7b5   54 4f 20 41   TOADD	 FCB $54,$4F,$20,$41,$44,$44,$52,$20,$04
   c7b9   44 44 52 20   
   c7bd   04            
   c7be   56 41 4c 55   VALASC FCB $56,$41,$4C,$55,$45,$20,$04
   c7c2   45 20 04      
                        ;
                        ;   CONNAND JUMP TABLE
                        ;
   c7c5   4d            FUTABL	FCC "M"
   c7c6   c2 74         		FDB MOVE
   c7c8   45            		FCC "E"
   c7c9   c0 a1         		FDB CHANGE
   c7cb   47            		FCC "G"
   c7cc   c1 18         		FDB CONTG
   c7ce   52            		FCC "R"
   c7cf   c1 51         		FDB PRINT
   c7d1   54            		FCC "T"
   c7d2   c2 d4         		FDB TRACE
   c7d4   40            		FCC "@"
   c7d5   c2 26         		FDB ASCII
   c7d7   48            		FCC "H"
   c7d8   c1 d3         		FDB PRNTON
   c7da   56            		FCC "V"
   c7db   c5 e4         		FDB VIEW
   c7dd   49            		FCC "I"
   c7de   c2 39         		FDB IFILL
   c7e0   4a            		FCC "J"
   c7e1   c2 1c         		FDB JUMP
   c7e3   46            		FCC "F"
   c7e4   c2 99         		FDB FIND
   c7e6   51            		FCC "Q"
   c7e7   80 20         		FDB $8020
   c7e9   44            		FCC "D"
   c7ea   c2 cf         		FDB DISSA
   c7ec   4b            		FCC "K"
   c7ed   c2 e6         		FDB KONTIN
   c7ef   31            		FCC "1"
   c7f0   c1 04         		FDB BKPNT
   c7f2   32            		FCC "2"
   c7f3   c0 f3         		FDB BKPNT2
   c7f5   34            		FCC "4"
   c7f6   c2 17         		FDB GOFORTH
   c7f8   26            		FCC "&"
   c7f9   c8 33         		FDB SLOAD	;new for V2 was FDB $7283
   c7fb   2a            		FCC "*"
   c7fc   f8 00         		FDB $F800	
   c7fe   4f            		FCC "O"
   c7ff   c1 d2         		FDB ECHON
   c801   4e            		FCC "N"
   c802   c1 d4         		FDB ECHOFF
   c804                 TBLEND	EQU *		 
                        ;
                        ;	ADDED TO VERSION 2:
                        ; 	MOTOROLA "S" LOADER PROGRAMME "S1" STARTS LOAD
                        ; 	END OF LOAD "S9" RUN START END PLUS ADDRESS
                        ;
                        ; 	"S" LOADER PROGRAMME START
                        ;
   c804   54 68 69 73   S1STRING	FCC	"This S1 load has entered system scratch area"
   c808   20 53 31 20   
   c80c   6c 6f 61 64   
   c810   20 68 61 73   
   c814   20 65 6e 74   
   c818   65 72 65 64   
   c81c   20 73 79 73   
   c820   74 65 6d 20   
   c824   73 63 72 61   
   c828   74 63 68 20   
   c82c   61 72 65 61   
   c830   0d 0a 04      		FCB	$0D,$0A,$04
                        ;
   c833                 SLOAD		EQU 	*
   c833   36            		PSHA			; Save A register
   c834   ff 7f 6f      		STX	TEMPX1		; Save X register
   c837   8d 7c         GOAGAIN	BSR	GETCHAR	; Get first charactor from ACIA  
   c839   81 53         		CMPA	#$53		; Is it "S"
   c83b   26 fa         		BNE	GOAGAIN	; If not go read again
   c83d   8d 76         		BSR	GETCHAR	; Get second charactor in frame
   c83f   81 39         		CMPA 	#$39		; Is it "9"
   c841   27 31         		BEQ	RECOVER	; If "9" go and end read
   c843   81 31         		CMPA 	#$31		; Is it a "1"
   c845   26 f0         		BNE	GOAGAIN	; If no then go start again
   c847   7f 7f 74      		CLR	TEMPA		; Clear Frame length
   c84a   8d 3d         		BSR	GETHEX		; Get frame length from input stream
   c84c   80 02         		SUBA	#$02		; Subtract the checksum
   c84e   b7 7f 73      		STAA	BYTESTORE	; Save frame length
   c851   8d 28         		BSR	GETADD		; Read next two bytes for dest address
   c853   8d 34         GETCOUNT	BSR	GETHEX		; Get the byte number
   c855   7a 7f 73      		DEC	BYTESTORE	; decrement counter
   c858   27 10         		BEQ	INCOUNT	; If zero go to increment byte count
   c85a   a7 00         		STAA	0,X		; Store read byte into memory
   c85c   a1 00         		CMPA	0,X		; Test if RAM OK
   c85e   26 0f         		BNE	QUESTION	; If write failed send Question and abort
   c860   08            		INX			; Increment address pointer
                        ; DGG next line was commented out
                        ;		CMPX	VAR		; Is it the system scratch area
                        ; DGG commented out this next line because previous line missing always caused next line to fail
                        ;		BGT	S1EXIT		; Abort if close to system scratch
   c861   20 f0         		BRA	GETCOUNT	; go get another byte
                        ;
   c863   ce c8 04      S1EXIT	LDX	#S1STRING		; Protect System Scratch Abort S1
   c866   8d 68         		BSR	OUTSTR		; Print abort string
   c868   20 0a         		BRA	RECOVER	; Back to console prompt
                        ;
   c86a   7c 7f 74      INCOUNT	INC	TEMPA		; Increment tempa 
   c86d   27 c8         		BEQ	GOAGAIN	; If zero go for another frame
   c86f   86 3f         QUESTION	LDAA	#$3F		; Load question mark
   c871   bd c8 c3      		JSR	OUTPUTA	; Send to console
   c874   fe 7f 6f      RECOVER	LDX	TEMPX1		; Restore "X"
   c877   32            		PULA			; Restore A
   c878   7e c0 1f      		JMP	CONTRL		; Jump to exit
                        ; 
                        ;
   c87b   8d 0c         GETADD	BSR	GETHEX	; Read in byte
   c87d   b7 7f 71      		STAA	ADDRESS	; store in first part of address
   c880   8d 07         		BSR	GETHEX		; Get another byte of data
   c882   b7 7f 72      		STAA	ADDRESS1	; store in second address register
   c885   fe 7f 71      		LDX	ADDRESS	; Load X register both bytes of address
   c888   39            		RTS			; Return from sub routine
                        ;
                        ;	ADD IN THE ADDRESS OFFSET
                        ;
   c889   8d 10         GETHEX	BSR	CONVHEX		; Go get byte of data and convert to binary 
   c88b   48            		ASLA			; Shift the the 4 bits into msb
   c88c   48            		ASLA			; Shift the the 4 bits into msb	
   c88d   48            		ASLA			; Shift the the 4 bits into msb	
   c88e   48            		ASLA			; Shift the the 4 bits into msb	
   c88f   16            		TAB			; Transfer "A" to "B"
   c890   8d 09         		BSR	CONVHEX	; Go get byte of data and convert to binary
   c892   1b            		ABA			; Add 4 bits in "A" and "B" into "B"
   c893   16            		TAB			; Transfer "A" to "B"
   c894   fb 7f 74      		ADDB	TEMPA		; Add into checksum
   c897   f7 7f 74      		STAB	TEMPA		; Add into checksum
   c89a   39            		RTS			; Return from sub routine
                        ; 	
   c89b   bd c8 b5      CONVHEX	JSR	GETCHAR	; Get HEX charactor from ACIA
   c89e   80 30         		SUBA	#$30		; Convert to binary
   c8a0   2b cd         		BMI	QUESTION	; Convert to binary
   c8a2   81 09         		CMPA	#$09		; Convert to binary
   c8a4   2f 0a         		BLE	RETURN2	; Convert to binary
   c8a6   81 11         		CMPA	#$11		; Convert to binary
   c8a8   2b 07         		BMI	INCSTACK	; Convert to binary
   c8aa   81 16         		CMPA	#$16		; Convert to binary
   c8ac   2e 03         		BGT	INCSTACK	; Convert to binary
   c8ae   80 07         		SUBA	#$07		; Convert to binary
   c8b0   39            RETURN2	RTS			; Return from sub routine
                        ;  
   c8b1   31            INCSTACK	INS			; Restore stack position
   c8b2   31            		INS			; Restore stack position
   c8b3   20 ba         		BRA	QUESTION	; Go send ? and exit
                        ;
   c8b5   37            GETCHAR	PSHB
   c8b6   f6 80 00      WAITIN	LDAB ACIACS			; LOAD ACIA CONTROL REGISTER
   c8b9   57            		ASRB			; SHIFT RIGHT  ACIADA
   c8ba   24 fa         		BCC 	WAITIN		; IF CARRY NOT SET THEN AGAIN
   c8bc   b6 80 01      		LDAA 	ACIADA		; LOAD DATA REGISTER
   c8bf   33            		PULB			; RESTORE B REGISTER
   c8c0   8d 01         		BSR 	OUTPUTA	; ECHO INPUT
   c8c2   39            		RTS
                        ;
   c8c3   37            OUTPUTA	PSHB			; SAVE B
   c8c4   f6 80 00      WAITOUT	LDAB ACIACS		; LOAD ACIA CONTROL REGISTER
   c8c7   57            		ASRB			; SHIFT RIGHT
   c8c8   57            		ASRB			; SHIFT RIGHT
   c8c9   24 f9         		BCC 	WAITOUT	; IF CARRY NOT SET DO AGAIN
   c8cb   b7 80 01      		STAA ACIADA		; SEND CHARACTOR TO ACIA
   c8ce   33            		PULB			; RESTORE B
   c8cf   39            		RTS			; RETURN FROM ROUTINE
                        ;
   c8d0   a6 00         OUTSTR	LDAA	0,X			; Read String
   c8d2   81 04         		CMPA	#$4		; Is it EOT?
   c8d4   27 05         		BEQ	STEXIT		; Exit if EOT
   c8d6   8d eb         		BSR	OUTPUTA	; Print Charactor
   c8d8   08            		INX			; Point at next charactor
   c8d9   20 f5         		BRA	OUTSTR		; Loop and read next
   c8db   39            STEXIT		RTS			;
                        ;
                        ;END of V2 S-loader 
                        
                        ; FORTH
                        ; fig-FORTH FOR 6800 in ROM on SIMPLE-6802
                        ;
                        ; ASSEMBLY SOURCE LISTING
                        ;
                        ; http://www.forth.org/fig-forth/fig-forth_6800.pdf
                        ;
                        ; RELEASE 1
                        ; MAY 1979
                        ; WITH COMPILER SECURITY
                        ; AND VARIABLE LENGTH NAMES
                        ;
                        ; This public domain publication is provided
                        ; through the courtesy of:
                        ; FORTH INTEREST GROUP (fig)
                        ;
                        ; P.O. Box 8231 - San Jose, CA 95155 - (408) 277-0668
                        ; Further distribution must include this notice.
                        ;
                        ; Copyright:FORTH Interest Group
                        ;
                        ; === FORTH-6800 06-06-79 21:OO
                        ;
                        ; This listing is in the PUBLIC DOMAIN and 
                        ; may be freely copied or published with the
                        ; restriction that a credit line is printed
                        ; with the material, crediting the
                        ; authors and the FORTH INTEREST GROUP.
                        ;
                        ; === by Dave Lion,
                        ; ===  with help from
                        ; === Bob Smith,
                        ; === LaFarr Stuart,
                        ; === The Forth Interest Group
                        ; === PO Box 1105
                        ; === San Carlos, CA 94070
                        ; ===  and
                        ; === Unbounded computing
                        ; === 1134-K Aster Ave.
                        ; === Sunnyvale, CA 94086
                        ;
                        ;  All terminal 1/0 is done in three subroutines:
                        ;   PEMIT  ( word # 182 )
                        ;   PKEY   (        183 )
                        ;   PQTERM (        184 )
                        ;
                        ;  The FORTH words for disc related I/O follow the model
                        ;  of the FORTH Interest Group, but have not been
                        ;  tested using a real disc.
                        ;
                        ;  Code from location $1000 to lable ZZZZ are in ROM.
                        ;  Minor deviations from the model were made in the
                        ;  initialization and words ?STACK and FORGET
                        ;  in order to do this.
                        ;
                        ; smp, June 2018
                        ; Modified to assemble properly with the AS02 6800 cross-assembler
                        ; Modified to operate on Corsham Technologies 6800 system (SWTPC replica)
                        ;
                        ; DGG, APR 2022
                        ; Ported to A68 Assembler
                        ; Running on MULTICOMP 6800
                        ; Runs from ROM
                        ;  MEMORY MAP for this 32K system:
                        ;  (positioned so that systems with 4k byte write-
                        ;   protected segments can write protect FORTH)
                        ;
                        ; addr		contents		pointer	init by
                        ; ****	*******************************	*******	*******
                        ; 7FFF						HI
                        ;	substitute for disc mass memory
                        ; 3210						LO,MEMEND
                        ; 320F
                        ; 	4 buffer sectors of VIRTUAL MEMORY
                        ; 3000						FIRST
                        ;
                        ; >>>>>> memory from here up must be RAM <<<<<<
                        ;
                        ; 27FF
                        ; 	6k of romable "FORTH"		<== IP	ABORT
                        ;					<== W
                        ;	the VIRTUAL FORTH MACHINE
                        ;
                        ; 1004 <<< WARM START ENTRY >>>
                        ; 1000 <<< COLD START ENTRY >>>
                        ;
                        ; >>>>>> memory from here down must be RAM <<<<<<
                        ;
                        ;  FFE	RETURN STACK base		<== RP	RINIT
                        ;
                        ;  FB4
                        ;	INPUT LINE BUFFER
                        ;	holds up to 132 characters
                        ;	and is scanned upward by IN
                        ;	sta a rting at TIB
                        ;  F30					<== IN	TIB
                        ;  F2F	DATA STACK			<== SP	SP0,SINIT
                        ;    |	grows downward from F2F
                        ;    v
                        ;    ^
                        ;    |
                        ;    I	DICTIONARY grows upward
                        ; 
                        ;  183	end of ram-dictionary.		<== DP	DPINIT
                        ;	"TASK"
                        ;
                        ;  150	"FORTH" (a word)		<=, <== CONTEXT
                        ;					  `==== CURRENT
                        ;  148	sta a rt of ram-dictionary.
                        ;
                        ;  100	user #l table of variables	<= UP	DPINIT
                        ;   F0	registers & pointers for the virtual machine
                        ; 	scratch area used by various words
                        ;   E0	lowest address used by FORTH
                        ;
                        ; 0000
                        ;
                        ;**
                        ;
                        ; CONVENTIONS USED IN THIS PROGRAM ARE AS FOLLOWS :
                        ;
                        ; IP points to the current instruction (pre-increment mode)
                        ; RP points to second free byte (first free word) in return stack
                        ; SP (hardware SP) points to first free byte in data stack
                        ;
                        ;	when A and B hold one 16 bit FORTH data word,
                        ;	A contains the high byte, B, the low byte.
                        ;**
                        
   0004                 NBLK	equ	4		;# of disc buffer blocks for virtual memory
   3210                 MEMEND	equ	132*NBLK+$3000	;end of ram
                        
                        ;  each block is 132 bytes in size,
                        ;  holding 128 characters
                        
   7bff                 MEMTOP	equ	$7BFF	;32K system absolute end of RAM with 1K spare
                        ; 256 BYTES AT END ARE USED BY SMITHBUG
                        ; ACIA addresses are already defined in SMITHBUG defines
                        ; CHANGED LABELS TO HAVE SMITHBUG AND FORTH USE THE SAME LABELS
                        ; ACIACS	equ	$8000	;SIMPLE-6802 ACIA control address
                        ; ACIADA	equ	ACIACS+1	;SIMPLE-6802 ACIA data address
                        
                        ;    The FORTH program (address $D000 to $E7FF) is written
                        ;    so that it can be in a ROM, or write-protected if desired
                        
   d000                 	org	$D000
                        
                        ; ######>> screen 3 <<
                        ;
                        ;**************************
                        ;*  C O L D   E N T R Y  **
                        ;**************************
   d000   01            ORIG	nop
   d001   7e df a3      	jmp	CENT
                        ;**************************
                        ;*  W A R M   E N T R Y  **
                        ;**************************
   d004   01            	nop
   d005   7e df d3      	jmp	WENT	;warm-sta a rt code, keeps current dictionary intact
                        
                        ;
                        ;*************** startup parmeters *****************
                        ;
   d008   68 00 00 00   	fdb	$6800,0000	;cpu & revision
   d00c   00 00         	fdb	0	;topmost word in FORTH vocabulary
   d00e   00 7f         BACKSP	fdb	$7F	;backspace character for editing
   d010   01 00         UPINIT	fdb	UORIG	;initial user area
                        ; DGG - THIS STACK CODE WORKS FOR FORTH IN SRAM, BUT NOT FORTH IN ROM
                        ;SINIT	fdb	ORIG-$D0	;initial top of data stack
   d012   7e 2f         SINIT	fdb	$7EFF-$D0	;initial top of data stack
   d014   7e fd         RINIT	fdb	$7EFF-2	;initial top of return stack
   d016   7e 3f         	fdb	$7EFF-$C0	;terminal input buffer
   d018   00 1f         	fdb	31	;initial name field width
   d01a   00 00         	fdb	0	;initial warning mode (0 = no disc)
   d01c   01 83         FENCIN	fdb	REND	;initial fence
   d01e   01 83         DPINIT	fdb	REND	;cold sta a rt value for DP
   d020   01 58         VOCINT	fdb	FORTH+8	
                        ; COLINT	fdb	132	;initial terminal carriage width
                        ; DELINT	fdb	4	;initial carriage return delay
   d022   00 50         COLINT	fdb	80	;initial terminal carriage width
   d024   00 00         DELINT	fdb	0	;initial carriage return delay
                        ;
                        ;***************************************************
                        ;
                        
                        ;
                        ; ######>> screen 13 <<
   d026   32            PULABX	pula		;24 cycles until 'NEXT'
   d027   33            	pulb
   d028   a7 00         STABX	sta a 0,x	;16 cycles until 'NEXT'
   d02a   e7 01         	sta  b	1,x
   d02c   20 06         	bra	NEXT
   d02e   a6 00         GETX	lda a	0,x	;18 cycles until 'NEXT'
   d030   e6 01         	lda b	1,x
   d032   37            PUSHBA	pshb		;8 cycles until 'NEXT'
   d033   36            	psha
                        ;
                        ; "NEXT" takes 38 cycles if TRACE is removed,
                        ; and 95 cycles if NOT tracing.
                        ;
                        
                        ; = = = = t h e   v i r t u a l  m a c h i n e = = = =
                        ;
   d034   de f2         NEXT	ldx	IP
   d036   08            	inx		;pre-increment mode
   d037   08            	inx
   d038   df f2         	stx	IP
   d03a   ee 00         NEXT2	ldx	0,x	;get W which points to CFA of word to be done
   d03c   df f0         NEXT3	stx	W
   d03e   ee 00         	ldx	0,x	;get VECT which points to executable code
                        ;
                        ; The next instruction could be patched to jmp TRACE
                        ; if a TRACE routine is available:
                        ;
   d040   6e 00         	jmp	0,x
   d042   01            	nop
                        ;	jmp	TRACE	;(an alternate for the above)
                        ;
                        ; = = = = = = = = = = = = = = = = = = = = = = = = = = =
                        
                        ;
                        ; ======>>  1  <<
   d043   83            	fcb	$83
   d044   4c 49         	fcc	"LI"	;fcc	2,LIT	;NOTE: this is different from LITERAL
   d046   d4            	fcb	$D4
   d047   00 00         	fdb	0	;link of zero to terminate dictionary scan
   d049   d0 4b         LIT	fdb	*+2
   d04b   de f2         	ldx	IP
   d04d   08            	inx
   d04e   08            	inx
   d04f   df f2         	stx	IP
   d051   a6 00         	lda a	0,x
   d053   e6 01         	lda b	1,x
   d055   7e d0 32      	jmp	PUSHBA
   d058   01            	nop		;to compensate for assembler substituting BRA
                        ;
                        ; ######>> screen 14 <<
                        ; ======>>  2  <<
   d059   d0 5b         CLITER	fdb	*+2	;(this is an invisible word, with no header)
   d05b   de f2         	ldx	IP
   d05d   08            	inx
   d05e   df f2         	stx	IP
   d060   4f            	clra
   d061   e6 01         	lda b	1,x
   d063   7e d0 32      	jmp	PUSHBA
   d066   01            	nop		;to compensate for assembler substituting BRA
                        ;
                        ; ======>>  3  <<
   d067   87            	fcb	$87
   d068   45 58 45 43   	fcc	"EXECUT"	;fcc	6,EXECUTE
   d06c   55 54         
   d06e   c5            	fcb	$C5
   d06f   d0 43         	fdb	LIT-6
   d071   d0 73         EXEC	fdb	*+2
   d073   30            	tsx
   d074   ee 00         	ldx	0,x	;get code field address (CFA)
   d076   31            	ins		;pop stack
   d077   31            	ins
   d078   7e d0 3c      	jmp	NEXT3
   d07b   01            	nop		;to compensate for assembler substituting BRA
                        ;
                        ; ######>> screen 15 <<
                        ; ======>>  4  <<
   d07c   86            	fcb	$86
   d07d   42 52 41 4e   	fcc	"BRANC"	;fcc	5,BRANCH
   d081   43            
   d082   c8            	fcb	$C8
   d083   d0 67         	fdb	EXEC-10
   d085   d0 9a         BRAN	fdb	ZBYES	;Go steal code in ZBRANCH
                        ;
                        ; ======>>  5  <<
   d087   87            	fcb	$87
   d088   30 42 52 41   	fcc	"0BRANC"	;fcc	6,0BRANCH
   d08c   4e 43         
   d08e   c8            	fcb	$C8
   d08f   d0 7c         	fdb	BRAN-9
   d091   d0 93         ZBRAN	fdb	*+2
   d093   32            	pula
   d094   33            	pulb
   d095   1b            	aba
   d096   26 14         	bne	ZBNO
   d098   25 12         	bcs	ZBNO
   d09a   de f2         ZBYES	ldx	IP	;Note: code is shared with BRANCH, (+LOOP), (LOOP)
   d09c   e6 03         	lda b	3,x
   d09e   a6 02         	lda	a 2,x
   d0a0   db f3         	addb	IP+1
   d0a2   99 f2         	adca	IP
   d0a4   d7 f3         	sta b	IP+1
   d0a6   97 f2         	sta a 	IP
   d0a8   7e d0 34      	jmp	NEXT
   d0ab   01            	nop		;to compensate for assembler substituting BRA
   d0ac   de f2         ZBNO	ldx	IP	;no branch. This code is shared with (+LOOP), (LOOP).
   d0ae   08            	inx		;jump over branch delta
   d0af   08            	inx
   d0b0   df f2         	stx	IP
   d0b2   7e d0 34      	jmp	NEXT
   d0b5   01            	nop		;to compensate for assembler substituting BRA
                        ;
                        ; ######>> screen 16 <<
                        ; ======>>  6  <<
   d0b6   86            	fcb	$86
   d0b7   28 4c 4f 4f   	fcc	"(LOOP"	;fcc	5,(LOOP)
   d0bb   50            
   d0bc   a9            	fcb	$A9
   d0bd   d0 87         	fdb	ZBRAN-10
   d0bf   d0 c1         XLOOP	fdb	*+2
   d0c1   4f            	clra
   d0c2   c6 01         	lda b	#1	;get set to increment counter by 1
   d0c4   20 0e         	bra	XPLOP2	;go steal other guy's code!
                        ;
                        ; ======>>  7  <<
   d0c6   87            	fcb	$87
   d0c7   28 2b 4c 4f   	fcc	"(+LOOP"	;fcc	6,(+LOOP)
   d0cb   4f 50         
   d0cd   a9            	fcb	$A9
   d0ce   d0 b6         	fdb	XLOOP-9
   d0d0   d0 d2         XPLOOP	fdb *+2		;Note: +LOOP has an un-signed loop counter
   d0d2   32            	pula		;get increment
   d0d3   33            	pulb
   d0d4   4d            XPLOP2	tst a 
   d0d5   2a 16         	bpl	XPLOF	;forward looping
   d0d7   8d 09         	bsr	XPLOPS
   d0d9   0d            	sec
   d0da   e2 05         	sbcb	5,x
   d0dc   a2 04         	sbca	4,x
   d0de   2a ba         	bpl	ZBYES
   d0e0   20 13         	bra	XPLONO	;fall through
                        ;
                        ; the subroutine :
   d0e2   de f4         XPLOPS	ldx	RP
   d0e4   eb 03         	addb	3,x	;add it to counter
   d0e6   a9 02         	adca	2,x
   d0e8   e7 03         	sta b	3,x	;store new counter value
   d0ea   a7 02         	sta a 	2,x
   d0ec   39            	rts
                        ;
   d0ed   8d f3         XPLOF	bsr	XPLOPS
   d0ef   e0 05         	subb	5,x
   d0f1   a2 04         	sbca	4,x
   d0f3   2b a5         	bmi	ZBYES
                        ;
   d0f5   08            XPLONO	inx		;done, don't branch back
   d0f6   08            	inx
   d0f7   08            	inx
   d0f8   08            	inx
   d0f9   df f4         	stx	RP
   d0fb   20 af         	bra	ZBNO	;use ZBRAN to skip over unused delta
                        ;
                        ; ######>> screen 17 <<
                        ; ======>>  8  <<
   d0fd   84            	fcb	$84
   d0fe   28 44 4f      	fcc	"(DO"	;fcc	3,(DO)
   d101   a9            	fcb	$A9
   d102   d0 c6         	fdb	XPLOOP-10
   d104   d1 06         XDO	fdb	*+2	;This is the RUNTIME DO, not the COMPILING DO
   d106   de f4         	ldx	RP
   d108   09            	dex
   d109   09            	dex
   d10a   09            	dex
   d10b   09            	dex
   d10c   df f4         	stx	RP
   d10e   32            	pula
   d10f   33            	pulb
   d110   a7 02         	sta a 	2,x
   d112   e7 03         	sta b	3,x
   d114   32            	pula
   d115   33            	pulb
   d116   a7 04         	sta a 	4,x
   d118   e7 05         	sta b	5,x
   d11a   7e d0 34      	jmp	NEXT
                        ;
                        ; ======>>  9  <<
   d11d   81            	fcb	$81	; I
   d11e   c9            	fcb	$C9
   d11f   d0 fd         	fdb	XDO-7	
   d121   d1 23         I	fdb	*+2
   d123   de f4         	ldx	RP
   d125   08            	inx
   d126   08            	inx
   d127   7e d0 2e      	jmp	GETX
                        ;
                        ; ######>> screen 18 <<
                        ; ======>>  10  <<
   d12a   85            	fcb	$85
   d12b   44 49 47 49   	fcc	"DIGI"	;fcc	4,DIGIT
   d12f   d4            	fcb	$D4
   d130   d1 1d         	fdb	I-4
   d132   d1 34         DIGIT	fdb	*+2	;NOTE: legal input range is 0-9, A-Z
   d134   30            	tsx
   d135   a6 03         	lda	a 3,x
   d137   80 30         	suba	#$30	;ascii zero
   d139   2b 1b         	bmi	DIGIT2	;IF LESS THAN '0', ILLEGAL
   d13b   81 0a         	cmpa	#$A
   d13d   2b 0a         	bmi	DIGIT0	;IF '9' OR LESS
   d13f   81 11         	cmpa	#$11
   d141   2b 13         	bmi	DIGIT2	;if less than 'A'
   d143   81 2b         	cmpa	#$2B
   d145   2a 0f         	bpl	DIGIT2	;if greater than 'Z'
   d147   80 07         	suba	#7	;translate 'A' thru 'F'
   d149   a1 01         DIGIT0	cmpa	1,x
   d14b   2a 09         	bpl	DIGIT2	;if not less than the base
   d14d   c6 01         	lda b	#1	;set flag
   d14f   a7 03         	sta a 	3,x	;store digit
   d151   e7 01         DIGIT1	sta b	1,x	;store the flag
   d153   7e d0 34      	jmp	NEXT
   d156   5f            DIGIT2	clrb
   d157   31            	ins
   d158   31            	ins		;pop bottom number
   d159   30            	tsx
   d15a   e7 00         	sta b	0,x	;make sure both bytes are 00
   d15c   20 f3         	bra	DIGIT1
                        ;
                        ; ######>> screen 19 <<
                        ;
                        ; The word format in the dictionary is:
                        ;
                        ; char-count + $80	;lowest address
                        ; char 1
                        ; char 2
                        ; 
                        ; char n  + $80
                        ; link high byte \___point to previous word
                        ; link low  byte /
                        ; CFA  high byte \___point to 6800 code
                        ; CFA  low  byte /
                        ; parameter fields
                        ;    "
                        ;    "
                        ;    "
                        ;
                        ; ======>>  11  <<
   d15e   86            	fcb	$86
   d15f   28 46 49 4e   	fcc	"(FIND"	;fcc	5,(FIND)
   d163   44            
   d164   a9            	fcb	$A9
   d165   d1 2a         	fdb	DIGIT-8
   d167   d1 69         PFIND	fdb	*+2
   d169   01            	nop
   d16a   01            	nop
   00e0                 PD	equ	N	;ptr to dict word being checked
   00e2                 PA0	equ	N+2
   00e4                 PA	equ	N+4
   00e6                 PC	equ	N+6
   d16b   ce 00 e0      	ldx	#PD
   d16e   c6 04         	lda b	#4
   d170   32            PFIND0	pula		;loop to get arguments
   d171   a7 00         	sta a 	0,x
   d173   08            	inx
   d174   5a            	decb
   d175   26 f9         	bne	PFIND0
                        ;
   d177   de e0         	ldx	PD
   d179   e6 00         PFIND1	lda b	0,x	;get count dict count
   d17b   d7 e6         	sta b	PC
   d17d   c4 3f         	andb	#$3F
   d17f   08            	inx
   d180   df e0         	stx	PD	;update PD
   d182   de e2         	ldx	PA0
   d184   a6 00         	lda	a 0,x	;get count from arg
   d186   08            	inx
   d187   df e4         	stx	PA	;initialize PA
   d189   11            	cba		;compare lengths
   d18a   26 22         	bne	PFIND4
   d18c   de e4         PFIND2	ldx	PA
   d18e   a6 00         	lda a	0,x
   d190   08            	inx
   d191   df e4         	stx	PA
   d193   de e0         	ldx	PD
   d195   e6 00         	lda b	0,x
   d197   08            	inx
   d198   df e0         	stx	PD
   d19a   5d            	tst b		;is dict entry neg. ?
   d19b   2a 0e         	bpl	PFIND8
   d19d   c4 7f         	andb	#$7F	;clear sign
   d19f   11            	cba
   d1a0   27 15         	beq	FOUND
   d1a2   ee 00         PFIND3	ldx	0,x	;get new link
   d1a4   26 d3         	bne	PFIND1	;continue if link not=0
                        ;
                        ;	not found :
                        ;
   d1a6   4f            	clra
   d1a7   5f            	clrb
   d1a8   7e d0 32      	jmp	PUSHBA
   d1ab   11            PFIND8	cba
   d1ac   27 de         	beq	PFIND2
   d1ae   de e0         PFIND4	ldx	PD
   d1b0   e6 00         PFIND9	lda b	0,x	;scan forward to end of this name
   d1b2   08            	inx
   d1b3   2a fb         	bpl	PFIND9
   d1b5   20 eb         	bra	PFIND3
                        ;
                        ;	found :
                        ;
   d1b7   96 e0         FOUND	lda a	PD	;compute CFA
   d1b9   d6 e1         	lda b	PD+1
   d1bb   cb 04         	addb	#4
   d1bd   89 00         	adca	#0
   d1bf   37            	pshb
   d1c0   36            	psha
   d1c1   96 e6         	lda a	PC
   d1c3   36            	psha
   d1c4   4f            	clra
   d1c5   36            	psha
   d1c6   c6 01         	lda b	#1
   d1c8   7e d0 32      	jmp	PUSHBA
                        ;
   d1cb   36            	psha
   d1cc   4f            	clra
   d1cd   36            	psha
   d1ce   c6 01         	lda b	#1
   d1d0   7e d0 32      	jmp	PUSHBA
                        ;
                        ; ######>> screen 20 <<
                        ; ======>>  12  <<
   d1d3   87            	fcb	$87
   d1d4   45 4e 43 4c   	fcc	"ENCLOS"	;fcc	6,ENCLOSE
   d1d8   4f 53         
   d1da   c5            	fcb 	$C5
   d1db   d1 5e         	fdb	PFIND-9
                        ; NOTE :
                        ; FC means offset (bytes) to First Character of next word
                        ; EW  "     "   to End of Word
                        ; NC  "     "   to Next Character to sta a rt next enclose at
   d1dd   d1 df         ENCLOS	fdb	*+2
   d1df   31            	ins
   d1e0   33            	pulb		;now, get the low byte, for an 8-bit delimiter
   d1e1   30            	tsx
   d1e2   ee 00         	ldx	0,x
   d1e4   7f 00 e0      	clr	N
                        ;	wait for a non-delimiter or a NUL
   d1e7   a6 00         ENCL2	lda a 0,x
   d1e9   27 24         	beq	ENCL6
   d1eb   11            	cba		;CHECK FOR DELIM
   d1ec   26 06         	bne	ENCL3
   d1ee   08            	inx
   d1ef   7c 00 e0      	inc	N
   d1f2   20 f3         	bra	ENCL2
                        ;	found first character. Push FC
   d1f4   96 e0         ENCL3	lda a	N	;found first char.
   d1f6   36            	psha
   d1f7   4f            	clra
   d1f8   36            	psha
                        ;	wait for a delimiter or a NUL
   d1f9   a6 00         ENCL4	lda a 0,x
   d1fb   27 19         	beq	ENCL7
   d1fd   11            	cba		;check for delim.
   d1fe   27 06         	beq	ENCL5
   d200   08            	inx
   d201   7c 00 e0      	inc	N
   d204   20 f3         	bra	ENCL4
                        ;	found EW. Push it
   d206   d6 e0         ENCL5	lda b	N
   d208   4f            	clra
   d209   37            	pshb
   d20a   36            	psha
                        ;	advance and push NC
   d20b   5c            	incb
   d20c   7e d0 32      	jmp	PUSHBA
                        ;	found NUL before non-delimiter, therefore there is no word
   d20f   d6 e0         ENCL6	lda b	N	;found NUL
   d211   37            	pshb
   d212   36            	psha
   d213   5c            	incb
   d214   20 02         	bra	ENCL7+2	
                        ;	found NUL following the word instead of SPACE
   d216   d6 e0         ENCL7	lda b	N
   d218   37            	pshb		;save EW
   d219   36            	psha
   d21a   d6 e0         ENCL8	lda b	N	;save NC
   d21c   7e d0 32      	jmp	PUSHBA
                        ;
                        ; ######>> screen 21 <<
                        ; The next 4 words call system dependant I/O routines
                        ; which are listed after word "-->" ( lable: "arrow" )
                        ; in the dictionary.
                        ;
                        ; ======>>  13  <<
   d21f   84            	fcb	$84
   d220   45 4d 49      	fcc	"EMI"	;fcc	3,EMIT
   d223   d4            	fcb	$D4
   d224   d1 d3         	fdb	ENCLOS-10
   d226   d2 28         EMIT	fdb	*+2
   d228   32            	pula
   d229   32            	pula
   d22a   bd e3 0d      	jsr	PEMIT
   d22d   de f6         	ldx	UP
   d22f   6c 1b         	inc	XOUT+1-UORIG,x
   d231   26 02         	bne	*+4
   d233   6c 1a         	inc	XOUT-UORIG,x
   d235   7e d0 34      	jmp	NEXT
                        ;
                        ; ======>>  14  <<
   d238   83            	fcb	$83
   d239   4b 45         	fcc	"KE"	;fcc	2,KEY
   d23b   d9            	fcb	$D9
   d23c   d2 1f         	fdb	EMIT-7
   d23e   d2 40         KEY	fdb	*+2
   d240   bd e3 24      	jsr	PKEY
   d243   36            	psha
   d244   4f            	clra
   d245   36            	psha
   d246   7e d0 34      	jmp	NEXT
                        ;
                        ; ======>>  15  <<
   d249   89            	fcb	$89
   d24a   3f 54 45 52   	fcc	"?TERMINA"	;fcc	8,?TERMINAL
   d24e   4d 49 4e 41   
   d252   cc            	fcb	$CC
   d253   d2 38         	fdb	KEY-6
   d255   d2 57         QTERM	fdb	*+2
   d257   bd e3 3c      	jsr	PQTER
   d25a   5f            	clrb
   d25b   7e d0 32      	jmp	PUSHBA	;stack the flag
                        ;
                        ; ======>>  16  <<
   d25e   82            	fcb	$82
   d25f   43            	fcc	"C"	;fcc	1,CR
   d260   d2            	fcb	$D2
   d261   d2 49         	fdb	QTERM-12
   d263   d2 65         CR	fdb	*+2
   d265   bd e3 49      	jsr	PCR
   d268   7e d0 34      	jmp	NEXT
                        ;
                        ; ######>> screen 22 <<
                        ; ======>>  17  <<
   d26b   85            	fcb	$85
   d26c   43 4d 4f 56   	fcc	"CMOV"	;fcc	4,CMOVE	;source, destination, count
   d270   c5            	fcb	$C5
   d271   d2 5e         	fdb	CR-5
   d273   d2 75         CMOVE	fdb	*+2	;takes ( 43+47*count cycles )
   d275   ce 00 e0      	ldx	#N
   d278   c6 06         	lda b	#6
   d27a   32            CMOV1	pula
   d27b   a7 00         	sta a 	0,x	;move parameters to scratch area
   d27d   08            	inx
   d27e   5a            	decb
   d27f   26 f9         	bne	CMOV1
   d281   96 e0         CMOV2	lda	a N
   d283   d6 e1         	lda b	N+1
   d285   c0 01         	subb	#1
   d287   82 00         	sbca	#0
   d289   97 e0         	sta a 	N
   d28b   d7 e1         	sta b	N+1
   d28d   25 10         	bcs	CMOV3
   d28f   de e4         	ldx	N+4
   d291   a6 00         	lda a 0,x
   d293   08            	inx
   d294   df e4         	stx	N+4
   d296   de e2         	ldx	N+2
   d298   a7 00         	sta a 	0,x
   d29a   08            	inx
   d29b   df e2         	stx	N+2
   d29d   20 e2         	bra	CMOV2
   d29f   7e d0 34      CMOV3	jmp	NEXT
                        ;
                        ; ######>> screen 23 <<
                        ; ======>>  18  <<
   d2a2   82            	fcb	$82
   d2a3   55            	fcc	"U"	;fcc	1,U*
   d2a4   aa            	fcb	$AA
   d2a5   d2 6b         	fdb	CMOVE-8
   d2a7   d2 a9         USTAR	fdb	*+2
   d2a9   8d 05         	bsr	USTARS
   d2ab   31            	ins
   d2ac   31            	ins
   d2ad   7e d0 32      	jmp	PUSHBA
                        ;
                        ; The following is a subroutine which 
                        ; multiplies top 2 words on stack,
                        ; leaving 32-bit result:  high order word in A,B
                        ; low order word in 2nd word of stack.
                        ;
   d2b0   86 10         USTARS	lda	a #16	;bits/word counter
   d2b2   36            	psha
   d2b3   4f            	clra
   d2b4   5f            	clrb
   d2b5   30            	tsx
   d2b6   66 05         USTAR2	ror	5,x	;shift multiplier
   d2b8   66 06         	ror	6,x
   d2ba   6a 00         	dec	0,x	;done?
   d2bc   2b 0a         	bmi	USTAR4
   d2be   24 04         	bcc	USTAR3
   d2c0   eb 04         	addb	4,x
   d2c2   a9 03         	adca	3,x
   d2c4   46            USTAR3	rora
   d2c5   56            	rorb		;shift result
   d2c6   20 ee         	bra	USTAR2
   d2c8   31            USTAR4	ins		;dump counter
   d2c9   39            	rts
                        ;
                        ; ######>> screen 24 <<
                        ; ======>>  19  <<
   d2ca   82            	fcb	$82
   d2cb   55            	fcc	"U"	;fcc	1,U/
   d2cc   af            	fcb	$AF
   d2cd   d2 a2         	fdb	USTAR-5
   d2cf   d2 d1         USLASH	fdb	*+2
   d2d1   86 11         	lda a #17
   d2d3   36            	psha
   d2d4   30            	tsx
   d2d5   a6 03         	lda a	3,x
   d2d7   e6 04         	lda b	4,x
   d2d9   a1 01         USL1	cmpa	1,x
   d2db   22 09         	bhi	USL3
   d2dd   25 04         	bcs	USL2
   d2df   e1 02         	cmpb	2,x
   d2e1   24 03         	bcc	USL3
   d2e3   0c            USL2	clc
   d2e4   20 05         	bra	USL4
   d2e6   e0 02         USL3	subb	2,x
   d2e8   a2 01         	sbca	1,x
   d2ea   0d            	sec
   d2eb   69 06         USL4	rol	6,x
   d2ed   69 05         	rol	5,x
   d2ef   6a 00         	dec	0,x
   d2f1   27 06         	beq	USL5
   d2f3   59            	rolb
   d2f4   49            	rola
   d2f5   24 e2         	bcc	USL1
   d2f7   20 ed         	bra	USL3
   d2f9   31            USL5	ins
   d2fa   31            	ins
   d2fb   31            	ins
   d2fc   31            	ins
   d2fd   31            	ins
   d2fe   7e d4 83      	jmp	SWAP+4	;reverse quotient & remainder
                        ;
                        ; ######>> screen 25 <<
                        ; ======>>  20  <<
   d301   83            	fcb	$83
   d302   41 4e         	fcc	"AN"	;fcc	2,ANDLAB
   d304   c4            	fcb	$C4
   d305   d2 ca         	fdb	USLASH-5
   d307   d3 09         ANDLAB	fdb	*+2
   d309   32            	pula
   d30a   33            	pulb
   d30b   30            	tsx
   d30c   e4 01         	andb	1,x
   d30e   a4 00         	anda	0,x
   d310   7e d0 28      	jmp	STABX
                        ;
                        ; ======>>  21  <<
   d313   82            	fcb	$82
   d314   4f            	fcc	"O"	;fcc	1,ORLAB
   d315   d2            	fcb	$D2
   d316   d3 01         	fdb	ANDLAB-6
   d318   d3 1a         ORLAB	fdb	*+2
   d31a   32            	pula
   d31b   33            	pulb
   d31c   30            	tsx
   d31d   ea 01         	orab	1,x
   d31f   aa 00         	oraa	0,x
   d321   7e d0 28      	jmp	STABX
                        ;	
                        ; ======>>  22  <<
   d324   83            	fcb	$83
   d325   58 4f         	fcc	"XO"	;fcc	2,XORLAB
   d327   d2            	fcb	$D2
   d328   d3 13         	fdb	ORLAB-5
   d32a   d3 2c         XORLAB	fdb	*+2
   d32c   32            	pula
   d32d   33            	pulb
   d32e   30            	tsx
   d32f   e8 01         	eorb	1,x
   d331   a8 00         	eora	0,x
   d333   7e d0 28      	jmp	STABX
                        ;
                        ; ######>> screen 26 <<
                        ; ======>>  23  <<
   d336   83            	fcb	$83
   d337   53 50         	fcc	"SP"	;fcc	2,SP@
   d339   c0            	fcb	$C0
   d33a   d3 24         	fdb	XORLAB-6
   d33c   d3 3e         SPAT	fdb	*+2
   d33e   30            	tsx
   d33f   df e0         	stx	N	;scratch area
   d341   ce 00 e0      	ldx	#N
   d344   7e d0 2e      	jmp	GETX
                        ;
                        ; ======>>  24  <<
   d347   83            	fcb	$83
   d348   53 50         	fcc	"SP"	;fcc	2,SP!
   d34a   a1            	fcb	$A1
   d34b   d3 36         	fdb	SPAT-6
   d34d   d3 4f         SPSTOR	fdb	*+2
   d34f   de f6         	ldx	UP
   d351   ee 06         	ldx	XSPZER-UORIG,x
   d353   35            	txs		;watch it ! X and S are not EQUAL.
   d354   7e d0 34      	jmp	NEXT
                        ;
                        ; ======>>  25  <<
   d357   83            	fcb	$83
   d358   52 50         	fcc	"RP"	;fcc	2,RP!
   d35a   a1            	fcb	$A1
   d35b   d3 47         	fdb	SPSTOR-6
   d35d   d3 5f         RPSTOR	fdb	*+2
   d35f   fe d0 14      	ldx	RINIT	;initialize from rom consta a nt
   d362   df f4         	stx	RP
   d364   7e d0 34      	jmp	NEXT
                        ;
                        ; ======>>  26  <<
   d367   82            	fcb	$82
   d368   3b            	fcc	";"	;fcc	1,;S
   d369   d3            	fcb	$D3
   d36a   d3 57         	fdb	RPSTOR-6
   d36c   d3 6e         SEMIS	fdb	*+2
   d36e   de f4         	ldx	RP
   d370   08            	inx
   d371   08            	inx
   d372   df f4         	stx	RP
   d374   ee 00         	ldx	0,x	;get address we have just finished.
   d376   7e d0 36      	jmp	NEXT+2	;increment the return address & do next word
                        ;
                        ; ######>> screen 27 <<
                        ; ======>>  27  <<
   d379   85            	fcb	$85
   d37a   4c 45 41 56   	fcc	"LEAV"	;fcc	4,LEAVE
   d37e   c5            	fcb	$C5
   d37f   d3 67         	fdb	SEMIS-5
   d381   d3 83         LEAVE	fdb	*+2
   d383   de f4         	ldx	RP
   d385   a6 02         	lda	a 2,x
   d387   e6 03         	lda b	3,x
   d389   a7 04         	sta a 	4,x
   d38b   e7 05         	sta b	5,x
   d38d   7e d0 34      	jmp	NEXT
                        ;
                        ; ======>>  28  <<
   d390   82            	fcb	$82
   d391   3e            	fcc	">"	;fcc	1,>R
   d392   d2            	fcb	$D2
   d393   d3 79         	fdb	LEAVE-8
   d395   d3 97         TOR	fdb	*+2
   d397   de f4         	ldx	RP
   d399   09            	dex
   d39a   09            	dex
   d39b   df f4         	stx	RP
   d39d   32            	pula
   d39e   33            	pulb
   d39f   a7 02         	sta a 	2,x
   d3a1   e7 03         	sta b	3,x
   d3a3   7e d0 34      	jmp	NEXT
                        ;
                        ; ======>>  29  <<
   d3a6   82            	fcb	$82
   d3a7   52            	fcc	"R"	;fcc	1,R>
   d3a8   be            	fcb	$BE
   d3a9   d3 90         	fdb	TOR-5
   d3ab   d3 ad         FROMR	fdb	*+2
   d3ad   de f4         	ldx	RP
   d3af   a6 02         	lda	a 2,x
   d3b1   e6 03         	lda b	3,x
   d3b3   08            	inx
   d3b4   08            	inx
   d3b5   df f4         	stx	RP
   d3b7   7e d0 32      	jmp	PUSHBA
                        ;
                        ; ======>>  30  <<
   d3ba   81            	fcb	$81	; R
   d3bb   d2            	fcb	$D2
   d3bc   d3 a6         	fdb	FROMR-5
   d3be   d3 c0         R	fdb	*+2
   d3c0   de f4         	ldx	RP
   d3c2   08            	inx
   d3c3   08            	inx
   d3c4   7e d0 2e      	jmp	GETX
                        ;
                        ; ######>> screen 28 <<
                        ; ======>>  31  <<
   d3c7   82            	fcb	$82
   d3c8   30            	fcc	"0"	;fcc	1,0=
   d3c9   bd            	fcb	$BD
   d3ca   d3 ba         	fdb	R-4
   d3cc   d3 ce         ZEQU	fdb	*+2
   d3ce   30            	tsx
   d3cf   4f            	clra
   d3d0   5f            	clrb
   d3d1   ee 00         	ldx	0,x
   d3d3   26 01         	bne	ZEQU2
   d3d5   5c            	incb
   d3d6   30            ZEQU2	tsx
   d3d7   7e d0 28      	jmp	STABX
                        ;
                        ; ======>>  32  <<
   d3da   82            	fcb	$82
   d3db   30            	fcc	"0"	;fcc	1,0<
   d3dc   bc            	fcb	$BC
   d3dd   d3 c7         	fdb	ZEQU-5
   d3df   d3 e1         ZLESS	fdb	*+2
   d3e1   30            	tsx
   d3e2   86 80         	lda a #$80	;check the sign bit
   d3e4   a4 00         	anda	0,x
   d3e6   27 06         	beq	ZLESS2
   d3e8   4f            	clra		;if neg.
   d3e9   c6 01         	lda b	#1
   d3eb   7e d0 28      	jmp	STABX
   d3ee   5f            ZLESS2	clrb
   d3ef   7e d0 28      	jmp	STABX
                        ;
                        ; ######>> screen 29 <<
                        ; ======>>  33  <<
   d3f2   81            	fcb	$81	;'+'
   d3f3   ab            	fcb	$AB
   d3f4   d3 da         	fdb	ZLESS-5
   d3f6   d3 f8         PLUS	fdb	*+2
   d3f8   32            	pula
   d3f9   33            	pulb
   d3fa   30            	tsx
   d3fb   eb 01         	addb	1,x
   d3fd   a9 00         	adca	0,x
   d3ff   7e d0 28      	jmp	STABX
                        ;
                        ; ======>>  34  <<
   d402   82            	fcb	$82
   d403   44            	fcc	"D"	;fcc	1,D+
   d404   ab            	fcb	$AB
   d405   d3 f2         	fdb	PLUS-4
   d407   d4 09         DPLUS	fdb	*+2
   d409   30            	tsx
   d40a   0c            	clc
   d40b   c6 04         	lda b	#4
   d40d   a6 03         DPLUS2	lda a	3,x
   d40f   a9 07         	adca	7,x
   d411   a7 07         	sta a 	7,x
   d413   09            	dex
   d414   5a            	decb
   d415   26 f6         	bne	DPLUS2
   d417   31            	ins
   d418   31            	ins
   d419   31            	ins
   d41a   31            	ins
   d41b   7e d0 34      	jmp	NEXT
                        ;
                        ; ======>>  35  <<
   d41e   85            	fcb	$85
   d41f   4d 49 4e 55   	fcc	"MINU"	;fcc	4,MINUS
   d423   d3            	fcb	$D3
   d424   d4 02         	fdb	DPLUS-5
   d426   d4 28         MINUS	fdb	*+2
   d428   30            	tsx
   d429   60 01         	neg	1,x
   d42b   25 04         	bcs	MINUS2	;BCS to match original 1979 listing
   d42d   60 00         	neg	0,x
   d42f   20 02         	bra	MINUS3
   d431   63 00         MINUS2	com	0,x
   d433   7e d0 34      MINUS3	jmp	NEXT
                        ;
                        ; ======>>  36  <<
   d436   86            	fcb	$86
   d437   44 4d 49 4e   	fcc	"DMINU"	;fcc	5,DMINUS
   d43b   55            
   d43c   d3            	fcb	$D3
   d43d   d4 1e         	fdb	MINUS-8
   d43f   d4 41         DMINUS	fdb	*+2
   d441   30            	tsx
   d442   63 00         	com	0,x
   d444   63 01         	com	1,x
   d446   63 02         	com	2,x
   d448   60 03         	neg	3,x
   d44a   26 0a         	bne	DMINX
   d44c   6c 02         	inc	2,x
   d44e   26 06         	bne	DMINX
   d450   6c 01         	inc	1,x
   d452   26 02         	bne	DMINX
   d454   6c 00         	inc	0,x
   d456   7e d0 34      DMINX	jmp	NEXT
                        ;
                        ; ######>> screen 30 <<
                        ; ======>>  37  <<
   d459   84            	fcb	$84
   d45a   4f 56 45      	fcc	"OVE"	;fcc	3,OVER
   d45d   d2            	fcb	$D2
   d45e   d4 36         	fdb	DMINUS-9
   d460   d4 62         OVER	fdb	*+2
   d462   30            	tsx
   d463   a6 02         	lda	a 2,x
   d465   e6 03         	lda b	3,x
   d467   7e d0 32      	jmp	PUSHBA
                        ;
                        ; ======>>  38  <<
   d46a   84            	fcb	$84
   d46b   44 52 4f      	fcc	"DRO"	;fcc	3,DROP
   d46e   d0            	fcb	$D0
   d46f   d4 59         	fdb	OVER-7
   d471   d4 73         DROP	fdb	*+2
   d473   31            	ins
   d474   31            	ins
   d475   7e d0 34      	jmp	NEXT
                        ;
                        ; ======>>  39  <<
   d478   84            	fcb	$84
   d479   53 57 41      	fcc	"SWA"	;fcc	3,SWAP
   d47c   d0            	fcb	$D0
   d47d   d4 6a         	fdb	DROP-7
   d47f   d4 81         SWAP	fdb	*+2
   d481   32            	pula
   d482   33            	pulb
   d483   30            	tsx
   d484   ee 00         	ldx	0,x
   d486   31            	ins
   d487   31            	ins
   d488   37            	pshb
   d489   36            	psha
   d48a   df e0         	stx	N
   d48c   ce 00 e0      	ldx	#N
   d48f   7e d0 2e      	jmp	GETX
                        ;
                        ; ======>>  40  <<
   d492   83            	fcb	$83
   d493   44 55         	fcc	"DU"	;fcc	2,DUP
   d495   d0            	fcb	$D0
   d496   d4 78         	fdb	SWAP-7
   d498   d4 9a         DUP	fdb	*+2
   d49a   32            	pula
   d49b   33            	pulb
   d49c   37            	pshb
   d49d   36            	psha
   d49e   7e d0 32      	jmp PUSHBA
                        ;
                        ; ######>> screen 31 <<
                        ; ======>>  41  <<
   d4a1   82            	fcb	$82
   d4a2   2b            	fcc	"+"	;fcc	1,+!
   d4a3   a1            	fcb	$A1
   d4a4   d4 92         	fdb	DUP-6
   d4a6   d4 a8         PSTORE	fdb	*+2
   d4a8   30            	tsx
   d4a9   ee 00         	ldx	0,x
   d4ab   31            	ins
   d4ac   31            	ins
   d4ad   32            	pula		;get stack data
   d4ae   33            	pulb
   d4af   eb 01         	addb	1,x	;add & store low byte
   d4b1   e7 01         	sta b	1,x
   d4b3   a9 00         	adca	0,x	;add & store hi byte
   d4b5   a7 00         	sta a 	0,x
   d4b7   7e d0 34      	jmp	NEXT
                        ;
                        ; ======>>  42  <<
   d4ba   86            	fcb	$86
   d4bb   54 4f 47 47   	fcc	"TOGGL"	;fcc	5,TOGGLE
   d4bf   4c            
   d4c0   c5            	fcb	$C5
   d4c1   d4 a1         	fdb	PSTORE-5
   d4c3   d5 2a d4 60   TOGGLE	fdb	DOCOL,OVER,CAT,XORLAB,SWAP,CSTORE
   d4c7   d4 e4 d3 2a   
   d4cb   d4 7f d5 04   
   d4cf   d3 6c         	fdb	SEMIS
                        ;
                        ; ######>> screen 32 <<
                        ; ======>>  43  <<
   d4d1   81            	fcb	$81	; @
   d4d2   c0            	fcb	$C0
   d4d3   d4 ba         	fdb	TOGGLE-9
   d4d5   d4 d7         AT	fdb	*+2
   d4d7   30            	tsx
   d4d8   ee 00         	ldx	0,x	;get address
   d4da   31            	ins
   d4db   31            	ins
   d4dc   7e d0 2e      	jmp	GETX
                        ;
                        ; ======>>  44  <<
   d4df   82            	fcb	$82
   d4e0   43            	fcc	"C"	;fcc	1,C@
   d4e1   c0            	fcb	$C0
   d4e2   d4 d1         	fdb	AT-4
   d4e4   d4 e6         CAT	fdb	*+2
   d4e6   30            	tsx
   d4e7   ee 00         	ldx	0,x
   d4e9   4f            	clra
   d4ea   e6 00         	lda b	0,x
   d4ec   31            	ins
   d4ed   31            	ins
   d4ee   7e d0 32      	jmp	PUSHBA
                        ;
                        ; ======>>  45  <<
   d4f1   81            	fcb	$81
   d4f2   a1            	fcb	$A1
   d4f3   d4 df         	fdb	CAT-5
   d4f5   d4 f7         STORE	fdb	*+2
   d4f7   30            	tsx
   d4f8   ee 00         	ldx	0,x	;get address
   d4fa   31            	ins
   d4fb   31            	ins
   d4fc   7e d0 26      	jmp	PULABX
                        ;
                        ; ======>>  46  <<
   d4ff   82            	fcb	$82
   d500   43            	fcc	"C"	;fcc	1,C!
   d501   a1            	fcb	$A1
   d502   d4 f1         	fdb	STORE-4
   d504   d5 06         CSTORE	fdb	*+2
   d506   30            	tsx
   d507   ee 00         	ldx	0,x	;get address
   d509   31            	ins
   d50a   31            	ins
   d50b   31            	ins
   d50c   33            	pulb
   d50d   e7 00         	sta b	0,x
   d50f   7e d0 34      	jmp	NEXT
                        ;
                        ; ######>> screen 33 <<
                        ; ======>>  47  <<
   d512   c1            	fcb	$C1	;immediate
   d513   ba            	fcb	$BA
   d514   d4 ff         	fdb	CSTORE-5
   d516   d5 2a d8 da   COLON	fdb	DOCOL,QEXEC,SCSP,CURENT,AT,CONTXT,STORE
   d51a   d8 96 d6 b6   
   d51e   d4 d5 d6 a8   
   d522   d4 f5         
   d524   dd de d9 5b   	fdb	CREATE,RBRAK
   d528   d9 aa         	fdb	PSCODE
                        
                        ; Here is the IP pusher for allowing
                        ; nested words in the virtual machine:
                        ; ( ;S is the equivalent un-nester )
                        
   d52a   de f4         DOCOL	ldx	RP	;make room in the stack
   d52c   09            	dex
   d52d   09            	dex
   d52e   df f4         	stx	RP
   d530   96 f2         	lda	a IP
   d532   d6 f3         	lda b	IP+1	
   d534   a7 02         	sta a 	2,x	;Store address of the high level word
   d536   e7 03         	sta b	3,x	;that we are sta a rting to execute
   d538   de f0         	ldx	W	;Get first sub-word of that definition
   d53a   7e d0 36      	jmp	NEXT+2	;and execute it
                        ;
                        ; ======>>  48  <<
   d53d   c1            	fcb	$C1	;imnediate code
   d53e   bb            	fcb	$BB
   d53f   d5 12         	fdb	COLON-4
   d541   d5 2a d9 02   SEMI	fdb	DOCOL,QCSP,COMPIL,SEMIS,SMUDGE,LBRAK
   d545   d9 37 d3 6c   
   d549   d9 6f d9 4d   
   d54d   d3 6c         	fdb	SEMIS
                        ;
                        ; ######>> screen 34 <<
                        ; ======>>  49  <<
   d54f   88            	fcb	$88
   d550   43 4f 4e 53   	fcc	"CONSTAN"	;fcc	7,CONSTANT
   d554   54 41 4e      
   d557   d4            	fcb	$D4
   d558   d5 3d         	fdb	SEMI-4
   d55a   d5 2a dd de   CON	fdb	DOCOL,CREATE,SMUDGE,COMMA,PSCODE
   d55e   d9 6f d7 4d   
   d562   d9 aa         
   d564   de f0         DOCON	ldx	W
   d566   a6 02         	lda	a 2,x	
   d568   e6 03         	lda b	3,x	;A & B now contain the consta a nt
   d56a   7e d0 32      	jmp	PUSHBA
                        ;
                        ; ======>>  50  <<
   d56d   88            	fcb	$88
   d56e   56 41 52 49   	fcc	"VARIABL"	;fcc	7,VARIABLE
   d572   41 42 4c      
   d575   c5            	fcb	$C5
   d576   d5 4f         	fdb	CON-11
   d578   d5 2a d5 5a   VAR	fdb	DOCOL,CON,PSCODE
   d57c   d9 aa         
   d57e   96 f0         DOVAR	lda	a W
   d580   d6 f1         	lda b	W+1
   d582   cb 02         	addb	#2
   d584   89 00         	adca	#0	;A,B now contain the address of the variable
   d586   7e d0 32      	jmp	PUSHBA
                        ;
                        ; ======>>  51  <<
   d589   84            	fcb	$84
   d58a   55 53 45      	fcc	"USE"	;fcc	3,USER
   d58d   d2            	fcb	$D2
   d58e   d5 6d         	fdb	VAR-11
   d590   d5 2a d5 5a   USER	fdb	DOCOL,CON,PSCODE
   d594   d9 aa         
   d596   de f0         DOUSER	ldx	W	;get offset  into user's table
   d598   a6 02         	lda	a 2,x
   d59a   e6 03         	lda b	3,x
   d59c   db f7         	addb	UP+1	;add to users base address
   d59e   99 f6         	adca	UP
   d5a0   7e d0 32      	jmp	PUSHBA	;push address of user's variable
                        ;
                        ; ######>> screen 35 <<
                        ; ======>>  52  <<
   d5a3   81            	fcb	$81
   d5a4   b0            	fcb	$B0	; 0
   d5a5   d5 89         	fdb	USER-7
   d5a7   d5 64         ZERO	fdb	DOCON
   d5a9   00 00         	fdb	0000
                        ;
                        ; ======>>  53  <<
   d5ab   81            	fcb	$81
   d5ac   b1            	fcb	$B1	; 1
   d5ad   d5 a3         	fdb	ZERO-4
   d5af   d5 64         ONE	fdb	DOCON
   d5b1   00 01         	fdb	1
                        ;
                        ; ======>>  54  <<
   d5b3   81            	fcb	$81
   d5b4   b2            	fcb	$B2	; 2
   d5b5   d5 ab         	fdb	ONE-4
   d5b7   d5 64         TWO	fdb	DOCON
   d5b9   00 02         	fdb	2
                        ;
                        ; ======>>  55  <<
   d5bb   81            	fcb	$81
   d5bc   b3            	fcb	$B3	; 3
   d5bd   d5 b3         	fdb	TWO-4
   d5bf   d5 64         THREE	fdb	DOCON
   d5c1   00 03         	fdb	3
                        ;
                        ; ======>>  56  <<
   d5c3   82            	fcb	$82
   d5c4   42            	fcc	"B"	;fcc	1,BL
   d5c5   cc            	fcb	$CC
   d5c6   d5 bb         	fdb	THREE-4
   d5c8   d5 64         BL	fdb	DOCON	;ascii blank
   d5ca   00 20         	fdb	$20
                        ;
                        ; ======>>  57  <<
   d5cc   85            	fcb	$85
   d5cd   46 49 52 53   	fcc	"FIRS"	;fcc	4,FIRST
   d5d1   d4            	fcb	$D4
   d5d2   d5 c3         	fdb	BL-5
   d5d4   d5 64         FIRST	fdb	DOCON
   d5d6   30 00         	fdb	MEMEND-528	;(132 * NBLK)
                        ;
                        ; ======>>  58  <<
   d5d8   85            	fcb	$85
   d5d9   4c 49 4d 49   	fcc	"LIMI"	;fcc	4,LIMIT	;(the end of memory +1)
   d5dd   d4            	fcb	$D4
   d5de   d5 cc         	fdb	FIRST-8
   d5e0   d5 64         LIMIT	fdb	DOCON
   d5e2   32 10         	fdb	MEMEND
                        ;
                        ; ======>>  59  <<
   d5e4   85            	fcb	$85
   d5e5   42 2f 42 55   	fcc	"B/BU"	;fcc	4,B/BUF	;(bytes/buffer)
   d5e9   c6            	fcb	$C6
   d5ea   d5 d8         	fdb	LIMIT-8
   d5ec   d5 64         BBUF	fdb	DOCON
   d5ee   00 80         	fdb	128
                        ;
                        ; ======>>  60  <<
   d5f0   85            	fcb	$85
   d5f1   42 2f 53 43   	fcc	"B/SC"	;fcc	4,B/SCR	;(blocks/screen)
   d5f5   d2            	fcb	$D2
   d5f6   d5 e4         	fdb	BBUF-8
   d5f8   d5 64         BSCR	fdb	DOCON
   d5fa   00 08         	fdb	8
                        ;	blocks/screen = 1024 / "B/BUF" = 8
                        ;
                        ; ======>>  61  <<
   d5fc   87            	fcb	$87
   d5fd   2b 4f 52 49   	fcc	"+ORIGI"	;fcc	6,+ORIGIN
   d601   47 49         
   d603   ce            	fcb	$CE
   d604   d5 f0         	fdb	BSCR-8
   d606   d5 2a d0 49   PORIG	fdb	DOCOL,LIT,ORIG,PLUS
   d60a   d0 00 d3 f6   
   d60e   d3 6c         	fdb	SEMIS
                        ;
                        ; ######>> screen 36 <<
                        ; ======>>  62  <<
   d610   82            	fcb	$82
   d611   53            	fcc	"S"	;fcc	1,S0
   d612   b0            	fcb	$B0
   d613   d5 fc         	fdb	PORIG-10
   d615   d5 96         SZERO	fdb	DOUSER
   d617   00 06         	fdb	XSPZER-UORIG
                        ;
                        ; ======>>  63  <<
   d619   82            	fcb	$82
   d61a   52            	fcc	"R"	;fcc	1,R0
   d61b   b0            	fcb	$B0
   d61c   d6 10         	fdb	SZERO-5
   d61e   d5 96         RZERO	fdb	DOUSER
   d620   00 08         	fdb	XRZERO-UORIG
                        ;
                        ; ======>>  64  <<
   d622   83            	fcb	$83
   d623   54 49         	fcc	"TI"	;fcc	2,TIB
   d625   c2            	fcb	$C2
   d626   d6 19         	fdb	RZERO-5
   d628   d5 96         TIB	fdb	DOUSER
   d62a   00 0a         	fdb	XTIB-UORIG
                        ;
                        ; ======>>  65  <<
   d62c   85            	fcb	$85
   d62d   57 49 44 54   	fcc	"WIDT"	;fcc	4,WIDTH
   d631   c8            	fcb	$C8
   d632   d6 22         	fdb	TIB-6
   d634   d5 96         WIDTH	fdb	DOUSER
   d636   00 0c         	fdb	XWIDTH-UORIG
                        ;
                        ; ======>>  66  <<
   d638   87            	fcb	$87
   d639   57 41 52 4e   	fcc	"WARNIN"	;fcc	6,WARNING
   d63d   49 4e         
   d63f   c7            	fcb	$C7
   d640   d6 2c         	fdb	WIDTH-8
   d642   d5 96         WARN	fdb	DOUSER
   d644   00 0e         	fdb	XWARN-UORIG
                        ;
                        ; ======>>  67  <<
   d646   85            	fcb	$85
   d647   46 45 4e 43   	fcc	"FENC"	;fcc	4,FENCE
   d64b   c5            	fcb	$C5
   d64c   d6 38         	fdb	WARN-10
   d64e   d5 96         FENCE	fdb	DOUSER
   d650   00 10         	fdb	XFENCE-UORIG
                        ;
                        ; ======>>  68  <<
   d652   82            	fcb	$82
   d653   44            	fcc	"D"	;fcc	1,DP	;points to first free byte at end of dictionary
   d654   d0            	fcb	$D0
   d655   d6 46         	fdb	FENCE-8
   d657   d5 96         DP	fdb	DOUSER
   d659   00 12         	fdb	XDP-UORIG
                        ;
                        ; ======>>  68.5  <<
   d65b   88            	fcb	$88
   d65c   56 4f 43 2d   	fcc	"VOC-LIN"	;fcc	7,VOC-LINK
   d660   4c 49 4e      
   d663   cb            	fcb	$CB
   d664   d6 52         	fdb	DP-5
   d666   d5 96         VOCLIN	fdb	DOUSER
   d668   00 14         	fdb	XVOCL-UORIG
                        ;
                        ; ======>>  69  <<
   d66a   83            	fcb	$83
   d66b   42 4c         	fcc	"BL"	;fcc	2,BLK
   d66d   cb            	fcb	$CB
   d66e   d6 5b         	fdb	VOCLIN-11
   d670   d5 96         BLK	fdb	DOUSER
   d672   00 16         	fdb	XBLK-UORIG
                        ;
                        ; ======>>  70  <<
   d674   82            	fcb	$82
   d675   49            	fcc	"I"	;fcc	1,IN	;scan pointer for input line buffer
   d676   ce            	fcb	$CE
   d677   d6 6a         	fdb	BLK-6
   d679   d5 96         IN	fdb	DOUSER
   d67b   00 18         	fdb	XIN-UORIG
                        ;
                        ; ======>>  71  <<
   d67d   83            	fcb	$83
   d67e   4f 55         	fcc	"OU"	;fcc	2,OUT
   d680   d4            	fcb	$D4
   d681   d6 74         	fdb	IN-5
   d683   d5 96         OUT	fdb	DOUSER
   d685   00 1a         	fdb	XOUT-UORIG
                        ;
                        ; ======>>  72  <<
   d687   83            	fcb	$83
   d688   53 43         	fcc	"SC"	;fcc	2,SCR
   d68a   d2            	fcb	$D2
   d68b   d6 7d         	fdb	OUT-6
   d68d   d5 96         SCR	fdb	DOUSER
   d68f   00 1c         	fdb	XSCR-UORIG
                        ;
                        ; ######>> screen 37 <<
                        ; ======>>  73  <<
   d691   86            	fcb	$86
   d692   4f 46 46 53   	fcc	"OFFSE"	;fcc	5,OFFSET
   d696   45            
   d697   d4            	fcb	$D4
   d698   d6 87         	fdb	SCR-6
   d69a   d5 96         OFSET	fdb	DOUSER
   d69c   00 1e         	fdb	XOFSET-UORIG
                        ;
                        ; ======>>  74  <<
   d69e   87            	fcb	$87
   d69f   43 4f 4e 54   	fcc	"CONTEX"	;fcc	6,CONTEXT	;points to pointer to vocab to search first
   d6a3   45 58         
   d6a5   d4            	fcb	$D4
   d6a6   d6 91         	fdb	OFSET-9
   d6a8   d5 96         CONTXT	fdb	DOUSER
   d6aa   00 20         	fdb	XCONT-UORIG
                        ;
                        ; ======>>  75  <<
   d6ac   87            	fcb	$87
   d6ad   43 55 52 52   	fcc	"CURREN"	;fcc	6,CURRENT	;points to pointer to vocab being extended
   d6b1   45 4e         
   d6b3   d4            	fcb	$D4
   d6b4   d6 9e         	fdb	CONTXT-10
   d6b6   d5 96         CURENT	fdb	DOUSER
   d6b8   00 22         	fdb	XCURR-UORIG
                        ;
                        ; ======>>  76  <<
   d6ba   85            	fcb	$85
   d6bb   53 54 41 54   	fcc	"STAT"	;fcc	4,STATE	;1 if COMPILing, 0 if not
   d6bf   c5            	fcb	$C5
   d6c0   d6 ac         	fdb	CURENT-10
   d6c2   d5 96         STATE	fdb	DOUSER
   d6c4   00 24         	fdb	XSTATE-UORIG
                        ;
                        ; ======>>  77  <<
   d6c6   84            	fcb	$84
   d6c7   42 41 53      	fcc	"BAS"	;fcc	3,BASE	;number base for all input & output
   d6ca   c5            	fcb	$C5
   d6cb   d6 ba         	fdb	STATE-8
   d6cd   d5 96         BASE	fdb	DOUSER
   d6cf   00 26         	fdb	XBASE-UORIG
                        ;
                        ; ======>>  78  <<
   d6d1   83            	fcb	$83
   d6d2   44 50         	fcc	"DP"	;fcc	2,DPL
   d6d4   cc            	fcb	$CC
   d6d5   d6 c6         	fdb	BASE-7
   d6d7   d5 96         DPL	fdb	DOUSER
   d6d9   00 28         	fdb	XDPL-UORIG
                        ;
                        ; ======>>  79  <<
   d6db   83            	fcb	$83
   d6dc   46 4c         	fcc	"FL"	;fcc	2,FLD
   d6de   c4            	fcb	$C4
   d6df   d6 d1         	fdb	DPL-6
   d6e1   d5 96         FLD	fdb	DOUSER
   d6e3   00 2a         	fdb	XFLD-UORIG
                        ;
                        ; ======>>  80  <<
   d6e5   83            	fcb	$83
   d6e6   43 53         	fcc	"CS"	;fcc	2,CSP
   d6e8   d0            	fcb	$D0
   d6e9   d6 db         	fdb	FLD-6
   d6eb   d5 96         CSP	fdb	DOUSER
   d6ed   00 2c         	fdb	XCSP-UORIG
                        ;
                        ; ======>>  81  <<
   d6ef   82            	fcb	$82
   d6f0   52            	fcc	"R"	;fcc	1,R#
   d6f1   a3            	fcb	$A3
   d6f2   d6 e5         	fdb	CSP-6
   d6f4   d5 96         RNUM	fdb	DOUSER
   d6f6   00 2e         	fdb	XRNUM-UORIG
                        ;
                        ; ======>>  82  <<
   d6f8   83            	fcb	$83
   d6f9   48 4c         	fcc	"HL"	;fcc	2,HLD
   d6fb   c4            	fcb	$C4
   d6fc   d6 ef         	fdb	RNUM-5
   d6fe   d5 64         HLD	fdb	DOCON
   d700   01 30         	fdb	XHLD
                        ;
                        ; ======>>  82.5  <<== SPECIAL
   d702   87            	fcb	$87
   d703   43 4f 4c 55   	fcc	"COLUMN"	;fcc	6,COLUMNS	;line width of terminal
   d707   4d 4e         
   d709   d3            	fcb	$D3
   d70a   d6 f8         	fdb	HLD-6
   d70c   d5 96         COLUMS	fdb	DOUSER
   d70e   00 34         	fdb	XCOLUM-UORIG
                        ;
                        ; ######>> screen 38 <<
                        ; ======>>  83  <<
   d710   82            	fcb	$82
   d711   31            	fcc	"1"	;fcc	1,1+
   d712   ab            	fcb	$AB
   d713   d7 02         	fdb	COLUMS-10
   d715   d5 2a d5 af   ONEP	fdb	DOCOL,ONE,PLUS
   d719   d3 f6         
   d71b   d3 6c         	fdb	SEMIS
                        ;
                        ; ======>>  84  <<
   d71d   82            	fcb	$82
   d71e   32            	fcc	"2"	;fcc	1,2+
   d71f   ab            	fcb	$AB
   d720   d7 10         	fdb	ONEP-5
   d722   d5 2a d5 b7   TWOP	fdb	DOCOL,TWO,PLUS
   d726   d3 f6         
   d728   d3 6c         	fdb	SEMIS
                        ;
                        ; ======>>  85  <<
   d72a   84            	fcb	$84
   d72b   48 45 52      	fcc	"HER"	;fcc	3,HERE
   d72e   c5            	fcb	$C5
   d72f   d7 1d         	fdb	TWOP-5
   d731   d5 2a d6 57   HERE	fdb	DOCOL,DP,AT
   d735   d4 d5         
   d737   d3 6c         	fdb	SEMIS
                        ;
                        ; ======>>  86  <<
   d739   85            	fcb	$85
   d73a   41 4c 4c 4f   	fcc	"ALLO"	;fcc	4,ALLOT
   d73e   d4            	fcb	$D4
   d73f   d7 2a         	fdb	HERE-7
   d741   d5 2a d6 57   ALLOT	fdb	DOCOL,DP,PSTORE
   d745   d4 a6         
   d747   d3 6c         	fdb	SEMIS
                        ;
                        ; ======>>  87  <<
   d749   81            	fcb	$81	; , (comma)
   d74a   ac            	fcb	$AC
   d74b   d7 39         	fdb	ALLOT-8
   d74d   d5 2a d7 31   COMMA	fdb	DOCOL,HERE,STORE,TWO,ALLOT
   d751   d4 f5 d5 b7   
   d755   d7 41         
   d757   d3 6c         	fdb	SEMIS
                        ;
                        ; ======>>  88  <<
   d759   82            	fcb	$82
   d75a   43            	fcc	"C"	;fcc	1,C,
   d75b   ac            	fcb	$AC
   d75c   d7 49         	fdb	COMMA-4
   d75e   d5 2a d7 31   CCOMM	fdb	DOCOL,HERE,CSTORE,ONE,ALLOT
   d762   d5 04 d5 af   
   d766   d7 41         
   d768   d3 6c         	fdb	SEMIS
                        ;
                        ; ======>>  89  <<
   d76a   81            	fcb	$81	; -
   d76b   ad            	fcb	$AD
   d76c   d7 59         	fdb	CCOMM-5
   d76e   d5 2a d4 26   SUB	fdb	DOCOL,MINUS,PLUS
   d772   d3 f6         
   d774   d3 6c         	fdb	SEMIS
                        ;
                        ; ======>>  90  <<
   d776   81            	fcb	$81	; =
   d777   bd            	fcb	$BD
   d778   d7 6a         	fdb	SUB-4
   d77a   d5 2a d7 6e   EQUAL	fdb	DOCOL,SUB,ZEQU
   d77e   d3 cc         
   d780   d3 6c         	fdb	SEMIS
                        ;
                        ; ======>>  91  <<
   d782   81            	fcb	$81	; <
   d783   bc            	fcb	$BC	
   d784   d7 76         	fdb	EQUAL-4
   d786   d7 88         LESS	fdb	*+2
   d788   32            	pula
   d789   33            	pulb
   d78a   30            	tsx
   d78b   a1 00         	cmpa	0,x
   d78d   31            	ins
   d78e   2e 09         	bgt	LESST
   d790   26 04         	bne	LESSF
   d792   e1 01         	cmpb	1,x
   d794   22 03         	bhi	LESST
   d796   5f            LESSF	clrb
   d797   20 02         	bra	LESSX
   d799   c6 01         LESST	lda b	#1
   d79b   4f            LESSX	clra
   d79c   31            	ins
   d79d   7e d0 32      	jmp	PUSHBA
                        ;
                        ; ======>>  92  <<
   d7a0   81            	fcb	$81	; >
   d7a1   be            	fcb	$BE
   d7a2   d7 82         	fdb	LESS-4
   d7a4   d5 2a d4 7f   GREAT	fdb	DOCOL,SWAP,LESS
   d7a8   d7 86         
   d7aa   d3 6c         	fdb	SEMIS
                        ;
                        ; ======>>  93  <<
   d7ac   83            	fcb	$83
   d7ad   52 4f         	fcc	"RO"	;fcc	2,ROT
   d7af   d4            	fcb	$D4
   d7b0   d7 a0         	fdb	GREAT-4
   d7b2   d5 2a d3 95   ROT	fdb	DOCOL,TOR,SWAP,FROMR,SWAP
   d7b6   d4 7f d3 ab   
   d7ba   d4 7f         
   d7bc   d3 6c         	fdb	SEMIS
                        ;
                        ; ======>>  94  <<
   d7be   85            	fcb	$85
   d7bf   53 50 41 43   	fcc	"SPAC"	;fcc	4,SPACE
   d7c3   c5            	fcb	$C5
   d7c4   d7 ac         	fdb	ROT-6
   d7c6   d5 2a d5 c8   SPACE	fdb	DOCOL,BL,EMIT
   d7ca   d2 26         
   d7cc   d3 6c         	fdb	SEMIS
                        ;
                        ; ======>>  95  <<
   d7ce   83            	fcb	$83
   d7cf   4d 49         	fcc	"MI"	;fcc	2,MIN
   d7d1   ce            	fcb	$CE
   d7d2   d7 be         	fdb	SPACE-8
   d7d4   d5 2a d4 60   MIN	fdb	DOCOL,OVER,OVER,GREAT,ZBRAN
   d7d8   d4 60 d7 a4   
   d7dc   d0 91         
   d7de   00 04         	fdb	MIN2-*
   d7e0   d4 7f         	fdb	SWAP
   d7e2   d4 71         MIN2	fdb	DROP
   d7e4   d3 6c         	fdb	SEMIS
                        ;
                        ; ======>>  96  <<
   d7e6   83            	fcb	$83
   d7e7   4d 41         	fcc	"MA"	;fcc	2,MAX
   d7e9   d8            	fcb	$D8
   d7ea   d7 ce         	fdb	MIN-6
   d7ec   d5 2a d4 60   MAX	fdb	DOCOL,OVER,OVER,LESS,ZBRAN
   d7f0   d4 60 d7 86   
   d7f4   d0 91         
   d7f6   00 04         	fdb	MAX2-*
   d7f8   d4 7f         	fdb	SWAP
   d7fa   d4 71         MAX2	fdb	DROP
   d7fc   d3 6c         	fdb	SEMIS
                        ;
                        ; ======>>  97  <<
   d7fe   84            	fcb	$84
   d7ff   2d 44 55      	fcc	"-DU"	;fcc	3,-DUP
   d802   d0            	fcb	$D0
   d803   d7 e6         	fdb	MAX-6
   d805   d5 2a d4 98   DDUP	fdb	DOCOL,DUP,ZBRAN
   d809   d0 91         
   d80b   00 04         	fdb	DDUP2-*
   d80d   d4 98         	fdb	DUP
   d80f   d3 6c         DDUP2	fdb	SEMIS
                        ;
                        ; ######>> screen 39 <<
                        ; ======>>  98  <<
   d811   88            	fcb	$88
   d812   54 52 41 56   	fcc	"TRAVERS"	;fcc	7,TRAVERSE
   d816   45 52 53      
   d819   c5            	fcb	$C5
   d81a   d7 fe         	fdb	DDUP-7
   d81c   d5 2a d4 7f   TRAV	fdb	DOCOL,SWAP
   d820   d4 60 d3 f6   TRAV2	fdb	OVER,PLUS,CLITER
   d824   d0 59         
   d826   7f            	fcb	$7F
   d827   d4 60 d4 e4   	fdb	OVER,CAT,LESS,ZBRAN
   d82b   d7 86 d0 91   
   d82f   ff f1         	fdb	TRAV2-*
   d831   d4 7f d4 71   	fdb	SWAP,DROP
   d835   d3 6c         	fdb	SEMIS
                        ;
                        ; ======>>  99  <<
   d837   86            	fcb	$86
   d838   4c 41 54 45   	fcc	"LATES"	;fcc	5,LATEST
   d83c   53            
   d83d   d4            	fcb	$D4
   d83e   d8 11         	fdb	TRAV-11
   d840   d5 2a d6 b6   LATEST	fdb	DOCOL,CURENT,AT,AT
   d844   d4 d5 d4 d5   
   d848   d3 6c         	fdb	SEMIS
                        ;
                        ; ======>>  100  <<
   d84a   83            	fcb	$83
   d84b   4c 46         	fcc	"LF"	;fcc	2,LFA
   d84d   c1            	fcb	$C1
   d84e   d8 37         	fdb	LATEST-9
   d850   d5 2a d0 59   LFA	fdb	DOCOL,CLITER
   d854   04            	fcb	4
   d855   d7 6e         	fdb	SUB
   d857   d3 6c         	fdb	SEMIS
                        ;
                        ; ======>>  101  <<
   d859   83            	fcb	$83
   d85a   43 46         	fcc	"CF"	;fcc	2,CFA
   d85c   c1            	fcb	$C1
   d85d   d8 4a         	fdb	LFA-6
   d85f   d5 2a d5 b7   CFA	fdb	DOCOL,TWO,SUB
   d863   d7 6e         
   d865   d3 6c         	fdb	SEMIS
                        ;
                        ; ======>>  102  <<
   d867   83            	fcb	$83
   d868   4e 46         	fcc	"NF"	;fcc	2,NFA
   d86a   c1            	fcb	$C1
   d86b   d8 59         	fdb	CFA-6
   d86d   d5 2a d0 59   NFA	fdb	DOCOL,CLITER
   d871   05            	fcb	5
   d872   d7 6e d5 af   	fdb	SUB,ONE,MINUS,TRAV
   d876   d4 26 d8 1c   
   d87a   d3 6c         	fdb	SEMIS
                        ;
                        ; ======>>  103  <<
   d87c   83            	fcb	$83
   d87d   50 46         	fcc	"PF"	;fcc	2,PFA
   d87f   c1            	fcb	$C1
   d880   d8 67         	fdb	NFA-6
   d882   d5 2a d5 af   PFA	fdb	DOCOL,ONE,TRAV,CLITER
   d886   d8 1c d0 59   
   d88a   05            	fcb	5
   d88b   d3 f6         	fdb	PLUS
   d88d   d3 6c         	fdb	SEMIS
                        ;
                        ; ######>> screen 40 <<
                        ; ======>>  104  <<
   d88f   84            	fcb	$84
   d890   21 43 53      	fcc	"!CS"	;fcc	3,!CSP
   d893   d0            	fcb	$D0
   d894   d8 7c         	fdb	PFA-6
   d896   d5 2a d3 3c   SCSP	fdb	DOCOL,SPAT,CSP,STORE
   d89a   d6 eb d4 f5   
   d89e   d3 6c         	fdb	SEMIS
                        ;
                        ; ======>>  105  <<
   d8a0   86            	fcb	$86
   d8a1   3f 45 52 52   	fcc	"?ERRO"	;fcc	5,?ERROR
   d8a5   4f            
   d8a6   d2            	fcb	$D2
   d8a7   d8 8f         	fdb	SCSP-7
   d8a9   d5 2a d4 7f   QERR	fdb	DOCOL,SWAP,ZBRAN
   d8ad   d0 91         
   d8af   00 08         	fdb	QERR2-*
   d8b1   dd 79 d0 85   	fdb	ERROR,BRAN
   d8b5   00 04         	fdb	QERR3-*
   d8b7   d4 71         QERR2	fdb	DROP
   d8b9   d3 6c         QERR3	fdb	SEMIS
                        ;	
                        ; ======>>  106  <<
   d8bb   85            	fcb	$85
   d8bc   3f 43 4f 4d   	fcc	"?COM"	;fcc	4,?COMP
   d8c0   d0            	fcb	$D0
   d8c1   d8 a0         	fdb	QERR-9
   d8c3   d5 2a d6 c2   QCOMP	fdb	DOCOL,STATE,AT,ZEQU,CLITER
   d8c7   d4 d5 d3 cc   
   d8cb   d0 59         
   d8cd   11            	fcb	$11
   d8ce   d8 a9         	fdb	QERR
   d8d0   d3 6c         	fdb	SEMIS
                        ;
                        ; ======>>  107  <<
   d8d2   85            	fcb	$85
   d8d3   3f 45 58 45   	fcc	"?EXE"	;fcc	4,?EXEC
   d8d7   c3            	fcb	$C3
   d8d8   d8 bb         	fdb	QCOMP-8
   d8da   d5 2a d6 c2   QEXEC	fdb	DOCOL,STATE,AT,CLITER
   d8de   d4 d5 d0 59   
   d8e2   12            	fcb	$12
   d8e3   d8 a9         	fdb	QERR
   d8e5   d3 6c         	fdb	SEMIS
                        ;
                        ; ======>>  108  <<
   d8e7   86            	fcb	$86
   d8e8   3f 50 41 49   	fcc	"?PAIR"	;fcc	5,?PAIRS
   d8ec   52            
   d8ed   d3            	fcb	$D3
   d8ee   d8 d2         	fdb	QEXEC-8
   d8f0   d5 2a d7 6e   QPAIRS	fdb	DOCOL,SUB,CLITER
   d8f4   d0 59         
   d8f6   13            	fcb	$13
   d8f7   d8 a9         	fdb	QERR
   d8f9   d3 6c         	fdb	SEMIS
                        ;
                        ; ======>>  109  <<
   d8fb   84            	fcb	$84
   d8fc   3f 43 53      	fcc	"?CS"	;fcc	3,?CSP
   d8ff   d0            	fcb	$D0
   d900   d8 e7         	fdb	QPAIRS-9
   d902   d5 2a d3 3c   QCSP	fdb	DOCOL,SPAT,CSP,AT,SUB,CLITER
   d906   d6 eb d4 d5   
   d90a   d7 6e d0 59   
   d90e   14            	fcb	$14
   d90f   d8 a9         	fdb	QERR
   d911   d3 6c         	fdb	SEMIS
                        ;
                        ; ======>>  110  <<
   d913   88            	fcb	$88
   d914   3f 4c 4f 41   	fcc	"?LOADIN"	;fcc	7,?LOADING
   d918   44 49 4e      
   d91b   c7            	fcb	$C7
   d91c   d8 fb         	fdb	QCSP-7
   d91e   d5 2a d6 70   QLOAD	fdb	DOCOL,BLK,AT,ZEQU,CLITER
   d922   d4 d5 d3 cc   
   d926   d0 59         
   d928   16            	fcb	$16
   d929   d8 a9         	fdb	QERR
   d92b   d3 6c         	fdb	SEMIS
                        ;
                        ; ######>> screen 41 <<
                        ; ======>>  111  <<
   d92d   87            	fcb	$87
   d92e   43 4f 4d 50   	fcc	"COMPIL"	;fcc	6,COMPILE
   d932   49 4c         
   d934   c5            	fcb	$C5
   d935   d9 13         	fdb	QLOAD-11
   d937   d5 2a d8 c3   COMPIL	fdb	DOCOL,QCOMP,FROMR,TWOP,DUP,TOR,AT,COMMA
   d93b   d3 ab d7 22   
   d93f   d4 98 d3 95   
   d943   d4 d5 d7 4d   
   d947   d3 6c         	fdb	SEMIS
                        ;
                        ; ======>>  112  <<
   d949   c1            	fcb	$C1	; [	immediate
   d94a   db            	fcb	$DB
   d94b   d9 2d         	fdb	COMPIL-10
   d94d   d5 2a d5 a7   LBRAK	fdb	DOCOL,ZERO,STATE,STORE
   d951   d6 c2 d4 f5   
   d955   d3 6c         	fdb	SEMIS
                        ;
                        ; ======>>  113  <<
   d957   81            	fcb	$81	; ]
   d958   dd            	fcb	$DD
   d959   d9 49         	fdb	LBRAK-4
   d95b   d5 2a d0 59   RBRAK	fdb	DOCOL,CLITER
   d95f   c0            	fcb	$C0
   d960   d6 c2 d4 f5   	fdb	STATE,STORE
   d964   d3 6c         	fdb	SEMIS
                        ;
                        ; ======>>  114  <<
   d966   86            	fcb	$86
   d967   53 4d 55 44   	fcc	"SMUDG"	;fcc	5,SMUDGE
   d96b   47            
   d96c   c5            	fcb	$C5
   d96d   d9 57         	fdb	RBRAK-4
   d96f   d5 2a d8 40   SMUDGE	fdb	DOCOL,LATEST,CLITER
   d973   d0 59         
   d975   20            	fcb	$20
   d976   d4 c3         	fdb	TOGGLE
   d978   d3 6c         	fdb	SEMIS
                        ;
                        ; ======>>  115  <<
   d97a   83            	fcb	$83
   d97b   48 45         	fcc	"HE"	;fcc	2,HEX
   d97d   d8            	fcb	$D8
   d97e   d9 66         	fdb	SMUDGE-9
   d980   d5 2a         HEX	fdb	DOCOL
   d982   d0 59         	fdb	CLITER
   d984   10            	fcb	16
   d985   d6 cd d4 f5   	fdb	BASE,STORE
   d989   d3 6c         	fdb	SEMIS
                        ;
                        ; ======>>  116  <<
   d98b   87            	fcb	$87
   d98c   44 45 43 49   	fcc	"DECIMA"	;fcc	6,DECIMAL
   d990   4d 41         
   d992   cc            	fcb	$CC
   d993   d9 7a         	fdb	HEX-6
   d995   d5 2a         DEC	fdb	DOCOL
   d997   d0 59         	fdb	CLITER
   d999   0a            	fcb	10	;note: hex "A"
   d99a   d6 cd d4 f5   	fdb	BASE,STORE
   d99e   d3 6c         	fdb	SEMIS
                        ;
                        ; ######>> screen 42 <<
                        ; ======>>  117  <<
   d9a0   87            	fcb	$87
   d9a1   28 3a 43 4f   	fcc	"(:CODE"	;fcc	6,(;CODE)
   d9a5   44 45         
   d9a7   a9            	fcb	$A9
   d9a8   d9 8b         	fdb	DEC-10
   d9aa   d5 2a d3 ab   PSCODE	fdb	DOCOL,FROMR,TWOP,LATEST,PFA,CFA,STORE
   d9ae   d7 22 d8 40   
   d9b2   d8 82 d8 5f   
   d9b6   d4 f5         
   d9b8   d3 6c         	fdb	SEMIS
                        ;
                        ; ======>>  118  <<
   d9ba   c5            	fcb	$C5	;immediate
   d9bb   3b 43 4f 44   	fcc	";COD"	;fcc	4,;CODE
   d9bf   c5            	fcb	$C5
   d9c0   d9 a0         	fdb	PSCODE-10
   d9c2   d5 2a d9 02   SEMIC	fdb	DOCOL,QCSP,COMPIL,PSCODE,SMUDGE,LBRAK,QSTACK
   d9c6   d9 37 d9 aa   
   d9ca   d9 6f d9 4d   
   d9ce   da ec         
   d9d0   d3 6c         	fdb	SEMIS
                        ; note: "QSTACK" will be replaced by "ASSEMBLER" later
                        ;
                        ; ######>> screen 43 <<
                        ; ======>>  119  <<
   d9d2   87            	fcb	$87
   d9d3   3c 42 55 49   	fcc	"<BUILD"	;fcc	6,<BUILDS
   d9d7   4c 44         
   d9d9   d3            	fcb	$D3
   d9da   d9 ba         	fdb	SEMIC-8
   d9dc   d5 2a d5 a7   BUILDS	fdb	DOCOL,ZERO,CON
   d9e0   d5 5a         
   d9e2   d3 6c         	fdb	SEMIS
                        ;
                        ; ======>>  120  <<
   d9e4   85            	fcb	$85
   d9e5   44 4f 45 53   	fcc	"DOES"	;fcc	4,DOES>
   d9e9   be            	fcb	$BE
   d9ea   d9 d2         	fdb	BUILDS-10
   d9ec   d5 2a d3 ab   DOES	fdb	DOCOL,FROMR,TWOP,LATEST,PFA,STORE
   d9f0   d7 22 d8 40   
   d9f4   d8 82 d4 f5   
   d9f8   d9 aa         	fdb	PSCODE
   d9fa   96 f2         DODOES	lda	a IP
   d9fc   d6 f3         	lda b	IP+1
   d9fe   de f4         	ldx	RP	;make room on return stack
   da00   09            	dex
   da01   09            	dex
   da02   df f4         	stx	RP
   da04   a7 02         	sta a  	2,x	;push return address
   da06   e7 03         	sta b	3,x
   da08   de f0         	ldx	W	;get addr of pointer to run-time code
   da0a   08            	inx
   da0b   08            	inx
   da0c   df e0         	stx	N	;sta a sh it in scratch area
   da0e   ee 00         	ldx	0,x	;get new IP
   da10   df f2         	stx	IP
   da12   4f            	clra		;get address of parameter
   da13   c6 02         	lda b	#2
   da15   db e1         	addb	N+1
   da17   99 e0         	adca	N
   da19   37            	pshb		;and push it on data stack
   da1a   36            	psha
   da1b   7e d0 3a      	jmp	NEXT2
                        ;
                        ; ######>> screen 44 <<
                        ; ======>>  121  <<
   da1e   85            	fcb	$85
   da1f   43 4f 55 4e   	fcc	"COUN"	;fcc	4,COUNT
   da23   d4            	fcb	$D4
   da24   d9 e4         	fdb	DOES-8
   da26   d5 2a d4 98   COUNT	fdb	DOCOL,DUP,ONEP,SWAP,CAT
   da2a   d7 15 d4 7f   
   da2e   d4 e4         
   da30   d3 6c         	fdb	SEMIS
                        ;
                        ; ======>>  122  <<
   da32   84            	fcb	$84
   da33   54 59 50      	fcc	"TYP"	;fcc	3,TYPE
   da36   c5            	fcb	$C5
   da37   da 1e         	fdb	COUNT-8
   da39   d5 2a d8 05   TYPE	fdb	DOCOL,DDUP,ZBRAN
   da3d   d0 91         
   da3f   00 1d         	fdb	TYPE3-*
   da41   d4 60 d3 f6   	fdb	OVER,PLUS,SWAP,XDO
   da45   d4 7f d1 04   
                        ;
                        ;TYPE2	fdb	I,CAT,EMIT,XLOOP
                        ;
   da49   d1 21 d4 e4   TYPE2	fdb	I,CAT,CLITER	;fix to make VLIST
   da4d   d0 59         
   da4f   7f            	fcb	$7F		;type all the characters
   da50   d3 07 d2 26   	fdb	ANDLAB,EMIT,XLOOP	;in the words
   da54   d0 bf         
                        ;
   da56   ff f3         	fdb	TYPE2-*
   da58   d0 85         	fdb	BRAN
   da5a   00 04         	fdb	TYPE4-*
   da5c   d4 71         TYPE3	fdb	DROP
   da5e   d3 6c         TYPE4	fdb	SEMIS
                        ;
                        ; ======>>  123  <<
   da60   89            	fcb	$89
   da61   2d 54 52 41   	fcc	"-TRAILIN"	;fcc	8,-TRAILING
   da65   49 4c 49 4e   
   da69   c7            	fcb	$C7
   da6a   da 32         	fdb	TYPE-7
   da6c   d5 2a d4 98   DTRAIL	fdb	DOCOL,DUP,ZERO,XDO
   da70   d5 a7 d1 04   
   da74   d4 60 d4 60   DTRAL2	fdb	OVER,OVER,PLUS,ONE,SUB,CAT,BL
   da78   d3 f6 d5 af   
   da7c   d7 6e d4 e4   
   da80   d5 c8         
   da82   d7 6e d0 91   	fdb	SUB,ZBRAN
   da86   00 08         	fdb	DTRAL3-*
   da88   d3 81 d0 85   	fdb	LEAVE,BRAN
   da8c   00 06         	fdb	DTRAL4-*
   da8e   d5 af d7 6e   DTRAL3	fdb	ONE,SUB
   da92   d0 bf         DTRAL4	fdb	XLOOP
   da94   ff e0         	fdb	DTRAL2-*
   da96   d3 6c         	fdb	SEMIS
                        ;
                        ; ======>>  124  <<
   da98   84            	fcb	$84
   da99   28 2e 22      	fcb	$28,$2E,$22	;fcc	3,(.")
   da9c   a9            	fcb	$A9
   da9d   da 60         	fdb	DTRAIL-12
   da9f   d5 2a d3 be   PDOTQ	fdb	DOCOL,R,TWOP,COUNT,DUP,ONEP
   daa3   d7 22 da 26   
   daa7   d4 98 d7 15   
   daab   d3 ab d3 f6   	fdb	FROMR,PLUS,TOR,TYPE
   daaf   d3 95 da 39   
   dab3   d3 6c         	fdb	SEMIS
                        ;
                        ; ======>>  125  <<
   dab5   c2            	fcb	$C2	;immediate
   dab6   2e            	fcc	"."	;fcc	1,."
   dab7   a2            	fcb	$A2
   dab8   da 98         	fdb	PDOTQ-7
   daba   d5 2a         DOTQ	fdb	DOCOL
   dabc   d0 59         	fdb	CLITER
   dabe   22            	fcb	$22	;ascii quote
   dabf   d6 c2 d4 d5   	fdb	STATE,AT,ZBRAN
   dac3   d0 91         
   dac5   00 14         	fdb	DOTQ1-*
   dac7   d9 37 da 9f   	fdb	COMPIL,PDOTQ,WORD
   dacb   dc 4e         
   dacd   d7 31 d4 e4   	fdb	HERE,CAT,ONEP,ALLOT,BRAN
   dad1   d7 15 d7 41   
   dad5   d0 85         
   dad7   00 0a         	fdb	DOTQ2-*
   dad9   dc 4e d7 31   DOTQ1	fdb	WORD,HERE,COUNT,TYPE
   dadd   da 26 da 39   
   dae1   d3 6c         DOTQ2	fdb	SEMIS
                        ;
                        ; ######>> screen 45 <<
                        ; ======>>  126  <<== MACHINE DEPENDENT
   dae3   86            	fcb	$86
   dae4   3f 53 54 41   	fcc	"?STAC"	;fcc	5,?STACK
   dae8   43            
   dae9   cb            	fcb	$CB
   daea   da b5         	fdb	DOTQ-5
   daec   d5 2a d0 59   QSTACK	fdb	DOCOL,CLITER
   daf0   12            	fcb	$12
   daf1   d6 06 d4 d5   	fdb	PORIG,AT,TWO,SUB,SPAT,LESS,ONE
   daf5   d5 b7 d7 6e   
   daf9   d3 3c d7 86   
   dafd   d5 af         
   daff   d8 a9         	fdb	QERR
                        ; prints 'empty stack'
                        ;
   db01   d3 3c         QSTAC2	fdb	SPAT
                        ; Here, we compare with a value at least 128
                        ; higher than dict. ptr. (DP)
   db03   d7 31 d0 59   	fdb	HERE,CLITER
   db07   80            	fcb	$80
   db08   d3 f6 d7 86   	fdb	PLUS,LESS,ZBRAN
   db0c   d0 91         
   db0e   00 06         	fdb	QSTAC3-*
   db10   d5 b7         	fdb	TWO
   db12   d8 a9         	fdb	QERR
                        ; prints 'full stack'
                        ;
   db14   d3 6c         QSTAC3	fdb	SEMIS
                        ;
                        ; ======>>  127  <<	this word's function
                        ;	    		is done by ?STACK in this version
                        ;	fcb	$85
                        ;	fcc	"?FRE"	;fcc	4,?FREE
                        ;	fcb	$C5
                        ;	fdb	QSTACK-9
                        ;QFREE	fdb	DOCOL,SPAT,HERE,CLITER
                        ;	fcb	$80
                        ;	fdb	PLUS,LESS,TWO,QERR,SEMIS
                        ;
                        ; ######>> screen 46 <<
                        ; ======>>  128  <<
   db16   86            	fcb	$86
   db17   45 58 50 45   	fcc	"EXPEC"	;fcc	5,EXPECT
   db1b   43            
   db1c   d4            	fcb	$D4
   db1d   da e3         	fdb	QSTACK-9
   db1f   d5 2a d4 60   EXPECT	fdb	DOCOL,OVER,PLUS,OVER,XDO
   db23   d3 f6 d4 60   
   db27   d1 04         
   db29   d2 3e d4 98   EXPEC2	fdb	KEY,DUP,CLITER
   db2d   d0 59         
   db2f   0e            	fcb	$0E
   db30   d6 06 d4 d5   	fdb	PORIG,AT,EQUAL,ZBRAN
   db34   d7 7a d0 91   
   db38   00 1f         	fdb	EXPEC3-*
   db3a   d4 71 d0 59   	fdb	DROP,CLITER
   db3e   08            	fcb	8	;(backspace character to emit)
   db3f   d4 60 d1 21   	fdb	OVER,I,EQUAL,DUP,FROMR,TWO,SUB,PLUS
   db43   d7 7a d4 98   
   db47   d3 ab d5 b7   
   db4b   d7 6e d3 f6   
   db4f   d3 95 d7 6e   	fdb	TOR,SUB,BRAN
   db53   d0 85         
   db55   00 27         	fdb	EXPEC6-*
   db57   d4 98 d0 59   EXPEC3	fdb	DUP,CLITER
   db5b   0d            	fcb	$D	;(carriage return)
   db5c   d7 7a d0 91   	fdb	EQUAL,ZBRAN
   db60   00 0e         	fdb	EXPEC4-*
   db62   d3 81 d4 71   	fdb	LEAVE,DROP,BL,ZERO,BRAN
   db66   d5 c8 d5 a7   
   db6a   d0 85         
   db6c   00 04         	fdb	EXPEC5-*
   db6e   d4 98         EXPEC4	fdb	DUP
   db70   d1 21 d5 04   EXPEC5	fdb	I,CSTORE,ZERO,I,ONEP,STORE
   db74   d5 a7 d1 21   
   db78   d7 15 d4 f5   
   db7c   d2 26 d0 bf   EXPEC6	fdb	EMIT,XLOOP
   db80   ff a9         	fdb	EXPEC2-*
   db82   d4 71         	fdb	DROP
   db84   d3 6c         	fdb	SEMIS
                        ;
                        ; ======>>  129  <<
   db86   85            	fcb	$85
   db87   51 55 45 52   	fcc	"QUER"	;fcc	4,QUERY
   db8b   d9            	fcb	$D9
   db8c   db 16         	fdb	EXPECT-9
   db8e   d5 2a d6 28   QUERY	fdb	DOCOL,TIB,AT,COLUMS
   db92   d4 d5 d7 0c   
   db96   d4 d5 db 1f   	fdb	AT,EXPECT,ZERO,IN,STORE
   db9a   d5 a7 d6 79   
   db9e   d4 f5         
   dba0   d3 6c         	fdb	SEMIS
                        ;
                        ; ======>>  130  <<
   dba2   c1            	fcb	$C1	;immediate	< carriage return >
   dba3   80            	fcb	$80
   dba4   db 86         	fdb	QUERY-8
   dba6   d5 2a d6 70   NULL	fdb	DOCOL,BLK,AT,ZBRAN
   dbaa   d4 d5 d0 91   
   dbae   00 26         	fdb	NULL2-*
   dbb0   d5 af d6 70   	fdb	ONE,BLK,PSTORE
   dbb4   d4 a6         
   dbb6   d5 a7 d6 79   	fdb	ZERO,IN,STORE,BLK,AT,BSCR,MODLAB
   dbba   d4 f5 d6 70   
   dbbe   d4 d5 d5 f8   
   dbc2   e0 92         
   dbc4   d3 cc         	fdb	ZEQU
                        ;     check for end of screen
   dbc6   d0 91         	fdb	ZBRAN
   dbc8   00 08         	fdb	NULL1-*
   dbca   d8 da d3 ab   	fdb	QEXEC,FROMR,DROP
   dbce   d4 71         
   dbd0   d0 85         NULL1	fdb	BRAN
   dbd2   00 06         	fdb	NULL3-*
   dbd4   d3 ab d4 71   NULL2	fdb	FROMR,DROP
   dbd8   d3 6c         NULL3	fdb	SEMIS
                        ;
                        ; ######>> screen 47 <<
                        ; ======>>  133  <<
   dbda   84            	fcb	$84
   dbdb   46 49 4c      	fcc	"FIL"	;fcc	3,FILL
   dbde   cc            	fcb	$CC
   dbdf   db a2         	fdb	NULL-4
   dbe1   d5 2a d4 7f   FILL	fdb	DOCOL,SWAP,TOR,OVER,CSTORE,DUP,ONEP
   dbe5   d3 95 d4 60   
   dbe9   d5 04 d4 98   
   dbed   d7 15         
   dbef   d3 ab d5 af   	fdb	FROMR,ONE,SUB,CMOVE
   dbf3   d7 6e d2 73   
   dbf7   d3 6c         	fdb	SEMIS
                        ;
                        ; ======>>  134  <<
   dbf9   85            	fcb	$85
   dbfa   45 52 41 53   	fcc	"ERAS"	;fcc	4,ERASE
   dbfe   c5            	fcb	$C5
   dbff   db da         	fdb	FILL-7
   dc01   d5 2a d5 a7   ERASE	fdb	DOCOL,ZERO,FILL
   dc05   db e1         
   dc07   d3 6c         	fdb	SEMIS
                        ;
                        ; ======>>  135  <<
   dc09   86            	fcb	$86
   dc0a   42 4c 41 4e   	fcc	"BLANK"	;fcc	5,BLANKS
   dc0e   4b            
   dc0f   d3            	fcb	$D3
   dc10   db f9         	fdb	ERASE-8
   dc12   d5 2a d5 c8   BLANKS	fdb	DOCOL,BL,FILL
   dc16   db e1         
   dc18   d3 6c         	fdb	SEMIS
                        ;
                        ; ======>>  136  <<
   dc1a   84            	fcb	$84
   dc1b   48 4f 4c      	fcc	"HOL"	;fcc	3,HOLD
   dc1e   c4            	fcb	$C4
   dc1f   dc 09         	fdb	BLANKS-9
   dc21   d5 2a d0 49   HOLD	fdb	DOCOL,LIT,$FFFF,HLD,PSTORE,HLD,AT,CSTORE
   dc25   ff ff d6 fe   
   dc29   d4 a6 d6 fe   
   dc2d   d4 d5 d5 04   
   dc31   d3 6c         	fdb	SEMIS
                        ;
                        ; ======>>  137  <<
   dc33   83            	fcb	$83
   dc34   50 41         	fcc	"PA"	;fcc	2,PAD
   dc36   c4            	fcb	$C4
   dc37   dc 1a         	fdb	HOLD-7
   dc39   d5 2a d7 31   PAD	fdb	DOCOL,HERE,CLITER
   dc3d   d0 59         
   dc3f   44            	fcb	$44
   dc40   d3 f6         	fdb	PLUS
   dc42   d3 6c         	fdb	SEMIS
                        ;
                        ; ######>> screen 48 <<
                        ; ======>>  138  <<
   dc44   84            	fcb	$84
   dc45   57 4f 52 4c   	fcc	"WORLAB"	;fcc	3,WORD
   dc49   41 42         
   dc4b   c4            	fcb	$C4
   dc4c   dc 33         	fdb	PAD-6
   dc4e   d5 2a d6 70   WORD	fdb	DOCOL,BLK,AT,ZBRAN
   dc52   d4 d5 d0 91   
   dc56   00 0c         	fdb	WORD2-*
   dc58   d6 70 d4 d5   	fdb	BLK,AT,BLOCK,BRAN
   dc5c   e1 ef d0 85   
   dc60   00 06         	fdb	WORD3-*
   dc62   d6 28 d4 d5   WORD2	fdb	TIB,AT
   dc66   d6 79 d4 d5   WORD3	fdb	IN,AT,PLUS,SWAP,ENCLOS,HERE,CLITER
   dc6a   d3 f6 d4 7f   
   dc6e   d1 dd d7 31   
   dc72   d0 59         
   dc74   22            	fcb	34
   dc75   dc 12 d6 79   	fdb	BLANKS,IN,PSTORE,OVER,SUB,TOR,R,HERE
   dc79   d4 a6 d4 60   
   dc7d   d7 6e d3 95   
   dc81   d3 be d7 31   
   dc85   d5 04 d3 f6   	fdb	CSTORE,PLUS,HERE,ONEP,FROMR,CMOVE
   dc89   d7 31 d7 15   
   dc8d   d3 ab d2 73   
   dc91   d3 6c         	fdb	SEMIS
                        ;
                        ; ######>> screen 49 <<
                        ; ======>>  139  <<
   dc93   88            	fcb	$88
   dc94   28 4e 55 4d   	fcc	"(NUMBER"	;fcc	7,(NUMBER)
   dc98   42 45 52      
   dc9b   a9            	fcb	$A9
   dc9c   dc 47         	fdb	WORD-7
   dc9e   d5 2a         PNUMB	fdb	DOCOL
   dca0   d7 15 d4 98   PNUMB2	fdb	ONEP,DUP,TOR,CAT,BASE,AT,DIGIT,ZBRAN
   dca4   d3 95 d4 e4   
   dca8   d6 cd d4 d5   
   dcac   d1 32 d0 91   
   dcb0   00 2c         	fdb	PNUMB4-*
   dcb2   d4 7f d6 cd   	fdb	SWAP,BASE,AT,USTAR,DROP,ROT,BASE
   dcb6   d4 d5 d2 a7   
   dcba   d4 71 d7 b2   
   dcbe   d6 cd         
   dcc0   d4 d5 d2 a7   	fdb	AT,USTAR,DPLUS,DPL,AT,ONEP,ZBRAN
   dcc4   d4 07 d6 d7   
   dcc8   d4 d5 d7 15   
   dccc   d0 91         
   dcce   00 08         	fdb	PNUMB3-*
   dcd0   d5 af d6 d7   	fdb	ONE,DPL,PSTORE
   dcd4   d4 a6         
   dcd6   d3 ab d0 85   PNUMB3	fdb	FROMR,BRAN
   dcda   ff c6         	fdb	PNUMB2-*
   dcdc   d3 ab         PNUMB4	fdb	FROMR
   dcde   d3 6c         	fdb	SEMIS
                        ;
                        ; ======>>  140  <<
   dce0   86            	fcb	$86
   dce1   4e 55 4d 42   	fcc	"NUMBE"	;fcc	5,NUMBER
   dce5   45            
   dce6   d2            	fcb	$D2
   dce7   dc 93         	fdb	PNUMB-11
   dce9   d5 2a d5 a7   NUMB	fdb	DOCOL,ZERO,ZERO,ROT,DUP,ONEP,CAT,CLITER
   dced   d5 a7 d7 b2   
   dcf1   d4 98 d7 15   
   dcf5   d4 e4 d0 59   
   dcf9   2d            	fcc	"-"	;minus sign
   dcfa   d7 7a d4 98   	fdb	EQUAL,DUP,TOR,PLUS,LIT,$FFFF
   dcfe   d3 95 d3 f6   
   dd02   d0 49 ff ff   
   dd06   d6 d7 d4 f5   NUMB1	fdb	DPL,STORE,PNUMB,DUP,CAT,BL,SUB
   dd0a   dc 9e d4 98   
   dd0e   d4 e4 d5 c8   
   dd12   d7 6e         
   dd14   d0 91         	fdb	ZBRAN
   dd16   00 15         	fdb	NUMB2-*
   dd18   d4 98 d4 e4   	fdb	DUP,CAT,CLITER
   dd1c   d0 59         
   dd1e   2e            	fcc	"."
   dd1f   d7 6e d5 a7   	fdb	SUB,ZERO,QERR,ZERO,BRAN
   dd23   d8 a9 d5 a7   
   dd27   d0 85         
   dd29   ff dd         	fdb	NUMB1-*
   dd2b   d4 71 d3 ab   NUMB2	fdb	DROP,FROMR,ZBRAN
   dd2f   d0 91         
   dd31   00 04         	fdb	NUMB3-*
   dd33   d4 3f         	fdb	DMINUS
   dd35   d3 6c         NUMB3	fdb	SEMIS
                        ;
                        ; ======>>  141  <<
   dd37   85            	fcb	$85
   dd38   2d 46 49 4e   	fcc	"-FIN"	;fcc	4,-FIND
   dd3c   c4            	fcb	$C4
   dd3d   dc e0         	fdb	NUMB-9
   dd3f   d5 2a d5 c8   DFIND	fdb	DOCOL,BL,WORD,HERE,CONTXT,AT,AT
   dd43   dc 4e d7 31   
   dd47   d6 a8 d4 d5   
   dd4b   d4 d5         
   dd4d   d1 67 d4 98   	fdb	PFIND,DUP,ZEQU,ZBRAN
   dd51   d3 cc d0 91   
   dd55   00 0a         	fdb	DFIND2-*
   dd57   d4 71 d7 31   	fdb	DROP,HERE,LATEST,PFIND
   dd5b   d8 40 d1 67   
   dd5f   d3 6c         DFIND2	fdb	SEMIS
                        ;
                        ; ######>> screen 50 <<
                        ; ======>>  142  <<
   dd61   87            	fcb	$87
   dd62   28 41 42 4f   	fcc	"(ABORT"	;fcc	6,(ABORT)
   dd66   52 54         
   dd68   a9            	fcb	$A9
   dd69   dd 37         	fdb	DFIND-8
   dd6b   d5 2a df 7d   PABORT	fdb	DOCOL,ABORT
   dd6f   d3 6c         	fdb	SEMIS
                        ;
                        ; ======>>  143  <<
   dd71   85            	fcb	$85
   dd72   45 52 52 4f   	fcc	"ERRO"	;fcc	4,ERROR
   dd76   d2            	fcb	$D2
   dd77   dd 61         	fdb	PABORT-10
   dd79   d5 2a d6 42   ERROR	fdb	DOCOL,WARN,AT,ZLESS
   dd7d   d4 d5 d3 df   
   dd81   d0 91         	fdb	ZBRAN
                        ; note: WARNING is -1 to abort, 0 to print ERROR #
                        ; and 1 to print ERROR message from disc
   dd83   00 04         	fdb	ERROR2-*
   dd85   dd 6b         	fdb	PABORT
   dd87   d7 31 da 26   ERROR2	fdb	HERE,COUNT,TYPE,PDOTQ
   dd8b   da 39 da 9f   
   dd8f   04 07         	fcb	4,7	;(bell)
   dd91   20 3f 20      	fcc	" ? "
   dd94   e2 88 d3 4d   	fdb	MESS,SPSTOR,IN,AT,BLK,AT,QUIT
   dd98   d6 79 d4 d5   
   dd9c   d6 70 d4 d5   
   dda0   df 4f         
   dda2   d3 6c         	fdb	SEMIS
                        ;
                        ; ======>>  144  <<
   dda4   83            	fcb	$83
   dda5   49 44         	fcc	"ID"	;fcc	2,ID.
   dda7   ae            	fcb	$AE
   dda8   dd 71         	fdb	ERROR-8
   ddaa   d5 2a dc 39   IDDOT	fdb	DOCOL,PAD,CLITER
   ddae   d0 59         
   ddb0   20            	fcb	32
   ddb1   d0 59         	fdb	CLITER
   ddb3   5f            	fcb	$5F	;(underline)
   ddb4   db e1 d4 98   	fdb	FILL,DUP,PFA,LFA,OVER,SUB,PAD
   ddb8   d8 82 d8 50   
   ddbc   d4 60 d7 6e   
   ddc0   dc 39         
   ddc2   d4 7f d2 73   	fdb	SWAP,CMOVE,PAD,COUNT,CLITER
   ddc6   dc 39 da 26   
   ddca   d0 59         
   ddcc   1f            	fcb	31
   ddcd   d3 07 da 39   	fdb	ANDLAB,TYPE,SPACE
   ddd1   d7 c6         
   ddd3   d3 6c         	fdb	SEMIS
                        ;
                        ; ######>> screen 51 <<
                        ; ======>>  145  <<
   ddd5   86            	fcb	$86
   ddd6   43 52 45 41   	fcc	"CREAT"	;fcc	5,CREATE
   ddda   54            
   dddb   c5            	fcb	$C5
   dddc   dd a4         	fdb	IDDOT-6
   ddde   d5 2a dd 3f   CREATE	fdb	DOCOL,DFIND,ZBRAN
   dde2   d0 91         
   dde4   00 1a         	fdb	CREAT2-*
   dde6   d4 71 da 9f   	fdb	DROP,PDOTQ
   ddea   08            	fcb	8
   ddeb   07            	fcb	7	;(bel)
   ddec   72 65 64 65   	fcc	"redef: "
   ddf0   66 3a 20      
   ddf3   d8 6d dd aa   	fdb	NFA,IDDOT,CLITER
   ddf7   d0 59         
   ddf9   04            	fcb	4
   ddfa   e2 88 d7 c6   	fdb	MESS,SPACE
   ddfe   d7 31 d4 98   CREAT2	fdb	HERE,DUP,CAT,WIDTH,AT,MIN
   de02   d4 e4 d6 34   
   de06   d4 d5 d7 d4   
   de0a   d7 15 d7 41   	fdb	ONEP,ALLOT,DUP,CLITER
   de0e   d4 98 d0 59   
   de12   a0            	fcb	$A0
   de13   d4 c3 d7 31   	fdb	TOGGLE,HERE,ONE,SUB,CLITER
   de17   d5 af d7 6e   
   de1b   d0 59         
   de1d   80            	fcb	$80
   de1e   d4 c3 d8 40   	fdb	TOGGLE,LATEST,COMMA,CURENT,AT,STORE
   de22   d7 4d d6 b6   
   de26   d4 d5 d4 f5   
   de2a   d7 31 d7 22   	fdb	HERE,TWOP,COMMA
   de2e   d7 4d         
   de30   d3 6c         	fdb	SEMIS
                        ;
                        ; ######>> screen 52 <<
                        ; ======>>  146  <<
   de32   c9            	fcb	$C9	;immediate
   de33   5b 43 4f 4d   	fcc	"[COMPILE"	;fcc	8,[COMPILE]
   de37   50 49 4c 45   
   de3b   dd            	fcb	$DD
   de3c   dd d5         	fdb	CREATE-9
   de3e   d5 2a dd 3f   BcomP	fdb	DOCOL,DFIND,ZEQU,ZERO,QERR,DROP,CFA,COMMA
   de42   d3 cc d5 a7   
   de46   d8 a9 d4 71   
   de4a   d8 5f d7 4d   
   de4e   d3 6c         	fdb	SEMIS
                        ;
                        ; ======>>  147  <<
   de50   c7            	fcb	$C7	;immediate
   de51   4c 49 54 45   	fcc	"LITERA"	;fcc	6,LITERAL
   de55   52 41         
   de57   cc            	fcb	$CC
   de58   de 32         	fdb	BcomP-12
   de5a   d5 2a d6 c2   LITER	fdb	DOCOL,STATE,AT,ZBRAN
   de5e   d4 d5 d0 91   
   de62   00 08         	fdb	LITER2-*
   de64   d9 37 d0 49   	fdb	COMPIL,LIT,COMMA
   de68   d7 4d         
   de6a   d3 6c         LITER2	fdb	SEMIS
                        ;
                        ; ======>>  148  <<
   de6c   c8            	fcb	$C8	;immediate
   de6d   44 4c 49 54   	fcc	"DLITERA"	;fcc	7,DLITERAL
   de71   45 52 41      
   de74   cc            	fcb	$CC
   de75   de 50         	fdb	LITER-10
   de77   d5 2a d6 c2   DLITER	fdb	DOCOL,STATE,AT,ZBRAN
   de7b   d4 d5 d0 91   
   de7f   00 08         	fdb	DLITE2-*
   de81   d4 7f de 5a   	fdb	SWAP,LITER,LITER
   de85   de 5a         
   de87   d3 6c         DLITE2	fdb	SEMIS
                        ;
                        ; ######>> screen 53 <<
                        ; ======>>  149  <<
   de89   89            	fcb	$89
   de8a   49 4e 54 45   	fcc	"INTERPRE"	;fcc	8,INTERPRET
   de8e   52 50 52 45   
   de92   d4            	fcb	$D4
   de93   de 6c         	fdb	DLITER-11
   de95   d5 2a         INTERP	fdb	DOCOL
   de97   dd 3f d0 91   INTER2	fdb	DFIND,ZBRAN
   de9b   00 1c         	fdb	INTER5-*
   de9d   d6 c2 d4 d5   	fdb	STATE,AT,LESS
   dea1   d7 86         
   dea3   d0 91         	fdb	ZBRAN
   dea5   00 0a         	fdb	INTER3-*
   dea7   d8 5f d7 4d   	fdb	CFA,COMMA,BRAN
   deab   d0 85         
   dead   00 06         	fdb	INTER4-*
   deaf   d8 5f d0 71   INTER3	fdb	CFA,EXEC
   deb3   d0 85         INTER4	fdb	BRAN
   deb5   00 1a         	fdb	INTER7-*
   deb7   d7 31 dc e9   INTER5	fdb	HERE,NUMB,DPL,AT,ONEP,ZBRAN
   debb   d6 d7 d4 d5   
   debf   d7 15 d0 91   
   dec3   00 08         	fdb	INTER6-*
   dec5   de 77 d0 85   	fdb	DLITER,BRAN
   dec9   00 06         	fdb	INTER7-*
   decb   d4 71 de 5a   INTER6	fdb	DROP,LITER
   decf   da ec d0 85   INTER7	fdb	QSTACK,BRAN
   ded3   ff c4         	fdb	INTER2-*
                        ;	fdb	SEMIS	;never executed
                        ;
                        ; ######>> screen 54 <<
                        ; ======>>  150  <<
   ded5   89            	fcb	$89
   ded6   49 4d 4d 45   	fcc	"IMMEDIAT"	;fcc	8,IMMEDIATE
   deda   44 49 41 54   
   dede   c5            	fcb	$C5
   dedf   de 89         	fdb	INTERP-12
   dee1   d5 2a d8 40   IMMED	fdb	DOCOL,LATEST,CLITER
   dee5   d0 59         
   dee7   40            	fcb	$40
   dee8   d4 c3         	fdb	TOGGLE
   deea   d3 6c         	fdb	SEMIS
                        ;
                        ; ======>>  151  <<
   deec   8a            	fcb	$8A
   deed   56 4f 43 41   	fcc	"VOCABULAR"	;fcc	9,VOCABULARY
   def1   42 55 4c 41   
   def5   52            
   def6   d9            	fcb	$D9
   def7   de d5         	fdb	IMMED-12
   def9   d5 2a d9 dc   VOCAB	fdb	DOCOL,BUILDS,LIT,$81A0,COMMA,CURENT,AT,CFA
   defd   d0 49 81 a0   
   df01   d7 4d d6 b6   
   df05   d4 d5 d8 5f   
   df09   d7 4d d7 31   	fdb	COMMA,HERE,VOCLIN,AT,COMMA,VOCLIN,STORE,DOES
   df0d   d6 66 d4 d5   
   df11   d7 4d d6 66   
   df15   d4 f5 d9 ec   
   df19   d7 22 d6 a8   DOVOC	fdb	TWOP,CONTXT,STORE
   df1d   d4 f5         
   df1f   d3 6c         	fdb	SEMIS
                        ;
                        ; ======>>  152  <<
                        ;
                        ; Note: FORTH does not go here in the rom-able dictionary,
                        ;       since FORTH is a type of variable.
                        ;
                        ;
                        ; ======>>  153  <<
   df21   8b            	fcb	$8B
   df22   44 45 46 49   	fcc	"DEFINITION"	;fcc	10,DEFINITIONS
   df26   4e 49 54 49   
   df2a   4f 4e         
   df2c   d3            	fcb	$D3
   df2d   de ec         	fdb	VOCAB-13
   df2f   d5 2a d6 a8   DEFIN	fdb	DOCOL,CONTXT,AT,CURENT,STORE
   df33   d4 d5 d6 b6   
   df37   d4 f5         
   df39   d3 6c         	fdb	SEMIS
                        ;
                        ; ======>>  154  <<
   df3b   c1            	fcb	$C1	;immediate	(
   df3c   a8            	fcb	$A8
   df3d   df 21         	fdb	DEFIN-14
   df3f   d5 2a d0 59   PAREN	fdb	DOCOL,CLITER
   df43   29            	fcc	")"
   df44   dc 4e         	fdb	WORD
   df46   d3 6c         	fdb	SEMIS
                        ;
                        ; ######>> screen 55 <<
                        ; ======>>  155  <<
   df48   84            	fcb	$84
   df49   51 55 49      	fcc	"QUI"	;fcc	3,QUIT
   df4c   d4            	fcb	$D4
   df4d   df 3b         	fdb	PAREN-4
   df4f   d5 2a d5 a7   QUIT	fdb	DOCOL,ZERO,BLK,STORE
   df53   d6 70 d4 f5   
   df57   d9 4d         	fdb	LBRAK
                        ;
                        ;  Here is the outer interpreter
                        ;  which gets a line of input, does it, prints " OK"
                        ;  then repeats :
                        ;
   df59   d3 5d d2 63   QUIT2	fdb	RPSTOR,CR,QUERY,INTERP,STATE,AT,ZEQU
   df5d   db 8e de 95   
   df61   d6 c2 d4 d5   
   df65   d3 cc         
   df67   d0 91         	fdb	ZBRAN
   df69   00 08         	fdb	QUIT3-*
   df6b   da 9f         	fdb	PDOTQ
   df6d   03            	fcb	3
   df6e   20 4f 4b      	fcc	" OK"	;fcc	3, OK
   df71   d0 85         QUIT3	fdb	BRAN
   df73   ff e6         	fdb	QUIT2-*
                        ;	fdb	SEMIS	;(never executed)
                        ;
                        ; ======>>  156  <<
   df75   85            	fcb	$85
   df76   41 42 4f 52   	fcc	"ABOR"	;fcc	4,ABORT
   df7a   d4            	fcb	$D4
   df7b   df 48         	fdb	QUIT-7
   df7d   d5 2a d3 4d   ABORT	fdb	DOCOL,SPSTOR,DEC,QSTACK,DRZERO,CR,PDOTQ
   df81   d9 95 da ec   
   df85   e1 82 d2 63   
   df89   da 9f         
   df8b   08            	fcb	8
   df8c   46 6f 72 74   	fcc	"Forth-68"
   df90   68 2d 36 38   
   df94   01 50 df 2f   	fdb	FORTH,DEFIN
   df98   df 4f         	fdb	QUIT
                        ;	fdb	SEMIS	;never executed
                        ;
                        ; ######>> screen 56 <<
                        ; bootstrap code... moves rom contents to ram :
                        ; ======>>  157  <<
   df9a   84            	fcb	$84
   df9b   43 4f 4c      	fcc	"COL"	;fcc	3,COLD
   df9e   c4            	fcb	$C4
   df9f   df 75         	fdb	ABORT-8
   dfa1   df a3         COLD	fdb	*+2
                        ; COLD START ENTRY POINT
   dfa3   8e 01 82      CENT	lds	#REND-1	;SET STACK POINTER TO TOP OF DESTINATION
   dfa6   ce e0 42      	ldx	#ERAM	;top of stuff to move
   dfa9   09            COLD2	dex
   dfaa   a6 00         	lda a 0,x
   dfac   36            	psha		;move TASK & FORTH to ram
   dfad   8c df ff      	cpx	#RAM
   dfb0   26 f7         	bne	COLD2
                        ; COPY INITIAL VARIABLE VALUES FROM ROM TO RAM
   dfb2   8e 01 0f      	lds	#XFENCE-1	;put stack at a safe place for now
   dfb5   fe d0 22      	ldx	COLINT		; terminal carriage width
   dfb8   ff 01 34      	stx	XCOLUM
   dfbb   fe d0 24      	ldx	DELINT		; carriage return delay
   dfbe   ff 01 32      	stx	XDELAY
   dfc1   fe d0 20      	ldx	VOCINT
   dfc4   ff 01 14      	stx	XVOCL
   dfc7   fe d0 1e      	ldx	DPINIT
   dfca   ff 01 12      	stx	XDP
   dfcd   fe d0 1c      	ldx	FENCIN
   dfd0   ff 01 10      	stx	XFENCE
                        ; WARM START ENTRY POINT
                        ; DOES NOT RELOAD VARS FROM ABOVE
                        ; INITIALIZE THE STACK
   dfd3   8e 01 0f      WENT	lds	#XFENCE-1	;top of destination
   dfd6   ce d0 1c      	ldx	#FENCIN		;top of stuff to move
   dfd9   09            WARM2	dex
   dfda   a6 00         	lda a 0,x
   dfdc   36            	psha
   dfdd   8c d0 12      	cpx	#SINIT
   dfe0   26 f7         	bne	WARM2
                        ;
   dfe2   be d0 12      	lds	SINIT	; INITIAL STACK 
   dfe5   fe d0 10      	ldx	UPINIT
   dfe8   df f6         	stx	UP		;init user ram pointer
   dfea   ce df 7d      	ldx	#ABORT
   dfed   df f2         	stx	IP
   dfef   01            	nop		;Here is a place to jump to special user
   dff0   01            	nop		;initializations such as I/0 interrups
   dff1   01            	nop
                        ;
                        ; For systems with TRACE:
   dff2   ce 00 00      	ldx	#00
   dff5   df ea         	stx	TRLIM	;clear trace mode
   dff7   ce 00 00      	ldx	#0
   dffa   df ec         	stx	BRKPT	;clear breakpoint address
   dffc   7e d3 5f      	jmp	RPSTOR+2 ;sta a rt the virtual machine running !
                        ;
                        ; Here is the stuff that gets copied to ram :
                        ; at address $140:
                        ;
   dfff   30 00 30 00   RAM	fdb	$3000,$3000,0,0
   e003   00 00 00 00   
                        ;
                        ; ======>>  (152)  <<
   e007   c5            	fcb	$C5	;immediate
   e008   46 4f 52 54   	fcc	"FORT"	;fcc	4,FORTH
   e00c   c8            	fcb	$C8
   e00d   e7 4d         	fdb	NOOP-7
   e00f   d9 fa df 19   RFORTH	fdb	DODOES,DOVOC,$81A0,TASK-7
   e013   81 a0 01 78   
   e017   00 00         	fdb	0
   e019   28 43 29 20   	fcc	"(C) Forth Interest Group, 1979"
   e01d   46 6f 72 74   
   e021   68 20 49 6e   
   e025   74 65 72 65   
   e029   73 74 20 47   
   e02d   72 6f 75 70   
   e031   2c 20 31 39   
   e035   37 39         
   e037   84            	fcb	$84
   e038   54 41 53      	fcc	"TAS"	;fcc	3,TASK
   e03b   cb            	fcb	$CB
   e03c   01 48         	fdb	FORTH-8
   e03e   d5 2a d3 6c   RTASK	fdb	DOCOL,SEMIS
   e042   44 61 76 69   ERAM	fcc	"David Lion"	
   e046   64 20 4c 69   
   e04a   6f 6e         
                        ;
                        ; ######>> screen 57 <<
                        ; ======>>  158  <<
   e04c   84            	fcb	$84
   e04d   53 2d 3e      	fcc	"S->"	;fcc	3,S->D
   e050   c4            	fcb	$C4
   e051   df 9a         	fdb	COLD-7
   e053   d5 2a d4 98   STOD	fdb	DOCOL,DUP,ZLESS,MINUS
   e057   d3 df d4 26   
   e05b   d3 6c         	fdb	SEMIS
                        ;
                        ; ======>>  159  <<
   e05d   81            	fcb	$81	; *
   e05e   aa            	fcb	$AA
   e05f   e0 4c         	fdb	STOD-7
   e061   e0 63         STAR	fdb	*+2
   e063   bd d2 b0      	jsr	USTARS
   e066   31            	ins
   e067   31            	ins
   e068   7e d0 34      	jmp	NEXT
                        ;
                        ; ======>>  160  <<
   e06b   84            	fcb	$84
   e06c   2f 4d 4f      	fcc	"/MO"	;fcc	3,/MODLAB
   e06f   c4            	fcb	$C4
   e070   e0 5d         	fdb	STAR-4
   e072   d5 2a d3 95   SLMOD	fdb	DOCOL,TOR,STOD,FROMR,USLASH
   e076   e0 53 d3 ab   
   e07a   d2 cf         
   e07c   d3 6c         	fdb	SEMIS
                        ;
                        ; ======>>  161  <<
   e07e   81            	fcb	$81	; /
   e07f   af            	fcb	$AF
   e080   e0 6b         	fdb	SLMOD-7
   e082   d5 2a e0 72   SLASH	fdb	DOCOL,SLMOD,SWAP,DROP
   e086   d4 7f d4 71   
   e08a   d3 6c         	fdb	SEMIS
                        ;
                        ; ======>>  162  <<
   e08c   83            	fcb	$83
   e08d   4d 4f         	fcc	"MO"	;fcc	2,MODLAB
   e08f   c4            	fcb	$C4
   e090   e0 7e         	fdb	SLASH-4
   e092   d5 2a e0 72   MODLAB	fdb	DOCOL,SLMOD,DROP
   e096   d4 71         
   e098   d3 6c         	fdb	SEMIS
                        ;
                        ; ======>>  163  <<
   e09a   85            	fcb	$85
   e09b   2a 2f 4d 4f   	fcc	"*/MO"	;fcc	4,*/MODLAB
   e09f   c4            	fcb	$C4
   e0a0   e0 8c         	fdb	MODLAB-6
   e0a2   d5 2a d3 95   SSMOD	fdb	DOCOL,TOR,USTAR,FROMR,USLASH
   e0a6   d2 a7 d3 ab   
   e0aa   d2 cf         
   e0ac   d3 6c         	fdb	SEMIS
                        ;
                        ; ======>>  164  <<
   e0ae   82            	fcb	$82
   e0af   2a            	fcc	"*"	;fcc	1,*/
   e0b0   af            	fcb	$AF
   e0b1   e0 9a         	fdb	SSMOD-8
   e0b3   d5 2a e0 a2   SSLASH	fdb	DOCOL,SSMOD,SWAP,DROP
   e0b7   d4 7f d4 71   
   e0bb   d3 6c         	fdb	SEMIS
                        ;
                        ; ======>>  165  <<
   e0bd   85            	fcb	$85
   e0be   4d 2f 4d 4f   	fcc	"M/MO"	;fcc	4,M/MODLAB
   e0c2   c4            	fcb	$C4
   e0c3   e0 ae         	fdb	SSLASH-5
   e0c5   d5 2a d3 95   MSMOD	fdb	DOCOL,TOR,ZERO,R,USLASH
   e0c9   d5 a7 d3 be   
   e0cd   d2 cf         
   e0cf   d3 ab d4 7f   	fdb	FROMR,SWAP,TOR,USLASH,FROMR
   e0d3   d3 95 d2 cf   
   e0d7   d3 ab         
   e0d9   d3 6c         	fdb	SEMIS
                        ;
                        ; ======>>  166  <<
   e0db   83            	fcb	$83
   e0dc   41 42         	fcc	"AB"	;fcc	2,ABS
   e0de   d3            	fcb	$D3
   e0df   e0 bd         	fdb	MSMOD-8
   e0e1   d5 2a d4 98   ABS	fdb	DOCOL,DUP,ZLESS,ZBRAN
   e0e5   d3 df d0 91   
   e0e9   00 04         	fdb	ABS2-*
   e0eb   d4 26         	fdb	MINUS
   e0ed   d3 6c         ABS2	fdb	SEMIS
                        ;
                        ; ======>>  167  <<
   e0ef   84            	fcb	$84
   e0f0   44 41 42      	fcc	"DAB"	;fcc	3,DABS
   e0f3   d3            	fcb	$D3
   e0f4   e0 db         	fdb	ABS-6
   e0f6   d5 2a d4 98   DABS	fdb	DOCOL,DUP,ZLESS,ZBRAN
   e0fa   d3 df d0 91   
   e0fe   00 04         	fdb	DABS2-*
   e100   d4 3f         	fdb	DMINUS
   e102   d3 6c         DABS2	fdb	SEMIS
                        ;
                        ; ######>> screen 58 <<
                        ; Disc primatives :
                        ; ======>>  168  <<
   e104   83            	fcb	$83
   e105   55 53         	fcc	"US"	;fcc	2,USE
   e107   c5            	fcb	$C5
   e108   e0 ef         	fdb	DABS-7
   e10a   d5 64         USE	fdb	DOCON
   e10c   01 40         	fdb	XUSE
                        ;
                        ; ======>>  169  <<
   e10e   84            	fcb	$84
   e10f   50 52 45      	fcc	"PRE"	;fcc	3,PREV
   e112   d6            	fcb	$D6
   e113   e1 04         	fdb	USE-6
   e115   d5 64         PREV	fdb	DOCON
   e117   01 42         	fdb	XPREV
                        ;
                        ; ======>>  170  <<
   e119   84            	fcb	$84
   e11a   2b 42 55      	fcc	"+BU"	;fcc	3,+BUF
   e11d   c6            	fcb	$C6
   e11e   e1 0e         	fdb	PREV-7
   e120   d5 2a d0 59   PBUF	fdb	DOCOL,CLITER
   e124   84            	fcb	$84
   e125   d3 f6 d4 98   	fdb	PLUS,DUP,LIMIT,EQUAL,ZBRAN
   e129   d5 e0 d7 7a   
   e12d   d0 91         
   e12f   00 06         	fdb	PBUF2-*
   e131   d4 71 d5 d4   	fdb	DROP,FIRST
   e135   d4 98 e1 15   PBUF2	fdb	DUP,PREV,AT,SUB
   e139   d4 d5 d7 6e   
   e13d   d3 6c         	fdb	SEMIS
                        ;
                        ; ======>>  171  <<
   e13f   86            	fcb	$86
   e140   55 50 44 41   	fcc	"UPDAT"	;fcc	5,UPDATE
   e144   54            
   e145   c5            	fcb	$C5
   e146   e1 19         	fdb	PBUF-7
   e148   d5 2a e1 15   UPDATE	fdb	DOCOL,PREV,AT,AT,LIT,$8000,ORLAB,PREV,AT,STORE
   e14c   d4 d5 d4 d5   
   e150   d0 49 80 00   
   e154   d3 18 e1 15   
   e158   d4 d5 d4 f5   
   e15c   d3 6c         	fdb	SEMIS
                        ;
                        ; ======>>  172  <<
   e15e   8d            	fcb	$8D
   e15f   45 4d 50 54   	fcc	"EMPTY-BUFFER"	;fcc	12,EMPTY-BUFFERS
   e163   59 2d 42 55   
   e167   46 46 45 52   
   e16b   d3            	fcb	$D3
   e16c   e1 3f         	fdb	UPDATE-9
   e16e   d5 2a d5 d4   MTBUF	fdb	DOCOL,FIRST,LIMIT,OVER,SUB,ERASE
   e172   d5 e0 d4 60   
   e176   d7 6e dc 01   
   e17a   d3 6c         	fdb	SEMIS
                        ;
                        ; ======>>  173  <<
   e17c   83            	fcb	$83
   e17d   44 52         	fcc	"DR"	;fcc	2,DR0
   e17f   b0            	fcb	$B0
   e180   e1 5e         	fdb	MTBUF-16
   e182   d5 2a d5 a7   DRZERO	fdb	DOCOL,ZERO,OFSET,STORE
   e186   d6 9a d4 f5   
   e18a   d3 6c         	fdb	SEMIS
                        ;
                        ; ======>>  174  <<== system dependant word
   e18c   83            	fcb	$83
   e18d   44 52         	fcc	"DR"	;fcc	2,DR1
   e18f   b1            	fcb	$B1
   e190   e1 7c         	fdb	DRZERO-6
   e192   d5 2a d0 49   DRONE	fdb	DOCOL,LIT,$07D0,OFSET,STORE
   e196   07 d0 d6 9a   
   e19a   d4 f5         
   e19c   d3 6c         	fdb	SEMIS
                        ;
                        ; ######>> screen 59 <<
                        ; ======>>  175  <<
   e19e   86            	fcb	$86
   e19f   42 55 46 46   	fcc	"BUFFE"	;fcc	5,BUFFER
   e1a3   45            
   e1a4   d2            	fcb	$D2
   e1a5   e1 8c         	fdb	DRONE-6
   e1a7   d5 2a e1 0a   BUFFER	fdb	DOCOL,USE,AT,DUP,TOR
   e1ab   d4 d5 d4 98   
   e1af   d3 95         
   e1b1   e1 20 d0 91   BUFFR2	fdb	PBUF,ZBRAN
   e1b5   ff fc         	fdb	BUFFR2-*
   e1b7   e1 0a d4 f5   	fdb	USE,STORE,R,AT,ZLESS
   e1bb   d3 be d4 d5   
   e1bf   d3 df         
   e1c1   d0 91         	fdb	ZBRAN
   e1c3   00 14         	fdb	BUFFR3-*
   e1c5   d3 be d7 22   	fdb	R,TWOP,R,AT,LIT,$7FFF,ANDLAB,ZERO,RW
   e1c9   d3 be d4 d5   
   e1cd   d0 49 7f ff   
   e1d1   d3 07 d5 a7   
   e1d5   e3 aa         
   e1d7   d3 be d4 f5   BUFFR3	fdb	R,STORE,R,PREV,STORE,FROMR,TWOP
   e1db   d3 be e1 15   
   e1df   d4 f5 d3 ab   
   e1e3   d7 22         
   e1e5   d3 6c         	fdb	SEMIS
                        ;
                        ; ######>> screen 60 <<
                        ; ======>>  176  <<
   e1e7   85            	fcb	$85
   e1e8   42 4c 4f 43   	fcc	"BLOC"	;fcc	4,BLOCK
   e1ec   cb            	fcb	$CB
   e1ed   e1 9e         	fdb	BUFFER-9
   e1ef   d5 2a d6 9a   BLOCK	fdb	DOCOL,OFSET,AT,PLUS,TOR
   e1f3   d4 d5 d3 f6   
   e1f7   d3 95         
   e1f9   e1 15 d4 d5   	fdb	PREV,AT,DUP,AT,R,SUB,DUP,PLUS,ZBRAN
   e1fd   d4 98 d4 d5   
   e201   d3 be d7 6e   
   e205   d4 98 d3 f6   
   e209   d0 91         
   e20b   00 34         	fdb	BLOCK5-*
   e20d   e1 20 d3 cc   BLOCK3	fdb	PBUF,ZEQU,ZBRAN
   e211   d0 91         
   e213   00 14         	fdb	BLOCK4-*
   e215   d4 71 d3 be   	fdb	DROP,R,BUFFER,DUP,R,ONE,RW,TWO,SUB
   e219   e1 a7 d4 98   
   e21d   d3 be d5 af   
   e221   e3 aa d5 b7   
   e225   d7 6e         
   e227   d4 98 d4 d5   BLOCK4	fdb	DUP,AT,R,SUB,DUP,PLUS,ZEQU,ZBRAN
   e22b   d3 be d7 6e   
   e22f   d4 98 d3 f6   
   e233   d3 cc d0 91   
   e237   ff d6         	fdb	BLOCK3-*
   e239   d4 98 e1 15   	fdb	DUP,PREV,STORE
   e23d   d4 f5         
   e23f   d3 ab d4 71   BLOCK5	fdb	FROMR,DROP,TWOP
   e243   d7 22         
   e245   d3 6c         	fdb	SEMIS
                        ;
                        ; ######>> screen 61 <<
                        ; ======>>  177  <<
   e247   86            	fcb	$86
   e248   28 4c 49 4e   	fcc	"(LINE"	;fcc	5,(LINE)
   e24c   45            
   e24d   a9            	fcb	$A9
   e24e   e1 e7         	fdb	BLOCK-8
   e250   d5 2a d3 95   PLINE	fdb	DOCOL,TOR,CLITER
   e254   d0 59         
   e256   40            	fcb	$40
   e257   d5 ec e0 a2   	fdb	BBUF,SSMOD,FROMR,BSCR,STAR,PLUS,BLOCK,PLUS,CLITER
   e25b   d3 ab d5 f8   
   e25f   e0 61 d3 f6   
   e263   e1 ef d3 f6   
   e267   d0 59         
   e269   40            	fcb	$40
   e26a   d3 6c         	fdb	SEMIS
                        ;
                        ; ======>>  178  <<
   e26c   85            	fcb	$85
   e26d   2e 4c 49 4e   	fcc	".LIN"	;fcc	4,.LINE
   e271   c5            	fcb	$C5
   e272   e2 47         	fdb	PLINE-9
   e274   d5 2a e2 50   DLINE	fdb	DOCOL,PLINE,DTRAIL,TYPE
   e278   da 6c da 39   
   e27c   d3 6c         	fdb	SEMIS
                        ;
                        ; ======>>  179  <<
   e27e   87            	fcb	$87
   e27f   4d 45 53 53   	fcc	"MESSAG"	;fcc	6,MESSAGE
   e283   41 47         
   e285   c5            	fcb	$C5
   e286   e2 6c         	fdb	DLINE-8
   e288   d5 2a d6 42   MESS	fdb	DOCOL,WARN,AT,ZBRAN
   e28c   d4 d5 d0 91   
   e290   00 1b         	fdb	MESS3-*
   e292   d8 05 d0 91   	fdb	DDUP,ZBRAN
   e296   00 15         	fdb	MESS3-*
   e298   d0 59         	fdb	CLITER
   e29a   04            	fcb	4
   e29b   d6 9a d4 d5   	fdb	OFSET,AT,BSCR,SLASH,SUB,DLINE,BRAN
   e29f   d5 f8 e0 82   
   e2a3   d7 6e e2 74   
   e2a7   d0 85         
   e2a9   00 0d         	fdb	MESS4-*
   e2ab   da 9f         MESS3	fdb	PDOTQ
   e2ad   06            	fcb	6
   e2ae   65 72 72 20   	fcc	"err # "	;fcc	6,err # 
   e2b2   23 20         
   e2b4   e6 41         	fdb	DOT
   e2b6   d3 6c         MESS4	fdb	SEMIS
                        ;
                        ; ======>>  180  <<
   e2b8   84            	fcb	$84
   e2b9   4c 4f 41      	fcc	"LOA"	;fcc	3,LOAD	;input:scr #
   e2bc   c4            	fcb	$C4
   e2bd   e2 7e         	fdb	MESS-10
   e2bf   d5 2a d6 70   LOAD	fdb	DOCOL,BLK,AT,TOR,IN,AT,TOR,ZERO,IN,STORE
   e2c3   d4 d5 d3 95   
   e2c7   d6 79 d4 d5   
   e2cb   d3 95 d5 a7   
   e2cf   d6 79 d4 f5   
   e2d3   d5 f8 e0 61   	fdb	BSCR,STAR,BLK,STORE
   e2d7   d6 70 d4 f5   
   e2db   de 95 d3 ab   	fdb	INTERP,FROMR,IN,STORE,FROMR,BLK,STORE
   e2df   d6 79 d4 f5   
   e2e3   d3 ab d6 70   
   e2e7   d4 f5         
   e2e9   d3 6c         	fdb	SEMIS
                        ;
                        ; ======>>  181  <<
   e2eb   c3            	fcb	$C3
   e2ec   2d 2d         	fcc	"--"	;fcc	2,-->
   e2ee   be            	fcb	$BE
   e2ef   e2 b8         	fdb	LOAD-7
   e2f1   d5 2a d9 1e   ARROW	fdb	DOCOL,QLOAD,ZERO,IN,STORE,BSCR
   e2f5   d5 a7 d6 79   
   e2f9   d4 f5 d5 f8   
   e2fd   d6 70 d4 d5   	fdb	BLK,AT,OVER,MODLAB,SUB,BLK,PSTORE
   e301   d4 60 e0 92   
   e305   d7 6e d6 70   
   e309   d4 a6         
   e30b   d3 6c         	fdb	SEMIS
                        ;
                        ;
                        ; ######>> screen 63 <<
                        ;    The next 4 subroutines are machine dependent, and are
                        ;    called by words 13 through 16 in the dictionary.
                        ;
                        ;
                        ; ======>>  182  << code for EMIT
   e30d   d7 e0         PEMIT	sta b	N	;save B
   e30f   df e1         PEM_LP	stx	N+1	;save X
   e311   f6 80 00      	lda b	ACIACS
   e314   c5 02         	bitb	#2	;check ready bit
   e316   27 f7         	beq	PEM_LP	;if not ready for more data
   e318   b7 80 01      	sta a 	ACIADA
   e31b   de f6         	ldx	UP
   e31d   e7 36         	sta b	IOSTAT-UORIG,x
   e31f   d6 e0         	lda b	N	;recover B & X
   e321   de e1         	ldx	N+1
   e323   39            	rts		;only A register may change
                        
                        ; ======>>  183  << code for KEY
   e324   d7 e0         PKEY	sta b	N
   e326   df e1         PKEY_LP	stx	N+1
   e328   f6 80 00      	lda b	ACIACS
   e32b   57            	asrb
   e32c   24 f8         	bcc	PKEY_LP	;no incoming data yet
   e32e   b6 80 01      	lda	a ACIADA
   e331   84 7f         	anda	#$7F	;strip parity bit
   e333   de f6         	ldx	UP
   e335   e7 37         	sta b	IOSTAT+1-UORIG,x
   e337   d6 e0         	lda b	N
   e339   de e1         	ldx	N+1
   e33b   39            	rts
                        	
                        ;PKEY	jmp	$E1AC	;for MIKBUG
                        ;  PKEY	fcb	$3F,$14,$39	;for PROTO
                        ;  PKEY	jmp	$D289 ;for Smoke Signal DOS
                        ;
                        ; ######>> screen 64 <<
                        ; ======>>  184  << code for ?TERMINAL
   e33c   b6 80 00      PQTER	lda	a ACIACS	;Test for 'break'  condition
   e33f   84 11         	anda	#$11	;mask framing ERROR bit and
                        ;			 input buffer full
   e341   27 05         	beq	PQTER2
   e343   b6 80 01      	lda	a ACIADA	;clear input buffer
   e346   86 01         	lda a #01
   e348   39            PQTER2	rts
                        ;
                        ; ======>>  185  << code for CR
   e349   86 0d         PCR	lda a #$D	;carriage return
   e34b   8d c0         	bsr	PEMIT
   e34d   86 0a         	lda a #$A	;line feed
   e34f   8d bc         	bsr	PEMIT
   e351   86 7f         	lda a #$7F	;rubout
   e353   de f6         	ldx	UP
   e355   e6 33         	lda b	XDELAY+1-UORIG,x
   e357   5a            PCR2	decb
   e358   2b ee         	bmi	PQTER2	;return if minus
   e35a   37            	pshb		;save counter
   e35b   8d b0         	bsr	PEMIT	;print RUBOUTs to delay.....
   e35d   33            	pulb
   e35e   20 f7         	bra	PCR2	;repeat
                        ;
                        ; ######>> screen 66 <<
                        ; ======>>  187  <<
   e360   85            	fcb	$85
   e361   3f 44 49 53   	fcc	"?DIS"	;fcc	4,?DISC
   e365   c3            	fcb	$C3
   e366   e2 eb         	fdb	ARROW-6
   e368   e3 6a         QDISC	fdb	*+2
   e36a   7e d0 34      	jmp	NEXT
                        ;
                        ; ######>> screen 67 <<
                        ; ======>>  189  <<
   e36d   8b            	fcb	$8B
   e36e   42 4c 4f 43   	fcc	"BLOCK_WRIT"	;fcc	10,BLOCK-WRITE
   e372   4b 5f 57 52   
   e376   49 54         
   e378   c5            	fcb	$C5
   e379   e3 60         	fdb	QDISC-8
   e37b   e3 7d         BWRITE	fdb	*+2
   e37d   7e d0 34      	jmp	NEXT
                        ;
                        ; ######>> screen 68 <<
                        ; ======>>  190  <<
   e380   8a            	fcb	$8A
   e381   42 4c 4f 43   	fcc	"BLOCK_REA"	;fcc	9,BLOCK-READ
   e385   4b 5f 52 45   
   e389   41            
   e38a   c4            	fcb	$C4
   e38b   e3 6d         	fdb	BWRITE-14
   e38d   e3 8f         BREAD	fdb	*+2
   e38f   7e d0 34      	jmp	NEXT
                        ;
                        ; The next 3 words are written to create a substitute for disc
                        ; mass memory,located between $3210 & $7BFF in ram.
                        ;
                        ; ======>>  190.1  <<
   e392   82            	fcb	$82
   e393   4c            	fcc	"L"	;fcc	1,LO
   e394   cf            	fcb	$CF
   e395   e3 80         	fdb	BREAD-13
   e397   d5 64         LO	fdb	DOCON
   e399   32 10         	fdb	MEMEND	;a system dependent equate at front
                        ;
                        ; ======>>  190.2  <<
   e39b   82            	fcb	$82
   e39c   48            	fcc	"H"	;fcc	1,HI
   e39d   c9            	fcb	$C9
   e39e   e3 92         	fdb	LO-5
   e3a0   d5 64         HI	fdb	DOCON
   e3a2   7b ff         	fdb	MEMTOP	;($7BFF in this version)
                        ;
                        ; ######>> screen 69 <<
                        ; ======>>  191  <<
   e3a4   83            	fcb	$83
   e3a5   52 2f         	fcc	"R/"	;fcc	2,R/W
   e3a7   d7            	fcb	$D7
   e3a8   e3 9b         	fdb	HI-5
   e3aa   d5 2a d3 95   RW	fdb	DOCOL,TOR,BBUF,STAR,LO,PLUS,DUP,HI,GREAT,ZBRAN
   e3ae   d5 ec e0 61   
   e3b2   e3 97 d3 f6   
   e3b6   d4 98 e3 a0   
   e3ba   d7 a4 d0 91   
   e3be   00 0f         	fdb	RW2-*
   e3c0   da 9f         	fdb	PDOTQ
   e3c2   08            	fcb	8
   e3c3   20 52 61 6e   	fcc	" Range ;"	;fcc	8, Range ;?
   e3c7   67 65 20 3b   
   e3cb   df 4f         	fdb	QUIT
   e3cd   d3 ab d0 91   RW2	fdb	FROMR,ZBRAN
   e3d1   00 04         	fdb	RW3-*
   e3d3   d4 7f         	fdb	SWAP
   e3d5   d5 ec d2 73   RW3	fdb	BBUF,CMOVE
   e3d9   d3 6c         	fdb	SEMIS
                        ;
                        ; ######>> screen 72 <<
                        ; ======>>  192  <<
   e3db   c1            	fcb	$C1	;immediate
   e3dc   a7            	fcb	$A7	; ' (tick)
   e3dd   e3 a4         	fdb	RW-6
   e3df   d5 2a dd 3f   TICK	fdb	DOCOL,DFIND,ZEQU,ZERO,QERR,DROP,LITER
   e3e3   d3 cc d5 a7   
   e3e7   d8 a9 d4 71   
   e3eb   de 5a         
   e3ed   d3 6c         	fdb	SEMIS
                        ;
                        ; ======>>  193  <<
   e3ef   86            	fcb	$86
   e3f0   46 4f 52 47   	fcc	"FORGE"	;fcc	5,FORGET
   e3f4   45            
   e3f5   d4            	fcb	$D4
   e3f6   e3 db         	fdb	TICK-4
   e3f8   d5 2a d6 b6   FORGET	fdb	DOCOL,CURENT,AT,CONTXT,AT,SUB,CLITER
   e3fc   d4 d5 d6 a8   
   e400   d4 d5 d7 6e   
   e404   d0 59         
   e406   18            	fcb	$18
   e407   d8 a9 e3 df   	fdb	QERR,TICK,DUP,FENCE,AT,LESS,CLITER
   e40b   d4 98 d6 4e   
   e40f   d4 d5 d7 86   
   e413   d0 59         
   e415   15            	fcb	$15
   e416   d8 a9 d4 98   	fdb	QERR,DUP,ZERO,PORIG,GREAT,CLITER
   e41a   d5 a7 d6 06   
   e41e   d7 a4 d0 59   
   e422   15            	fcb	$15
   e423   d8 a9 d4 98   	fdb	QERR,DUP,NFA,DP,STORE,LFA,AT,CONTXT,AT,STORE
   e427   d8 6d d6 57   
   e42b   d4 f5 d8 50   
   e42f   d4 d5 d6 a8   
   e433   d4 d5 d4 f5   
   e437   d3 6c         	fdb	SEMIS
                        ;
                        ; ######>> screen 73 <<
                        ; ======>>  194  <<
   e439   84            	fcb	$84
   e43a   42 41 43      	fcc	"BAC"	;fcc	3,BACK
   e43d   cb            	fcb	$CB
   e43e   e3 ef         	fdb	FORGET-9
   e440   d5 2a d7 31   BACK	fdb	DOCOL,HERE,SUB,COMMA
   e444   d7 6e d7 4d   
   e448   d3 6c         	fdb	SEMIS
                        ;
                        ; ======>>  195  <<
   e44a   c5            	fcb	$C5
   e44b   42 45 47 49   	fcc	"BEGI"	;fcc	4,BEGIN
   e44f   ce            	fcb	$CE
   e450   e4 39         	fdb	BACK-7
   e452   d5 2a d8 c3   BEGIN	fdb	DOCOL,QCOMP,HERE,ONE
   e456   d7 31 d5 af   
   e45a   d3 6c         	fdb	SEMIS
                        ;
                        ; ======>>  196  <<
   e45c   c5            	fcb	$C5
   e45d   45 4e 44 49   	fcc	"ENDI"	;fcc	4,ENDIF
   e461   c6            	fcb	$C6
   e462   e4 4a         	fdb	BEGIN-8
   e464   d5 2a d8 c3   ENDIF	fdb	DOCOL,QCOMP,TWO,QPAIRS,HERE
   e468   d5 b7 d8 f0   
   e46c   d7 31         
   e46e   d4 60 d7 6e   	fdb	OVER,SUB,SWAP,STORE
   e472   d4 7f d4 f5   
   e476   d3 6c         	fdb	SEMIS
                        ;
                        ; ======>>  197  <<
   e478   c4            	fcb	$C4
   e479   54 48 45      	fcc	"THE"	;fcc	3,THEN
   e47c   ce            	fcb	$CE
   e47d   e4 5c         	fdb	ENDIF-8
   e47f   d5 2a e4 64   THEN	fdb	DOCOL,ENDIF
   e483   d3 6c         	fdb	SEMIS
                        ;
                        ; ======>>  198  <<
   e485   c2            	fcb	$C2
   e486   44            	fcc	"D"	;fcc	1,DO
   e487   cf            	fcb	$CF
   e488   e4 78         	fdb	THEN-7
   e48a   d5 2a d9 37   DO	fdb	DOCOL,COMPIL,XDO,HERE,THREE
   e48e   d1 04 d7 31   
   e492   d5 bf         
   e494   d3 6c         	fdb	SEMIS
                        ;
                        ; ======>>  199  <<
   e496   c4            	fcb	$C4
   e497   4c 4f 4f      	fcc	"LOO"	;fcc	3,LOOP
   e49a   d0            	fcb	$D0
   e49b   e4 85         	fdb	DO-5
   e49d   d5 2a d5 bf   LOOP	fdb	DOCOL,THREE,QPAIRS,COMPIL,XLOOP,BACK
   e4a1   d8 f0 d9 37   
   e4a5   d0 bf e4 40   
   e4a9   d3 6c         	fdb	SEMIS
                        ;
                        ; ======>>  200  <<
   e4ab   c5            	fcb	$C5
   e4ac   2b 4c 4f 4f   	fcc	"+LOO"	;fcc	4,+LOOP
   e4b0   d0            	fcb	$D0
   e4b1   e4 96         	fdb	LOOP-7
   e4b3   d5 2a d5 bf   PLOOP	fdb	DOCOL,THREE,QPAIRS,COMPIL,XPLOOP,BACK
   e4b7   d8 f0 d9 37   
   e4bb   d0 d0 e4 40   
   e4bf   d3 6c         	fdb	SEMIS
                        ;
                        ; ======>>  201  <<
   e4c1   c5            	fcb	$C5
   e4c2   55 4e 54 49   	fcc	"UNTI"	;fcc	4,UNTIL	;(same as END)
   e4c6   cc            	fcb	$CC
   e4c7   e4 ab         	fdb	PLOOP-8
   e4c9   d5 2a d5 af   UNTIL	fdb	DOCOL,ONE,QPAIRS,COMPIL,ZBRAN,BACK
   e4cd   d8 f0 d9 37   
   e4d1   d0 91 e4 40   
   e4d5   d3 6c         	fdb	SEMIS
                        ;
                        ; ######>> screen 74 <<
                        ; ======>>  202  <<
   e4d7   c3            	fcb	$C3
   e4d8   45 4e         	fcc	"EN"	;fcc	2,END
   e4da   c4            	fcb	$C4
   e4db   e4 c1         	fdb	UNTIL-8
   e4dd   d5 2a e4 c9   END	fdb	DOCOL,UNTIL
   e4e1   d3 6c         	fdb	SEMIS
                        ;
                        ; ======>>  203  <<
   e4e3   c5            	fcb	$C5
   e4e4   41 47 41 49   	fcc	"AGAI"	;fcc	4,AGAIN
   e4e8   ce            	fcb	$CE
   e4e9   e4 d7         	fdb	END-6
   e4eb   d5 2a d5 af   AGAIN	fdb	DOCOL,ONE,QPAIRS,COMPIL,BRAN,BACK
   e4ef   d8 f0 d9 37   
   e4f3   d0 85 e4 40   
   e4f7   d3 6c         	fdb	SEMIS
                        ;
                        ; ======>>  204  <<
   e4f9   c6            	fcb	$C6
   e4fa   52 45 50 45   	fcc	"REPEA"	;fcc	5,REPEAT
   e4fe   41            
   e4ff   d4            	fcb	$D4
   e500   e4 e3         	fdb	AGAIN-8
   e502   d5 2a d3 95   REPEAT	fdb	DOCOL,TOR,TOR,AGAIN,FROMR,FROMR
   e506   d3 95 e4 eb   
   e50a   d3 ab d3 ab   
   e50e   d5 b7 d7 6e   	fdb	TWO,SUB,ENDIF
   e512   e4 64         
   e514   d3 6c         	fdb	SEMIS
                        ;
                        ; ======>>  205  <<
   e516   c2            	fcb	$C2
   e517   49            	fcc	"I"	;fcc	1,IF
   e518   c6            	fcb	$C6
   e519   e4 f9         	fdb	REPEAT-9
   e51b   d5 2a d9 37   IF	fdb	DOCOL,COMPIL,ZBRAN,HERE,ZERO,COMMA,TWO
   e51f   d0 91 d7 31   
   e523   d5 a7 d7 4d   
   e527   d5 b7         
   e529   d3 6c         	fdb	SEMIS
                        ;
                        ; ======>>  206  <<
   e52b   c4            	fcb	$C4
   e52c   45 4c 53      	fcc	"ELS"	;fcc	3,ELSE
   e52f   c5            	fcb	$C5
   e530   e5 16         	fdb	IF-5
   e532   d5 2a d5 b7   ELSE	fdb	DOCOL,TWO,QPAIRS,COMPIL,BRAN,HERE
   e536   d8 f0 d9 37   
   e53a   d0 85 d7 31   
   e53e   d5 a7 d7 4d   	fdb	ZERO,COMMA,SWAP,TWO,ENDIF,TWO
   e542   d4 7f d5 b7   
   e546   e4 64 d5 b7   
   e54a   d3 6c         	fdb	SEMIS
                        ;
                        ; ======>>  207  <<
   e54c   c5            	fcb	$C5
   e54d   57 48 49 4c   	fcc	"WHIL"	;fcc	4,WHILE
   e551   c5            	fcb	$C5
   e552   e5 2b         	fdb	ELSE-7
   e554   d5 2a e5 1b   WHILE	fdb	DOCOL,IF,TWOP
   e558   d7 22         
   e55a   d3 6c         	fdb	SEMIS
                        ;
                        ; ######>> screen 75 <<
                        ; ======>>  208  <<
   e55c   86            	fcb	$86
   e55d   53 50 41 43   	fcc	"SPACE"	;fcc	5,SPACES
   e561   45            
   e562   d3            	fcb	$D3
   e563   e5 4c         	fdb	WHILE-8
   e565   d5 2a d5 a7   SPACES	fdb	DOCOL,ZERO,MAX,DDUP,ZBRAN
   e569   d7 ec d8 05   
   e56d   d0 91         
   e56f   00 0c         	fdb	SPACE3-*
   e571   d5 a7 d1 04   	fdb	ZERO,XDO
   e575   d7 c6 d0 bf   SPACE2	fdb	SPACE,XLOOP
   e579   ff fc         	fdb	SPACE2-*
   e57b   d3 6c         SPACE3	fdb	SEMIS
                        ;
                        ; ======>>  209  <<
   e57d   82            	fcb	$82
   e57e   3c            	fcc	"<"	;fcc	1,<#
   e57f   a3            	fcb	$A3
   e580   e5 5c         	fdb	SPACES-9
   e582   d5 2a dc 39   BDIGS	fdb	DOCOL,PAD,HLD,STORE
   e586   d6 fe d4 f5   
   e58a   d3 6c         	fdb	SEMIS
                        ;
                        ; ======>>  210  <<
   e58c   82            	fcb	$82
   e58d   23            	fcc	"#"	;fcc	1,#>
   e58e   be            	fcb	$BE
   e58f   e5 7d         	fdb	BDIGS-5
   e591   d5 2a d4 71   EDIGS	fdb	DOCOL,DROP,DROP,HLD,AT,PAD,OVER,SUB
   e595   d4 71 d6 fe   
   e599   d4 d5 dc 39   
   e59d   d4 60 d7 6e   
   e5a1   d3 6c         	fdb	SEMIS
                        ;
                        ; ======>>  211  <<
   e5a3   84            	fcb	$84
   e5a4   53 49 47      	fcc	"SIG"	;fcc	3,SIGN
   e5a7   ce            	fcb	$CE
   e5a8   e5 8c         	fdb	EDIGS-5
   e5aa   d5 2a d7 b2   SIGN	fdb	DOCOL,ROT,ZLESS,ZBRAN
   e5ae   d3 df d0 91   
   e5b2   00 07          	fdb	SIGN2-*
   e5b4   d0 59          	fdb	CLITER
   e5b6   2d             	fcc	"-"	
   e5b7   dc 21          	fdb	HOLD
   e5b9   d3 6c         SIGN2	fdb	SEMIS
                        ;
                        ; ======>>  212  <<
   e5bb   81            	fcb	$81	; #
   e5bc   a3            	fcb	$A3
   e5bd   e5 a3         	fdb	SIGN-7
   e5bf   d5 2a d6 cd   DIG	fdb	DOCOL,BASE,AT,MSMOD,ROT,CLITER
   e5c3   d4 d5 e0 c5   
   e5c7   d7 b2 d0 59   
   e5cb   09            	fcb	9
   e5cc   d4 60 d7 86   	fdb	OVER,LESS,ZBRAN
   e5d0   d0 91         
   e5d2   00 07         	fdb	DIG2-*
   e5d4   d0 59         	fdb	CLITER
   e5d6   07            	fcb	7
   e5d7   d3 f6         	fdb	PLUS
   e5d9   d0 59         DIG2	fdb	CLITER
   e5db   30            	fcc	"0"	;ascii zero
   e5dc   d3 f6 dc 21   	fdb	PLUS,HOLD
   e5e0   d3 6c         	fdb	SEMIS
                        ;
                        ; ======>>  213  <<
   e5e2   82            	fcb	$82
   e5e3   23            	fcc	"#"	;fcc	1,#S
   e5e4   d3            	fcb	$D3
   e5e5   e5 bb         	fdb	DIG-4
   e5e7   d5 2a         DIGS	fdb	DOCOL
   e5e9   e5 bf d4 60   DIGS2	fdb	DIG,OVER,OVER,ORLAB,ZEQU,ZBRAN
   e5ed   d4 60 d3 18   
   e5f1   d3 cc d0 91   
   e5f5   ff f4         	fdb	DIGS2-*
   e5f7   d3 6c         	fdb	SEMIS
                        ;
                        ; ######>> screen 76 <<
                        ; ======>>  214  <<
   e5f9   82            	fcb	$82
   e5fa   2e            	fcc	"."	;fcc	1,.R
   e5fb   d2            	fcb	$D2
   e5fc   e5 e2         	fdb	DIGS-5
   e5fe   d5 2a d3 95   DOTR	fdb	DOCOL,TOR,STOD,FROMR,DDOTR
   e602   e0 53 d3 ab   
   e606   e6 10         
   e608   d3 6c         	fdb	SEMIS
                        ;
                        ; ======>>  215  <<
   e60a   83            	fcb	$83
   e60b   44 2e         	fcc	"D."	;fcc	2,D.R
   e60d   d2            	fcb	$D2
   e60e   e5 f9         	fdb	DOTR-5
   e610   d5 2a d3 95   DDOTR	fdb	DOCOL,TOR,SWAP,OVER,DABS,BDIGS,DIGS,SIGN
   e614   d4 7f d4 60   
   e618   e0 f6 e5 82   
   e61c   e5 e7 e5 aa   
   e620   e5 91 d3 ab   	fdb	EDIGS,FROMR,OVER,SUB,SPACES,TYPE
   e624   d4 60 d7 6e   
   e628   e5 65 da 39   
   e62c   d3 6c         	fdb	SEMIS
                        ;
                        ; ======>>  216  <<
   e62e   82            	fcb	$82
   e62f   44            	fcc	"D"	;fcc	1,D.
   e630   ae            	fcb	$AE
   e631   e6 0a         	fdb	DDOTR-6
   e633   d5 2a d5 a7   DDOT	fdb	DOCOL,ZERO,DDOTR,SPACE
   e637   e6 10 d7 c6   
   e63b   d3 6c         	fdb	SEMIS
                        ;
                        ; ======>>  217  <<
   e63d   81            	fcb	$81	; .
   e63e   ae            	fcb	$AE
   e63f   e6 2e         	fdb	DDOT-5
   e641   d5 2a e0 53   DOT	fdb	DOCOL,STOD,DDOT
   e645   e6 33         
   e647   d3 6c         	fdb	SEMIS
                        ;
                        ; ======>>  218  <<
   e649   81            	fcb	$81	; ?
   e64a   bf            	fcb	$BF
   e64b   e6 3d         	fdb	DOT-4
   e64d   d5 2a d4 d5   QUEST	fdb	DOCOL,AT,DOT
   e651   e6 41         
   e653   d3 6c         	fdb	SEMIS
                        ;
                        ; ######>> screen 77 <<
                        ; ======>>  219  <<
   e655   84            	fcb	$84
   e656   4c 49 53      	fcc	"LIS"	;fcc	3,LIST
   e659   d4            	fcb	$D4
   e65a   e6 49         	fdb	QUEST-4
   e65c   d5 2a d9 95   LIST	fdb	DOCOL,DEC,CR,DUP,SCR,STORE,PDOTQ
   e660   d2 63 d4 98   
   e664   d6 8d d4 f5   
   e668   da 9f         
   e66a   06            	fcb	6
   e66b   53 43 52 20   	fcc	"SCR # "
   e66f   23 20         
   e671   e6 41 d0 59   	fdb	DOT,CLITER
   e675   10            	fcb	$10
   e676   d5 a7 d1 04   	fdb	ZERO,XDO
   e67a   d2 63 d1 21   LIST2	fdb	CR,I,THREE
   e67e   d5 bf         
   e680   e5 fe d7 c6   	fdb	DOTR,SPACE,I,SCR,AT,DLINE,XLOOP
   e684   d1 21 d6 8d   
   e688   d4 d5 e2 74   
   e68c   d0 bf         
   e68e   ff ec         	fdb	LIST2-*
   e690   d2 63         	fdb	CR
   e692   d3 6c         	fdb	SEMIS
                        ;
                        ; ======>>  220  <<
   e694   85            	fcb	$85
   e695   49 4e 44 45   	fcc	"INDE"	;fcc	4,INDEX
   e699   d8            	fcb	$D8
   e69a   e6 55         	fdb	LIST-7
   e69c   d5 2a d2 63   INDEX	fdb	DOCOL,CR,ONEP,SWAP,XDO
   e6a0   d7 15 d4 7f   
   e6a4   d1 04         
   e6a6   d2 63 d1 21   INDEX2	fdb	CR,I,THREE
   e6aa   d5 bf         
   e6ac   e5 fe d7 c6   	fdb	DOTR,SPACE,ZERO,I,DLINE
   e6b0   d5 a7 d1 21   
   e6b4   e2 74         
   e6b6   d2 55 d0 91   	fdb	QTERM,ZBRAN
   e6ba   00 04         	fdb	INDEX3-*
   e6bc   d3 81         	fdb	LEAVE
   e6be   d0 bf         INDEX3	fdb	XLOOP
   e6c0   ff e6         	fdb	INDEX2-*
   e6c2   d3 6c         	fdb	SEMIS
                        ;
                        ; ======>>  221  <<
   e6c4   85            	fcb	$85
   e6c5   54 52 49 41   	fcc	"TRIA"	;fcc	4,TRIAD
   e6c9   c4            	fcb	$C4
   e6ca   e6 94         	fdb	INDEX-8
   e6cc   d5 2a d5 bf   TRIAD	fdb	DOCOL,THREE,SLASH,THREE,STAR
   e6d0   e0 82 d5 bf   
   e6d4   e0 61         
   e6d6   d5 bf d4 60   	fdb	THREE,OVER,PLUS,SWAP,XDO
   e6da   d3 f6 d4 7f   
   e6de   d1 04         
   e6e0   d2 63 d1 21   TRIAD2	fdb	CR,I
   e6e4   e6 5c d2 55   	fdb	LIST,QTERM,ZBRAN
   e6e8   d0 91         
   e6ea   00 04         	fdb	TRIAD3-*
   e6ec   d3 81         	fdb	LEAVE
   e6ee   d0 bf         TRIAD3	fdb	XLOOP
   e6f0   ff f0         	fdb	TRIAD2-*
   e6f2   d2 63 d0 59   	fdb	CR,CLITER
   e6f6   0f            	fcb	$0F
   e6f7   e2 88 d2 63   	fdb	MESS,CR
   e6fb   d3 6c         	fdb	SEMIS
                        ;
                        ; ######>> screen 78 <<
                        ; ======>>  222  <<
   e6fd   85            	fcb	$85
   e6fe   56 4c 49 53   	fcc	"VLIS"	;fcc	4,VLIST
   e702   d4            	fcb	$D4
   e703   e6 c4         	fdb	TRIAD-8
   e705   d5 2a d0 59   VLIST	fdb	DOCOL,CLITER
   e709   80            	fcb	$80
   e70a   d6 83 d4 f5   	fdb	OUT,STORE,CONTXT,AT,AT
   e70e   d6 a8 d4 d5   
   e712   d4 d5         
   e714   d6 83 d4 d5   VLIST1	fdb	OUT,AT,COLUMS,AT,CLITER
   e718   d7 0c d4 d5   
   e71c   d0 59         
   e71e   20            	fcb	32
   e71f   d7 6e d7 a4   	fdb	SUB,GREAT,ZBRAN
   e723   d0 91         
   e725   00 0a         	fdb	VLIST2-*
   e727   d2 63 d5 a7   	fdb	CR,ZERO,OUT,STORE
   e72b   d6 83 d4 f5   
   e72f   d4 98 dd aa   VLIST2	fdb	DUP,IDDOT,SPACE,SPACE,PFA,LFA,AT
   e733   d7 c6 d7 c6   
   e737   d8 82 d8 50   
   e73b   d4 d5         
   e73d   d4 98 d3 cc   	fdb	DUP,ZEQU,QTERM,ORLAB,ZBRAN
   e741   d2 55 d3 18   
   e745   d0 91         
   e747   ff cd         	fdb	VLIST1-*
   e749   d4 71         	fdb	DROP
   e74b   d3 6c         	fdb	SEMIS
                        ;
                        ; ======>>  XX  <<
   e74d   84            	fcb	$84
   e74e   4e 4f 4f      	fcc	"NOO"	;fcc	3,NOOP
   e751   d0            	fcb	$D0
   e752   e6 fd         	fdb	VLIST-8
   e754   d0 34         NOOP	fdb	NEXT	;a useful no-op
   e756   00 00 00 00   ZZZZ	fdb	0,0,0,0,0,0,0,0	;end of rom program
   e75a   00 00 00 00   
   e75e   00 00 00 00   
   e762   00 00 00 00   
                        ;
                        ;
                        		; FDB IO
                        		; FDB SWI
                        		; FDB POWDWN
                        ;		ORG $0FFE
                        ; ENDPAD	rmb	$4000-ZZZZ-$12
                        ;ENDPAD 	rmb $1898		; PAD out to end of ROM
                        		; FDB ORIG
                        
                        ; 
                        ;   STARTUP VECTORS $FFF8 -$FFFF
                        ;
   fff8                 		ORG $FFF8
                        ;
   fff8   c0 55         		FDB IO
   fffa   c0 5f         		FDB SWI
   fffc   c0 5a         		FDB POWDWN
   fffe   c0 00         		FDB START
                        
   0000                 .
   0000                             END
SMITHBUG-FORTH-M6802 OPERATING SYSTEM

0000  .             df7d  ABORT         e0e1  ABS           e0ed  ABS2      
8000  ACIACS        8001  ACIADA        7f0c  ACIAT         c791  ADASC     
c266  ADDR          7f71  ADDRESS       7f72  ADDRESS1      e4eb  AGAIN     
d741  ALLOT         d307  ANDLAB        c77a  AREG          e2f1  ARROW     
c229  ASC01         c22a  ASC02         c226  ASCII         d4d5  AT        
e440  BACK          d00e  BACKSP        c24b  BAD2          c06a  BADDR     
d6cd  BASE          d5ec  BBUF          e582  BDIGS         7f04  BEGA      
e452  BEGIN         7f4f  BFLAG         7f52  BITE2         7f53  BITE3     
7f16  BKFLG         7f6d  BKFLG2        c104  BKPNT         c0f3  BKPNT2    
d5c8  BL            c764  BLANK         dc12  BLANKS        d670  BLK       
e1ef  BLOCK         e20d  BLOCK3        e227  BLOCK4        e23f  BLOCK5    
c27f  BMC1          7f6a  BPOINT        d085  BRAN          e38d  BREAD     
c776  BREG          00ec  BRKPT         d5f8  BSCR          e1a7  BUFFER    
e1b1  BUFFR2        e1d7  BUFFR3        7f00  BUFF_SM       d9dc  BUILDS    
e37b  BWRITE        c3ca  BYT1          c3a8  BYT2          c3ab  BYT21     
c3c7  BYT22         c38d  BYT3          c39a  BYT31         c078  BYTE      
7f67  BYTECT        7f73  BYTESTORE     de3e  BcomP         c068  C1        
c1cd  C2            d4e4  CAT           d75e  CCOMM         dfa3  CENT      
d85f  CFA           c0a3  CHA51         c0a1  CHANGE        c0c0  CHM1      
c446  CKCBA         c501  CKROM         c301  CLEAR         d059  CLITER    
d27a  CMOV1         d281  CMOV2         d29f  CMOV3         d273  CMOVE     
dfa1  COLD          dfa9  COLD2         d022  COLINT        d516  COLON     
d70c  COLUMS        d74d  COMMA         c761  COMMX         d937  COMPIL    
d55a  CON           c118  CONTG         c01f  CONTRL        d6a8  CONTXT    
c89b  CONVHEX       da26  COUNT         d263  CR            c1ed  CR8       
c296  CR9           ddfe  CREAT2        ddde  CREATE        c2c9  CRLF      
c78d  CRLFAS        c787  CSET          d6eb  CSP           d504  CSTORE    
d6b6  CURENT        e0f6  DABS          e102  DABS2         e633  DDOT      
e610  DDOTR         d805  DDUP          d80f  DDUP2         d995  DEC       
df2f  DEFIN         d024  DELINT        dd3f  DFIND         dd5f  DFIND2    
e5bf  DIG           e5d9  DIG2          d132  DIGIT         d149  DIGIT0    
d151  DIGIT1        d156  DIGIT2        e5e7  DIGS          e5e9  DIGS2     
c2f4  DISIN         c14e  DISPLY        c2f1  DISS          c2cf  DISSA     
e274  DLINE         de87  DLITE2        de77  DLITER        d43f  DMINUS    
d456  DMINX         e48a  DO            d52a  DOCOL         d564  DOCON     
d9fa  DODOES        d9ec  DOES          e641  DOT           c482  DOT1      
daba  DOTQ          dad9  DOTQ1         dae1  DOTQ2         e5fe  DOTR      
c47a  DOT_SM        d596  DOUSER        d57e  DOVAR         df19  DOVOC     
d657  DP            d01e  DPINIT        d6d7  DPL           d407  DPLUS     
d40d  DPLUS2        c3dc  DPOS          e192  DRONE         d471  DROP      
e182  DRZERO        c160  DSOOP         c167  DSOOP1        da6c  DTRAIL    
da74  DTRAL2        da8e  DTRAL3        da92  DTRAL4        d498  DUP       
7f0d  ECHO          c1d4  ECHOFF        c1d2  ECHON         e591  EDIGS     
e532  ELSE          d226  EMIT          d1e7  ENCL2         d1f4  ENCL3     
d1f9  ENCL4         d206  ENCL5         d20f  ENCL6         d216  ENCL7     
d21a  ENCL8         d1dd  ENCLOS        e4dd  END           7f06  ENDA      
c250  ENDADD        e464  ENDIF         d77a  EQUAL         e042  ERAM      
dc01  ERASE         dd79  ERROR         dd87  ERROR2        d071  EXEC      
c4ed  EXEC_SM       db29  EXPEC2        db57  EXPEC3        db6e  EXPEC4    
db70  EXPEC5        db7c  EXPEC6        db1f  EXPECT        c4e2  EXR       
d64e  FENCE         d01c  FENCIN        dbe1  FILL          c299  FIND      
d5d4  FIRST         d6e1  FLD           e3f8  FORGET        0150  FORTH     
d1b7  FOUND         c79b  FROMAD        d3ab  FROMR         c7c5  FUTABL    
c87b  GETADD        c8b5  GETCHAR       c853  GETCOUNT      c889  GETHEX    
d02e  GETX          c837  GOAGAIN       c217  GOFORTH       c051  GOODCH    
d7a4  GREAT         d731  HERE          d980  HEX           e3a0  HI        
d6fe  HLD           dc21  HOLD          d121  I             ddaa  IDDOT     
e51b  IF            c239  IFILL         c249  IFILL1        c241  IFILL2    
c521  IMLR1         c591  IMLR10        c59c  IMLR11        c5aa  IMLR12    
c5b2  IMLR13        c537  IMLR2         c53c  IMLR3         c541  IMLR4     
c544  IMLR5         c547  IMLR6         c54f  IMLR7         c552  IMLR8     
c56f  IMLR9         c34f  IMM           dee1  IMMED         d679  IN        
c1f5  IN1           c0e1  IN1HG         c094  INCH          c86a  INCOUNT   
c8b1  INCSTACK      e69c  INDEX         e6a6  INDEX2        e6be  INDEX3    
c1f3  INEEE         c0cd  INHEX         de97  INTER2        deaf  INTER3    
deb3  INTER4        deb7  INTER5        decb  INTER6        decf  INTER7    
de95  INTERP        c055  IO            0136  IOSTAT        7f02  IOV       
00f2  IP            c4b5  ISJ           c357  ISX           c4bd  ISXD      
c21c  JUMP          d23e  KEY           c2e6  KONTIN        d840  LATEST    
d94d  LBRAK         d381  LEAVE         d786  LESS          d796  LESSF     
d799  LESST         d79b  LESSX         d850  LFA           d5e0  LIMIT     
c259  LIMITS        e65c  LIST          e67a  LIST2         d049  LIT       
de5a  LITER         de6a  LITER2        e397  LO            e2bf  LOAD      
c064  LOAD19        e49d  LOOP          d7ec  MAX           d7fa  MAX2      
c770  MCL           7f6e  MCONT         3210  MEMEND        7bff  MEMTOP    
e288  MESS          e2ab  MESS3         e2b6  MESS4         7f50  MFLAG     
d7d4  MIN           d7e2  MIN2          d426  MINUS         d431  MINUS2    
d433  MINUS3        e092  MODLAB        c274  MOVE          e0c5  MSMOD     
e16e  MTBUF         00e0  N             0004  NBLK          d034  NEXT      
d03a  NEXT2         d03c  NEXT3         c339  NEXT_SM       d86d  NFA       
7f08  NIO           c4fe  NONO          e754  NOOP          c43b  NOT1      
c383  NOTB          c3ee  NOTBB         c4d1  NOTJ          c4d8  NOTJ1     
c4e5  NOTRTI        c4dc  NOTRTS        dba6  NULL          dbd0  NULL1     
dbd4  NULL2         dbd8  NULL3         dce9  NUMB          dd06  NUMB1     
dd2b  NUMB2         dd35  NUMB3         c042  NXTCHR        d69a  OFSET     
c32d  OKOP          d5af  ONE           d715  ONEP          7f63  OPSAVE    
d000  ORIG          d318  ORLAB         d683  OUT           c0e2  OUT2H     
c0ed  OUT2HS        c0eb  OUT4HS        c5e1  OUTA          c091  OUTCH     
c20a  OUTEEE        c20b  OUTEEE1       c083  OUTHL         c087  OUTHR     
c8c3  OUTPUTA       c0ef  OUTS          c8d0  OUTSTR        c11c  OUTXHI    
d460  OVER          00e4  PA            00e2  PA0           dd6b  PABORT    
dc39  PAD           df3f  PAREN         c40c  PAVOI2        c410  PAVOI3    
c428  PAVOI4        c432  PAVOI5        c420  PAVOI8        c434  PAVOI9    
7f64  PB1           7f65  PB2           7f66  PB3           e120  PBUF      
e135  PBUF2         00e6  PC            7f68  PC1           7f69  PC2       
e349  PCR           e357  PCR2          c783  PCTR          00e0  PD        
c1cf  PDAT          c09a  PDATA1        c097  PDATA2        da9f  PDOTQ     
e30d  PEMIT         e30f  PEM_LP        d882  PFA           d167  PFIND     
d170  PFIND0        d179  PFIND1        d18c  PFIND2        d1a2  PFIND3    
d1ae  PFIND4        d1ab  PFIND8        d1b0  PFIND9        e324  PKEY      
e326  PKEY_LP       e250  PLINE         e4b3  PLOOP         d3f6  PLUS      
c5b5  PNT3C         c768  PNTA          c76c  PNTB          c2c0  PNTBYT    
c1aa  PNTS          dc9e  PNUMB         dca0  PNUMB2        dcd6  PNUMB3    
dcdc  PNUMB4        d606  PORIG         c05a  POWDWN        e33c  PQTER     
e348  PQTER2        e115  PREV          c151  PRINT         7f4c  PRINTR    
c1d9  PRINTS        c1d3  PRNTON        c1ea  PRTS          d9aa  PSCODE    
d4a6  PSTORE        d026  PULABX        d032  PUSHBA        c363  PUT       
c366  PUT1          d8c3  QCOMP         d902  QCSP          e368  QDISC     
d8a9  QERR          d8b7  QERR2         d8b9  QERR3         d8da  QEXEC     
d91e  QLOAD         d8f0  QPAIRS        db01  QSTAC2        db14  QSTAC3    
daec  QSTACK        d255  QTERM         db8e  QUERY         e64d  QUEST     
c86f  QUESTION      df4f  QUIT          df59  QUIT2         df71  QUIT3     
d3be  R             dfff  RAM           d95b  RBRAK         c46a  RDC       
c464  RDX           c874  RECOVER       0183  REND          e502  REPEAT    
c477  RETNOT        c2e9  RETURN        c8b0  RETURN2       e00f  RFORTH    
d014  RINIT         d6f4  RNUM          d7b2  ROT           00f4  RP        
d35d  RPSTOR        e03e  RTASK         e3aa  RW            e3cd  RW2       
e3d5  RW3           d61e  RZERO         c863  S1EXIT        c804  S1STRING  
c1ef  SAV           d68d  SCR           d896  SCSP          d541  SEMI      
d9c2  SEMIC         d36c  SEMIS         c125  SFE           e5aa  SIGN      
e5b9  SIGN2         d012  SINIT         c2b7  SKIP          e082  SLASH     
e072  SLMOD         c833  SLOAD         c2a2  SMC1          c2b0  SMC2      
d96f  SMUDGE        7f0a  SP            d7c6  SPACE         e575  SPACE2    
e57b  SPACE3        e565  SPACES        d33c  SPAT          c75e  SPLBD0    
d34d  SPSTOR        c780  SREG          e0b3  SSLASH        e0a2  SSMOD     
d028  STABX         7f44  STACK         e061  STAR          c000  START     
d6c2  STATE         c8db  STEXIT        e053  STOD          d4f5  STORE     
d76e  SUB           d47f  SWAP          c05f  SWI           7f17  SWIPTR    
d615  SZERO         017f  TASK          c638  TBL           c804  TBLEND    
c51d  TBLKUP        7f10  TEMP          7f74  TEMPA         7f6f  TEMPX1    
7f13  TFLAG         e47f  THEN          d5bf  THREE         c7a8  THRUAD    
d628  TIB           e3df  TICK          c7b5  TOADD         d4c3  TOGGLE    
d395  TOR           c2d4  TRACE         00eb  TRACEM        d81c  TRAV      
d820  TRAV2         e6cc  TRIAD         e6e0  TRIAD2        e6ee  TRIAD3    
00ea  TRLIM         7f62  TSTACK        c494  TSTB          c4a5  TSTJ      
7f11  TW            d5b7  TWO           d722  TWOP          da39  TYPE      
da49  TYPE2         da5c  TYPE3         da5e  TYPE4         e4c9  UNTIL     
0100  UORIG         00f6  UP            e148  UPDATE        d010  UPINIT    
e10a  USE           d590  USER          d2d9  USL1          d2e3  USL2      
d2e6  USL3          d2eb  USL4          d2f9  USL5          d2cf  USLASH    
d2a7  USTAR         d2b6  USTAR2        d2c4  USTAR3        d2c8  USTAR4    
d2b0  USTARS        c7be  VALASC        c26b  VALUE         d578  VAR       
7f00  VAR_SM        c5e7  VCOM1         c601  VCOM10        c610  VCOM2     
c61a  VCOM3         c61c  VCOM4         c5ec  VCOM5         c5f4  VCOM9     
00ee  VECT          c5e4  VIEW          e705  VLIST         e714  VLIST1    
e72f  VLIST2        def9  VOCAB         d020  VOCINT        d666  VOCLIN    
00f0  W             c8b6  WAITIN        c8c4  WAITOUT       dfd9  WARM2     
d642  WARN          dfd3  WENT          e554  WHILE         d634  WIDTH     
dc4e  WORD          dc62  WORD2         dc66  WORD3         0126  XBASE     
c0cb  XBK           0116  XBLK          0134  XCOLUM        0120  XCONT     
012c  XCSP          0122  XCURR         0132  XDELAY        d104  XDO       
0112  XDP           0128  XDPL          0110  XFENCE        7f51  XFLAG     
012a  XFLD          7f0e  XHI           0130  XHLD          0118  XIN       
d0bf  XLOOP         7f0f  XLOW          011e  XOFSET        d32a  XORLAB    
011a  XOUT          d0ed  XPLOF         d0f5  XPLONO        d0d0  XPLOOP    
d0d4  XPLOP2        d0e2  XPLOPS        0142  XPREV         c77d  XREG      
012e  XRNUM         0108  XRZERO        011c  XSCR          0106  XSPZER    
0124  XSTATE        7f14  XTEMP         010a  XTIB          0140  XUSE      
0114  XVOCL         010e  XWARN         010c  XWIDTH        d0ac  ZBNO      
d091  ZBRAN         d09a  ZBYES         d3cc  ZEQU          d3d6  ZEQU2     
d5a7  ZERO          d3df  ZLESS         d3ee  ZLESS2        e756  ZZZZ      
