ARM GAS  C:\Users\HPz420\AppData\Local\Temp\cc4uXrPo.s 			page 1


   1              		.syntax unified
   2              		.cpu cortex-m3
   3              		.fpu softvfp
   4              		.eabi_attribute 20, 1
   5              		.eabi_attribute 21, 1
   6              		.eabi_attribute 23, 3
   7              		.eabi_attribute 24, 1
   8              		.eabi_attribute 25, 1
   9              		.eabi_attribute 26, 1
  10              		.eabi_attribute 30, 1
  11              		.eabi_attribute 34, 1
  12              		.eabi_attribute 18, 4
  13              		.thumb
  14              		.syntax unified
  15              		.file	"I2C_1_MASTER.c"
  16              		.text
  17              	.Ltext0:
  18              		.cfi_sections	.debug_frame
  19              		.section	.text.I2C_1_MasterWriteBuf,"ax",%progbits
  20              		.align	2
  21              		.global	I2C_1_MasterWriteBuf
  22              		.thumb
  23              		.thumb_func
  24              		.type	I2C_1_MasterWriteBuf, %function
  25              	I2C_1_MasterWriteBuf:
  26              	.LFB0:
  27              		.file 1 "Generated_Source\\PSoC5\\I2C_1_MASTER.c"
   1:Generated_Source\PSoC5/I2C_1_MASTER.c **** /*******************************************************************************
   2:Generated_Source\PSoC5/I2C_1_MASTER.c **** * File Name: I2C_1_MASTER.c
   3:Generated_Source\PSoC5/I2C_1_MASTER.c **** * Version 3.50
   4:Generated_Source\PSoC5/I2C_1_MASTER.c **** *
   5:Generated_Source\PSoC5/I2C_1_MASTER.c **** * Description:
   6:Generated_Source\PSoC5/I2C_1_MASTER.c **** *  This file provides the source code of APIs for the I2C component master mode.
   7:Generated_Source\PSoC5/I2C_1_MASTER.c **** *
   8:Generated_Source\PSoC5/I2C_1_MASTER.c **** *******************************************************************************
   9:Generated_Source\PSoC5/I2C_1_MASTER.c **** * Copyright 2012-2015, Cypress Semiconductor Corporation. All rights reserved.
  10:Generated_Source\PSoC5/I2C_1_MASTER.c **** * You may use this file only in accordance with the license, terms, conditions,
  11:Generated_Source\PSoC5/I2C_1_MASTER.c **** * disclaimers, and limitations in the end user license agreement accompanying
  12:Generated_Source\PSoC5/I2C_1_MASTER.c **** * the software package with which this file was provided.
  13:Generated_Source\PSoC5/I2C_1_MASTER.c **** *******************************************************************************/
  14:Generated_Source\PSoC5/I2C_1_MASTER.c **** 
  15:Generated_Source\PSoC5/I2C_1_MASTER.c **** #include "I2C_1_PVT.h"
  16:Generated_Source\PSoC5/I2C_1_MASTER.c **** 
  17:Generated_Source\PSoC5/I2C_1_MASTER.c **** #if(I2C_1_MODE_MASTER_ENABLED)
  18:Generated_Source\PSoC5/I2C_1_MASTER.c **** 
  19:Generated_Source\PSoC5/I2C_1_MASTER.c **** /**********************************
  20:Generated_Source\PSoC5/I2C_1_MASTER.c **** *      System variables
  21:Generated_Source\PSoC5/I2C_1_MASTER.c **** **********************************/
  22:Generated_Source\PSoC5/I2C_1_MASTER.c **** 
  23:Generated_Source\PSoC5/I2C_1_MASTER.c **** volatile uint8 I2C_1_mstrStatus;     /* Master Status byte  */
  24:Generated_Source\PSoC5/I2C_1_MASTER.c **** volatile uint8 I2C_1_mstrControl;    /* Master Control byte */
  25:Generated_Source\PSoC5/I2C_1_MASTER.c **** 
  26:Generated_Source\PSoC5/I2C_1_MASTER.c **** /* Transmit buffer variables */
  27:Generated_Source\PSoC5/I2C_1_MASTER.c **** volatile uint8 * I2C_1_mstrRdBufPtr;     /* Pointer to Master Read buffer */
  28:Generated_Source\PSoC5/I2C_1_MASTER.c **** volatile uint8   I2C_1_mstrRdBufSize;    /* Master Read buffer size       */
  29:Generated_Source\PSoC5/I2C_1_MASTER.c **** volatile uint8   I2C_1_mstrRdBufIndex;   /* Master Read buffer Index      */
  30:Generated_Source\PSoC5/I2C_1_MASTER.c **** 
ARM GAS  C:\Users\HPz420\AppData\Local\Temp\cc4uXrPo.s 			page 2


  31:Generated_Source\PSoC5/I2C_1_MASTER.c **** /* Receive buffer variables */
  32:Generated_Source\PSoC5/I2C_1_MASTER.c **** volatile uint8 * I2C_1_mstrWrBufPtr;     /* Pointer to Master Write buffer */
  33:Generated_Source\PSoC5/I2C_1_MASTER.c **** volatile uint8   I2C_1_mstrWrBufSize;    /* Master Write buffer size       */
  34:Generated_Source\PSoC5/I2C_1_MASTER.c **** volatile uint8   I2C_1_mstrWrBufIndex;   /* Master Write buffer Index      */
  35:Generated_Source\PSoC5/I2C_1_MASTER.c **** 
  36:Generated_Source\PSoC5/I2C_1_MASTER.c **** 
  37:Generated_Source\PSoC5/I2C_1_MASTER.c **** /*******************************************************************************
  38:Generated_Source\PSoC5/I2C_1_MASTER.c **** * Function Name: I2C_1_MasterWriteBuf
  39:Generated_Source\PSoC5/I2C_1_MASTER.c **** ********************************************************************************
  40:Generated_Source\PSoC5/I2C_1_MASTER.c **** *
  41:Generated_Source\PSoC5/I2C_1_MASTER.c **** * Summary:
  42:Generated_Source\PSoC5/I2C_1_MASTER.c **** *  Automatically writes an entire buffer of data to a slave device. Once the
  43:Generated_Source\PSoC5/I2C_1_MASTER.c **** *  data transfer is initiated by this function, further data transfer is handled
  44:Generated_Source\PSoC5/I2C_1_MASTER.c **** *  by the included ISR in byte by byte mode.
  45:Generated_Source\PSoC5/I2C_1_MASTER.c **** *
  46:Generated_Source\PSoC5/I2C_1_MASTER.c **** * Parameters:
  47:Generated_Source\PSoC5/I2C_1_MASTER.c **** *  slaveAddr: 7-bit slave address.
  48:Generated_Source\PSoC5/I2C_1_MASTER.c **** *  xferData:  Pointer to buffer of data to be sent.
  49:Generated_Source\PSoC5/I2C_1_MASTER.c **** *  cnt:       Size of buffer to send.
  50:Generated_Source\PSoC5/I2C_1_MASTER.c **** *  mode:      Transfer mode defines: start or restart condition generation at
  51:Generated_Source\PSoC5/I2C_1_MASTER.c **** *             begin of the transfer and complete the transfer or halt before
  52:Generated_Source\PSoC5/I2C_1_MASTER.c **** *             generating a stop.
  53:Generated_Source\PSoC5/I2C_1_MASTER.c **** *
  54:Generated_Source\PSoC5/I2C_1_MASTER.c **** * Return:
  55:Generated_Source\PSoC5/I2C_1_MASTER.c **** *  Status error - Zero means no errors.
  56:Generated_Source\PSoC5/I2C_1_MASTER.c **** *
  57:Generated_Source\PSoC5/I2C_1_MASTER.c **** * Side Effects:
  58:Generated_Source\PSoC5/I2C_1_MASTER.c **** *  The included ISR will start a transfer after a start or restart condition is
  59:Generated_Source\PSoC5/I2C_1_MASTER.c **** *  generated.
  60:Generated_Source\PSoC5/I2C_1_MASTER.c **** *
  61:Generated_Source\PSoC5/I2C_1_MASTER.c **** * Global variables:
  62:Generated_Source\PSoC5/I2C_1_MASTER.c **** *  I2C_1_mstrStatus  - The global variable used to store a current
  63:Generated_Source\PSoC5/I2C_1_MASTER.c **** *                                 status of the I2C Master.
  64:Generated_Source\PSoC5/I2C_1_MASTER.c **** *  I2C_1_state       - The global variable used to store a current
  65:Generated_Source\PSoC5/I2C_1_MASTER.c **** *                                 state of the software FSM.
  66:Generated_Source\PSoC5/I2C_1_MASTER.c **** *  I2C_1_mstrControl - The global variable used to control the master
  67:Generated_Source\PSoC5/I2C_1_MASTER.c **** *                                 end of a transaction with or without Stop
  68:Generated_Source\PSoC5/I2C_1_MASTER.c **** *                                 generation.
  69:Generated_Source\PSoC5/I2C_1_MASTER.c **** *  I2C_1_mstrWrBufPtr - The global variable used to store a pointer
  70:Generated_Source\PSoC5/I2C_1_MASTER.c **** *                                  to the master write buffer.
  71:Generated_Source\PSoC5/I2C_1_MASTER.c **** *  I2C_1_mstrWrBufIndex - The global variable used to store current
  72:Generated_Source\PSoC5/I2C_1_MASTER.c **** *                                    index within the master write buffer.
  73:Generated_Source\PSoC5/I2C_1_MASTER.c **** *  I2C_1_mstrWrBufSize - The global variable used to store a master
  74:Generated_Source\PSoC5/I2C_1_MASTER.c **** *                                   write buffer size.
  75:Generated_Source\PSoC5/I2C_1_MASTER.c **** *
  76:Generated_Source\PSoC5/I2C_1_MASTER.c **** * Reentrant:
  77:Generated_Source\PSoC5/I2C_1_MASTER.c **** *  No
  78:Generated_Source\PSoC5/I2C_1_MASTER.c **** *
  79:Generated_Source\PSoC5/I2C_1_MASTER.c **** *******************************************************************************/
  80:Generated_Source\PSoC5/I2C_1_MASTER.c **** uint8 I2C_1_MasterWriteBuf(uint8 slaveAddress, uint8 * wrData, uint8 cnt, uint8 mode)
  81:Generated_Source\PSoC5/I2C_1_MASTER.c ****       
  82:Generated_Source\PSoC5/I2C_1_MASTER.c **** {
  28              		.loc 1 82 0
  29              		.cfi_startproc
  30              		@ args = 0, pretend = 0, frame = 0
  31              		@ frame_needed = 0, uses_anonymous_args = 0
  32              		@ link register save eliminated.
ARM GAS  C:\Users\HPz420\AppData\Local\Temp\cc4uXrPo.s 			page 3


  33              	.LVL0:
  83:Generated_Source\PSoC5/I2C_1_MASTER.c ****     uint8 errStatus;
  84:Generated_Source\PSoC5/I2C_1_MASTER.c **** 
  85:Generated_Source\PSoC5/I2C_1_MASTER.c ****     errStatus = I2C_1_MSTR_NOT_READY;
  86:Generated_Source\PSoC5/I2C_1_MASTER.c **** 
  87:Generated_Source\PSoC5/I2C_1_MASTER.c ****     if(NULL != wrData)
  34              		.loc 1 87 0
  35 0000 0029     		cmp	r1, #0
  36 0002 51D0     		beq	.L7
  82:Generated_Source\PSoC5/I2C_1_MASTER.c ****     uint8 errStatus;
  37              		.loc 1 82 0
  38 0004 70B4     		push	{r4, r5, r6}
  39              		.cfi_def_cfa_offset 12
  40              		.cfi_offset 4, -12
  41              		.cfi_offset 5, -8
  42              		.cfi_offset 6, -4
  43 0006 0C46     		mov	r4, r1
  88:Generated_Source\PSoC5/I2C_1_MASTER.c ****     {
  89:Generated_Source\PSoC5/I2C_1_MASTER.c ****         /* Check I2C state to allow transfer: valid states are IDLE or HALT */
  90:Generated_Source\PSoC5/I2C_1_MASTER.c ****         if(I2C_1_SM_IDLE == I2C_1_state)
  44              		.loc 1 90 0
  45 0008 2A49     		ldr	r1, .L12
  46              	.LVL1:
  47 000a 0978     		ldrb	r1, [r1]	@ zero_extendqisi2
  48 000c C9B2     		uxtb	r1, r1
  49 000e 1029     		cmp	r1, #16
  50 0010 06D1     		bne	.L3
  91:Generated_Source\PSoC5/I2C_1_MASTER.c ****         {
  92:Generated_Source\PSoC5/I2C_1_MASTER.c ****             /* Master is ready for transaction: check if bus is free */
  93:Generated_Source\PSoC5/I2C_1_MASTER.c ****             if(I2C_1_CHECK_BUS_FREE(I2C_1_MCSR_REG))
  51              		.loc 1 93 0
  52 0012 2949     		ldr	r1, .L12+4
  53 0014 0978     		ldrb	r1, [r1]	@ zero_extendqisi2
  54 0016 11F0100F 		tst	r1, #16
  55 001a 10D1     		bne	.L8
  94:Generated_Source\PSoC5/I2C_1_MASTER.c ****             {
  95:Generated_Source\PSoC5/I2C_1_MASTER.c ****                 errStatus = I2C_1_MSTR_NO_ERROR;
  56              		.loc 1 95 0
  57 001c 0021     		movs	r1, #0
  58 001e 11E0     		b	.L4
  59              	.L3:
  96:Generated_Source\PSoC5/I2C_1_MASTER.c ****             }
  97:Generated_Source\PSoC5/I2C_1_MASTER.c ****             else
  98:Generated_Source\PSoC5/I2C_1_MASTER.c ****             {
  99:Generated_Source\PSoC5/I2C_1_MASTER.c ****                 errStatus = I2C_1_MSTR_BUS_BUSY;
 100:Generated_Source\PSoC5/I2C_1_MASTER.c ****             }
 101:Generated_Source\PSoC5/I2C_1_MASTER.c ****         }
 102:Generated_Source\PSoC5/I2C_1_MASTER.c ****         else if(I2C_1_SM_MSTR_HALT == I2C_1_state)
  60              		.loc 1 102 0
  61 0020 2449     		ldr	r1, .L12
  62 0022 0978     		ldrb	r1, [r1]	@ zero_extendqisi2
  63 0024 C9B2     		uxtb	r1, r1
  64 0026 6029     		cmp	r1, #96
  65 0028 0BD1     		bne	.L9
  66              	.LVL2:
 103:Generated_Source\PSoC5/I2C_1_MASTER.c ****         {
 104:Generated_Source\PSoC5/I2C_1_MASTER.c ****             /* Master is ready and waiting for ReStart */
ARM GAS  C:\Users\HPz420\AppData\Local\Temp\cc4uXrPo.s 			page 4


 105:Generated_Source\PSoC5/I2C_1_MASTER.c ****             errStatus = I2C_1_MSTR_NO_ERROR;
 106:Generated_Source\PSoC5/I2C_1_MASTER.c **** 
 107:Generated_Source\PSoC5/I2C_1_MASTER.c ****             I2C_1_ClearPendingInt();
  67              		.loc 1 107 0
  68 002a 0225     		movs	r5, #2
  69 002c 2349     		ldr	r1, .L12+8
  70 002e 0D60     		str	r5, [r1]
 108:Generated_Source\PSoC5/I2C_1_MASTER.c ****             I2C_1_mstrStatus &= (uint8) ~I2C_1_MSTAT_XFER_HALT;
  71              		.loc 1 108 0
  72 0030 234D     		ldr	r5, .L12+12
  73 0032 2978     		ldrb	r1, [r5]	@ zero_extendqisi2
  74 0034 01F0F701 		and	r1, r1, #247
  75 0038 2970     		strb	r1, [r5]
 105:Generated_Source\PSoC5/I2C_1_MASTER.c **** 
  76              		.loc 1 105 0
  77 003a 0021     		movs	r1, #0
  78 003c 02E0     		b	.L4
  79              	.LVL3:
  80              	.L8:
  99:Generated_Source\PSoC5/I2C_1_MASTER.c ****             }
  81              		.loc 1 99 0
  82 003e 0121     		movs	r1, #1
  83 0040 00E0     		b	.L4
  84              	.L9:
  85:Generated_Source\PSoC5/I2C_1_MASTER.c **** 
  85              		.loc 1 85 0
  86 0042 0221     		movs	r1, #2
  87              	.LVL4:
  88              	.L4:
 109:Generated_Source\PSoC5/I2C_1_MASTER.c ****         }
 110:Generated_Source\PSoC5/I2C_1_MASTER.c ****         else
 111:Generated_Source\PSoC5/I2C_1_MASTER.c ****         {
 112:Generated_Source\PSoC5/I2C_1_MASTER.c ****             /* errStatus = I2C_1_MSTR_NOT_READY was send before */
 113:Generated_Source\PSoC5/I2C_1_MASTER.c ****         }
 114:Generated_Source\PSoC5/I2C_1_MASTER.c **** 
 115:Generated_Source\PSoC5/I2C_1_MASTER.c ****         if(I2C_1_MSTR_NO_ERROR == errStatus)
  89              		.loc 1 115 0
  90 0044 0029     		cmp	r1, #0
  91 0046 32D1     		bne	.L2
 116:Generated_Source\PSoC5/I2C_1_MASTER.c ****         {
 117:Generated_Source\PSoC5/I2C_1_MASTER.c ****             /* Set state to start write transaction */
 118:Generated_Source\PSoC5/I2C_1_MASTER.c ****             I2C_1_state = I2C_1_SM_MSTR_WR_ADDR;
  92              		.loc 1 118 0
  93 0048 4526     		movs	r6, #69
  94 004a 1A4D     		ldr	r5, .L12
  95 004c 2E70     		strb	r6, [r5]
 119:Generated_Source\PSoC5/I2C_1_MASTER.c **** 
 120:Generated_Source\PSoC5/I2C_1_MASTER.c ****             /* Prepare write buffer */
 121:Generated_Source\PSoC5/I2C_1_MASTER.c ****             I2C_1_mstrWrBufIndex = 0u;
  96              		.loc 1 121 0
  97 004e 0026     		movs	r6, #0
  98 0050 1C4D     		ldr	r5, .L12+16
  99 0052 2E70     		strb	r6, [r5]
 122:Generated_Source\PSoC5/I2C_1_MASTER.c ****             I2C_1_mstrWrBufSize  = cnt;
 100              		.loc 1 122 0
 101 0054 1C4D     		ldr	r5, .L12+20
 102 0056 2A70     		strb	r2, [r5]
ARM GAS  C:\Users\HPz420\AppData\Local\Temp\cc4uXrPo.s 			page 5


 123:Generated_Source\PSoC5/I2C_1_MASTER.c ****             I2C_1_mstrWrBufPtr   = (volatile uint8 *) wrData;
 103              		.loc 1 123 0
 104 0058 1C4A     		ldr	r2, .L12+24
 105              	.LVL5:
 106 005a 1460     		str	r4, [r2]
 124:Generated_Source\PSoC5/I2C_1_MASTER.c **** 
 125:Generated_Source\PSoC5/I2C_1_MASTER.c ****             /* Set end of transaction flag: Stop or Halt (following ReStart) */
 126:Generated_Source\PSoC5/I2C_1_MASTER.c ****             I2C_1_mstrControl = mode;
 107              		.loc 1 126 0
 108 005c 1C4A     		ldr	r2, .L12+28
 109 005e 1370     		strb	r3, [r2]
 110              	.LVL6:
 127:Generated_Source\PSoC5/I2C_1_MASTER.c **** 
 128:Generated_Source\PSoC5/I2C_1_MASTER.c ****             /* Clear write status history */
 129:Generated_Source\PSoC5/I2C_1_MASTER.c ****             I2C_1_mstrStatus &= (uint8) ~I2C_1_MSTAT_WR_CMPLT;
 111              		.loc 1 129 0
 112 0060 174C     		ldr	r4, .L12+12
 113              	.LVL7:
 114 0062 2278     		ldrb	r2, [r4]	@ zero_extendqisi2
 115 0064 02F0FD02 		and	r2, r2, #253
 116 0068 2270     		strb	r2, [r4]
 130:Generated_Source\PSoC5/I2C_1_MASTER.c **** 
 131:Generated_Source\PSoC5/I2C_1_MASTER.c ****             /* Hardware actions: write address and generate Start or ReStart */
 132:Generated_Source\PSoC5/I2C_1_MASTER.c ****             I2C_1_DATA_REG = (uint8) (slaveAddress << I2C_1_SLAVE_ADDR_SHIFT);
 117              		.loc 1 132 0
 118 006a 4200     		lsls	r2, r0, #1
 119 006c D2B2     		uxtb	r2, r2
 120 006e 1948     		ldr	r0, .L12+32
 121              	.LVL8:
 122 0070 0270     		strb	r2, [r0]
 123              	.LVL9:
 133:Generated_Source\PSoC5/I2C_1_MASTER.c **** 
 134:Generated_Source\PSoC5/I2C_1_MASTER.c ****             if(I2C_1_CHECK_RESTART(mode))
 124              		.loc 1 134 0
 125 0072 13F0010F 		tst	r3, #1
 126 0076 09D0     		beq	.L5
 135:Generated_Source\PSoC5/I2C_1_MASTER.c ****             {
 136:Generated_Source\PSoC5/I2C_1_MASTER.c ****                 I2C_1_GENERATE_RESTART;
 127              		.loc 1 136 0
 128 0078 3222     		movs	r2, #50
 129 007a 174B     		ldr	r3, .L12+36
 130              	.LVL10:
 131 007c 1A70     		strb	r2, [r3]
 132 007e FF22     		movs	r2, #255
 133 0080 A3F5B073 		sub	r3, r3, #352
 134 0084 1A70     		strb	r2, [r3]
 135 0086 4033     		adds	r3, r3, #64
 136 0088 1E70     		strb	r6, [r3]
 137 008a 09E0     		b	.L6
 138              	.LVL11:
 139              	.L5:
 137:Generated_Source\PSoC5/I2C_1_MASTER.c ****             }
 138:Generated_Source\PSoC5/I2C_1_MASTER.c ****             else
 139:Generated_Source\PSoC5/I2C_1_MASTER.c ****             {
 140:Generated_Source\PSoC5/I2C_1_MASTER.c ****                 I2C_1_GENERATE_START;
 140              		.loc 1 140 0
 141 008c 8222     		movs	r2, #130
ARM GAS  C:\Users\HPz420\AppData\Local\Temp\cc4uXrPo.s 			page 6


 142 008e 124B     		ldr	r3, .L12+36
 143              	.LVL12:
 144 0090 1A70     		strb	r2, [r3]
 145 0092 FF22     		movs	r2, #255
 146 0094 A3F5B073 		sub	r3, r3, #352
 147 0098 1A70     		strb	r2, [r3]
 148 009a 0022     		movs	r2, #0
 149 009c 4033     		adds	r3, r3, #64
 150 009e 1A70     		strb	r2, [r3]
 151              	.L6:
 141:Generated_Source\PSoC5/I2C_1_MASTER.c ****             }
 142:Generated_Source\PSoC5/I2C_1_MASTER.c **** 
 143:Generated_Source\PSoC5/I2C_1_MASTER.c ****             /* Enable interrupt to complete transfer */
 144:Generated_Source\PSoC5/I2C_1_MASTER.c ****             I2C_1_EnableInt();
 152              		.loc 1 144 0
 153 00a0 0222     		movs	r2, #2
 154 00a2 0E4B     		ldr	r3, .L12+40
 155 00a4 1A60     		str	r2, [r3]
 156 00a6 02E0     		b	.L2
 157              	.LVL13:
 158              	.L7:
 159              		.cfi_def_cfa_offset 0
 160              		.cfi_restore 4
 161              		.cfi_restore 5
 162              		.cfi_restore 6
  85:Generated_Source\PSoC5/I2C_1_MASTER.c **** 
 163              		.loc 1 85 0
 164 00a8 0221     		movs	r1, #2
 165              	.LVL14:
 145:Generated_Source\PSoC5/I2C_1_MASTER.c ****         }
 146:Generated_Source\PSoC5/I2C_1_MASTER.c ****     }
 147:Generated_Source\PSoC5/I2C_1_MASTER.c **** 
 148:Generated_Source\PSoC5/I2C_1_MASTER.c ****     return(errStatus);
 149:Generated_Source\PSoC5/I2C_1_MASTER.c **** }
 166              		.loc 1 149 0
 167 00aa 0846     		mov	r0, r1
 168              	.LVL15:
 169 00ac 7047     		bx	lr
 170              	.LVL16:
 171              	.L2:
 172              		.cfi_def_cfa_offset 12
 173              		.cfi_offset 4, -12
 174              		.cfi_offset 5, -8
 175              		.cfi_offset 6, -4
 176 00ae 0846     		mov	r0, r1
 177 00b0 70BC     		pop	{r4, r5, r6}
 178              		.cfi_restore 6
 179              		.cfi_restore 5
 180              		.cfi_restore 4
 181              		.cfi_def_cfa_offset 0
 182 00b2 7047     		bx	lr
 183              	.L13:
 184              		.align	2
 185              	.L12:
 186 00b4 00000000 		.word	I2C_1_state
 187 00b8 6B650040 		.word	1073767787
 188 00bc 80E200E0 		.word	-536812928
ARM GAS  C:\Users\HPz420\AppData\Local\Temp\cc4uXrPo.s 			page 7


 189 00c0 00000000 		.word	I2C_1_mstrStatus
 190 00c4 00000000 		.word	I2C_1_mstrWrBufIndex
 191 00c8 00000000 		.word	I2C_1_mstrWrBufSize
 192 00cc 00000000 		.word	I2C_1_mstrWrBufPtr
 193 00d0 00000000 		.word	I2C_1_mstrControl
 194 00d4 08640040 		.word	1073767432
 195 00d8 78650040 		.word	1073767800
 196 00dc 00E100E0 		.word	-536813312
 197              		.cfi_endproc
 198              	.LFE0:
 199              		.size	I2C_1_MasterWriteBuf, .-I2C_1_MasterWriteBuf
 200              		.section	.text.I2C_1_MasterReadBuf,"ax",%progbits
 201              		.align	2
 202              		.global	I2C_1_MasterReadBuf
 203              		.thumb
 204              		.thumb_func
 205              		.type	I2C_1_MasterReadBuf, %function
 206              	I2C_1_MasterReadBuf:
 207              	.LFB1:
 150:Generated_Source\PSoC5/I2C_1_MASTER.c **** 
 151:Generated_Source\PSoC5/I2C_1_MASTER.c **** 
 152:Generated_Source\PSoC5/I2C_1_MASTER.c **** /*******************************************************************************
 153:Generated_Source\PSoC5/I2C_1_MASTER.c **** * Function Name: I2C_1_MasterReadBuf
 154:Generated_Source\PSoC5/I2C_1_MASTER.c **** ********************************************************************************
 155:Generated_Source\PSoC5/I2C_1_MASTER.c **** *
 156:Generated_Source\PSoC5/I2C_1_MASTER.c **** * Summary:
 157:Generated_Source\PSoC5/I2C_1_MASTER.c **** *  Automatically writes an entire buffer of data to a slave device. Once the
 158:Generated_Source\PSoC5/I2C_1_MASTER.c **** *  data transfer is initiated by this function, further data transfer is handled
 159:Generated_Source\PSoC5/I2C_1_MASTER.c **** *  by the included ISR in byte by byte mode.
 160:Generated_Source\PSoC5/I2C_1_MASTER.c **** *
 161:Generated_Source\PSoC5/I2C_1_MASTER.c **** * Parameters:
 162:Generated_Source\PSoC5/I2C_1_MASTER.c **** *  slaveAddr: 7-bit slave address.
 163:Generated_Source\PSoC5/I2C_1_MASTER.c **** *  xferData:  Pointer to buffer where to put data from slave.
 164:Generated_Source\PSoC5/I2C_1_MASTER.c **** *  cnt:       Size of buffer to read.
 165:Generated_Source\PSoC5/I2C_1_MASTER.c **** *  mode:      Transfer mode defines: start or restart condition generation at
 166:Generated_Source\PSoC5/I2C_1_MASTER.c **** *             begin of the transfer and complete the transfer or halt before
 167:Generated_Source\PSoC5/I2C_1_MASTER.c **** *             generating a stop.
 168:Generated_Source\PSoC5/I2C_1_MASTER.c **** *
 169:Generated_Source\PSoC5/I2C_1_MASTER.c **** * Return:
 170:Generated_Source\PSoC5/I2C_1_MASTER.c **** *  Status error - Zero means no errors.
 171:Generated_Source\PSoC5/I2C_1_MASTER.c **** *
 172:Generated_Source\PSoC5/I2C_1_MASTER.c **** * Side Effects:
 173:Generated_Source\PSoC5/I2C_1_MASTER.c **** *  The included ISR will start a transfer after start or restart condition is
 174:Generated_Source\PSoC5/I2C_1_MASTER.c **** *  generated.
 175:Generated_Source\PSoC5/I2C_1_MASTER.c **** *
 176:Generated_Source\PSoC5/I2C_1_MASTER.c **** * Global variables:
 177:Generated_Source\PSoC5/I2C_1_MASTER.c **** *  I2C_1_mstrStatus  - The global variable used to store a current
 178:Generated_Source\PSoC5/I2C_1_MASTER.c **** *                                 status of the I2C Master.
 179:Generated_Source\PSoC5/I2C_1_MASTER.c **** *  I2C_1_state       - The global variable used to store a current
 180:Generated_Source\PSoC5/I2C_1_MASTER.c **** *                                 state of the software FSM.
 181:Generated_Source\PSoC5/I2C_1_MASTER.c **** *  I2C_1_mstrControl - The global variable used to control the master
 182:Generated_Source\PSoC5/I2C_1_MASTER.c **** *                                 end of a transaction with or without
 183:Generated_Source\PSoC5/I2C_1_MASTER.c **** *                                 Stop generation.
 184:Generated_Source\PSoC5/I2C_1_MASTER.c **** *  I2C_1_mstrRdBufPtr - The global variable used to store a pointer
 185:Generated_Source\PSoC5/I2C_1_MASTER.c **** *                                  to the master write buffer.
 186:Generated_Source\PSoC5/I2C_1_MASTER.c **** *  I2C_1_mstrRdBufIndex - The global variable  used to store a
 187:Generated_Source\PSoC5/I2C_1_MASTER.c **** *                                    current index within the master
ARM GAS  C:\Users\HPz420\AppData\Local\Temp\cc4uXrPo.s 			page 8


 188:Generated_Source\PSoC5/I2C_1_MASTER.c **** *                                    write buffer.
 189:Generated_Source\PSoC5/I2C_1_MASTER.c **** *  I2C_1_mstrRdBufSize - The global variable used to store a master
 190:Generated_Source\PSoC5/I2C_1_MASTER.c **** *                                   write buffer size.
 191:Generated_Source\PSoC5/I2C_1_MASTER.c **** *
 192:Generated_Source\PSoC5/I2C_1_MASTER.c **** * Reentrant:
 193:Generated_Source\PSoC5/I2C_1_MASTER.c **** *  No.
 194:Generated_Source\PSoC5/I2C_1_MASTER.c **** *
 195:Generated_Source\PSoC5/I2C_1_MASTER.c **** *******************************************************************************/
 196:Generated_Source\PSoC5/I2C_1_MASTER.c **** uint8 I2C_1_MasterReadBuf(uint8 slaveAddress, uint8 * rdData, uint8 cnt, uint8 mode)
 197:Generated_Source\PSoC5/I2C_1_MASTER.c ****       
 198:Generated_Source\PSoC5/I2C_1_MASTER.c **** {
 208              		.loc 1 198 0
 209              		.cfi_startproc
 210              		@ args = 0, pretend = 0, frame = 0
 211              		@ frame_needed = 0, uses_anonymous_args = 0
 212              		@ link register save eliminated.
 213              	.LVL17:
 199:Generated_Source\PSoC5/I2C_1_MASTER.c ****     uint8 errStatus;
 200:Generated_Source\PSoC5/I2C_1_MASTER.c **** 
 201:Generated_Source\PSoC5/I2C_1_MASTER.c ****     errStatus = I2C_1_MSTR_NOT_READY;
 202:Generated_Source\PSoC5/I2C_1_MASTER.c **** 
 203:Generated_Source\PSoC5/I2C_1_MASTER.c ****     if(NULL != rdData)
 214              		.loc 1 203 0
 215 0000 0029     		cmp	r1, #0
 216 0002 53D0     		beq	.L20
 198:Generated_Source\PSoC5/I2C_1_MASTER.c ****     uint8 errStatus;
 217              		.loc 1 198 0
 218 0004 70B4     		push	{r4, r5, r6}
 219              		.cfi_def_cfa_offset 12
 220              		.cfi_offset 4, -12
 221              		.cfi_offset 5, -8
 222              		.cfi_offset 6, -4
 223 0006 0C46     		mov	r4, r1
 204:Generated_Source\PSoC5/I2C_1_MASTER.c ****     {
 205:Generated_Source\PSoC5/I2C_1_MASTER.c ****         /* Check I2C state to allow transfer: valid states are IDLE or HALT */
 206:Generated_Source\PSoC5/I2C_1_MASTER.c ****         if(I2C_1_SM_IDLE == I2C_1_state)
 224              		.loc 1 206 0
 225 0008 2B49     		ldr	r1, .L25
 226              	.LVL18:
 227 000a 0978     		ldrb	r1, [r1]	@ zero_extendqisi2
 228 000c C9B2     		uxtb	r1, r1
 229 000e 1029     		cmp	r1, #16
 230 0010 06D1     		bne	.L16
 207:Generated_Source\PSoC5/I2C_1_MASTER.c ****         {
 208:Generated_Source\PSoC5/I2C_1_MASTER.c ****             /* Master is ready to transaction: check if bus is free */
 209:Generated_Source\PSoC5/I2C_1_MASTER.c ****             if(I2C_1_CHECK_BUS_FREE(I2C_1_MCSR_REG))
 231              		.loc 1 209 0
 232 0012 2A49     		ldr	r1, .L25+4
 233 0014 0978     		ldrb	r1, [r1]	@ zero_extendqisi2
 234 0016 11F0100F 		tst	r1, #16
 235 001a 10D1     		bne	.L21
 210:Generated_Source\PSoC5/I2C_1_MASTER.c ****             {
 211:Generated_Source\PSoC5/I2C_1_MASTER.c ****                 errStatus = I2C_1_MSTR_NO_ERROR;
 236              		.loc 1 211 0
 237 001c 0021     		movs	r1, #0
 238 001e 11E0     		b	.L17
 239              	.L16:
ARM GAS  C:\Users\HPz420\AppData\Local\Temp\cc4uXrPo.s 			page 9


 212:Generated_Source\PSoC5/I2C_1_MASTER.c ****             }
 213:Generated_Source\PSoC5/I2C_1_MASTER.c ****             else
 214:Generated_Source\PSoC5/I2C_1_MASTER.c ****             {
 215:Generated_Source\PSoC5/I2C_1_MASTER.c ****                 errStatus = I2C_1_MSTR_BUS_BUSY;
 216:Generated_Source\PSoC5/I2C_1_MASTER.c ****             }
 217:Generated_Source\PSoC5/I2C_1_MASTER.c ****         }
 218:Generated_Source\PSoC5/I2C_1_MASTER.c ****         else if(I2C_1_SM_MSTR_HALT == I2C_1_state)
 240              		.loc 1 218 0
 241 0020 2549     		ldr	r1, .L25
 242 0022 0978     		ldrb	r1, [r1]	@ zero_extendqisi2
 243 0024 C9B2     		uxtb	r1, r1
 244 0026 6029     		cmp	r1, #96
 245 0028 0BD1     		bne	.L22
 246              	.LVL19:
 219:Generated_Source\PSoC5/I2C_1_MASTER.c ****         {
 220:Generated_Source\PSoC5/I2C_1_MASTER.c ****             /* Master is ready and waiting for ReStart */
 221:Generated_Source\PSoC5/I2C_1_MASTER.c ****             errStatus = I2C_1_MSTR_NO_ERROR;
 222:Generated_Source\PSoC5/I2C_1_MASTER.c **** 
 223:Generated_Source\PSoC5/I2C_1_MASTER.c ****             I2C_1_ClearPendingInt();
 247              		.loc 1 223 0
 248 002a 0225     		movs	r5, #2
 249 002c 2449     		ldr	r1, .L25+8
 250 002e 0D60     		str	r5, [r1]
 224:Generated_Source\PSoC5/I2C_1_MASTER.c ****             I2C_1_mstrStatus &= (uint8) ~I2C_1_MSTAT_XFER_HALT;
 251              		.loc 1 224 0
 252 0030 244D     		ldr	r5, .L25+12
 253 0032 2978     		ldrb	r1, [r5]	@ zero_extendqisi2
 254 0034 01F0F701 		and	r1, r1, #247
 255 0038 2970     		strb	r1, [r5]
 221:Generated_Source\PSoC5/I2C_1_MASTER.c **** 
 256              		.loc 1 221 0
 257 003a 0021     		movs	r1, #0
 258 003c 02E0     		b	.L17
 259              	.LVL20:
 260              	.L21:
 215:Generated_Source\PSoC5/I2C_1_MASTER.c ****             }
 261              		.loc 1 215 0
 262 003e 0121     		movs	r1, #1
 263 0040 00E0     		b	.L17
 264              	.L22:
 201:Generated_Source\PSoC5/I2C_1_MASTER.c **** 
 265              		.loc 1 201 0
 266 0042 0221     		movs	r1, #2
 267              	.LVL21:
 268              	.L17:
 225:Generated_Source\PSoC5/I2C_1_MASTER.c ****         }
 226:Generated_Source\PSoC5/I2C_1_MASTER.c ****         else
 227:Generated_Source\PSoC5/I2C_1_MASTER.c ****         {
 228:Generated_Source\PSoC5/I2C_1_MASTER.c ****             /* errStatus = I2C_1_MSTR_NOT_READY was set before */
 229:Generated_Source\PSoC5/I2C_1_MASTER.c ****         }
 230:Generated_Source\PSoC5/I2C_1_MASTER.c **** 
 231:Generated_Source\PSoC5/I2C_1_MASTER.c ****         if(I2C_1_MSTR_NO_ERROR == errStatus)
 269              		.loc 1 231 0
 270 0044 0029     		cmp	r1, #0
 271 0046 34D1     		bne	.L15
 232:Generated_Source\PSoC5/I2C_1_MASTER.c ****         {
 233:Generated_Source\PSoC5/I2C_1_MASTER.c ****             /* Set state to start write transaction */
ARM GAS  C:\Users\HPz420\AppData\Local\Temp\cc4uXrPo.s 			page 10


 234:Generated_Source\PSoC5/I2C_1_MASTER.c ****             I2C_1_state = I2C_1_SM_MSTR_RD_ADDR;
 272              		.loc 1 234 0
 273 0048 4926     		movs	r6, #73
 274 004a 1B4D     		ldr	r5, .L25
 275 004c 2E70     		strb	r6, [r5]
 235:Generated_Source\PSoC5/I2C_1_MASTER.c **** 
 236:Generated_Source\PSoC5/I2C_1_MASTER.c ****             /* Prepare read buffer */
 237:Generated_Source\PSoC5/I2C_1_MASTER.c ****             I2C_1_mstrRdBufIndex  = 0u;
 276              		.loc 1 237 0
 277 004e 0026     		movs	r6, #0
 278 0050 1D4D     		ldr	r5, .L25+16
 279 0052 2E70     		strb	r6, [r5]
 238:Generated_Source\PSoC5/I2C_1_MASTER.c ****             I2C_1_mstrRdBufSize   = cnt;
 280              		.loc 1 238 0
 281 0054 1D4D     		ldr	r5, .L25+20
 282 0056 2A70     		strb	r2, [r5]
 239:Generated_Source\PSoC5/I2C_1_MASTER.c ****             I2C_1_mstrRdBufPtr    = (volatile uint8 *) rdData;
 283              		.loc 1 239 0
 284 0058 1D4A     		ldr	r2, .L25+24
 285              	.LVL22:
 286 005a 1460     		str	r4, [r2]
 240:Generated_Source\PSoC5/I2C_1_MASTER.c **** 
 241:Generated_Source\PSoC5/I2C_1_MASTER.c ****             /* Set end of transaction flag: Stop or Halt (following ReStart) */
 242:Generated_Source\PSoC5/I2C_1_MASTER.c ****             I2C_1_mstrControl = mode;
 287              		.loc 1 242 0
 288 005c 1D4A     		ldr	r2, .L25+28
 289 005e 1370     		strb	r3, [r2]
 290              	.LVL23:
 243:Generated_Source\PSoC5/I2C_1_MASTER.c **** 
 244:Generated_Source\PSoC5/I2C_1_MASTER.c ****             /* Clear read status history */
 245:Generated_Source\PSoC5/I2C_1_MASTER.c ****             I2C_1_mstrStatus &= (uint8) ~I2C_1_MSTAT_RD_CMPLT;
 291              		.loc 1 245 0
 292 0060 184C     		ldr	r4, .L25+12
 293              	.LVL24:
 294 0062 2278     		ldrb	r2, [r4]	@ zero_extendqisi2
 295 0064 02F0FE02 		and	r2, r2, #254
 296 0068 2270     		strb	r2, [r4]
 246:Generated_Source\PSoC5/I2C_1_MASTER.c **** 
 247:Generated_Source\PSoC5/I2C_1_MASTER.c ****             /* Hardware actions: write address and generate Start or ReStart */
 248:Generated_Source\PSoC5/I2C_1_MASTER.c ****             I2C_1_DATA_REG = ((uint8) (slaveAddress << I2C_1_SLAVE_ADDR_SHIFT) |
 297              		.loc 1 248 0
 298 006a 4200     		lsls	r2, r0, #1
 299 006c D2B2     		uxtb	r2, r2
 300 006e 42F00102 		orr	r2, r2, #1
 301 0072 1948     		ldr	r0, .L25+32
 302              	.LVL25:
 303 0074 0270     		strb	r2, [r0]
 304              	.LVL26:
 249:Generated_Source\PSoC5/I2C_1_MASTER.c ****                                                   I2C_1_READ_FLAG);
 250:Generated_Source\PSoC5/I2C_1_MASTER.c **** 
 251:Generated_Source\PSoC5/I2C_1_MASTER.c ****             if(I2C_1_CHECK_RESTART(mode))
 305              		.loc 1 251 0
 306 0076 13F0010F 		tst	r3, #1
 307 007a 09D0     		beq	.L18
 252:Generated_Source\PSoC5/I2C_1_MASTER.c ****             {
 253:Generated_Source\PSoC5/I2C_1_MASTER.c ****                 I2C_1_GENERATE_RESTART;
 308              		.loc 1 253 0
ARM GAS  C:\Users\HPz420\AppData\Local\Temp\cc4uXrPo.s 			page 11


 309 007c 3222     		movs	r2, #50
 310 007e 174B     		ldr	r3, .L25+36
 311              	.LVL27:
 312 0080 1A70     		strb	r2, [r3]
 313 0082 FF22     		movs	r2, #255
 314 0084 A3F5B073 		sub	r3, r3, #352
 315 0088 1A70     		strb	r2, [r3]
 316 008a 4033     		adds	r3, r3, #64
 317 008c 1E70     		strb	r6, [r3]
 318 008e 09E0     		b	.L19
 319              	.LVL28:
 320              	.L18:
 254:Generated_Source\PSoC5/I2C_1_MASTER.c ****             }
 255:Generated_Source\PSoC5/I2C_1_MASTER.c ****             else
 256:Generated_Source\PSoC5/I2C_1_MASTER.c ****             {
 257:Generated_Source\PSoC5/I2C_1_MASTER.c ****                 I2C_1_GENERATE_START;
 321              		.loc 1 257 0
 322 0090 8222     		movs	r2, #130
 323 0092 124B     		ldr	r3, .L25+36
 324              	.LVL29:
 325 0094 1A70     		strb	r2, [r3]
 326 0096 FF22     		movs	r2, #255
 327 0098 A3F5B073 		sub	r3, r3, #352
 328 009c 1A70     		strb	r2, [r3]
 329 009e 0022     		movs	r2, #0
 330 00a0 4033     		adds	r3, r3, #64
 331 00a2 1A70     		strb	r2, [r3]
 332              	.L19:
 258:Generated_Source\PSoC5/I2C_1_MASTER.c ****             }
 259:Generated_Source\PSoC5/I2C_1_MASTER.c **** 
 260:Generated_Source\PSoC5/I2C_1_MASTER.c ****             /* Enable interrupt to complete transfer */
 261:Generated_Source\PSoC5/I2C_1_MASTER.c ****             I2C_1_EnableInt();
 333              		.loc 1 261 0
 334 00a4 0222     		movs	r2, #2
 335 00a6 0E4B     		ldr	r3, .L25+40
 336 00a8 1A60     		str	r2, [r3]
 337 00aa 02E0     		b	.L15
 338              	.LVL30:
 339              	.L20:
 340              		.cfi_def_cfa_offset 0
 341              		.cfi_restore 4
 342              		.cfi_restore 5
 343              		.cfi_restore 6
 201:Generated_Source\PSoC5/I2C_1_MASTER.c **** 
 344              		.loc 1 201 0
 345 00ac 0221     		movs	r1, #2
 346              	.LVL31:
 262:Generated_Source\PSoC5/I2C_1_MASTER.c ****         }
 263:Generated_Source\PSoC5/I2C_1_MASTER.c ****     }
 264:Generated_Source\PSoC5/I2C_1_MASTER.c **** 
 265:Generated_Source\PSoC5/I2C_1_MASTER.c ****     return(errStatus);
 266:Generated_Source\PSoC5/I2C_1_MASTER.c **** }
 347              		.loc 1 266 0
 348 00ae 0846     		mov	r0, r1
 349              	.LVL32:
 350 00b0 7047     		bx	lr
 351              	.LVL33:
ARM GAS  C:\Users\HPz420\AppData\Local\Temp\cc4uXrPo.s 			page 12


 352              	.L15:
 353              		.cfi_def_cfa_offset 12
 354              		.cfi_offset 4, -12
 355              		.cfi_offset 5, -8
 356              		.cfi_offset 6, -4
 357 00b2 0846     		mov	r0, r1
 358 00b4 70BC     		pop	{r4, r5, r6}
 359              		.cfi_restore 6
 360              		.cfi_restore 5
 361              		.cfi_restore 4
 362              		.cfi_def_cfa_offset 0
 363 00b6 7047     		bx	lr
 364              	.L26:
 365              		.align	2
 366              	.L25:
 367 00b8 00000000 		.word	I2C_1_state
 368 00bc 6B650040 		.word	1073767787
 369 00c0 80E200E0 		.word	-536812928
 370 00c4 00000000 		.word	I2C_1_mstrStatus
 371 00c8 00000000 		.word	I2C_1_mstrRdBufIndex
 372 00cc 00000000 		.word	I2C_1_mstrRdBufSize
 373 00d0 00000000 		.word	I2C_1_mstrRdBufPtr
 374 00d4 00000000 		.word	I2C_1_mstrControl
 375 00d8 08640040 		.word	1073767432
 376 00dc 78650040 		.word	1073767800
 377 00e0 00E100E0 		.word	-536813312
 378              		.cfi_endproc
 379              	.LFE1:
 380              		.size	I2C_1_MasterReadBuf, .-I2C_1_MasterReadBuf
 381              		.section	.text.I2C_1_MasterSendStart,"ax",%progbits
 382              		.align	2
 383              		.global	I2C_1_MasterSendStart
 384              		.thumb
 385              		.thumb_func
 386              		.type	I2C_1_MasterSendStart, %function
 387              	I2C_1_MasterSendStart:
 388              	.LFB2:
 267:Generated_Source\PSoC5/I2C_1_MASTER.c **** 
 268:Generated_Source\PSoC5/I2C_1_MASTER.c **** 
 269:Generated_Source\PSoC5/I2C_1_MASTER.c **** /*******************************************************************************
 270:Generated_Source\PSoC5/I2C_1_MASTER.c **** * Function Name: I2C_1_MasterSendStart
 271:Generated_Source\PSoC5/I2C_1_MASTER.c **** ********************************************************************************
 272:Generated_Source\PSoC5/I2C_1_MASTER.c **** *
 273:Generated_Source\PSoC5/I2C_1_MASTER.c **** * Summary:
 274:Generated_Source\PSoC5/I2C_1_MASTER.c **** *  Generates Start condition and sends slave address with read/write bit.
 275:Generated_Source\PSoC5/I2C_1_MASTER.c **** *
 276:Generated_Source\PSoC5/I2C_1_MASTER.c **** * Parameters:
 277:Generated_Source\PSoC5/I2C_1_MASTER.c **** *  slaveAddress:  7-bit slave address.
 278:Generated_Source\PSoC5/I2C_1_MASTER.c **** *  R_nW:          Zero, send write command, non-zero send read command.
 279:Generated_Source\PSoC5/I2C_1_MASTER.c **** *
 280:Generated_Source\PSoC5/I2C_1_MASTER.c **** * Return:
 281:Generated_Source\PSoC5/I2C_1_MASTER.c **** *  Status error - Zero means no errors.
 282:Generated_Source\PSoC5/I2C_1_MASTER.c **** *
 283:Generated_Source\PSoC5/I2C_1_MASTER.c **** * Side Effects:
 284:Generated_Source\PSoC5/I2C_1_MASTER.c **** *  This function is entered without a "byte complete" bit set in the I2C_CSR
 285:Generated_Source\PSoC5/I2C_1_MASTER.c **** *  register. It does not exit until it is set.
 286:Generated_Source\PSoC5/I2C_1_MASTER.c **** *
ARM GAS  C:\Users\HPz420\AppData\Local\Temp\cc4uXrPo.s 			page 13


 287:Generated_Source\PSoC5/I2C_1_MASTER.c **** * Global variables:
 288:Generated_Source\PSoC5/I2C_1_MASTER.c **** *  I2C_1_state - The global variable used to store a current state of
 289:Generated_Source\PSoC5/I2C_1_MASTER.c **** *                           the software FSM.
 290:Generated_Source\PSoC5/I2C_1_MASTER.c **** *
 291:Generated_Source\PSoC5/I2C_1_MASTER.c **** * Reentrant:
 292:Generated_Source\PSoC5/I2C_1_MASTER.c **** *  No.
 293:Generated_Source\PSoC5/I2C_1_MASTER.c **** *
 294:Generated_Source\PSoC5/I2C_1_MASTER.c **** *******************************************************************************/
 295:Generated_Source\PSoC5/I2C_1_MASTER.c **** uint8 I2C_1_MasterSendStart(uint8 slaveAddress, uint8 R_nW)
 296:Generated_Source\PSoC5/I2C_1_MASTER.c ****       
 297:Generated_Source\PSoC5/I2C_1_MASTER.c **** {
 389              		.loc 1 297 0
 390              		.cfi_startproc
 391              		@ args = 0, pretend = 0, frame = 0
 392              		@ frame_needed = 0, uses_anonymous_args = 0
 393              		@ link register save eliminated.
 394              	.LVL34:
 298:Generated_Source\PSoC5/I2C_1_MASTER.c ****     uint8 errStatus;
 299:Generated_Source\PSoC5/I2C_1_MASTER.c **** 
 300:Generated_Source\PSoC5/I2C_1_MASTER.c ****     errStatus = I2C_1_MSTR_NOT_READY;
 301:Generated_Source\PSoC5/I2C_1_MASTER.c **** 
 302:Generated_Source\PSoC5/I2C_1_MASTER.c ****     /* If IDLE, check if bus is free */
 303:Generated_Source\PSoC5/I2C_1_MASTER.c ****     if(I2C_1_SM_IDLE == I2C_1_state)
 395              		.loc 1 303 0
 396 0000 204B     		ldr	r3, .L36
 397 0002 1B78     		ldrb	r3, [r3]	@ zero_extendqisi2
 398 0004 DBB2     		uxtb	r3, r3
 399 0006 102B     		cmp	r3, #16
 400 0008 35D1     		bne	.L33
 304:Generated_Source\PSoC5/I2C_1_MASTER.c ****     {
 305:Generated_Source\PSoC5/I2C_1_MASTER.c ****         /* If bus is free, generate Start condition */
 306:Generated_Source\PSoC5/I2C_1_MASTER.c ****         if(I2C_1_CHECK_BUS_FREE(I2C_1_MCSR_REG))
 401              		.loc 1 306 0
 402 000a 1F4B     		ldr	r3, .L36+4
 403 000c 1B78     		ldrb	r3, [r3]	@ zero_extendqisi2
 404 000e 13F0100F 		tst	r3, #16
 405 0012 32D1     		bne	.L34
 307:Generated_Source\PSoC5/I2C_1_MASTER.c ****         {
 308:Generated_Source\PSoC5/I2C_1_MASTER.c ****             /* Disable interrupt for manual master operation */
 309:Generated_Source\PSoC5/I2C_1_MASTER.c ****             I2C_1_DisableInt();
 406              		.loc 1 309 0
 407 0014 0222     		movs	r2, #2
 408 0016 1D4B     		ldr	r3, .L36+8
 409 0018 1A60     		str	r2, [r3]
 310:Generated_Source\PSoC5/I2C_1_MASTER.c **** 
 311:Generated_Source\PSoC5/I2C_1_MASTER.c ****             /* Set address and read/write flag */
 312:Generated_Source\PSoC5/I2C_1_MASTER.c ****             slaveAddress = (uint8) (slaveAddress << I2C_1_SLAVE_ADDR_SHIFT);
 410              		.loc 1 312 0
 411 001a 4000     		lsls	r0, r0, #1
 412              	.LVL35:
 413 001c C0B2     		uxtb	r0, r0
 414              	.LVL36:
 313:Generated_Source\PSoC5/I2C_1_MASTER.c ****             if(0u != R_nW)
 415              		.loc 1 313 0
 416 001e 29B1     		cbz	r1, .L29
 314:Generated_Source\PSoC5/I2C_1_MASTER.c ****             {
 315:Generated_Source\PSoC5/I2C_1_MASTER.c ****                 slaveAddress |= I2C_1_READ_FLAG;
ARM GAS  C:\Users\HPz420\AppData\Local\Temp\cc4uXrPo.s 			page 14


 417              		.loc 1 315 0
 418 0020 40F00100 		orr	r0, r0, #1
 419              	.LVL37:
 316:Generated_Source\PSoC5/I2C_1_MASTER.c ****                 I2C_1_state = I2C_1_SM_MSTR_RD_ADDR;
 420              		.loc 1 316 0
 421 0024 4922     		movs	r2, #73
 422 0026 174B     		ldr	r3, .L36
 423 0028 1A70     		strb	r2, [r3]
 424 002a 02E0     		b	.L30
 425              	.L29:
 317:Generated_Source\PSoC5/I2C_1_MASTER.c ****             }
 318:Generated_Source\PSoC5/I2C_1_MASTER.c ****             else
 319:Generated_Source\PSoC5/I2C_1_MASTER.c ****             {
 320:Generated_Source\PSoC5/I2C_1_MASTER.c ****                 I2C_1_state = I2C_1_SM_MSTR_WR_ADDR;
 426              		.loc 1 320 0
 427 002c 4522     		movs	r2, #69
 428 002e 154B     		ldr	r3, .L36
 429 0030 1A70     		strb	r2, [r3]
 430              	.L30:
 321:Generated_Source\PSoC5/I2C_1_MASTER.c ****             }
 322:Generated_Source\PSoC5/I2C_1_MASTER.c **** 
 323:Generated_Source\PSoC5/I2C_1_MASTER.c ****             /* Hardware actions: write address and generate Start */
 324:Generated_Source\PSoC5/I2C_1_MASTER.c ****             I2C_1_DATA_REG = slaveAddress;
 431              		.loc 1 324 0
 432 0032 174B     		ldr	r3, .L36+12
 433 0034 1870     		strb	r0, [r3]
 325:Generated_Source\PSoC5/I2C_1_MASTER.c ****             I2C_1_GENERATE_START_MANUAL;
 434              		.loc 1 325 0
 435 0036 8222     		movs	r2, #130
 436 0038 03F5B873 		add	r3, r3, #368
 437 003c 1A70     		strb	r2, [r3]
 438 003e FF22     		movs	r2, #255
 439 0040 A3F5B073 		sub	r3, r3, #352
 440 0044 1A70     		strb	r2, [r3]
 441 0046 0022     		movs	r2, #0
 442 0048 4033     		adds	r3, r3, #64
 443 004a 1A70     		strb	r2, [r3]
 444              	.L31:
 445              		.loc 1 325 0 is_stmt 0 discriminator 2
 446 004c 114B     		ldr	r3, .L36+16
 447 004e 1B78     		ldrb	r3, [r3]	@ zero_extendqisi2
 448 0050 13F0FF0F 		tst	r3, #255
 449 0054 FAD1     		bne	.L31
 450              	.L32:
 326:Generated_Source\PSoC5/I2C_1_MASTER.c **** 
 327:Generated_Source\PSoC5/I2C_1_MASTER.c ****             /* Wait until address is transferred */
 328:Generated_Source\PSoC5/I2C_1_MASTER.c ****             while(I2C_1_WAIT_BYTE_COMPLETE(I2C_1_CSR_REG))
 451              		.loc 1 328 0 is_stmt 1 discriminator 1
 452 0056 0C4B     		ldr	r3, .L36+4
 453 0058 1B78     		ldrb	r3, [r3]	@ zero_extendqisi2
 454 005a 13F0010F 		tst	r3, #1
 455 005e FAD0     		beq	.L32
 329:Generated_Source\PSoC5/I2C_1_MASTER.c ****             {
 330:Generated_Source\PSoC5/I2C_1_MASTER.c ****             }
 331:Generated_Source\PSoC5/I2C_1_MASTER.c **** 
 332:Generated_Source\PSoC5/I2C_1_MASTER.c ****         #if(I2C_1_MODE_MULTI_MASTER_SLAVE_ENABLED)
 333:Generated_Source\PSoC5/I2C_1_MASTER.c ****             if(I2C_1_CHECK_START_GEN(I2C_1_MCSR_REG))
ARM GAS  C:\Users\HPz420\AppData\Local\Temp\cc4uXrPo.s 			page 15


 334:Generated_Source\PSoC5/I2C_1_MASTER.c ****             {
 335:Generated_Source\PSoC5/I2C_1_MASTER.c ****                 I2C_1_CLEAR_START_GEN;
 336:Generated_Source\PSoC5/I2C_1_MASTER.c **** 
 337:Generated_Source\PSoC5/I2C_1_MASTER.c ****                 /* Start condition was not generated: reset FSM to IDLE */
 338:Generated_Source\PSoC5/I2C_1_MASTER.c ****                 I2C_1_state = I2C_1_SM_IDLE;
 339:Generated_Source\PSoC5/I2C_1_MASTER.c ****                 errStatus = I2C_1_MSTR_ERR_ABORT_START_GEN;
 340:Generated_Source\PSoC5/I2C_1_MASTER.c ****             }
 341:Generated_Source\PSoC5/I2C_1_MASTER.c ****             else
 342:Generated_Source\PSoC5/I2C_1_MASTER.c ****         #endif /* (I2C_1_MODE_MULTI_MASTER_SLAVE_ENABLED) */
 343:Generated_Source\PSoC5/I2C_1_MASTER.c **** 
 344:Generated_Source\PSoC5/I2C_1_MASTER.c ****         #if(I2C_1_MODE_MULTI_MASTER_ENABLED)
 345:Generated_Source\PSoC5/I2C_1_MASTER.c ****             if(I2C_1_CHECK_LOST_ARB(I2C_1_CSR_REG))
 346:Generated_Source\PSoC5/I2C_1_MASTER.c ****             {
 347:Generated_Source\PSoC5/I2C_1_MASTER.c ****                 I2C_1_BUS_RELEASE_MANUAL;
 348:Generated_Source\PSoC5/I2C_1_MASTER.c **** 
 349:Generated_Source\PSoC5/I2C_1_MASTER.c ****                 /* Master lost arbitrage: reset FSM to IDLE */
 350:Generated_Source\PSoC5/I2C_1_MASTER.c ****                 I2C_1_state = I2C_1_SM_IDLE;
 351:Generated_Source\PSoC5/I2C_1_MASTER.c ****                 errStatus = I2C_1_MSTR_ERR_ARB_LOST;
 352:Generated_Source\PSoC5/I2C_1_MASTER.c ****             }
 353:Generated_Source\PSoC5/I2C_1_MASTER.c ****             else
 354:Generated_Source\PSoC5/I2C_1_MASTER.c ****         #endif /* (I2C_1_MODE_MULTI_MASTER_ENABLED) */
 355:Generated_Source\PSoC5/I2C_1_MASTER.c **** 
 356:Generated_Source\PSoC5/I2C_1_MASTER.c ****             if(I2C_1_CHECK_ADDR_NAK(I2C_1_CSR_REG))
 456              		.loc 1 356 0
 457 0060 094B     		ldr	r3, .L36+4
 458 0062 1B78     		ldrb	r3, [r3]	@ zero_extendqisi2
 459 0064 03F00A03 		and	r3, r3, #10
 460 0068 0A2B     		cmp	r3, #10
 461 006a 08D1     		bne	.L35
 357:Generated_Source\PSoC5/I2C_1_MASTER.c ****             {
 358:Generated_Source\PSoC5/I2C_1_MASTER.c ****                 /* Address has been NACKed: reset FSM to IDLE */
 359:Generated_Source\PSoC5/I2C_1_MASTER.c ****                 I2C_1_state = I2C_1_SM_IDLE;
 462              		.loc 1 359 0
 463 006c 1022     		movs	r2, #16
 464 006e 054B     		ldr	r3, .L36
 465 0070 1A70     		strb	r2, [r3]
 466              	.LVL38:
 360:Generated_Source\PSoC5/I2C_1_MASTER.c ****                 errStatus = I2C_1_MSTR_ERR_LB_NAK;
 467              		.loc 1 360 0
 468 0072 0320     		movs	r0, #3
 469              	.LVL39:
 470 0074 7047     		bx	lr
 471              	.LVL40:
 472              	.L33:
 300:Generated_Source\PSoC5/I2C_1_MASTER.c **** 
 473              		.loc 1 300 0
 474 0076 0220     		movs	r0, #2
 475              	.LVL41:
 476 0078 7047     		bx	lr
 477              	.LVL42:
 478              	.L34:
 361:Generated_Source\PSoC5/I2C_1_MASTER.c ****             }
 362:Generated_Source\PSoC5/I2C_1_MASTER.c ****             else
 363:Generated_Source\PSoC5/I2C_1_MASTER.c ****             {
 364:Generated_Source\PSoC5/I2C_1_MASTER.c ****                 /* Start was sent without errors */
 365:Generated_Source\PSoC5/I2C_1_MASTER.c ****                 errStatus = I2C_1_MSTR_NO_ERROR;
 366:Generated_Source\PSoC5/I2C_1_MASTER.c ****             }
ARM GAS  C:\Users\HPz420\AppData\Local\Temp\cc4uXrPo.s 			page 16


 367:Generated_Source\PSoC5/I2C_1_MASTER.c ****         }
 368:Generated_Source\PSoC5/I2C_1_MASTER.c ****         else
 369:Generated_Source\PSoC5/I2C_1_MASTER.c ****         {
 370:Generated_Source\PSoC5/I2C_1_MASTER.c ****             errStatus = I2C_1_MSTR_BUS_BUSY;
 479              		.loc 1 370 0
 480 007a 0120     		movs	r0, #1
 481              	.LVL43:
 482 007c 7047     		bx	lr
 483              	.LVL44:
 484              	.L35:
 365:Generated_Source\PSoC5/I2C_1_MASTER.c ****             }
 485              		.loc 1 365 0
 486 007e 0020     		movs	r0, #0
 487              	.LVL45:
 371:Generated_Source\PSoC5/I2C_1_MASTER.c ****         }
 372:Generated_Source\PSoC5/I2C_1_MASTER.c ****     }
 373:Generated_Source\PSoC5/I2C_1_MASTER.c **** 
 374:Generated_Source\PSoC5/I2C_1_MASTER.c ****     return(errStatus);
 375:Generated_Source\PSoC5/I2C_1_MASTER.c **** }
 488              		.loc 1 375 0
 489 0080 7047     		bx	lr
 490              	.L37:
 491 0082 00BF     		.align	2
 492              	.L36:
 493 0084 00000000 		.word	I2C_1_state
 494 0088 6B650040 		.word	1073767787
 495 008c 80E100E0 		.word	-536813184
 496 0090 08640040 		.word	1073767432
 497 0094 18640040 		.word	1073767448
 498              		.cfi_endproc
 499              	.LFE2:
 500              		.size	I2C_1_MasterSendStart, .-I2C_1_MasterSendStart
 501              		.section	.text.I2C_1_MasterSendRestart,"ax",%progbits
 502              		.align	2
 503              		.global	I2C_1_MasterSendRestart
 504              		.thumb
 505              		.thumb_func
 506              		.type	I2C_1_MasterSendRestart, %function
 507              	I2C_1_MasterSendRestart:
 508              	.LFB3:
 376:Generated_Source\PSoC5/I2C_1_MASTER.c **** 
 377:Generated_Source\PSoC5/I2C_1_MASTER.c **** 
 378:Generated_Source\PSoC5/I2C_1_MASTER.c **** /*******************************************************************************
 379:Generated_Source\PSoC5/I2C_1_MASTER.c **** * Function Name: I2C_1_MasterSendRestart
 380:Generated_Source\PSoC5/I2C_1_MASTER.c **** ********************************************************************************
 381:Generated_Source\PSoC5/I2C_1_MASTER.c **** *
 382:Generated_Source\PSoC5/I2C_1_MASTER.c **** * Summary:
 383:Generated_Source\PSoC5/I2C_1_MASTER.c **** *  Generates ReStart condition and sends slave address with read/write bit.
 384:Generated_Source\PSoC5/I2C_1_MASTER.c **** *
 385:Generated_Source\PSoC5/I2C_1_MASTER.c **** * Parameters:
 386:Generated_Source\PSoC5/I2C_1_MASTER.c **** *  slaveAddress:  7-bit slave address.
 387:Generated_Source\PSoC5/I2C_1_MASTER.c **** *  R_nW:          Zero, send write command, non-zero send read command.
 388:Generated_Source\PSoC5/I2C_1_MASTER.c **** *
 389:Generated_Source\PSoC5/I2C_1_MASTER.c **** * Return:
 390:Generated_Source\PSoC5/I2C_1_MASTER.c **** *  Status error - Zero means no errors.
 391:Generated_Source\PSoC5/I2C_1_MASTER.c **** *
 392:Generated_Source\PSoC5/I2C_1_MASTER.c **** * Side Effects:
ARM GAS  C:\Users\HPz420\AppData\Local\Temp\cc4uXrPo.s 			page 17


 393:Generated_Source\PSoC5/I2C_1_MASTER.c **** *  This function is entered without a "byte complete" bit set in the I2C_CSR
 394:Generated_Source\PSoC5/I2C_1_MASTER.c **** *  register. It does not exit until it is set.
 395:Generated_Source\PSoC5/I2C_1_MASTER.c **** *
 396:Generated_Source\PSoC5/I2C_1_MASTER.c **** * Global variables:
 397:Generated_Source\PSoC5/I2C_1_MASTER.c **** *  I2C_1_state - The global variable used to store a current state of
 398:Generated_Source\PSoC5/I2C_1_MASTER.c **** *                           the software FSM.
 399:Generated_Source\PSoC5/I2C_1_MASTER.c **** *
 400:Generated_Source\PSoC5/I2C_1_MASTER.c **** * Reentrant:
 401:Generated_Source\PSoC5/I2C_1_MASTER.c **** *  No.
 402:Generated_Source\PSoC5/I2C_1_MASTER.c **** *
 403:Generated_Source\PSoC5/I2C_1_MASTER.c **** *******************************************************************************/
 404:Generated_Source\PSoC5/I2C_1_MASTER.c **** uint8 I2C_1_MasterSendRestart(uint8 slaveAddress, uint8 R_nW)
 405:Generated_Source\PSoC5/I2C_1_MASTER.c ****       
 406:Generated_Source\PSoC5/I2C_1_MASTER.c **** {
 509              		.loc 1 406 0
 510              		.cfi_startproc
 511              		@ args = 0, pretend = 0, frame = 0
 512              		@ frame_needed = 0, uses_anonymous_args = 0
 513              		@ link register save eliminated.
 514              	.LVL46:
 407:Generated_Source\PSoC5/I2C_1_MASTER.c ****     uint8 errStatus;
 408:Generated_Source\PSoC5/I2C_1_MASTER.c **** 
 409:Generated_Source\PSoC5/I2C_1_MASTER.c ****     errStatus = I2C_1_MSTR_NOT_READY;
 410:Generated_Source\PSoC5/I2C_1_MASTER.c **** 
 411:Generated_Source\PSoC5/I2C_1_MASTER.c ****     /* Check if START condition was generated */
 412:Generated_Source\PSoC5/I2C_1_MASTER.c ****     if(I2C_1_CHECK_MASTER_MODE(I2C_1_MCSR_REG))
 515              		.loc 1 412 0
 516 0000 1B4B     		ldr	r3, .L46
 517 0002 1B78     		ldrb	r3, [r3]	@ zero_extendqisi2
 518 0004 13F0040F 		tst	r3, #4
 519 0008 2DD0     		beq	.L44
 413:Generated_Source\PSoC5/I2C_1_MASTER.c ****     {
 414:Generated_Source\PSoC5/I2C_1_MASTER.c ****         /* Set address and read/write flag */
 415:Generated_Source\PSoC5/I2C_1_MASTER.c ****         slaveAddress = (uint8) (slaveAddress << I2C_1_SLAVE_ADDR_SHIFT);
 520              		.loc 1 415 0
 521 000a 4000     		lsls	r0, r0, #1
 522              	.LVL47:
 523 000c C0B2     		uxtb	r0, r0
 524              	.LVL48:
 416:Generated_Source\PSoC5/I2C_1_MASTER.c ****         if(0u != R_nW)
 525              		.loc 1 416 0
 526 000e 29B1     		cbz	r1, .L40
 417:Generated_Source\PSoC5/I2C_1_MASTER.c ****         {
 418:Generated_Source\PSoC5/I2C_1_MASTER.c ****             slaveAddress |= I2C_1_READ_FLAG;
 527              		.loc 1 418 0
 528 0010 40F00100 		orr	r0, r0, #1
 529              	.LVL49:
 419:Generated_Source\PSoC5/I2C_1_MASTER.c ****             I2C_1_state = I2C_1_SM_MSTR_RD_ADDR;
 530              		.loc 1 419 0
 531 0014 4922     		movs	r2, #73
 532 0016 174B     		ldr	r3, .L46+4
 533 0018 1A70     		strb	r2, [r3]
 534 001a 02E0     		b	.L41
 535              	.L40:
 420:Generated_Source\PSoC5/I2C_1_MASTER.c ****         }
 421:Generated_Source\PSoC5/I2C_1_MASTER.c ****         else
 422:Generated_Source\PSoC5/I2C_1_MASTER.c ****         {
ARM GAS  C:\Users\HPz420\AppData\Local\Temp\cc4uXrPo.s 			page 18


 423:Generated_Source\PSoC5/I2C_1_MASTER.c ****             I2C_1_state = I2C_1_SM_MSTR_WR_ADDR;
 536              		.loc 1 423 0
 537 001c 4522     		movs	r2, #69
 538 001e 154B     		ldr	r3, .L46+4
 539 0020 1A70     		strb	r2, [r3]
 540              	.L41:
 424:Generated_Source\PSoC5/I2C_1_MASTER.c ****         }
 425:Generated_Source\PSoC5/I2C_1_MASTER.c **** 
 426:Generated_Source\PSoC5/I2C_1_MASTER.c ****         /* Hardware actions: write address and generate ReStart */
 427:Generated_Source\PSoC5/I2C_1_MASTER.c ****         I2C_1_DATA_REG = slaveAddress;
 541              		.loc 1 427 0
 542 0022 154B     		ldr	r3, .L46+8
 543 0024 1870     		strb	r0, [r3]
 428:Generated_Source\PSoC5/I2C_1_MASTER.c ****         I2C_1_GENERATE_RESTART_MANUAL;
 544              		.loc 1 428 0
 545 0026 3222     		movs	r2, #50
 546 0028 03F5B873 		add	r3, r3, #368
 547 002c 1A70     		strb	r2, [r3]
 548 002e FF22     		movs	r2, #255
 549 0030 A3F5B073 		sub	r3, r3, #352
 550 0034 1A70     		strb	r2, [r3]
 551 0036 0022     		movs	r2, #0
 552 0038 4033     		adds	r3, r3, #64
 553 003a 1A70     		strb	r2, [r3]
 554              	.L42:
 555              		.loc 1 428 0 is_stmt 0 discriminator 2
 556 003c 0F4B     		ldr	r3, .L46+12
 557 003e 1B78     		ldrb	r3, [r3]	@ zero_extendqisi2
 558 0040 13F0FF0F 		tst	r3, #255
 559 0044 FAD1     		bne	.L42
 560              	.L43:
 429:Generated_Source\PSoC5/I2C_1_MASTER.c **** 
 430:Generated_Source\PSoC5/I2C_1_MASTER.c ****         /* Wait until address has been transferred */
 431:Generated_Source\PSoC5/I2C_1_MASTER.c ****         while(I2C_1_WAIT_BYTE_COMPLETE(I2C_1_CSR_REG))
 561              		.loc 1 431 0 is_stmt 1 discriminator 1
 562 0046 0A4B     		ldr	r3, .L46
 563 0048 1B78     		ldrb	r3, [r3]	@ zero_extendqisi2
 564 004a 13F0010F 		tst	r3, #1
 565 004e FAD0     		beq	.L43
 432:Generated_Source\PSoC5/I2C_1_MASTER.c ****         {
 433:Generated_Source\PSoC5/I2C_1_MASTER.c ****         }
 434:Generated_Source\PSoC5/I2C_1_MASTER.c **** 
 435:Generated_Source\PSoC5/I2C_1_MASTER.c ****     #if(I2C_1_MODE_MULTI_MASTER_ENABLED)
 436:Generated_Source\PSoC5/I2C_1_MASTER.c ****         if(I2C_1_CHECK_LOST_ARB(I2C_1_CSR_REG))
 437:Generated_Source\PSoC5/I2C_1_MASTER.c ****         {
 438:Generated_Source\PSoC5/I2C_1_MASTER.c ****             I2C_1_BUS_RELEASE_MANUAL;
 439:Generated_Source\PSoC5/I2C_1_MASTER.c **** 
 440:Generated_Source\PSoC5/I2C_1_MASTER.c ****             /* Master lost arbitrage: reset FSM to IDLE */
 441:Generated_Source\PSoC5/I2C_1_MASTER.c ****             I2C_1_state = I2C_1_SM_IDLE;
 442:Generated_Source\PSoC5/I2C_1_MASTER.c ****             errStatus = I2C_1_MSTR_ERR_ARB_LOST;
 443:Generated_Source\PSoC5/I2C_1_MASTER.c ****         }
 444:Generated_Source\PSoC5/I2C_1_MASTER.c ****         else
 445:Generated_Source\PSoC5/I2C_1_MASTER.c ****     #endif /* (I2C_1_MODE_MULTI_MASTER_ENABLED) */
 446:Generated_Source\PSoC5/I2C_1_MASTER.c **** 
 447:Generated_Source\PSoC5/I2C_1_MASTER.c ****         if(I2C_1_CHECK_ADDR_NAK(I2C_1_CSR_REG))
 566              		.loc 1 447 0
 567 0050 074B     		ldr	r3, .L46
ARM GAS  C:\Users\HPz420\AppData\Local\Temp\cc4uXrPo.s 			page 19


 568 0052 1B78     		ldrb	r3, [r3]	@ zero_extendqisi2
 569 0054 03F00A03 		and	r3, r3, #10
 570 0058 0A2B     		cmp	r3, #10
 571 005a 06D1     		bne	.L45
 448:Generated_Source\PSoC5/I2C_1_MASTER.c ****         {
 449:Generated_Source\PSoC5/I2C_1_MASTER.c ****             /* Address has been NACKed: reset FSM to IDLE */
 450:Generated_Source\PSoC5/I2C_1_MASTER.c ****             I2C_1_state = I2C_1_SM_IDLE;
 572              		.loc 1 450 0
 573 005c 1022     		movs	r2, #16
 574 005e 054B     		ldr	r3, .L46+4
 575 0060 1A70     		strb	r2, [r3]
 576              	.LVL50:
 451:Generated_Source\PSoC5/I2C_1_MASTER.c ****             errStatus = I2C_1_MSTR_ERR_LB_NAK;
 577              		.loc 1 451 0
 578 0062 0320     		movs	r0, #3
 579              	.LVL51:
 580 0064 7047     		bx	lr
 581              	.LVL52:
 582              	.L44:
 409:Generated_Source\PSoC5/I2C_1_MASTER.c **** 
 583              		.loc 1 409 0
 584 0066 0220     		movs	r0, #2
 585              	.LVL53:
 586 0068 7047     		bx	lr
 587              	.LVL54:
 588              	.L45:
 452:Generated_Source\PSoC5/I2C_1_MASTER.c ****         }
 453:Generated_Source\PSoC5/I2C_1_MASTER.c ****         else
 454:Generated_Source\PSoC5/I2C_1_MASTER.c ****         {
 455:Generated_Source\PSoC5/I2C_1_MASTER.c ****             /* ReStart was sent without errors */
 456:Generated_Source\PSoC5/I2C_1_MASTER.c ****             errStatus = I2C_1_MSTR_NO_ERROR;
 589              		.loc 1 456 0
 590 006a 0020     		movs	r0, #0
 591              	.LVL55:
 457:Generated_Source\PSoC5/I2C_1_MASTER.c ****         }
 458:Generated_Source\PSoC5/I2C_1_MASTER.c ****     }
 459:Generated_Source\PSoC5/I2C_1_MASTER.c **** 
 460:Generated_Source\PSoC5/I2C_1_MASTER.c ****     return(errStatus);
 461:Generated_Source\PSoC5/I2C_1_MASTER.c **** }
 592              		.loc 1 461 0
 593 006c 7047     		bx	lr
 594              	.L47:
 595 006e 00BF     		.align	2
 596              	.L46:
 597 0070 6B650040 		.word	1073767787
 598 0074 00000000 		.word	I2C_1_state
 599 0078 08640040 		.word	1073767432
 600 007c 18640040 		.word	1073767448
 601              		.cfi_endproc
 602              	.LFE3:
 603              		.size	I2C_1_MasterSendRestart, .-I2C_1_MasterSendRestart
 604              		.section	.text.I2C_1_MasterSendStop,"ax",%progbits
 605              		.align	2
 606              		.global	I2C_1_MasterSendStop
 607              		.thumb
 608              		.thumb_func
 609              		.type	I2C_1_MasterSendStop, %function
ARM GAS  C:\Users\HPz420\AppData\Local\Temp\cc4uXrPo.s 			page 20


 610              	I2C_1_MasterSendStop:
 611              	.LFB4:
 462:Generated_Source\PSoC5/I2C_1_MASTER.c **** 
 463:Generated_Source\PSoC5/I2C_1_MASTER.c **** 
 464:Generated_Source\PSoC5/I2C_1_MASTER.c **** /*******************************************************************************
 465:Generated_Source\PSoC5/I2C_1_MASTER.c **** * Function Name: I2C_1_MasterSendStop
 466:Generated_Source\PSoC5/I2C_1_MASTER.c **** ********************************************************************************
 467:Generated_Source\PSoC5/I2C_1_MASTER.c **** *
 468:Generated_Source\PSoC5/I2C_1_MASTER.c **** * Summary:
 469:Generated_Source\PSoC5/I2C_1_MASTER.c **** *  Generates I2C Stop condition on bus. Function do nothing if Start or Restart
 470:Generated_Source\PSoC5/I2C_1_MASTER.c **** *  condition was failed before call this function.
 471:Generated_Source\PSoC5/I2C_1_MASTER.c **** *
 472:Generated_Source\PSoC5/I2C_1_MASTER.c **** * Parameters:
 473:Generated_Source\PSoC5/I2C_1_MASTER.c **** *  None.
 474:Generated_Source\PSoC5/I2C_1_MASTER.c **** *
 475:Generated_Source\PSoC5/I2C_1_MASTER.c **** * Return:
 476:Generated_Source\PSoC5/I2C_1_MASTER.c **** *  Status error - Zero means no errors.
 477:Generated_Source\PSoC5/I2C_1_MASTER.c **** *
 478:Generated_Source\PSoC5/I2C_1_MASTER.c **** * Side Effects:
 479:Generated_Source\PSoC5/I2C_1_MASTER.c **** *  Stop generation is required to complete the transaction.
 480:Generated_Source\PSoC5/I2C_1_MASTER.c **** *  This function does not wait until a Stop condition is generated.
 481:Generated_Source\PSoC5/I2C_1_MASTER.c **** *
 482:Generated_Source\PSoC5/I2C_1_MASTER.c **** * Global variables:
 483:Generated_Source\PSoC5/I2C_1_MASTER.c **** *  I2C_1_state - The global variable used to store a current state of
 484:Generated_Source\PSoC5/I2C_1_MASTER.c **** *                           the software FSM.
 485:Generated_Source\PSoC5/I2C_1_MASTER.c **** *
 486:Generated_Source\PSoC5/I2C_1_MASTER.c **** * Reentrant:
 487:Generated_Source\PSoC5/I2C_1_MASTER.c **** *  No.
 488:Generated_Source\PSoC5/I2C_1_MASTER.c **** *
 489:Generated_Source\PSoC5/I2C_1_MASTER.c **** *******************************************************************************/
 490:Generated_Source\PSoC5/I2C_1_MASTER.c **** uint8 I2C_1_MasterSendStop(void) 
 491:Generated_Source\PSoC5/I2C_1_MASTER.c **** {
 612              		.loc 1 491 0
 613              		.cfi_startproc
 614              		@ args = 0, pretend = 0, frame = 0
 615              		@ frame_needed = 0, uses_anonymous_args = 0
 616              		@ link register save eliminated.
 617              	.LVL56:
 492:Generated_Source\PSoC5/I2C_1_MASTER.c ****     uint8 errStatus;
 493:Generated_Source\PSoC5/I2C_1_MASTER.c **** 
 494:Generated_Source\PSoC5/I2C_1_MASTER.c ****     errStatus = I2C_1_MSTR_NOT_READY;
 495:Generated_Source\PSoC5/I2C_1_MASTER.c **** 
 496:Generated_Source\PSoC5/I2C_1_MASTER.c ****     /* Check if master is active on bus */
 497:Generated_Source\PSoC5/I2C_1_MASTER.c ****     if(I2C_1_CHECK_MASTER_MODE(I2C_1_MCSR_REG))
 618              		.loc 1 497 0
 619 0000 0F4B     		ldr	r3, .L53
 620 0002 1B78     		ldrb	r3, [r3]	@ zero_extendqisi2
 621 0004 13F0040F 		tst	r3, #4
 622 0008 18D0     		beq	.L52
 498:Generated_Source\PSoC5/I2C_1_MASTER.c ****     {
 499:Generated_Source\PSoC5/I2C_1_MASTER.c ****         I2C_1_GENERATE_STOP_MANUAL;
 623              		.loc 1 499 0
 624 000a 5222     		movs	r2, #82
 625 000c 0D4B     		ldr	r3, .L53+4
 626 000e 1A70     		strb	r2, [r3]
 627 0010 FF22     		movs	r2, #255
 628 0012 A3F5B073 		sub	r3, r3, #352
ARM GAS  C:\Users\HPz420\AppData\Local\Temp\cc4uXrPo.s 			page 21


 629 0016 1A70     		strb	r2, [r3]
 630 0018 0022     		movs	r2, #0
 631 001a 4033     		adds	r3, r3, #64
 632 001c 1A70     		strb	r2, [r3]
 633              	.L50:
 634              		.loc 1 499 0 is_stmt 0 discriminator 2
 635 001e 0A4B     		ldr	r3, .L53+8
 636 0020 1B78     		ldrb	r3, [r3]	@ zero_extendqisi2
 637 0022 13F0FF0F 		tst	r3, #255
 638 0026 FAD1     		bne	.L50
 500:Generated_Source\PSoC5/I2C_1_MASTER.c ****         I2C_1_state = I2C_1_SM_IDLE;
 639              		.loc 1 500 0 is_stmt 1
 640 0028 1022     		movs	r2, #16
 641 002a 084B     		ldr	r3, .L53+12
 642 002c 1A70     		strb	r2, [r3]
 643              	.L51:
 501:Generated_Source\PSoC5/I2C_1_MASTER.c **** 
 502:Generated_Source\PSoC5/I2C_1_MASTER.c ****         /* Wait until stop has been generated */
 503:Generated_Source\PSoC5/I2C_1_MASTER.c ****         while(I2C_1_WAIT_STOP_COMPLETE(I2C_1_CSR_REG))
 644              		.loc 1 503 0 discriminator 1
 645 002e 044B     		ldr	r3, .L53
 646 0030 1B78     		ldrb	r3, [r3]	@ zero_extendqisi2
 647 0032 13F0210F 		tst	r3, #33
 648 0036 FAD0     		beq	.L51
 504:Generated_Source\PSoC5/I2C_1_MASTER.c ****         {
 505:Generated_Source\PSoC5/I2C_1_MASTER.c ****         }
 506:Generated_Source\PSoC5/I2C_1_MASTER.c **** 
 507:Generated_Source\PSoC5/I2C_1_MASTER.c ****         errStatus = I2C_1_MSTR_NO_ERROR;
 649              		.loc 1 507 0
 650 0038 0020     		movs	r0, #0
 651 003a 7047     		bx	lr
 652              	.L52:
 494:Generated_Source\PSoC5/I2C_1_MASTER.c **** 
 653              		.loc 1 494 0
 654 003c 0220     		movs	r0, #2
 655              	.LVL57:
 508:Generated_Source\PSoC5/I2C_1_MASTER.c **** 
 509:Generated_Source\PSoC5/I2C_1_MASTER.c ****     #if(I2C_1_MODE_MULTI_MASTER_ENABLED)
 510:Generated_Source\PSoC5/I2C_1_MASTER.c ****         if(I2C_1_CHECK_LOST_ARB(I2C_1_CSR_REG))
 511:Generated_Source\PSoC5/I2C_1_MASTER.c ****         {
 512:Generated_Source\PSoC5/I2C_1_MASTER.c ****             I2C_1_BUS_RELEASE_MANUAL;
 513:Generated_Source\PSoC5/I2C_1_MASTER.c **** 
 514:Generated_Source\PSoC5/I2C_1_MASTER.c ****             /* NACK was generated by instead Stop */
 515:Generated_Source\PSoC5/I2C_1_MASTER.c ****             errStatus = I2C_1_MSTR_ERR_ARB_LOST;
 516:Generated_Source\PSoC5/I2C_1_MASTER.c ****         }
 517:Generated_Source\PSoC5/I2C_1_MASTER.c ****     #endif /* (I2C_1_MODE_MULTI_MASTER_ENABLED) */
 518:Generated_Source\PSoC5/I2C_1_MASTER.c ****     }
 519:Generated_Source\PSoC5/I2C_1_MASTER.c **** 
 520:Generated_Source\PSoC5/I2C_1_MASTER.c ****     return(errStatus);
 521:Generated_Source\PSoC5/I2C_1_MASTER.c **** }
 656              		.loc 1 521 0
 657 003e 7047     		bx	lr
 658              	.L54:
 659              		.align	2
 660              	.L53:
 661 0040 6B650040 		.word	1073767787
 662 0044 78650040 		.word	1073767800
ARM GAS  C:\Users\HPz420\AppData\Local\Temp\cc4uXrPo.s 			page 22


 663 0048 18640040 		.word	1073767448
 664 004c 00000000 		.word	I2C_1_state
 665              		.cfi_endproc
 666              	.LFE4:
 667              		.size	I2C_1_MasterSendStop, .-I2C_1_MasterSendStop
 668              		.section	.text.I2C_1_MasterWriteByte,"ax",%progbits
 669              		.align	2
 670              		.global	I2C_1_MasterWriteByte
 671              		.thumb
 672              		.thumb_func
 673              		.type	I2C_1_MasterWriteByte, %function
 674              	I2C_1_MasterWriteByte:
 675              	.LFB5:
 522:Generated_Source\PSoC5/I2C_1_MASTER.c **** 
 523:Generated_Source\PSoC5/I2C_1_MASTER.c **** 
 524:Generated_Source\PSoC5/I2C_1_MASTER.c **** /*******************************************************************************
 525:Generated_Source\PSoC5/I2C_1_MASTER.c **** * Function Name: I2C_1_MasterWriteByte
 526:Generated_Source\PSoC5/I2C_1_MASTER.c **** ********************************************************************************
 527:Generated_Source\PSoC5/I2C_1_MASTER.c **** *
 528:Generated_Source\PSoC5/I2C_1_MASTER.c **** * Summary:
 529:Generated_Source\PSoC5/I2C_1_MASTER.c **** *  Sends one byte to a slave. A valid Start or ReStart condition must be
 530:Generated_Source\PSoC5/I2C_1_MASTER.c **** *  generated before this call this function. Function do nothing if Start or
 531:Generated_Source\PSoC5/I2C_1_MASTER.c **** *  Restart condition was failed before call this function.
 532:Generated_Source\PSoC5/I2C_1_MASTER.c **** *
 533:Generated_Source\PSoC5/I2C_1_MASTER.c **** * Parameters:
 534:Generated_Source\PSoC5/I2C_1_MASTER.c **** *  data:  The data byte to send to the slave.
 535:Generated_Source\PSoC5/I2C_1_MASTER.c **** *
 536:Generated_Source\PSoC5/I2C_1_MASTER.c **** * Return:
 537:Generated_Source\PSoC5/I2C_1_MASTER.c **** *  Status error - Zero means no errors.
 538:Generated_Source\PSoC5/I2C_1_MASTER.c **** *
 539:Generated_Source\PSoC5/I2C_1_MASTER.c **** * Side Effects:
 540:Generated_Source\PSoC5/I2C_1_MASTER.c **** *  This function is entered without a "byte complete" bit set in the I2C_CSR
 541:Generated_Source\PSoC5/I2C_1_MASTER.c **** *  register. It does not exit until it is set.
 542:Generated_Source\PSoC5/I2C_1_MASTER.c **** *
 543:Generated_Source\PSoC5/I2C_1_MASTER.c **** * Global variables:
 544:Generated_Source\PSoC5/I2C_1_MASTER.c **** *  I2C_1_state - The global variable used to store a current state of
 545:Generated_Source\PSoC5/I2C_1_MASTER.c **** *                           the software FSM.
 546:Generated_Source\PSoC5/I2C_1_MASTER.c **** *
 547:Generated_Source\PSoC5/I2C_1_MASTER.c **** *******************************************************************************/
 548:Generated_Source\PSoC5/I2C_1_MASTER.c **** uint8 I2C_1_MasterWriteByte(uint8 theByte) 
 549:Generated_Source\PSoC5/I2C_1_MASTER.c **** {
 676              		.loc 1 549 0
 677              		.cfi_startproc
 678              		@ args = 0, pretend = 0, frame = 0
 679              		@ frame_needed = 0, uses_anonymous_args = 0
 680              		@ link register save eliminated.
 681              	.LVL58:
 550:Generated_Source\PSoC5/I2C_1_MASTER.c ****     uint8 errStatus;
 551:Generated_Source\PSoC5/I2C_1_MASTER.c **** 
 552:Generated_Source\PSoC5/I2C_1_MASTER.c ****     errStatus = I2C_1_MSTR_NOT_READY;
 553:Generated_Source\PSoC5/I2C_1_MASTER.c **** 
 554:Generated_Source\PSoC5/I2C_1_MASTER.c ****     /* Check if START condition was generated */
 555:Generated_Source\PSoC5/I2C_1_MASTER.c ****     if(I2C_1_CHECK_MASTER_MODE(I2C_1_MCSR_REG))
 682              		.loc 1 555 0
 683 0000 174B     		ldr	r3, .L61
 684 0002 1B78     		ldrb	r3, [r3]	@ zero_extendqisi2
 685 0004 13F0040F 		tst	r3, #4
ARM GAS  C:\Users\HPz420\AppData\Local\Temp\cc4uXrPo.s 			page 23


 686 0008 28D0     		beq	.L60
 556:Generated_Source\PSoC5/I2C_1_MASTER.c ****     {
 557:Generated_Source\PSoC5/I2C_1_MASTER.c ****         I2C_1_DATA_REG = theByte;   /* Write DATA register */
 687              		.loc 1 557 0
 688 000a 164B     		ldr	r3, .L61+4
 689 000c 1870     		strb	r0, [r3]
 558:Generated_Source\PSoC5/I2C_1_MASTER.c ****         I2C_1_TRANSMIT_DATA_MANUAL; /* Set transmit mode   */
 690              		.loc 1 558 0
 691 000e 0622     		movs	r2, #6
 692 0010 03F5B873 		add	r3, r3, #368
 693 0014 1A70     		strb	r2, [r3]
 694 0016 FF22     		movs	r2, #255
 695 0018 A3F5B073 		sub	r3, r3, #352
 696 001c 1A70     		strb	r2, [r3]
 697 001e 0022     		movs	r2, #0
 698 0020 4033     		adds	r3, r3, #64
 699 0022 1A70     		strb	r2, [r3]
 700              	.L57:
 701              		.loc 1 558 0 is_stmt 0 discriminator 2
 702 0024 104B     		ldr	r3, .L61+8
 703 0026 1B78     		ldrb	r3, [r3]	@ zero_extendqisi2
 704 0028 13F0FF0F 		tst	r3, #255
 705 002c FAD1     		bne	.L57
 559:Generated_Source\PSoC5/I2C_1_MASTER.c ****         I2C_1_state = I2C_1_SM_MSTR_WR_DATA;
 706              		.loc 1 559 0 is_stmt 1
 707 002e 4622     		movs	r2, #70
 708 0030 0E4B     		ldr	r3, .L61+12
 709 0032 1A70     		strb	r2, [r3]
 710              	.L58:
 560:Generated_Source\PSoC5/I2C_1_MASTER.c **** 
 561:Generated_Source\PSoC5/I2C_1_MASTER.c ****         /* Wait until data byte has been transmitted */
 562:Generated_Source\PSoC5/I2C_1_MASTER.c ****         while(I2C_1_WAIT_BYTE_COMPLETE(I2C_1_CSR_REG))
 711              		.loc 1 562 0 discriminator 1
 712 0034 0A4B     		ldr	r3, .L61
 713 0036 1B78     		ldrb	r3, [r3]	@ zero_extendqisi2
 714 0038 13F0010F 		tst	r3, #1
 715 003c FAD0     		beq	.L58
 563:Generated_Source\PSoC5/I2C_1_MASTER.c ****         {
 564:Generated_Source\PSoC5/I2C_1_MASTER.c ****         }
 565:Generated_Source\PSoC5/I2C_1_MASTER.c **** 
 566:Generated_Source\PSoC5/I2C_1_MASTER.c ****     #if(I2C_1_MODE_MULTI_MASTER_ENABLED)
 567:Generated_Source\PSoC5/I2C_1_MASTER.c ****         if(I2C_1_CHECK_LOST_ARB(I2C_1_CSR_REG))
 568:Generated_Source\PSoC5/I2C_1_MASTER.c ****         {
 569:Generated_Source\PSoC5/I2C_1_MASTER.c ****             I2C_1_BUS_RELEASE_MANUAL;
 570:Generated_Source\PSoC5/I2C_1_MASTER.c **** 
 571:Generated_Source\PSoC5/I2C_1_MASTER.c ****             /* Master lost arbitrage: reset FSM to IDLE */
 572:Generated_Source\PSoC5/I2C_1_MASTER.c ****             I2C_1_state = I2C_1_SM_IDLE;
 573:Generated_Source\PSoC5/I2C_1_MASTER.c ****             errStatus = I2C_1_MSTR_ERR_ARB_LOST;
 574:Generated_Source\PSoC5/I2C_1_MASTER.c ****         }
 575:Generated_Source\PSoC5/I2C_1_MASTER.c ****         /* Check LRB bit */
 576:Generated_Source\PSoC5/I2C_1_MASTER.c ****         else
 577:Generated_Source\PSoC5/I2C_1_MASTER.c ****     #endif /* (I2C_1_MODE_MULTI_MASTER_ENABLED) */
 578:Generated_Source\PSoC5/I2C_1_MASTER.c **** 
 579:Generated_Source\PSoC5/I2C_1_MASTER.c ****         if(I2C_1_CHECK_DATA_ACK(I2C_1_CSR_REG))
 716              		.loc 1 579 0
 717 003e 084B     		ldr	r3, .L61
 718 0040 1B78     		ldrb	r3, [r3]	@ zero_extendqisi2
ARM GAS  C:\Users\HPz420\AppData\Local\Temp\cc4uXrPo.s 			page 24


 719 0042 13F0020F 		tst	r3, #2
 720 0046 04D1     		bne	.L59
 580:Generated_Source\PSoC5/I2C_1_MASTER.c ****         {
 581:Generated_Source\PSoC5/I2C_1_MASTER.c ****             I2C_1_state = I2C_1_SM_MSTR_HALT;
 721              		.loc 1 581 0
 722 0048 6022     		movs	r2, #96
 723 004a 084B     		ldr	r3, .L61+12
 724 004c 1A70     		strb	r2, [r3]
 725              	.LVL59:
 582:Generated_Source\PSoC5/I2C_1_MASTER.c ****             errStatus = I2C_1_MSTR_NO_ERROR;
 726              		.loc 1 582 0
 727 004e 0020     		movs	r0, #0
 728              	.LVL60:
 729 0050 7047     		bx	lr
 730              	.LVL61:
 731              	.L59:
 583:Generated_Source\PSoC5/I2C_1_MASTER.c ****         }
 584:Generated_Source\PSoC5/I2C_1_MASTER.c ****         else
 585:Generated_Source\PSoC5/I2C_1_MASTER.c ****         {
 586:Generated_Source\PSoC5/I2C_1_MASTER.c ****             I2C_1_state = I2C_1_SM_MSTR_HALT;
 732              		.loc 1 586 0
 733 0052 6022     		movs	r2, #96
 734 0054 054B     		ldr	r3, .L61+12
 735 0056 1A70     		strb	r2, [r3]
 736              	.LVL62:
 587:Generated_Source\PSoC5/I2C_1_MASTER.c ****             errStatus = I2C_1_MSTR_ERR_LB_NAK;
 737              		.loc 1 587 0
 738 0058 0320     		movs	r0, #3
 739              	.LVL63:
 740 005a 7047     		bx	lr
 741              	.LVL64:
 742              	.L60:
 552:Generated_Source\PSoC5/I2C_1_MASTER.c **** 
 743              		.loc 1 552 0
 744 005c 0220     		movs	r0, #2
 745              	.LVL65:
 588:Generated_Source\PSoC5/I2C_1_MASTER.c ****         }
 589:Generated_Source\PSoC5/I2C_1_MASTER.c ****     }
 590:Generated_Source\PSoC5/I2C_1_MASTER.c **** 
 591:Generated_Source\PSoC5/I2C_1_MASTER.c ****     return(errStatus);
 592:Generated_Source\PSoC5/I2C_1_MASTER.c **** }
 746              		.loc 1 592 0
 747 005e 7047     		bx	lr
 748              	.L62:
 749              		.align	2
 750              	.L61:
 751 0060 6B650040 		.word	1073767787
 752 0064 08640040 		.word	1073767432
 753 0068 18640040 		.word	1073767448
 754 006c 00000000 		.word	I2C_1_state
 755              		.cfi_endproc
 756              	.LFE5:
 757              		.size	I2C_1_MasterWriteByte, .-I2C_1_MasterWriteByte
 758              		.section	.text.I2C_1_MasterReadByte,"ax",%progbits
 759              		.align	2
 760              		.global	I2C_1_MasterReadByte
 761              		.thumb
ARM GAS  C:\Users\HPz420\AppData\Local\Temp\cc4uXrPo.s 			page 25


 762              		.thumb_func
 763              		.type	I2C_1_MasterReadByte, %function
 764              	I2C_1_MasterReadByte:
 765              	.LFB6:
 593:Generated_Source\PSoC5/I2C_1_MASTER.c **** 
 594:Generated_Source\PSoC5/I2C_1_MASTER.c **** 
 595:Generated_Source\PSoC5/I2C_1_MASTER.c **** /*******************************************************************************
 596:Generated_Source\PSoC5/I2C_1_MASTER.c **** * Function Name: I2C_1_MasterReadByte
 597:Generated_Source\PSoC5/I2C_1_MASTER.c **** ********************************************************************************
 598:Generated_Source\PSoC5/I2C_1_MASTER.c **** *
 599:Generated_Source\PSoC5/I2C_1_MASTER.c **** * Summary:
 600:Generated_Source\PSoC5/I2C_1_MASTER.c **** *  Reads one byte from a slave and ACK or NACK the transfer. A valid Start or
 601:Generated_Source\PSoC5/I2C_1_MASTER.c **** *  ReStart condition must be generated before this call this function. Function
 602:Generated_Source\PSoC5/I2C_1_MASTER.c **** *  do nothing if Start or Restart condition was failed before call this
 603:Generated_Source\PSoC5/I2C_1_MASTER.c **** *  function.
 604:Generated_Source\PSoC5/I2C_1_MASTER.c **** *
 605:Generated_Source\PSoC5/I2C_1_MASTER.c **** * Parameters:
 606:Generated_Source\PSoC5/I2C_1_MASTER.c **** *  acknNack:  Zero, response with NACK, if non-zero response with ACK.
 607:Generated_Source\PSoC5/I2C_1_MASTER.c **** *
 608:Generated_Source\PSoC5/I2C_1_MASTER.c **** * Return:
 609:Generated_Source\PSoC5/I2C_1_MASTER.c **** *  Byte read from slave.
 610:Generated_Source\PSoC5/I2C_1_MASTER.c **** *
 611:Generated_Source\PSoC5/I2C_1_MASTER.c **** * Side Effects:
 612:Generated_Source\PSoC5/I2C_1_MASTER.c **** *  This function is entered without a "byte complete" bit set in the I2C_CSR
 613:Generated_Source\PSoC5/I2C_1_MASTER.c **** *  register. It does not exit until it is set.
 614:Generated_Source\PSoC5/I2C_1_MASTER.c **** *
 615:Generated_Source\PSoC5/I2C_1_MASTER.c **** * Global variables:
 616:Generated_Source\PSoC5/I2C_1_MASTER.c **** *  I2C_1_state - The global variable used to store a current
 617:Generated_Source\PSoC5/I2C_1_MASTER.c **** *                           state of the software FSM.
 618:Generated_Source\PSoC5/I2C_1_MASTER.c **** *
 619:Generated_Source\PSoC5/I2C_1_MASTER.c **** * Reentrant:
 620:Generated_Source\PSoC5/I2C_1_MASTER.c **** *  No.
 621:Generated_Source\PSoC5/I2C_1_MASTER.c **** *
 622:Generated_Source\PSoC5/I2C_1_MASTER.c **** *******************************************************************************/
 623:Generated_Source\PSoC5/I2C_1_MASTER.c **** uint8 I2C_1_MasterReadByte(uint8 acknNak) 
 624:Generated_Source\PSoC5/I2C_1_MASTER.c **** {
 766              		.loc 1 624 0
 767              		.cfi_startproc
 768              		@ args = 0, pretend = 0, frame = 0
 769              		@ frame_needed = 0, uses_anonymous_args = 0
 770              		@ link register save eliminated.
 771              	.LVL66:
 625:Generated_Source\PSoC5/I2C_1_MASTER.c ****     uint8 theByte;
 626:Generated_Source\PSoC5/I2C_1_MASTER.c **** 
 627:Generated_Source\PSoC5/I2C_1_MASTER.c ****     theByte = 0u;
 628:Generated_Source\PSoC5/I2C_1_MASTER.c **** 
 629:Generated_Source\PSoC5/I2C_1_MASTER.c ****     /* Check if START condition was generated */
 630:Generated_Source\PSoC5/I2C_1_MASTER.c ****     if(I2C_1_CHECK_MASTER_MODE(I2C_1_MCSR_REG))
 772              		.loc 1 630 0
 773 0000 1E4B     		ldr	r3, .L71
 774 0002 1B78     		ldrb	r3, [r3]	@ zero_extendqisi2
 775 0004 13F0040F 		tst	r3, #4
 776 0008 34D0     		beq	.L70
 631:Generated_Source\PSoC5/I2C_1_MASTER.c ****     {
 632:Generated_Source\PSoC5/I2C_1_MASTER.c ****         /* When address phase needs to release bus and receive byte,
 633:Generated_Source\PSoC5/I2C_1_MASTER.c ****         * then decide ACK or NACK
 634:Generated_Source\PSoC5/I2C_1_MASTER.c ****         */
ARM GAS  C:\Users\HPz420\AppData\Local\Temp\cc4uXrPo.s 			page 26


 635:Generated_Source\PSoC5/I2C_1_MASTER.c ****         if(I2C_1_SM_MSTR_RD_ADDR == I2C_1_state)
 777              		.loc 1 635 0
 778 000a 1D4B     		ldr	r3, .L71+4
 779 000c 1B78     		ldrb	r3, [r3]	@ zero_extendqisi2
 780 000e DBB2     		uxtb	r3, r3
 781 0010 492B     		cmp	r3, #73
 782 0012 11D1     		bne	.L67
 636:Generated_Source\PSoC5/I2C_1_MASTER.c ****         {
 637:Generated_Source\PSoC5/I2C_1_MASTER.c ****             I2C_1_READY_TO_READ_MANUAL;
 783              		.loc 1 637 0
 784 0014 0222     		movs	r2, #2
 785 0016 1B4B     		ldr	r3, .L71+8
 786 0018 1A70     		strb	r2, [r3]
 787 001a FF22     		movs	r2, #255
 788 001c A3F5B073 		sub	r3, r3, #352
 789 0020 1A70     		strb	r2, [r3]
 790 0022 0022     		movs	r2, #0
 791 0024 4033     		adds	r3, r3, #64
 792 0026 1A70     		strb	r2, [r3]
 793              	.L66:
 794              		.loc 1 637 0 is_stmt 0 discriminator 2
 795 0028 174B     		ldr	r3, .L71+12
 796 002a 1B78     		ldrb	r3, [r3]	@ zero_extendqisi2
 797 002c 13F0FF0F 		tst	r3, #255
 798 0030 FAD1     		bne	.L66
 638:Generated_Source\PSoC5/I2C_1_MASTER.c ****             I2C_1_state = I2C_1_SM_MSTR_RD_DATA;
 799              		.loc 1 638 0 is_stmt 1
 800 0032 4A22     		movs	r2, #74
 801 0034 124B     		ldr	r3, .L71+4
 802 0036 1A70     		strb	r2, [r3]
 803              	.L67:
 639:Generated_Source\PSoC5/I2C_1_MASTER.c ****         }
 640:Generated_Source\PSoC5/I2C_1_MASTER.c **** 
 641:Generated_Source\PSoC5/I2C_1_MASTER.c ****         /* Wait until data byte has been received */
 642:Generated_Source\PSoC5/I2C_1_MASTER.c ****         while(I2C_1_WAIT_BYTE_COMPLETE(I2C_1_CSR_REG))
 804              		.loc 1 642 0 discriminator 1
 805 0038 104B     		ldr	r3, .L71
 806 003a 1B78     		ldrb	r3, [r3]	@ zero_extendqisi2
 807 003c 13F0010F 		tst	r3, #1
 808 0040 FAD0     		beq	.L67
 643:Generated_Source\PSoC5/I2C_1_MASTER.c ****         {
 644:Generated_Source\PSoC5/I2C_1_MASTER.c ****         }
 645:Generated_Source\PSoC5/I2C_1_MASTER.c **** 
 646:Generated_Source\PSoC5/I2C_1_MASTER.c ****         theByte = I2C_1_DATA_REG;
 809              		.loc 1 646 0
 810 0042 124B     		ldr	r3, .L71+16
 811 0044 1A78     		ldrb	r2, [r3]	@ zero_extendqisi2
 812 0046 D2B2     		uxtb	r2, r2
 813              	.LVL67:
 647:Generated_Source\PSoC5/I2C_1_MASTER.c **** 
 648:Generated_Source\PSoC5/I2C_1_MASTER.c ****         /* Command ACK to receive next byte and continue transfer.
 649:Generated_Source\PSoC5/I2C_1_MASTER.c ****         *  Do nothing for NACK. The NACK will be generated by
 650:Generated_Source\PSoC5/I2C_1_MASTER.c ****         *  Stop or ReStart routine.
 651:Generated_Source\PSoC5/I2C_1_MASTER.c ****         */
 652:Generated_Source\PSoC5/I2C_1_MASTER.c ****         if(acknNak != 0u) /* Generate ACK */
 814              		.loc 1 652 0
 815 0048 80B1     		cbz	r0, .L68
ARM GAS  C:\Users\HPz420\AppData\Local\Temp\cc4uXrPo.s 			page 27


 653:Generated_Source\PSoC5/I2C_1_MASTER.c ****         {
 654:Generated_Source\PSoC5/I2C_1_MASTER.c ****             I2C_1_ACK_AND_RECEIVE_MANUAL;
 816              		.loc 1 654 0
 817 004a 0221     		movs	r1, #2
 818 004c 03F5B873 		add	r3, r3, #368
 819 0050 1970     		strb	r1, [r3]
 820 0052 FF21     		movs	r1, #255
 821 0054 A3F5B073 		sub	r3, r3, #352
 822 0058 1970     		strb	r1, [r3]
 823 005a 0021     		movs	r1, #0
 824 005c 4033     		adds	r3, r3, #64
 825 005e 1970     		strb	r1, [r3]
 826              	.L69:
 827              		.loc 1 654 0 is_stmt 0 discriminator 2
 828 0060 094B     		ldr	r3, .L71+12
 829 0062 1B78     		ldrb	r3, [r3]	@ zero_extendqisi2
 830 0064 13F0FF0F 		tst	r3, #255
 831 0068 FAD1     		bne	.L69
 832 006a 04E0     		b	.L64
 833              	.L68:
 655:Generated_Source\PSoC5/I2C_1_MASTER.c ****         }
 656:Generated_Source\PSoC5/I2C_1_MASTER.c ****         else              /* Do nothing for the follwong NACK */
 657:Generated_Source\PSoC5/I2C_1_MASTER.c ****         {
 658:Generated_Source\PSoC5/I2C_1_MASTER.c ****             I2C_1_state = I2C_1_SM_MSTR_HALT;
 834              		.loc 1 658 0 is_stmt 1
 835 006c 6021     		movs	r1, #96
 836 006e 044B     		ldr	r3, .L71+4
 837 0070 1970     		strb	r1, [r3]
 838 0072 00E0     		b	.L64
 839              	.LVL68:
 840              	.L70:
 627:Generated_Source\PSoC5/I2C_1_MASTER.c **** 
 841              		.loc 1 627 0
 842 0074 0022     		movs	r2, #0
 843              	.LVL69:
 844              	.L64:
 659:Generated_Source\PSoC5/I2C_1_MASTER.c ****         }
 660:Generated_Source\PSoC5/I2C_1_MASTER.c ****     }
 661:Generated_Source\PSoC5/I2C_1_MASTER.c **** 
 662:Generated_Source\PSoC5/I2C_1_MASTER.c ****     return(theByte);
 663:Generated_Source\PSoC5/I2C_1_MASTER.c **** }
 845              		.loc 1 663 0
 846 0076 1046     		mov	r0, r2
 847              	.LVL70:
 848 0078 7047     		bx	lr
 849              	.L72:
 850 007a 00BF     		.align	2
 851              	.L71:
 852 007c 6B650040 		.word	1073767787
 853 0080 00000000 		.word	I2C_1_state
 854 0084 78650040 		.word	1073767800
 855 0088 18640040 		.word	1073767448
 856 008c 08640040 		.word	1073767432
 857              		.cfi_endproc
 858              	.LFE6:
 859              		.size	I2C_1_MasterReadByte, .-I2C_1_MasterReadByte
 860              		.section	.text.I2C_1_MasterStatus,"ax",%progbits
ARM GAS  C:\Users\HPz420\AppData\Local\Temp\cc4uXrPo.s 			page 28


 861              		.align	2
 862              		.global	I2C_1_MasterStatus
 863              		.thumb
 864              		.thumb_func
 865              		.type	I2C_1_MasterStatus, %function
 866              	I2C_1_MasterStatus:
 867              	.LFB7:
 664:Generated_Source\PSoC5/I2C_1_MASTER.c **** 
 665:Generated_Source\PSoC5/I2C_1_MASTER.c **** 
 666:Generated_Source\PSoC5/I2C_1_MASTER.c **** /*******************************************************************************
 667:Generated_Source\PSoC5/I2C_1_MASTER.c **** * Function Name: I2C_1_MasterStatus
 668:Generated_Source\PSoC5/I2C_1_MASTER.c **** ********************************************************************************
 669:Generated_Source\PSoC5/I2C_1_MASTER.c **** *
 670:Generated_Source\PSoC5/I2C_1_MASTER.c **** * Summary:
 671:Generated_Source\PSoC5/I2C_1_MASTER.c **** *  Returns the master's communication status.
 672:Generated_Source\PSoC5/I2C_1_MASTER.c **** *
 673:Generated_Source\PSoC5/I2C_1_MASTER.c **** * Parameters:
 674:Generated_Source\PSoC5/I2C_1_MASTER.c **** *  None.
 675:Generated_Source\PSoC5/I2C_1_MASTER.c **** *
 676:Generated_Source\PSoC5/I2C_1_MASTER.c **** * Return:
 677:Generated_Source\PSoC5/I2C_1_MASTER.c **** *  Current status of I2C master.
 678:Generated_Source\PSoC5/I2C_1_MASTER.c **** *
 679:Generated_Source\PSoC5/I2C_1_MASTER.c **** * Global variables:
 680:Generated_Source\PSoC5/I2C_1_MASTER.c **** *  I2C_1_mstrStatus - The global variable used to store a current
 681:Generated_Source\PSoC5/I2C_1_MASTER.c **** *                                status of the I2C Master.
 682:Generated_Source\PSoC5/I2C_1_MASTER.c **** *
 683:Generated_Source\PSoC5/I2C_1_MASTER.c **** *******************************************************************************/
 684:Generated_Source\PSoC5/I2C_1_MASTER.c **** uint8 I2C_1_MasterStatus(void) 
 685:Generated_Source\PSoC5/I2C_1_MASTER.c **** {
 868              		.loc 1 685 0
 869              		.cfi_startproc
 870              		@ args = 0, pretend = 0, frame = 0
 871              		@ frame_needed = 0, uses_anonymous_args = 0
 872              		@ link register save eliminated.
 686:Generated_Source\PSoC5/I2C_1_MASTER.c ****     uint8 status;
 687:Generated_Source\PSoC5/I2C_1_MASTER.c **** 
 688:Generated_Source\PSoC5/I2C_1_MASTER.c ****     I2C_1_DisableInt(); /* Lock from interrupt */
 873              		.loc 1 688 0
 874 0000 0222     		movs	r2, #2
 875 0002 084B     		ldr	r3, .L75
 876 0004 1A60     		str	r2, [r3]
 689:Generated_Source\PSoC5/I2C_1_MASTER.c **** 
 690:Generated_Source\PSoC5/I2C_1_MASTER.c ****     /* Read master status */
 691:Generated_Source\PSoC5/I2C_1_MASTER.c ****     status = I2C_1_mstrStatus;
 877              		.loc 1 691 0
 878 0006 084B     		ldr	r3, .L75+4
 879 0008 1878     		ldrb	r0, [r3]	@ zero_extendqisi2
 880 000a C0B2     		uxtb	r0, r0
 881              	.LVL71:
 692:Generated_Source\PSoC5/I2C_1_MASTER.c **** 
 693:Generated_Source\PSoC5/I2C_1_MASTER.c ****     if (I2C_1_CHECK_SM_MASTER)
 882              		.loc 1 693 0
 883 000c 074B     		ldr	r3, .L75+8
 884 000e 1B78     		ldrb	r3, [r3]	@ zero_extendqisi2
 885 0010 13F0400F 		tst	r3, #64
 886 0014 01D0     		beq	.L74
 694:Generated_Source\PSoC5/I2C_1_MASTER.c ****     {
ARM GAS  C:\Users\HPz420\AppData\Local\Temp\cc4uXrPo.s 			page 29


 695:Generated_Source\PSoC5/I2C_1_MASTER.c ****         /* Set transfer in progress flag in status */
 696:Generated_Source\PSoC5/I2C_1_MASTER.c ****         status |= I2C_1_MSTAT_XFER_INP;
 887              		.loc 1 696 0
 888 0016 40F00400 		orr	r0, r0, #4
 889              	.LVL72:
 890              	.L74:
 697:Generated_Source\PSoC5/I2C_1_MASTER.c ****     }
 698:Generated_Source\PSoC5/I2C_1_MASTER.c **** 
 699:Generated_Source\PSoC5/I2C_1_MASTER.c ****     I2C_1_EnableInt(); /* Release lock */
 891              		.loc 1 699 0
 892 001a 0222     		movs	r2, #2
 893 001c 044B     		ldr	r3, .L75+12
 894 001e 1A60     		str	r2, [r3]
 700:Generated_Source\PSoC5/I2C_1_MASTER.c **** 
 701:Generated_Source\PSoC5/I2C_1_MASTER.c ****     return (status);
 702:Generated_Source\PSoC5/I2C_1_MASTER.c **** }
 895              		.loc 1 702 0
 896 0020 7047     		bx	lr
 897              	.L76:
 898 0022 00BF     		.align	2
 899              	.L75:
 900 0024 80E100E0 		.word	-536813184
 901 0028 00000000 		.word	I2C_1_mstrStatus
 902 002c 00000000 		.word	I2C_1_state
 903 0030 00E100E0 		.word	-536813312
 904              		.cfi_endproc
 905              	.LFE7:
 906              		.size	I2C_1_MasterStatus, .-I2C_1_MasterStatus
 907              		.section	.text.I2C_1_MasterClearStatus,"ax",%progbits
 908              		.align	2
 909              		.global	I2C_1_MasterClearStatus
 910              		.thumb
 911              		.thumb_func
 912              		.type	I2C_1_MasterClearStatus, %function
 913              	I2C_1_MasterClearStatus:
 914              	.LFB8:
 703:Generated_Source\PSoC5/I2C_1_MASTER.c **** 
 704:Generated_Source\PSoC5/I2C_1_MASTER.c **** 
 705:Generated_Source\PSoC5/I2C_1_MASTER.c **** /*******************************************************************************
 706:Generated_Source\PSoC5/I2C_1_MASTER.c **** * Function Name: I2C_1_MasterClearStatus
 707:Generated_Source\PSoC5/I2C_1_MASTER.c **** ********************************************************************************
 708:Generated_Source\PSoC5/I2C_1_MASTER.c **** *
 709:Generated_Source\PSoC5/I2C_1_MASTER.c **** * Summary:
 710:Generated_Source\PSoC5/I2C_1_MASTER.c **** *  Clears all status flags and returns the master status.
 711:Generated_Source\PSoC5/I2C_1_MASTER.c **** *
 712:Generated_Source\PSoC5/I2C_1_MASTER.c **** * Parameters:
 713:Generated_Source\PSoC5/I2C_1_MASTER.c **** *  None.
 714:Generated_Source\PSoC5/I2C_1_MASTER.c **** *
 715:Generated_Source\PSoC5/I2C_1_MASTER.c **** * Return:
 716:Generated_Source\PSoC5/I2C_1_MASTER.c **** *  Current status of I2C master.
 717:Generated_Source\PSoC5/I2C_1_MASTER.c **** *
 718:Generated_Source\PSoC5/I2C_1_MASTER.c **** * Global variables:
 719:Generated_Source\PSoC5/I2C_1_MASTER.c **** *  I2C_1_mstrStatus - The global variable used to store a current
 720:Generated_Source\PSoC5/I2C_1_MASTER.c **** *                                status of the I2C Master.
 721:Generated_Source\PSoC5/I2C_1_MASTER.c **** *
 722:Generated_Source\PSoC5/I2C_1_MASTER.c **** * Reentrant:
 723:Generated_Source\PSoC5/I2C_1_MASTER.c **** *  No.
ARM GAS  C:\Users\HPz420\AppData\Local\Temp\cc4uXrPo.s 			page 30


 724:Generated_Source\PSoC5/I2C_1_MASTER.c **** *
 725:Generated_Source\PSoC5/I2C_1_MASTER.c **** *******************************************************************************/
 726:Generated_Source\PSoC5/I2C_1_MASTER.c **** uint8 I2C_1_MasterClearStatus(void) 
 727:Generated_Source\PSoC5/I2C_1_MASTER.c **** {
 915              		.loc 1 727 0
 916              		.cfi_startproc
 917              		@ args = 0, pretend = 0, frame = 0
 918              		@ frame_needed = 0, uses_anonymous_args = 0
 919              		@ link register save eliminated.
 728:Generated_Source\PSoC5/I2C_1_MASTER.c ****     uint8 status;
 729:Generated_Source\PSoC5/I2C_1_MASTER.c **** 
 730:Generated_Source\PSoC5/I2C_1_MASTER.c ****     I2C_1_DisableInt(); /* Lock from interrupt */
 920              		.loc 1 730 0
 921 0000 0223     		movs	r3, #2
 922 0002 044A     		ldr	r2, .L78
 923 0004 1360     		str	r3, [r2]
 731:Generated_Source\PSoC5/I2C_1_MASTER.c **** 
 732:Generated_Source\PSoC5/I2C_1_MASTER.c ****     /* Read and clear master status */
 733:Generated_Source\PSoC5/I2C_1_MASTER.c ****     status = I2C_1_mstrStatus;
 924              		.loc 1 733 0
 925 0006 044A     		ldr	r2, .L78+4
 926 0008 1078     		ldrb	r0, [r2]	@ zero_extendqisi2
 927              	.LVL73:
 734:Generated_Source\PSoC5/I2C_1_MASTER.c ****     I2C_1_mstrStatus = I2C_1_MSTAT_CLEAR;
 928              		.loc 1 734 0
 929 000a 0021     		movs	r1, #0
 930 000c 1170     		strb	r1, [r2]
 735:Generated_Source\PSoC5/I2C_1_MASTER.c **** 
 736:Generated_Source\PSoC5/I2C_1_MASTER.c ****     I2C_1_EnableInt(); /* Release lock */
 931              		.loc 1 736 0
 932 000e 034A     		ldr	r2, .L78+8
 933 0010 1360     		str	r3, [r2]
 737:Generated_Source\PSoC5/I2C_1_MASTER.c **** 
 738:Generated_Source\PSoC5/I2C_1_MASTER.c ****     return (status);
 739:Generated_Source\PSoC5/I2C_1_MASTER.c **** }
 934              		.loc 1 739 0
 935 0012 7047     		bx	lr
 936              	.L79:
 937              		.align	2
 938              	.L78:
 939 0014 80E100E0 		.word	-536813184
 940 0018 00000000 		.word	I2C_1_mstrStatus
 941 001c 00E100E0 		.word	-536813312
 942              		.cfi_endproc
 943              	.LFE8:
 944              		.size	I2C_1_MasterClearStatus, .-I2C_1_MasterClearStatus
 945              		.section	.text.I2C_1_MasterGetReadBufSize,"ax",%progbits
 946              		.align	2
 947              		.global	I2C_1_MasterGetReadBufSize
 948              		.thumb
 949              		.thumb_func
 950              		.type	I2C_1_MasterGetReadBufSize, %function
 951              	I2C_1_MasterGetReadBufSize:
 952              	.LFB9:
 740:Generated_Source\PSoC5/I2C_1_MASTER.c **** 
 741:Generated_Source\PSoC5/I2C_1_MASTER.c **** 
 742:Generated_Source\PSoC5/I2C_1_MASTER.c **** /*******************************************************************************
ARM GAS  C:\Users\HPz420\AppData\Local\Temp\cc4uXrPo.s 			page 31


 743:Generated_Source\PSoC5/I2C_1_MASTER.c **** * Function Name: I2C_1_MasterGetReadBufSize
 744:Generated_Source\PSoC5/I2C_1_MASTER.c **** ********************************************************************************
 745:Generated_Source\PSoC5/I2C_1_MASTER.c **** *
 746:Generated_Source\PSoC5/I2C_1_MASTER.c **** * Summary:
 747:Generated_Source\PSoC5/I2C_1_MASTER.c **** *  Returns the amount of bytes that has been transferred with an
 748:Generated_Source\PSoC5/I2C_1_MASTER.c **** *  I2C_MasterReadBuf command.
 749:Generated_Source\PSoC5/I2C_1_MASTER.c **** *
 750:Generated_Source\PSoC5/I2C_1_MASTER.c **** * Parameters:
 751:Generated_Source\PSoC5/I2C_1_MASTER.c **** *  None.
 752:Generated_Source\PSoC5/I2C_1_MASTER.c **** *
 753:Generated_Source\PSoC5/I2C_1_MASTER.c **** * Return:
 754:Generated_Source\PSoC5/I2C_1_MASTER.c **** *  Byte count of transfer. If the transfer is not yet complete, it will return
 755:Generated_Source\PSoC5/I2C_1_MASTER.c **** *  the byte count transferred so far.
 756:Generated_Source\PSoC5/I2C_1_MASTER.c **** *
 757:Generated_Source\PSoC5/I2C_1_MASTER.c **** * Global variables:
 758:Generated_Source\PSoC5/I2C_1_MASTER.c **** *  I2C_1_mstrRdBufIndex - The global variable stores current index
 759:Generated_Source\PSoC5/I2C_1_MASTER.c **** *                                    within the master read buffer.
 760:Generated_Source\PSoC5/I2C_1_MASTER.c **** *
 761:Generated_Source\PSoC5/I2C_1_MASTER.c **** *******************************************************************************/
 762:Generated_Source\PSoC5/I2C_1_MASTER.c **** uint8 I2C_1_MasterGetReadBufSize(void) 
 763:Generated_Source\PSoC5/I2C_1_MASTER.c **** {
 953              		.loc 1 763 0
 954              		.cfi_startproc
 955              		@ args = 0, pretend = 0, frame = 0
 956              		@ frame_needed = 0, uses_anonymous_args = 0
 957              		@ link register save eliminated.
 764:Generated_Source\PSoC5/I2C_1_MASTER.c ****     return (I2C_1_mstrRdBufIndex);
 958              		.loc 1 764 0
 959 0000 014B     		ldr	r3, .L81
 960 0002 1878     		ldrb	r0, [r3]	@ zero_extendqisi2
 765:Generated_Source\PSoC5/I2C_1_MASTER.c **** }
 961              		.loc 1 765 0
 962 0004 7047     		bx	lr
 963              	.L82:
 964 0006 00BF     		.align	2
 965              	.L81:
 966 0008 00000000 		.word	I2C_1_mstrRdBufIndex
 967              		.cfi_endproc
 968              	.LFE9:
 969              		.size	I2C_1_MasterGetReadBufSize, .-I2C_1_MasterGetReadBufSize
 970              		.section	.text.I2C_1_MasterGetWriteBufSize,"ax",%progbits
 971              		.align	2
 972              		.global	I2C_1_MasterGetWriteBufSize
 973              		.thumb
 974              		.thumb_func
 975              		.type	I2C_1_MasterGetWriteBufSize, %function
 976              	I2C_1_MasterGetWriteBufSize:
 977              	.LFB10:
 766:Generated_Source\PSoC5/I2C_1_MASTER.c **** 
 767:Generated_Source\PSoC5/I2C_1_MASTER.c **** 
 768:Generated_Source\PSoC5/I2C_1_MASTER.c **** /*******************************************************************************
 769:Generated_Source\PSoC5/I2C_1_MASTER.c **** * Function Name: I2C_1_MasterGetWriteBufSize
 770:Generated_Source\PSoC5/I2C_1_MASTER.c **** ********************************************************************************
 771:Generated_Source\PSoC5/I2C_1_MASTER.c **** *
 772:Generated_Source\PSoC5/I2C_1_MASTER.c **** * Summary:
 773:Generated_Source\PSoC5/I2C_1_MASTER.c **** *  Returns the amount of bytes that has been transferred with an
 774:Generated_Source\PSoC5/I2C_1_MASTER.c **** *  I2C_MasterWriteBuf command.
ARM GAS  C:\Users\HPz420\AppData\Local\Temp\cc4uXrPo.s 			page 32


 775:Generated_Source\PSoC5/I2C_1_MASTER.c **** *
 776:Generated_Source\PSoC5/I2C_1_MASTER.c **** * Parameters:
 777:Generated_Source\PSoC5/I2C_1_MASTER.c **** *  None.
 778:Generated_Source\PSoC5/I2C_1_MASTER.c **** *
 779:Generated_Source\PSoC5/I2C_1_MASTER.c **** * Return:
 780:Generated_Source\PSoC5/I2C_1_MASTER.c **** *  Byte count of transfer. If the transfer is not yet complete, it will return
 781:Generated_Source\PSoC5/I2C_1_MASTER.c **** *  the byte count transferred so far.
 782:Generated_Source\PSoC5/I2C_1_MASTER.c **** *
 783:Generated_Source\PSoC5/I2C_1_MASTER.c **** * Global variables:
 784:Generated_Source\PSoC5/I2C_1_MASTER.c **** *  I2C_1_mstrWrBufIndex -  The global variable used to stores current
 785:Generated_Source\PSoC5/I2C_1_MASTER.c **** *                                     index within master write buffer.
 786:Generated_Source\PSoC5/I2C_1_MASTER.c **** *
 787:Generated_Source\PSoC5/I2C_1_MASTER.c **** *******************************************************************************/
 788:Generated_Source\PSoC5/I2C_1_MASTER.c **** uint8 I2C_1_MasterGetWriteBufSize(void) 
 789:Generated_Source\PSoC5/I2C_1_MASTER.c **** {
 978              		.loc 1 789 0
 979              		.cfi_startproc
 980              		@ args = 0, pretend = 0, frame = 0
 981              		@ frame_needed = 0, uses_anonymous_args = 0
 982              		@ link register save eliminated.
 790:Generated_Source\PSoC5/I2C_1_MASTER.c ****     return (I2C_1_mstrWrBufIndex);
 983              		.loc 1 790 0
 984 0000 014B     		ldr	r3, .L84
 985 0002 1878     		ldrb	r0, [r3]	@ zero_extendqisi2
 791:Generated_Source\PSoC5/I2C_1_MASTER.c **** }
 986              		.loc 1 791 0
 987 0004 7047     		bx	lr
 988              	.L85:
 989 0006 00BF     		.align	2
 990              	.L84:
 991 0008 00000000 		.word	I2C_1_mstrWrBufIndex
 992              		.cfi_endproc
 993              	.LFE10:
 994              		.size	I2C_1_MasterGetWriteBufSize, .-I2C_1_MasterGetWriteBufSize
 995              		.section	.text.I2C_1_MasterClearReadBuf,"ax",%progbits
 996              		.align	2
 997              		.global	I2C_1_MasterClearReadBuf
 998              		.thumb
 999              		.thumb_func
 1000              		.type	I2C_1_MasterClearReadBuf, %function
 1001              	I2C_1_MasterClearReadBuf:
 1002              	.LFB11:
 792:Generated_Source\PSoC5/I2C_1_MASTER.c **** 
 793:Generated_Source\PSoC5/I2C_1_MASTER.c **** 
 794:Generated_Source\PSoC5/I2C_1_MASTER.c **** /*******************************************************************************
 795:Generated_Source\PSoC5/I2C_1_MASTER.c **** * Function Name: I2C_1_MasterClearReadBuf
 796:Generated_Source\PSoC5/I2C_1_MASTER.c **** ********************************************************************************
 797:Generated_Source\PSoC5/I2C_1_MASTER.c **** *
 798:Generated_Source\PSoC5/I2C_1_MASTER.c **** * Summary:
 799:Generated_Source\PSoC5/I2C_1_MASTER.c **** *  Resets the read buffer pointer back to the first byte in the buffer.
 800:Generated_Source\PSoC5/I2C_1_MASTER.c **** *
 801:Generated_Source\PSoC5/I2C_1_MASTER.c **** * Parameters:
 802:Generated_Source\PSoC5/I2C_1_MASTER.c **** *  None.
 803:Generated_Source\PSoC5/I2C_1_MASTER.c **** *
 804:Generated_Source\PSoC5/I2C_1_MASTER.c **** * Return:
 805:Generated_Source\PSoC5/I2C_1_MASTER.c **** *  None.
 806:Generated_Source\PSoC5/I2C_1_MASTER.c **** *
ARM GAS  C:\Users\HPz420\AppData\Local\Temp\cc4uXrPo.s 			page 33


 807:Generated_Source\PSoC5/I2C_1_MASTER.c **** * Global variables:
 808:Generated_Source\PSoC5/I2C_1_MASTER.c **** *  I2C_1_mstrRdBufIndex - The global variable used to stores current
 809:Generated_Source\PSoC5/I2C_1_MASTER.c **** *                                    index within master read buffer.
 810:Generated_Source\PSoC5/I2C_1_MASTER.c **** *  I2C_1_mstrStatus - The global variable used to store a current
 811:Generated_Source\PSoC5/I2C_1_MASTER.c **** *                                status of the I2C Master.
 812:Generated_Source\PSoC5/I2C_1_MASTER.c **** *
 813:Generated_Source\PSoC5/I2C_1_MASTER.c **** * Reentrant:
 814:Generated_Source\PSoC5/I2C_1_MASTER.c **** *  No.
 815:Generated_Source\PSoC5/I2C_1_MASTER.c **** *
 816:Generated_Source\PSoC5/I2C_1_MASTER.c **** *******************************************************************************/
 817:Generated_Source\PSoC5/I2C_1_MASTER.c **** void I2C_1_MasterClearReadBuf(void) 
 818:Generated_Source\PSoC5/I2C_1_MASTER.c **** {
 1003              		.loc 1 818 0
 1004              		.cfi_startproc
 1005              		@ args = 0, pretend = 0, frame = 0
 1006              		@ frame_needed = 0, uses_anonymous_args = 0
 1007              		@ link register save eliminated.
 819:Generated_Source\PSoC5/I2C_1_MASTER.c ****     I2C_1_DisableInt(); /* Lock from interrupt */
 1008              		.loc 1 819 0
 1009 0000 0222     		movs	r2, #2
 1010 0002 064B     		ldr	r3, .L87
 1011 0004 1A60     		str	r2, [r3]
 820:Generated_Source\PSoC5/I2C_1_MASTER.c **** 
 821:Generated_Source\PSoC5/I2C_1_MASTER.c ****     I2C_1_mstrRdBufIndex = 0u;
 1012              		.loc 1 821 0
 1013 0006 0021     		movs	r1, #0
 1014 0008 054B     		ldr	r3, .L87+4
 1015 000a 1970     		strb	r1, [r3]
 822:Generated_Source\PSoC5/I2C_1_MASTER.c ****     I2C_1_mstrStatus    &= (uint8) ~I2C_1_MSTAT_RD_CMPLT;
 1016              		.loc 1 822 0
 1017 000c 0549     		ldr	r1, .L87+8
 1018 000e 0B78     		ldrb	r3, [r1]	@ zero_extendqisi2
 1019 0010 03F0FE03 		and	r3, r3, #254
 1020 0014 0B70     		strb	r3, [r1]
 823:Generated_Source\PSoC5/I2C_1_MASTER.c **** 
 824:Generated_Source\PSoC5/I2C_1_MASTER.c ****     I2C_1_EnableInt(); /* Release lock */
 1021              		.loc 1 824 0
 1022 0016 044B     		ldr	r3, .L87+12
 1023 0018 1A60     		str	r2, [r3]
 1024 001a 7047     		bx	lr
 1025              	.L88:
 1026              		.align	2
 1027              	.L87:
 1028 001c 80E100E0 		.word	-536813184
 1029 0020 00000000 		.word	I2C_1_mstrRdBufIndex
 1030 0024 00000000 		.word	I2C_1_mstrStatus
 1031 0028 00E100E0 		.word	-536813312
 1032              		.cfi_endproc
 1033              	.LFE11:
 1034              		.size	I2C_1_MasterClearReadBuf, .-I2C_1_MasterClearReadBuf
 1035              		.section	.text.I2C_1_MasterClearWriteBuf,"ax",%progbits
 1036              		.align	2
 1037              		.global	I2C_1_MasterClearWriteBuf
 1038              		.thumb
 1039              		.thumb_func
 1040              		.type	I2C_1_MasterClearWriteBuf, %function
 1041              	I2C_1_MasterClearWriteBuf:
ARM GAS  C:\Users\HPz420\AppData\Local\Temp\cc4uXrPo.s 			page 34


 1042              	.LFB12:
 825:Generated_Source\PSoC5/I2C_1_MASTER.c **** }
 826:Generated_Source\PSoC5/I2C_1_MASTER.c **** 
 827:Generated_Source\PSoC5/I2C_1_MASTER.c **** 
 828:Generated_Source\PSoC5/I2C_1_MASTER.c **** /*******************************************************************************
 829:Generated_Source\PSoC5/I2C_1_MASTER.c **** * Function Name: I2C_1_MasterClearWriteBuf
 830:Generated_Source\PSoC5/I2C_1_MASTER.c **** ********************************************************************************
 831:Generated_Source\PSoC5/I2C_1_MASTER.c **** *
 832:Generated_Source\PSoC5/I2C_1_MASTER.c **** * Summary:
 833:Generated_Source\PSoC5/I2C_1_MASTER.c **** *  Resets the write buffer pointer back to the first byte in the buffer.
 834:Generated_Source\PSoC5/I2C_1_MASTER.c **** *
 835:Generated_Source\PSoC5/I2C_1_MASTER.c **** * Parameters:
 836:Generated_Source\PSoC5/I2C_1_MASTER.c **** *  None.
 837:Generated_Source\PSoC5/I2C_1_MASTER.c **** *
 838:Generated_Source\PSoC5/I2C_1_MASTER.c **** * Return:
 839:Generated_Source\PSoC5/I2C_1_MASTER.c **** *  None.
 840:Generated_Source\PSoC5/I2C_1_MASTER.c **** *
 841:Generated_Source\PSoC5/I2C_1_MASTER.c **** * Global variables:
 842:Generated_Source\PSoC5/I2C_1_MASTER.c **** *  I2C_1_mstrRdBufIndex - The global variable used to stote current
 843:Generated_Source\PSoC5/I2C_1_MASTER.c **** *                                    index within master read buffer.
 844:Generated_Source\PSoC5/I2C_1_MASTER.c **** *  I2C_1_mstrStatus - The global variable used to store a current
 845:Generated_Source\PSoC5/I2C_1_MASTER.c **** *                                status of the I2C Master.
 846:Generated_Source\PSoC5/I2C_1_MASTER.c **** *
 847:Generated_Source\PSoC5/I2C_1_MASTER.c **** * Reentrant:
 848:Generated_Source\PSoC5/I2C_1_MASTER.c **** *  No.
 849:Generated_Source\PSoC5/I2C_1_MASTER.c **** *
 850:Generated_Source\PSoC5/I2C_1_MASTER.c **** *******************************************************************************/
 851:Generated_Source\PSoC5/I2C_1_MASTER.c **** void I2C_1_MasterClearWriteBuf(void) 
 852:Generated_Source\PSoC5/I2C_1_MASTER.c **** {
 1043              		.loc 1 852 0
 1044              		.cfi_startproc
 1045              		@ args = 0, pretend = 0, frame = 0
 1046              		@ frame_needed = 0, uses_anonymous_args = 0
 1047              		@ link register save eliminated.
 853:Generated_Source\PSoC5/I2C_1_MASTER.c ****     I2C_1_DisableInt(); /* Lock from interrupt */
 1048              		.loc 1 853 0
 1049 0000 0222     		movs	r2, #2
 1050 0002 064B     		ldr	r3, .L90
 1051 0004 1A60     		str	r2, [r3]
 854:Generated_Source\PSoC5/I2C_1_MASTER.c **** 
 855:Generated_Source\PSoC5/I2C_1_MASTER.c ****     I2C_1_mstrWrBufIndex = 0u;
 1052              		.loc 1 855 0
 1053 0006 0021     		movs	r1, #0
 1054 0008 054B     		ldr	r3, .L90+4
 1055 000a 1970     		strb	r1, [r3]
 856:Generated_Source\PSoC5/I2C_1_MASTER.c ****     I2C_1_mstrStatus    &= (uint8) ~I2C_1_MSTAT_WR_CMPLT;
 1056              		.loc 1 856 0
 1057 000c 0549     		ldr	r1, .L90+8
 1058 000e 0B78     		ldrb	r3, [r1]	@ zero_extendqisi2
 1059 0010 03F0FD03 		and	r3, r3, #253
 1060 0014 0B70     		strb	r3, [r1]
 857:Generated_Source\PSoC5/I2C_1_MASTER.c **** 
 858:Generated_Source\PSoC5/I2C_1_MASTER.c ****     I2C_1_EnableInt(); /* Release lock */
 1061              		.loc 1 858 0
 1062 0016 044B     		ldr	r3, .L90+12
 1063 0018 1A60     		str	r2, [r3]
 1064 001a 7047     		bx	lr
ARM GAS  C:\Users\HPz420\AppData\Local\Temp\cc4uXrPo.s 			page 35


 1065              	.L91:
 1066              		.align	2
 1067              	.L90:
 1068 001c 80E100E0 		.word	-536813184
 1069 0020 00000000 		.word	I2C_1_mstrWrBufIndex
 1070 0024 00000000 		.word	I2C_1_mstrStatus
 1071 0028 00E100E0 		.word	-536813312
 1072              		.cfi_endproc
 1073              	.LFE12:
 1074              		.size	I2C_1_MasterClearWriteBuf, .-I2C_1_MasterClearWriteBuf
 1075              		.comm	I2C_1_mstrWrBufIndex,1,1
 1076              		.comm	I2C_1_mstrWrBufSize,1,1
 1077              		.comm	I2C_1_mstrWrBufPtr,4,4
 1078              		.comm	I2C_1_mstrRdBufIndex,1,1
 1079              		.comm	I2C_1_mstrRdBufSize,1,1
 1080              		.comm	I2C_1_mstrRdBufPtr,4,4
 1081              		.comm	I2C_1_mstrControl,1,1
 1082              		.comm	I2C_1_mstrStatus,1,1
 1083              		.text
 1084              	.Letext0:
 1085              		.file 2 "Generated_Source\\PSoC5\\cytypes.h"
 1086              		.file 3 "Generated_Source\\PSoC5\\I2C_1_PVT.h"