ARM GAS  C:\Users\DGILLI~1\AppData\Local\Temp\cczigvdc.s 			page 1


   1              		.syntax unified
   2              		.cpu cortex-m0plus
   3              		.fpu softvfp
   4              		.eabi_attribute 20, 1
   5              		.eabi_attribute 21, 1
   6              		.eabi_attribute 23, 3
   7              		.eabi_attribute 24, 1
   8              		.eabi_attribute 25, 1
   9              		.eabi_attribute 26, 1
  10              		.eabi_attribute 30, 1
  11              		.eabi_attribute 34, 0
  12              		.eabi_attribute 18, 4
  13              		.thumb
  14              		.syntax unified
  15              		.file	"I2CS.c"
  16              		.text
  17              	.Ltext0:
  18              		.cfi_sections	.debug_frame
  19              		.section	.text.I2CS_ScbEnableIntr,"ax",%progbits
  20              		.align	2
  21              		.code	16
  22              		.thumb_func
  23              		.type	I2CS_ScbEnableIntr, %function
  24              	I2CS_ScbEnableIntr:
  25              	.LFB8:
  26              		.file 1 "Generated_Source\\PSoC4\\I2CS.c"
   1:Generated_Source\PSoC4/I2CS.c **** /***************************************************************************//**
   2:Generated_Source\PSoC4/I2CS.c **** * \file I2CS.c
   3:Generated_Source\PSoC4/I2CS.c **** * \version 4.0
   4:Generated_Source\PSoC4/I2CS.c **** *
   5:Generated_Source\PSoC4/I2CS.c **** * \brief
   6:Generated_Source\PSoC4/I2CS.c **** *  This file provides the source code to the API for the SCB Component.
   7:Generated_Source\PSoC4/I2CS.c **** *
   8:Generated_Source\PSoC4/I2CS.c **** * Note:
   9:Generated_Source\PSoC4/I2CS.c **** *
  10:Generated_Source\PSoC4/I2CS.c **** *******************************************************************************
  11:Generated_Source\PSoC4/I2CS.c **** * \copyright
  12:Generated_Source\PSoC4/I2CS.c **** * Copyright 2013-2017, Cypress Semiconductor Corporation.  All rights reserved.
  13:Generated_Source\PSoC4/I2CS.c **** * You may use this file only in accordance with the license, terms, conditions,
  14:Generated_Source\PSoC4/I2CS.c **** * disclaimers, and limitations in the end user license agreement accompanying
  15:Generated_Source\PSoC4/I2CS.c **** * the software package with which this file was provided.
  16:Generated_Source\PSoC4/I2CS.c **** *******************************************************************************/
  17:Generated_Source\PSoC4/I2CS.c **** 
  18:Generated_Source\PSoC4/I2CS.c **** #include "I2CS_PVT.h"
  19:Generated_Source\PSoC4/I2CS.c **** 
  20:Generated_Source\PSoC4/I2CS.c **** #if (I2CS_SCB_MODE_I2C_INC)
  21:Generated_Source\PSoC4/I2CS.c ****     #include "I2CS_I2C_PVT.h"
  22:Generated_Source\PSoC4/I2CS.c **** #endif /* (I2CS_SCB_MODE_I2C_INC) */
  23:Generated_Source\PSoC4/I2CS.c **** 
  24:Generated_Source\PSoC4/I2CS.c **** #if (I2CS_SCB_MODE_EZI2C_INC)
  25:Generated_Source\PSoC4/I2CS.c ****     #include "I2CS_EZI2C_PVT.h"
  26:Generated_Source\PSoC4/I2CS.c **** #endif /* (I2CS_SCB_MODE_EZI2C_INC) */
  27:Generated_Source\PSoC4/I2CS.c **** 
  28:Generated_Source\PSoC4/I2CS.c **** #if (I2CS_SCB_MODE_SPI_INC || I2CS_SCB_MODE_UART_INC)
  29:Generated_Source\PSoC4/I2CS.c ****     #include "I2CS_SPI_UART_PVT.h"
  30:Generated_Source\PSoC4/I2CS.c **** #endif /* (I2CS_SCB_MODE_SPI_INC || I2CS_SCB_MODE_UART_INC) */
  31:Generated_Source\PSoC4/I2CS.c **** 
ARM GAS  C:\Users\DGILLI~1\AppData\Local\Temp\cczigvdc.s 			page 2


  32:Generated_Source\PSoC4/I2CS.c **** 
  33:Generated_Source\PSoC4/I2CS.c **** /***************************************
  34:Generated_Source\PSoC4/I2CS.c **** *    Run Time Configuration Vars
  35:Generated_Source\PSoC4/I2CS.c **** ***************************************/
  36:Generated_Source\PSoC4/I2CS.c **** 
  37:Generated_Source\PSoC4/I2CS.c **** /* Stores internal component configuration for Unconfigured mode */
  38:Generated_Source\PSoC4/I2CS.c **** #if (I2CS_SCB_MODE_UNCONFIG_CONST_CFG)
  39:Generated_Source\PSoC4/I2CS.c ****     /* Common configuration variables */
  40:Generated_Source\PSoC4/I2CS.c ****     uint8 I2CS_scbMode = I2CS_SCB_MODE_UNCONFIG;
  41:Generated_Source\PSoC4/I2CS.c ****     uint8 I2CS_scbEnableWake;
  42:Generated_Source\PSoC4/I2CS.c ****     uint8 I2CS_scbEnableIntr;
  43:Generated_Source\PSoC4/I2CS.c **** 
  44:Generated_Source\PSoC4/I2CS.c ****     /* I2C configuration variables */
  45:Generated_Source\PSoC4/I2CS.c ****     uint8 I2CS_mode;
  46:Generated_Source\PSoC4/I2CS.c ****     uint8 I2CS_acceptAddr;
  47:Generated_Source\PSoC4/I2CS.c **** 
  48:Generated_Source\PSoC4/I2CS.c ****     /* SPI/UART configuration variables */
  49:Generated_Source\PSoC4/I2CS.c ****     volatile uint8 * I2CS_rxBuffer;
  50:Generated_Source\PSoC4/I2CS.c ****     uint8  I2CS_rxDataBits;
  51:Generated_Source\PSoC4/I2CS.c ****     uint32 I2CS_rxBufferSize;
  52:Generated_Source\PSoC4/I2CS.c **** 
  53:Generated_Source\PSoC4/I2CS.c ****     volatile uint8 * I2CS_txBuffer;
  54:Generated_Source\PSoC4/I2CS.c ****     uint8  I2CS_txDataBits;
  55:Generated_Source\PSoC4/I2CS.c ****     uint32 I2CS_txBufferSize;
  56:Generated_Source\PSoC4/I2CS.c **** 
  57:Generated_Source\PSoC4/I2CS.c ****     /* EZI2C configuration variables */
  58:Generated_Source\PSoC4/I2CS.c ****     uint8 I2CS_numberOfAddr;
  59:Generated_Source\PSoC4/I2CS.c ****     uint8 I2CS_subAddrSize;
  60:Generated_Source\PSoC4/I2CS.c **** #endif /* (I2CS_SCB_MODE_UNCONFIG_CONST_CFG) */
  61:Generated_Source\PSoC4/I2CS.c **** 
  62:Generated_Source\PSoC4/I2CS.c **** 
  63:Generated_Source\PSoC4/I2CS.c **** /***************************************
  64:Generated_Source\PSoC4/I2CS.c **** *     Common SCB Vars
  65:Generated_Source\PSoC4/I2CS.c **** ***************************************/
  66:Generated_Source\PSoC4/I2CS.c **** /**
  67:Generated_Source\PSoC4/I2CS.c **** * \addtogroup group_general
  68:Generated_Source\PSoC4/I2CS.c **** * \{
  69:Generated_Source\PSoC4/I2CS.c **** */
  70:Generated_Source\PSoC4/I2CS.c **** 
  71:Generated_Source\PSoC4/I2CS.c **** /** I2CS_initVar indicates whether the I2CS 
  72:Generated_Source\PSoC4/I2CS.c **** *  component has been initialized. The variable is initialized to 0 
  73:Generated_Source\PSoC4/I2CS.c **** *  and set to 1 the first time SCB_Start() is called. This allows 
  74:Generated_Source\PSoC4/I2CS.c **** *  the component to restart without reinitialization after the first 
  75:Generated_Source\PSoC4/I2CS.c **** *  call to the I2CS_Start() routine.
  76:Generated_Source\PSoC4/I2CS.c **** *
  77:Generated_Source\PSoC4/I2CS.c **** *  If re-initialization of the component is required, then the 
  78:Generated_Source\PSoC4/I2CS.c **** *  I2CS_Init() function can be called before the 
  79:Generated_Source\PSoC4/I2CS.c **** *  I2CS_Start() or I2CS_Enable() function.
  80:Generated_Source\PSoC4/I2CS.c **** */
  81:Generated_Source\PSoC4/I2CS.c **** uint8 I2CS_initVar = 0u;
  82:Generated_Source\PSoC4/I2CS.c **** 
  83:Generated_Source\PSoC4/I2CS.c **** 
  84:Generated_Source\PSoC4/I2CS.c **** #if (! (I2CS_SCB_MODE_I2C_CONST_CFG || \
  85:Generated_Source\PSoC4/I2CS.c ****         I2CS_SCB_MODE_EZI2C_CONST_CFG))
  86:Generated_Source\PSoC4/I2CS.c ****     /** This global variable stores TX interrupt sources after 
  87:Generated_Source\PSoC4/I2CS.c ****     * I2CS_Stop() is called. Only these TX interrupt sources 
  88:Generated_Source\PSoC4/I2CS.c ****     * will be restored on a subsequent I2CS_Enable() call.
ARM GAS  C:\Users\DGILLI~1\AppData\Local\Temp\cczigvdc.s 			page 3


  89:Generated_Source\PSoC4/I2CS.c ****     */
  90:Generated_Source\PSoC4/I2CS.c ****     uint16 I2CS_IntrTxMask = 0u;
  91:Generated_Source\PSoC4/I2CS.c **** #endif /* (! (I2CS_SCB_MODE_I2C_CONST_CFG || \
  92:Generated_Source\PSoC4/I2CS.c ****               I2CS_SCB_MODE_EZI2C_CONST_CFG)) */
  93:Generated_Source\PSoC4/I2CS.c **** /** \} globals */
  94:Generated_Source\PSoC4/I2CS.c **** 
  95:Generated_Source\PSoC4/I2CS.c **** #if (I2CS_SCB_IRQ_INTERNAL)
  96:Generated_Source\PSoC4/I2CS.c **** #if !defined (CY_REMOVE_I2CS_CUSTOM_INTR_HANDLER)
  97:Generated_Source\PSoC4/I2CS.c ****     void (*I2CS_customIntrHandler)(void) = NULL;
  98:Generated_Source\PSoC4/I2CS.c **** #endif /* !defined (CY_REMOVE_I2CS_CUSTOM_INTR_HANDLER) */
  99:Generated_Source\PSoC4/I2CS.c **** #endif /* (I2CS_SCB_IRQ_INTERNAL) */
 100:Generated_Source\PSoC4/I2CS.c **** 
 101:Generated_Source\PSoC4/I2CS.c **** 
 102:Generated_Source\PSoC4/I2CS.c **** /***************************************
 103:Generated_Source\PSoC4/I2CS.c **** *    Private Function Prototypes
 104:Generated_Source\PSoC4/I2CS.c **** ***************************************/
 105:Generated_Source\PSoC4/I2CS.c **** 
 106:Generated_Source\PSoC4/I2CS.c **** static void I2CS_ScbEnableIntr(void);
 107:Generated_Source\PSoC4/I2CS.c **** static void I2CS_ScbModeStop(void);
 108:Generated_Source\PSoC4/I2CS.c **** static void I2CS_ScbModePostEnable(void);
 109:Generated_Source\PSoC4/I2CS.c **** 
 110:Generated_Source\PSoC4/I2CS.c **** 
 111:Generated_Source\PSoC4/I2CS.c **** /*******************************************************************************
 112:Generated_Source\PSoC4/I2CS.c **** * Function Name: I2CS_Init
 113:Generated_Source\PSoC4/I2CS.c **** ****************************************************************************//**
 114:Generated_Source\PSoC4/I2CS.c **** *
 115:Generated_Source\PSoC4/I2CS.c **** *  Initializes the I2CS component to operate in one of the selected
 116:Generated_Source\PSoC4/I2CS.c **** *  configurations: I2C, SPI, UART or EZI2C.
 117:Generated_Source\PSoC4/I2CS.c **** *  When the configuration is set to "Unconfigured SCB", this function does
 118:Generated_Source\PSoC4/I2CS.c **** *  not do any initialization. Use mode-specific initialization APIs instead:
 119:Generated_Source\PSoC4/I2CS.c **** *  I2CS_I2CInit, I2CS_SpiInit, 
 120:Generated_Source\PSoC4/I2CS.c **** *  I2CS_UartInit or I2CS_EzI2CInit.
 121:Generated_Source\PSoC4/I2CS.c **** *
 122:Generated_Source\PSoC4/I2CS.c **** *******************************************************************************/
 123:Generated_Source\PSoC4/I2CS.c **** void I2CS_Init(void)
 124:Generated_Source\PSoC4/I2CS.c **** {
 125:Generated_Source\PSoC4/I2CS.c **** #if (I2CS_SCB_MODE_UNCONFIG_CONST_CFG)
 126:Generated_Source\PSoC4/I2CS.c ****     if (I2CS_SCB_MODE_UNCONFIG_RUNTM_CFG)
 127:Generated_Source\PSoC4/I2CS.c ****     {
 128:Generated_Source\PSoC4/I2CS.c ****         I2CS_initVar = 0u;
 129:Generated_Source\PSoC4/I2CS.c ****     }
 130:Generated_Source\PSoC4/I2CS.c ****     else
 131:Generated_Source\PSoC4/I2CS.c ****     {
 132:Generated_Source\PSoC4/I2CS.c ****         /* Initialization was done before this function call */
 133:Generated_Source\PSoC4/I2CS.c ****     }
 134:Generated_Source\PSoC4/I2CS.c **** 
 135:Generated_Source\PSoC4/I2CS.c **** #elif (I2CS_SCB_MODE_I2C_CONST_CFG)
 136:Generated_Source\PSoC4/I2CS.c ****     I2CS_I2CInit();
 137:Generated_Source\PSoC4/I2CS.c **** 
 138:Generated_Source\PSoC4/I2CS.c **** #elif (I2CS_SCB_MODE_SPI_CONST_CFG)
 139:Generated_Source\PSoC4/I2CS.c ****     I2CS_SpiInit();
 140:Generated_Source\PSoC4/I2CS.c **** 
 141:Generated_Source\PSoC4/I2CS.c **** #elif (I2CS_SCB_MODE_UART_CONST_CFG)
 142:Generated_Source\PSoC4/I2CS.c ****     I2CS_UartInit();
 143:Generated_Source\PSoC4/I2CS.c **** 
 144:Generated_Source\PSoC4/I2CS.c **** #elif (I2CS_SCB_MODE_EZI2C_CONST_CFG)
 145:Generated_Source\PSoC4/I2CS.c ****     I2CS_EzI2CInit();
ARM GAS  C:\Users\DGILLI~1\AppData\Local\Temp\cczigvdc.s 			page 4


 146:Generated_Source\PSoC4/I2CS.c **** 
 147:Generated_Source\PSoC4/I2CS.c **** #endif /* (I2CS_SCB_MODE_UNCONFIG_CONST_CFG) */
 148:Generated_Source\PSoC4/I2CS.c **** }
 149:Generated_Source\PSoC4/I2CS.c **** 
 150:Generated_Source\PSoC4/I2CS.c **** 
 151:Generated_Source\PSoC4/I2CS.c **** /*******************************************************************************
 152:Generated_Source\PSoC4/I2CS.c **** * Function Name: I2CS_Enable
 153:Generated_Source\PSoC4/I2CS.c **** ****************************************************************************//**
 154:Generated_Source\PSoC4/I2CS.c **** *
 155:Generated_Source\PSoC4/I2CS.c **** *  Enables I2CS component operation: activates the hardware and 
 156:Generated_Source\PSoC4/I2CS.c **** *  internal interrupt. It also restores TX interrupt sources disabled after the 
 157:Generated_Source\PSoC4/I2CS.c **** *  I2CS_Stop() function was called (note that level-triggered TX 
 158:Generated_Source\PSoC4/I2CS.c **** *  interrupt sources remain disabled to not cause code lock-up).
 159:Generated_Source\PSoC4/I2CS.c **** *  For I2C and EZI2C modes the interrupt is internal and mandatory for 
 160:Generated_Source\PSoC4/I2CS.c **** *  operation. For SPI and UART modes the interrupt can be configured as none, 
 161:Generated_Source\PSoC4/I2CS.c **** *  internal or external.
 162:Generated_Source\PSoC4/I2CS.c **** *  The I2CS configuration should be not changed when the component
 163:Generated_Source\PSoC4/I2CS.c **** *  is enabled. Any configuration changes should be made after disabling the 
 164:Generated_Source\PSoC4/I2CS.c **** *  component.
 165:Generated_Source\PSoC4/I2CS.c **** *  When configuration is set to “Unconfigured I2CS”, the component 
 166:Generated_Source\PSoC4/I2CS.c **** *  must first be initialized to operate in one of the following configurations: 
 167:Generated_Source\PSoC4/I2CS.c **** *  I2C, SPI, UART or EZ I2C, using the mode-specific initialization API. 
 168:Generated_Source\PSoC4/I2CS.c **** *  Otherwise this function does not enable the component.
 169:Generated_Source\PSoC4/I2CS.c **** *
 170:Generated_Source\PSoC4/I2CS.c **** *******************************************************************************/
 171:Generated_Source\PSoC4/I2CS.c **** void I2CS_Enable(void)
 172:Generated_Source\PSoC4/I2CS.c **** {
 173:Generated_Source\PSoC4/I2CS.c **** #if (I2CS_SCB_MODE_UNCONFIG_CONST_CFG)
 174:Generated_Source\PSoC4/I2CS.c ****     /* Enable SCB block, only if it is already configured */
 175:Generated_Source\PSoC4/I2CS.c ****     if (!I2CS_SCB_MODE_UNCONFIG_RUNTM_CFG)
 176:Generated_Source\PSoC4/I2CS.c ****     {
 177:Generated_Source\PSoC4/I2CS.c ****         I2CS_CTRL_REG |= I2CS_CTRL_ENABLED;
 178:Generated_Source\PSoC4/I2CS.c **** 
 179:Generated_Source\PSoC4/I2CS.c ****         I2CS_ScbEnableIntr();
 180:Generated_Source\PSoC4/I2CS.c **** 
 181:Generated_Source\PSoC4/I2CS.c ****         /* Call PostEnable function specific to current operation mode */
 182:Generated_Source\PSoC4/I2CS.c ****         I2CS_ScbModePostEnable();
 183:Generated_Source\PSoC4/I2CS.c ****     }
 184:Generated_Source\PSoC4/I2CS.c **** #else
 185:Generated_Source\PSoC4/I2CS.c ****     I2CS_CTRL_REG |= I2CS_CTRL_ENABLED;
 186:Generated_Source\PSoC4/I2CS.c **** 
 187:Generated_Source\PSoC4/I2CS.c ****     I2CS_ScbEnableIntr();
 188:Generated_Source\PSoC4/I2CS.c **** 
 189:Generated_Source\PSoC4/I2CS.c ****     /* Call PostEnable function specific to current operation mode */
 190:Generated_Source\PSoC4/I2CS.c ****     I2CS_ScbModePostEnable();
 191:Generated_Source\PSoC4/I2CS.c **** #endif /* (I2CS_SCB_MODE_UNCONFIG_CONST_CFG) */
 192:Generated_Source\PSoC4/I2CS.c **** }
 193:Generated_Source\PSoC4/I2CS.c **** 
 194:Generated_Source\PSoC4/I2CS.c **** 
 195:Generated_Source\PSoC4/I2CS.c **** /*******************************************************************************
 196:Generated_Source\PSoC4/I2CS.c **** * Function Name: I2CS_Start
 197:Generated_Source\PSoC4/I2CS.c **** ****************************************************************************//**
 198:Generated_Source\PSoC4/I2CS.c **** *
 199:Generated_Source\PSoC4/I2CS.c **** *  Invokes I2CS_Init() and I2CS_Enable().
 200:Generated_Source\PSoC4/I2CS.c **** *  After this function call, the component is enabled and ready for operation.
 201:Generated_Source\PSoC4/I2CS.c **** *  When configuration is set to "Unconfigured SCB", the component must first be
 202:Generated_Source\PSoC4/I2CS.c **** *  initialized to operate in one of the following configurations: I2C, SPI, UART
ARM GAS  C:\Users\DGILLI~1\AppData\Local\Temp\cczigvdc.s 			page 5


 203:Generated_Source\PSoC4/I2CS.c **** *  or EZI2C. Otherwise this function does not enable the component.
 204:Generated_Source\PSoC4/I2CS.c **** *
 205:Generated_Source\PSoC4/I2CS.c **** * \globalvars
 206:Generated_Source\PSoC4/I2CS.c **** *  I2CS_initVar - used to check initial configuration, modified
 207:Generated_Source\PSoC4/I2CS.c **** *  on first function call.
 208:Generated_Source\PSoC4/I2CS.c **** *
 209:Generated_Source\PSoC4/I2CS.c **** *******************************************************************************/
 210:Generated_Source\PSoC4/I2CS.c **** void I2CS_Start(void)
 211:Generated_Source\PSoC4/I2CS.c **** {
 212:Generated_Source\PSoC4/I2CS.c ****     if (0u == I2CS_initVar)
 213:Generated_Source\PSoC4/I2CS.c ****     {
 214:Generated_Source\PSoC4/I2CS.c ****         I2CS_Init();
 215:Generated_Source\PSoC4/I2CS.c ****         I2CS_initVar = 1u; /* Component was initialized */
 216:Generated_Source\PSoC4/I2CS.c ****     }
 217:Generated_Source\PSoC4/I2CS.c **** 
 218:Generated_Source\PSoC4/I2CS.c ****     I2CS_Enable();
 219:Generated_Source\PSoC4/I2CS.c **** }
 220:Generated_Source\PSoC4/I2CS.c **** 
 221:Generated_Source\PSoC4/I2CS.c **** 
 222:Generated_Source\PSoC4/I2CS.c **** /*******************************************************************************
 223:Generated_Source\PSoC4/I2CS.c **** * Function Name: I2CS_Stop
 224:Generated_Source\PSoC4/I2CS.c **** ****************************************************************************//**
 225:Generated_Source\PSoC4/I2CS.c **** *
 226:Generated_Source\PSoC4/I2CS.c **** *  Disables the I2CS component: disable the hardware and internal 
 227:Generated_Source\PSoC4/I2CS.c **** *  interrupt. It also disables all TX interrupt sources so as not to cause an 
 228:Generated_Source\PSoC4/I2CS.c **** *  unexpected interrupt trigger because after the component is enabled, the 
 229:Generated_Source\PSoC4/I2CS.c **** *  TX FIFO is empty.
 230:Generated_Source\PSoC4/I2CS.c **** *  Refer to the function I2CS_Enable() for the interrupt 
 231:Generated_Source\PSoC4/I2CS.c **** *  configuration details.
 232:Generated_Source\PSoC4/I2CS.c **** *  This function disables the SCB component without checking to see if 
 233:Generated_Source\PSoC4/I2CS.c **** *  communication is in progress. Before calling this function it may be 
 234:Generated_Source\PSoC4/I2CS.c **** *  necessary to check the status of communication to make sure communication 
 235:Generated_Source\PSoC4/I2CS.c **** *  is complete. If this is not done then communication could be stopped mid 
 236:Generated_Source\PSoC4/I2CS.c **** *  byte and corrupted data could result.
 237:Generated_Source\PSoC4/I2CS.c **** *
 238:Generated_Source\PSoC4/I2CS.c **** *******************************************************************************/
 239:Generated_Source\PSoC4/I2CS.c **** void I2CS_Stop(void)
 240:Generated_Source\PSoC4/I2CS.c **** {
 241:Generated_Source\PSoC4/I2CS.c **** #if (I2CS_SCB_IRQ_INTERNAL)
 242:Generated_Source\PSoC4/I2CS.c ****     I2CS_DisableInt();
 243:Generated_Source\PSoC4/I2CS.c **** #endif /* (I2CS_SCB_IRQ_INTERNAL) */
 244:Generated_Source\PSoC4/I2CS.c **** 
 245:Generated_Source\PSoC4/I2CS.c ****     /* Call Stop function specific to current operation mode */
 246:Generated_Source\PSoC4/I2CS.c ****     I2CS_ScbModeStop();
 247:Generated_Source\PSoC4/I2CS.c **** 
 248:Generated_Source\PSoC4/I2CS.c ****     /* Disable SCB IP */
 249:Generated_Source\PSoC4/I2CS.c ****     I2CS_CTRL_REG &= (uint32) ~I2CS_CTRL_ENABLED;
 250:Generated_Source\PSoC4/I2CS.c **** 
 251:Generated_Source\PSoC4/I2CS.c ****     /* Disable all TX interrupt sources so as not to cause an unexpected
 252:Generated_Source\PSoC4/I2CS.c ****     * interrupt trigger after the component will be enabled because the 
 253:Generated_Source\PSoC4/I2CS.c ****     * TX FIFO is empty.
 254:Generated_Source\PSoC4/I2CS.c ****     * For SCB IP v0, it is critical as it does not mask-out interrupt
 255:Generated_Source\PSoC4/I2CS.c ****     * sources when it is disabled. This can cause a code lock-up in the
 256:Generated_Source\PSoC4/I2CS.c ****     * interrupt handler because TX FIFO cannot be loaded after the block
 257:Generated_Source\PSoC4/I2CS.c ****     * is disabled.
 258:Generated_Source\PSoC4/I2CS.c ****     */
 259:Generated_Source\PSoC4/I2CS.c ****     I2CS_SetTxInterruptMode(I2CS_NO_INTR_SOURCES);
ARM GAS  C:\Users\DGILLI~1\AppData\Local\Temp\cczigvdc.s 			page 6


 260:Generated_Source\PSoC4/I2CS.c **** 
 261:Generated_Source\PSoC4/I2CS.c **** #if (I2CS_SCB_IRQ_INTERNAL)
 262:Generated_Source\PSoC4/I2CS.c ****     I2CS_ClearPendingInt();
 263:Generated_Source\PSoC4/I2CS.c **** #endif /* (I2CS_SCB_IRQ_INTERNAL) */
 264:Generated_Source\PSoC4/I2CS.c **** }
 265:Generated_Source\PSoC4/I2CS.c **** 
 266:Generated_Source\PSoC4/I2CS.c **** 
 267:Generated_Source\PSoC4/I2CS.c **** /*******************************************************************************
 268:Generated_Source\PSoC4/I2CS.c **** * Function Name: I2CS_SetRxFifoLevel
 269:Generated_Source\PSoC4/I2CS.c **** ****************************************************************************//**
 270:Generated_Source\PSoC4/I2CS.c **** *
 271:Generated_Source\PSoC4/I2CS.c **** *  Sets level in the RX FIFO to generate a RX level interrupt.
 272:Generated_Source\PSoC4/I2CS.c **** *  When the RX FIFO has more entries than the RX FIFO level an RX level
 273:Generated_Source\PSoC4/I2CS.c **** *  interrupt request is generated.
 274:Generated_Source\PSoC4/I2CS.c **** *
 275:Generated_Source\PSoC4/I2CS.c **** *  \param level: Level in the RX FIFO to generate RX level interrupt.
 276:Generated_Source\PSoC4/I2CS.c **** *   The range of valid level values is between 0 and RX FIFO depth - 1.
 277:Generated_Source\PSoC4/I2CS.c **** *
 278:Generated_Source\PSoC4/I2CS.c **** *******************************************************************************/
 279:Generated_Source\PSoC4/I2CS.c **** void I2CS_SetRxFifoLevel(uint32 level)
 280:Generated_Source\PSoC4/I2CS.c **** {
 281:Generated_Source\PSoC4/I2CS.c ****     uint32 rxFifoCtrl;
 282:Generated_Source\PSoC4/I2CS.c **** 
 283:Generated_Source\PSoC4/I2CS.c ****     rxFifoCtrl = I2CS_RX_FIFO_CTRL_REG;
 284:Generated_Source\PSoC4/I2CS.c **** 
 285:Generated_Source\PSoC4/I2CS.c ****     rxFifoCtrl &= ((uint32) ~I2CS_RX_FIFO_CTRL_TRIGGER_LEVEL_MASK); /* Clear level mask bits */
 286:Generated_Source\PSoC4/I2CS.c ****     rxFifoCtrl |= ((uint32) (I2CS_RX_FIFO_CTRL_TRIGGER_LEVEL_MASK & level));
 287:Generated_Source\PSoC4/I2CS.c **** 
 288:Generated_Source\PSoC4/I2CS.c ****     I2CS_RX_FIFO_CTRL_REG = rxFifoCtrl;
 289:Generated_Source\PSoC4/I2CS.c **** }
 290:Generated_Source\PSoC4/I2CS.c **** 
 291:Generated_Source\PSoC4/I2CS.c **** 
 292:Generated_Source\PSoC4/I2CS.c **** /*******************************************************************************
 293:Generated_Source\PSoC4/I2CS.c **** * Function Name: I2CS_SetTxFifoLevel
 294:Generated_Source\PSoC4/I2CS.c **** ****************************************************************************//**
 295:Generated_Source\PSoC4/I2CS.c **** *
 296:Generated_Source\PSoC4/I2CS.c **** *  Sets level in the TX FIFO to generate a TX level interrupt.
 297:Generated_Source\PSoC4/I2CS.c **** *  When the TX FIFO has less entries than the TX FIFO level an TX level
 298:Generated_Source\PSoC4/I2CS.c **** *  interrupt request is generated.
 299:Generated_Source\PSoC4/I2CS.c **** *
 300:Generated_Source\PSoC4/I2CS.c **** *  \param level: Level in the TX FIFO to generate TX level interrupt.
 301:Generated_Source\PSoC4/I2CS.c **** *   The range of valid level values is between 0 and TX FIFO depth - 1.
 302:Generated_Source\PSoC4/I2CS.c **** *
 303:Generated_Source\PSoC4/I2CS.c **** *******************************************************************************/
 304:Generated_Source\PSoC4/I2CS.c **** void I2CS_SetTxFifoLevel(uint32 level)
 305:Generated_Source\PSoC4/I2CS.c **** {
 306:Generated_Source\PSoC4/I2CS.c ****     uint32 txFifoCtrl;
 307:Generated_Source\PSoC4/I2CS.c **** 
 308:Generated_Source\PSoC4/I2CS.c ****     txFifoCtrl = I2CS_TX_FIFO_CTRL_REG;
 309:Generated_Source\PSoC4/I2CS.c **** 
 310:Generated_Source\PSoC4/I2CS.c ****     txFifoCtrl &= ((uint32) ~I2CS_TX_FIFO_CTRL_TRIGGER_LEVEL_MASK); /* Clear level mask bits */
 311:Generated_Source\PSoC4/I2CS.c ****     txFifoCtrl |= ((uint32) (I2CS_TX_FIFO_CTRL_TRIGGER_LEVEL_MASK & level));
 312:Generated_Source\PSoC4/I2CS.c **** 
 313:Generated_Source\PSoC4/I2CS.c ****     I2CS_TX_FIFO_CTRL_REG = txFifoCtrl;
 314:Generated_Source\PSoC4/I2CS.c **** }
 315:Generated_Source\PSoC4/I2CS.c **** 
 316:Generated_Source\PSoC4/I2CS.c **** 
ARM GAS  C:\Users\DGILLI~1\AppData\Local\Temp\cczigvdc.s 			page 7


 317:Generated_Source\PSoC4/I2CS.c **** #if (I2CS_SCB_IRQ_INTERNAL)
 318:Generated_Source\PSoC4/I2CS.c ****     /*******************************************************************************
 319:Generated_Source\PSoC4/I2CS.c ****     * Function Name: I2CS_SetCustomInterruptHandler
 320:Generated_Source\PSoC4/I2CS.c ****     ****************************************************************************//**
 321:Generated_Source\PSoC4/I2CS.c ****     *
 322:Generated_Source\PSoC4/I2CS.c ****     *  Registers a function to be called by the internal interrupt handler.
 323:Generated_Source\PSoC4/I2CS.c ****     *  First the function that is registered is called, then the internal interrupt
 324:Generated_Source\PSoC4/I2CS.c ****     *  handler performs any operation such as software buffer management functions
 325:Generated_Source\PSoC4/I2CS.c ****     *  before the interrupt returns.  It is the user's responsibility not to break
 326:Generated_Source\PSoC4/I2CS.c ****     *  the software buffer operations. Only one custom handler is supported, which
 327:Generated_Source\PSoC4/I2CS.c ****     *  is the function provided by the most recent call.
 328:Generated_Source\PSoC4/I2CS.c ****     *  At the initialization time no custom handler is registered.
 329:Generated_Source\PSoC4/I2CS.c ****     *
 330:Generated_Source\PSoC4/I2CS.c ****     *  \param func: Pointer to the function to register.
 331:Generated_Source\PSoC4/I2CS.c ****     *        The value NULL indicates to remove the current custom interrupt
 332:Generated_Source\PSoC4/I2CS.c ****     *        handler.
 333:Generated_Source\PSoC4/I2CS.c ****     *
 334:Generated_Source\PSoC4/I2CS.c ****     *******************************************************************************/
 335:Generated_Source\PSoC4/I2CS.c ****     void I2CS_SetCustomInterruptHandler(void (*func)(void))
 336:Generated_Source\PSoC4/I2CS.c ****     {
 337:Generated_Source\PSoC4/I2CS.c ****     #if !defined (CY_REMOVE_I2CS_CUSTOM_INTR_HANDLER)
 338:Generated_Source\PSoC4/I2CS.c ****         I2CS_customIntrHandler = func; /* Register interrupt handler */
 339:Generated_Source\PSoC4/I2CS.c ****     #else
 340:Generated_Source\PSoC4/I2CS.c ****         if (NULL != func)
 341:Generated_Source\PSoC4/I2CS.c ****         {
 342:Generated_Source\PSoC4/I2CS.c ****             /* Suppress compiler warning */
 343:Generated_Source\PSoC4/I2CS.c ****         }
 344:Generated_Source\PSoC4/I2CS.c ****     #endif /* !defined (CY_REMOVE_I2CS_CUSTOM_INTR_HANDLER) */
 345:Generated_Source\PSoC4/I2CS.c ****     }
 346:Generated_Source\PSoC4/I2CS.c **** #endif /* (I2CS_SCB_IRQ_INTERNAL) */
 347:Generated_Source\PSoC4/I2CS.c **** 
 348:Generated_Source\PSoC4/I2CS.c **** 
 349:Generated_Source\PSoC4/I2CS.c **** /*******************************************************************************
 350:Generated_Source\PSoC4/I2CS.c **** * Function Name: I2CS_ScbModeEnableIntr
 351:Generated_Source\PSoC4/I2CS.c **** ****************************************************************************//**
 352:Generated_Source\PSoC4/I2CS.c **** *
 353:Generated_Source\PSoC4/I2CS.c **** *  Enables an interrupt for a specific mode.
 354:Generated_Source\PSoC4/I2CS.c **** *
 355:Generated_Source\PSoC4/I2CS.c **** *******************************************************************************/
 356:Generated_Source\PSoC4/I2CS.c **** static void I2CS_ScbEnableIntr(void)
 357:Generated_Source\PSoC4/I2CS.c **** {
  27              		.loc 1 357 0
  28              		.cfi_startproc
  29              		@ args = 0, pretend = 0, frame = 0
  30              		@ frame_needed = 0, uses_anonymous_args = 0
  31 0000 10B5     		push	{r4, lr}
  32              		.cfi_def_cfa_offset 8
  33              		.cfi_offset 4, -8
  34              		.cfi_offset 14, -4
 358:Generated_Source\PSoC4/I2CS.c **** #if (I2CS_SCB_IRQ_INTERNAL)
 359:Generated_Source\PSoC4/I2CS.c ****     /* Enable interrupt in NVIC */
 360:Generated_Source\PSoC4/I2CS.c ****     #if (I2CS_SCB_MODE_UNCONFIG_CONST_CFG)
 361:Generated_Source\PSoC4/I2CS.c ****         if (0u != I2CS_scbEnableIntr)
 362:Generated_Source\PSoC4/I2CS.c ****         {
 363:Generated_Source\PSoC4/I2CS.c ****             I2CS_EnableInt();
 364:Generated_Source\PSoC4/I2CS.c ****         }
 365:Generated_Source\PSoC4/I2CS.c **** 
ARM GAS  C:\Users\DGILLI~1\AppData\Local\Temp\cczigvdc.s 			page 8


 366:Generated_Source\PSoC4/I2CS.c ****     #else
 367:Generated_Source\PSoC4/I2CS.c ****         I2CS_EnableInt();
  35              		.loc 1 367 0
  36 0002 0720     		movs	r0, #7
  37 0004 FFF7FEFF 		bl	CyIntEnable
  38              	.LVL0:
 368:Generated_Source\PSoC4/I2CS.c **** 
 369:Generated_Source\PSoC4/I2CS.c ****     #endif /* (I2CS_SCB_MODE_UNCONFIG_CONST_CFG) */
 370:Generated_Source\PSoC4/I2CS.c **** #endif /* (I2CS_SCB_IRQ_INTERNAL) */
 371:Generated_Source\PSoC4/I2CS.c **** }
  39              		.loc 1 371 0
  40              		@ sp needed
  41 0008 10BD     		pop	{r4, pc}
  42              		.cfi_endproc
  43              	.LFE8:
  44              		.size	I2CS_ScbEnableIntr, .-I2CS_ScbEnableIntr
  45 000a C046     		.section	.text.I2CS_ScbModeStop,"ax",%progbits
  46              		.align	2
  47              		.code	16
  48              		.thumb_func
  49              		.type	I2CS_ScbModeStop, %function
  50              	I2CS_ScbModeStop:
  51              	.LFB10:
 372:Generated_Source\PSoC4/I2CS.c **** 
 373:Generated_Source\PSoC4/I2CS.c **** 
 374:Generated_Source\PSoC4/I2CS.c **** /*******************************************************************************
 375:Generated_Source\PSoC4/I2CS.c **** * Function Name: I2CS_ScbModePostEnable
 376:Generated_Source\PSoC4/I2CS.c **** ****************************************************************************//**
 377:Generated_Source\PSoC4/I2CS.c **** *
 378:Generated_Source\PSoC4/I2CS.c **** *  Calls the PostEnable function for a specific operation mode.
 379:Generated_Source\PSoC4/I2CS.c **** *
 380:Generated_Source\PSoC4/I2CS.c **** *******************************************************************************/
 381:Generated_Source\PSoC4/I2CS.c **** static void I2CS_ScbModePostEnable(void)
 382:Generated_Source\PSoC4/I2CS.c **** {
 383:Generated_Source\PSoC4/I2CS.c **** #if (I2CS_SCB_MODE_UNCONFIG_CONST_CFG)
 384:Generated_Source\PSoC4/I2CS.c **** #if (!I2CS_CY_SCBIP_V1)
 385:Generated_Source\PSoC4/I2CS.c ****     if (I2CS_SCB_MODE_SPI_RUNTM_CFG)
 386:Generated_Source\PSoC4/I2CS.c ****     {
 387:Generated_Source\PSoC4/I2CS.c ****         I2CS_SpiPostEnable();
 388:Generated_Source\PSoC4/I2CS.c ****     }
 389:Generated_Source\PSoC4/I2CS.c ****     else if (I2CS_SCB_MODE_UART_RUNTM_CFG)
 390:Generated_Source\PSoC4/I2CS.c ****     {
 391:Generated_Source\PSoC4/I2CS.c ****         I2CS_UartPostEnable();
 392:Generated_Source\PSoC4/I2CS.c ****     }
 393:Generated_Source\PSoC4/I2CS.c ****     else
 394:Generated_Source\PSoC4/I2CS.c ****     {
 395:Generated_Source\PSoC4/I2CS.c ****         /* Unknown mode: do nothing */
 396:Generated_Source\PSoC4/I2CS.c ****     }
 397:Generated_Source\PSoC4/I2CS.c **** #endif /* (!I2CS_CY_SCBIP_V1) */
 398:Generated_Source\PSoC4/I2CS.c **** 
 399:Generated_Source\PSoC4/I2CS.c **** #elif (I2CS_SCB_MODE_SPI_CONST_CFG)
 400:Generated_Source\PSoC4/I2CS.c ****     I2CS_SpiPostEnable();
 401:Generated_Source\PSoC4/I2CS.c **** 
 402:Generated_Source\PSoC4/I2CS.c **** #elif (I2CS_SCB_MODE_UART_CONST_CFG)
 403:Generated_Source\PSoC4/I2CS.c ****     I2CS_UartPostEnable();
 404:Generated_Source\PSoC4/I2CS.c **** 
 405:Generated_Source\PSoC4/I2CS.c **** #else
ARM GAS  C:\Users\DGILLI~1\AppData\Local\Temp\cczigvdc.s 			page 9


 406:Generated_Source\PSoC4/I2CS.c ****     /* Unknown mode: do nothing */
 407:Generated_Source\PSoC4/I2CS.c **** #endif /* (I2CS_SCB_MODE_UNCONFIG_CONST_CFG) */
 408:Generated_Source\PSoC4/I2CS.c **** }
 409:Generated_Source\PSoC4/I2CS.c **** 
 410:Generated_Source\PSoC4/I2CS.c **** 
 411:Generated_Source\PSoC4/I2CS.c **** /*******************************************************************************
 412:Generated_Source\PSoC4/I2CS.c **** * Function Name: I2CS_ScbModeStop
 413:Generated_Source\PSoC4/I2CS.c **** ****************************************************************************//**
 414:Generated_Source\PSoC4/I2CS.c **** *
 415:Generated_Source\PSoC4/I2CS.c **** *  Calls the Stop function for a specific operation mode.
 416:Generated_Source\PSoC4/I2CS.c **** *
 417:Generated_Source\PSoC4/I2CS.c **** *******************************************************************************/
 418:Generated_Source\PSoC4/I2CS.c **** static void I2CS_ScbModeStop(void)
 419:Generated_Source\PSoC4/I2CS.c **** {
  52              		.loc 1 419 0
  53              		.cfi_startproc
  54              		@ args = 0, pretend = 0, frame = 0
  55              		@ frame_needed = 0, uses_anonymous_args = 0
  56 0000 10B5     		push	{r4, lr}
  57              		.cfi_def_cfa_offset 8
  58              		.cfi_offset 4, -8
  59              		.cfi_offset 14, -4
 420:Generated_Source\PSoC4/I2CS.c **** #if (I2CS_SCB_MODE_UNCONFIG_CONST_CFG)
 421:Generated_Source\PSoC4/I2CS.c ****     if (I2CS_SCB_MODE_I2C_RUNTM_CFG)
 422:Generated_Source\PSoC4/I2CS.c ****     {
 423:Generated_Source\PSoC4/I2CS.c ****         I2CS_I2CStop();
 424:Generated_Source\PSoC4/I2CS.c ****     }
 425:Generated_Source\PSoC4/I2CS.c ****     else if (I2CS_SCB_MODE_EZI2C_RUNTM_CFG)
 426:Generated_Source\PSoC4/I2CS.c ****     {
 427:Generated_Source\PSoC4/I2CS.c ****         I2CS_EzI2CStop();
 428:Generated_Source\PSoC4/I2CS.c ****     }
 429:Generated_Source\PSoC4/I2CS.c **** #if (!I2CS_CY_SCBIP_V1)
 430:Generated_Source\PSoC4/I2CS.c ****     else if (I2CS_SCB_MODE_SPI_RUNTM_CFG)
 431:Generated_Source\PSoC4/I2CS.c ****     {
 432:Generated_Source\PSoC4/I2CS.c ****         I2CS_SpiStop();
 433:Generated_Source\PSoC4/I2CS.c ****     }
 434:Generated_Source\PSoC4/I2CS.c ****     else if (I2CS_SCB_MODE_UART_RUNTM_CFG)
 435:Generated_Source\PSoC4/I2CS.c ****     {
 436:Generated_Source\PSoC4/I2CS.c ****         I2CS_UartStop();
 437:Generated_Source\PSoC4/I2CS.c ****     }
 438:Generated_Source\PSoC4/I2CS.c **** #endif /* (!I2CS_CY_SCBIP_V1) */
 439:Generated_Source\PSoC4/I2CS.c ****     else
 440:Generated_Source\PSoC4/I2CS.c ****     {
 441:Generated_Source\PSoC4/I2CS.c ****         /* Unknown mode: do nothing */
 442:Generated_Source\PSoC4/I2CS.c ****     }
 443:Generated_Source\PSoC4/I2CS.c **** #elif (I2CS_SCB_MODE_I2C_CONST_CFG)
 444:Generated_Source\PSoC4/I2CS.c ****     I2CS_I2CStop();
  60              		.loc 1 444 0
  61 0002 FFF7FEFF 		bl	I2CS_I2CStop
  62              	.LVL1:
 445:Generated_Source\PSoC4/I2CS.c **** 
 446:Generated_Source\PSoC4/I2CS.c **** #elif (I2CS_SCB_MODE_EZI2C_CONST_CFG)
 447:Generated_Source\PSoC4/I2CS.c ****     I2CS_EzI2CStop();
 448:Generated_Source\PSoC4/I2CS.c **** 
 449:Generated_Source\PSoC4/I2CS.c **** #elif (I2CS_SCB_MODE_SPI_CONST_CFG)
 450:Generated_Source\PSoC4/I2CS.c ****     I2CS_SpiStop();
 451:Generated_Source\PSoC4/I2CS.c **** 
ARM GAS  C:\Users\DGILLI~1\AppData\Local\Temp\cczigvdc.s 			page 10


 452:Generated_Source\PSoC4/I2CS.c **** #elif (I2CS_SCB_MODE_UART_CONST_CFG)
 453:Generated_Source\PSoC4/I2CS.c ****     I2CS_UartStop();
 454:Generated_Source\PSoC4/I2CS.c **** 
 455:Generated_Source\PSoC4/I2CS.c **** #else
 456:Generated_Source\PSoC4/I2CS.c ****     /* Unknown mode: do nothing */
 457:Generated_Source\PSoC4/I2CS.c **** #endif /* (I2CS_SCB_MODE_UNCONFIG_CONST_CFG) */
 458:Generated_Source\PSoC4/I2CS.c **** }
  63              		.loc 1 458 0
  64              		@ sp needed
  65 0006 10BD     		pop	{r4, pc}
  66              		.cfi_endproc
  67              	.LFE10:
  68              		.size	I2CS_ScbModeStop, .-I2CS_ScbModeStop
  69              		.section	.text.I2CS_Init,"ax",%progbits
  70              		.align	2
  71              		.global	I2CS_Init
  72              		.code	16
  73              		.thumb_func
  74              		.type	I2CS_Init, %function
  75              	I2CS_Init:
  76              	.LFB1:
 124:Generated_Source\PSoC4/I2CS.c **** #if (I2CS_SCB_MODE_UNCONFIG_CONST_CFG)
  77              		.loc 1 124 0
  78              		.cfi_startproc
  79              		@ args = 0, pretend = 0, frame = 0
  80              		@ frame_needed = 0, uses_anonymous_args = 0
  81 0000 10B5     		push	{r4, lr}
  82              		.cfi_def_cfa_offset 8
  83              		.cfi_offset 4, -8
  84              		.cfi_offset 14, -4
 136:Generated_Source\PSoC4/I2CS.c **** 
  85              		.loc 1 136 0
  86 0002 FFF7FEFF 		bl	I2CS_I2CInit
  87              	.LVL2:
 148:Generated_Source\PSoC4/I2CS.c **** 
  88              		.loc 1 148 0
  89              		@ sp needed
  90 0006 10BD     		pop	{r4, pc}
  91              		.cfi_endproc
  92              	.LFE1:
  93              		.size	I2CS_Init, .-I2CS_Init
  94              		.section	.text.I2CS_Enable,"ax",%progbits
  95              		.align	2
  96              		.global	I2CS_Enable
  97              		.code	16
  98              		.thumb_func
  99              		.type	I2CS_Enable, %function
 100              	I2CS_Enable:
 101              	.LFB2:
 172:Generated_Source\PSoC4/I2CS.c **** #if (I2CS_SCB_MODE_UNCONFIG_CONST_CFG)
 102              		.loc 1 172 0
 103              		.cfi_startproc
 104              		@ args = 0, pretend = 0, frame = 0
 105              		@ frame_needed = 0, uses_anonymous_args = 0
 106 0000 10B5     		push	{r4, lr}
 107              		.cfi_def_cfa_offset 8
 108              		.cfi_offset 4, -8
ARM GAS  C:\Users\DGILLI~1\AppData\Local\Temp\cczigvdc.s 			page 11


 109              		.cfi_offset 14, -4
 185:Generated_Source\PSoC4/I2CS.c **** 
 110              		.loc 1 185 0
 111 0002 044A     		ldr	r2, .L5
 112 0004 1368     		ldr	r3, [r2]
 113 0006 8021     		movs	r1, #128
 114 0008 0906     		lsls	r1, r1, #24
 115 000a 0B43     		orrs	r3, r1
 116 000c 1360     		str	r3, [r2]
 187:Generated_Source\PSoC4/I2CS.c **** 
 117              		.loc 1 187 0
 118 000e FFF7FEFF 		bl	I2CS_ScbEnableIntr
 119              	.LVL3:
 192:Generated_Source\PSoC4/I2CS.c **** 
 120              		.loc 1 192 0
 121              		@ sp needed
 122 0012 10BD     		pop	{r4, pc}
 123              	.L6:
 124              		.align	2
 125              	.L5:
 126 0014 00000840 		.word	1074266112
 127              		.cfi_endproc
 128              	.LFE2:
 129              		.size	I2CS_Enable, .-I2CS_Enable
 130              		.section	.text.I2CS_Start,"ax",%progbits
 131              		.align	2
 132              		.global	I2CS_Start
 133              		.code	16
 134              		.thumb_func
 135              		.type	I2CS_Start, %function
 136              	I2CS_Start:
 137              	.LFB3:
 211:Generated_Source\PSoC4/I2CS.c ****     if (0u == I2CS_initVar)
 138              		.loc 1 211 0
 139              		.cfi_startproc
 140              		@ args = 0, pretend = 0, frame = 0
 141              		@ frame_needed = 0, uses_anonymous_args = 0
 142 0000 10B5     		push	{r4, lr}
 143              		.cfi_def_cfa_offset 8
 144              		.cfi_offset 4, -8
 145              		.cfi_offset 14, -4
 212:Generated_Source\PSoC4/I2CS.c ****     {
 146              		.loc 1 212 0
 147 0002 064B     		ldr	r3, .L9
 148 0004 1B78     		ldrb	r3, [r3]
 149 0006 002B     		cmp	r3, #0
 150 0008 04D1     		bne	.L8
 214:Generated_Source\PSoC4/I2CS.c ****         I2CS_initVar = 1u; /* Component was initialized */
 151              		.loc 1 214 0
 152 000a FFF7FEFF 		bl	I2CS_Init
 153              	.LVL4:
 215:Generated_Source\PSoC4/I2CS.c ****     }
 154              		.loc 1 215 0
 155 000e 0122     		movs	r2, #1
 156 0010 024B     		ldr	r3, .L9
 157 0012 1A70     		strb	r2, [r3]
 158              	.L8:
ARM GAS  C:\Users\DGILLI~1\AppData\Local\Temp\cczigvdc.s 			page 12


 218:Generated_Source\PSoC4/I2CS.c **** }
 159              		.loc 1 218 0
 160 0014 FFF7FEFF 		bl	I2CS_Enable
 161              	.LVL5:
 219:Generated_Source\PSoC4/I2CS.c **** 
 162              		.loc 1 219 0
 163              		@ sp needed
 164 0018 10BD     		pop	{r4, pc}
 165              	.L10:
 166 001a C046     		.align	2
 167              	.L9:
 168 001c 00000000 		.word	.LANCHOR0
 169              		.cfi_endproc
 170              	.LFE3:
 171              		.size	I2CS_Start, .-I2CS_Start
 172              		.section	.text.I2CS_Stop,"ax",%progbits
 173              		.align	2
 174              		.global	I2CS_Stop
 175              		.code	16
 176              		.thumb_func
 177              		.type	I2CS_Stop, %function
 178              	I2CS_Stop:
 179              	.LFB4:
 240:Generated_Source\PSoC4/I2CS.c **** #if (I2CS_SCB_IRQ_INTERNAL)
 180              		.loc 1 240 0
 181              		.cfi_startproc
 182              		@ args = 0, pretend = 0, frame = 0
 183              		@ frame_needed = 0, uses_anonymous_args = 0
 184 0000 10B5     		push	{r4, lr}
 185              		.cfi_def_cfa_offset 8
 186              		.cfi_offset 4, -8
 187              		.cfi_offset 14, -4
 242:Generated_Source\PSoC4/I2CS.c **** #endif /* (I2CS_SCB_IRQ_INTERNAL) */
 188              		.loc 1 242 0
 189 0002 0720     		movs	r0, #7
 190 0004 FFF7FEFF 		bl	CyIntDisable
 191              	.LVL6:
 246:Generated_Source\PSoC4/I2CS.c **** 
 192              		.loc 1 246 0
 193 0008 FFF7FEFF 		bl	I2CS_ScbModeStop
 194              	.LVL7:
 249:Generated_Source\PSoC4/I2CS.c **** 
 195              		.loc 1 249 0
 196 000c 054A     		ldr	r2, .L12
 197 000e 1368     		ldr	r3, [r2]
 198 0010 5B00     		lsls	r3, r3, #1
 199 0012 5B08     		lsrs	r3, r3, #1
 200 0014 1360     		str	r3, [r2]
 259:Generated_Source\PSoC4/I2CS.c **** 
 201              		.loc 1 259 0
 202 0016 0022     		movs	r2, #0
 203 0018 034B     		ldr	r3, .L12+4
 204 001a 1A60     		str	r2, [r3]
 262:Generated_Source\PSoC4/I2CS.c **** #endif /* (I2CS_SCB_IRQ_INTERNAL) */
 205              		.loc 1 262 0
 206 001c 0720     		movs	r0, #7
 207 001e FFF7FEFF 		bl	CyIntClearPending
ARM GAS  C:\Users\DGILLI~1\AppData\Local\Temp\cczigvdc.s 			page 13


 208              	.LVL8:
 264:Generated_Source\PSoC4/I2CS.c **** 
 209              		.loc 1 264 0
 210              		@ sp needed
 211 0022 10BD     		pop	{r4, pc}
 212              	.L13:
 213              		.align	2
 214              	.L12:
 215 0024 00000840 		.word	1074266112
 216 0028 880F0840 		.word	1074270088
 217              		.cfi_endproc
 218              	.LFE4:
 219              		.size	I2CS_Stop, .-I2CS_Stop
 220              		.section	.text.I2CS_SetRxFifoLevel,"ax",%progbits
 221              		.align	2
 222              		.global	I2CS_SetRxFifoLevel
 223              		.code	16
 224              		.thumb_func
 225              		.type	I2CS_SetRxFifoLevel, %function
 226              	I2CS_SetRxFifoLevel:
 227              	.LFB5:
 280:Generated_Source\PSoC4/I2CS.c ****     uint32 rxFifoCtrl;
 228              		.loc 1 280 0
 229              		.cfi_startproc
 230              		@ args = 0, pretend = 0, frame = 0
 231              		@ frame_needed = 0, uses_anonymous_args = 0
 232              		@ link register save eliminated.
 233              	.LVL9:
 283:Generated_Source\PSoC4/I2CS.c **** 
 234              		.loc 1 283 0
 235 0000 034A     		ldr	r2, .L15
 236 0002 1368     		ldr	r3, [r2]
 237              	.LVL10:
 285:Generated_Source\PSoC4/I2CS.c ****     rxFifoCtrl |= ((uint32) (I2CS_RX_FIFO_CTRL_TRIGGER_LEVEL_MASK & level));
 238              		.loc 1 285 0
 239 0004 0F21     		movs	r1, #15
 240 0006 8B43     		bics	r3, r1
 241              	.LVL11:
 286:Generated_Source\PSoC4/I2CS.c **** 
 242              		.loc 1 286 0
 243 0008 0840     		ands	r0, r1
 244              	.LVL12:
 245 000a 1843     		orrs	r0, r3
 246              	.LVL13:
 288:Generated_Source\PSoC4/I2CS.c **** }
 247              		.loc 1 288 0
 248 000c 1060     		str	r0, [r2]
 289:Generated_Source\PSoC4/I2CS.c **** 
 249              		.loc 1 289 0
 250              		@ sp needed
 251 000e 7047     		bx	lr
 252              	.L16:
 253              		.align	2
 254              	.L15:
 255 0010 04030840 		.word	1074266884
 256              		.cfi_endproc
 257              	.LFE5:
ARM GAS  C:\Users\DGILLI~1\AppData\Local\Temp\cczigvdc.s 			page 14


 258              		.size	I2CS_SetRxFifoLevel, .-I2CS_SetRxFifoLevel
 259              		.section	.text.I2CS_SetTxFifoLevel,"ax",%progbits
 260              		.align	2
 261              		.global	I2CS_SetTxFifoLevel
 262              		.code	16
 263              		.thumb_func
 264              		.type	I2CS_SetTxFifoLevel, %function
 265              	I2CS_SetTxFifoLevel:
 266              	.LFB6:
 305:Generated_Source\PSoC4/I2CS.c ****     uint32 txFifoCtrl;
 267              		.loc 1 305 0
 268              		.cfi_startproc
 269              		@ args = 0, pretend = 0, frame = 0
 270              		@ frame_needed = 0, uses_anonymous_args = 0
 271              		@ link register save eliminated.
 272              	.LVL14:
 308:Generated_Source\PSoC4/I2CS.c **** 
 273              		.loc 1 308 0
 274 0000 034A     		ldr	r2, .L18
 275 0002 1368     		ldr	r3, [r2]
 276              	.LVL15:
 310:Generated_Source\PSoC4/I2CS.c ****     txFifoCtrl |= ((uint32) (I2CS_TX_FIFO_CTRL_TRIGGER_LEVEL_MASK & level));
 277              		.loc 1 310 0
 278 0004 0F21     		movs	r1, #15
 279 0006 8B43     		bics	r3, r1
 280              	.LVL16:
 311:Generated_Source\PSoC4/I2CS.c **** 
 281              		.loc 1 311 0
 282 0008 0840     		ands	r0, r1
 283              	.LVL17:
 284 000a 1843     		orrs	r0, r3
 285              	.LVL18:
 313:Generated_Source\PSoC4/I2CS.c **** }
 286              		.loc 1 313 0
 287 000c 1060     		str	r0, [r2]
 314:Generated_Source\PSoC4/I2CS.c **** 
 288              		.loc 1 314 0
 289              		@ sp needed
 290 000e 7047     		bx	lr
 291              	.L19:
 292              		.align	2
 293              	.L18:
 294 0010 04020840 		.word	1074266628
 295              		.cfi_endproc
 296              	.LFE6:
 297              		.size	I2CS_SetTxFifoLevel, .-I2CS_SetTxFifoLevel
 298              		.section	.text.I2CS_SetCustomInterruptHandler,"ax",%progbits
 299              		.align	2
 300              		.global	I2CS_SetCustomInterruptHandler
 301              		.code	16
 302              		.thumb_func
 303              		.type	I2CS_SetCustomInterruptHandler, %function
 304              	I2CS_SetCustomInterruptHandler:
 305              	.LFB7:
 336:Generated_Source\PSoC4/I2CS.c ****     #if !defined (CY_REMOVE_I2CS_CUSTOM_INTR_HANDLER)
 306              		.loc 1 336 0
 307              		.cfi_startproc
ARM GAS  C:\Users\DGILLI~1\AppData\Local\Temp\cczigvdc.s 			page 15


 308              		@ args = 0, pretend = 0, frame = 0
 309              		@ frame_needed = 0, uses_anonymous_args = 0
 310              		@ link register save eliminated.
 311              	.LVL19:
 338:Generated_Source\PSoC4/I2CS.c ****     #else
 312              		.loc 1 338 0
 313 0000 014B     		ldr	r3, .L21
 314 0002 5860     		str	r0, [r3, #4]
 345:Generated_Source\PSoC4/I2CS.c **** #endif /* (I2CS_SCB_IRQ_INTERNAL) */
 315              		.loc 1 345 0
 316              		@ sp needed
 317 0004 7047     		bx	lr
 318              	.L22:
 319 0006 C046     		.align	2
 320              	.L21:
 321 0008 00000000 		.word	.LANCHOR0
 322              		.cfi_endproc
 323              	.LFE7:
 324              		.size	I2CS_SetCustomInterruptHandler, .-I2CS_SetCustomInterruptHandler
 325              		.global	I2CS_customIntrHandler
 326              		.global	I2CS_initVar
 327              		.bss
 328              		.align	2
 329              		.set	.LANCHOR0,. + 0
 330              		.type	I2CS_initVar, %object
 331              		.size	I2CS_initVar, 1
 332              	I2CS_initVar:
 333 0000 00       		.space	1
 334 0001 000000   		.space	3
 335              		.type	I2CS_customIntrHandler, %object
 336              		.size	I2CS_customIntrHandler, 4
 337              	I2CS_customIntrHandler:
 338 0004 00000000 		.space	4
 339              		.text
 340              	.Letext0:
 341              		.file 2 "Generated_Source\\PSoC4/cytypes.h"
 342              		.file 3 "Generated_Source\\PSoC4/CyLib.h"
 343              		.file 4 "Generated_Source\\PSoC4\\I2CS_I2C_PVT.h"