ARM GAS  C:\Users\DGILLI~1\AppData\Local\Temp\ccux36g3.s 			page 1


   1              		.syntax unified
   2              		.cpu cortex-m0plus
   3              		.fpu softvfp
   4              		.eabi_attribute 20, 1
   5              		.eabi_attribute 21, 1
   6              		.eabi_attribute 23, 3
   7              		.eabi_attribute 24, 1
   8              		.eabi_attribute 25, 1
   9              		.eabi_attribute 26, 1
  10              		.eabi_attribute 30, 1
  11              		.eabi_attribute 34, 0
  12              		.eabi_attribute 18, 4
  13              		.thumb
  14              		.syntax unified
  15              		.file	"I2CS_SCB_IRQ.c"
  16              		.text
  17              	.Ltext0:
  18              		.cfi_sections	.debug_frame
  19              		.section	.text.I2CS_SCB_IRQ_Interrupt,"ax",%progbits
  20              		.align	2
  21              		.global	I2CS_SCB_IRQ_Interrupt
  22              		.code	16
  23              		.thumb_func
  24              		.type	I2CS_SCB_IRQ_Interrupt, %function
  25              	I2CS_SCB_IRQ_Interrupt:
  26              	.LFB4:
  27              		.file 1 "Generated_Source\\PSoC4\\I2CS_SCB_IRQ.c"
   1:Generated_Source\PSoC4/I2CS_SCB_IRQ.c **** /*******************************************************************************
   2:Generated_Source\PSoC4/I2CS_SCB_IRQ.c **** * File Name: I2CS_SCB_IRQ.c  
   3:Generated_Source\PSoC4/I2CS_SCB_IRQ.c **** * Version 1.70
   4:Generated_Source\PSoC4/I2CS_SCB_IRQ.c **** *
   5:Generated_Source\PSoC4/I2CS_SCB_IRQ.c **** *  Description:
   6:Generated_Source\PSoC4/I2CS_SCB_IRQ.c **** *   API for controlling the state of an interrupt.
   7:Generated_Source\PSoC4/I2CS_SCB_IRQ.c **** *
   8:Generated_Source\PSoC4/I2CS_SCB_IRQ.c **** *
   9:Generated_Source\PSoC4/I2CS_SCB_IRQ.c **** *  Note:
  10:Generated_Source\PSoC4/I2CS_SCB_IRQ.c **** *
  11:Generated_Source\PSoC4/I2CS_SCB_IRQ.c **** ********************************************************************************
  12:Generated_Source\PSoC4/I2CS_SCB_IRQ.c **** * Copyright 2008-2015, Cypress Semiconductor Corporation.  All rights reserved.
  13:Generated_Source\PSoC4/I2CS_SCB_IRQ.c **** * You may use this file only in accordance with the license, terms, conditions, 
  14:Generated_Source\PSoC4/I2CS_SCB_IRQ.c **** * disclaimers, and limitations in the end user license agreement accompanying 
  15:Generated_Source\PSoC4/I2CS_SCB_IRQ.c **** * the software package with which this file was provided.
  16:Generated_Source\PSoC4/I2CS_SCB_IRQ.c **** *******************************************************************************/
  17:Generated_Source\PSoC4/I2CS_SCB_IRQ.c **** 
  18:Generated_Source\PSoC4/I2CS_SCB_IRQ.c **** 
  19:Generated_Source\PSoC4/I2CS_SCB_IRQ.c **** #include <cydevice_trm.h>
  20:Generated_Source\PSoC4/I2CS_SCB_IRQ.c **** #include <CyLib.h>
  21:Generated_Source\PSoC4/I2CS_SCB_IRQ.c **** #include <I2CS_SCB_IRQ.h>
  22:Generated_Source\PSoC4/I2CS_SCB_IRQ.c **** #include "cyapicallbacks.h"
  23:Generated_Source\PSoC4/I2CS_SCB_IRQ.c **** 
  24:Generated_Source\PSoC4/I2CS_SCB_IRQ.c **** #if !defined(I2CS_SCB_IRQ__REMOVED) /* Check for removal by optimization */
  25:Generated_Source\PSoC4/I2CS_SCB_IRQ.c **** 
  26:Generated_Source\PSoC4/I2CS_SCB_IRQ.c **** /*******************************************************************************
  27:Generated_Source\PSoC4/I2CS_SCB_IRQ.c **** *  Place your includes, defines and code here 
  28:Generated_Source\PSoC4/I2CS_SCB_IRQ.c **** ********************************************************************************/
  29:Generated_Source\PSoC4/I2CS_SCB_IRQ.c **** /* `#START I2CS_SCB_IRQ_intc` */
  30:Generated_Source\PSoC4/I2CS_SCB_IRQ.c **** 
ARM GAS  C:\Users\DGILLI~1\AppData\Local\Temp\ccux36g3.s 			page 2


  31:Generated_Source\PSoC4/I2CS_SCB_IRQ.c **** /* `#END` */
  32:Generated_Source\PSoC4/I2CS_SCB_IRQ.c **** 
  33:Generated_Source\PSoC4/I2CS_SCB_IRQ.c **** extern cyisraddress CyRamVectors[CYINT_IRQ_BASE + CY_NUM_INTERRUPTS];
  34:Generated_Source\PSoC4/I2CS_SCB_IRQ.c **** 
  35:Generated_Source\PSoC4/I2CS_SCB_IRQ.c **** /* Declared in startup, used to set unused interrupts to. */
  36:Generated_Source\PSoC4/I2CS_SCB_IRQ.c **** CY_ISR_PROTO(IntDefaultHandler);
  37:Generated_Source\PSoC4/I2CS_SCB_IRQ.c **** 
  38:Generated_Source\PSoC4/I2CS_SCB_IRQ.c **** 
  39:Generated_Source\PSoC4/I2CS_SCB_IRQ.c **** /*******************************************************************************
  40:Generated_Source\PSoC4/I2CS_SCB_IRQ.c **** * Function Name: I2CS_SCB_IRQ_Start
  41:Generated_Source\PSoC4/I2CS_SCB_IRQ.c **** ********************************************************************************
  42:Generated_Source\PSoC4/I2CS_SCB_IRQ.c **** *
  43:Generated_Source\PSoC4/I2CS_SCB_IRQ.c **** * Summary:
  44:Generated_Source\PSoC4/I2CS_SCB_IRQ.c **** *  Set up the interrupt and enable it. This function disables the interrupt, 
  45:Generated_Source\PSoC4/I2CS_SCB_IRQ.c **** *  sets the default interrupt vector, sets the priority from the value in the
  46:Generated_Source\PSoC4/I2CS_SCB_IRQ.c **** *  Design Wide Resources Interrupt Editor, then enables the interrupt to the 
  47:Generated_Source\PSoC4/I2CS_SCB_IRQ.c **** *  interrupt controller.
  48:Generated_Source\PSoC4/I2CS_SCB_IRQ.c **** *
  49:Generated_Source\PSoC4/I2CS_SCB_IRQ.c **** * Parameters:  
  50:Generated_Source\PSoC4/I2CS_SCB_IRQ.c **** *   None
  51:Generated_Source\PSoC4/I2CS_SCB_IRQ.c **** *
  52:Generated_Source\PSoC4/I2CS_SCB_IRQ.c **** * Return:
  53:Generated_Source\PSoC4/I2CS_SCB_IRQ.c **** *   None
  54:Generated_Source\PSoC4/I2CS_SCB_IRQ.c **** *
  55:Generated_Source\PSoC4/I2CS_SCB_IRQ.c **** *******************************************************************************/
  56:Generated_Source\PSoC4/I2CS_SCB_IRQ.c **** void I2CS_SCB_IRQ_Start(void)
  57:Generated_Source\PSoC4/I2CS_SCB_IRQ.c **** {
  58:Generated_Source\PSoC4/I2CS_SCB_IRQ.c ****     /* For all we know the interrupt is active. */
  59:Generated_Source\PSoC4/I2CS_SCB_IRQ.c ****     I2CS_SCB_IRQ_Disable();
  60:Generated_Source\PSoC4/I2CS_SCB_IRQ.c **** 
  61:Generated_Source\PSoC4/I2CS_SCB_IRQ.c ****     /* Set the ISR to point to the I2CS_SCB_IRQ Interrupt. */
  62:Generated_Source\PSoC4/I2CS_SCB_IRQ.c ****     I2CS_SCB_IRQ_SetVector(&I2CS_SCB_IRQ_Interrupt);
  63:Generated_Source\PSoC4/I2CS_SCB_IRQ.c **** 
  64:Generated_Source\PSoC4/I2CS_SCB_IRQ.c ****     /* Set the priority. */
  65:Generated_Source\PSoC4/I2CS_SCB_IRQ.c ****     I2CS_SCB_IRQ_SetPriority((uint8)I2CS_SCB_IRQ_INTC_PRIOR_NUMBER);
  66:Generated_Source\PSoC4/I2CS_SCB_IRQ.c **** 
  67:Generated_Source\PSoC4/I2CS_SCB_IRQ.c ****     /* Enable it. */
  68:Generated_Source\PSoC4/I2CS_SCB_IRQ.c ****     I2CS_SCB_IRQ_Enable();
  69:Generated_Source\PSoC4/I2CS_SCB_IRQ.c **** }
  70:Generated_Source\PSoC4/I2CS_SCB_IRQ.c **** 
  71:Generated_Source\PSoC4/I2CS_SCB_IRQ.c **** 
  72:Generated_Source\PSoC4/I2CS_SCB_IRQ.c **** /*******************************************************************************
  73:Generated_Source\PSoC4/I2CS_SCB_IRQ.c **** * Function Name: I2CS_SCB_IRQ_StartEx
  74:Generated_Source\PSoC4/I2CS_SCB_IRQ.c **** ********************************************************************************
  75:Generated_Source\PSoC4/I2CS_SCB_IRQ.c **** *
  76:Generated_Source\PSoC4/I2CS_SCB_IRQ.c **** * Summary:
  77:Generated_Source\PSoC4/I2CS_SCB_IRQ.c **** *  Sets up the interrupt and enables it. This function disables the interrupt,
  78:Generated_Source\PSoC4/I2CS_SCB_IRQ.c **** *  sets the interrupt vector based on the address passed in, sets the priority 
  79:Generated_Source\PSoC4/I2CS_SCB_IRQ.c **** *  from the value in the Design Wide Resources Interrupt Editor, then enables 
  80:Generated_Source\PSoC4/I2CS_SCB_IRQ.c **** *  the interrupt to the interrupt controller.
  81:Generated_Source\PSoC4/I2CS_SCB_IRQ.c **** *  
  82:Generated_Source\PSoC4/I2CS_SCB_IRQ.c **** *  When defining ISR functions, the CY_ISR and CY_ISR_PROTO macros should be 
  83:Generated_Source\PSoC4/I2CS_SCB_IRQ.c **** *  used to provide consistent definition across compilers:
  84:Generated_Source\PSoC4/I2CS_SCB_IRQ.c **** *  
  85:Generated_Source\PSoC4/I2CS_SCB_IRQ.c **** *  Function definition example:
  86:Generated_Source\PSoC4/I2CS_SCB_IRQ.c **** *   CY_ISR(MyISR)
  87:Generated_Source\PSoC4/I2CS_SCB_IRQ.c **** *   {
ARM GAS  C:\Users\DGILLI~1\AppData\Local\Temp\ccux36g3.s 			page 3


  88:Generated_Source\PSoC4/I2CS_SCB_IRQ.c **** *   }
  89:Generated_Source\PSoC4/I2CS_SCB_IRQ.c **** *   Function prototype example:
  90:Generated_Source\PSoC4/I2CS_SCB_IRQ.c **** *   CY_ISR_PROTO(MyISR);
  91:Generated_Source\PSoC4/I2CS_SCB_IRQ.c **** *
  92:Generated_Source\PSoC4/I2CS_SCB_IRQ.c **** * Parameters:  
  93:Generated_Source\PSoC4/I2CS_SCB_IRQ.c **** *   address: Address of the ISR to set in the interrupt vector table.
  94:Generated_Source\PSoC4/I2CS_SCB_IRQ.c **** *
  95:Generated_Source\PSoC4/I2CS_SCB_IRQ.c **** * Return:
  96:Generated_Source\PSoC4/I2CS_SCB_IRQ.c **** *   None
  97:Generated_Source\PSoC4/I2CS_SCB_IRQ.c **** *
  98:Generated_Source\PSoC4/I2CS_SCB_IRQ.c **** *******************************************************************************/
  99:Generated_Source\PSoC4/I2CS_SCB_IRQ.c **** void I2CS_SCB_IRQ_StartEx(cyisraddress address)
 100:Generated_Source\PSoC4/I2CS_SCB_IRQ.c **** {
 101:Generated_Source\PSoC4/I2CS_SCB_IRQ.c ****     /* For all we know the interrupt is active. */
 102:Generated_Source\PSoC4/I2CS_SCB_IRQ.c ****     I2CS_SCB_IRQ_Disable();
 103:Generated_Source\PSoC4/I2CS_SCB_IRQ.c **** 
 104:Generated_Source\PSoC4/I2CS_SCB_IRQ.c ****     /* Set the ISR to point to the I2CS_SCB_IRQ Interrupt. */
 105:Generated_Source\PSoC4/I2CS_SCB_IRQ.c ****     I2CS_SCB_IRQ_SetVector(address);
 106:Generated_Source\PSoC4/I2CS_SCB_IRQ.c **** 
 107:Generated_Source\PSoC4/I2CS_SCB_IRQ.c ****     /* Set the priority. */
 108:Generated_Source\PSoC4/I2CS_SCB_IRQ.c ****     I2CS_SCB_IRQ_SetPriority((uint8)I2CS_SCB_IRQ_INTC_PRIOR_NUMBER);
 109:Generated_Source\PSoC4/I2CS_SCB_IRQ.c **** 
 110:Generated_Source\PSoC4/I2CS_SCB_IRQ.c ****     /* Enable it. */
 111:Generated_Source\PSoC4/I2CS_SCB_IRQ.c ****     I2CS_SCB_IRQ_Enable();
 112:Generated_Source\PSoC4/I2CS_SCB_IRQ.c **** }
 113:Generated_Source\PSoC4/I2CS_SCB_IRQ.c **** 
 114:Generated_Source\PSoC4/I2CS_SCB_IRQ.c **** 
 115:Generated_Source\PSoC4/I2CS_SCB_IRQ.c **** /*******************************************************************************
 116:Generated_Source\PSoC4/I2CS_SCB_IRQ.c **** * Function Name: I2CS_SCB_IRQ_Stop
 117:Generated_Source\PSoC4/I2CS_SCB_IRQ.c **** ********************************************************************************
 118:Generated_Source\PSoC4/I2CS_SCB_IRQ.c **** *
 119:Generated_Source\PSoC4/I2CS_SCB_IRQ.c **** * Summary:
 120:Generated_Source\PSoC4/I2CS_SCB_IRQ.c **** *   Disables and removes the interrupt.
 121:Generated_Source\PSoC4/I2CS_SCB_IRQ.c **** *
 122:Generated_Source\PSoC4/I2CS_SCB_IRQ.c **** * Parameters:  
 123:Generated_Source\PSoC4/I2CS_SCB_IRQ.c **** *   None
 124:Generated_Source\PSoC4/I2CS_SCB_IRQ.c **** *
 125:Generated_Source\PSoC4/I2CS_SCB_IRQ.c **** * Return:
 126:Generated_Source\PSoC4/I2CS_SCB_IRQ.c **** *   None
 127:Generated_Source\PSoC4/I2CS_SCB_IRQ.c **** *
 128:Generated_Source\PSoC4/I2CS_SCB_IRQ.c **** *******************************************************************************/
 129:Generated_Source\PSoC4/I2CS_SCB_IRQ.c **** void I2CS_SCB_IRQ_Stop(void)
 130:Generated_Source\PSoC4/I2CS_SCB_IRQ.c **** {
 131:Generated_Source\PSoC4/I2CS_SCB_IRQ.c ****     /* Disable this interrupt. */
 132:Generated_Source\PSoC4/I2CS_SCB_IRQ.c ****     I2CS_SCB_IRQ_Disable();
 133:Generated_Source\PSoC4/I2CS_SCB_IRQ.c **** 
 134:Generated_Source\PSoC4/I2CS_SCB_IRQ.c ****     /* Set the ISR to point to the passive one. */
 135:Generated_Source\PSoC4/I2CS_SCB_IRQ.c ****     I2CS_SCB_IRQ_SetVector(&IntDefaultHandler);
 136:Generated_Source\PSoC4/I2CS_SCB_IRQ.c **** }
 137:Generated_Source\PSoC4/I2CS_SCB_IRQ.c **** 
 138:Generated_Source\PSoC4/I2CS_SCB_IRQ.c **** 
 139:Generated_Source\PSoC4/I2CS_SCB_IRQ.c **** /*******************************************************************************
 140:Generated_Source\PSoC4/I2CS_SCB_IRQ.c **** * Function Name: I2CS_SCB_IRQ_Interrupt
 141:Generated_Source\PSoC4/I2CS_SCB_IRQ.c **** ********************************************************************************
 142:Generated_Source\PSoC4/I2CS_SCB_IRQ.c **** *
 143:Generated_Source\PSoC4/I2CS_SCB_IRQ.c **** * Summary:
 144:Generated_Source\PSoC4/I2CS_SCB_IRQ.c **** *   The default Interrupt Service Routine for I2CS_SCB_IRQ.
ARM GAS  C:\Users\DGILLI~1\AppData\Local\Temp\ccux36g3.s 			page 4


 145:Generated_Source\PSoC4/I2CS_SCB_IRQ.c **** *
 146:Generated_Source\PSoC4/I2CS_SCB_IRQ.c **** *   Add custom code between the START and END comments to keep the next version
 147:Generated_Source\PSoC4/I2CS_SCB_IRQ.c **** *   of this file from over-writing your code.
 148:Generated_Source\PSoC4/I2CS_SCB_IRQ.c **** *
 149:Generated_Source\PSoC4/I2CS_SCB_IRQ.c **** *   Note You may use either the default ISR by using this API, or you may define
 150:Generated_Source\PSoC4/I2CS_SCB_IRQ.c **** *   your own separate ISR through ISR_StartEx().
 151:Generated_Source\PSoC4/I2CS_SCB_IRQ.c **** *
 152:Generated_Source\PSoC4/I2CS_SCB_IRQ.c **** * Parameters:  
 153:Generated_Source\PSoC4/I2CS_SCB_IRQ.c **** *   None
 154:Generated_Source\PSoC4/I2CS_SCB_IRQ.c **** *
 155:Generated_Source\PSoC4/I2CS_SCB_IRQ.c **** * Return:
 156:Generated_Source\PSoC4/I2CS_SCB_IRQ.c **** *   None
 157:Generated_Source\PSoC4/I2CS_SCB_IRQ.c **** *
 158:Generated_Source\PSoC4/I2CS_SCB_IRQ.c **** *******************************************************************************/
 159:Generated_Source\PSoC4/I2CS_SCB_IRQ.c **** CY_ISR(I2CS_SCB_IRQ_Interrupt)
 160:Generated_Source\PSoC4/I2CS_SCB_IRQ.c **** {
  28              		.loc 1 160 0
  29              		.cfi_startproc
  30              		@ args = 0, pretend = 0, frame = 0
  31              		@ frame_needed = 0, uses_anonymous_args = 0
  32              		@ link register save eliminated.
 161:Generated_Source\PSoC4/I2CS_SCB_IRQ.c ****     #ifdef I2CS_SCB_IRQ_INTERRUPT_INTERRUPT_CALLBACK
 162:Generated_Source\PSoC4/I2CS_SCB_IRQ.c ****         I2CS_SCB_IRQ_Interrupt_InterruptCallback();
 163:Generated_Source\PSoC4/I2CS_SCB_IRQ.c ****     #endif /* I2CS_SCB_IRQ_INTERRUPT_INTERRUPT_CALLBACK */ 
 164:Generated_Source\PSoC4/I2CS_SCB_IRQ.c **** 
 165:Generated_Source\PSoC4/I2CS_SCB_IRQ.c ****     /*  Place your Interrupt code here. */
 166:Generated_Source\PSoC4/I2CS_SCB_IRQ.c ****     /* `#START I2CS_SCB_IRQ_Interrupt` */
 167:Generated_Source\PSoC4/I2CS_SCB_IRQ.c **** 
 168:Generated_Source\PSoC4/I2CS_SCB_IRQ.c ****     /* `#END` */
 169:Generated_Source\PSoC4/I2CS_SCB_IRQ.c **** }
  33              		.loc 1 169 0
  34              		@ sp needed
  35 0000 7047     		bx	lr
  36              		.cfi_endproc
  37              	.LFE4:
  38              		.size	I2CS_SCB_IRQ_Interrupt, .-I2CS_SCB_IRQ_Interrupt
  39 0002 C046     		.section	.text.I2CS_SCB_IRQ_SetVector,"ax",%progbits
  40              		.align	2
  41              		.global	I2CS_SCB_IRQ_SetVector
  42              		.code	16
  43              		.thumb_func
  44              		.type	I2CS_SCB_IRQ_SetVector, %function
  45              	I2CS_SCB_IRQ_SetVector:
  46              	.LFB5:
 170:Generated_Source\PSoC4/I2CS_SCB_IRQ.c **** 
 171:Generated_Source\PSoC4/I2CS_SCB_IRQ.c **** 
 172:Generated_Source\PSoC4/I2CS_SCB_IRQ.c **** /*******************************************************************************
 173:Generated_Source\PSoC4/I2CS_SCB_IRQ.c **** * Function Name: I2CS_SCB_IRQ_SetVector
 174:Generated_Source\PSoC4/I2CS_SCB_IRQ.c **** ********************************************************************************
 175:Generated_Source\PSoC4/I2CS_SCB_IRQ.c **** *
 176:Generated_Source\PSoC4/I2CS_SCB_IRQ.c **** * Summary:
 177:Generated_Source\PSoC4/I2CS_SCB_IRQ.c **** *   Change the ISR vector for the Interrupt. Note calling I2CS_SCB_IRQ_Start
 178:Generated_Source\PSoC4/I2CS_SCB_IRQ.c **** *   will override any effect this method would have had. To set the vector 
 179:Generated_Source\PSoC4/I2CS_SCB_IRQ.c **** *   before the component has been started use I2CS_SCB_IRQ_StartEx instead.
 180:Generated_Source\PSoC4/I2CS_SCB_IRQ.c **** * 
 181:Generated_Source\PSoC4/I2CS_SCB_IRQ.c **** *   When defining ISR functions, the CY_ISR and CY_ISR_PROTO macros should be 
 182:Generated_Source\PSoC4/I2CS_SCB_IRQ.c **** *   used to provide consistent definition across compilers:
ARM GAS  C:\Users\DGILLI~1\AppData\Local\Temp\ccux36g3.s 			page 5


 183:Generated_Source\PSoC4/I2CS_SCB_IRQ.c **** *
 184:Generated_Source\PSoC4/I2CS_SCB_IRQ.c **** *   Function definition example:
 185:Generated_Source\PSoC4/I2CS_SCB_IRQ.c **** *   CY_ISR(MyISR)
 186:Generated_Source\PSoC4/I2CS_SCB_IRQ.c **** *   {
 187:Generated_Source\PSoC4/I2CS_SCB_IRQ.c **** *   }
 188:Generated_Source\PSoC4/I2CS_SCB_IRQ.c **** *
 189:Generated_Source\PSoC4/I2CS_SCB_IRQ.c **** *   Function prototype example:
 190:Generated_Source\PSoC4/I2CS_SCB_IRQ.c **** *     CY_ISR_PROTO(MyISR);
 191:Generated_Source\PSoC4/I2CS_SCB_IRQ.c **** *
 192:Generated_Source\PSoC4/I2CS_SCB_IRQ.c **** * Parameters:
 193:Generated_Source\PSoC4/I2CS_SCB_IRQ.c **** *   address: Address of the ISR to set in the interrupt vector table.
 194:Generated_Source\PSoC4/I2CS_SCB_IRQ.c **** *
 195:Generated_Source\PSoC4/I2CS_SCB_IRQ.c **** * Return:
 196:Generated_Source\PSoC4/I2CS_SCB_IRQ.c **** *   None
 197:Generated_Source\PSoC4/I2CS_SCB_IRQ.c **** *
 198:Generated_Source\PSoC4/I2CS_SCB_IRQ.c **** *******************************************************************************/
 199:Generated_Source\PSoC4/I2CS_SCB_IRQ.c **** void I2CS_SCB_IRQ_SetVector(cyisraddress address)
 200:Generated_Source\PSoC4/I2CS_SCB_IRQ.c **** {
  47              		.loc 1 200 0
  48              		.cfi_startproc
  49              		@ args = 0, pretend = 0, frame = 0
  50              		@ frame_needed = 0, uses_anonymous_args = 0
  51              		@ link register save eliminated.
  52              	.LVL0:
 201:Generated_Source\PSoC4/I2CS_SCB_IRQ.c ****     CyRamVectors[CYINT_IRQ_BASE + I2CS_SCB_IRQ__INTC_NUMBER] = address;
  53              		.loc 1 201 0
  54 0000 014B     		ldr	r3, .L3
  55 0002 D865     		str	r0, [r3, #92]
 202:Generated_Source\PSoC4/I2CS_SCB_IRQ.c **** }
  56              		.loc 1 202 0
  57              		@ sp needed
  58 0004 7047     		bx	lr
  59              	.L4:
  60 0006 C046     		.align	2
  61              	.L3:
  62 0008 00000000 		.word	CyRamVectors
  63              		.cfi_endproc
  64              	.LFE5:
  65              		.size	I2CS_SCB_IRQ_SetVector, .-I2CS_SCB_IRQ_SetVector
  66              		.section	.text.I2CS_SCB_IRQ_GetVector,"ax",%progbits
  67              		.align	2
  68              		.global	I2CS_SCB_IRQ_GetVector
  69              		.code	16
  70              		.thumb_func
  71              		.type	I2CS_SCB_IRQ_GetVector, %function
  72              	I2CS_SCB_IRQ_GetVector:
  73              	.LFB6:
 203:Generated_Source\PSoC4/I2CS_SCB_IRQ.c **** 
 204:Generated_Source\PSoC4/I2CS_SCB_IRQ.c **** 
 205:Generated_Source\PSoC4/I2CS_SCB_IRQ.c **** /*******************************************************************************
 206:Generated_Source\PSoC4/I2CS_SCB_IRQ.c **** * Function Name: I2CS_SCB_IRQ_GetVector
 207:Generated_Source\PSoC4/I2CS_SCB_IRQ.c **** ********************************************************************************
 208:Generated_Source\PSoC4/I2CS_SCB_IRQ.c **** *
 209:Generated_Source\PSoC4/I2CS_SCB_IRQ.c **** * Summary:
 210:Generated_Source\PSoC4/I2CS_SCB_IRQ.c **** *   Gets the "address" of the current ISR vector for the Interrupt.
 211:Generated_Source\PSoC4/I2CS_SCB_IRQ.c **** *
 212:Generated_Source\PSoC4/I2CS_SCB_IRQ.c **** * Parameters:
ARM GAS  C:\Users\DGILLI~1\AppData\Local\Temp\ccux36g3.s 			page 6


 213:Generated_Source\PSoC4/I2CS_SCB_IRQ.c **** *   None
 214:Generated_Source\PSoC4/I2CS_SCB_IRQ.c **** *
 215:Generated_Source\PSoC4/I2CS_SCB_IRQ.c **** * Return:
 216:Generated_Source\PSoC4/I2CS_SCB_IRQ.c **** *   Address of the ISR in the interrupt vector table.
 217:Generated_Source\PSoC4/I2CS_SCB_IRQ.c **** *
 218:Generated_Source\PSoC4/I2CS_SCB_IRQ.c **** *******************************************************************************/
 219:Generated_Source\PSoC4/I2CS_SCB_IRQ.c **** cyisraddress I2CS_SCB_IRQ_GetVector(void)
 220:Generated_Source\PSoC4/I2CS_SCB_IRQ.c **** {
  74              		.loc 1 220 0
  75              		.cfi_startproc
  76              		@ args = 0, pretend = 0, frame = 0
  77              		@ frame_needed = 0, uses_anonymous_args = 0
  78              		@ link register save eliminated.
 221:Generated_Source\PSoC4/I2CS_SCB_IRQ.c ****     return CyRamVectors[CYINT_IRQ_BASE + I2CS_SCB_IRQ__INTC_NUMBER];
  79              		.loc 1 221 0
  80 0000 014B     		ldr	r3, .L6
  81 0002 D86D     		ldr	r0, [r3, #92]
 222:Generated_Source\PSoC4/I2CS_SCB_IRQ.c **** }
  82              		.loc 1 222 0
  83              		@ sp needed
  84 0004 7047     		bx	lr
  85              	.L7:
  86 0006 C046     		.align	2
  87              	.L6:
  88 0008 00000000 		.word	CyRamVectors
  89              		.cfi_endproc
  90              	.LFE6:
  91              		.size	I2CS_SCB_IRQ_GetVector, .-I2CS_SCB_IRQ_GetVector
  92              		.section	.text.I2CS_SCB_IRQ_SetPriority,"ax",%progbits
  93              		.align	2
  94              		.global	I2CS_SCB_IRQ_SetPriority
  95              		.code	16
  96              		.thumb_func
  97              		.type	I2CS_SCB_IRQ_SetPriority, %function
  98              	I2CS_SCB_IRQ_SetPriority:
  99              	.LFB7:
 223:Generated_Source\PSoC4/I2CS_SCB_IRQ.c **** 
 224:Generated_Source\PSoC4/I2CS_SCB_IRQ.c **** 
 225:Generated_Source\PSoC4/I2CS_SCB_IRQ.c **** /*******************************************************************************
 226:Generated_Source\PSoC4/I2CS_SCB_IRQ.c **** * Function Name: I2CS_SCB_IRQ_SetPriority
 227:Generated_Source\PSoC4/I2CS_SCB_IRQ.c **** ********************************************************************************
 228:Generated_Source\PSoC4/I2CS_SCB_IRQ.c **** *
 229:Generated_Source\PSoC4/I2CS_SCB_IRQ.c **** * Summary:
 230:Generated_Source\PSoC4/I2CS_SCB_IRQ.c **** *   Sets the Priority of the Interrupt. 
 231:Generated_Source\PSoC4/I2CS_SCB_IRQ.c **** *
 232:Generated_Source\PSoC4/I2CS_SCB_IRQ.c **** *   Note calling I2CS_SCB_IRQ_Start or I2CS_SCB_IRQ_StartEx will 
 233:Generated_Source\PSoC4/I2CS_SCB_IRQ.c **** *   override any effect this API would have had. This API should only be called
 234:Generated_Source\PSoC4/I2CS_SCB_IRQ.c **** *   after I2CS_SCB_IRQ_Start or I2CS_SCB_IRQ_StartEx has been called. 
 235:Generated_Source\PSoC4/I2CS_SCB_IRQ.c **** *   To set the initial priority for the component, use the Design-Wide Resources
 236:Generated_Source\PSoC4/I2CS_SCB_IRQ.c **** *   Interrupt Editor.
 237:Generated_Source\PSoC4/I2CS_SCB_IRQ.c **** *
 238:Generated_Source\PSoC4/I2CS_SCB_IRQ.c **** *   Note This API has no effect on Non-maskable interrupt NMI).
 239:Generated_Source\PSoC4/I2CS_SCB_IRQ.c **** *
 240:Generated_Source\PSoC4/I2CS_SCB_IRQ.c **** * Parameters:
 241:Generated_Source\PSoC4/I2CS_SCB_IRQ.c **** *   priority: Priority of the interrupt, 0 being the highest priority
 242:Generated_Source\PSoC4/I2CS_SCB_IRQ.c **** *             PSoC 3 and PSoC 5LP: Priority is from 0 to 7.
 243:Generated_Source\PSoC4/I2CS_SCB_IRQ.c **** *             PSoC 4: Priority is from 0 to 3.
ARM GAS  C:\Users\DGILLI~1\AppData\Local\Temp\ccux36g3.s 			page 7


 244:Generated_Source\PSoC4/I2CS_SCB_IRQ.c **** *
 245:Generated_Source\PSoC4/I2CS_SCB_IRQ.c **** * Return:
 246:Generated_Source\PSoC4/I2CS_SCB_IRQ.c **** *   None
 247:Generated_Source\PSoC4/I2CS_SCB_IRQ.c **** *
 248:Generated_Source\PSoC4/I2CS_SCB_IRQ.c **** *******************************************************************************/
 249:Generated_Source\PSoC4/I2CS_SCB_IRQ.c **** void I2CS_SCB_IRQ_SetPriority(uint8 priority)
 250:Generated_Source\PSoC4/I2CS_SCB_IRQ.c **** {
 100              		.loc 1 250 0
 101              		.cfi_startproc
 102              		@ args = 0, pretend = 0, frame = 0
 103              		@ frame_needed = 0, uses_anonymous_args = 0
 104              	.LVL1:
 105 0000 10B5     		push	{r4, lr}
 106              		.cfi_def_cfa_offset 8
 107              		.cfi_offset 4, -8
 108              		.cfi_offset 14, -4
 109 0002 0400     		movs	r4, r0
 110              	.LVL2:
 251:Generated_Source\PSoC4/I2CS_SCB_IRQ.c **** 	uint8 interruptState;
 252:Generated_Source\PSoC4/I2CS_SCB_IRQ.c ****     uint32 priorityOffset = ((I2CS_SCB_IRQ__INTC_NUMBER % 4u) * 8u) + 6u;
 253:Generated_Source\PSoC4/I2CS_SCB_IRQ.c ****     
 254:Generated_Source\PSoC4/I2CS_SCB_IRQ.c **** 	interruptState = CyEnterCriticalSection();
 111              		.loc 1 254 0
 112 0004 FFF7FEFF 		bl	CyEnterCriticalSection
 113              	.LVL3:
 255:Generated_Source\PSoC4/I2CS_SCB_IRQ.c ****     *I2CS_SCB_IRQ_INTC_PRIOR = (*I2CS_SCB_IRQ_INTC_PRIOR & (uint32)(~I2CS_SCB_IRQ__INTC_PRIOR_MASK)
 114              		.loc 1 255 0
 115 0008 044A     		ldr	r2, .L9
 116 000a 1368     		ldr	r3, [r2]
 117 000c 9B00     		lsls	r3, r3, #2
 118 000e 9B08     		lsrs	r3, r3, #2
 256:Generated_Source\PSoC4/I2CS_SCB_IRQ.c ****                                     ((uint32)priority << priorityOffset);
 119              		.loc 1 256 0
 120 0010 A407     		lsls	r4, r4, #30
 255:Generated_Source\PSoC4/I2CS_SCB_IRQ.c ****     *I2CS_SCB_IRQ_INTC_PRIOR = (*I2CS_SCB_IRQ_INTC_PRIOR & (uint32)(~I2CS_SCB_IRQ__INTC_PRIOR_MASK)
 121              		.loc 1 255 0
 122 0012 1C43     		orrs	r4, r3
 123 0014 1460     		str	r4, [r2]
 257:Generated_Source\PSoC4/I2CS_SCB_IRQ.c **** 	CyExitCriticalSection(interruptState);
 124              		.loc 1 257 0
 125 0016 FFF7FEFF 		bl	CyExitCriticalSection
 126              	.LVL4:
 258:Generated_Source\PSoC4/I2CS_SCB_IRQ.c **** }
 127              		.loc 1 258 0
 128              		@ sp needed
 129 001a 10BD     		pop	{r4, pc}
 130              	.L10:
 131              		.align	2
 132              	.L9:
 133 001c 04E400E0 		.word	-536812540
 134              		.cfi_endproc
 135              	.LFE7:
 136              		.size	I2CS_SCB_IRQ_SetPriority, .-I2CS_SCB_IRQ_SetPriority
 137              		.section	.text.I2CS_SCB_IRQ_GetPriority,"ax",%progbits
 138              		.align	2
 139              		.global	I2CS_SCB_IRQ_GetPriority
 140              		.code	16
ARM GAS  C:\Users\DGILLI~1\AppData\Local\Temp\ccux36g3.s 			page 8


 141              		.thumb_func
 142              		.type	I2CS_SCB_IRQ_GetPriority, %function
 143              	I2CS_SCB_IRQ_GetPriority:
 144              	.LFB8:
 259:Generated_Source\PSoC4/I2CS_SCB_IRQ.c **** 
 260:Generated_Source\PSoC4/I2CS_SCB_IRQ.c **** 
 261:Generated_Source\PSoC4/I2CS_SCB_IRQ.c **** /*******************************************************************************
 262:Generated_Source\PSoC4/I2CS_SCB_IRQ.c **** * Function Name: I2CS_SCB_IRQ_GetPriority
 263:Generated_Source\PSoC4/I2CS_SCB_IRQ.c **** ********************************************************************************
 264:Generated_Source\PSoC4/I2CS_SCB_IRQ.c **** *
 265:Generated_Source\PSoC4/I2CS_SCB_IRQ.c **** * Summary:
 266:Generated_Source\PSoC4/I2CS_SCB_IRQ.c **** *   Gets the Priority of the Interrupt.
 267:Generated_Source\PSoC4/I2CS_SCB_IRQ.c **** *
 268:Generated_Source\PSoC4/I2CS_SCB_IRQ.c **** * Parameters:
 269:Generated_Source\PSoC4/I2CS_SCB_IRQ.c **** *   None
 270:Generated_Source\PSoC4/I2CS_SCB_IRQ.c **** *
 271:Generated_Source\PSoC4/I2CS_SCB_IRQ.c **** * Return:
 272:Generated_Source\PSoC4/I2CS_SCB_IRQ.c **** *   Priority of the interrupt, 0 being the highest priority
 273:Generated_Source\PSoC4/I2CS_SCB_IRQ.c **** *    PSoC 3 and PSoC 5LP: Priority is from 0 to 7.
 274:Generated_Source\PSoC4/I2CS_SCB_IRQ.c **** *    PSoC 4: Priority is from 0 to 3.
 275:Generated_Source\PSoC4/I2CS_SCB_IRQ.c **** *
 276:Generated_Source\PSoC4/I2CS_SCB_IRQ.c **** *******************************************************************************/
 277:Generated_Source\PSoC4/I2CS_SCB_IRQ.c **** uint8 I2CS_SCB_IRQ_GetPriority(void)
 278:Generated_Source\PSoC4/I2CS_SCB_IRQ.c **** {
 145              		.loc 1 278 0
 146              		.cfi_startproc
 147              		@ args = 0, pretend = 0, frame = 0
 148              		@ frame_needed = 0, uses_anonymous_args = 0
 149              		@ link register save eliminated.
 150              	.LVL5:
 279:Generated_Source\PSoC4/I2CS_SCB_IRQ.c ****     uint32 priority;
 280:Generated_Source\PSoC4/I2CS_SCB_IRQ.c **** 	uint32 priorityOffset = ((I2CS_SCB_IRQ__INTC_NUMBER % 4u) * 8u) + 6u;
 281:Generated_Source\PSoC4/I2CS_SCB_IRQ.c **** 
 282:Generated_Source\PSoC4/I2CS_SCB_IRQ.c ****     priority = (*I2CS_SCB_IRQ_INTC_PRIOR & I2CS_SCB_IRQ__INTC_PRIOR_MASK) >> priorityOffset;
 151              		.loc 1 282 0
 152 0000 014B     		ldr	r3, .L12
 153 0002 1868     		ldr	r0, [r3]
 154              	.LVL6:
 283:Generated_Source\PSoC4/I2CS_SCB_IRQ.c **** 
 284:Generated_Source\PSoC4/I2CS_SCB_IRQ.c ****     return (uint8)priority;
 155              		.loc 1 284 0
 156 0004 800F     		lsrs	r0, r0, #30
 157              	.LVL7:
 285:Generated_Source\PSoC4/I2CS_SCB_IRQ.c **** }
 158              		.loc 1 285 0
 159              		@ sp needed
 160 0006 7047     		bx	lr
 161              	.L13:
 162              		.align	2
 163              	.L12:
 164 0008 04E400E0 		.word	-536812540
 165              		.cfi_endproc
 166              	.LFE8:
 167              		.size	I2CS_SCB_IRQ_GetPriority, .-I2CS_SCB_IRQ_GetPriority
 168              		.section	.text.I2CS_SCB_IRQ_Enable,"ax",%progbits
 169              		.align	2
 170              		.global	I2CS_SCB_IRQ_Enable
ARM GAS  C:\Users\DGILLI~1\AppData\Local\Temp\ccux36g3.s 			page 9


 171              		.code	16
 172              		.thumb_func
 173              		.type	I2CS_SCB_IRQ_Enable, %function
 174              	I2CS_SCB_IRQ_Enable:
 175              	.LFB9:
 286:Generated_Source\PSoC4/I2CS_SCB_IRQ.c **** 
 287:Generated_Source\PSoC4/I2CS_SCB_IRQ.c **** 
 288:Generated_Source\PSoC4/I2CS_SCB_IRQ.c **** /*******************************************************************************
 289:Generated_Source\PSoC4/I2CS_SCB_IRQ.c **** * Function Name: I2CS_SCB_IRQ_Enable
 290:Generated_Source\PSoC4/I2CS_SCB_IRQ.c **** ********************************************************************************
 291:Generated_Source\PSoC4/I2CS_SCB_IRQ.c **** *
 292:Generated_Source\PSoC4/I2CS_SCB_IRQ.c **** * Summary:
 293:Generated_Source\PSoC4/I2CS_SCB_IRQ.c **** *   Enables the interrupt to the interrupt controller. Do not call this function
 294:Generated_Source\PSoC4/I2CS_SCB_IRQ.c **** *   unless ISR_Start() has been called or the functionality of the ISR_Start() 
 295:Generated_Source\PSoC4/I2CS_SCB_IRQ.c **** *   function, which sets the vector and the priority, has been called.
 296:Generated_Source\PSoC4/I2CS_SCB_IRQ.c **** *
 297:Generated_Source\PSoC4/I2CS_SCB_IRQ.c **** * Parameters:
 298:Generated_Source\PSoC4/I2CS_SCB_IRQ.c **** *   None
 299:Generated_Source\PSoC4/I2CS_SCB_IRQ.c **** *
 300:Generated_Source\PSoC4/I2CS_SCB_IRQ.c **** * Return:
 301:Generated_Source\PSoC4/I2CS_SCB_IRQ.c **** *   None
 302:Generated_Source\PSoC4/I2CS_SCB_IRQ.c **** *
 303:Generated_Source\PSoC4/I2CS_SCB_IRQ.c **** *******************************************************************************/
 304:Generated_Source\PSoC4/I2CS_SCB_IRQ.c **** void I2CS_SCB_IRQ_Enable(void)
 305:Generated_Source\PSoC4/I2CS_SCB_IRQ.c **** {
 176              		.loc 1 305 0
 177              		.cfi_startproc
 178              		@ args = 0, pretend = 0, frame = 0
 179              		@ frame_needed = 0, uses_anonymous_args = 0
 180              		@ link register save eliminated.
 306:Generated_Source\PSoC4/I2CS_SCB_IRQ.c ****     /* Enable the general interrupt. */
 307:Generated_Source\PSoC4/I2CS_SCB_IRQ.c ****     *I2CS_SCB_IRQ_INTC_SET_EN = I2CS_SCB_IRQ__INTC_MASK;
 181              		.loc 1 307 0
 182 0000 8022     		movs	r2, #128
 183 0002 014B     		ldr	r3, .L15
 184 0004 1A60     		str	r2, [r3]
 308:Generated_Source\PSoC4/I2CS_SCB_IRQ.c **** }
 185              		.loc 1 308 0
 186              		@ sp needed
 187 0006 7047     		bx	lr
 188              	.L16:
 189              		.align	2
 190              	.L15:
 191 0008 00E100E0 		.word	-536813312
 192              		.cfi_endproc
 193              	.LFE9:
 194              		.size	I2CS_SCB_IRQ_Enable, .-I2CS_SCB_IRQ_Enable
 195              		.section	.text.I2CS_SCB_IRQ_GetState,"ax",%progbits
 196              		.align	2
 197              		.global	I2CS_SCB_IRQ_GetState
 198              		.code	16
 199              		.thumb_func
 200              		.type	I2CS_SCB_IRQ_GetState, %function
 201              	I2CS_SCB_IRQ_GetState:
 202              	.LFB10:
 309:Generated_Source\PSoC4/I2CS_SCB_IRQ.c **** 
 310:Generated_Source\PSoC4/I2CS_SCB_IRQ.c **** 
ARM GAS  C:\Users\DGILLI~1\AppData\Local\Temp\ccux36g3.s 			page 10


 311:Generated_Source\PSoC4/I2CS_SCB_IRQ.c **** /*******************************************************************************
 312:Generated_Source\PSoC4/I2CS_SCB_IRQ.c **** * Function Name: I2CS_SCB_IRQ_GetState
 313:Generated_Source\PSoC4/I2CS_SCB_IRQ.c **** ********************************************************************************
 314:Generated_Source\PSoC4/I2CS_SCB_IRQ.c **** *
 315:Generated_Source\PSoC4/I2CS_SCB_IRQ.c **** * Summary:
 316:Generated_Source\PSoC4/I2CS_SCB_IRQ.c **** *   Gets the state (enabled, disabled) of the Interrupt.
 317:Generated_Source\PSoC4/I2CS_SCB_IRQ.c **** *
 318:Generated_Source\PSoC4/I2CS_SCB_IRQ.c **** * Parameters:
 319:Generated_Source\PSoC4/I2CS_SCB_IRQ.c **** *   None
 320:Generated_Source\PSoC4/I2CS_SCB_IRQ.c **** *
 321:Generated_Source\PSoC4/I2CS_SCB_IRQ.c **** * Return:
 322:Generated_Source\PSoC4/I2CS_SCB_IRQ.c **** *   1 if enabled, 0 if disabled.
 323:Generated_Source\PSoC4/I2CS_SCB_IRQ.c **** *
 324:Generated_Source\PSoC4/I2CS_SCB_IRQ.c **** *******************************************************************************/
 325:Generated_Source\PSoC4/I2CS_SCB_IRQ.c **** uint8 I2CS_SCB_IRQ_GetState(void)
 326:Generated_Source\PSoC4/I2CS_SCB_IRQ.c **** {
 203              		.loc 1 326 0
 204              		.cfi_startproc
 205              		@ args = 0, pretend = 0, frame = 0
 206              		@ frame_needed = 0, uses_anonymous_args = 0
 207              		@ link register save eliminated.
 327:Generated_Source\PSoC4/I2CS_SCB_IRQ.c ****     /* Get the state of the general interrupt. */
 328:Generated_Source\PSoC4/I2CS_SCB_IRQ.c ****     return ((*I2CS_SCB_IRQ_INTC_SET_EN & (uint32)I2CS_SCB_IRQ__INTC_MASK) != 0u) ? 1u:0u;
 208              		.loc 1 328 0
 209 0000 034B     		ldr	r3, .L20
 210 0002 1B68     		ldr	r3, [r3]
 211 0004 1B06     		lsls	r3, r3, #24
 212 0006 01D5     		bpl	.L19
 213 0008 0120     		movs	r0, #1
 214 000a 00E0     		b	.L18
 215              	.L19:
 216 000c 0020     		movs	r0, #0
 217              	.L18:
 329:Generated_Source\PSoC4/I2CS_SCB_IRQ.c **** }
 218              		.loc 1 329 0 discriminator 4
 219              		@ sp needed
 220 000e 7047     		bx	lr
 221              	.L21:
 222              		.align	2
 223              	.L20:
 224 0010 00E100E0 		.word	-536813312
 225              		.cfi_endproc
 226              	.LFE10:
 227              		.size	I2CS_SCB_IRQ_GetState, .-I2CS_SCB_IRQ_GetState
 228              		.section	.text.I2CS_SCB_IRQ_Disable,"ax",%progbits
 229              		.align	2
 230              		.global	I2CS_SCB_IRQ_Disable
 231              		.code	16
 232              		.thumb_func
 233              		.type	I2CS_SCB_IRQ_Disable, %function
 234              	I2CS_SCB_IRQ_Disable:
 235              	.LFB11:
 330:Generated_Source\PSoC4/I2CS_SCB_IRQ.c **** 
 331:Generated_Source\PSoC4/I2CS_SCB_IRQ.c **** 
 332:Generated_Source\PSoC4/I2CS_SCB_IRQ.c **** /*******************************************************************************
 333:Generated_Source\PSoC4/I2CS_SCB_IRQ.c **** * Function Name: I2CS_SCB_IRQ_Disable
 334:Generated_Source\PSoC4/I2CS_SCB_IRQ.c **** ********************************************************************************
ARM GAS  C:\Users\DGILLI~1\AppData\Local\Temp\ccux36g3.s 			page 11


 335:Generated_Source\PSoC4/I2CS_SCB_IRQ.c **** *
 336:Generated_Source\PSoC4/I2CS_SCB_IRQ.c **** * Summary:
 337:Generated_Source\PSoC4/I2CS_SCB_IRQ.c **** *   Disables the Interrupt in the interrupt controller.
 338:Generated_Source\PSoC4/I2CS_SCB_IRQ.c **** *
 339:Generated_Source\PSoC4/I2CS_SCB_IRQ.c **** * Parameters:
 340:Generated_Source\PSoC4/I2CS_SCB_IRQ.c **** *   None
 341:Generated_Source\PSoC4/I2CS_SCB_IRQ.c **** *
 342:Generated_Source\PSoC4/I2CS_SCB_IRQ.c **** * Return:
 343:Generated_Source\PSoC4/I2CS_SCB_IRQ.c **** *   None
 344:Generated_Source\PSoC4/I2CS_SCB_IRQ.c **** *
 345:Generated_Source\PSoC4/I2CS_SCB_IRQ.c **** *******************************************************************************/
 346:Generated_Source\PSoC4/I2CS_SCB_IRQ.c **** void I2CS_SCB_IRQ_Disable(void)
 347:Generated_Source\PSoC4/I2CS_SCB_IRQ.c **** {
 236              		.loc 1 347 0
 237              		.cfi_startproc
 238              		@ args = 0, pretend = 0, frame = 0
 239              		@ frame_needed = 0, uses_anonymous_args = 0
 240              		@ link register save eliminated.
 348:Generated_Source\PSoC4/I2CS_SCB_IRQ.c ****     /* Disable the general interrupt. */
 349:Generated_Source\PSoC4/I2CS_SCB_IRQ.c ****     *I2CS_SCB_IRQ_INTC_CLR_EN = I2CS_SCB_IRQ__INTC_MASK;
 241              		.loc 1 349 0
 242 0000 8022     		movs	r2, #128
 243 0002 014B     		ldr	r3, .L23
 244 0004 1A60     		str	r2, [r3]
 350:Generated_Source\PSoC4/I2CS_SCB_IRQ.c **** }
 245              		.loc 1 350 0
 246              		@ sp needed
 247 0006 7047     		bx	lr
 248              	.L24:
 249              		.align	2
 250              	.L23:
 251 0008 80E100E0 		.word	-536813184
 252              		.cfi_endproc
 253              	.LFE11:
 254              		.size	I2CS_SCB_IRQ_Disable, .-I2CS_SCB_IRQ_Disable
 255              		.section	.text.I2CS_SCB_IRQ_Start,"ax",%progbits
 256              		.align	2
 257              		.global	I2CS_SCB_IRQ_Start
 258              		.code	16
 259              		.thumb_func
 260              		.type	I2CS_SCB_IRQ_Start, %function
 261              	I2CS_SCB_IRQ_Start:
 262              	.LFB1:
  57:Generated_Source\PSoC4/I2CS_SCB_IRQ.c ****     /* For all we know the interrupt is active. */
 263              		.loc 1 57 0
 264              		.cfi_startproc
 265              		@ args = 0, pretend = 0, frame = 0
 266              		@ frame_needed = 0, uses_anonymous_args = 0
 267 0000 10B5     		push	{r4, lr}
 268              		.cfi_def_cfa_offset 8
 269              		.cfi_offset 4, -8
 270              		.cfi_offset 14, -4
  59:Generated_Source\PSoC4/I2CS_SCB_IRQ.c **** 
 271              		.loc 1 59 0
 272 0002 FFF7FEFF 		bl	I2CS_SCB_IRQ_Disable
 273              	.LVL8:
  62:Generated_Source\PSoC4/I2CS_SCB_IRQ.c **** 
ARM GAS  C:\Users\DGILLI~1\AppData\Local\Temp\ccux36g3.s 			page 12


 274              		.loc 1 62 0
 275 0006 0448     		ldr	r0, .L26
 276 0008 FFF7FEFF 		bl	I2CS_SCB_IRQ_SetVector
 277              	.LVL9:
  65:Generated_Source\PSoC4/I2CS_SCB_IRQ.c **** 
 278              		.loc 1 65 0
 279 000c 0320     		movs	r0, #3
 280 000e FFF7FEFF 		bl	I2CS_SCB_IRQ_SetPriority
 281              	.LVL10:
  68:Generated_Source\PSoC4/I2CS_SCB_IRQ.c **** }
 282              		.loc 1 68 0
 283 0012 FFF7FEFF 		bl	I2CS_SCB_IRQ_Enable
 284              	.LVL11:
  69:Generated_Source\PSoC4/I2CS_SCB_IRQ.c **** 
 285              		.loc 1 69 0
 286              		@ sp needed
 287 0016 10BD     		pop	{r4, pc}
 288              	.L27:
 289              		.align	2
 290              	.L26:
 291 0018 00000000 		.word	I2CS_SCB_IRQ_Interrupt
 292              		.cfi_endproc
 293              	.LFE1:
 294              		.size	I2CS_SCB_IRQ_Start, .-I2CS_SCB_IRQ_Start
 295              		.section	.text.I2CS_SCB_IRQ_StartEx,"ax",%progbits
 296              		.align	2
 297              		.global	I2CS_SCB_IRQ_StartEx
 298              		.code	16
 299              		.thumb_func
 300              		.type	I2CS_SCB_IRQ_StartEx, %function
 301              	I2CS_SCB_IRQ_StartEx:
 302              	.LFB2:
 100:Generated_Source\PSoC4/I2CS_SCB_IRQ.c ****     /* For all we know the interrupt is active. */
 303              		.loc 1 100 0
 304              		.cfi_startproc
 305              		@ args = 0, pretend = 0, frame = 0
 306              		@ frame_needed = 0, uses_anonymous_args = 0
 307              	.LVL12:
 308 0000 10B5     		push	{r4, lr}
 309              		.cfi_def_cfa_offset 8
 310              		.cfi_offset 4, -8
 311              		.cfi_offset 14, -4
 312 0002 0400     		movs	r4, r0
 102:Generated_Source\PSoC4/I2CS_SCB_IRQ.c **** 
 313              		.loc 1 102 0
 314 0004 FFF7FEFF 		bl	I2CS_SCB_IRQ_Disable
 315              	.LVL13:
 105:Generated_Source\PSoC4/I2CS_SCB_IRQ.c **** 
 316              		.loc 1 105 0
 317 0008 2000     		movs	r0, r4
 318 000a FFF7FEFF 		bl	I2CS_SCB_IRQ_SetVector
 319              	.LVL14:
 108:Generated_Source\PSoC4/I2CS_SCB_IRQ.c **** 
 320              		.loc 1 108 0
 321 000e 0320     		movs	r0, #3
 322 0010 FFF7FEFF 		bl	I2CS_SCB_IRQ_SetPriority
 323              	.LVL15:
ARM GAS  C:\Users\DGILLI~1\AppData\Local\Temp\ccux36g3.s 			page 13


 111:Generated_Source\PSoC4/I2CS_SCB_IRQ.c **** }
 324              		.loc 1 111 0
 325 0014 FFF7FEFF 		bl	I2CS_SCB_IRQ_Enable
 326              	.LVL16:
 112:Generated_Source\PSoC4/I2CS_SCB_IRQ.c **** 
 327              		.loc 1 112 0
 328              		@ sp needed
 329              	.LVL17:
 330 0018 10BD     		pop	{r4, pc}
 331              		.cfi_endproc
 332              	.LFE2:
 333              		.size	I2CS_SCB_IRQ_StartEx, .-I2CS_SCB_IRQ_StartEx
 334 001a C046     		.section	.text.I2CS_SCB_IRQ_Stop,"ax",%progbits
 335              		.align	2
 336              		.global	I2CS_SCB_IRQ_Stop
 337              		.code	16
 338              		.thumb_func
 339              		.type	I2CS_SCB_IRQ_Stop, %function
 340              	I2CS_SCB_IRQ_Stop:
 341              	.LFB3:
 130:Generated_Source\PSoC4/I2CS_SCB_IRQ.c ****     /* Disable this interrupt. */
 342              		.loc 1 130 0
 343              		.cfi_startproc
 344              		@ args = 0, pretend = 0, frame = 0
 345              		@ frame_needed = 0, uses_anonymous_args = 0
 346 0000 10B5     		push	{r4, lr}
 347              		.cfi_def_cfa_offset 8
 348              		.cfi_offset 4, -8
 349              		.cfi_offset 14, -4
 132:Generated_Source\PSoC4/I2CS_SCB_IRQ.c **** 
 350              		.loc 1 132 0
 351 0002 FFF7FEFF 		bl	I2CS_SCB_IRQ_Disable
 352              	.LVL18:
 135:Generated_Source\PSoC4/I2CS_SCB_IRQ.c **** }
 353              		.loc 1 135 0
 354 0006 0248     		ldr	r0, .L30
 355 0008 FFF7FEFF 		bl	I2CS_SCB_IRQ_SetVector
 356              	.LVL19:
 136:Generated_Source\PSoC4/I2CS_SCB_IRQ.c **** 
 357              		.loc 1 136 0
 358              		@ sp needed
 359 000c 10BD     		pop	{r4, pc}
 360              	.L31:
 361 000e C046     		.align	2
 362              	.L30:
 363 0010 00000000 		.word	IntDefaultHandler
 364              		.cfi_endproc
 365              	.LFE3:
 366              		.size	I2CS_SCB_IRQ_Stop, .-I2CS_SCB_IRQ_Stop
 367              		.section	.text.I2CS_SCB_IRQ_SetPending,"ax",%progbits
 368              		.align	2
 369              		.global	I2CS_SCB_IRQ_SetPending
 370              		.code	16
 371              		.thumb_func
 372              		.type	I2CS_SCB_IRQ_SetPending, %function
 373              	I2CS_SCB_IRQ_SetPending:
 374              	.LFB12:
ARM GAS  C:\Users\DGILLI~1\AppData\Local\Temp\ccux36g3.s 			page 14


 351:Generated_Source\PSoC4/I2CS_SCB_IRQ.c **** 
 352:Generated_Source\PSoC4/I2CS_SCB_IRQ.c **** 
 353:Generated_Source\PSoC4/I2CS_SCB_IRQ.c **** /*******************************************************************************
 354:Generated_Source\PSoC4/I2CS_SCB_IRQ.c **** * Function Name: I2CS_SCB_IRQ_SetPending
 355:Generated_Source\PSoC4/I2CS_SCB_IRQ.c **** ********************************************************************************
 356:Generated_Source\PSoC4/I2CS_SCB_IRQ.c **** *
 357:Generated_Source\PSoC4/I2CS_SCB_IRQ.c **** * Summary:
 358:Generated_Source\PSoC4/I2CS_SCB_IRQ.c **** *   Causes the Interrupt to enter the pending state, a software method of
 359:Generated_Source\PSoC4/I2CS_SCB_IRQ.c **** *   generating the interrupt.
 360:Generated_Source\PSoC4/I2CS_SCB_IRQ.c **** *
 361:Generated_Source\PSoC4/I2CS_SCB_IRQ.c **** * Parameters:
 362:Generated_Source\PSoC4/I2CS_SCB_IRQ.c **** *   None
 363:Generated_Source\PSoC4/I2CS_SCB_IRQ.c **** *
 364:Generated_Source\PSoC4/I2CS_SCB_IRQ.c **** * Return:
 365:Generated_Source\PSoC4/I2CS_SCB_IRQ.c **** *   None
 366:Generated_Source\PSoC4/I2CS_SCB_IRQ.c **** *
 367:Generated_Source\PSoC4/I2CS_SCB_IRQ.c **** * Side Effects:
 368:Generated_Source\PSoC4/I2CS_SCB_IRQ.c **** *   If interrupts are enabled and the interrupt is set up properly, the ISR is
 369:Generated_Source\PSoC4/I2CS_SCB_IRQ.c **** *   entered (depending on the priority of this interrupt and other pending 
 370:Generated_Source\PSoC4/I2CS_SCB_IRQ.c **** *   interrupts).
 371:Generated_Source\PSoC4/I2CS_SCB_IRQ.c **** *
 372:Generated_Source\PSoC4/I2CS_SCB_IRQ.c **** *******************************************************************************/
 373:Generated_Source\PSoC4/I2CS_SCB_IRQ.c **** void I2CS_SCB_IRQ_SetPending(void)
 374:Generated_Source\PSoC4/I2CS_SCB_IRQ.c **** {
 375              		.loc 1 374 0
 376              		.cfi_startproc
 377              		@ args = 0, pretend = 0, frame = 0
 378              		@ frame_needed = 0, uses_anonymous_args = 0
 379              		@ link register save eliminated.
 375:Generated_Source\PSoC4/I2CS_SCB_IRQ.c ****     *I2CS_SCB_IRQ_INTC_SET_PD = I2CS_SCB_IRQ__INTC_MASK;
 380              		.loc 1 375 0
 381 0000 8022     		movs	r2, #128
 382 0002 014B     		ldr	r3, .L33
 383 0004 1A60     		str	r2, [r3]
 376:Generated_Source\PSoC4/I2CS_SCB_IRQ.c **** }
 384              		.loc 1 376 0
 385              		@ sp needed
 386 0006 7047     		bx	lr
 387              	.L34:
 388              		.align	2
 389              	.L33:
 390 0008 00E200E0 		.word	-536813056
 391              		.cfi_endproc
 392              	.LFE12:
 393              		.size	I2CS_SCB_IRQ_SetPending, .-I2CS_SCB_IRQ_SetPending
 394              		.section	.text.I2CS_SCB_IRQ_ClearPending,"ax",%progbits
 395              		.align	2
 396              		.global	I2CS_SCB_IRQ_ClearPending
 397              		.code	16
 398              		.thumb_func
 399              		.type	I2CS_SCB_IRQ_ClearPending, %function
 400              	I2CS_SCB_IRQ_ClearPending:
 401              	.LFB13:
 377:Generated_Source\PSoC4/I2CS_SCB_IRQ.c **** 
 378:Generated_Source\PSoC4/I2CS_SCB_IRQ.c **** 
 379:Generated_Source\PSoC4/I2CS_SCB_IRQ.c **** /*******************************************************************************
 380:Generated_Source\PSoC4/I2CS_SCB_IRQ.c **** * Function Name: I2CS_SCB_IRQ_ClearPending
ARM GAS  C:\Users\DGILLI~1\AppData\Local\Temp\ccux36g3.s 			page 15


 381:Generated_Source\PSoC4/I2CS_SCB_IRQ.c **** ********************************************************************************
 382:Generated_Source\PSoC4/I2CS_SCB_IRQ.c **** *
 383:Generated_Source\PSoC4/I2CS_SCB_IRQ.c **** * Summary:
 384:Generated_Source\PSoC4/I2CS_SCB_IRQ.c **** *   Clears a pending interrupt in the interrupt controller.
 385:Generated_Source\PSoC4/I2CS_SCB_IRQ.c **** *
 386:Generated_Source\PSoC4/I2CS_SCB_IRQ.c **** *   Note Some interrupt sources are clear-on-read and require the block 
 387:Generated_Source\PSoC4/I2CS_SCB_IRQ.c **** *   interrupt/status register to be read/cleared with the appropriate block API 
 388:Generated_Source\PSoC4/I2CS_SCB_IRQ.c **** *   (GPIO, UART, and so on). Otherwise the ISR will continue to remain in 
 389:Generated_Source\PSoC4/I2CS_SCB_IRQ.c **** *   pending state even though the interrupt itself is cleared using this API.
 390:Generated_Source\PSoC4/I2CS_SCB_IRQ.c **** *
 391:Generated_Source\PSoC4/I2CS_SCB_IRQ.c **** * Parameters:
 392:Generated_Source\PSoC4/I2CS_SCB_IRQ.c **** *   None
 393:Generated_Source\PSoC4/I2CS_SCB_IRQ.c **** *
 394:Generated_Source\PSoC4/I2CS_SCB_IRQ.c **** * Return:
 395:Generated_Source\PSoC4/I2CS_SCB_IRQ.c **** *   None
 396:Generated_Source\PSoC4/I2CS_SCB_IRQ.c **** *
 397:Generated_Source\PSoC4/I2CS_SCB_IRQ.c **** *******************************************************************************/
 398:Generated_Source\PSoC4/I2CS_SCB_IRQ.c **** void I2CS_SCB_IRQ_ClearPending(void)
 399:Generated_Source\PSoC4/I2CS_SCB_IRQ.c **** {
 402              		.loc 1 399 0
 403              		.cfi_startproc
 404              		@ args = 0, pretend = 0, frame = 0
 405              		@ frame_needed = 0, uses_anonymous_args = 0
 406              		@ link register save eliminated.
 400:Generated_Source\PSoC4/I2CS_SCB_IRQ.c ****     *I2CS_SCB_IRQ_INTC_CLR_PD = I2CS_SCB_IRQ__INTC_MASK;
 407              		.loc 1 400 0
 408 0000 8022     		movs	r2, #128
 409 0002 014B     		ldr	r3, .L36
 410 0004 1A60     		str	r2, [r3]
 401:Generated_Source\PSoC4/I2CS_SCB_IRQ.c **** }
 411              		.loc 1 401 0
 412              		@ sp needed
 413 0006 7047     		bx	lr
 414              	.L37:
 415              		.align	2
 416              	.L36:
 417 0008 80E200E0 		.word	-536812928
 418              		.cfi_endproc
 419              	.LFE13:
 420              		.size	I2CS_SCB_IRQ_ClearPending, .-I2CS_SCB_IRQ_ClearPending
 421              		.text
 422              	.Letext0:
 423              		.file 2 "Generated_Source\\PSoC4/cytypes.h"
 424              		.file 3 "Generated_Source\\PSoC4/CyLib.h"