ARM GAS  C:\Users\DGILLI~1\AppData\Local\Temp\ccjOskKd.s 			page 1


   1              		.syntax unified
   2              		.cpu cortex-m3
   3              		.fpu softvfp
   4              		.eabi_attribute 20, 1
   5              		.eabi_attribute 21, 1
   6              		.eabi_attribute 23, 3
   7              		.eabi_attribute 24, 1
   8              		.eabi_attribute 25, 1
   9              		.eabi_attribute 26, 1
  10              		.eabi_attribute 30, 1
  11              		.eabi_attribute 34, 1
  12              		.eabi_attribute 18, 4
  13              		.thumb
  14              		.file	"accessMemory.c"
  15              		.text
  16              	.Ltext0:
  17              		.cfi_sections	.debug_frame
  18              		.section	.text.readLong,"ax",%progbits
  19              		.align	2
  20              		.global	readLong
  21              		.thumb
  22              		.thumb_func
  23              		.type	readLong, %function
  24              	readLong:
  25              	.LFB63:
  26              		.file 1 "accessMemory.c"
   1:accessMemory.c **** /* ========================================
   2:accessMemory.c ****  *
   3:accessMemory.c ****  * Copyright Land Boards, LLC, 2016
   4:accessMemory.c ****  * All Rights Reserved
   5:accessMemory.c ****  * UNPUBLISHED, LICENSED SOFTWARE.
   6:accessMemory.c ****  *
   7:accessMemory.c ****  * CONFIDENTIAL AND PROPRIETARY INFORMATION
   8:accessMemory.c ****  * WHICH IS THE PROPERTY OF your company.
   9:accessMemory.c ****  *
  10:accessMemory.c ****  * ========================================
  11:accessMemory.c **** */
  12:accessMemory.c **** 
  13:accessMemory.c **** #include "project.h"
  14:accessMemory.c **** #include "proEnv.h"
  15:accessMemory.c **** #undef DEBUG_ON_PC
  16:accessMemory.c **** //#define DEBUG_ON_PC 1
  17:accessMemory.c **** 
  18:accessMemory.c **** #ifdef DEBUG_ON_PC
  19:accessMemory.c **** uint8 memoryArray[32768];
  20:accessMemory.c **** #include "mytypes.h"
  21:accessMemory.c **** 
  22:accessMemory.c **** void initMemArray(void)
  23:accessMemory.c **** {
  24:accessMemory.c ****     uint16 loopCount;
  25:accessMemory.c ****     for (loopCount=0; loopCount<32768; loopCount++)
  26:accessMemory.c ****     {
  27:accessMemory.c ****         memoryArray[loopCount] = (uint8) (loopCount&0xff);
  28:accessMemory.c ****     }
  29:accessMemory.c **** }
  30:accessMemory.c **** #endif
  31:accessMemory.c **** 
ARM GAS  C:\Users\DGILLI~1\AppData\Local\Temp\ccjOskKd.s 			page 2


  32:accessMemory.c **** ////////////////////////////////////////////////////////////////
  33:accessMemory.c **** // uint32 readLong(uint32 readAddress)
  34:accessMemory.c **** ////////////////////////////////////////////////////////////////
  35:accessMemory.c **** 
  36:accessMemory.c **** uint32 readLong(uint32 readAddress)
  37:accessMemory.c **** {
  27              		.loc 1 37 0
  28              		.cfi_startproc
  29              		@ args = 0, pretend = 0, frame = 0
  30              		@ frame_needed = 0, uses_anonymous_args = 0
  31              		@ link register save eliminated.
  32              	.LVL0:
  38:accessMemory.c **** #ifndef DEBUG_ON_PC
  39:accessMemory.c ****     uint32 * rdAdr;
  40:accessMemory.c ****     rdAdr = (uint32 *) readAddress;
  41:accessMemory.c ****     return(*rdAdr);
  42:accessMemory.c **** #endif
  43:accessMemory.c **** #ifdef DEBUG_ON_PC
  44:accessMemory.c ****     uint32 rLong = 0;
  45:accessMemory.c ****     rLong = memoryArray[(readAddress&0x7ffc)+0]<< 24;
  46:accessMemory.c ****     rLong |= memoryArray[(readAddress&0x7ffc)+1]<< 16;
  47:accessMemory.c ****     rLong |= memoryArray[(readAddress&0x7ffc)+2]<< 8;
  48:accessMemory.c ****     rLong |= memoryArray[(readAddress&0x7ffc)+3]<< 0;
  49:accessMemory.c ****     return(rLong);
  50:accessMemory.c **** #endif
  51:accessMemory.c **** }
  33              		.loc 1 51 0
  34 0000 0068     		ldr	r0, [r0]
  35              	.LVL1:
  36 0002 7047     		bx	lr
  37              		.cfi_endproc
  38              	.LFE63:
  39              		.size	readLong, .-readLong
  40              		.section	.text.readShort,"ax",%progbits
  41              		.align	2
  42              		.global	readShort
  43              		.thumb
  44              		.thumb_func
  45              		.type	readShort, %function
  46              	readShort:
  47              	.LFB64:
  52:accessMemory.c **** 
  53:accessMemory.c **** ////////////////////////////////////////////////////////////////
  54:accessMemory.c **** // uint16 readShort(uint32 readAddress)
  55:accessMemory.c **** ////////////////////////////////////////////////////////////////
  56:accessMemory.c **** 
  57:accessMemory.c **** uint16 readShort(uint32 readAddress)
  58:accessMemory.c **** {
  48              		.loc 1 58 0
  49              		.cfi_startproc
  50              		@ args = 0, pretend = 0, frame = 0
  51              		@ frame_needed = 0, uses_anonymous_args = 0
  52              		@ link register save eliminated.
  53              	.LVL2:
  59:accessMemory.c **** #ifndef DEBUG_ON_PC
  60:accessMemory.c ****     uint16 * rdAdr;
  61:accessMemory.c ****     rdAdr = (uint16 *) readAddress;
ARM GAS  C:\Users\DGILLI~1\AppData\Local\Temp\ccjOskKd.s 			page 3


  62:accessMemory.c ****     return(*rdAdr);
  63:accessMemory.c **** #endif
  64:accessMemory.c **** #ifdef DEBUG_ON_PC
  65:accessMemory.c ****     uint16 rShort=0;
  66:accessMemory.c ****     rShort |= memoryArray[(readAddress&0x7ffe)+0]<< 8;
  67:accessMemory.c ****     rShort |= memoryArray[(readAddress&0x7ffe)+1]<< 0;
  68:accessMemory.c ****     return(rShort);
  69:accessMemory.c **** #endif
  70:accessMemory.c **** }
  54              		.loc 1 70 0
  55 0000 0088     		ldrh	r0, [r0]
  56              	.LVL3:
  57 0002 7047     		bx	lr
  58              		.cfi_endproc
  59              	.LFE64:
  60              		.size	readShort, .-readShort
  61              		.section	.text.readByte,"ax",%progbits
  62              		.align	2
  63              		.global	readByte
  64              		.thumb
  65              		.thumb_func
  66              		.type	readByte, %function
  67              	readByte:
  68              	.LFB65:
  71:accessMemory.c **** 
  72:accessMemory.c **** ////////////////////////////////////////////////////////////////
  73:accessMemory.c **** // uint8 readByte(uint32 readAddress)
  74:accessMemory.c **** ////////////////////////////////////////////////////////////////
  75:accessMemory.c **** 
  76:accessMemory.c **** uint8 readByte(uint32 readAddress)
  77:accessMemory.c **** {
  69              		.loc 1 77 0
  70              		.cfi_startproc
  71              		@ args = 0, pretend = 0, frame = 0
  72              		@ frame_needed = 0, uses_anonymous_args = 0
  73              		@ link register save eliminated.
  74              	.LVL4:
  78:accessMemory.c **** #ifndef DEBUG_ON_PC
  79:accessMemory.c ****     uint8 * rdAdr;
  80:accessMemory.c ****     rdAdr = (uint8 *) readAddress;
  81:accessMemory.c ****     return(*rdAdr);
  82:accessMemory.c **** #endif
  83:accessMemory.c **** #ifdef DEBUG_ON_PC
  84:accessMemory.c ****     uint8 rByte = memoryArray[readAddress&0x7fff];
  85:accessMemory.c ****     return(rByte);
  86:accessMemory.c **** #endif
  87:accessMemory.c **** }
  75              		.loc 1 87 0
  76 0000 0078     		ldrb	r0, [r0]	@ zero_extendqisi2
  77              	.LVL5:
  78 0002 7047     		bx	lr
  79              		.cfi_endproc
  80              	.LFE65:
  81              		.size	readByte, .-readByte
  82              		.section	.text.writeLong,"ax",%progbits
  83              		.align	2
  84              		.global	writeLong
ARM GAS  C:\Users\DGILLI~1\AppData\Local\Temp\ccjOskKd.s 			page 4


  85              		.thumb
  86              		.thumb_func
  87              		.type	writeLong, %function
  88              	writeLong:
  89              	.LFB66:
  88:accessMemory.c **** 
  89:accessMemory.c **** ////////////////////////////////////////////////////////////////
  90:accessMemory.c **** // void writeLong(uint32 writeAddress, uint32 writeData)
  91:accessMemory.c **** ////////////////////////////////////////////////////////////////
  92:accessMemory.c **** 
  93:accessMemory.c **** void writeLong(uint32 writeAddress, uint32 writeData)
  94:accessMemory.c **** {
  90              		.loc 1 94 0
  91              		.cfi_startproc
  92              		@ args = 0, pretend = 0, frame = 0
  93              		@ frame_needed = 0, uses_anonymous_args = 0
  94              		@ link register save eliminated.
  95              	.LVL6:
  95:accessMemory.c **** #ifndef DEBUG_ON_PC
  96:accessMemory.c ****     uint32 * wrAdr;
  97:accessMemory.c ****     wrAdr = (uint32 *) writeAddress;
  98:accessMemory.c ****     *wrAdr = writeData;
  96              		.loc 1 98 0
  97 0000 0160     		str	r1, [r0]
  98 0002 7047     		bx	lr
  99              		.cfi_endproc
 100              	.LFE66:
 101              		.size	writeLong, .-writeLong
 102              		.section	.text.writeShort,"ax",%progbits
 103              		.align	2
 104              		.global	writeShort
 105              		.thumb
 106              		.thumb_func
 107              		.type	writeShort, %function
 108              	writeShort:
 109              	.LFB67:
  99:accessMemory.c ****     return;
 100:accessMemory.c **** #endif
 101:accessMemory.c **** #ifdef DEBUG_ON_PC
 102:accessMemory.c ****     memoryArray[(writeAddress&0x7ffc)+0] = (writeData&0x000000ff) >> 0;
 103:accessMemory.c ****     memoryArray[(writeAddress&0x7ffc)+1] = (writeData&0x0000ff00) >> 8;
 104:accessMemory.c ****     memoryArray[(writeAddress&0x7ffc)+2] = (writeData&0x00ff0000) >> 16;
 105:accessMemory.c ****     memoryArray[(writeAddress&0x7ffc)+3] = (writeData&0xff000000) >> 24;
 106:accessMemory.c ****     return;
 107:accessMemory.c **** #endif
 108:accessMemory.c **** }
 109:accessMemory.c **** 
 110:accessMemory.c **** ////////////////////////////////////////////////////////////////
 111:accessMemory.c **** // void writeLong(uint32 writeAddress, uint32 writeData)
 112:accessMemory.c **** ////////////////////////////////////////////////////////////////
 113:accessMemory.c **** 
 114:accessMemory.c **** void writeShort(uint32 writeAddress, uint16 writeData)
 115:accessMemory.c **** {
 110              		.loc 1 115 0
 111              		.cfi_startproc
 112              		@ args = 0, pretend = 0, frame = 0
 113              		@ frame_needed = 0, uses_anonymous_args = 0
ARM GAS  C:\Users\DGILLI~1\AppData\Local\Temp\ccjOskKd.s 			page 5


 114              		@ link register save eliminated.
 115              	.LVL7:
 116:accessMemory.c **** #ifndef DEBUG_ON_PC
 117:accessMemory.c ****     uint16 * wrAdr;
 118:accessMemory.c ****     wrAdr = (uint16 *) writeAddress;
 119:accessMemory.c ****     *wrAdr = writeData;
 116              		.loc 1 119 0
 117 0000 0180     		strh	r1, [r0]	@ movhi
 118 0002 7047     		bx	lr
 119              		.cfi_endproc
 120              	.LFE67:
 121              		.size	writeShort, .-writeShort
 122              		.section	.text.writeByte,"ax",%progbits
 123              		.align	2
 124              		.global	writeByte
 125              		.thumb
 126              		.thumb_func
 127              		.type	writeByte, %function
 128              	writeByte:
 129              	.LFB68:
 120:accessMemory.c ****     return;
 121:accessMemory.c **** #endif
 122:accessMemory.c **** #ifdef DEBUG_ON_PC
 123:accessMemory.c ****     memoryArray[(writeAddress&0x7ffc)+0] = (writeData&0x000000ff) >> 0;
 124:accessMemory.c ****     memoryArray[(writeAddress&0x7ffc)+1] = (writeData&0x0000ff00) >> 8;
 125:accessMemory.c ****     return;
 126:accessMemory.c **** #endif
 127:accessMemory.c **** }
 128:accessMemory.c **** 
 129:accessMemory.c **** ////////////////////////////////////////////////////////////////
 130:accessMemory.c **** // void writeLong(uint32 writeAddress, uint32 writeData)
 131:accessMemory.c **** ////////////////////////////////////////////////////////////////
 132:accessMemory.c **** 
 133:accessMemory.c **** void writeByte(uint32 writeAddress, uint8 writeData)
 134:accessMemory.c **** {
 130              		.loc 1 134 0
 131              		.cfi_startproc
 132              		@ args = 0, pretend = 0, frame = 0
 133              		@ frame_needed = 0, uses_anonymous_args = 0
 134              		@ link register save eliminated.
 135              	.LVL8:
 135:accessMemory.c **** #ifndef DEBUG_ON_PC
 136:accessMemory.c ****     uint8 * wrAdr;
 137:accessMemory.c ****     wrAdr = (uint8 *) writeAddress;
 138:accessMemory.c ****     *wrAdr = writeData;
 136              		.loc 1 138 0
 137 0000 0170     		strb	r1, [r0]
 138 0002 7047     		bx	lr
 139              		.cfi_endproc
 140              	.LFE68:
 141              		.size	writeByte, .-writeByte
 142              		.text
 143              	.Letext0:
 144              		.file 2 "c:\\program files (x86)\\cypress\\psoc creator\\4.0\\psoc creator\\import\\gnu\\arm\\4.9.
 145              		.file 3 "c:\\program files (x86)\\cypress\\psoc creator\\4.0\\psoc creator\\import\\gnu\\arm\\4.9.
 146              		.file 4 "Generated_Source\\PSoC5/cytypes.h"
 147              		.file 5 "Generated_Source\\PSoC5/core_cm3.h"
ARM GAS  C:\Users\DGILLI~1\AppData\Local\Temp\ccjOskKd.s 			page 6

