ARM GAS  C:\Users\DGILLI~1\AppData\Local\Temp\ccRCk46c.s 			page 1


   1              		.syntax unified
   2              		.cpu cortex-m3
   3              		.fpu softvfp
   4              		.eabi_attribute 20, 1
   5              		.eabi_attribute 21, 1
   6              		.eabi_attribute 23, 3
   7              		.eabi_attribute 24, 1
   8              		.eabi_attribute 25, 1
   9              		.eabi_attribute 26, 1
  10              		.eabi_attribute 30, 1
  11              		.eabi_attribute 34, 1
  12              		.eabi_attribute 18, 4
  13              		.thumb
  14              		.file	"P1_05.c"
  15              		.text
  16              	.Ltext0:
  17              		.cfi_sections	.debug_frame
  18              		.section	.text.P1_05_Write,"ax",%progbits
  19              		.align	2
  20              		.global	P1_05_Write
  21              		.thumb
  22              		.thumb_func
  23              		.type	P1_05_Write, %function
  24              	P1_05_Write:
  25              	.LFB0:
  26              		.file 1 "Generated_Source\\PSoC5\\P1_05.c"
   1:Generated_Source\PSoC5/P1_05.c **** /*******************************************************************************
   2:Generated_Source\PSoC5/P1_05.c **** * File Name: P1_05.c  
   3:Generated_Source\PSoC5/P1_05.c **** * Version 2.20
   4:Generated_Source\PSoC5/P1_05.c **** *
   5:Generated_Source\PSoC5/P1_05.c **** * Description:
   6:Generated_Source\PSoC5/P1_05.c **** *  This file contains API to enable firmware control of a Pins component.
   7:Generated_Source\PSoC5/P1_05.c **** *
   8:Generated_Source\PSoC5/P1_05.c **** * Note:
   9:Generated_Source\PSoC5/P1_05.c **** *
  10:Generated_Source\PSoC5/P1_05.c **** ********************************************************************************
  11:Generated_Source\PSoC5/P1_05.c **** * Copyright 2008-2015, Cypress Semiconductor Corporation.  All rights reserved.
  12:Generated_Source\PSoC5/P1_05.c **** * You may use this file only in accordance with the license, terms, conditions, 
  13:Generated_Source\PSoC5/P1_05.c **** * disclaimers, and limitations in the end user license agreement accompanying 
  14:Generated_Source\PSoC5/P1_05.c **** * the software package with which this file was provided.
  15:Generated_Source\PSoC5/P1_05.c **** *******************************************************************************/
  16:Generated_Source\PSoC5/P1_05.c **** 
  17:Generated_Source\PSoC5/P1_05.c **** #include "cytypes.h"
  18:Generated_Source\PSoC5/P1_05.c **** #include "P1_05.h"
  19:Generated_Source\PSoC5/P1_05.c **** 
  20:Generated_Source\PSoC5/P1_05.c **** /* APIs are not generated for P15[7:6] on PSoC 5 */
  21:Generated_Source\PSoC5/P1_05.c **** #if !(CY_PSOC5A &&\
  22:Generated_Source\PSoC5/P1_05.c **** 	 P1_05__PORT == 15 && ((P1_05__MASK & 0xC0) != 0))
  23:Generated_Source\PSoC5/P1_05.c **** 
  24:Generated_Source\PSoC5/P1_05.c **** 
  25:Generated_Source\PSoC5/P1_05.c **** /*******************************************************************************
  26:Generated_Source\PSoC5/P1_05.c **** * Function Name: P1_05_Write
  27:Generated_Source\PSoC5/P1_05.c **** ****************************************************************************//**
  28:Generated_Source\PSoC5/P1_05.c **** *
  29:Generated_Source\PSoC5/P1_05.c **** * \brief Writes the value to the physical port (data output register), masking
  30:Generated_Source\PSoC5/P1_05.c **** *  and shifting the bits appropriately. 
  31:Generated_Source\PSoC5/P1_05.c **** *
ARM GAS  C:\Users\DGILLI~1\AppData\Local\Temp\ccRCk46c.s 			page 2


  32:Generated_Source\PSoC5/P1_05.c **** * The data output register controls the signal applied to the physical pin in 
  33:Generated_Source\PSoC5/P1_05.c **** * conjunction with the drive mode parameter. This function avoids changing 
  34:Generated_Source\PSoC5/P1_05.c **** * other bits in the port by using the appropriate method (read-modify-write or
  35:Generated_Source\PSoC5/P1_05.c **** * bit banding).
  36:Generated_Source\PSoC5/P1_05.c **** *
  37:Generated_Source\PSoC5/P1_05.c **** * <b>Note</b> This function should not be used on a hardware digital output pin 
  38:Generated_Source\PSoC5/P1_05.c **** * as it is driven by the hardware signal attached to it.
  39:Generated_Source\PSoC5/P1_05.c **** *
  40:Generated_Source\PSoC5/P1_05.c **** * \param value
  41:Generated_Source\PSoC5/P1_05.c **** *  Value to write to the component instance.
  42:Generated_Source\PSoC5/P1_05.c **** *
  43:Generated_Source\PSoC5/P1_05.c **** * \return 
  44:Generated_Source\PSoC5/P1_05.c **** *  None 
  45:Generated_Source\PSoC5/P1_05.c **** *
  46:Generated_Source\PSoC5/P1_05.c **** * \sideeffect
  47:Generated_Source\PSoC5/P1_05.c **** *  If you use read-modify-write operations that are not atomic; the Interrupt 
  48:Generated_Source\PSoC5/P1_05.c **** *  Service Routines (ISR) can cause corruption of this function. An ISR that 
  49:Generated_Source\PSoC5/P1_05.c **** *  interrupts this function and performs writes to the Pins component data 
  50:Generated_Source\PSoC5/P1_05.c **** *  register can cause corrupted port data. To avoid this issue, you should 
  51:Generated_Source\PSoC5/P1_05.c **** *  either use the Per-Pin APIs (primary method) or disable interrupts around 
  52:Generated_Source\PSoC5/P1_05.c **** *  this function.
  53:Generated_Source\PSoC5/P1_05.c **** *
  54:Generated_Source\PSoC5/P1_05.c **** * \funcusage
  55:Generated_Source\PSoC5/P1_05.c **** *  \snippet P1_05_SUT.c usage_P1_05_Write
  56:Generated_Source\PSoC5/P1_05.c **** *******************************************************************************/
  57:Generated_Source\PSoC5/P1_05.c **** void P1_05_Write(uint8 value)
  58:Generated_Source\PSoC5/P1_05.c **** {
  27              		.loc 1 58 0
  28              		.cfi_startproc
  29              		@ args = 0, pretend = 0, frame = 0
  30              		@ frame_needed = 0, uses_anonymous_args = 0
  31              		@ link register save eliminated.
  32              	.LVL0:
  59:Generated_Source\PSoC5/P1_05.c ****     uint8 staticBits = (P1_05_DR & (uint8)(~P1_05_MASK));
  33              		.loc 1 59 0
  34 0000 044A     		ldr	r2, .L2
  35 0002 1378     		ldrb	r3, [r2]	@ zero_extendqisi2
  36 0004 03F07F03 		and	r3, r3, #127
  37              	.LVL1:
  60:Generated_Source\PSoC5/P1_05.c ****     P1_05_DR = staticBits | ((uint8)(value << P1_05_SHIFT) & P1_05_MASK);
  38              		.loc 1 60 0
  39 0008 C001     		lsls	r0, r0, #7
  40              	.LVL2:
  41 000a C0B2     		uxtb	r0, r0
  42 000c 0343     		orrs	r3, r3, r0
  43              	.LVL3:
  44 000e 1370     		strb	r3, [r2]
  45 0010 7047     		bx	lr
  46              	.L3:
  47 0012 00BF     		.align	2
  48              	.L2:
  49 0014 40510040 		.word	1073762624
  50              		.cfi_endproc
  51              	.LFE0:
  52              		.size	P1_05_Write, .-P1_05_Write
  53              		.section	.text.P1_05_SetDriveMode,"ax",%progbits
  54              		.align	2
ARM GAS  C:\Users\DGILLI~1\AppData\Local\Temp\ccRCk46c.s 			page 3


  55              		.global	P1_05_SetDriveMode
  56              		.thumb
  57              		.thumb_func
  58              		.type	P1_05_SetDriveMode, %function
  59              	P1_05_SetDriveMode:
  60              	.LFB1:
  61:Generated_Source\PSoC5/P1_05.c **** }
  62:Generated_Source\PSoC5/P1_05.c **** 
  63:Generated_Source\PSoC5/P1_05.c **** 
  64:Generated_Source\PSoC5/P1_05.c **** /*******************************************************************************
  65:Generated_Source\PSoC5/P1_05.c **** * Function Name: P1_05_SetDriveMode
  66:Generated_Source\PSoC5/P1_05.c **** ****************************************************************************//**
  67:Generated_Source\PSoC5/P1_05.c **** *
  68:Generated_Source\PSoC5/P1_05.c **** * \brief Sets the drive mode for each of the Pins component's pins.
  69:Generated_Source\PSoC5/P1_05.c **** * 
  70:Generated_Source\PSoC5/P1_05.c **** * <b>Note</b> This affects all pins in the Pins component instance. Use the
  71:Generated_Source\PSoC5/P1_05.c **** * Per-Pin APIs if you wish to control individual pin's drive modes.
  72:Generated_Source\PSoC5/P1_05.c **** *
  73:Generated_Source\PSoC5/P1_05.c **** * \param mode
  74:Generated_Source\PSoC5/P1_05.c **** *  Mode for the selected signals. Valid options are documented in 
  75:Generated_Source\PSoC5/P1_05.c **** *  \ref driveMode.
  76:Generated_Source\PSoC5/P1_05.c **** *
  77:Generated_Source\PSoC5/P1_05.c **** * \return
  78:Generated_Source\PSoC5/P1_05.c **** *  None
  79:Generated_Source\PSoC5/P1_05.c **** *
  80:Generated_Source\PSoC5/P1_05.c **** * \sideeffect
  81:Generated_Source\PSoC5/P1_05.c **** *  If you use read-modify-write operations that are not atomic, the ISR can
  82:Generated_Source\PSoC5/P1_05.c **** *  cause corruption of this function. An ISR that interrupts this function 
  83:Generated_Source\PSoC5/P1_05.c **** *  and performs writes to the Pins component Drive Mode registers can cause 
  84:Generated_Source\PSoC5/P1_05.c **** *  corrupted port data. To avoid this issue, you should either use the Per-Pin
  85:Generated_Source\PSoC5/P1_05.c **** *  APIs (primary method) or disable interrupts around this function.
  86:Generated_Source\PSoC5/P1_05.c **** *
  87:Generated_Source\PSoC5/P1_05.c **** * \funcusage
  88:Generated_Source\PSoC5/P1_05.c **** *  \snippet P1_05_SUT.c usage_P1_05_SetDriveMode
  89:Generated_Source\PSoC5/P1_05.c **** *******************************************************************************/
  90:Generated_Source\PSoC5/P1_05.c **** void P1_05_SetDriveMode(uint8 mode)
  91:Generated_Source\PSoC5/P1_05.c **** {
  61              		.loc 1 91 0
  62              		.cfi_startproc
  63              		@ args = 0, pretend = 0, frame = 0
  64              		@ frame_needed = 0, uses_anonymous_args = 0
  65              		@ link register save eliminated.
  66              	.LVL4:
  92:Generated_Source\PSoC5/P1_05.c **** 	CyPins_SetPinDriveMode(P1_05_0, mode);
  67              		.loc 1 92 0
  68 0000 044A     		ldr	r2, .L5
  69 0002 1378     		ldrb	r3, [r2]	@ zero_extendqisi2
  70 0004 03F0F103 		and	r3, r3, #241
  71 0008 00F00E00 		and	r0, r0, #14
  72              	.LVL5:
  73 000c 1843     		orrs	r0, r0, r3
  74 000e 1070     		strb	r0, [r2]
  75 0010 7047     		bx	lr
  76              	.L6:
  77 0012 00BF     		.align	2
  78              	.L5:
  79 0014 27500040 		.word	1073762343
ARM GAS  C:\Users\DGILLI~1\AppData\Local\Temp\ccRCk46c.s 			page 4


  80              		.cfi_endproc
  81              	.LFE1:
  82              		.size	P1_05_SetDriveMode, .-P1_05_SetDriveMode
  83              		.section	.text.P1_05_Read,"ax",%progbits
  84              		.align	2
  85              		.global	P1_05_Read
  86              		.thumb
  87              		.thumb_func
  88              		.type	P1_05_Read, %function
  89              	P1_05_Read:
  90              	.LFB2:
  93:Generated_Source\PSoC5/P1_05.c **** }
  94:Generated_Source\PSoC5/P1_05.c **** 
  95:Generated_Source\PSoC5/P1_05.c **** 
  96:Generated_Source\PSoC5/P1_05.c **** /*******************************************************************************
  97:Generated_Source\PSoC5/P1_05.c **** * Function Name: P1_05_Read
  98:Generated_Source\PSoC5/P1_05.c **** ****************************************************************************//**
  99:Generated_Source\PSoC5/P1_05.c **** *
 100:Generated_Source\PSoC5/P1_05.c **** * \brief Reads the associated physical port (pin status register) and masks 
 101:Generated_Source\PSoC5/P1_05.c **** *  the required bits according to the width and bit position of the component
 102:Generated_Source\PSoC5/P1_05.c **** *  instance. 
 103:Generated_Source\PSoC5/P1_05.c **** *
 104:Generated_Source\PSoC5/P1_05.c **** * The pin's status register returns the current logic level present on the 
 105:Generated_Source\PSoC5/P1_05.c **** * physical pin.
 106:Generated_Source\PSoC5/P1_05.c **** *
 107:Generated_Source\PSoC5/P1_05.c **** * \return 
 108:Generated_Source\PSoC5/P1_05.c **** *  The current value for the pins in the component as a right justified number.
 109:Generated_Source\PSoC5/P1_05.c **** *
 110:Generated_Source\PSoC5/P1_05.c **** * \funcusage
 111:Generated_Source\PSoC5/P1_05.c **** *  \snippet P1_05_SUT.c usage_P1_05_Read  
 112:Generated_Source\PSoC5/P1_05.c **** *******************************************************************************/
 113:Generated_Source\PSoC5/P1_05.c **** uint8 P1_05_Read(void)
 114:Generated_Source\PSoC5/P1_05.c **** {
  91              		.loc 1 114 0
  92              		.cfi_startproc
  93              		@ args = 0, pretend = 0, frame = 0
  94              		@ frame_needed = 0, uses_anonymous_args = 0
  95              		@ link register save eliminated.
 115:Generated_Source\PSoC5/P1_05.c ****     return (P1_05_PS & P1_05_MASK) >> P1_05_SHIFT;
  96              		.loc 1 115 0
  97 0000 014B     		ldr	r3, .L8
  98 0002 1878     		ldrb	r0, [r3]	@ zero_extendqisi2
 116:Generated_Source\PSoC5/P1_05.c **** }
  99              		.loc 1 116 0
 100 0004 C009     		lsrs	r0, r0, #7
 101 0006 7047     		bx	lr
 102              	.L9:
 103              		.align	2
 104              	.L8:
 105 0008 41510040 		.word	1073762625
 106              		.cfi_endproc
 107              	.LFE2:
 108              		.size	P1_05_Read, .-P1_05_Read
 109              		.section	.text.P1_05_ReadDataReg,"ax",%progbits
 110              		.align	2
 111              		.global	P1_05_ReadDataReg
 112              		.thumb
ARM GAS  C:\Users\DGILLI~1\AppData\Local\Temp\ccRCk46c.s 			page 5


 113              		.thumb_func
 114              		.type	P1_05_ReadDataReg, %function
 115              	P1_05_ReadDataReg:
 116              	.LFB3:
 117:Generated_Source\PSoC5/P1_05.c **** 
 118:Generated_Source\PSoC5/P1_05.c **** 
 119:Generated_Source\PSoC5/P1_05.c **** /*******************************************************************************
 120:Generated_Source\PSoC5/P1_05.c **** * Function Name: P1_05_ReadDataReg
 121:Generated_Source\PSoC5/P1_05.c **** ****************************************************************************//**
 122:Generated_Source\PSoC5/P1_05.c **** *
 123:Generated_Source\PSoC5/P1_05.c **** * \brief Reads the associated physical port's data output register and masks 
 124:Generated_Source\PSoC5/P1_05.c **** *  the correct bits according to the width and bit position of the component 
 125:Generated_Source\PSoC5/P1_05.c **** *  instance. 
 126:Generated_Source\PSoC5/P1_05.c **** *
 127:Generated_Source\PSoC5/P1_05.c **** * The data output register controls the signal applied to the physical pin in 
 128:Generated_Source\PSoC5/P1_05.c **** * conjunction with the drive mode parameter. This is not the same as the 
 129:Generated_Source\PSoC5/P1_05.c **** * preferred P1_05_Read() API because the 
 130:Generated_Source\PSoC5/P1_05.c **** * P1_05_ReadDataReg() reads the data register instead of the status 
 131:Generated_Source\PSoC5/P1_05.c **** * register. For output pins this is a useful function to determine the value 
 132:Generated_Source\PSoC5/P1_05.c **** * just written to the pin.
 133:Generated_Source\PSoC5/P1_05.c **** *
 134:Generated_Source\PSoC5/P1_05.c **** * \return 
 135:Generated_Source\PSoC5/P1_05.c **** *  The current value of the data register masked and shifted into a right 
 136:Generated_Source\PSoC5/P1_05.c **** *  justified number for the component instance.
 137:Generated_Source\PSoC5/P1_05.c **** *
 138:Generated_Source\PSoC5/P1_05.c **** * \funcusage
 139:Generated_Source\PSoC5/P1_05.c **** *  \snippet P1_05_SUT.c usage_P1_05_ReadDataReg 
 140:Generated_Source\PSoC5/P1_05.c **** *******************************************************************************/
 141:Generated_Source\PSoC5/P1_05.c **** uint8 P1_05_ReadDataReg(void)
 142:Generated_Source\PSoC5/P1_05.c **** {
 117              		.loc 1 142 0
 118              		.cfi_startproc
 119              		@ args = 0, pretend = 0, frame = 0
 120              		@ frame_needed = 0, uses_anonymous_args = 0
 121              		@ link register save eliminated.
 143:Generated_Source\PSoC5/P1_05.c ****     return (P1_05_DR & P1_05_MASK) >> P1_05_SHIFT;
 122              		.loc 1 143 0
 123 0000 014B     		ldr	r3, .L11
 124 0002 1878     		ldrb	r0, [r3]	@ zero_extendqisi2
 144:Generated_Source\PSoC5/P1_05.c **** }
 125              		.loc 1 144 0
 126 0004 C009     		lsrs	r0, r0, #7
 127 0006 7047     		bx	lr
 128              	.L12:
 129              		.align	2
 130              	.L11:
 131 0008 40510040 		.word	1073762624
 132              		.cfi_endproc
 133              	.LFE3:
 134              		.size	P1_05_ReadDataReg, .-P1_05_ReadDataReg
 135              		.text
 136              	.Letext0:
 137              		.file 2 "Generated_Source\\PSoC5\\cytypes.h"