ARM GAS  C:\Users\DGILLI~1\AppData\Local\Temp\ccX0J871.s 			page 1


   1              		.syntax unified
   2              		.cpu cortex-m3
   3              		.fpu softvfp
   4              		.eabi_attribute 20, 1
   5              		.eabi_attribute 21, 1
   6              		.eabi_attribute 23, 3
   7              		.eabi_attribute 24, 1
   8              		.eabi_attribute 25, 1
   9              		.eabi_attribute 26, 1
  10              		.eabi_attribute 30, 1
  11              		.eabi_attribute 34, 1
  12              		.eabi_attribute 18, 4
  13              		.thumb
  14              		.file	"USBUART_1_Dp.c"
  15              		.text
  16              	.Ltext0:
  17              		.cfi_sections	.debug_frame
  18              		.section	.text.USBUART_1_Dp_Write,"ax",%progbits
  19              		.align	2
  20              		.global	USBUART_1_Dp_Write
  21              		.thumb
  22              		.thumb_func
  23              		.type	USBUART_1_Dp_Write, %function
  24              	USBUART_1_Dp_Write:
  25              	.LFB0:
  26              		.file 1 "Generated_Source\\PSoC5\\USBUART_1_Dp.c"
   1:Generated_Source\PSoC5/USBUART_1_Dp.c **** /*******************************************************************************
   2:Generated_Source\PSoC5/USBUART_1_Dp.c **** * File Name: USBUART_1_Dp.c  
   3:Generated_Source\PSoC5/USBUART_1_Dp.c **** * Version 2.20
   4:Generated_Source\PSoC5/USBUART_1_Dp.c **** *
   5:Generated_Source\PSoC5/USBUART_1_Dp.c **** * Description:
   6:Generated_Source\PSoC5/USBUART_1_Dp.c **** *  This file contains API to enable firmware control of a Pins component.
   7:Generated_Source\PSoC5/USBUART_1_Dp.c **** *
   8:Generated_Source\PSoC5/USBUART_1_Dp.c **** * Note:
   9:Generated_Source\PSoC5/USBUART_1_Dp.c **** *
  10:Generated_Source\PSoC5/USBUART_1_Dp.c **** ********************************************************************************
  11:Generated_Source\PSoC5/USBUART_1_Dp.c **** * Copyright 2008-2015, Cypress Semiconductor Corporation.  All rights reserved.
  12:Generated_Source\PSoC5/USBUART_1_Dp.c **** * You may use this file only in accordance with the license, terms, conditions, 
  13:Generated_Source\PSoC5/USBUART_1_Dp.c **** * disclaimers, and limitations in the end user license agreement accompanying 
  14:Generated_Source\PSoC5/USBUART_1_Dp.c **** * the software package with which this file was provided.
  15:Generated_Source\PSoC5/USBUART_1_Dp.c **** *******************************************************************************/
  16:Generated_Source\PSoC5/USBUART_1_Dp.c **** 
  17:Generated_Source\PSoC5/USBUART_1_Dp.c **** #include "cytypes.h"
  18:Generated_Source\PSoC5/USBUART_1_Dp.c **** #include "USBUART_1_Dp.h"
  19:Generated_Source\PSoC5/USBUART_1_Dp.c **** 
  20:Generated_Source\PSoC5/USBUART_1_Dp.c **** /* APIs are not generated for P15[7:6] on PSoC 5 */
  21:Generated_Source\PSoC5/USBUART_1_Dp.c **** #if !(CY_PSOC5A &&\
  22:Generated_Source\PSoC5/USBUART_1_Dp.c **** 	 USBUART_1_Dp__PORT == 15 && ((USBUART_1_Dp__MASK & 0xC0) != 0))
  23:Generated_Source\PSoC5/USBUART_1_Dp.c **** 
  24:Generated_Source\PSoC5/USBUART_1_Dp.c **** 
  25:Generated_Source\PSoC5/USBUART_1_Dp.c **** /*******************************************************************************
  26:Generated_Source\PSoC5/USBUART_1_Dp.c **** * Function Name: USBUART_1_Dp_Write
  27:Generated_Source\PSoC5/USBUART_1_Dp.c **** ****************************************************************************//**
  28:Generated_Source\PSoC5/USBUART_1_Dp.c **** *
  29:Generated_Source\PSoC5/USBUART_1_Dp.c **** * \brief Writes the value to the physical port (data output register), masking
  30:Generated_Source\PSoC5/USBUART_1_Dp.c **** *  and shifting the bits appropriately. 
  31:Generated_Source\PSoC5/USBUART_1_Dp.c **** *
ARM GAS  C:\Users\DGILLI~1\AppData\Local\Temp\ccX0J871.s 			page 2


  32:Generated_Source\PSoC5/USBUART_1_Dp.c **** * The data output register controls the signal applied to the physical pin in 
  33:Generated_Source\PSoC5/USBUART_1_Dp.c **** * conjunction with the drive mode parameter. This function avoids changing 
  34:Generated_Source\PSoC5/USBUART_1_Dp.c **** * other bits in the port by using the appropriate method (read-modify-write or
  35:Generated_Source\PSoC5/USBUART_1_Dp.c **** * bit banding).
  36:Generated_Source\PSoC5/USBUART_1_Dp.c **** *
  37:Generated_Source\PSoC5/USBUART_1_Dp.c **** * <b>Note</b> This function should not be used on a hardware digital output pin 
  38:Generated_Source\PSoC5/USBUART_1_Dp.c **** * as it is driven by the hardware signal attached to it.
  39:Generated_Source\PSoC5/USBUART_1_Dp.c **** *
  40:Generated_Source\PSoC5/USBUART_1_Dp.c **** * \param value
  41:Generated_Source\PSoC5/USBUART_1_Dp.c **** *  Value to write to the component instance.
  42:Generated_Source\PSoC5/USBUART_1_Dp.c **** *
  43:Generated_Source\PSoC5/USBUART_1_Dp.c **** * \return 
  44:Generated_Source\PSoC5/USBUART_1_Dp.c **** *  None 
  45:Generated_Source\PSoC5/USBUART_1_Dp.c **** *
  46:Generated_Source\PSoC5/USBUART_1_Dp.c **** * \sideeffect
  47:Generated_Source\PSoC5/USBUART_1_Dp.c **** *  If you use read-modify-write operations that are not atomic; the Interrupt 
  48:Generated_Source\PSoC5/USBUART_1_Dp.c **** *  Service Routines (ISR) can cause corruption of this function. An ISR that 
  49:Generated_Source\PSoC5/USBUART_1_Dp.c **** *  interrupts this function and performs writes to the Pins component data 
  50:Generated_Source\PSoC5/USBUART_1_Dp.c **** *  register can cause corrupted port data. To avoid this issue, you should 
  51:Generated_Source\PSoC5/USBUART_1_Dp.c **** *  either use the Per-Pin APIs (primary method) or disable interrupts around 
  52:Generated_Source\PSoC5/USBUART_1_Dp.c **** *  this function.
  53:Generated_Source\PSoC5/USBUART_1_Dp.c **** *
  54:Generated_Source\PSoC5/USBUART_1_Dp.c **** * \funcusage
  55:Generated_Source\PSoC5/USBUART_1_Dp.c **** *  \snippet USBUART_1_Dp_SUT.c usage_USBUART_1_Dp_Write
  56:Generated_Source\PSoC5/USBUART_1_Dp.c **** *******************************************************************************/
  57:Generated_Source\PSoC5/USBUART_1_Dp.c **** void USBUART_1_Dp_Write(uint8 value)
  58:Generated_Source\PSoC5/USBUART_1_Dp.c **** {
  27              		.loc 1 58 0
  28              		.cfi_startproc
  29              		@ args = 0, pretend = 0, frame = 0
  30              		@ frame_needed = 0, uses_anonymous_args = 0
  31              		@ link register save eliminated.
  32              	.LVL0:
  59:Generated_Source\PSoC5/USBUART_1_Dp.c ****     uint8 staticBits = (USBUART_1_Dp_DR & (uint8)(~USBUART_1_Dp_MASK));
  33              		.loc 1 59 0
  34 0000 044A     		ldr	r2, .L2
  35 0002 1378     		ldrb	r3, [r2]	@ zero_extendqisi2
  36 0004 03F0BF03 		and	r3, r3, #191
  37              	.LVL1:
  60:Generated_Source\PSoC5/USBUART_1_Dp.c ****     USBUART_1_Dp_DR = staticBits | ((uint8)(value << USBUART_1_Dp_SHIFT) & USBUART_1_Dp_MASK);
  38              		.loc 1 60 0
  39 0008 8001     		lsls	r0, r0, #6
  40              	.LVL2:
  41 000a 00F04000 		and	r0, r0, #64
  42 000e 1843     		orrs	r0, r0, r3
  43 0010 1070     		strb	r0, [r2]
  44 0012 7047     		bx	lr
  45              	.L3:
  46              		.align	2
  47              	.L2:
  48 0014 F0510040 		.word	1073762800
  49              		.cfi_endproc
  50              	.LFE0:
  51              		.size	USBUART_1_Dp_Write, .-USBUART_1_Dp_Write
  52              		.section	.text.USBUART_1_Dp_SetDriveMode,"ax",%progbits
  53              		.align	2
  54              		.global	USBUART_1_Dp_SetDriveMode
ARM GAS  C:\Users\DGILLI~1\AppData\Local\Temp\ccX0J871.s 			page 3


  55              		.thumb
  56              		.thumb_func
  57              		.type	USBUART_1_Dp_SetDriveMode, %function
  58              	USBUART_1_Dp_SetDriveMode:
  59              	.LFB1:
  61:Generated_Source\PSoC5/USBUART_1_Dp.c **** }
  62:Generated_Source\PSoC5/USBUART_1_Dp.c **** 
  63:Generated_Source\PSoC5/USBUART_1_Dp.c **** 
  64:Generated_Source\PSoC5/USBUART_1_Dp.c **** /*******************************************************************************
  65:Generated_Source\PSoC5/USBUART_1_Dp.c **** * Function Name: USBUART_1_Dp_SetDriveMode
  66:Generated_Source\PSoC5/USBUART_1_Dp.c **** ****************************************************************************//**
  67:Generated_Source\PSoC5/USBUART_1_Dp.c **** *
  68:Generated_Source\PSoC5/USBUART_1_Dp.c **** * \brief Sets the drive mode for each of the Pins component's pins.
  69:Generated_Source\PSoC5/USBUART_1_Dp.c **** * 
  70:Generated_Source\PSoC5/USBUART_1_Dp.c **** * <b>Note</b> This affects all pins in the Pins component instance. Use the
  71:Generated_Source\PSoC5/USBUART_1_Dp.c **** * Per-Pin APIs if you wish to control individual pin's drive modes.
  72:Generated_Source\PSoC5/USBUART_1_Dp.c **** *
  73:Generated_Source\PSoC5/USBUART_1_Dp.c **** * \param mode
  74:Generated_Source\PSoC5/USBUART_1_Dp.c **** *  Mode for the selected signals. Valid options are documented in 
  75:Generated_Source\PSoC5/USBUART_1_Dp.c **** *  \ref driveMode.
  76:Generated_Source\PSoC5/USBUART_1_Dp.c **** *
  77:Generated_Source\PSoC5/USBUART_1_Dp.c **** * \return
  78:Generated_Source\PSoC5/USBUART_1_Dp.c **** *  None
  79:Generated_Source\PSoC5/USBUART_1_Dp.c **** *
  80:Generated_Source\PSoC5/USBUART_1_Dp.c **** * \sideeffect
  81:Generated_Source\PSoC5/USBUART_1_Dp.c **** *  If you use read-modify-write operations that are not atomic, the ISR can
  82:Generated_Source\PSoC5/USBUART_1_Dp.c **** *  cause corruption of this function. An ISR that interrupts this function 
  83:Generated_Source\PSoC5/USBUART_1_Dp.c **** *  and performs writes to the Pins component Drive Mode registers can cause 
  84:Generated_Source\PSoC5/USBUART_1_Dp.c **** *  corrupted port data. To avoid this issue, you should either use the Per-Pin
  85:Generated_Source\PSoC5/USBUART_1_Dp.c **** *  APIs (primary method) or disable interrupts around this function.
  86:Generated_Source\PSoC5/USBUART_1_Dp.c **** *
  87:Generated_Source\PSoC5/USBUART_1_Dp.c **** * \funcusage
  88:Generated_Source\PSoC5/USBUART_1_Dp.c **** *  \snippet USBUART_1_Dp_SUT.c usage_USBUART_1_Dp_SetDriveMode
  89:Generated_Source\PSoC5/USBUART_1_Dp.c **** *******************************************************************************/
  90:Generated_Source\PSoC5/USBUART_1_Dp.c **** void USBUART_1_Dp_SetDriveMode(uint8 mode)
  91:Generated_Source\PSoC5/USBUART_1_Dp.c **** {
  60              		.loc 1 91 0
  61              		.cfi_startproc
  62              		@ args = 0, pretend = 0, frame = 0
  63              		@ frame_needed = 0, uses_anonymous_args = 0
  64              		@ link register save eliminated.
  65              	.LVL3:
  92:Generated_Source\PSoC5/USBUART_1_Dp.c **** 	CyPins_SetPinDriveMode(USBUART_1_Dp_0, mode);
  66              		.loc 1 92 0
  67 0000 044A     		ldr	r2, .L5
  68 0002 1378     		ldrb	r3, [r2]	@ zero_extendqisi2
  69 0004 03F0F103 		and	r3, r3, #241
  70 0008 00F00E00 		and	r0, r0, #14
  71              	.LVL4:
  72 000c 1843     		orrs	r0, r0, r3
  73 000e 1070     		strb	r0, [r2]
  74 0010 7047     		bx	lr
  75              	.L6:
  76 0012 00BF     		.align	2
  77              	.L5:
  78 0014 7E500040 		.word	1073762430
  79              		.cfi_endproc
ARM GAS  C:\Users\DGILLI~1\AppData\Local\Temp\ccX0J871.s 			page 4


  80              	.LFE1:
  81              		.size	USBUART_1_Dp_SetDriveMode, .-USBUART_1_Dp_SetDriveMode
  82              		.section	.text.USBUART_1_Dp_Read,"ax",%progbits
  83              		.align	2
  84              		.global	USBUART_1_Dp_Read
  85              		.thumb
  86              		.thumb_func
  87              		.type	USBUART_1_Dp_Read, %function
  88              	USBUART_1_Dp_Read:
  89              	.LFB2:
  93:Generated_Source\PSoC5/USBUART_1_Dp.c **** }
  94:Generated_Source\PSoC5/USBUART_1_Dp.c **** 
  95:Generated_Source\PSoC5/USBUART_1_Dp.c **** 
  96:Generated_Source\PSoC5/USBUART_1_Dp.c **** /*******************************************************************************
  97:Generated_Source\PSoC5/USBUART_1_Dp.c **** * Function Name: USBUART_1_Dp_Read
  98:Generated_Source\PSoC5/USBUART_1_Dp.c **** ****************************************************************************//**
  99:Generated_Source\PSoC5/USBUART_1_Dp.c **** *
 100:Generated_Source\PSoC5/USBUART_1_Dp.c **** * \brief Reads the associated physical port (pin status register) and masks 
 101:Generated_Source\PSoC5/USBUART_1_Dp.c **** *  the required bits according to the width and bit position of the component
 102:Generated_Source\PSoC5/USBUART_1_Dp.c **** *  instance. 
 103:Generated_Source\PSoC5/USBUART_1_Dp.c **** *
 104:Generated_Source\PSoC5/USBUART_1_Dp.c **** * The pin's status register returns the current logic level present on the 
 105:Generated_Source\PSoC5/USBUART_1_Dp.c **** * physical pin.
 106:Generated_Source\PSoC5/USBUART_1_Dp.c **** *
 107:Generated_Source\PSoC5/USBUART_1_Dp.c **** * \return 
 108:Generated_Source\PSoC5/USBUART_1_Dp.c **** *  The current value for the pins in the component as a right justified number.
 109:Generated_Source\PSoC5/USBUART_1_Dp.c **** *
 110:Generated_Source\PSoC5/USBUART_1_Dp.c **** * \funcusage
 111:Generated_Source\PSoC5/USBUART_1_Dp.c **** *  \snippet USBUART_1_Dp_SUT.c usage_USBUART_1_Dp_Read  
 112:Generated_Source\PSoC5/USBUART_1_Dp.c **** *******************************************************************************/
 113:Generated_Source\PSoC5/USBUART_1_Dp.c **** uint8 USBUART_1_Dp_Read(void)
 114:Generated_Source\PSoC5/USBUART_1_Dp.c **** {
  90              		.loc 1 114 0
  91              		.cfi_startproc
  92              		@ args = 0, pretend = 0, frame = 0
  93              		@ frame_needed = 0, uses_anonymous_args = 0
  94              		@ link register save eliminated.
 115:Generated_Source\PSoC5/USBUART_1_Dp.c ****     return (USBUART_1_Dp_PS & USBUART_1_Dp_MASK) >> USBUART_1_Dp_SHIFT;
  95              		.loc 1 115 0
  96 0000 024B     		ldr	r3, .L8
  97 0002 1878     		ldrb	r0, [r3]	@ zero_extendqisi2
 116:Generated_Source\PSoC5/USBUART_1_Dp.c **** }
  98              		.loc 1 116 0
  99 0004 C0F38010 		ubfx	r0, r0, #6, #1
 100 0008 7047     		bx	lr
 101              	.L9:
 102 000a 00BF     		.align	2
 103              	.L8:
 104 000c F1510040 		.word	1073762801
 105              		.cfi_endproc
 106              	.LFE2:
 107              		.size	USBUART_1_Dp_Read, .-USBUART_1_Dp_Read
 108              		.section	.text.USBUART_1_Dp_ReadDataReg,"ax",%progbits
 109              		.align	2
 110              		.global	USBUART_1_Dp_ReadDataReg
 111              		.thumb
 112              		.thumb_func
ARM GAS  C:\Users\DGILLI~1\AppData\Local\Temp\ccX0J871.s 			page 5


 113              		.type	USBUART_1_Dp_ReadDataReg, %function
 114              	USBUART_1_Dp_ReadDataReg:
 115              	.LFB3:
 117:Generated_Source\PSoC5/USBUART_1_Dp.c **** 
 118:Generated_Source\PSoC5/USBUART_1_Dp.c **** 
 119:Generated_Source\PSoC5/USBUART_1_Dp.c **** /*******************************************************************************
 120:Generated_Source\PSoC5/USBUART_1_Dp.c **** * Function Name: USBUART_1_Dp_ReadDataReg
 121:Generated_Source\PSoC5/USBUART_1_Dp.c **** ****************************************************************************//**
 122:Generated_Source\PSoC5/USBUART_1_Dp.c **** *
 123:Generated_Source\PSoC5/USBUART_1_Dp.c **** * \brief Reads the associated physical port's data output register and masks 
 124:Generated_Source\PSoC5/USBUART_1_Dp.c **** *  the correct bits according to the width and bit position of the component 
 125:Generated_Source\PSoC5/USBUART_1_Dp.c **** *  instance. 
 126:Generated_Source\PSoC5/USBUART_1_Dp.c **** *
 127:Generated_Source\PSoC5/USBUART_1_Dp.c **** * The data output register controls the signal applied to the physical pin in 
 128:Generated_Source\PSoC5/USBUART_1_Dp.c **** * conjunction with the drive mode parameter. This is not the same as the 
 129:Generated_Source\PSoC5/USBUART_1_Dp.c **** * preferred USBUART_1_Dp_Read() API because the 
 130:Generated_Source\PSoC5/USBUART_1_Dp.c **** * USBUART_1_Dp_ReadDataReg() reads the data register instead of the status 
 131:Generated_Source\PSoC5/USBUART_1_Dp.c **** * register. For output pins this is a useful function to determine the value 
 132:Generated_Source\PSoC5/USBUART_1_Dp.c **** * just written to the pin.
 133:Generated_Source\PSoC5/USBUART_1_Dp.c **** *
 134:Generated_Source\PSoC5/USBUART_1_Dp.c **** * \return 
 135:Generated_Source\PSoC5/USBUART_1_Dp.c **** *  The current value of the data register masked and shifted into a right 
 136:Generated_Source\PSoC5/USBUART_1_Dp.c **** *  justified number for the component instance.
 137:Generated_Source\PSoC5/USBUART_1_Dp.c **** *
 138:Generated_Source\PSoC5/USBUART_1_Dp.c **** * \funcusage
 139:Generated_Source\PSoC5/USBUART_1_Dp.c **** *  \snippet USBUART_1_Dp_SUT.c usage_USBUART_1_Dp_ReadDataReg 
 140:Generated_Source\PSoC5/USBUART_1_Dp.c **** *******************************************************************************/
 141:Generated_Source\PSoC5/USBUART_1_Dp.c **** uint8 USBUART_1_Dp_ReadDataReg(void)
 142:Generated_Source\PSoC5/USBUART_1_Dp.c **** {
 116              		.loc 1 142 0
 117              		.cfi_startproc
 118              		@ args = 0, pretend = 0, frame = 0
 119              		@ frame_needed = 0, uses_anonymous_args = 0
 120              		@ link register save eliminated.
 143:Generated_Source\PSoC5/USBUART_1_Dp.c ****     return (USBUART_1_Dp_DR & USBUART_1_Dp_MASK) >> USBUART_1_Dp_SHIFT;
 121              		.loc 1 143 0
 122 0000 024B     		ldr	r3, .L11
 123 0002 1878     		ldrb	r0, [r3]	@ zero_extendqisi2
 144:Generated_Source\PSoC5/USBUART_1_Dp.c **** }
 124              		.loc 1 144 0
 125 0004 C0F38010 		ubfx	r0, r0, #6, #1
 126 0008 7047     		bx	lr
 127              	.L12:
 128 000a 00BF     		.align	2
 129              	.L11:
 130 000c F0510040 		.word	1073762800
 131              		.cfi_endproc
 132              	.LFE3:
 133              		.size	USBUART_1_Dp_ReadDataReg, .-USBUART_1_Dp_ReadDataReg
 134              		.section	.text.USBUART_1_Dp_SetInterruptMode,"ax",%progbits
 135              		.align	2
 136              		.global	USBUART_1_Dp_SetInterruptMode
 137              		.thumb
 138              		.thumb_func
 139              		.type	USBUART_1_Dp_SetInterruptMode, %function
 140              	USBUART_1_Dp_SetInterruptMode:
 141              	.LFB4:
ARM GAS  C:\Users\DGILLI~1\AppData\Local\Temp\ccX0J871.s 			page 6


 145:Generated_Source\PSoC5/USBUART_1_Dp.c **** 
 146:Generated_Source\PSoC5/USBUART_1_Dp.c **** 
 147:Generated_Source\PSoC5/USBUART_1_Dp.c **** /* If interrupt is connected for this Pins component */ 
 148:Generated_Source\PSoC5/USBUART_1_Dp.c **** #if defined(USBUART_1_Dp_INTSTAT) 
 149:Generated_Source\PSoC5/USBUART_1_Dp.c **** 
 150:Generated_Source\PSoC5/USBUART_1_Dp.c ****     /*******************************************************************************
 151:Generated_Source\PSoC5/USBUART_1_Dp.c ****     * Function Name: USBUART_1_Dp_SetInterruptMode
 152:Generated_Source\PSoC5/USBUART_1_Dp.c ****     ****************************************************************************//**
 153:Generated_Source\PSoC5/USBUART_1_Dp.c ****     *
 154:Generated_Source\PSoC5/USBUART_1_Dp.c ****     * \brief Configures the interrupt mode for each of the Pins component's
 155:Generated_Source\PSoC5/USBUART_1_Dp.c ****     *  pins. Alternatively you may set the interrupt mode for all the pins
 156:Generated_Source\PSoC5/USBUART_1_Dp.c ****     *  specified in the Pins component.
 157:Generated_Source\PSoC5/USBUART_1_Dp.c ****     *
 158:Generated_Source\PSoC5/USBUART_1_Dp.c ****     *  <b>Note</b> The interrupt is port-wide and therefore any enabled pin
 159:Generated_Source\PSoC5/USBUART_1_Dp.c ****     *  interrupt may trigger it.
 160:Generated_Source\PSoC5/USBUART_1_Dp.c ****     *
 161:Generated_Source\PSoC5/USBUART_1_Dp.c ****     * \param position
 162:Generated_Source\PSoC5/USBUART_1_Dp.c ****     *  The pin position as listed in the Pins component. You may OR these to be 
 163:Generated_Source\PSoC5/USBUART_1_Dp.c ****     *  able to configure the interrupt mode of multiple pins within a Pins 
 164:Generated_Source\PSoC5/USBUART_1_Dp.c ****     *  component. Or you may use USBUART_1_Dp_INTR_ALL to configure the
 165:Generated_Source\PSoC5/USBUART_1_Dp.c ****     *  interrupt mode of all the pins in the Pins component.       
 166:Generated_Source\PSoC5/USBUART_1_Dp.c ****     *  - USBUART_1_Dp_0_INTR       (First pin in the list)
 167:Generated_Source\PSoC5/USBUART_1_Dp.c ****     *  - USBUART_1_Dp_1_INTR       (Second pin in the list)
 168:Generated_Source\PSoC5/USBUART_1_Dp.c ****     *  - ...
 169:Generated_Source\PSoC5/USBUART_1_Dp.c ****     *  - USBUART_1_Dp_INTR_ALL     (All pins in Pins component)
 170:Generated_Source\PSoC5/USBUART_1_Dp.c ****     *
 171:Generated_Source\PSoC5/USBUART_1_Dp.c ****     * \param mode
 172:Generated_Source\PSoC5/USBUART_1_Dp.c ****     *  Interrupt mode for the selected pins. Valid options are documented in
 173:Generated_Source\PSoC5/USBUART_1_Dp.c ****     *  \ref intrMode.
 174:Generated_Source\PSoC5/USBUART_1_Dp.c ****     *
 175:Generated_Source\PSoC5/USBUART_1_Dp.c ****     * \return 
 176:Generated_Source\PSoC5/USBUART_1_Dp.c ****     *  None
 177:Generated_Source\PSoC5/USBUART_1_Dp.c ****     *  
 178:Generated_Source\PSoC5/USBUART_1_Dp.c ****     * \sideeffect
 179:Generated_Source\PSoC5/USBUART_1_Dp.c ****     *  It is recommended that the interrupt be disabled before calling this 
 180:Generated_Source\PSoC5/USBUART_1_Dp.c ****     *  function to avoid unintended interrupt requests. Note that the interrupt
 181:Generated_Source\PSoC5/USBUART_1_Dp.c ****     *  type is port wide, and therefore will trigger for any enabled pin on the 
 182:Generated_Source\PSoC5/USBUART_1_Dp.c ****     *  port.
 183:Generated_Source\PSoC5/USBUART_1_Dp.c ****     *
 184:Generated_Source\PSoC5/USBUART_1_Dp.c ****     * \funcusage
 185:Generated_Source\PSoC5/USBUART_1_Dp.c ****     *  \snippet USBUART_1_Dp_SUT.c usage_USBUART_1_Dp_SetInterruptMode
 186:Generated_Source\PSoC5/USBUART_1_Dp.c ****     *******************************************************************************/
 187:Generated_Source\PSoC5/USBUART_1_Dp.c ****     void USBUART_1_Dp_SetInterruptMode(uint16 position, uint16 mode)
 188:Generated_Source\PSoC5/USBUART_1_Dp.c ****     {
 142              		.loc 1 188 0
 143              		.cfi_startproc
 144              		@ args = 0, pretend = 0, frame = 0
 145              		@ frame_needed = 0, uses_anonymous_args = 0
 146              		@ link register save eliminated.
 147              	.LVL5:
 189:Generated_Source\PSoC5/USBUART_1_Dp.c **** 		if((position & USBUART_1_Dp_0_INTR) != 0u) 
 148              		.loc 1 189 0
 149 0000 00F04000 		and	r0, r0, #64
 150              	.LVL6:
 151 0004 80B2     		uxth	r0, r0
 152 0006 10B1     		cbz	r0, .L13
 190:Generated_Source\PSoC5/USBUART_1_Dp.c **** 		{ 
ARM GAS  C:\Users\DGILLI~1\AppData\Local\Temp\ccX0J871.s 			page 7


 191:Generated_Source\PSoC5/USBUART_1_Dp.c **** 			 USBUART_1_Dp_0_INTTYPE_REG = (uint8)mode; 
 153              		.loc 1 191 0
 154 0008 C9B2     		uxtb	r1, r1
 155              	.LVL7:
 156 000a 014B     		ldr	r3, .L15
 157 000c 1970     		strb	r1, [r3]
 158              	.L13:
 159 000e 7047     		bx	lr
 160              	.L16:
 161              		.align	2
 162              	.L15:
 163 0010 7E450040 		.word	1073759614
 164              		.cfi_endproc
 165              	.LFE4:
 166              		.size	USBUART_1_Dp_SetInterruptMode, .-USBUART_1_Dp_SetInterruptMode
 167              		.section	.text.USBUART_1_Dp_ClearInterrupt,"ax",%progbits
 168              		.align	2
 169              		.global	USBUART_1_Dp_ClearInterrupt
 170              		.thumb
 171              		.thumb_func
 172              		.type	USBUART_1_Dp_ClearInterrupt, %function
 173              	USBUART_1_Dp_ClearInterrupt:
 174              	.LFB5:
 192:Generated_Source\PSoC5/USBUART_1_Dp.c **** 		}
 193:Generated_Source\PSoC5/USBUART_1_Dp.c ****     }
 194:Generated_Source\PSoC5/USBUART_1_Dp.c ****     
 195:Generated_Source\PSoC5/USBUART_1_Dp.c ****     
 196:Generated_Source\PSoC5/USBUART_1_Dp.c ****     /*******************************************************************************
 197:Generated_Source\PSoC5/USBUART_1_Dp.c ****     * Function Name: USBUART_1_Dp_ClearInterrupt
 198:Generated_Source\PSoC5/USBUART_1_Dp.c ****     ****************************************************************************//**
 199:Generated_Source\PSoC5/USBUART_1_Dp.c ****     *
 200:Generated_Source\PSoC5/USBUART_1_Dp.c ****     * \brief Clears any active interrupts attached with the component and returns 
 201:Generated_Source\PSoC5/USBUART_1_Dp.c ****     *  the value of the interrupt status register allowing determination of which
 202:Generated_Source\PSoC5/USBUART_1_Dp.c ****     *  pins generated an interrupt event.
 203:Generated_Source\PSoC5/USBUART_1_Dp.c ****     *
 204:Generated_Source\PSoC5/USBUART_1_Dp.c ****     * \return 
 205:Generated_Source\PSoC5/USBUART_1_Dp.c ****     *  The right-shifted current value of the interrupt status register. Each pin 
 206:Generated_Source\PSoC5/USBUART_1_Dp.c ****     *  has one bit set if it generated an interrupt event. For example, bit 0 is 
 207:Generated_Source\PSoC5/USBUART_1_Dp.c ****     *  for pin 0 and bit 1 is for pin 1 of the Pins component.
 208:Generated_Source\PSoC5/USBUART_1_Dp.c ****     *  
 209:Generated_Source\PSoC5/USBUART_1_Dp.c ****     * \sideeffect
 210:Generated_Source\PSoC5/USBUART_1_Dp.c ****     *  Clears all bits of the physical port's interrupt status register, not just
 211:Generated_Source\PSoC5/USBUART_1_Dp.c ****     *  those associated with the Pins component.
 212:Generated_Source\PSoC5/USBUART_1_Dp.c ****     *
 213:Generated_Source\PSoC5/USBUART_1_Dp.c ****     * \funcusage
 214:Generated_Source\PSoC5/USBUART_1_Dp.c ****     *  \snippet USBUART_1_Dp_SUT.c usage_USBUART_1_Dp_ClearInterrupt
 215:Generated_Source\PSoC5/USBUART_1_Dp.c ****     *******************************************************************************/
 216:Generated_Source\PSoC5/USBUART_1_Dp.c ****     uint8 USBUART_1_Dp_ClearInterrupt(void)
 217:Generated_Source\PSoC5/USBUART_1_Dp.c ****     {
 175              		.loc 1 217 0
 176              		.cfi_startproc
 177              		@ args = 0, pretend = 0, frame = 0
 178              		@ frame_needed = 0, uses_anonymous_args = 0
 179              		@ link register save eliminated.
 218:Generated_Source\PSoC5/USBUART_1_Dp.c ****         return (USBUART_1_Dp_INTSTAT & USBUART_1_Dp_MASK) >> USBUART_1_Dp_SHIFT;
 180              		.loc 1 218 0
 181 0000 024B     		ldr	r3, .L18
ARM GAS  C:\Users\DGILLI~1\AppData\Local\Temp\ccX0J871.s 			page 8


 182 0002 1878     		ldrb	r0, [r3]	@ zero_extendqisi2
 219:Generated_Source\PSoC5/USBUART_1_Dp.c ****     }
 183              		.loc 1 219 0
 184 0004 C0F38010 		ubfx	r0, r0, #6, #1
 185 0008 7047     		bx	lr
 186              	.L19:
 187 000a 00BF     		.align	2
 188              	.L18:
 189 000c 8F450040 		.word	1073759631
 190              		.cfi_endproc
 191              	.LFE5:
 192              		.size	USBUART_1_Dp_ClearInterrupt, .-USBUART_1_Dp_ClearInterrupt
 193              		.text
 194              	.Letext0:
 195              		.file 2 "Generated_Source\\PSoC5\\cytypes.h"