Modules list:
-------------
DumpDir.o:
    CODE              Offs=000000  Size=0003AF  Align=00001  Fill=0000
    RODATA            Offs=000000  Size=000000  Align=00001  Fill=0000
    BSS               Offs=000000  Size=000016  Align=00001  Fill=0000
    DATA              Offs=000000  Size=000000  Align=00001  Fill=0000
    ZEROPAGE          Offs=000000  Size=000000  Align=00001  Fill=0000
    NULL              Offs=000000  Size=000000  Align=00001  Fill=0000
C:\Users\HPz420\Documents\GitHub\Doug Gilliland\Retro-Computers\6502\CC65\lib/osic1p.lib(add.o):
    CODE              Offs=0003AF  Size=00001C  Align=00001  Fill=0000
    RODATA            Offs=000000  Size=000000  Align=00001  Fill=0000
    BSS               Offs=000016  Size=000000  Align=00001  Fill=0000
    DATA              Offs=000000  Size=000000  Align=00001  Fill=0000
    ZEROPAGE          Offs=000000  Size=000000  Align=00001  Fill=0000
    NULL              Offs=000000  Size=000000  Align=00001  Fill=0000
C:\Users\HPz420\Documents\GitHub\Doug Gilliland\Retro-Computers\6502\CC65\lib/osic1p.lib(addysp.o):
    CODE              Offs=0003CB  Size=00000E  Align=00001  Fill=0000
    RODATA            Offs=000000  Size=000000  Align=00001  Fill=0000
    BSS               Offs=000016  Size=000000  Align=00001  Fill=0000
    DATA              Offs=000000  Size=000000  Align=00001  Fill=0000
    ZEROPAGE          Offs=000000  Size=000000  Align=00001  Fill=0000
    NULL              Offs=000000  Size=000000  Align=00001  Fill=0000
C:\Users\HPz420\Documents\GitHub\Doug Gilliland\Retro-Computers\6502\CC65\lib/osic1p.lib(aslax1.o):
    CODE              Offs=0003D9  Size=000008  Align=00001  Fill=0000
    RODATA            Offs=000000  Size=000000  Align=00001  Fill=0000
    BSS               Offs=000016  Size=000000  Align=00001  Fill=0000
    DATA              Offs=000000  Size=000000  Align=00001  Fill=0000
    ZEROPAGE          Offs=000000  Size=000000  Align=00001  Fill=0000
    NULL              Offs=000000  Size=000000  Align=00001  Fill=0000
C:\Users\HPz420\Documents\GitHub\Doug Gilliland\Retro-Computers\6502\CC65\lib/osic1p.lib(aslax4.o):
    CODE              Offs=0003E1  Size=000011  Align=00001  Fill=0000
    RODATA            Offs=000000  Size=000000  Align=00001  Fill=0000
    BSS               Offs=000016  Size=000000  Align=00001  Fill=0000
    DATA              Offs=000000  Size=000000  Align=00001  Fill=0000
    ZEROPAGE          Offs=000000  Size=000000  Align=00001  Fill=0000
    NULL              Offs=000000  Size=000000  Align=00001  Fill=0000
C:\Users\HPz420\Documents\GitHub\Doug Gilliland\Retro-Computers\6502\CC65\lib/osic1p.lib(asleax1.o):
    CODE              Offs=0003F2  Size=00000C  Align=00001  Fill=0000
    RODATA            Offs=000000  Size=000000  Align=00001  Fill=0000
    BSS               Offs=000016  Size=000000  Align=00001  Fill=0000
    DATA              Offs=000000  Size=000000  Align=00001  Fill=0000
    ZEROPAGE          Offs=000000  Size=000000  Align=00001  Fill=0000
    NULL              Offs=000000  Size=000000  Align=00001  Fill=0000
C:\Users\HPz420\Documents\GitHub\Doug Gilliland\Retro-Computers\6502\CC65\lib/osic1p.lib(axlong.o):
    CODE              Offs=0003FE  Size=00000D  Align=00001  Fill=0000
    RODATA            Offs=000000  Size=000000  Align=00001  Fill=0000
    BSS               Offs=000016  Size=000000  Align=00001  Fill=0000
    DATA              Offs=000000  Size=000000  Align=00001  Fill=0000
    ZEROPAGE          Offs=000000  Size=000000  Align=00001  Fill=0000
    NULL              Offs=000000  Size=000000  Align=00001  Fill=0000
C:\Users\HPz420\Documents\GitHub\Doug Gilliland\Retro-Computers\6502\CC65\lib/osic1p.lib(condes.o):
    CODE              Offs=00040B  Size=00000C  Align=00001  Fill=0000
    RODATA            Offs=000000  Size=000000  Align=00001  Fill=0000
    BSS               Offs=000016  Size=000000  Align=00001  Fill=0000
    DATA              Offs=000000  Size=000025  Align=00001  Fill=0000
    ZEROPAGE          Offs=000000  Size=000000  Align=00001  Fill=0000
    NULL              Offs=000000  Size=000000  Align=00001  Fill=0000
    ONCE              Offs=000000  Size=00000C  Align=00001  Fill=0000
C:\Users\HPz420\Documents\GitHub\Doug Gilliland\Retro-Computers\6502\CC65\lib/osic1p.lib(crt0.o):
    CODE              Offs=000417  Size=000000  Align=00001  Fill=0000
    RODATA            Offs=000000  Size=000000  Align=00001  Fill=0000
    BSS               Offs=000016  Size=000000  Align=00001  Fill=0000
    DATA              Offs=000025  Size=000000  Align=00001  Fill=0000
    ZEROPAGE          Offs=000000  Size=000000  Align=00001  Fill=0000
    NULL              Offs=000000  Size=000000  Align=00001  Fill=0000
    STARTUP           Offs=000000  Size=00001B  Align=00001  Fill=0000
C:\Users\HPz420\Documents\GitHub\Doug Gilliland\Retro-Computers\6502\CC65\lib/osic1p.lib(decsp1.o):
    CODE              Offs=000417  Size=000009  Align=00001  Fill=0000
    RODATA            Offs=000000  Size=000000  Align=00001  Fill=0000
    BSS               Offs=000016  Size=000000  Align=00001  Fill=0000
    DATA              Offs=000025  Size=000000  Align=00001  Fill=0000
    ZEROPAGE          Offs=000000  Size=000000  Align=00001  Fill=0000
    NULL              Offs=000000  Size=000000  Align=00001  Fill=0000
C:\Users\HPz420\Documents\GitHub\Doug Gilliland\Retro-Computers\6502\CC65\lib/osic1p.lib(decsp2.o):
    CODE              Offs=000420  Size=00000D  Align=00001  Fill=0000
    RODATA            Offs=000000  Size=000000  Align=00001  Fill=0000
    BSS               Offs=000016  Size=000000  Align=00001  Fill=0000
    DATA              Offs=000025  Size=000000  Align=00001  Fill=0000
    ZEROPAGE          Offs=000000  Size=000000  Align=00001  Fill=0000
    NULL              Offs=000000  Size=000000  Align=00001  Fill=0000
C:\Users\HPz420\Documents\GitHub\Doug Gilliland\Retro-Computers\6502\CC65\lib/osic1p.lib(decsp4.o):
    CODE              Offs=00042D  Size=00000D  Align=00001  Fill=0000
    RODATA            Offs=000000  Size=000000  Align=00001  Fill=0000
    BSS               Offs=000016  Size=000000  Align=00001  Fill=0000
    DATA              Offs=000025  Size=000000  Align=00001  Fill=0000
    ZEROPAGE          Offs=000000  Size=000000  Align=00001  Fill=0000
    NULL              Offs=000000  Size=000000  Align=00001  Fill=0000
C:\Users\HPz420\Documents\GitHub\Doug Gilliland\Retro-Computers\6502\CC65\lib/osic1p.lib(incax1.o):
    CODE              Offs=00043A  Size=000007  Align=00001  Fill=0000
    RODATA            Offs=000000  Size=000000  Align=00001  Fill=0000
    BSS               Offs=000016  Size=000000  Align=00001  Fill=0000
    DATA              Offs=000025  Size=000000  Align=00001  Fill=0000
    ZEROPAGE          Offs=000000  Size=000000  Align=00001  Fill=0000
    NULL              Offs=000000  Size=000000  Align=00001  Fill=0000
C:\Users\HPz420\Documents\GitHub\Doug Gilliland\Retro-Computers\6502\CC65\lib/osic1p.lib(incaxy.o):
    CODE              Offs=000441  Size=00000B  Align=00001  Fill=0000
    RODATA            Offs=000000  Size=000000  Align=00001  Fill=0000
    BSS               Offs=000016  Size=000000  Align=00001  Fill=0000
    DATA              Offs=000025  Size=000000  Align=00001  Fill=0000
    ZEROPAGE          Offs=000000  Size=000000  Align=00001  Fill=0000
    NULL              Offs=000000  Size=000000  Align=00001  Fill=0000
C:\Users\HPz420\Documents\GitHub\Doug Gilliland\Retro-Computers\6502\CC65\lib/osic1p.lib(incsp1.o):
    CODE              Offs=00044C  Size=000007  Align=00001  Fill=0000
    RODATA            Offs=000000  Size=000000  Align=00001  Fill=0000
    BSS               Offs=000016  Size=000000  Align=00001  Fill=0000
    DATA              Offs=000025  Size=000000  Align=00001  Fill=0000
    ZEROPAGE          Offs=000000  Size=000000  Align=00001  Fill=0000
    NULL              Offs=000000  Size=000000  Align=00001  Fill=0000
C:\Users\HPz420\Documents\GitHub\Doug Gilliland\Retro-Computers\6502\CC65\lib/osic1p.lib(incsp2.o):
    CODE              Offs=000453  Size=000016  Align=00001  Fill=0000
    RODATA            Offs=000000  Size=000000  Align=00001  Fill=0000
    BSS               Offs=000016  Size=000000  Align=00001  Fill=0000
    DATA              Offs=000025  Size=000000  Align=00001  Fill=0000
    ZEROPAGE          Offs=000000  Size=000000  Align=00001  Fill=0000
    NULL              Offs=000000  Size=000000  Align=00001  Fill=0000
C:\Users\HPz420\Documents\GitHub\Doug Gilliland\Retro-Computers\6502\CC65\lib/osic1p.lib(incsp4.o):
    CODE              Offs=000469  Size=000005  Align=00001  Fill=0000
    RODATA            Offs=000000  Size=000000  Align=00001  Fill=0000
    BSS               Offs=000016  Size=000000  Align=00001  Fill=0000
    DATA              Offs=000025  Size=000000  Align=00001  Fill=0000
    ZEROPAGE          Offs=000000  Size=000000  Align=00001  Fill=0000
    NULL              Offs=000000  Size=000000  Align=00001  Fill=0000
C:\Users\HPz420\Documents\GitHub\Doug Gilliland\Retro-Computers\6502\CC65\lib/osic1p.lib(incsp8.o):
    CODE              Offs=00046E  Size=000005  Align=00001  Fill=0000
    RODATA            Offs=000000  Size=000000  Align=00001  Fill=0000
    BSS               Offs=000016  Size=000000  Align=00001  Fill=0000
    DATA              Offs=000025  Size=000000  Align=00001  Fill=0000
    ZEROPAGE          Offs=000000  Size=000000  Align=00001  Fill=0000
    NULL              Offs=000000  Size=000000  Align=00001  Fill=0000
C:\Users\HPz420\Documents\GitHub\Doug Gilliland\Retro-Computers\6502\CC65\lib/osic1p.lib(ladd.o):
    CODE              Offs=000473  Size=000025  Align=00001  Fill=0000
    RODATA            Offs=000000  Size=000000  Align=00001  Fill=0000
    BSS               Offs=000016  Size=000000  Align=00001  Fill=0000
    DATA              Offs=000025  Size=000000  Align=00001  Fill=0000
    ZEROPAGE          Offs=000000  Size=000000  Align=00001  Fill=0000
    NULL              Offs=000000  Size=000000  Align=00001  Fill=0000
C:\Users\HPz420\Documents\GitHub\Doug Gilliland\Retro-Computers\6502\CC65\lib/osic1p.lib(ldaui.o):
    CODE              Offs=000498  Size=000009  Align=00001  Fill=0000
    RODATA            Offs=000000  Size=000000  Align=00001  Fill=0000
    BSS               Offs=000016  Size=000000  Align=00001  Fill=0000
    DATA              Offs=000025  Size=000000  Align=00001  Fill=0000
    ZEROPAGE          Offs=000000  Size=000000  Align=00001  Fill=0000
    NULL              Offs=000000  Size=000000  Align=00001  Fill=0000
C:\Users\HPz420\Documents\GitHub\Doug Gilliland\Retro-Computers\6502\CC65\lib/osic1p.lib(ldaxi.o):
    CODE              Offs=0004A1  Size=00000D  Align=00001  Fill=0000
    RODATA            Offs=000000  Size=000000  Align=00001  Fill=0000
    BSS               Offs=000016  Size=000000  Align=00001  Fill=0000
    DATA              Offs=000025  Size=000000  Align=00001  Fill=0000
    ZEROPAGE          Offs=000000  Size=000000  Align=00001  Fill=0000
    NULL              Offs=000000  Size=000000  Align=00001  Fill=0000
C:\Users\HPz420\Documents\GitHub\Doug Gilliland\Retro-Computers\6502\CC65\lib/osic1p.lib(ldaxsp.o):
    CODE              Offs=0004AE  Size=000009  Align=00001  Fill=0000
    RODATA            Offs=000000  Size=000000  Align=00001  Fill=0000
    BSS               Offs=000016  Size=000000  Align=00001  Fill=0000
    DATA              Offs=000025  Size=000000  Align=00001  Fill=0000
    ZEROPAGE          Offs=000000  Size=000000  Align=00001  Fill=0000
    NULL              Offs=000000  Size=000000  Align=00001  Fill=0000
C:\Users\HPz420\Documents\GitHub\Doug Gilliland\Retro-Computers\6502\CC65\lib/osic1p.lib(ldeaxysp.o):
    CODE              Offs=0004B7  Size=000013  Align=00001  Fill=0000
    RODATA            Offs=000000  Size=000000  Align=00001  Fill=0000
    BSS               Offs=000016  Size=000000  Align=00001  Fill=0000
    DATA              Offs=000025  Size=000000  Align=00001  Fill=0000
    ZEROPAGE          Offs=000000  Size=000000  Align=00001  Fill=0000
    NULL              Offs=000000  Size=000000  Align=00001  Fill=0000
C:\Users\HPz420\Documents\GitHub\Doug Gilliland\Retro-Computers\6502\CC65\lib/osic1p.lib(lmul.o):
    CODE              Offs=0004CA  Size=00005C  Align=00001  Fill=0000
    RODATA            Offs=000000  Size=000000  Align=00001  Fill=0000
    BSS               Offs=000016  Size=000000  Align=00001  Fill=0000
    DATA              Offs=000025  Size=000000  Align=00001  Fill=0000
    ZEROPAGE          Offs=000000  Size=000000  Align=00001  Fill=0000
    NULL              Offs=000000  Size=000000  Align=00001  Fill=0000
C:\Users\HPz420\Documents\GitHub\Doug Gilliland\Retro-Computers\6502\CC65\lib/osic1p.lib(lpush.o):
    CODE              Offs=000526  Size=000021  Align=00001  Fill=0000
    RODATA            Offs=000000  Size=000000  Align=00001  Fill=0000
    BSS               Offs=000016  Size=000000  Align=00001  Fill=0000
    DATA              Offs=000025  Size=000000  Align=00001  Fill=0000
    ZEROPAGE          Offs=000000  Size=000000  Align=00001  Fill=0000
    NULL              Offs=000000  Size=000000  Align=00001  Fill=0000
C:\Users\HPz420\Documents\GitHub\Doug Gilliland\Retro-Computers\6502\CC65\lib/osic1p.lib(makebool.o):
    CODE              Offs=000547  Size=00002C  Align=00001  Fill=0000
    RODATA            Offs=000000  Size=000000  Align=00001  Fill=0000
    BSS               Offs=000016  Size=000000  Align=00001  Fill=0000
    DATA              Offs=000025  Size=000000  Align=00001  Fill=0000
    ZEROPAGE          Offs=000000  Size=000000  Align=00001  Fill=0000
    NULL              Offs=000000  Size=000000  Align=00001  Fill=0000
C:\Users\HPz420\Documents\GitHub\Doug Gilliland\Retro-Computers\6502\CC65\lib/osic1p.lib(pusha.o):
    CODE              Offs=000573  Size=000016  Align=00001  Fill=0000
    RODATA            Offs=000000  Size=000000  Align=00001  Fill=0000
    BSS               Offs=000016  Size=000000  Align=00001  Fill=0000
    DATA              Offs=000025  Size=000000  Align=00001  Fill=0000
    ZEROPAGE          Offs=000000  Size=000000  Align=00001  Fill=0000
    NULL              Offs=000000  Size=000000  Align=00001  Fill=0000
C:\Users\HPz420\Documents\GitHub\Doug Gilliland\Retro-Computers\6502\CC65\lib/osic1p.lib(pushax.o):
    CODE              Offs=000589  Size=00001A  Align=00001  Fill=0000
    RODATA            Offs=000000  Size=000000  Align=00001  Fill=0000
    BSS               Offs=000016  Size=000000  Align=00001  Fill=0000
    DATA              Offs=000025  Size=000000  Align=00001  Fill=0000
    ZEROPAGE          Offs=000000  Size=000000  Align=00001  Fill=0000
    NULL              Offs=000000  Size=000000  Align=00001  Fill=0000
C:\Users\HPz420\Documents\GitHub\Doug Gilliland\Retro-Computers\6502\CC65\lib/osic1p.lib(staspidx.o):
    CODE              Offs=0005A3  Size=000016  Align=00001  Fill=0000
    RODATA            Offs=000000  Size=000000  Align=00001  Fill=0000
    BSS               Offs=000016  Size=000000  Align=00001  Fill=0000
    DATA              Offs=000025  Size=000000  Align=00001  Fill=0000
    ZEROPAGE          Offs=000000  Size=000000  Align=00001  Fill=0000
    NULL              Offs=000000  Size=000000  Align=00001  Fill=0000
C:\Users\HPz420\Documents\GitHub\Doug Gilliland\Retro-Computers\6502\CC65\lib/osic1p.lib(staxsp.o):
    CODE              Offs=0005B9  Size=00000B  Align=00001  Fill=0000
    RODATA            Offs=000000  Size=000000  Align=00001  Fill=0000
    BSS               Offs=000016  Size=000000  Align=00001  Fill=0000
    DATA              Offs=000025  Size=000000  Align=00001  Fill=0000
    ZEROPAGE          Offs=000000  Size=000000  Align=00001  Fill=0000
    NULL              Offs=000000  Size=000000  Align=00001  Fill=0000
C:\Users\HPz420\Documents\GitHub\Doug Gilliland\Retro-Computers\6502\CC65\lib/osic1p.lib(toslong.o):
    CODE              Offs=0005C4  Size=000038  Align=00001  Fill=0000
    RODATA            Offs=000000  Size=000000  Align=00001  Fill=0000
    BSS               Offs=000016  Size=000000  Align=00001  Fill=0000
    DATA              Offs=000025  Size=000000  Align=00001  Fill=0000
    ZEROPAGE          Offs=000000  Size=000000  Align=00001  Fill=0000
    NULL              Offs=000000  Size=000000  Align=00001  Fill=0000
C:\Users\HPz420\Documents\GitHub\Doug Gilliland\Retro-Computers\6502\CC65\lib/osic1p.lib(zerobss.o):
    CODE              Offs=0005FC  Size=000023  Align=00001  Fill=0000
    RODATA            Offs=000000  Size=000000  Align=00001  Fill=0000
    BSS               Offs=000016  Size=000000  Align=00001  Fill=0000
    DATA              Offs=000025  Size=000000  Align=00001  Fill=0000
    ZEROPAGE          Offs=000000  Size=000000  Align=00001  Fill=0000
    NULL              Offs=000000  Size=000000  Align=00001  Fill=0000
C:\Users\HPz420\Documents\GitHub\Doug Gilliland\Retro-Computers\6502\CC65\lib/osic1p.lib(zeropage.o):
    CODE              Offs=00061F  Size=000000  Align=00001  Fill=0000
    RODATA            Offs=000000  Size=000000  Align=00001  Fill=0000
    BSS               Offs=000016  Size=000000  Align=00001  Fill=0000
    DATA              Offs=000025  Size=000000  Align=00001  Fill=0000
    ZEROPAGE          Offs=000000  Size=00001A  Align=00001  Fill=0000
    NULL              Offs=000000  Size=000000  Align=00001  Fill=0000


Segment list:
-------------
Name                   Start     End    Size  Align
----------------------------------------------------
NULL                  000000  000000  000000  00001
ZEROPAGE              000002  00001B  00001A  00001
STARTUP               000300  00031A  00001B  00001
ONCE                  00031B  000326  00000C  00001
CODE                  000327  000945  00061F  00001
DATA                  000946  00096A  000025  00001
RODATA                000946  000946  000000  00001
BSS                   00096B  000980  000016  00001


Exports list by name:
---------------------
_BPB_FATSz32_32           00096F  LA    _BPB_NumFATs_8            00096E  LA    
_BPB_RsvdSecCnt_16        00096C  LA    _BPB_SecPerClus_8         00096B  LA    
_DIR_FstClusHI_16         000973  LA    _DIR_FstClusLo_16         000975  LA    
__BSS_LOAD__              00096B  LA    __BSS_RUN__               00096B RLA    
__BSS_SIZE__              000016 REA    __CONSTRUCTOR_COUNT__     000000 REA    
__CONSTRUCTOR_TABLE__     000327 RLA    __DESTRUCTOR_COUNT__      000000 REA    
__DESTRUCTOR_TABLE__      000946 RLA    __HIMEM__                 002000  EA    
__MAIN_FILEOFFS__         000000  EA    __MAIN_LAST__             000981  LA    
__MAIN_SIZE__             001B00 REA    __MAIN_START__            000300 RLA    
__STACKSIZE__             000200 REA    __STARTUP__               000001 REA    
__ZP_FILEOFFS__           000000  EA    __ZP_LAST__               00001C  LA    
__ZP_SIZE__               00003A  EA    __ZP_START__              000002  LA    
_exit                     000315  LA    _fileNumber               000977  LA    
_fileSectorNum_32         00097D  LA    _firstDataSectorNum_32    000979  LA    
_init                     000300  LA    _issueSDCardCommand       000327  LA    
_main                     00063D RLA    _readBlock                0003A4  LA    
_readByteFromSDCard       000375  LA    _readFile                 0004F8  LA    
_readSector               0004AC  LA    _setSRAMBank              0004E8  LA    
_waitSDCardRcvDataReady   000355  LA    _waitSDCardReady          000337  LA    
_waitSDCardTxDataEmpty    000365  LA    _writeBlock               00040F  LA    
_writeByteToSDCard        000391  LA    addysp                    0006F3 RLA    
addysp1                   0006F2 RLA    aslax1                    000700  LA    
aslax4                    000708  LA    asleax1                   000719  LA    
axlong                    000725  LA    axulong                   00072B RLA    
booleq                    000874  LA    boolge                    000885  LA    
boolgt                    000883  LA    boolle                    00087B  LA    
boollt                    00087D  LA    boolne                    00086E RLA    
booluge                   000895  LA    boolugt                   000893  LA    
boolule                   00088B  LA    boolult                   00088D RLA    
condes                    000946  LA    decsp1                    00073E RLA    
decsp2                    000747 RLA    decsp4                    000754 RLA    
donelib                   000732 RLA    incax1                    000761 RLA    
incax4                    000768  LA    incaxy                    00076A RLA    
incsp1                    000773 RLA    incsp2                    000782 RLA    
incsp4                    000790 RLA    incsp8                    000795 RLA    
initlib                   00031B RLA    ldauidx                   0007BF RLA    
ldax0sp                   0007D5  LA    ldaxi                     0007C8  LA    
ldaxidx                   0007CA RLA    ldaxysp                   0007D7 RLA    
ldeax0sp                  0007DE  LA    ldeaxysp                  0007E0 RLA    
popax                     00077A  LA    ptr1                      00000A RLZ    
ptr2                      00000C  LZ    ptr3                      00000E RLZ    
ptr4                      000010 RLZ    push0                     0008B0  LA    
push0ax                   000850  LA    pusha                     00089E RLA    
pusha0                    0008B2  LA    pusha0sp                  00089A  LA    
pushax                    0008B4 RLA    pushaysp                  00089C  LA    
pusheax                   000856 RLA    pushl0                    00084D  LA    
regbank                   000016  LZ    regsave                   000006 RLZ    
shlax1                    000700 RLA    shlax4                    000708 RLA    
shleax1                   000719 RLA    sp                        000002 RLZ    
sreg                      000004 RLZ    staspidx                  0008CA RLA    
stax0sp                   0008E0  LA    staxysp                   0008E2 RLA    
tmp1                      000012 RLZ    tmp2                      000013 RLZ    
tmp3                      000014 RLZ    tmp4                      000015 RLZ    
tosadd0ax                 00079A  LA    tosadda0                  0006D6  LA    
tosaddax                  0006D8 RLA    tosaddeax                 0007A0 RLA    
toslong                   000909  LA    tosmul0ax                 0007F1  LA    
tosmuleax                 0007F7  LA    tosulong                  0008EB RLA    
tosumul0ax                0007F1  LA    tosumuleax                0007F7 RLA    
zerobss                   000923 RLA    


Exports list by value:
----------------------
__MAIN_FILEOFFS__         000000  EA    __ZP_FILEOFFS__           000000  EA    
__CONSTRUCTOR_COUNT__     000000 REA    __DESTRUCTOR_COUNT__      000000 REA    
__STARTUP__               000001 REA    sp                        000002 RLZ    
__ZP_START__              000002  LA    sreg                      000004 RLZ    
regsave                   000006 RLZ    ptr1                      00000A RLZ    
ptr2                      00000C  LZ    ptr3                      00000E RLZ    
ptr4                      000010 RLZ    tmp1                      000012 RLZ    
tmp2                      000013 RLZ    tmp3                      000014 RLZ    
tmp4                      000015 RLZ    regbank                   000016  LZ    
__BSS_SIZE__              000016 REA    __ZP_LAST__               00001C  LA    
__ZP_SIZE__               00003A  EA    __STACKSIZE__             000200 REA    
_init                     000300  LA    __MAIN_START__            000300 RLA    
_exit                     000315  LA    initlib                   00031B RLA    
_issueSDCardCommand       000327  LA    __CONSTRUCTOR_TABLE__     000327 RLA    
_waitSDCardReady          000337  LA    _waitSDCardRcvDataReady   000355  LA    
_waitSDCardTxDataEmpty    000365  LA    _readByteFromSDCard       000375  LA    
_writeByteToSDCard        000391  LA    _readBlock                0003A4  LA    
_writeBlock               00040F  LA    _readSector               0004AC  LA    
_setSRAMBank              0004E8  LA    _readFile                 0004F8  LA    
_main                     00063D RLA    tosadda0                  0006D6  LA    
tosaddax                  0006D8 RLA    addysp1                   0006F2 RLA    
addysp                    0006F3 RLA    shlax1                    000700 RLA    
aslax1                    000700  LA    shlax4                    000708 RLA    
aslax4                    000708  LA    shleax1                   000719 RLA    
asleax1                   000719  LA    axlong                    000725  LA    
axulong                   00072B RLA    donelib                   000732 RLA    
decsp1                    00073E RLA    decsp2                    000747 RLA    
decsp4                    000754 RLA    incax1                    000761 RLA    
incax4                    000768  LA    incaxy                    00076A RLA    
incsp1                    000773 RLA    popax                     00077A  LA    
incsp2                    000782 RLA    incsp4                    000790 RLA    
incsp8                    000795 RLA    tosadd0ax                 00079A  LA    
tosaddeax                 0007A0 RLA    ldauidx                   0007BF RLA    
ldaxi                     0007C8  LA    ldaxidx                   0007CA RLA    
ldax0sp                   0007D5  LA    ldaxysp                   0007D7 RLA    
ldeax0sp                  0007DE  LA    ldeaxysp                  0007E0 RLA    
tosmul0ax                 0007F1  LA    tosumul0ax                0007F1  LA    
tosumuleax                0007F7 RLA    tosmuleax                 0007F7  LA    
pushl0                    00084D  LA    push0ax                   000850  LA    
pusheax                   000856 RLA    boolne                    00086E RLA    
booleq                    000874  LA    boolle                    00087B  LA    
boollt                    00087D  LA    boolgt                    000883  LA    
boolge                    000885  LA    boolule                   00088B  LA    
boolult                   00088D RLA    boolugt                   000893  LA    
booluge                   000895  LA    pusha0sp                  00089A  LA    
pushaysp                  00089C  LA    pusha                     00089E RLA    
push0                     0008B0  LA    pusha0                    0008B2  LA    
pushax                    0008B4 RLA    staspidx                  0008CA RLA    
stax0sp                   0008E0  LA    staxysp                   0008E2 RLA    
tosulong                  0008EB RLA    toslong                   000909  LA    
zerobss                   000923 RLA    condes                    000946  LA    
__DESTRUCTOR_TABLE__      000946 RLA    __BSS_RUN__               00096B RLA    
_BPB_SecPerClus_8         00096B  LA    __BSS_LOAD__              00096B  LA    
_BPB_RsvdSecCnt_16        00096C  LA    _BPB_NumFATs_8            00096E  LA    
_BPB_FATSz32_32           00096F  LA    _DIR_FstClusHI_16         000973  LA    
_DIR_FstClusLo_16         000975  LA    _fileNumber               000977  LA    
_firstDataSectorNum_32    000979  LA    _fileSectorNum_32         00097D  LA    
__MAIN_LAST__             000981  LA    __MAIN_SIZE__             001B00 REA    
__HIMEM__                 002000  EA    


Imports list:
-------------
_BPB_FATSz32_32 (DumpDir.o):
_BPB_NumFATs_8 (DumpDir.o):
_BPB_RsvdSecCnt_16 (DumpDir.o):
_BPB_SecPerClus_8 (DumpDir.o):
_DIR_FstClusHI_16 (DumpDir.o):
_DIR_FstClusLo_16 (DumpDir.o):
__BSS_LOAD__ ([linker generated]):
__BSS_RUN__ ([linker generated]):
    zerobss.o                 common/zerobss.s(8)
__BSS_SIZE__ ([linker generated]):
    zerobss.o                 common/zerobss.s(8)
__CONSTRUCTOR_COUNT__ ([linker generated]):
    condes.o                  runtime/condes.s(18)
__CONSTRUCTOR_TABLE__ ([linker generated]):
    condes.o                  runtime/condes.s(18)
__DESTRUCTOR_COUNT__ ([linker generated]):
    condes.o                  runtime/condes.s(19)
__DESTRUCTOR_TABLE__ ([linker generated]):
    condes.o                  runtime/condes.s(19)
__HIMEM__ ([linker generated]):
__MAIN_FILEOFFS__ ([linker generated]):
__MAIN_LAST__ ([linker generated]):
__MAIN_SIZE__ ([linker generated]):
    crt0.o                    osic1p/crt0.s(11)
__MAIN_START__ ([linker generated]):
    crt0.o                    osic1p/crt0.s(11)
__STACKSIZE__ ([linker generated]):
    crt0.o                    osic1p/crt0.s(12)
__STARTUP__ (crt0.o):
    DumpDir.o                 DumpDir.s(13)
__ZP_FILEOFFS__ ([linker generated]):
__ZP_LAST__ ([linker generated]):
__ZP_SIZE__ ([linker generated]):
__ZP_START__ ([linker generated]):
_exit (crt0.o):
_fileNumber (DumpDir.o):
_fileSectorNum_32 (DumpDir.o):
_firstDataSectorNum_32 (DumpDir.o):
_init (crt0.o):
_issueSDCardCommand (DumpDir.o):
_main (DumpDir.o):
    crt0.o                    osic1p/crt0.s(8)
_readBlock (DumpDir.o):
_readByteFromSDCard (DumpDir.o):
_readFile (DumpDir.o):
_readSector (DumpDir.o):
_setSRAMBank (DumpDir.o):
_waitSDCardRcvDataReady (DumpDir.o):
_waitSDCardReady (DumpDir.o):
_waitSDCardTxDataEmpty (DumpDir.o):
_writeBlock (DumpDir.o):
_writeByteToSDCard (DumpDir.o):
addysp (addysp.o):
    incsp8.o                  runtime/incsp8.s(8)
    incsp4.o                  runtime/incsp4.s(8)
addysp1 (addysp.o):
    lmul.o                    runtime/lmul.s(9)
    ladd.o                    runtime/ladd.s(8)
aslax1 (aslax1.o):
aslax4 (aslax4.o):
asleax1 (asleax1.o):
axlong (axlong.o):
axulong (axlong.o):
    DumpDir.o                 DumpDir.s(590)
booleq (makebool.o):
boolge (makebool.o):
boolgt (makebool.o):
boolle (makebool.o):
boollt (makebool.o):
boolne (makebool.o):
    DumpDir.o                 DumpDir.s(590)
    DumpDir.o                 DumpDir.s(590)
    DumpDir.o                 DumpDir.s(590)
booluge (makebool.o):
boolugt (makebool.o):
boolule (makebool.o):
boolult (makebool.o):
    DumpDir.o                 DumpDir.s(590)
    DumpDir.o                 DumpDir.s(590)
condes (condes.o):
decsp1 (decsp1.o):
    DumpDir.o                 DumpDir.s(590)
decsp2 (decsp2.o):
    toslong.o                 runtime/toslong.s(8)
decsp4 (decsp4.o):
    lpush.o                   runtime/lpush.s(12)
    DumpDir.o                 DumpDir.s(590)
    DumpDir.o                 DumpDir.s(590)
donelib (condes.o):
    crt0.o                    osic1p/crt0.s(14)
incax1 (incax1.o):
    DumpDir.o                 DumpDir.s(590)
    DumpDir.o                 DumpDir.s(590)
incax4 (incaxy.o):
incaxy (incaxy.o):
    DumpDir.o                 DumpDir.s(590)
incsp1 (incsp1.o):
    DumpDir.o                 DumpDir.s(590)
    DumpDir.o                 DumpDir.s(590)
    DumpDir.o                 DumpDir.s(590)
    DumpDir.o                 DumpDir.s(590)
incsp2 (incsp2.o):
    staspidx.o                runtime/staspidx.s(8)
    DumpDir.o                 DumpDir.s(590)
incsp4 (incsp4.o):
    DumpDir.o                 DumpDir.s(590)
    DumpDir.o                 DumpDir.s(590)
incsp8 (incsp8.o):
    DumpDir.o                 DumpDir.s(590)
initlib (condes.o):
    crt0.o                    osic1p/crt0.s(14)
ldauidx (ldaui.o):
    DumpDir.o                 DumpDir.s(590)
ldax0sp (ldaxsp.o):
ldaxi (ldaxi.o):
ldaxidx (ldaxi.o):
    DumpDir.o                 DumpDir.s(590)
ldaxysp (ldaxsp.o):
    DumpDir.o                 DumpDir.s(590)
    DumpDir.o                 DumpDir.s(590)
    DumpDir.o                 DumpDir.s(590)
ldeax0sp (ldeaxysp.o):
ldeaxysp (ldeaxysp.o):
    DumpDir.o                 DumpDir.s(590)
    DumpDir.o                 DumpDir.s(590)
popax (incsp2.o):
ptr1 (zeropage.o):
    zerobss.o                 common/zerobss.s(9)
    staspidx.o                runtime/staspidx.s(9)
    lmul.o                    runtime/lmul.s(10)
    ldaxi.o                   runtime/ldaxi.s(8)
    ldaui.o                   runtime/ldaui.s(8)
ptr2 (zeropage.o):
ptr3 (zeropage.o):
    lmul.o                    runtime/lmul.s(10)
ptr4 (zeropage.o):
    lmul.o                    runtime/lmul.s(10)
push0 (pushax.o):
push0ax (lpush.o):
pusha (pusha.o):
    DumpDir.o                 DumpDir.s(590)
    DumpDir.o                 DumpDir.s(590)
    DumpDir.o                 DumpDir.s(590)
pusha0 (pushax.o):
pusha0sp (pusha.o):
pushax (pushax.o):
    DumpDir.o                 DumpDir.s(590)
    DumpDir.o                 DumpDir.s(590)
    DumpDir.o                 DumpDir.s(590)
pushaysp (pusha.o):
pusheax (lpush.o):
    DumpDir.o                 DumpDir.s(590)
    DumpDir.o                 DumpDir.s(590)
    DumpDir.o                 DumpDir.s(590)
pushl0 (lpush.o):
regbank (zeropage.o):
regsave (zeropage.o):
    DumpDir.o                 DumpDir.s(10)
shlax1 (aslax1.o):
    DumpDir.o                 DumpDir.s(590)
shlax4 (aslax4.o):
    DumpDir.o                 DumpDir.s(590)
shleax1 (asleax1.o):
    DumpDir.o                 DumpDir.s(590)
sp (zeropage.o):
    decsp2.o                  runtime/decsp2.s(8)
    addysp.o                  runtime/addysp.s(8)
    toslong.o                 runtime/toslong.s(9)
    staxsp.o                  runtime/staxsp.s(8)
    staspidx.o                runtime/staspidx.s(9)
    pushax.o                  runtime/pushax.s(8)
    pusha.o                   runtime/pusha.s(8)
    lpush.o                   runtime/lpush.s(13)
    lmul.o                    runtime/lmul.s(10)
    ldeaxysp.o                runtime/ldeaxysp.s(12)
    ldaxsp.o                  runtime/ldaxsp.s(8)
    ladd.o                    runtime/ladd.s(9)
    incsp2.o                  runtime/incsp2.s(8)
    incsp1.o                  runtime/incsp1.s(8)
    decsp4.o                  runtime/decsp4.s(8)
    decsp1.o                  runtime/decsp1.s(8)
    crt0.o                    /home/travis/build/cc65/cc65/asminc/zeropage.inc(11)
    add.o                     runtime/add.s(12)
    DumpDir.o                 DumpDir.s(10)
sreg (zeropage.o):
    lpush.o                   runtime/lpush.s(13)
    lmul.o                    runtime/lmul.s(10)
    ldeaxysp.o                runtime/ldeaxysp.s(12)
    ladd.o                    runtime/ladd.s(9)
    axlong.o                  runtime/axlong.s(9)
    asleax1.o                 runtime/asleax1.s(8)
    DumpDir.o                 DumpDir.s(10)
staspidx (staspidx.o):
    DumpDir.o                 DumpDir.s(590)
stax0sp (staxsp.o):
staxysp (staxsp.o):
    DumpDir.o                 DumpDir.s(590)
    DumpDir.o                 DumpDir.s(590)
tmp1 (zeropage.o):
    staspidx.o                runtime/staspidx.s(9)
    ladd.o                    runtime/ladd.s(9)
    incaxy.o                  runtime/incaxy.s(8)
    asleax1.o                 runtime/asleax1.s(8)
    aslax4.o                  runtime/aslax4.s(8)
    aslax1.o                  runtime/aslax1.s(8)
    add.o                     runtime/add.s(12)
tmp2 (zeropage.o):
    lmul.o                    runtime/lmul.s(10)
tmp3 (zeropage.o):
    lmul.o                    runtime/lmul.s(10)
tmp4 (zeropage.o):
    lmul.o                    runtime/lmul.s(10)
tosadd0ax (ladd.o):
tosadda0 (add.o):
tosaddax (add.o):
    DumpDir.o                 DumpDir.s(590)
tosaddeax (ladd.o):
    DumpDir.o                 DumpDir.s(590)
    DumpDir.o                 DumpDir.s(590)
toslong (toslong.o):
tosmul0ax (lmul.o):
tosmuleax (lmul.o):
tosulong (toslong.o):
    DumpDir.o                 DumpDir.s(590)
tosumul0ax (lmul.o):
tosumuleax (lmul.o):
    DumpDir.o                 DumpDir.s(590)
zerobss (zerobss.o):
    crt0.o                    osic1p/crt0.s(14)

