O  0000   01 01 01      	NAM    MIKES-BUG
                        *	REV 009A
                        *
                        *	L  LOAD
                        *	G  GO TO TARGET PROGRAM
                        *	M  MEMORY CHANGE
                        *	P  PRINT/PUNCH DUMP
                        *	R  DISPLAY CONTENTS OF TARGET STACK
                        *		CC   B   A   X   P   S
                        *
                        *	ADDRESS
   8018                 ACIACS	EQU	$8018
   8019                 ACIADA	EQU	$8019
   0100                 VAR		EQU	$0100
                        *
                        *		OPT	MEMORY
   c000                 		ORG	$C000
                        *
                        *		I/O INTERRUPT SEQUENCE
   c000   fe 01 00      IO		LDX	IOV
   c003   6e 00         		JMP	0,X
                        *
                        *	NMI SEQUENCE
   c005   fe 01 00      POWDWN 	LDX	NIO	; GET NMI VECTOR
   c008   6e 00          		JMP	0,X
                        *
                        *	L COMMAND
   c00a                 LOAD    	EQU	*
   c00a   86 0d         		LDAA	#$0D
   c00c   8d 69         		BSR	OUTCH
   c00e   01            		NOP
   c00f   86 0a         		LDAA	#$0A
   c011   8d 64         		BSR	OUTCH
                        *
                        *		CHECK TYPE
   c013   8d 65         LOAD3		BSR	INCH
"  c015   81 00         		CMPA	#'S
D  c017   01 01         		BNE	LOAD3	1ST CHAR NOT (S)
U  c019   01 01         		BSR	INCH	READ CHAR
"  c01b   81 00         		CMPA	#'9
E  c01d   01 01         		BEQ	LOAD21	START ADDRESS
"  c01f   81 00         		CMPA	#'1
D  c021   01 01         		BNE	LOAD3	2ND CHAR NOT (1)
U  c023   7f 00 00      		CLR	CKSM	ZERO CHECKSUM
U  c026   01 01         		BSR	BYTE	READ BYTE
   c028   80 02         		SUBA	#2
E  c02a   b7 00 00      		STAA	BYTECT	BYTE COUNT
                        *
                        *	BUILD ADDRESS
   c02d   8d 18         		BSR	BADDR
                        *
                        *		STORE DATA
   c02f   8d 24         LOAD11	BSR	BYTE
   c031   7a 01 00      		DEC	BYTECT
U  c034   01 01         		BEQ	LOAD15	ZERO BYTE COUNT
U  c036   a7 00         		STAA	0,X	STORE DATA
   c038   08            		INX
   c039   20 f4         		BRA	LOAD11
                        *
                        *	ZERO BYTE COUNT
   c03b   7c 01 00      LOAD15	INC	CKSM
   c03e   27 d3         		BEQ	LOAD3
"  c040   86 00         LOAD19	LDAA	#'?	PRINT QUESTION MARK
   c042   8d 33         		BSR	OUTCH
   c044                 LOAD21	EQU	*
   c044   7e c0 e7      C1		JMP	CONTRL
                        *
                        *	BUILD ADDRESS
U  c047   01 01         BADDR		BSR	BYTE	READ 2 FRAMES
   c049   b7 01 00      		STAA	XHI
   c04c   8d 07         		BSR	BYTE
   c04e   b7 01 00      		STAA	XLOW
E  c051   fe 00 00      		LDX	XHI	(X) ADDRESS WE BUILT
   c054   39            		RTS
                        *
                        *	INPUT BYTE (TWO FRAMES)
U  c055   01 01         BYTE		BSR	INHEX	GET HEX CHAR
   c057   48            		ASLA
   c058   48            		ASLA
   c059   48            		ASLA
   c05a   48            		ASLA
   c05b   16            		TAB
   c05c   8d 50         		BSR	INHEX
   c05e   1b            		ABA
   c05f   16            		TAB
   c060   fb 01 00      		ADDB	CKSM
   c063   f7 01 00      		STAB	CKSM
   c066   39            		RTS
                        *
                        *	OUT HEX BCD DIGIT
U  c067   01 01 01      OUTHL		LSRA	OUT HEX LEFT BCD DIGIT
   c06a   44            		LSRA
   c06b   44            		LSRA
   c06c   44            		LSRA
U  c06d   84 00         OUTHR		ANDA	#$F	OUT HEX RIGHT BCD DIGIT
   c06f   8b 30         		ADDA	#$30
   c071   81 39         		CMPA	#$39
   c073   23 02         		BLS	OUTCH
   c075   8b 07         		ADDA	#$7
                        *
                        *	OUTPUT ONE CHAR
   c077   7e c1 b8      OUTCH		JMP	OUTEEE
   c07a   7e c1 a4      INCH		JMP	INEEE
                        *
                        *	PRINT DATA POINTED AT BY X-REG
   c07d   8d f8         PDATA2	BSR	OUTCH
   c07f   08            		INX
   c080   a6 00         PDATA1	LDAA	0,X
   c082   81 04         		CMPA	#4
   c084   26 f7         		BNE	PDATA2
U  c086   01 01 01      		RTS		STOP ON EOT
                        *
                        *	CHANGE MENORY (M AAAA DD NN)
U  c089   01 01         CHANGE	BSR	BADDR	BUILD ADDRESS
   c08b   ce c1 99      CHA51		LDX	#MCL
U  c08e   01 01         		BSR	PDATA1	C/R L/F
   c090   ce 01 00      		LDX	#XHI
E  c093   01 01         		BSR	OUT4HS	PRINT ADDRESS
   c095   fe 01 00      		LDX	XHI
E  c098   01 01         		BSR	OUT2HS	PRINT DATA (OLD)
U  c09a   ff 00 00      		STX	XHI	SAVE DATA ADDRESS
U  c09d   01 01         		BSR	INCH	INPUT ONE CHAR
   c09f   81 20         		CMPA	#$20
E  c0a1   01 01         		BNE	CHA51	NOT SPACE
U  c0a3   01 01         		BSR	BYTE	INPUT NEW DATA
   c0a5   09            		DEX
U  c0a6   a7 00         		STAA	0,X	CHANGE MEMORY
   c0a8   a1 00         		CMPA	0,X
U  c0aa   01 01         		BEQ	CHA51	DID CHANGE
E  c0ac   01 01         		BRA	LOAD19	NOT CHANGED
                        *
                        *	INPUT HEX CHAR
   c0ae   8d ca         INHEX		BSR	INCH
   c0b0   80 30         		SUBA	#$30
E  c0b2   01 01         		BMI	C1	NOT HEX
   c0b4   81 09         		CMPA	#$09
   c0b6   2f 0a         		BLE	IN1HG
   c0b8   81 11         		CMPA	#$11
E  c0ba   01 01         		BMI	C1	NOT HEX
   c0bc   81 16         		CMPA	#$16
E  c0be   01 01         		BGT	C1	NOT HEX
   c0c0   80 07         		SUBA	#7
   c0c2   39            IN1HG	RTS
                        *
                        *	OUTPUT 2 HEX CHAR
U  c0c3   a6 00         OUT2H		LDAA	0,X	OUTPUT 2 HEX CHAR
U  c0c5   01 01         OUT2HA	BSR	OUTHL	OUT LEFT HEX CHAR
   c0c7   a6 00         		LDAA	0,X
   c0c9   08            		INX
U  c0ca   01 01         		BRA	OUTHR	OUTPUT RIGHT HEX CHAR AND R
                        *
                        *	OUTPUT 2-4 HEX CHAR + SPACE
U  c0cc   01 01         OUT4HS	BSR	OUT2H	OUTPUT 4 HEX CHAR + SPACE
U  c0ce   01 01         OUT2HS	BSR	OUT2H	OUTPUT 2 HEX CHAR + SPACE
                        *
                        *	OUTPUT SPACE
U  c0d0   86 00         OUTS		LDAA	#$20	SPACE
E  c0d2   01 01         		BRA	OUTCH	(BSR & RTS)
                        *
                        ***************************************************************
                        *	ENTER POWER  ON SEQUENCE
   c0d4                 START		EQU	*
   c0d4   8e 01 2e      		LDS	#STACK
U  c0d7   bf 00 00      		STS	SP	INZ TARGET'S STACK PNTR
                        *
                        *	ACIA INITIALIZE
U  c0da   86 00         		LDAA	#$03	RESET CODE
   c0dc   b7 80 18      		STAA	ACIACS
   c0df   01            		NOP
   c0e0   01            		NOP
   c0e1   01            		NOP
D  c0e2   86 00         		LDAA	#$15	8N1 NON-INTERRUPT
   c0e4   b7 80 18            	STAA	ACIACS
                        *
                        *	COMMAND CONTROL
U  c0e7   8e 00 00      CONTRL	LDS	#STACK	SET CONTRL STACK POINTER
   c0ea   ce c1 99      		LDX	#MCL
E  c0ed   01 01         		BSR	PDATA1	PRINT DATA STRING
U  c0ef   01 01         		BSR	INCH	READ CHARACTER
   c0f1   16            		TAB
E  c0f2   01 01         		BSR	OUTS	PRINT SPACE
"  c0f4   c1 00         		CMPB	#'L
   c0f6   26 03         		BNE	*+5
   c0f8   7e c0 0a      		JMP	LOAD
"  c0fb   c1 00         		CMPB	#'M
   c0fd   27 8a         		BEQ	CHANGE
"  c0ff   c1 00         		CMPB	#'R
E  c101   01 01         		BEQ	PRINT	STACK
"  c103   c1 00         		CMPB	#'P
E  c105   01 01         		BEQ	PUNCH	PRINT/PUNCH
"  c107   c1 00         		CMPB	#'G
   c109   26 dc         		BNE	CONTRL
U  c10b   be 00 00      		LDS	SP	RESTORE PGM'S STACK PTR
U  c10e   01 01 01      		RTI	GO
                        *
                        *	ENTER FROM SOFTWARE INTERRUPT
   c111                 SFE		EQU	*
U  c111   bf 00 00      		STS	SP	SAVE TARGET'S STACK POINTER
                        *
                        *	DECREMENT P-COUNTER
   c114   30            		TSX
   c115   6d 06         		TST	6,X
   c117   26 02         		BNE	*+4
   c119   6a 05         		DEC	5,X
   c11b   6a 06         		DEC	6,X
                        *
                        *	PRINT CONTENTS OF STACK
   c11d   fe 01 00      PRINT		LDX	SP
   c120   08            		INX
U  c121   01 01         		BSR	OUT2HS	CONDITION CODES
U  c123   01 01         		BSR	OUT2HS	ACC-B
U  c125   01 01         		BSR	OUT2HS	ACC-A
S  c127   01 01         		BSR	OUT4HS	X-REG
U  c129   01 01         		BSR	OUT4HS	P-COUNTER
   c12b   ce 01 00      		LDX	#SP
E  c12e   01 01         		BSR	OUT4HS	STACK POINTER
   c130   20 b5         C2		BRA	CONTRL
                        *
                        *	PUNCH DUMP
                        *	PUNCH FROM BEGINING ADDRESS (BEGA) THRU ENDI
                        *	ADDRESS (ENDA)
E  c132   0d 0a 53 31   MTAPE1	FCB	$D,$A,'S','1',4	PUNCH FORMAT
E  c136   00            
U  c137   01 01 01 00   		FCB	1,1,1,1	GRUE
   c13b                 PUNCH		EQU	*
   c13b   fe 01 00      		LDX	BEGA
E  c13e   ff 00 00      		STX	TW	TEMP BEGINING ADDRESS
   c141   b6 01 01      PUN11		LDAA	ENDA+1
   c144   b0 01 01      		SUBA	TW+1
   c147   f6 01 00      		LDAB	ENDA
   c14a   f2 01 00      		SBCB	TW
   c14d   26 04         		BNE	PUN22
   c14f   81 10         		CMPA	#16
   c151   25 02         		BCS	PUN23
   c153   86 0f         PUN22		LDAA	#15
   c155   8b 04         PUN23		ADDA	#4
U  c157   b7 00 00      		STAA	MCONT	FRAME COUNT THIS RECORD
   c15a   80 03         		SUBA	#3
E  c15c   b7 00 00      		STAA	TEMP	BYTE COUNT THIS RECORD
                        *
                        *	PUNCH C/R,L/F,NULL,S,1
   c15f   ce c1 32      		LDX	#MTAPE1
   c162   bd c0 80      		JSR	PDATA1
U  c165   01 01 01      		CLRB		ZERO CHECKSUM
                        *
                        *	PUNCH FRAME COUNT
   c168   ce 01 00      		LDX	#MCONT
E  c16b   01 01         		BSR	PUNT2	PUNCH 2 HEX CHAR
                        *
                        *	PUNCH ADDRESS
   c16d   ce 01 00      		LDX	#TW
   c170   8d 22         		BSR	PUNT2
   c172   8d 20         		BSR	PUNT2
                        *
                        *	PUNCH DATA
   c174   fe 01 00      		LDX	TW
E  c177   01 01         PUN32		BSR	PUNT2	PUNCH ONE BYTE (2 FRAMES)
U  c179   7a 00 00      		DEC	TEMP	DEC BYTE COUNT
   c17c   26 f9         		BNE	PUN32
   c17e   ff 01 00      		STX	TW
   c181   53            		COMB
   c182   37            		PSHB
   c183   30            		TSX
E  c184   01 01         		BSR	PUNT2	PUNCH CHECKSUM
U  c186   01 01 01      		PULB		RESTORE STACK
   c189   fe 01 00      		LDX	TW
   c18c   09            		DEX
   c18d   bc 01 00      		CPX	ENDA
   c190   26 af         		BNE	PUN11
U  c192   01 01         		BRA	C2	JMP TO CONTRL
                        *
                        *	PUNCH 2 HEX CHAR UPDATE CHECKSUM
U  c194   eb 00         PUNT2		ADDB	0,X	UPDATE CHECKSUM
U  c196   7e 00 00      		JMP	OUT2H	OUTPUT TWO HEX CHAR AND RTS
                        *
   c199   0d 0a 2a 04   MCL		FCB	$D,$A,'*',4
                        *
                        *	SAVE X REGISTER
   c19d   ff 01 00      SAV		STX	XTEMP
   c1a0   39            		RTS
U  c1a1   01 01 00      		FCB	1,1,1	GRUE
                        *
                        *	INPUT ONE CHAR INTO A-REGISTER
   c1a4   8d f7         INEEE 	BSR	SAV
   c1a6   b6 80 18      IN1		LDAA	ACIACS
   c1a9   47            		ASRA
U  c1aa   01 01         		BCC	IN1	RECEIVE NOT READY
U  c1ac   b6 00 00      		LDAA	ACIADA	INPUT CHARACTER
U  c1af   84 00         		ANDA	#$7F	RESET PARITY BIT
   c1b1   81 7f         		CMPA	#$7F
U  c1b3   01 01         		BEQ	IN1	IF RUBOUT, GET NEXT CHAR
   c1b5   8d 01         		BSR	OUTEEE
   c1b7   39            		RTS
                        *
                        *	OUTPUT ONE CHAR 
   c1b8   36            OUTEEE	PSH	A
   c1b9   b6 80 18      OUTEEE1	LDA A	ACIACS
   c1bc   47            		ASR A
   c1bd   47            		ASR A
   c1be   24 f9         		BCC	OUTEEE1
   c1c0   32            		PUL A
   c1c1   b7 80 19      		STA A	ACIADA
   c1c4   39            		RTS
                        *
                        *	VECTOR
   fff8                 		ORG	$FFF8
   fff8   c0 00         		FDB	IO
   fffa   c1 11         		FDB	SFE
   fffc   c0 05         		FDB	POWDWN
   fffe   c0 d4         		FDB	START
                        
   0100                         	ORG    VAR
E  0100                 IOV     	RMB    2         IO INTERRUPT POINTER
U  0100                 BEGA    	RMB    2         BEGINING ADDR PRINT/PUNCH
U  0100                 ENDA    	RMB    2         ENDING ADDR PRINT/PUNCH
U  0100                 NIO     	RMB    2         NMI INTERRUPT POINTER
U  0100                 SP      	RMB    1         S-HIGH
U  0100                         	RMB    1         S-LOW
U  0100                 CKSM    	RMB    1         CHECKSUM
E  0100                 BYTECT  	RMB    1         BYTE COUNT
U  0100                 XHI     	RMB    1         XREG HIGH
U  0100                 XLOW    	RMB    1         XREG LOW
U  0100                 TEMP    	RMB    1         CHAR COUNT (INADD)
E  0100                 TW      	RMB    2         TEMP
E  0100                 MCONT   	RMB    1         TEMP
S  0100                 XTEMP   	RMB    2         X-REG TEMP STORAGE
   0100                         	RMB    46
E  012e                 STACK   	RMB    1         STACK POINTER
                        
   012e                         	END    
8018  ACIACS        8019  ACIADA        c047  BADDR         0100  BEGA      
c055  BYTE          0100  BYTECT        c044  C1            c130  C2        
c08b  CHA51         c089  CHANGE        0100  CKSM          c0e7  CONTRL    
0100  ENDA          c1a6  IN1           c0c2  IN1HG         c07a  INCH      
c1a4  INEEE         c0ae  INHEX         c000  IO            0100  IOV       
c00a  LOAD          c02f  LOAD11        c03b  LOAD15        c040  LOAD19    
c044  LOAD21        c013  LOAD3         c199  MCL           0100  MCONT     
c132  MTAPE1        0100  NIO           c0c3  OUT2H         c0c5  OUT2HA    
c0ce  OUT2HS        c0cc  OUT4HS        c077  OUTCH         c1b8  OUTEEE    
c1b9  OUTEEE1       c067  OUTHL         c06d  OUTHR         c0d0  OUTS      
c080  PDATA1        c07d  PDATA2        c005  POWDWN        c11d  PRINT     
c141  PUN11         c153  PUN22         c155  PUN23         c177  PUN32     
c13b  PUNCH         c194  PUNT2         c19d  SAV           c111  SFE       
0100  SP            012e  STACK         c0d4  START         0100  TEMP      
0100  TW            0100  VAR           0100  XHI           0100  XLOW      
0100  XTEMP         
