Modules list:
-------------
OSISDOS.o:
    CODE              Offs=000000  Size=000231  Align=00001  Fill=0000
    RODATA            Offs=000000  Size=000000  Align=00001  Fill=0000
    BSS               Offs=000000  Size=000000  Align=00001  Fill=0000
    DATA              Offs=000000  Size=000000  Align=00001  Fill=0000
    ZEROPAGE          Offs=000000  Size=000000  Align=00001  Fill=0000
    NULL              Offs=000000  Size=000000  Align=00001  Fill=0000
C:\Users\HPz420\Documents\GitHub\Doug Gilliland\Retro-Computers\6502\CC65\lib/osic1p.lib(addysp.o):
    CODE              Offs=000231  Size=00000E  Align=00001  Fill=0000
    RODATA            Offs=000000  Size=000000  Align=00001  Fill=0000
    BSS               Offs=000000  Size=000000  Align=00001  Fill=0000
    DATA              Offs=000000  Size=000000  Align=00001  Fill=0000
    ZEROPAGE          Offs=000000  Size=000000  Align=00001  Fill=0000
    NULL              Offs=000000  Size=000000  Align=00001  Fill=0000
C:\Users\HPz420\Documents\GitHub\Doug Gilliland\Retro-Computers\6502\CC65\lib/osic1p.lib(asleax1.o):
    CODE              Offs=00023F  Size=00000C  Align=00001  Fill=0000
    RODATA            Offs=000000  Size=000000  Align=00001  Fill=0000
    BSS               Offs=000000  Size=000000  Align=00001  Fill=0000
    DATA              Offs=000000  Size=000000  Align=00001  Fill=0000
    ZEROPAGE          Offs=000000  Size=000000  Align=00001  Fill=0000
    NULL              Offs=000000  Size=000000  Align=00001  Fill=0000
C:\Users\HPz420\Documents\GitHub\Doug Gilliland\Retro-Computers\6502\CC65\lib/osic1p.lib(condes.o):
    CODE              Offs=00024B  Size=00000C  Align=00001  Fill=0000
    RODATA            Offs=000000  Size=000000  Align=00001  Fill=0000
    BSS               Offs=000000  Size=000000  Align=00001  Fill=0000
    DATA              Offs=000000  Size=000025  Align=00001  Fill=0000
    ZEROPAGE          Offs=000000  Size=000000  Align=00001  Fill=0000
    NULL              Offs=000000  Size=000000  Align=00001  Fill=0000
    ONCE              Offs=000000  Size=00000C  Align=00001  Fill=0000
C:\Users\HPz420\Documents\GitHub\Doug Gilliland\Retro-Computers\6502\CC65\lib/osic1p.lib(crt0.o):
    CODE              Offs=000257  Size=000000  Align=00001  Fill=0000
    RODATA            Offs=000000  Size=000000  Align=00001  Fill=0000
    BSS               Offs=000000  Size=000000  Align=00001  Fill=0000
    DATA              Offs=000025  Size=000000  Align=00001  Fill=0000
    ZEROPAGE          Offs=000000  Size=000000  Align=00001  Fill=0000
    NULL              Offs=000000  Size=000000  Align=00001  Fill=0000
    STARTUP           Offs=000000  Size=00001B  Align=00001  Fill=0000
C:\Users\HPz420\Documents\GitHub\Doug Gilliland\Retro-Computers\6502\CC65\lib/osic1p.lib(decsp1.o):
    CODE              Offs=000257  Size=000009  Align=00001  Fill=0000
    RODATA            Offs=000000  Size=000000  Align=00001  Fill=0000
    BSS               Offs=000000  Size=000000  Align=00001  Fill=0000
    DATA              Offs=000025  Size=000000  Align=00001  Fill=0000
    ZEROPAGE          Offs=000000  Size=000000  Align=00001  Fill=0000
    NULL              Offs=000000  Size=000000  Align=00001  Fill=0000
C:\Users\HPz420\Documents\GitHub\Doug Gilliland\Retro-Computers\6502\CC65\lib/osic1p.lib(decsp2.o):
    CODE              Offs=000260  Size=00000D  Align=00001  Fill=0000
    RODATA            Offs=000000  Size=000000  Align=00001  Fill=0000
    BSS               Offs=000000  Size=000000  Align=00001  Fill=0000
    DATA              Offs=000025  Size=000000  Align=00001  Fill=0000
    ZEROPAGE          Offs=000000  Size=000000  Align=00001  Fill=0000
    NULL              Offs=000000  Size=000000  Align=00001  Fill=0000
C:\Users\HPz420\Documents\GitHub\Doug Gilliland\Retro-Computers\6502\CC65\lib/osic1p.lib(decsp4.o):
    CODE              Offs=00026D  Size=00000D  Align=00001  Fill=0000
    RODATA            Offs=000000  Size=000000  Align=00001  Fill=0000
    BSS               Offs=000000  Size=000000  Align=00001  Fill=0000
    DATA              Offs=000025  Size=000000  Align=00001  Fill=0000
    ZEROPAGE          Offs=000000  Size=000000  Align=00001  Fill=0000
    NULL              Offs=000000  Size=000000  Align=00001  Fill=0000
C:\Users\HPz420\Documents\GitHub\Doug Gilliland\Retro-Computers\6502\CC65\lib/osic1p.lib(incax1.o):
    CODE              Offs=00027A  Size=000007  Align=00001  Fill=0000
    RODATA            Offs=000000  Size=000000  Align=00001  Fill=0000
    BSS               Offs=000000  Size=000000  Align=00001  Fill=0000
    DATA              Offs=000025  Size=000000  Align=00001  Fill=0000
    ZEROPAGE          Offs=000000  Size=000000  Align=00001  Fill=0000
    NULL              Offs=000000  Size=000000  Align=00001  Fill=0000
C:\Users\HPz420\Documents\GitHub\Doug Gilliland\Retro-Computers\6502\CC65\lib/osic1p.lib(incsp1.o):
    CODE              Offs=000281  Size=000007  Align=00001  Fill=0000
    RODATA            Offs=000000  Size=000000  Align=00001  Fill=0000
    BSS               Offs=000000  Size=000000  Align=00001  Fill=0000
    DATA              Offs=000025  Size=000000  Align=00001  Fill=0000
    ZEROPAGE          Offs=000000  Size=000000  Align=00001  Fill=0000
    NULL              Offs=000000  Size=000000  Align=00001  Fill=0000
C:\Users\HPz420\Documents\GitHub\Doug Gilliland\Retro-Computers\6502\CC65\lib/osic1p.lib(incsp2.o):
    CODE              Offs=000288  Size=000016  Align=00001  Fill=0000
    RODATA            Offs=000000  Size=000000  Align=00001  Fill=0000
    BSS               Offs=000000  Size=000000  Align=00001  Fill=0000
    DATA              Offs=000025  Size=000000  Align=00001  Fill=0000
    ZEROPAGE          Offs=000000  Size=000000  Align=00001  Fill=0000
    NULL              Offs=000000  Size=000000  Align=00001  Fill=0000
C:\Users\HPz420\Documents\GitHub\Doug Gilliland\Retro-Computers\6502\CC65\lib/osic1p.lib(incsp4.o):
    CODE              Offs=00029E  Size=000005  Align=00001  Fill=0000
    RODATA            Offs=000000  Size=000000  Align=00001  Fill=0000
    BSS               Offs=000000  Size=000000  Align=00001  Fill=0000
    DATA              Offs=000025  Size=000000  Align=00001  Fill=0000
    ZEROPAGE          Offs=000000  Size=000000  Align=00001  Fill=0000
    NULL              Offs=000000  Size=000000  Align=00001  Fill=0000
C:\Users\HPz420\Documents\GitHub\Doug Gilliland\Retro-Computers\6502\CC65\lib/osic1p.lib(ladd.o):
    CODE              Offs=0002A3  Size=000025  Align=00001  Fill=0000
    RODATA            Offs=000000  Size=000000  Align=00001  Fill=0000
    BSS               Offs=000000  Size=000000  Align=00001  Fill=0000
    DATA              Offs=000025  Size=000000  Align=00001  Fill=0000
    ZEROPAGE          Offs=000000  Size=000000  Align=00001  Fill=0000
    NULL              Offs=000000  Size=000000  Align=00001  Fill=0000
C:\Users\HPz420\Documents\GitHub\Doug Gilliland\Retro-Computers\6502\CC65\lib/osic1p.lib(ldaui.o):
    CODE              Offs=0002C8  Size=000009  Align=00001  Fill=0000
    RODATA            Offs=000000  Size=000000  Align=00001  Fill=0000
    BSS               Offs=000000  Size=000000  Align=00001  Fill=0000
    DATA              Offs=000025  Size=000000  Align=00001  Fill=0000
    ZEROPAGE          Offs=000000  Size=000000  Align=00001  Fill=0000
    NULL              Offs=000000  Size=000000  Align=00001  Fill=0000
C:\Users\HPz420\Documents\GitHub\Doug Gilliland\Retro-Computers\6502\CC65\lib/osic1p.lib(ldaxsp.o):
    CODE              Offs=0002D1  Size=000009  Align=00001  Fill=0000
    RODATA            Offs=000000  Size=000000  Align=00001  Fill=0000
    BSS               Offs=000000  Size=000000  Align=00001  Fill=0000
    DATA              Offs=000025  Size=000000  Align=00001  Fill=0000
    ZEROPAGE          Offs=000000  Size=000000  Align=00001  Fill=0000
    NULL              Offs=000000  Size=000000  Align=00001  Fill=0000
C:\Users\HPz420\Documents\GitHub\Doug Gilliland\Retro-Computers\6502\CC65\lib/osic1p.lib(ldeaxysp.o):
    CODE              Offs=0002DA  Size=000013  Align=00001  Fill=0000
    RODATA            Offs=000000  Size=000000  Align=00001  Fill=0000
    BSS               Offs=000000  Size=000000  Align=00001  Fill=0000
    DATA              Offs=000025  Size=000000  Align=00001  Fill=0000
    ZEROPAGE          Offs=000000  Size=000000  Align=00001  Fill=0000
    NULL              Offs=000000  Size=000000  Align=00001  Fill=0000
C:\Users\HPz420\Documents\GitHub\Doug Gilliland\Retro-Computers\6502\CC65\lib/osic1p.lib(lpush.o):
    CODE              Offs=0002ED  Size=000021  Align=00001  Fill=0000
    RODATA            Offs=000000  Size=000000  Align=00001  Fill=0000
    BSS               Offs=000000  Size=000000  Align=00001  Fill=0000
    DATA              Offs=000025  Size=000000  Align=00001  Fill=0000
    ZEROPAGE          Offs=000000  Size=000000  Align=00001  Fill=0000
    NULL              Offs=000000  Size=000000  Align=00001  Fill=0000
C:\Users\HPz420\Documents\GitHub\Doug Gilliland\Retro-Computers\6502\CC65\lib/osic1p.lib(makebool.o):
    CODE              Offs=00030E  Size=00002C  Align=00001  Fill=0000
    RODATA            Offs=000000  Size=000000  Align=00001  Fill=0000
    BSS               Offs=000000  Size=000000  Align=00001  Fill=0000
    DATA              Offs=000025  Size=000000  Align=00001  Fill=0000
    ZEROPAGE          Offs=000000  Size=000000  Align=00001  Fill=0000
    NULL              Offs=000000  Size=000000  Align=00001  Fill=0000
C:\Users\HPz420\Documents\GitHub\Doug Gilliland\Retro-Computers\6502\CC65\lib/osic1p.lib(pusha.o):
    CODE              Offs=00033A  Size=000016  Align=00001  Fill=0000
    RODATA            Offs=000000  Size=000000  Align=00001  Fill=0000
    BSS               Offs=000000  Size=000000  Align=00001  Fill=0000
    DATA              Offs=000025  Size=000000  Align=00001  Fill=0000
    ZEROPAGE          Offs=000000  Size=000000  Align=00001  Fill=0000
    NULL              Offs=000000  Size=000000  Align=00001  Fill=0000
C:\Users\HPz420\Documents\GitHub\Doug Gilliland\Retro-Computers\6502\CC65\lib/osic1p.lib(pushax.o):
    CODE              Offs=000350  Size=00001A  Align=00001  Fill=0000
    RODATA            Offs=000000  Size=000000  Align=00001  Fill=0000
    BSS               Offs=000000  Size=000000  Align=00001  Fill=0000
    DATA              Offs=000025  Size=000000  Align=00001  Fill=0000
    ZEROPAGE          Offs=000000  Size=000000  Align=00001  Fill=0000
    NULL              Offs=000000  Size=000000  Align=00001  Fill=0000
C:\Users\HPz420\Documents\GitHub\Doug Gilliland\Retro-Computers\6502\CC65\lib/osic1p.lib(staspidx.o):
    CODE              Offs=00036A  Size=000016  Align=00001  Fill=0000
    RODATA            Offs=000000  Size=000000  Align=00001  Fill=0000
    BSS               Offs=000000  Size=000000  Align=00001  Fill=0000
    DATA              Offs=000025  Size=000000  Align=00001  Fill=0000
    ZEROPAGE          Offs=000000  Size=000000  Align=00001  Fill=0000
    NULL              Offs=000000  Size=000000  Align=00001  Fill=0000
C:\Users\HPz420\Documents\GitHub\Doug Gilliland\Retro-Computers\6502\CC65\lib/osic1p.lib(staxsp.o):
    CODE              Offs=000380  Size=00000B  Align=00001  Fill=0000
    RODATA            Offs=000000  Size=000000  Align=00001  Fill=0000
    BSS               Offs=000000  Size=000000  Align=00001  Fill=0000
    DATA              Offs=000025  Size=000000  Align=00001  Fill=0000
    ZEROPAGE          Offs=000000  Size=000000  Align=00001  Fill=0000
    NULL              Offs=000000  Size=000000  Align=00001  Fill=0000
C:\Users\HPz420\Documents\GitHub\Doug Gilliland\Retro-Computers\6502\CC65\lib/osic1p.lib(steaxsp.o):
    CODE              Offs=00038B  Size=000015  Align=00001  Fill=0000
    RODATA            Offs=000000  Size=000000  Align=00001  Fill=0000
    BSS               Offs=000000  Size=000000  Align=00001  Fill=0000
    DATA              Offs=000025  Size=000000  Align=00001  Fill=0000
    ZEROPAGE          Offs=000000  Size=000000  Align=00001  Fill=0000
    NULL              Offs=000000  Size=000000  Align=00001  Fill=0000
C:\Users\HPz420\Documents\GitHub\Doug Gilliland\Retro-Computers\6502\CC65\lib/osic1p.lib(subysp.o):
    CODE              Offs=0003A0  Size=00000D  Align=00001  Fill=0000
    RODATA            Offs=000000  Size=000000  Align=00001  Fill=0000
    BSS               Offs=000000  Size=000000  Align=00001  Fill=0000
    DATA              Offs=000025  Size=000000  Align=00001  Fill=0000
    ZEROPAGE          Offs=000000  Size=000000  Align=00001  Fill=0000
    NULL              Offs=000000  Size=000000  Align=00001  Fill=0000
C:\Users\HPz420\Documents\GitHub\Doug Gilliland\Retro-Computers\6502\CC65\lib/osic1p.lib(toslong.o):
    CODE              Offs=0003AD  Size=000038  Align=00001  Fill=0000
    RODATA            Offs=000000  Size=000000  Align=00001  Fill=0000
    BSS               Offs=000000  Size=000000  Align=00001  Fill=0000
    DATA              Offs=000025  Size=000000  Align=00001  Fill=0000
    ZEROPAGE          Offs=000000  Size=000000  Align=00001  Fill=0000
    NULL              Offs=000000  Size=000000  Align=00001  Fill=0000
C:\Users\HPz420\Documents\GitHub\Doug Gilliland\Retro-Computers\6502\CC65\lib/osic1p.lib(zerobss.o):
    CODE              Offs=0003E5  Size=000023  Align=00001  Fill=0000
    RODATA            Offs=000000  Size=000000  Align=00001  Fill=0000
    BSS               Offs=000000  Size=000000  Align=00001  Fill=0000
    DATA              Offs=000025  Size=000000  Align=00001  Fill=0000
    ZEROPAGE          Offs=000000  Size=000000  Align=00001  Fill=0000
    NULL              Offs=000000  Size=000000  Align=00001  Fill=0000
C:\Users\HPz420\Documents\GitHub\Doug Gilliland\Retro-Computers\6502\CC65\lib/osic1p.lib(zeropage.o):
    CODE              Offs=000408  Size=000000  Align=00001  Fill=0000
    RODATA            Offs=000000  Size=000000  Align=00001  Fill=0000
    BSS               Offs=000000  Size=000000  Align=00001  Fill=0000
    DATA              Offs=000025  Size=000000  Align=00001  Fill=0000
    ZEROPAGE          Offs=000000  Size=00001A  Align=00001  Fill=0000
    NULL              Offs=000000  Size=000000  Align=00001  Fill=0000


Segment list:
-------------
Name                   Start     End    Size  Align
----------------------------------------------------
NULL                  000000  000000  000000  00001
ZEROPAGE              000002  00001B  00001A  00001
STARTUP               000300  00031A  00001B  00001
ONCE                  00031B  000326  00000C  00001
CODE                  000327  00072E  000408  00001
DATA                  00072F  000753  000025  00001
RODATA                00072F  00072F  000000  00001
BSS                   000754  000754  000000  00001


Exports list by name:
---------------------
__BSS_LOAD__              000754  LA    __BSS_RUN__               000754 RLA    
__BSS_SIZE__              000000 REA    __CONSTRUCTOR_COUNT__     000000 REA    
__CONSTRUCTOR_TABLE__     000327 RLA    __DESTRUCTOR_COUNT__      000000 REA    
__DESTRUCTOR_TABLE__      00072F RLA    __HIMEM__                 002000  EA    
__MAIN_FILEOFFS__         000000  EA    __MAIN_LAST__             000754  LA    
__MAIN_SIZE__             001B00 REA    __MAIN_START__            000300 RLA    
__STACKSIZE__             000200 REA    __STARTUP__               000001 REA    
__ZP_FILEOFFS__           000000  EA    __ZP_LAST__               00001C  LA    
__ZP_SIZE__               00003A  EA    __ZP_START__              000002  LA    
_exit                     000315  LA    _init                     000300  LA    
_issueSDCardCommand       000327  LA    _main                     0004F1 RLA    
_readBlock                0003D4  LA    _readByteFromSDCard       0003A5  LA    
_readSector               0004A7  LA    _setLBA0                  000337  LA    
_setLBA1                  000347  LA    _setLBA2                  000357  LA    
_setSRAMBank              0004E1  LA    _waitSDCardRcvDataReady   000385  LA    
_waitSDCardReady          000367  LA    _waitSDCardTxDataEmpty    000395  LA    
_writeBlock               00043F  LA    _writeByteToSDCard        0003C1  LA    
addysp                    000559 RLA    addysp1                   000558 RLA    
asleax1                   000566  LA    booleq                    00063B  LA    
boolge                    00064C  LA    boolgt                    00064A  LA    
boolle                    000642  LA    boollt                    000644  LA    
boolne                    000635 RLA    booluge                   00065C  LA    
boolugt                   00065A  LA    boolule                   000652  LA    
boolult                   000654 RLA    condes                    00072F  LA    
decsp1                    00057E RLA    decsp2                    000587 RLA    
decsp4                    000594 RLA    donelib                   000572 RLA    
incax1                    0005A1 RLA    incsp1                    0005A8 RLA    
incsp2                    0005B7 RLA    incsp4                    0005C5 RLA    
initlib                   00031B RLA    ldauidx                   0005EF RLA    
ldax0sp                   0005F8  LA    ldaxysp                   0005FA RLA    
ldeax0sp                  000601  LA    ldeaxysp                  000603 RLA    
popax                     0005AF  LA    ptr1                      00000A RLZ    
ptr2                      00000C  LZ    ptr3                      00000E  LZ    
ptr4                      000010  LZ    push0                     000677  LA    
push0ax                   000617  LA    pusha                     000665 RLA    
pusha0                    000679  LA    pusha0sp                  000661  LA    
pushax                    00067B RLA    pushaysp                  000663  LA    
pusheax                   00061D RLA    pushl0                    000614  LA    
regbank                   000016  LZ    regsave                   000006 RLZ    
shleax1                   000566 RLA    sp                        000002 RLZ    
sreg                      000004 RLZ    staspidx                  000691 RLA    
stax0sp                   0006A7  LA    staxysp                   0006A9 RLA    
steax0sp                  0006B2  LA    steaxysp                  0006B4 RLA    
subysp                    0006C7 RLA    tmp1                      000012 RLZ    
tmp2                      000013  LZ    tmp3                      000014  LZ    
tmp4                      000015  LZ    tosadd0ax                 0005CA  LA    
tosaddeax                 0005D0 RLA    toslong                   0006F2  LA    
tosulong                  0006D4 RLA    zerobss                   00070C RLA    



Exports list by value:
----------------------
__ZP_FILEOFFS__           000000  EA    __BSS_SIZE__              000000 REA    
__CONSTRUCTOR_COUNT__     000000 REA    __DESTRUCTOR_COUNT__      000000 REA    
__MAIN_FILEOFFS__         000000  EA    __STARTUP__               000001 REA    
__ZP_START__              000002  LA    sp                        000002 RLZ    
sreg                      000004 RLZ    regsave                   000006 RLZ    
ptr1                      00000A RLZ    ptr2                      00000C  LZ    
ptr3                      00000E  LZ    ptr4                      000010  LZ    
tmp1                      000012 RLZ    tmp2                      000013  LZ    
tmp3                      000014  LZ    tmp4                      000015  LZ    
regbank                   000016  LZ    __ZP_LAST__               00001C  LA    
__ZP_SIZE__               00003A  EA    __STACKSIZE__             000200 REA    
_init                     000300  LA    __MAIN_START__            000300 RLA    
_exit                     000315  LA    initlib                   00031B RLA    
_issueSDCardCommand       000327  LA    __CONSTRUCTOR_TABLE__     000327 RLA    
_setLBA0                  000337  LA    _setLBA1                  000347  LA    
_setLBA2                  000357  LA    _waitSDCardReady          000367  LA    
_waitSDCardRcvDataReady   000385  LA    _waitSDCardTxDataEmpty    000395  LA    
_readByteFromSDCard       0003A5  LA    _writeByteToSDCard        0003C1  LA    
_readBlock                0003D4  LA    _writeBlock               00043F  LA    
_readSector               0004A7  LA    _setSRAMBank              0004E1  LA    
_main                     0004F1 RLA    addysp1                   000558 RLA    
addysp                    000559 RLA    shleax1                   000566 RLA    
asleax1                   000566  LA    donelib                   000572 RLA    
decsp1                    00057E RLA    decsp2                    000587 RLA    
decsp4                    000594 RLA    incax1                    0005A1 RLA    
incsp1                    0005A8 RLA    popax                     0005AF  LA    
incsp2                    0005B7 RLA    incsp4                    0005C5 RLA    
tosadd0ax                 0005CA  LA    tosaddeax                 0005D0 RLA    
ldauidx                   0005EF RLA    ldax0sp                   0005F8  LA    
ldaxysp                   0005FA RLA    ldeax0sp                  000601  LA    
ldeaxysp                  000603 RLA    pushl0                    000614  LA    
push0ax                   000617  LA    pusheax                   00061D RLA    
boolne                    000635 RLA    booleq                    00063B  LA    
boolle                    000642  LA    boollt                    000644  LA    
boolgt                    00064A  LA    boolge                    00064C  LA    
boolule                   000652  LA    boolult                   000654 RLA    
boolugt                   00065A  LA    booluge                   00065C  LA    
pusha0sp                  000661  LA    pushaysp                  000663  LA    
pusha                     000665 RLA    push0                     000677  LA    
pusha0                    000679  LA    pushax                    00067B RLA    
staspidx                  000691 RLA    stax0sp                   0006A7  LA    
staxysp                   0006A9 RLA    steax0sp                  0006B2  LA    
steaxysp                  0006B4 RLA    subysp                    0006C7 RLA    
tosulong                  0006D4 RLA    toslong                   0006F2  LA    
zerobss                   00070C RLA    __DESTRUCTOR_TABLE__      00072F RLA    
condes                    00072F  LA    __BSS_LOAD__              000754  LA    
__MAIN_LAST__             000754  LA    __BSS_RUN__               000754 RLA    
__MAIN_SIZE__             001B00 REA    __HIMEM__                 002000  EA    



Imports list:
-------------
__BSS_LOAD__ ([linker generated]):
__BSS_RUN__ ([linker generated]):
    zerobss.o                 common/zerobss.s(8)
__BSS_SIZE__ ([linker generated]):
    zerobss.o                 common/zerobss.s(8)
__CONSTRUCTOR_COUNT__ ([linker generated]):
    condes.o                  runtime/condes.s(18)
__CONSTRUCTOR_TABLE__ ([linker generated]):
    condes.o                  runtime/condes.s(18)
__DESTRUCTOR_COUNT__ ([linker generated]):
    condes.o                  runtime/condes.s(19)
__DESTRUCTOR_TABLE__ ([linker generated]):
    condes.o                  runtime/condes.s(19)
__HIMEM__ ([linker generated]):
__MAIN_FILEOFFS__ ([linker generated]):
__MAIN_LAST__ ([linker generated]):
__MAIN_SIZE__ ([linker generated]):
    crt0.o                    osic1p/crt0.s(11)
__MAIN_START__ ([linker generated]):
    crt0.o                    osic1p/crt0.s(11)
__STACKSIZE__ ([linker generated]):
    crt0.o                    osic1p/crt0.s(12)
__STARTUP__ (crt0.o):
    OSISDOS.o                 OSISDOS.s(13)
__ZP_FILEOFFS__ ([linker generated]):
__ZP_LAST__ ([linker generated]):
__ZP_SIZE__ ([linker generated]):
__ZP_START__ ([linker generated]):
_exit (crt0.o):
_init (crt0.o):
_issueSDCardCommand (OSISDOS.o):
_main (OSISDOS.o):
    crt0.o                    osic1p/crt0.s(8)
_readBlock (OSISDOS.o):
_readByteFromSDCard (OSISDOS.o):
_readSector (OSISDOS.o):
_setLBA0 (OSISDOS.o):
_setLBA1 (OSISDOS.o):
_setLBA2 (OSISDOS.o):
_setSRAMBank (OSISDOS.o):
_waitSDCardRcvDataReady (OSISDOS.o):
_waitSDCardReady (OSISDOS.o):
_waitSDCardTxDataEmpty (OSISDOS.o):
_writeBlock (OSISDOS.o):
_writeByteToSDCard (OSISDOS.o):
addysp (addysp.o):
    incsp4.o                  runtime/incsp4.s(8)
    OSISDOS.o                 OSISDOS.s(444)
addysp1 (addysp.o):
    ladd.o                    runtime/ladd.s(8)
asleax1 (asleax1.o):
booleq (makebool.o):
boolge (makebool.o):
boolgt (makebool.o):
boolle (makebool.o):
boollt (makebool.o):
boolne (makebool.o):
    OSISDOS.o                 OSISDOS.s(444)
    OSISDOS.o                 OSISDOS.s(444)
    OSISDOS.o                 OSISDOS.s(444)
booluge (makebool.o):
boolugt (makebool.o):
boolule (makebool.o):
boolult (makebool.o):
    OSISDOS.o                 OSISDOS.s(444)
    OSISDOS.o                 OSISDOS.s(444)
condes (condes.o):
decsp1 (decsp1.o):
    OSISDOS.o                 OSISDOS.s(444)
decsp2 (decsp2.o):
    toslong.o                 runtime/toslong.s(8)
decsp4 (decsp4.o):
    lpush.o                   runtime/lpush.s(12)
    OSISDOS.o                 OSISDOS.s(444)
    OSISDOS.o                 OSISDOS.s(444)
donelib (condes.o):
    crt0.o                    osic1p/crt0.s(14)
incax1 (incax1.o):
    OSISDOS.o                 OSISDOS.s(444)
    OSISDOS.o                 OSISDOS.s(444)
incsp1 (incsp1.o):
    OSISDOS.o                 OSISDOS.s(444)
    OSISDOS.o                 OSISDOS.s(444)
    OSISDOS.o                 OSISDOS.s(444)
    OSISDOS.o                 OSISDOS.s(444)
    OSISDOS.o                 OSISDOS.s(444)
    OSISDOS.o                 OSISDOS.s(444)
    OSISDOS.o                 OSISDOS.s(444)
incsp2 (incsp2.o):
    staspidx.o                runtime/staspidx.s(8)
incsp4 (incsp4.o):
    OSISDOS.o                 OSISDOS.s(444)
    OSISDOS.o                 OSISDOS.s(444)
    OSISDOS.o                 OSISDOS.s(444)
initlib (condes.o):
    crt0.o                    osic1p/crt0.s(14)
ldauidx (ldaui.o):
    OSISDOS.o                 OSISDOS.s(444)
ldax0sp (ldaxsp.o):
ldaxysp (ldaxsp.o):
    OSISDOS.o                 OSISDOS.s(444)
    OSISDOS.o                 OSISDOS.s(444)
    OSISDOS.o                 OSISDOS.s(444)
ldeax0sp (ldeaxysp.o):
ldeaxysp (ldeaxysp.o):
    OSISDOS.o                 OSISDOS.s(444)
    OSISDOS.o                 OSISDOS.s(444)
popax (incsp2.o):
ptr1 (zeropage.o):
    zerobss.o                 common/zerobss.s(9)
    staspidx.o                runtime/staspidx.s(9)
    ldaui.o                   runtime/ldaui.s(8)
ptr2 (zeropage.o):
ptr3 (zeropage.o):
ptr4 (zeropage.o):
push0 (pushax.o):
push0ax (lpush.o):
pusha (pusha.o):
    OSISDOS.o                 OSISDOS.s(444)
    OSISDOS.o                 OSISDOS.s(444)
    OSISDOS.o                 OSISDOS.s(444)
    OSISDOS.o                 OSISDOS.s(444)
    OSISDOS.o                 OSISDOS.s(444)
    OSISDOS.o                 OSISDOS.s(444)
pusha0 (pushax.o):
pusha0sp (pusha.o):
pushax (pushax.o):
    OSISDOS.o                 OSISDOS.s(444)
    OSISDOS.o                 OSISDOS.s(444)
pushaysp (pusha.o):
pusheax (lpush.o):
    OSISDOS.o                 OSISDOS.s(444)
pushl0 (lpush.o):
regbank (zeropage.o):
regsave (zeropage.o):
    OSISDOS.o                 OSISDOS.s(10)
shleax1 (asleax1.o):
    OSISDOS.o                 OSISDOS.s(444)
sp (zeropage.o):
    incsp2.o                  runtime/incsp2.s(8)
    decsp2.o                  runtime/decsp2.s(8)
    toslong.o                 runtime/toslong.s(9)
    subysp.o                  runtime/subysp.s(9)
    steaxsp.o                 runtime/steaxsp.s(8)
    staxsp.o                  runtime/staxsp.s(8)
    staspidx.o                runtime/staspidx.s(9)
    pushax.o                  runtime/pushax.s(8)
    pusha.o                   runtime/pusha.s(8)
    lpush.o                   runtime/lpush.s(13)
    ldeaxysp.o                runtime/ldeaxysp.s(12)
    ldaxsp.o                  runtime/ldaxsp.s(8)
    ladd.o                    runtime/ladd.s(9)
    incsp1.o                  runtime/incsp1.s(8)
    decsp4.o                  runtime/decsp4.s(8)
    decsp1.o                  runtime/decsp1.s(8)
    crt0.o                    /home/travis/build/cc65/cc65/asminc/zeropage.inc(11)
    addysp.o                  runtime/addysp.s(8)
    OSISDOS.o                 OSISDOS.s(10)
sreg (zeropage.o):
    steaxsp.o                 runtime/steaxsp.s(8)
    lpush.o                   runtime/lpush.s(13)
    ldeaxysp.o                runtime/ldeaxysp.s(12)
    ladd.o                    runtime/ladd.s(9)
    asleax1.o                 runtime/asleax1.s(8)
    OSISDOS.o                 OSISDOS.s(10)
staspidx (staspidx.o):
    OSISDOS.o                 OSISDOS.s(444)
stax0sp (staxsp.o):
staxysp (staxsp.o):
    OSISDOS.o                 OSISDOS.s(444)
    OSISDOS.o                 OSISDOS.s(444)
    OSISDOS.o                 OSISDOS.s(444)
steax0sp (steaxsp.o):
steaxysp (steaxsp.o):
    OSISDOS.o                 OSISDOS.s(444)
subysp (subysp.o):
    OSISDOS.o                 OSISDOS.s(444)
tmp1 (zeropage.o):
    staspidx.o                runtime/staspidx.s(9)
    ladd.o                    runtime/ladd.s(9)
    asleax1.o                 runtime/asleax1.s(8)
tmp2 (zeropage.o):
tmp3 (zeropage.o):
tmp4 (zeropage.o):
tosadd0ax (ladd.o):
tosaddeax (ladd.o):
    OSISDOS.o                 OSISDOS.s(444)
toslong (toslong.o):
tosulong (toslong.o):
    OSISDOS.o                 OSISDOS.s(444)
zerobss (zerobss.o):
    crt0.o                    osic1p/crt0.s(14)

