ARM GAS  C:\Users\HPz420\AppData\Local\Temp\cchBUs5H.s 			page 1


   1              		.syntax unified
   2              		.cpu cortex-m3
   3              		.fpu softvfp
   4              		.eabi_attribute 20, 1
   5              		.eabi_attribute 21, 1
   6              		.eabi_attribute 23, 3
   7              		.eabi_attribute 24, 1
   8              		.eabi_attribute 25, 1
   9              		.eabi_attribute 26, 1
  10              		.eabi_attribute 30, 6
  11              		.eabi_attribute 34, 1
  12              		.eabi_attribute 18, 4
  13              		.thumb
  14              		.syntax unified
  15              		.file	"DIGIO8Driver.c"
  16              		.text
  17              	.Ltext0:
  18              		.cfi_sections	.debug_frame
  19              		.comm	myWrBuffer,2,4
  20              		.section	.text.readRegisterDIGIO8Card,"ax",%progbits
  21              		.align	2
  22              		.global	readRegisterDIGIO8Card
  23              		.thumb
  24              		.thumb_func
  25              		.type	readRegisterDIGIO8Card, %function
  26              	readRegisterDIGIO8Card:
  27              	.LFB63:
  28              		.file 1 "DIGIO8Driver.c"
   1:DIGIO8Driver.c **** /* ========================================
   2:DIGIO8Driver.c ****  * DIGIO8Driver.c
   3:DIGIO8Driver.c ****  * Copyright Land Boards LLC, 2017
   4:DIGIO8Driver.c ****  * All Rights Reserved
   5:DIGIO8Driver.c ****  * UNPUBLISHED, LICENSED SOFTWARE.
   6:DIGIO8Driver.c ****  *
   7:DIGIO8Driver.c ****  * CONFIDENTIAL AND PROPRIETARY INFORMATION
   8:DIGIO8Driver.c ****  * WHICH IS THE PROPERTY OF Land Boards, LLC.
   9:DIGIO8Driver.c ****  *
  10:DIGIO8Driver.c ****  * ========================================
  11:DIGIO8Driver.c **** */
  12:DIGIO8Driver.c **** 
  13:DIGIO8Driver.c **** #include <project.h>
  14:DIGIO8Driver.c **** 
  15:DIGIO8Driver.c **** uint8 myWrBuffer[2];
  16:DIGIO8Driver.c ****  
  17:DIGIO8Driver.c **** #define MCP23008_IODIR_REGADR    0x00
  18:DIGIO8Driver.c **** #define MCP23008_IPOL_REGADR     0x01
  19:DIGIO8Driver.c **** #define MCP23008_GPINTEN_REGADR  0x02
  20:DIGIO8Driver.c **** #define MCP23008_DEFVAL_REGADR   0x03
  21:DIGIO8Driver.c **** #define MCP23008_INTCON_REGADR   0x04
  22:DIGIO8Driver.c **** #define MCP23008_IOCON_REGADR    0x05
  23:DIGIO8Driver.c **** #define MCP23008_GPPU_REGADR     0x06
  24:DIGIO8Driver.c **** #define MCP23008_INTF_REGADR     0x07
  25:DIGIO8Driver.c **** #define MCP23008_INTCAP_REGADR   0x08
  26:DIGIO8Driver.c **** #define MCP23008_GPIO_REGADR     0x09
  27:DIGIO8Driver.c **** #define MCP23008_OLAT_REGADR     0x0a
  28:DIGIO8Driver.c **** 
  29:DIGIO8Driver.c **** #define MCP23008_IODIR_DEFVAL    0xf0       // Upper 4 bits=JumperIns, lower=LEDS
ARM GAS  C:\Users\HPz420\AppData\Local\Temp\cchBUs5H.s 			page 2


  30:DIGIO8Driver.c **** #define MCP23008_IPOL_DEFVAL     0xf0       // Input polarity = invert jumpers
  31:DIGIO8Driver.c **** #define MCP23008_GPINTEN_DEFVAL  0x00       // Disable GPIO for interrupt on change
  32:DIGIO8Driver.c **** #define MCP23008_INTCON_DEFVAL   0x00       // Int for change from previous pin
  33:DIGIO8Driver.c **** #define MCP23008_IOCON_DEFVAL    0x00       // Disable sequential,  active-low
  34:DIGIO8Driver.c **** #define MCP23008_GPPU_DEFVAL     0xf0
  35:DIGIO8Driver.c **** 
  36:DIGIO8Driver.c **** //////////////////////////////////////////////////////////////////////////////
  37:DIGIO8Driver.c **** // uint8 readRegisterDIGIO8Card(ctrlAdr) - 
  38:DIGIO8Driver.c **** //////////////////////////////////////////////////////////////////////////////
  39:DIGIO8Driver.c **** 
  40:DIGIO8Driver.c **** uint8 readRegisterDIGIO8Card(uint8 ctrlAdr)
  41:DIGIO8Driver.c **** {
  29              		.loc 1 41 0
  30              		.cfi_startproc
  31              		@ args = 0, pretend = 0, frame = 16
  32              		@ frame_needed = 1, uses_anonymous_args = 0
  33 0000 80B5     		push	{r7, lr}
  34              		.cfi_def_cfa_offset 8
  35              		.cfi_offset 7, -8
  36              		.cfi_offset 14, -4
  37 0002 84B0     		sub	sp, sp, #16
  38              		.cfi_def_cfa_offset 24
  39 0004 00AF     		add	r7, sp, #0
  40              		.cfi_def_cfa_register 7
  41 0006 0346     		mov	r3, r0
  42 0008 FB71     		strb	r3, [r7, #7]
  42:DIGIO8Driver.c ****     uint8 rdBuff;
  43:DIGIO8Driver.c ****     I2C_MasterClearStatus();
  43              		.loc 1 43 0
  44 000a FFF7FEFF 		bl	I2C_MasterClearStatus
  44:DIGIO8Driver.c ****     I2C_MasterSendStart(0x20,I2C_WRITE_XFER_MODE);
  45              		.loc 1 44 0
  46 000e 0021     		movs	r1, #0
  47 0010 2020     		movs	r0, #32
  48 0012 FFF7FEFF 		bl	I2C_MasterSendStart
  45:DIGIO8Driver.c ****     I2C_MasterWriteByte(ctrlAdr);
  49              		.loc 1 45 0
  50 0016 FB79     		ldrb	r3, [r7, #7]	@ zero_extendqisi2
  51 0018 1846     		mov	r0, r3
  52 001a FFF7FEFF 		bl	I2C_MasterWriteByte
  46:DIGIO8Driver.c ****     I2C_MasterSendStop();
  53              		.loc 1 46 0
  54 001e FFF7FEFF 		bl	I2C_MasterSendStop
  47:DIGIO8Driver.c **** //    while ((I2C_MasterStatus() & I2C_MSTAT_WR_CMPLT) == 0);
  48:DIGIO8Driver.c ****     I2C_MasterSendStart(0x20,I2C_READ_XFER_MODE);
  55              		.loc 1 48 0
  56 0022 0121     		movs	r1, #1
  57 0024 2020     		movs	r0, #32
  58 0026 FFF7FEFF 		bl	I2C_MasterSendStart
  49:DIGIO8Driver.c ****     rdBuff = I2C_MasterReadByte(I2C_NAK_DATA);
  59              		.loc 1 49 0
  60 002a 0020     		movs	r0, #0
  61 002c FFF7FEFF 		bl	I2C_MasterReadByte
  62 0030 0346     		mov	r3, r0
  63 0032 FB73     		strb	r3, [r7, #15]
  50:DIGIO8Driver.c ****     I2C_MasterSendStop();
  64              		.loc 1 50 0
ARM GAS  C:\Users\HPz420\AppData\Local\Temp\cchBUs5H.s 			page 3


  65 0034 FFF7FEFF 		bl	I2C_MasterSendStop
  51:DIGIO8Driver.c **** //    while ((I2C_MasterStatus() & I2C_MSTAT_RD_CMPLT) == 0);
  52:DIGIO8Driver.c ****     I2C_MasterClearStatus();
  66              		.loc 1 52 0
  67 0038 FFF7FEFF 		bl	I2C_MasterClearStatus
  53:DIGIO8Driver.c ****     return rdBuff;
  68              		.loc 1 53 0
  69 003c FB7B     		ldrb	r3, [r7, #15]	@ zero_extendqisi2
  54:DIGIO8Driver.c **** }
  70              		.loc 1 54 0
  71 003e 1846     		mov	r0, r3
  72 0040 1037     		adds	r7, r7, #16
  73              		.cfi_def_cfa_offset 8
  74 0042 BD46     		mov	sp, r7
  75              		.cfi_def_cfa_register 13
  76              		@ sp needed
  77 0044 80BD     		pop	{r7, pc}
  78              		.cfi_endproc
  79              	.LFE63:
  80              		.size	readRegisterDIGIO8Card, .-readRegisterDIGIO8Card
  81 0046 00BF     		.section	.text.writeRegisterDIGIO8Card,"ax",%progbits
  82              		.align	2
  83              		.global	writeRegisterDIGIO8Card
  84              		.thumb
  85              		.thumb_func
  86              		.type	writeRegisterDIGIO8Card, %function
  87              	writeRegisterDIGIO8Card:
  88              	.LFB64:
  55:DIGIO8Driver.c **** 
  56:DIGIO8Driver.c **** //////////////////////////////////////////////////////////////////////////////
  57:DIGIO8Driver.c **** // writeRegisterDIGIO8Card(ctrlAdr, ctrlVal) - 
  58:DIGIO8Driver.c **** //////////////////////////////////////////////////////////////////////////////
  59:DIGIO8Driver.c **** 
  60:DIGIO8Driver.c **** void writeRegisterDIGIO8Card(uint8 ctrlAdr, uint8 ctrlVal)
  61:DIGIO8Driver.c **** {
  89              		.loc 1 61 0
  90              		.cfi_startproc
  91              		@ args = 0, pretend = 0, frame = 8
  92              		@ frame_needed = 1, uses_anonymous_args = 0
  93 0000 80B5     		push	{r7, lr}
  94              		.cfi_def_cfa_offset 8
  95              		.cfi_offset 7, -8
  96              		.cfi_offset 14, -4
  97 0002 82B0     		sub	sp, sp, #8
  98              		.cfi_def_cfa_offset 16
  99 0004 00AF     		add	r7, sp, #0
 100              		.cfi_def_cfa_register 7
 101 0006 0346     		mov	r3, r0
 102 0008 0A46     		mov	r2, r1
 103 000a FB71     		strb	r3, [r7, #7]
 104 000c 1346     		mov	r3, r2
 105 000e BB71     		strb	r3, [r7, #6]
  62:DIGIO8Driver.c ****     I2C_MasterClearStatus();
 106              		.loc 1 62 0
 107 0010 FFF7FEFF 		bl	I2C_MasterClearStatus
  63:DIGIO8Driver.c ****     myWrBuffer[0] = ctrlAdr;
 108              		.loc 1 63 0
ARM GAS  C:\Users\HPz420\AppData\Local\Temp\cchBUs5H.s 			page 4


 109 0014 0C4A     		ldr	r2, .L5
 110 0016 FB79     		ldrb	r3, [r7, #7]
 111 0018 1370     		strb	r3, [r2]
  64:DIGIO8Driver.c ****     myWrBuffer[1] = ctrlVal;
 112              		.loc 1 64 0
 113 001a 0B4A     		ldr	r2, .L5
 114 001c BB79     		ldrb	r3, [r7, #6]
 115 001e 5370     		strb	r3, [r2, #1]
  65:DIGIO8Driver.c ****     I2C_MasterWriteBuf(0x20, myWrBuffer, 2, I2C_MODE_COMPLETE_XFER);
 116              		.loc 1 65 0
 117 0020 0023     		movs	r3, #0
 118 0022 0222     		movs	r2, #2
 119 0024 0849     		ldr	r1, .L5
 120 0026 2020     		movs	r0, #32
 121 0028 FFF7FEFF 		bl	I2C_MasterWriteBuf
  66:DIGIO8Driver.c ****     while (0u == (I2C_MasterStatus() & I2C_MSTAT_WR_CMPLT));
 122              		.loc 1 66 0
 123 002c 00BF     		nop
 124              	.L4:
 125              		.loc 1 66 0 is_stmt 0 discriminator 1
 126 002e FFF7FEFF 		bl	I2C_MasterStatus
 127 0032 0346     		mov	r3, r0
 128 0034 03F00203 		and	r3, r3, #2
 129 0038 002B     		cmp	r3, #0
 130 003a F8D0     		beq	.L4
  67:DIGIO8Driver.c ****     I2C_MasterClearStatus();
 131              		.loc 1 67 0 is_stmt 1
 132 003c FFF7FEFF 		bl	I2C_MasterClearStatus
  68:DIGIO8Driver.c **** }
 133              		.loc 1 68 0
 134 0040 00BF     		nop
 135 0042 0837     		adds	r7, r7, #8
 136              		.cfi_def_cfa_offset 8
 137 0044 BD46     		mov	sp, r7
 138              		.cfi_def_cfa_register 13
 139              		@ sp needed
 140 0046 80BD     		pop	{r7, pc}
 141              	.L6:
 142              		.align	2
 143              	.L5:
 144 0048 00000000 		.word	myWrBuffer
 145              		.cfi_endproc
 146              	.LFE64:
 147              		.size	writeRegisterDIGIO8Card, .-writeRegisterDIGIO8Card
 148              		.section	.text.writeDIGIO8Card,"ax",%progbits
 149              		.align	2
 150              		.global	writeDIGIO8Card
 151              		.thumb
 152              		.thumb_func
 153              		.type	writeDIGIO8Card, %function
 154              	writeDIGIO8Card:
 155              	.LFB65:
  69:DIGIO8Driver.c **** 
  70:DIGIO8Driver.c **** //////////////////////////////////////////////////////////////////////////////
  71:DIGIO8Driver.c **** // writeDIGIO8Card(uint8_t outData) - 
  72:DIGIO8Driver.c **** //////////////////////////////////////////////////////////////////////////////
  73:DIGIO8Driver.c **** 
ARM GAS  C:\Users\HPz420\AppData\Local\Temp\cchBUs5H.s 			page 5


  74:DIGIO8Driver.c **** void writeDIGIO8Card(uint8 outData)
  75:DIGIO8Driver.c **** {
 156              		.loc 1 75 0
 157              		.cfi_startproc
 158              		@ args = 0, pretend = 0, frame = 8
 159              		@ frame_needed = 1, uses_anonymous_args = 0
 160 0000 80B5     		push	{r7, lr}
 161              		.cfi_def_cfa_offset 8
 162              		.cfi_offset 7, -8
 163              		.cfi_offset 14, -4
 164 0002 82B0     		sub	sp, sp, #8
 165              		.cfi_def_cfa_offset 16
 166 0004 00AF     		add	r7, sp, #0
 167              		.cfi_def_cfa_register 7
 168 0006 0346     		mov	r3, r0
 169 0008 FB71     		strb	r3, [r7, #7]
  76:DIGIO8Driver.c ****      writeRegisterDIGIO8Card(MCP23008_OLAT_REGADR,outData);
 170              		.loc 1 76 0
 171 000a FB79     		ldrb	r3, [r7, #7]	@ zero_extendqisi2
 172 000c 1946     		mov	r1, r3
 173 000e 0A20     		movs	r0, #10
 174 0010 FFF7FEFF 		bl	writeRegisterDIGIO8Card
  77:DIGIO8Driver.c **** }
 175              		.loc 1 77 0
 176 0014 00BF     		nop
 177 0016 0837     		adds	r7, r7, #8
 178              		.cfi_def_cfa_offset 8
 179 0018 BD46     		mov	sp, r7
 180              		.cfi_def_cfa_register 13
 181              		@ sp needed
 182 001a 80BD     		pop	{r7, pc}
 183              		.cfi_endproc
 184              	.LFE65:
 185              		.size	writeDIGIO8Card, .-writeDIGIO8Card
 186              		.section	.text.readDIGIO8Card,"ax",%progbits
 187              		.align	2
 188              		.global	readDIGIO8Card
 189              		.thumb
 190              		.thumb_func
 191              		.type	readDIGIO8Card, %function
 192              	readDIGIO8Card:
 193              	.LFB66:
  78:DIGIO8Driver.c **** 
  79:DIGIO8Driver.c **** //////////////////////////////////////////////////////////////////////////////
  80:DIGIO8Driver.c **** // readDIGIO8Card(void)
  81:DIGIO8Driver.c **** //////////////////////////////////////////////////////////////////////////////
  82:DIGIO8Driver.c **** 
  83:DIGIO8Driver.c **** uint8 readDIGIO8Card(void)
  84:DIGIO8Driver.c **** {
 194              		.loc 1 84 0
 195              		.cfi_startproc
 196              		@ args = 0, pretend = 0, frame = 8
 197              		@ frame_needed = 1, uses_anonymous_args = 0
 198 0000 80B5     		push	{r7, lr}
 199              		.cfi_def_cfa_offset 8
 200              		.cfi_offset 7, -8
 201              		.cfi_offset 14, -4
ARM GAS  C:\Users\HPz420\AppData\Local\Temp\cchBUs5H.s 			page 6


 202 0002 82B0     		sub	sp, sp, #8
 203              		.cfi_def_cfa_offset 16
 204 0004 00AF     		add	r7, sp, #0
 205              		.cfi_def_cfa_register 7
  85:DIGIO8Driver.c ****     uint8 rdBuff;
  86:DIGIO8Driver.c ****     rdBuff = readRegisterDIGIO8Card(MCP23008_GPIO_REGADR);
 206              		.loc 1 86 0
 207 0006 0920     		movs	r0, #9
 208 0008 FFF7FEFF 		bl	readRegisterDIGIO8Card
 209 000c 0346     		mov	r3, r0
 210 000e FB71     		strb	r3, [r7, #7]
  87:DIGIO8Driver.c ****     return rdBuff>>4;
 211              		.loc 1 87 0
 212 0010 FB79     		ldrb	r3, [r7, #7]	@ zero_extendqisi2
 213 0012 1B09     		lsrs	r3, r3, #4
 214 0014 DBB2     		uxtb	r3, r3
  88:DIGIO8Driver.c **** }
 215              		.loc 1 88 0
 216 0016 1846     		mov	r0, r3
 217 0018 0837     		adds	r7, r7, #8
 218              		.cfi_def_cfa_offset 8
 219 001a BD46     		mov	sp, r7
 220              		.cfi_def_cfa_register 13
 221              		@ sp needed
 222 001c 80BD     		pop	{r7, pc}
 223              		.cfi_endproc
 224              	.LFE66:
 225              		.size	readDIGIO8Card, .-readDIGIO8Card
 226 001e 00BF     		.section	.text.initDIGIO8Card,"ax",%progbits
 227              		.align	2
 228              		.global	initDIGIO8Card
 229              		.thumb
 230              		.thumb_func
 231              		.type	initDIGIO8Card, %function
 232              	initDIGIO8Card:
 233              	.LFB67:
  89:DIGIO8Driver.c **** 
  90:DIGIO8Driver.c **** //////////////////////////////////////////////////////////////////////////////
  91:DIGIO8Driver.c **** // initDIGIO8Card(void) - 
  92:DIGIO8Driver.c **** //////////////////////////////////////////////////////////////////////////////
  93:DIGIO8Driver.c **** 
  94:DIGIO8Driver.c **** void initDIGIO8Card(void)
  95:DIGIO8Driver.c **** {
 234              		.loc 1 95 0
 235              		.cfi_startproc
 236              		@ args = 0, pretend = 0, frame = 0
 237              		@ frame_needed = 1, uses_anonymous_args = 0
 238 0000 80B5     		push	{r7, lr}
 239              		.cfi_def_cfa_offset 8
 240              		.cfi_offset 7, -8
 241              		.cfi_offset 14, -4
 242 0002 00AF     		add	r7, sp, #0
 243              		.cfi_def_cfa_register 7
  96:DIGIO8Driver.c ****     I2C_Start();    // Kick off the I2C interface
 244              		.loc 1 96 0
 245 0004 FFF7FEFF 		bl	I2C_Start
  97:DIGIO8Driver.c ****     writeRegisterDIGIO8Card(MCP23008_IOCON_REGADR,MCP23008_IOCON_DEFVAL);
ARM GAS  C:\Users\HPz420\AppData\Local\Temp\cchBUs5H.s 			page 7


 246              		.loc 1 97 0
 247 0008 0021     		movs	r1, #0
 248 000a 0520     		movs	r0, #5
 249 000c FFF7FEFF 		bl	writeRegisterDIGIO8Card
  98:DIGIO8Driver.c ****     writeRegisterDIGIO8Card(MCP23008_IODIR_REGADR,MCP23008_IODIR_DEFVAL);
 250              		.loc 1 98 0
 251 0010 F021     		movs	r1, #240
 252 0012 0020     		movs	r0, #0
 253 0014 FFF7FEFF 		bl	writeRegisterDIGIO8Card
  99:DIGIO8Driver.c ****     writeRegisterDIGIO8Card(MCP23008_GPINTEN_REGADR,MCP23008_GPINTEN_DEFVAL);
 254              		.loc 1 99 0
 255 0018 0021     		movs	r1, #0
 256 001a 0220     		movs	r0, #2
 257 001c FFF7FEFF 		bl	writeRegisterDIGIO8Card
 100:DIGIO8Driver.c ****     writeRegisterDIGIO8Card(MCP23008_INTCON_REGADR,MCP23008_INTCON_DEFVAL);
 258              		.loc 1 100 0
 259 0020 0021     		movs	r1, #0
 260 0022 0420     		movs	r0, #4
 261 0024 FFF7FEFF 		bl	writeRegisterDIGIO8Card
 101:DIGIO8Driver.c ****     writeRegisterDIGIO8Card(MCP23008_GPPU_REGADR,MCP23008_GPPU_DEFVAL);
 262              		.loc 1 101 0
 263 0028 F021     		movs	r1, #240
 264 002a 0620     		movs	r0, #6
 265 002c FFF7FEFF 		bl	writeRegisterDIGIO8Card
 102:DIGIO8Driver.c ****     readRegisterDIGIO8Card(MCP23008_INTCAP_REGADR); // Clear interrupt LED
 266              		.loc 1 102 0
 267 0030 0820     		movs	r0, #8
 268 0032 FFF7FEFF 		bl	readRegisterDIGIO8Card
 103:DIGIO8Driver.c **** }
 269              		.loc 1 103 0
 270 0036 00BF     		nop
 271 0038 80BD     		pop	{r7, pc}
 272              		.cfi_endproc
 273              	.LFE67:
 274              		.size	initDIGIO8Card, .-initDIGIO8Card
 275 003a 00BF     		.text
 276              	.Letext0:
 277              		.file 2 "c:\\program files (x86)\\cypress\\psoc creator\\4.2\\psoc creator\\import\\gnu\\arm\\5.4.
 278              		.file 3 "c:\\program files (x86)\\cypress\\psoc creator\\4.2\\psoc creator\\import\\gnu\\arm\\5.4.
 279              		.file 4 "Generated_Source\\PSoC5/cytypes.h"
 280              		.file 5 "Generated_Source\\PSoC5/core_cm3.h"