ARM GAS  C:\Users\HPz420\AppData\Local\Temp\ccOvvUOW.s 			page 1


   1              		.syntax unified
   2              		.cpu cortex-m3
   3              		.fpu softvfp
   4              		.eabi_attribute 20, 1
   5              		.eabi_attribute 21, 1
   6              		.eabi_attribute 23, 3
   7              		.eabi_attribute 24, 1
   8              		.eabi_attribute 25, 1
   9              		.eabi_attribute 26, 1
  10              		.eabi_attribute 30, 6
  11              		.eabi_attribute 34, 1
  12              		.eabi_attribute 18, 4
  13              		.thumb
  14              		.syntax unified
  15              		.file	"main.c"
  16              		.text
  17              	.Ltext0:
  18              		.cfi_sections	.debug_frame
  19              		.syntax unified
  20              		.global _printf_float
  21              		.thumb
  22              		.syntax unified
  23              		.section	.text.main,"ax",%progbits
  24              		.align	2
  25              		.global	main
  26              		.thumb
  27              		.thumb_func
  28              		.type	main, %function
  29              	main:
  30              	.LFB64:
  31              		.file 1 "main.c"
   1:main.c        **** /*******************************************************************************
   2:main.c        **** * File Name: main.c
   3:main.c        **** *
   4:main.c        **** * Version: 2.0
   5:main.c        **** *
   6:main.c        **** * Description:
   7:main.c        **** *   The component is enumerated as a Virtual Com port. Receives data from the 
   8:main.c        **** *   hyper terminal, then sends back the received data.
   9:main.c        **** *   For PSoC3/PSoC5LP, the LCD shows the line settings.
  10:main.c        **** *
  11:main.c        **** * Related Document:
  12:main.c        **** *  Universal Serial Bus Specification Revision 2.0
  13:main.c        **** *  Universal Serial Bus Class Definitions for Communications Devices
  14:main.c        **** *  Revision 1.2
  15:main.c        **** *
  16:main.c        **** ********************************************************************************
  17:main.c        **** * Copyright 2015, Cypress Semiconductor Corporation. All rights reserved.
  18:main.c        **** * This software is owned by Cypress Semiconductor Corporation and is protected
  19:main.c        **** * by and subject to worldwide patent and copyright laws and treaties.
  20:main.c        **** * Therefore, you may use this software only as provided in the license agreement
  21:main.c        **** * accompanying the software package from which you obtained this software.
  22:main.c        **** * CYPRESS AND ITS SUPPLIERS MAKE NO WARRANTY OF ANY KIND, EXPRESS OR IMPLIED,
  23:main.c        **** * WITH REGARD TO THIS SOFTWARE, INCLUDING, BUT NOT LIMITED TO, NONINFRINGEMENT,
  24:main.c        **** * IMPLIED WARRANTIES OF MERCHANTABILITY AND FITNESS FOR A PARTICULAR PURPOSE.
  25:main.c        **** *******************************************************************************/
  26:main.c        **** 
ARM GAS  C:\Users\HPz420\AppData\Local\Temp\ccOvvUOW.s 			page 2


  27:main.c        **** #include <project.h>
  28:main.c        **** #include "stdio.h"
  29:main.c        **** 
  30:main.c        **** #if defined (__GNUC__)
  31:main.c        ****     /* Add an explicit reference to the floating point printf library */
  32:main.c        ****     /* to allow usage of the floating point conversion specifiers. */
  33:main.c        ****     /* This is not linked in by default with the newlib-nano library. */
  34:main.c        ****     asm (".global _printf_float");
  35:main.c        **** #endif
  36:main.c        **** 
  37:main.c        **** #define USBFS_DEVICE    (0u)
  38:main.c        **** 
  39:main.c        **** /* The buffer size is equal to the maximum packet size of the IN and OUT bulk
  40:main.c        **** * endpoints.
  41:main.c        **** */
  42:main.c        **** #define USBUART_BUFFER_SIZE (64u)
  43:main.c        **** #define LINE_STR_LENGTH     (20u)
  44:main.c        **** 
  45:main.c        **** //char8* parity[] = {"None", "Odd", "Even", "Mark", "Space"};
  46:main.c        **** //char8* stop[]   = {"1", "1.5", "2"};
  47:main.c        **** 
  48:main.c        **** 
  49:main.c        **** /*******************************************************************************
  50:main.c        **** * Function Name: main
  51:main.c        **** ********************************************************************************
  52:main.c        **** *
  53:main.c        **** * Summary:
  54:main.c        **** *  The main function performs the following actions:
  55:main.c        **** *   1. Waits until VBUS becomes valid and starts the USBFS component which is
  56:main.c        **** *      enumerated as virtual Com port.
  57:main.c        **** *   2. Waits until the device is enumerated by the host.
  58:main.c        **** *   3. Waits for data coming from the hyper terminal and sends it back.
  59:main.c        **** *   4. PSoC3/PSoC5LP: the LCD shows the line settings.
  60:main.c        **** *
  61:main.c        **** * Parameters:
  62:main.c        **** *  None.
  63:main.c        **** *
  64:main.c        **** * Return:
  65:main.c        **** *  None.
  66:main.c        **** *
  67:main.c        **** *******************************************************************************/
  68:main.c        **** 
  69:main.c        **** //#include "I2CIO8.h"
  70:main.c        **** 
  71:main.c        **** // Prototypes
  72:main.c        **** 
  73:main.c        **** void initDIGIO8Card(void);
  74:main.c        **** void writeDIGIO8Card(uint8 outData);
  75:main.c        **** uint8 readDIGIO8Card(void);
  76:main.c        **** void keysAndLEDs(void);
  77:main.c        **** void initFrontPanelI2CIO8(void);
  78:main.c        **** 
  79:main.c        **** 
  80:main.c        **** int main()
  81:main.c        **** {
  32              		.loc 1 81 0
  33              		.cfi_startproc
ARM GAS  C:\Users\HPz420\AppData\Local\Temp\ccOvvUOW.s 			page 3


  34              		@ args = 0, pretend = 0, frame = 72
  35              		@ frame_needed = 1, uses_anonymous_args = 0
  36 0000 80B5     		push	{r7, lr}
  37              		.cfi_def_cfa_offset 8
  38              		.cfi_offset 7, -8
  39              		.cfi_offset 14, -4
  40 0002 92B0     		sub	sp, sp, #72
  41              		.cfi_def_cfa_offset 80
  42 0004 00AF     		add	r7, sp, #0
  43              		.cfi_def_cfa_register 7
  82:main.c        ****     uint16 count;
  83:main.c        ****     uint8 buffer[USBUART_BUFFER_SIZE];
  84:main.c        ****     
  85:main.c        ****     CyGlobalIntEnable;
  44              		.loc 1 85 0
  45              		.syntax unified
  46              	@ 85 "main.c" 1
  47 0006 62B6     		CPSIE   i
  48              	@ 0 "" 2
  86:main.c        **** 
  87:main.c        ****     /* Start USBFS operation with 5-V operation. */
  88:main.c        ****     USBUART_Start(USBFS_DEVICE, USBUART_5V_OPERATION);
  49              		.loc 1 88 0
  50              		.thumb
  51              		.syntax unified
  52 0008 0121     		movs	r1, #1
  53 000a 0020     		movs	r0, #0
  54 000c FFF7FEFF 		bl	USBUART_Start
  89:main.c        ****     I2C_Start();
  55              		.loc 1 89 0
  56 0010 FFF7FEFF 		bl	I2C_Start
  90:main.c        ****     
  91:main.c        ****     initDIGIO8Card(); 
  57              		.loc 1 91 0
  58 0014 FFF7FEFF 		bl	initDIGIO8Card
  92:main.c        ****     
  93:main.c        ****     initFrontPanelI2CIO8();
  59              		.loc 1 93 0
  60 0018 FFF7FEFF 		bl	initFrontPanelI2CIO8
  94:main.c        ****     
  95:main.c        ****     for(;;)
  96:main.c        ****     {
  97:main.c        ****         /* Host can send double SET_INTERFACE request. */
  98:main.c        ****         if (0u != USBUART_IsConfigurationChanged())
  61              		.loc 1 98 0
  62 001c FFF7FEFF 		bl	USBUART_IsConfigurationChanged
  63 0020 0346     		mov	r3, r0
  64 0022 002B     		cmp	r3, #0
  65 0024 06D0     		beq	.L2
  99:main.c        ****         {
 100:main.c        ****             /* Initialize IN endpoints when device is configured. */
 101:main.c        ****             if (0u != USBUART_GetConfiguration())
  66              		.loc 1 101 0
  67 0026 FFF7FEFF 		bl	USBUART_GetConfiguration
  68 002a 0346     		mov	r3, r0
  69 002c 002B     		cmp	r3, #0
  70 002e 01D0     		beq	.L2
ARM GAS  C:\Users\HPz420\AppData\Local\Temp\ccOvvUOW.s 			page 4


 102:main.c        ****             {
 103:main.c        ****                 /* Enumeration is done, enable OUT endpoint to receive data 
 104:main.c        ****                  * from host. */
 105:main.c        ****                 USBUART_CDC_Init();
  71              		.loc 1 105 0
  72 0030 FFF7FEFF 		bl	USBUART_CDC_Init
  73              	.L2:
 106:main.c        ****             }
 107:main.c        ****         }
 108:main.c        **** 
 109:main.c        ****         /* Service USB CDC when device is configured. */
 110:main.c        ****         if (0u != USBUART_GetConfiguration())
  74              		.loc 1 110 0
  75 0034 FFF7FEFF 		bl	USBUART_GetConfiguration
  76 0038 0346     		mov	r3, r0
  77 003a 002B     		cmp	r3, #0
  78 003c 2AD0     		beq	.L3
 111:main.c        ****         {
 112:main.c        ****             /* Check for input data from host. */
 113:main.c        ****             if (0u != USBUART_DataIsReady())
  79              		.loc 1 113 0
  80 003e FFF7FEFF 		bl	USBUART_DataIsReady
  81 0042 0346     		mov	r3, r0
  82 0044 002B     		cmp	r3, #0
  83 0046 25D0     		beq	.L3
 114:main.c        ****             {
 115:main.c        ****                 /* Read received data and re-enable OUT endpoint. */
 116:main.c        ****                 count = USBUART_GetAll(buffer);
  84              		.loc 1 116 0
  85 0048 3B1D     		adds	r3, r7, #4
  86 004a 1846     		mov	r0, r3
  87 004c FFF7FEFF 		bl	USBUART_GetAll
  88 0050 0346     		mov	r3, r0
  89 0052 A7F84630 		strh	r3, [r7, #70]	@ movhi
 117:main.c        **** 
 118:main.c        ****                 if (0u != count)
  90              		.loc 1 118 0
  91 0056 B7F84630 		ldrh	r3, [r7, #70]
  92 005a 002B     		cmp	r3, #0
  93 005c 1AD0     		beq	.L3
 119:main.c        ****                 {
 120:main.c        ****                     /* Wait until component is ready to send data to host. */
 121:main.c        ****                     while (0u == USBUART_CDCIsReady())
  94              		.loc 1 121 0
  95 005e 00BF     		nop
  96              	.L4:
  97              		.loc 1 121 0 is_stmt 0 discriminator 1
  98 0060 FFF7FEFF 		bl	USBUART_CDCIsReady
  99 0064 0346     		mov	r3, r0
 100 0066 002B     		cmp	r3, #0
 101 0068 FAD0     		beq	.L4
 122:main.c        ****                     {
 123:main.c        ****                     }
 124:main.c        **** 
 125:main.c        ****                     /* Send data back to host. */
 126:main.c        ****                     USBUART_PutData(buffer, count);
 102              		.loc 1 126 0 is_stmt 1
ARM GAS  C:\Users\HPz420\AppData\Local\Temp\ccOvvUOW.s 			page 5


 103 006a B7F84620 		ldrh	r2, [r7, #70]
 104 006e 3B1D     		adds	r3, r7, #4
 105 0070 1146     		mov	r1, r2
 106 0072 1846     		mov	r0, r3
 107 0074 FFF7FEFF 		bl	USBUART_PutData
 127:main.c        **** 
 128:main.c        ****                     /* If the last sent packet is exactly the maximum packet 
 129:main.c        ****                     *  size, it is followed by a zero-length packet to assure
 130:main.c        ****                     *  that the end of the segment is properly identified by 
 131:main.c        ****                     *  the terminal.
 132:main.c        ****                     */
 133:main.c        ****                     if (USBUART_BUFFER_SIZE == count)
 108              		.loc 1 133 0
 109 0078 B7F84630 		ldrh	r3, [r7, #70]
 110 007c 402B     		cmp	r3, #64
 111 007e 09D1     		bne	.L3
 134:main.c        ****                     {
 135:main.c        ****                         /* Wait until component is ready to send data to PC. */
 136:main.c        ****                         while (0u == USBUART_CDCIsReady())
 112              		.loc 1 136 0
 113 0080 00BF     		nop
 114              	.L5:
 115              		.loc 1 136 0 is_stmt 0 discriminator 1
 116 0082 FFF7FEFF 		bl	USBUART_CDCIsReady
 117 0086 0346     		mov	r3, r0
 118 0088 002B     		cmp	r3, #0
 119 008a FAD0     		beq	.L5
 137:main.c        ****                         {
 138:main.c        ****                         }
 139:main.c        **** 
 140:main.c        ****                         /* Send zero-length packet to PC. */
 141:main.c        ****                         USBUART_PutData(NULL, 0u);
 120              		.loc 1 141 0 is_stmt 1
 121 008c 0021     		movs	r1, #0
 122 008e 0020     		movs	r0, #0
 123 0090 FFF7FEFF 		bl	USBUART_PutData
 124              	.L3:
 142:main.c        ****                     }
 143:main.c        ****                 }
 144:main.c        ****             }
 145:main.c        ****         }
 146:main.c        ****         for(;;)
 147:main.c        ****         {
 148:main.c        ****             keysAndLEDs();
 125              		.loc 1 148 0 discriminator 1
 126 0094 FFF7FEFF 		bl	keysAndLEDs
 149:main.c        ****         }
 127              		.loc 1 149 0 discriminator 1
 128 0098 FCE7     		b	.L3
 129              		.cfi_endproc
 130              	.LFE64:
 131              		.size	main, .-main
 132 009a 00BF     		.text
 133              	.Letext0:
 134              		.file 2 "c:\\program files (x86)\\cypress\\psoc creator\\4.2\\psoc creator\\import\\gnu\\arm\\5.4.
 135              		.file 3 "c:\\program files (x86)\\cypress\\psoc creator\\4.2\\psoc creator\\import\\gnu\\arm\\5.4.
 136              		.file 4 "Generated_Source\\PSoC5/cytypes.h"
ARM GAS  C:\Users\HPz420\AppData\Local\Temp\ccOvvUOW.s 			page 6


 137              		.file 5 "Generated_Source\\PSoC5/core_cm3.h"