ARM GAS  C:\Users\HPz420\AppData\Local\Temp\ccz6x7yl.s 			page 1


   1              		.syntax unified
   2              		.cpu cortex-m3
   3              		.fpu softvfp
   4              		.eabi_attribute 20, 1
   5              		.eabi_attribute 21, 1
   6              		.eabi_attribute 23, 3
   7              		.eabi_attribute 24, 1
   8              		.eabi_attribute 25, 1
   9              		.eabi_attribute 26, 1
  10              		.eabi_attribute 30, 6
  11              		.eabi_attribute 34, 1
  12              		.eabi_attribute 18, 4
  13              		.thumb
  14              		.syntax unified
  15              		.file	"USBUART_hid.c"
  16              		.text
  17              	.Ltext0:
  18              		.cfi_sections	.debug_frame
  19              		.comm	USBUART_hidProtocol,2,4
  20              		.comm	USBUART_hidIdleRate,2,4
  21              		.comm	USBUART_hidIdleTimer,2,4
  22              		.section	.text.USBUART_UpdateHIDTimer,"ax",%progbits
  23              		.align	2
  24              		.global	USBUART_UpdateHIDTimer
  25              		.thumb
  26              		.thumb_func
  27              		.type	USBUART_UpdateHIDTimer, %function
  28              	USBUART_UpdateHIDTimer:
  29              	.LFB0:
  30              		.file 1 "Generated_Source\\PSoC5\\USBUART_hid.c"
   1:Generated_Source\PSoC5/USBUART_hid.c **** /***************************************************************************//**
   2:Generated_Source\PSoC5/USBUART_hid.c **** * \file USBUART_hid.c
   3:Generated_Source\PSoC5/USBUART_hid.c **** * \version 3.20
   4:Generated_Source\PSoC5/USBUART_hid.c **** *
   5:Generated_Source\PSoC5/USBUART_hid.c **** * \brief
   6:Generated_Source\PSoC5/USBUART_hid.c **** *  This file contains the USB HID Class request handler. 
   7:Generated_Source\PSoC5/USBUART_hid.c **** *
   8:Generated_Source\PSoC5/USBUART_hid.c **** * Related Document:
   9:Generated_Source\PSoC5/USBUART_hid.c **** *  Device Class Definition for Human Interface Devices (HID) Version 1.11
  10:Generated_Source\PSoC5/USBUART_hid.c **** *
  11:Generated_Source\PSoC5/USBUART_hid.c **** ********************************************************************************
  12:Generated_Source\PSoC5/USBUART_hid.c **** * \copyright
  13:Generated_Source\PSoC5/USBUART_hid.c **** * Copyright 2008-2016, Cypress Semiconductor Corporation.  All rights reserved.
  14:Generated_Source\PSoC5/USBUART_hid.c **** * You may use this file only in accordance with the license, terms, conditions,
  15:Generated_Source\PSoC5/USBUART_hid.c **** * disclaimers, and limitations in the end user license agreement accompanying
  16:Generated_Source\PSoC5/USBUART_hid.c **** * the software package with which this file was provided.
  17:Generated_Source\PSoC5/USBUART_hid.c **** *******************************************************************************/
  18:Generated_Source\PSoC5/USBUART_hid.c **** 
  19:Generated_Source\PSoC5/USBUART_hid.c **** #include "USBUART_hid.h"
  20:Generated_Source\PSoC5/USBUART_hid.c **** #include "USBUART_pvt.h"
  21:Generated_Source\PSoC5/USBUART_hid.c **** #include "cyapicallbacks.h"
  22:Generated_Source\PSoC5/USBUART_hid.c **** 
  23:Generated_Source\PSoC5/USBUART_hid.c **** 
  24:Generated_Source\PSoC5/USBUART_hid.c **** #if defined(USBUART_ENABLE_HID_CLASS)
  25:Generated_Source\PSoC5/USBUART_hid.c **** 
  26:Generated_Source\PSoC5/USBUART_hid.c **** /***************************************
  27:Generated_Source\PSoC5/USBUART_hid.c **** *    HID Variables
ARM GAS  C:\Users\HPz420\AppData\Local\Temp\ccz6x7yl.s 			page 2


  28:Generated_Source\PSoC5/USBUART_hid.c **** ***************************************/
  29:Generated_Source\PSoC5/USBUART_hid.c **** /** This variable is initialized in the USBFS_InitComponent() API to the 
  30:Generated_Source\PSoC5/USBUART_hid.c ****  * PROTOCOL_REPORT value. It is controlled by the host using the 
  31:Generated_Source\PSoC5/USBUART_hid.c ****  * HID_SET_PROTOCOL request. The value is returned to the user code by the 
  32:Generated_Source\PSoC5/USBUART_hid.c ****  * USBFS_GetProtocol() API.*/
  33:Generated_Source\PSoC5/USBUART_hid.c **** volatile uint8 USBUART_hidProtocol[USBUART_MAX_INTERFACES_NUMBER];
  34:Generated_Source\PSoC5/USBUART_hid.c **** 
  35:Generated_Source\PSoC5/USBUART_hid.c **** /** This variable controls the HID report rate. It is controlled by the host 
  36:Generated_Source\PSoC5/USBUART_hid.c ****  * using the HID_SET_IDLE request and used by the USBFS_UpdateHIDTimer() API to 
  37:Generated_Source\PSoC5/USBUART_hid.c ****  * reload timer.*/
  38:Generated_Source\PSoC5/USBUART_hid.c **** volatile uint8 USBUART_hidIdleRate[USBUART_MAX_INTERFACES_NUMBER];
  39:Generated_Source\PSoC5/USBUART_hid.c **** 
  40:Generated_Source\PSoC5/USBUART_hid.c **** /** This variable contains the timer counter, which is decremented and reloaded 
  41:Generated_Source\PSoC5/USBUART_hid.c ****  * by the USBFS_UpdateHIDTimer() API.*/
  42:Generated_Source\PSoC5/USBUART_hid.c **** volatile uint8 USBUART_hidIdleTimer[USBUART_MAX_INTERFACES_NUMBER]; /* HID device idle rate value *
  43:Generated_Source\PSoC5/USBUART_hid.c **** 
  44:Generated_Source\PSoC5/USBUART_hid.c **** 
  45:Generated_Source\PSoC5/USBUART_hid.c **** /***************************************
  46:Generated_Source\PSoC5/USBUART_hid.c **** * Custom Declarations
  47:Generated_Source\PSoC5/USBUART_hid.c **** ***************************************/
  48:Generated_Source\PSoC5/USBUART_hid.c **** 
  49:Generated_Source\PSoC5/USBUART_hid.c **** /* `#START HID_CUSTOM_DECLARATIONS` Place your declaration here */
  50:Generated_Source\PSoC5/USBUART_hid.c **** 
  51:Generated_Source\PSoC5/USBUART_hid.c **** /* `#END` */
  52:Generated_Source\PSoC5/USBUART_hid.c **** 
  53:Generated_Source\PSoC5/USBUART_hid.c **** 
  54:Generated_Source\PSoC5/USBUART_hid.c **** /*******************************************************************************
  55:Generated_Source\PSoC5/USBUART_hid.c **** * Function Name: USBUART_UpdateHIDTimer
  56:Generated_Source\PSoC5/USBUART_hid.c **** ****************************************************************************//**
  57:Generated_Source\PSoC5/USBUART_hid.c **** *
  58:Generated_Source\PSoC5/USBUART_hid.c **** *  This function updates the HID Report idle timer and returns the status and 
  59:Generated_Source\PSoC5/USBUART_hid.c **** *  reloads the timer if it expires.
  60:Generated_Source\PSoC5/USBUART_hid.c **** *
  61:Generated_Source\PSoC5/USBUART_hid.c **** *  \param interface Contains the interface number.
  62:Generated_Source\PSoC5/USBUART_hid.c **** *
  63:Generated_Source\PSoC5/USBUART_hid.c **** * \return
  64:Generated_Source\PSoC5/USBUART_hid.c **** *  Returns the state of the HID timer. Symbolic names and their associated values are given here:
  65:Generated_Source\PSoC5/USBUART_hid.c **** *  Return Value               |Notes
  66:Generated_Source\PSoC5/USBUART_hid.c **** *  ---------------------------|------------------------------------------------
  67:Generated_Source\PSoC5/USBUART_hid.c **** *  USBFS_IDLE_TIMER_EXPIRED   | The timer expired.
  68:Generated_Source\PSoC5/USBUART_hid.c **** *  USBFS_IDLE_TIMER_RUNNING   | The timer is running.
  69:Generated_Source\PSoC5/USBUART_hid.c **** *  USBFS_IDLE_TIMER_IDEFINITE | The report is sent when data or state changes.
  70:Generated_Source\PSoC5/USBUART_hid.c **** *
  71:Generated_Source\PSoC5/USBUART_hid.c **** *
  72:Generated_Source\PSoC5/USBUART_hid.c **** * \reentrant
  73:Generated_Source\PSoC5/USBUART_hid.c **** *  No.
  74:Generated_Source\PSoC5/USBUART_hid.c **** *
  75:Generated_Source\PSoC5/USBUART_hid.c **** *******************************************************************************/
  76:Generated_Source\PSoC5/USBUART_hid.c **** uint8 USBUART_UpdateHIDTimer(uint8 interface) 
  77:Generated_Source\PSoC5/USBUART_hid.c **** {
  31              		.loc 1 77 0
  32              		.cfi_startproc
  33              		@ args = 0, pretend = 0, frame = 16
  34              		@ frame_needed = 1, uses_anonymous_args = 0
  35              		@ link register save eliminated.
  36 0000 80B4     		push	{r7}
  37              		.cfi_def_cfa_offset 4
ARM GAS  C:\Users\HPz420\AppData\Local\Temp\ccz6x7yl.s 			page 3


  38              		.cfi_offset 7, -4
  39 0002 85B0     		sub	sp, sp, #20
  40              		.cfi_def_cfa_offset 24
  41 0004 00AF     		add	r7, sp, #0
  42              		.cfi_def_cfa_register 7
  43 0006 0346     		mov	r3, r0
  44 0008 FB71     		strb	r3, [r7, #7]
  78:Generated_Source\PSoC5/USBUART_hid.c ****     uint8 stat = USBUART_IDLE_TIMER_INDEFINITE;
  45              		.loc 1 78 0
  46 000a 0023     		movs	r3, #0
  47 000c FB73     		strb	r3, [r7, #15]
  79:Generated_Source\PSoC5/USBUART_hid.c **** 
  80:Generated_Source\PSoC5/USBUART_hid.c ****     if(USBUART_hidIdleRate[interface] != 0u)
  48              		.loc 1 80 0
  49 000e FB79     		ldrb	r3, [r7, #7]	@ zero_extendqisi2
  50 0010 124A     		ldr	r2, .L5
  51 0012 D35C     		ldrb	r3, [r2, r3]
  52 0014 DBB2     		uxtb	r3, r3
  53 0016 002B     		cmp	r3, #0
  54 0018 19D0     		beq	.L2
  81:Generated_Source\PSoC5/USBUART_hid.c ****     {
  82:Generated_Source\PSoC5/USBUART_hid.c ****         if(USBUART_hidIdleTimer[interface] > 0u)
  55              		.loc 1 82 0
  56 001a FB79     		ldrb	r3, [r7, #7]	@ zero_extendqisi2
  57 001c 104A     		ldr	r2, .L5+4
  58 001e D35C     		ldrb	r3, [r2, r3]
  59 0020 DBB2     		uxtb	r3, r3
  60 0022 002B     		cmp	r3, #0
  61 0024 0AD0     		beq	.L3
  83:Generated_Source\PSoC5/USBUART_hid.c ****         {
  84:Generated_Source\PSoC5/USBUART_hid.c ****             USBUART_hidIdleTimer[interface]--;
  62              		.loc 1 84 0
  63 0026 FB79     		ldrb	r3, [r7, #7]	@ zero_extendqisi2
  64 0028 0D4A     		ldr	r2, .L5+4
  65 002a D25C     		ldrb	r2, [r2, r3]
  66 002c D2B2     		uxtb	r2, r2
  67 002e 013A     		subs	r2, r2, #1
  68 0030 D1B2     		uxtb	r1, r2
  69 0032 0B4A     		ldr	r2, .L5+4
  70 0034 D154     		strb	r1, [r2, r3]
  85:Generated_Source\PSoC5/USBUART_hid.c ****             stat = USBUART_IDLE_TIMER_RUNNING;
  71              		.loc 1 85 0
  72 0036 0223     		movs	r3, #2
  73 0038 FB73     		strb	r3, [r7, #15]
  74 003a 08E0     		b	.L2
  75              	.L3:
  86:Generated_Source\PSoC5/USBUART_hid.c ****         }
  87:Generated_Source\PSoC5/USBUART_hid.c ****         else
  88:Generated_Source\PSoC5/USBUART_hid.c ****         {
  89:Generated_Source\PSoC5/USBUART_hid.c ****             USBUART_hidIdleTimer[interface] = USBUART_hidIdleRate[interface];
  76              		.loc 1 89 0
  77 003c FB79     		ldrb	r3, [r7, #7]	@ zero_extendqisi2
  78 003e FA79     		ldrb	r2, [r7, #7]	@ zero_extendqisi2
  79 0040 0649     		ldr	r1, .L5
  80 0042 8A5C     		ldrb	r2, [r1, r2]
  81 0044 D1B2     		uxtb	r1, r2
  82 0046 064A     		ldr	r2, .L5+4
ARM GAS  C:\Users\HPz420\AppData\Local\Temp\ccz6x7yl.s 			page 4


  83 0048 D154     		strb	r1, [r2, r3]
  90:Generated_Source\PSoC5/USBUART_hid.c ****             stat = USBUART_IDLE_TIMER_EXPIRED;
  84              		.loc 1 90 0
  85 004a 0123     		movs	r3, #1
  86 004c FB73     		strb	r3, [r7, #15]
  87              	.L2:
  91:Generated_Source\PSoC5/USBUART_hid.c ****         }
  92:Generated_Source\PSoC5/USBUART_hid.c ****     }
  93:Generated_Source\PSoC5/USBUART_hid.c **** 
  94:Generated_Source\PSoC5/USBUART_hid.c ****     return((uint8)stat);
  88              		.loc 1 94 0
  89 004e FB7B     		ldrb	r3, [r7, #15]	@ zero_extendqisi2
  95:Generated_Source\PSoC5/USBUART_hid.c **** }
  90              		.loc 1 95 0
  91 0050 1846     		mov	r0, r3
  92 0052 1437     		adds	r7, r7, #20
  93              		.cfi_def_cfa_offset 4
  94 0054 BD46     		mov	sp, r7
  95              		.cfi_def_cfa_register 13
  96              		@ sp needed
  97 0056 80BC     		pop	{r7}
  98              		.cfi_restore 7
  99              		.cfi_def_cfa_offset 0
 100 0058 7047     		bx	lr
 101              	.L6:
 102 005a 00BF     		.align	2
 103              	.L5:
 104 005c 00000000 		.word	USBUART_hidIdleRate
 105 0060 00000000 		.word	USBUART_hidIdleTimer
 106              		.cfi_endproc
 107              	.LFE0:
 108              		.size	USBUART_UpdateHIDTimer, .-USBUART_UpdateHIDTimer
 109              		.section	.text.USBUART_GetProtocol,"ax",%progbits
 110              		.align	2
 111              		.global	USBUART_GetProtocol
 112              		.thumb
 113              		.thumb_func
 114              		.type	USBUART_GetProtocol, %function
 115              	USBUART_GetProtocol:
 116              	.LFB1:
  96:Generated_Source\PSoC5/USBUART_hid.c **** 
  97:Generated_Source\PSoC5/USBUART_hid.c **** 
  98:Generated_Source\PSoC5/USBUART_hid.c **** /*******************************************************************************
  99:Generated_Source\PSoC5/USBUART_hid.c **** * Function Name: USBUART_GetProtocol
 100:Generated_Source\PSoC5/USBUART_hid.c **** ****************************************************************************//**
 101:Generated_Source\PSoC5/USBUART_hid.c **** *
 102:Generated_Source\PSoC5/USBUART_hid.c **** *  This function returns the HID protocol value for the selected interface.
 103:Generated_Source\PSoC5/USBUART_hid.c **** *
 104:Generated_Source\PSoC5/USBUART_hid.c **** *  \param interface:  Contains the interface number.
 105:Generated_Source\PSoC5/USBUART_hid.c **** *
 106:Generated_Source\PSoC5/USBUART_hid.c **** *  \return
 107:Generated_Source\PSoC5/USBUART_hid.c **** *  Returns the protocol value. 
 108:Generated_Source\PSoC5/USBUART_hid.c **** *
 109:Generated_Source\PSoC5/USBUART_hid.c **** *******************************************************************************/
 110:Generated_Source\PSoC5/USBUART_hid.c **** uint8 USBUART_GetProtocol(uint8 interface) 
 111:Generated_Source\PSoC5/USBUART_hid.c **** {
 117              		.loc 1 111 0
ARM GAS  C:\Users\HPz420\AppData\Local\Temp\ccz6x7yl.s 			page 5


 118              		.cfi_startproc
 119              		@ args = 0, pretend = 0, frame = 8
 120              		@ frame_needed = 1, uses_anonymous_args = 0
 121              		@ link register save eliminated.
 122 0000 80B4     		push	{r7}
 123              		.cfi_def_cfa_offset 4
 124              		.cfi_offset 7, -4
 125 0002 83B0     		sub	sp, sp, #12
 126              		.cfi_def_cfa_offset 16
 127 0004 00AF     		add	r7, sp, #0
 128              		.cfi_def_cfa_register 7
 129 0006 0346     		mov	r3, r0
 130 0008 FB71     		strb	r3, [r7, #7]
 112:Generated_Source\PSoC5/USBUART_hid.c ****     return(USBUART_hidProtocol[interface]);
 131              		.loc 1 112 0
 132 000a FB79     		ldrb	r3, [r7, #7]	@ zero_extendqisi2
 133 000c 034A     		ldr	r2, .L9
 134 000e D35C     		ldrb	r3, [r2, r3]
 135 0010 DBB2     		uxtb	r3, r3
 113:Generated_Source\PSoC5/USBUART_hid.c **** }
 136              		.loc 1 113 0
 137 0012 1846     		mov	r0, r3
 138 0014 0C37     		adds	r7, r7, #12
 139              		.cfi_def_cfa_offset 4
 140 0016 BD46     		mov	sp, r7
 141              		.cfi_def_cfa_register 13
 142              		@ sp needed
 143 0018 80BC     		pop	{r7}
 144              		.cfi_restore 7
 145              		.cfi_def_cfa_offset 0
 146 001a 7047     		bx	lr
 147              	.L10:
 148              		.align	2
 149              	.L9:
 150 001c 00000000 		.word	USBUART_hidProtocol
 151              		.cfi_endproc
 152              	.LFE1:
 153              		.size	USBUART_GetProtocol, .-USBUART_GetProtocol
 154              		.section	.text.USBUART_DispatchHIDClassRqst,"ax",%progbits
 155              		.align	2
 156              		.global	USBUART_DispatchHIDClassRqst
 157              		.thumb
 158              		.thumb_func
 159              		.type	USBUART_DispatchHIDClassRqst, %function
 160              	USBUART_DispatchHIDClassRqst:
 161              	.LFB2:
 114:Generated_Source\PSoC5/USBUART_hid.c **** 
 115:Generated_Source\PSoC5/USBUART_hid.c **** 
 116:Generated_Source\PSoC5/USBUART_hid.c **** /*******************************************************************************
 117:Generated_Source\PSoC5/USBUART_hid.c **** * Function Name: USBUART_DispatchHIDClassRqst
 118:Generated_Source\PSoC5/USBUART_hid.c **** ****************************************************************************//**
 119:Generated_Source\PSoC5/USBUART_hid.c **** *
 120:Generated_Source\PSoC5/USBUART_hid.c **** *  This routine dispatches class requests
 121:Generated_Source\PSoC5/USBUART_hid.c **** *
 122:Generated_Source\PSoC5/USBUART_hid.c **** * \return
 123:Generated_Source\PSoC5/USBUART_hid.c **** *  Results of HID Class request handling: 
 124:Generated_Source\PSoC5/USBUART_hid.c **** *  - USBUART_TRUE  - request was handled without errors
ARM GAS  C:\Users\HPz420\AppData\Local\Temp\ccz6x7yl.s 			page 6


 125:Generated_Source\PSoC5/USBUART_hid.c **** *  - USBUART_FALSE - error occurs during handling of request  
 126:Generated_Source\PSoC5/USBUART_hid.c **** *
 127:Generated_Source\PSoC5/USBUART_hid.c **** * \reentrant
 128:Generated_Source\PSoC5/USBUART_hid.c **** *  No.
 129:Generated_Source\PSoC5/USBUART_hid.c **** *
 130:Generated_Source\PSoC5/USBUART_hid.c **** *******************************************************************************/
 131:Generated_Source\PSoC5/USBUART_hid.c **** uint8 USBUART_DispatchHIDClassRqst(void) 
 132:Generated_Source\PSoC5/USBUART_hid.c **** {
 162              		.loc 1 132 0
 163              		.cfi_startproc
 164              		@ args = 0, pretend = 0, frame = 8
 165              		@ frame_needed = 1, uses_anonymous_args = 0
 166 0000 80B5     		push	{r7, lr}
 167              		.cfi_def_cfa_offset 8
 168              		.cfi_offset 7, -8
 169              		.cfi_offset 14, -4
 170 0002 82B0     		sub	sp, sp, #8
 171              		.cfi_def_cfa_offset 16
 172 0004 00AF     		add	r7, sp, #0
 173              		.cfi_def_cfa_register 7
 133:Generated_Source\PSoC5/USBUART_hid.c ****     uint8 requestHandled = USBUART_FALSE;
 174              		.loc 1 133 0
 175 0006 0023     		movs	r3, #0
 176 0008 FB71     		strb	r3, [r7, #7]
 134:Generated_Source\PSoC5/USBUART_hid.c **** 
 135:Generated_Source\PSoC5/USBUART_hid.c ****     uint8 interfaceNumber = (uint8) USBUART_wIndexLoReg;
 177              		.loc 1 135 0
 178 000a 714B     		ldr	r3, .L46
 179 000c 1B79     		ldrb	r3, [r3, #4]
 180 000e BB71     		strb	r3, [r7, #6]
 136:Generated_Source\PSoC5/USBUART_hid.c ****     
 137:Generated_Source\PSoC5/USBUART_hid.c ****     /* Check request direction: D2H or H2D. */
 138:Generated_Source\PSoC5/USBUART_hid.c ****     if (0u != (USBUART_bmRequestTypeReg & USBUART_RQST_DIR_D2H))
 181              		.loc 1 138 0
 182 0010 6F4B     		ldr	r3, .L46
 183 0012 1B78     		ldrb	r3, [r3]
 184 0014 DBB2     		uxtb	r3, r3
 185 0016 5BB2     		sxtb	r3, r3
 186 0018 002B     		cmp	r3, #0
 187 001a 6CDA     		bge	.L12
 139:Generated_Source\PSoC5/USBUART_hid.c ****     {
 140:Generated_Source\PSoC5/USBUART_hid.c ****         /* Handle direction from device to host. */
 141:Generated_Source\PSoC5/USBUART_hid.c ****         
 142:Generated_Source\PSoC5/USBUART_hid.c ****         switch (USBUART_bRequestReg)
 188              		.loc 1 142 0
 189 001c 6C4B     		ldr	r3, .L46
 190 001e 5B78     		ldrb	r3, [r3, #1]
 191 0020 DBB2     		uxtb	r3, r3
 192 0022 013B     		subs	r3, r3, #1
 193 0024 052B     		cmp	r3, #5
 194 0026 00F2BE80 		bhi	.L38
 195 002a 01A2     		adr	r2, .L15
 196 002c 52F823F0 		ldr	pc, [r2, r3, lsl #2]
 197              		.p2align 2
 198              	.L15:
 199 0030 93000000 		.word	.L14+1
 200 0034 AD000000 		.word	.L16+1
ARM GAS  C:\Users\HPz420\AppData\Local\Temp\ccz6x7yl.s 			page 7


 201 0038 D7000000 		.word	.L17+1
 202 003c A7010000 		.word	.L38+1
 203 0040 A7010000 		.word	.L38+1
 204 0044 49000000 		.word	.L18+1
 205              		.p2align 1
 206              	.L18:
 143:Generated_Source\PSoC5/USBUART_hid.c ****         {
 144:Generated_Source\PSoC5/USBUART_hid.c ****             case USBUART_GET_DESCRIPTOR:
 145:Generated_Source\PSoC5/USBUART_hid.c ****                 if (USBUART_wValueHiReg == USBUART_DESCR_HID_CLASS)
 207              		.loc 1 145 0
 208 0048 614B     		ldr	r3, .L46
 209 004a DB78     		ldrb	r3, [r3, #3]
 210 004c DBB2     		uxtb	r3, r3
 211 004e 212B     		cmp	r3, #33
 212 0050 0CD1     		bne	.L19
 146:Generated_Source\PSoC5/USBUART_hid.c ****                 {
 147:Generated_Source\PSoC5/USBUART_hid.c ****                     USBUART_FindHidClassDecriptor();
 213              		.loc 1 147 0
 214 0052 FFF7FEFF 		bl	USBUART_FindHidClassDecriptor
 148:Generated_Source\PSoC5/USBUART_hid.c ****                     if (USBUART_currentTD.count != 0u)
 215              		.loc 1 148 0
 216 0056 5F4B     		ldr	r3, .L46+4
 217 0058 1B88     		ldrh	r3, [r3]	@ movhi
 218 005a 9BB2     		uxth	r3, r3
 219 005c 002B     		cmp	r3, #0
 220 005e 00F0A480 		beq	.L39
 149:Generated_Source\PSoC5/USBUART_hid.c ****                     {
 150:Generated_Source\PSoC5/USBUART_hid.c ****                         requestHandled = USBUART_InitControlRead();
 221              		.loc 1 150 0
 222 0062 FFF7FEFF 		bl	USBUART_InitControlRead
 223 0066 0346     		mov	r3, r0
 224 0068 FB71     		strb	r3, [r7, #7]
 151:Generated_Source\PSoC5/USBUART_hid.c ****                     }
 152:Generated_Source\PSoC5/USBUART_hid.c ****                 }
 153:Generated_Source\PSoC5/USBUART_hid.c ****                 else if (USBUART_wValueHiReg == USBUART_DESCR_HID_REPORT)
 154:Generated_Source\PSoC5/USBUART_hid.c ****                 {
 155:Generated_Source\PSoC5/USBUART_hid.c ****                     USBUART_FindReportDescriptor();
 156:Generated_Source\PSoC5/USBUART_hid.c ****                     if (USBUART_currentTD.count != 0u)
 157:Generated_Source\PSoC5/USBUART_hid.c ****                     {
 158:Generated_Source\PSoC5/USBUART_hid.c ****                         requestHandled = USBUART_InitControlRead();
 159:Generated_Source\PSoC5/USBUART_hid.c ****                     }
 160:Generated_Source\PSoC5/USBUART_hid.c ****                 }
 161:Generated_Source\PSoC5/USBUART_hid.c ****                 else
 162:Generated_Source\PSoC5/USBUART_hid.c ****                 {   
 163:Generated_Source\PSoC5/USBUART_hid.c ****                     /* Do not handle this request. */
 164:Generated_Source\PSoC5/USBUART_hid.c ****                 }
 165:Generated_Source\PSoC5/USBUART_hid.c ****                 break;
 225              		.loc 1 165 0
 226 006a 9EE0     		b	.L39
 227              	.L19:
 153:Generated_Source\PSoC5/USBUART_hid.c ****                 {
 228              		.loc 1 153 0
 229 006c 584B     		ldr	r3, .L46
 230 006e DB78     		ldrb	r3, [r3, #3]
 231 0070 DBB2     		uxtb	r3, r3
 232 0072 222B     		cmp	r3, #34
 233 0074 40F09980 		bne	.L39
ARM GAS  C:\Users\HPz420\AppData\Local\Temp\ccz6x7yl.s 			page 8


 155:Generated_Source\PSoC5/USBUART_hid.c ****                     if (USBUART_currentTD.count != 0u)
 234              		.loc 1 155 0
 235 0078 FFF7FEFF 		bl	USBUART_FindReportDescriptor
 156:Generated_Source\PSoC5/USBUART_hid.c ****                     {
 236              		.loc 1 156 0
 237 007c 554B     		ldr	r3, .L46+4
 238 007e 1B88     		ldrh	r3, [r3]	@ movhi
 239 0080 9BB2     		uxth	r3, r3
 240 0082 002B     		cmp	r3, #0
 241 0084 00F09180 		beq	.L39
 158:Generated_Source\PSoC5/USBUART_hid.c ****                     }
 242              		.loc 1 158 0
 243 0088 FFF7FEFF 		bl	USBUART_InitControlRead
 244 008c 0346     		mov	r3, r0
 245 008e FB71     		strb	r3, [r7, #7]
 246              		.loc 1 165 0
 247 0090 8BE0     		b	.L39
 248              	.L14:
 166:Generated_Source\PSoC5/USBUART_hid.c ****                 
 167:Generated_Source\PSoC5/USBUART_hid.c ****             case USBUART_HID_GET_REPORT:
 168:Generated_Source\PSoC5/USBUART_hid.c ****                 USBUART_FindReport();
 249              		.loc 1 168 0
 250 0092 FFF7FEFF 		bl	USBUART_FindReport
 169:Generated_Source\PSoC5/USBUART_hid.c ****                 if (USBUART_currentTD.count != 0u)
 251              		.loc 1 169 0
 252 0096 4F4B     		ldr	r3, .L46+4
 253 0098 1B88     		ldrh	r3, [r3]	@ movhi
 254 009a 9BB2     		uxth	r3, r3
 255 009c 002B     		cmp	r3, #0
 256 009e 00F08680 		beq	.L40
 170:Generated_Source\PSoC5/USBUART_hid.c ****                 {
 171:Generated_Source\PSoC5/USBUART_hid.c ****                     requestHandled = USBUART_InitControlRead();
 257              		.loc 1 171 0
 258 00a2 FFF7FEFF 		bl	USBUART_InitControlRead
 259 00a6 0346     		mov	r3, r0
 260 00a8 FB71     		strb	r3, [r7, #7]
 172:Generated_Source\PSoC5/USBUART_hid.c ****                 }
 173:Generated_Source\PSoC5/USBUART_hid.c ****                 break;
 261              		.loc 1 173 0
 262 00aa 80E0     		b	.L40
 263              	.L16:
 174:Generated_Source\PSoC5/USBUART_hid.c **** 
 175:Generated_Source\PSoC5/USBUART_hid.c ****             case USBUART_HID_GET_IDLE:
 176:Generated_Source\PSoC5/USBUART_hid.c ****                 /* This function does not support multiple reports per interface*/
 177:Generated_Source\PSoC5/USBUART_hid.c ****                 /* Validate interfaceNumber and Report ID (should be 0): Do not support Idle per Re
 178:Generated_Source\PSoC5/USBUART_hid.c ****                 if ((interfaceNumber < USBUART_MAX_INTERFACES_NUMBER) && (USBUART_wValueLoReg == 0u
 264              		.loc 1 178 0
 265 00ac BB79     		ldrb	r3, [r7, #6]	@ zero_extendqisi2
 266 00ae 012B     		cmp	r3, #1
 267 00b0 7FD8     		bhi	.L41
 268              		.loc 1 178 0 is_stmt 0 discriminator 1
 269 00b2 474B     		ldr	r3, .L46
 270 00b4 9B78     		ldrb	r3, [r3, #2]
 271 00b6 DBB2     		uxtb	r3, r3
 272 00b8 002B     		cmp	r3, #0
 273 00ba 7AD1     		bne	.L41
 179:Generated_Source\PSoC5/USBUART_hid.c ****                 {
ARM GAS  C:\Users\HPz420\AppData\Local\Temp\ccz6x7yl.s 			page 9


 180:Generated_Source\PSoC5/USBUART_hid.c ****                     USBUART_currentTD.count = 1u;
 274              		.loc 1 180 0 is_stmt 1
 275 00bc 454B     		ldr	r3, .L46+4
 276 00be 0122     		movs	r2, #1
 277 00c0 1A80     		strh	r2, [r3]	@ movhi
 181:Generated_Source\PSoC5/USBUART_hid.c ****                     USBUART_currentTD.pData = &USBUART_hidIdleRate[interfaceNumber];
 278              		.loc 1 181 0
 279 00c2 BB79     		ldrb	r3, [r7, #6]	@ zero_extendqisi2
 280 00c4 444A     		ldr	r2, .L46+8
 281 00c6 1344     		add	r3, r3, r2
 282 00c8 424A     		ldr	r2, .L46+4
 283 00ca 5360     		str	r3, [r2, #4]
 182:Generated_Source\PSoC5/USBUART_hid.c ****                     requestHandled  = USBUART_InitControlRead();
 284              		.loc 1 182 0
 285 00cc FFF7FEFF 		bl	USBUART_InitControlRead
 286 00d0 0346     		mov	r3, r0
 287 00d2 FB71     		strb	r3, [r7, #7]
 183:Generated_Source\PSoC5/USBUART_hid.c ****                 }
 184:Generated_Source\PSoC5/USBUART_hid.c ****                 break;
 288              		.loc 1 184 0
 289 00d4 6DE0     		b	.L41
 290              	.L17:
 185:Generated_Source\PSoC5/USBUART_hid.c ****                 
 186:Generated_Source\PSoC5/USBUART_hid.c ****             case USBUART_HID_GET_PROTOCOL:
 187:Generated_Source\PSoC5/USBUART_hid.c ****                 /* Validate interfaceNumber */
 188:Generated_Source\PSoC5/USBUART_hid.c ****                 if( interfaceNumber < USBUART_MAX_INTERFACES_NUMBER)
 291              		.loc 1 188 0
 292 00d6 BB79     		ldrb	r3, [r7, #6]	@ zero_extendqisi2
 293 00d8 012B     		cmp	r3, #1
 294 00da 6CD8     		bhi	.L42
 189:Generated_Source\PSoC5/USBUART_hid.c ****                 {
 190:Generated_Source\PSoC5/USBUART_hid.c ****                     USBUART_currentTD.count = 1u;
 295              		.loc 1 190 0
 296 00dc 3D4B     		ldr	r3, .L46+4
 297 00de 0122     		movs	r2, #1
 298 00e0 1A80     		strh	r2, [r3]	@ movhi
 191:Generated_Source\PSoC5/USBUART_hid.c ****                     USBUART_currentTD.pData = &USBUART_hidProtocol[interfaceNumber];
 299              		.loc 1 191 0
 300 00e2 BB79     		ldrb	r3, [r7, #6]	@ zero_extendqisi2
 301 00e4 3D4A     		ldr	r2, .L46+12
 302 00e6 1344     		add	r3, r3, r2
 303 00e8 3A4A     		ldr	r2, .L46+4
 304 00ea 5360     		str	r3, [r2, #4]
 192:Generated_Source\PSoC5/USBUART_hid.c ****                     requestHandled  = USBUART_InitControlRead();
 305              		.loc 1 192 0
 306 00ec FFF7FEFF 		bl	USBUART_InitControlRead
 307 00f0 0346     		mov	r3, r0
 308 00f2 FB71     		strb	r3, [r7, #7]
 193:Generated_Source\PSoC5/USBUART_hid.c ****                 }
 194:Generated_Source\PSoC5/USBUART_hid.c ****                 break;
 309              		.loc 1 194 0
 310 00f4 5FE0     		b	.L42
 311              	.L12:
 195:Generated_Source\PSoC5/USBUART_hid.c ****                 
 196:Generated_Source\PSoC5/USBUART_hid.c ****             default:    /* requestHandled is initialized as FALSE by default */
 197:Generated_Source\PSoC5/USBUART_hid.c ****                 break;
 198:Generated_Source\PSoC5/USBUART_hid.c ****         }
ARM GAS  C:\Users\HPz420\AppData\Local\Temp\ccz6x7yl.s 			page 10


 199:Generated_Source\PSoC5/USBUART_hid.c ****     }
 200:Generated_Source\PSoC5/USBUART_hid.c ****     else
 201:Generated_Source\PSoC5/USBUART_hid.c ****     {   
 202:Generated_Source\PSoC5/USBUART_hid.c ****         /* Handle direction from host to device. */
 203:Generated_Source\PSoC5/USBUART_hid.c ****         
 204:Generated_Source\PSoC5/USBUART_hid.c ****         switch (USBUART_bRequestReg)
 312              		.loc 1 204 0
 313 00f6 364B     		ldr	r3, .L46
 314 00f8 5B78     		ldrb	r3, [r3, #1]
 315 00fa DBB2     		uxtb	r3, r3
 316 00fc 0A2B     		cmp	r3, #10
 317 00fe 10D0     		beq	.L29
 318 0100 0B2B     		cmp	r3, #11
 319 0102 3DD0     		beq	.L30
 320 0104 092B     		cmp	r3, #9
 321 0106 00D0     		beq	.L31
 205:Generated_Source\PSoC5/USBUART_hid.c ****         {
 206:Generated_Source\PSoC5/USBUART_hid.c ****             case USBUART_HID_SET_REPORT:
 207:Generated_Source\PSoC5/USBUART_hid.c ****                 USBUART_FindReport();
 208:Generated_Source\PSoC5/USBUART_hid.c ****                 if (USBUART_currentTD.count != 0u)
 209:Generated_Source\PSoC5/USBUART_hid.c ****                 {
 210:Generated_Source\PSoC5/USBUART_hid.c ****                     requestHandled = USBUART_InitControlWrite();
 211:Generated_Source\PSoC5/USBUART_hid.c ****                 }
 212:Generated_Source\PSoC5/USBUART_hid.c ****                 break;
 213:Generated_Source\PSoC5/USBUART_hid.c ****                 
 214:Generated_Source\PSoC5/USBUART_hid.c ****             case USBUART_HID_SET_IDLE:
 215:Generated_Source\PSoC5/USBUART_hid.c ****                 /* This function does not support multiple reports per interface */
 216:Generated_Source\PSoC5/USBUART_hid.c ****                 /* Validate interfaceNumber and Report ID (should be 0): Do not support Idle per Re
 217:Generated_Source\PSoC5/USBUART_hid.c ****                 if ((interfaceNumber < USBUART_MAX_INTERFACES_NUMBER) && (USBUART_wValueLoReg == 0u
 218:Generated_Source\PSoC5/USBUART_hid.c ****                 {
 219:Generated_Source\PSoC5/USBUART_hid.c ****                     USBUART_hidIdleRate[interfaceNumber] = (uint8)USBUART_wValueHiReg;
 220:Generated_Source\PSoC5/USBUART_hid.c ****                     /* With regards to HID spec: "7.2.4 Set_Idle Request"
 221:Generated_Source\PSoC5/USBUART_hid.c ****                     *  Latency. If the current period has gone past the
 222:Generated_Source\PSoC5/USBUART_hid.c ****                     *  newly proscribed time duration, then a report
 223:Generated_Source\PSoC5/USBUART_hid.c ****                     *  will be generated immediately.
 224:Generated_Source\PSoC5/USBUART_hid.c ****                     */
 225:Generated_Source\PSoC5/USBUART_hid.c ****                     if(USBUART_hidIdleRate[interfaceNumber] <
 226:Generated_Source\PSoC5/USBUART_hid.c ****                        USBUART_hidIdleTimer[interfaceNumber])
 227:Generated_Source\PSoC5/USBUART_hid.c ****                     {
 228:Generated_Source\PSoC5/USBUART_hid.c ****                         /* Set the timer to zero and let the UpdateHIDTimer() API return IDLE_TIMER
 229:Generated_Source\PSoC5/USBUART_hid.c ****                         USBUART_hidIdleTimer[interfaceNumber] = 0u;
 230:Generated_Source\PSoC5/USBUART_hid.c ****                     }
 231:Generated_Source\PSoC5/USBUART_hid.c ****                     /* If the new request is received within 4 milliseconds
 232:Generated_Source\PSoC5/USBUART_hid.c ****                     *  (1 count) of the end of the current period, then the
 233:Generated_Source\PSoC5/USBUART_hid.c ****                     *  new request will have no effect until after the report.
 234:Generated_Source\PSoC5/USBUART_hid.c ****                     */
 235:Generated_Source\PSoC5/USBUART_hid.c ****                     else if(USBUART_hidIdleTimer[interfaceNumber] <= 1u)
 236:Generated_Source\PSoC5/USBUART_hid.c ****                     {
 237:Generated_Source\PSoC5/USBUART_hid.c ****                         /* Do nothing.
 238:Generated_Source\PSoC5/USBUART_hid.c ****                         *  Let the UpdateHIDTimer() API continue to work and
 239:Generated_Source\PSoC5/USBUART_hid.c ****                         *  return IDLE_TIMER_EXPIRED status
 240:Generated_Source\PSoC5/USBUART_hid.c ****                         */
 241:Generated_Source\PSoC5/USBUART_hid.c ****                     }
 242:Generated_Source\PSoC5/USBUART_hid.c ****                     else
 243:Generated_Source\PSoC5/USBUART_hid.c ****                     {   /* Reload the timer*/
 244:Generated_Source\PSoC5/USBUART_hid.c ****                         USBUART_hidIdleTimer[interfaceNumber] =
 245:Generated_Source\PSoC5/USBUART_hid.c ****                         USBUART_hidIdleRate[interfaceNumber];
ARM GAS  C:\Users\HPz420\AppData\Local\Temp\ccz6x7yl.s 			page 11


 246:Generated_Source\PSoC5/USBUART_hid.c ****                     }
 247:Generated_Source\PSoC5/USBUART_hid.c ****                     requestHandled = USBUART_InitNoDataControlTransfer();
 248:Generated_Source\PSoC5/USBUART_hid.c ****                 }
 249:Generated_Source\PSoC5/USBUART_hid.c ****                 break;
 250:Generated_Source\PSoC5/USBUART_hid.c **** 
 251:Generated_Source\PSoC5/USBUART_hid.c ****             case USBUART_HID_SET_PROTOCOL:
 252:Generated_Source\PSoC5/USBUART_hid.c ****                 /* Validate interfaceNumber and protocol (must be 0 or 1) */
 253:Generated_Source\PSoC5/USBUART_hid.c ****                 if ((interfaceNumber < USBUART_MAX_INTERFACES_NUMBER) && (USBUART_wValueLoReg <= 1u
 254:Generated_Source\PSoC5/USBUART_hid.c ****                 {
 255:Generated_Source\PSoC5/USBUART_hid.c ****                     USBUART_hidProtocol[interfaceNumber] = (uint8)USBUART_wValueLoReg;
 256:Generated_Source\PSoC5/USBUART_hid.c ****                     requestHandled = USBUART_InitNoDataControlTransfer();
 257:Generated_Source\PSoC5/USBUART_hid.c ****                 }
 258:Generated_Source\PSoC5/USBUART_hid.c ****                 break;
 259:Generated_Source\PSoC5/USBUART_hid.c ****             
 260:Generated_Source\PSoC5/USBUART_hid.c ****             default:    
 261:Generated_Source\PSoC5/USBUART_hid.c ****                 /* Unknown class request is not handled. */
 262:Generated_Source\PSoC5/USBUART_hid.c ****                 break;
 322              		.loc 1 262 0
 323 0108 5CE0     		b	.L27
 324              	.L31:
 207:Generated_Source\PSoC5/USBUART_hid.c ****                 if (USBUART_currentTD.count != 0u)
 325              		.loc 1 207 0
 326 010a FFF7FEFF 		bl	USBUART_FindReport
 208:Generated_Source\PSoC5/USBUART_hid.c ****                 {
 327              		.loc 1 208 0
 328 010e 314B     		ldr	r3, .L46+4
 329 0110 1B88     		ldrh	r3, [r3]	@ movhi
 330 0112 9BB2     		uxth	r3, r3
 331 0114 002B     		cmp	r3, #0
 332 0116 50D0     		beq	.L43
 210:Generated_Source\PSoC5/USBUART_hid.c ****                 }
 333              		.loc 1 210 0
 334 0118 FFF7FEFF 		bl	USBUART_InitControlWrite
 335 011c 0346     		mov	r3, r0
 336 011e FB71     		strb	r3, [r7, #7]
 212:Generated_Source\PSoC5/USBUART_hid.c ****                 
 337              		.loc 1 212 0
 338 0120 4BE0     		b	.L43
 339              	.L29:
 217:Generated_Source\PSoC5/USBUART_hid.c ****                 {
 340              		.loc 1 217 0
 341 0122 BB79     		ldrb	r3, [r7, #6]	@ zero_extendqisi2
 342 0124 012B     		cmp	r3, #1
 343 0126 4AD8     		bhi	.L44
 217:Generated_Source\PSoC5/USBUART_hid.c ****                 {
 344              		.loc 1 217 0 is_stmt 0 discriminator 1
 345 0128 294B     		ldr	r3, .L46
 346 012a 9B78     		ldrb	r3, [r3, #2]
 347 012c DBB2     		uxtb	r3, r3
 348 012e 002B     		cmp	r3, #0
 349 0130 45D1     		bne	.L44
 219:Generated_Source\PSoC5/USBUART_hid.c ****                     /* With regards to HID spec: "7.2.4 Set_Idle Request"
 350              		.loc 1 219 0 is_stmt 1
 351 0132 BB79     		ldrb	r3, [r7, #6]	@ zero_extendqisi2
 352 0134 264A     		ldr	r2, .L46
 353 0136 D278     		ldrb	r2, [r2, #3]
 354 0138 D1B2     		uxtb	r1, r2
ARM GAS  C:\Users\HPz420\AppData\Local\Temp\ccz6x7yl.s 			page 12


 355 013a 274A     		ldr	r2, .L46+8
 356 013c D154     		strb	r1, [r2, r3]
 225:Generated_Source\PSoC5/USBUART_hid.c ****                        USBUART_hidIdleTimer[interfaceNumber])
 357              		.loc 1 225 0
 358 013e BB79     		ldrb	r3, [r7, #6]	@ zero_extendqisi2
 359 0140 254A     		ldr	r2, .L46+8
 360 0142 D35C     		ldrb	r3, [r2, r3]
 361 0144 DAB2     		uxtb	r2, r3
 226:Generated_Source\PSoC5/USBUART_hid.c ****                     {
 362              		.loc 1 226 0
 363 0146 BB79     		ldrb	r3, [r7, #6]	@ zero_extendqisi2
 364 0148 2549     		ldr	r1, .L46+16
 365 014a CB5C     		ldrb	r3, [r1, r3]
 366 014c DBB2     		uxtb	r3, r3
 225:Generated_Source\PSoC5/USBUART_hid.c ****                        USBUART_hidIdleTimer[interfaceNumber])
 367              		.loc 1 225 0
 368 014e 9A42     		cmp	r2, r3
 369 0150 04D2     		bcs	.L34
 229:Generated_Source\PSoC5/USBUART_hid.c ****                     }
 370              		.loc 1 229 0
 371 0152 BB79     		ldrb	r3, [r7, #6]	@ zero_extendqisi2
 372 0154 224A     		ldr	r2, .L46+16
 373 0156 0021     		movs	r1, #0
 374 0158 D154     		strb	r1, [r2, r3]
 375 015a 0CE0     		b	.L35
 376              	.L34:
 235:Generated_Source\PSoC5/USBUART_hid.c ****                     {
 377              		.loc 1 235 0
 378 015c BB79     		ldrb	r3, [r7, #6]	@ zero_extendqisi2
 379 015e 204A     		ldr	r2, .L46+16
 380 0160 D35C     		ldrb	r3, [r2, r3]
 381 0162 DBB2     		uxtb	r3, r3
 382 0164 012B     		cmp	r3, #1
 383 0166 06D9     		bls	.L35
 244:Generated_Source\PSoC5/USBUART_hid.c ****                         USBUART_hidIdleRate[interfaceNumber];
 384              		.loc 1 244 0
 385 0168 BB79     		ldrb	r3, [r7, #6]	@ zero_extendqisi2
 245:Generated_Source\PSoC5/USBUART_hid.c ****                     }
 386              		.loc 1 245 0
 387 016a BA79     		ldrb	r2, [r7, #6]	@ zero_extendqisi2
 388 016c 1A49     		ldr	r1, .L46+8
 389 016e 8A5C     		ldrb	r2, [r1, r2]
 390 0170 D1B2     		uxtb	r1, r2
 244:Generated_Source\PSoC5/USBUART_hid.c ****                         USBUART_hidIdleRate[interfaceNumber];
 391              		.loc 1 244 0
 392 0172 1B4A     		ldr	r2, .L46+16
 393 0174 D154     		strb	r1, [r2, r3]
 394              	.L35:
 247:Generated_Source\PSoC5/USBUART_hid.c ****                 }
 395              		.loc 1 247 0
 396 0176 FFF7FEFF 		bl	USBUART_InitNoDataControlTransfer
 397 017a 0346     		mov	r3, r0
 398 017c FB71     		strb	r3, [r7, #7]
 249:Generated_Source\PSoC5/USBUART_hid.c **** 
 399              		.loc 1 249 0
 400 017e 1EE0     		b	.L44
 401              	.L30:
ARM GAS  C:\Users\HPz420\AppData\Local\Temp\ccz6x7yl.s 			page 13


 253:Generated_Source\PSoC5/USBUART_hid.c ****                 {
 402              		.loc 1 253 0
 403 0180 BB79     		ldrb	r3, [r7, #6]	@ zero_extendqisi2
 404 0182 012B     		cmp	r3, #1
 405 0184 1DD8     		bhi	.L45
 253:Generated_Source\PSoC5/USBUART_hid.c ****                 {
 406              		.loc 1 253 0 is_stmt 0 discriminator 1
 407 0186 124B     		ldr	r3, .L46
 408 0188 9B78     		ldrb	r3, [r3, #2]
 409 018a DBB2     		uxtb	r3, r3
 410 018c 012B     		cmp	r3, #1
 411 018e 18D8     		bhi	.L45
 255:Generated_Source\PSoC5/USBUART_hid.c ****                     requestHandled = USBUART_InitNoDataControlTransfer();
 412              		.loc 1 255 0 is_stmt 1
 413 0190 BB79     		ldrb	r3, [r7, #6]	@ zero_extendqisi2
 414 0192 0F4A     		ldr	r2, .L46
 415 0194 9278     		ldrb	r2, [r2, #2]
 416 0196 D1B2     		uxtb	r1, r2
 417 0198 104A     		ldr	r2, .L46+12
 418 019a D154     		strb	r1, [r2, r3]
 256:Generated_Source\PSoC5/USBUART_hid.c ****                 }
 419              		.loc 1 256 0
 420 019c FFF7FEFF 		bl	USBUART_InitNoDataControlTransfer
 421 01a0 0346     		mov	r3, r0
 422 01a2 FB71     		strb	r3, [r7, #7]
 258:Generated_Source\PSoC5/USBUART_hid.c ****             
 423              		.loc 1 258 0
 424 01a4 0DE0     		b	.L45
 425              	.L38:
 197:Generated_Source\PSoC5/USBUART_hid.c ****         }
 426              		.loc 1 197 0
 427 01a6 00BF     		nop
 428 01a8 0CE0     		b	.L27
 429              	.L39:
 165:Generated_Source\PSoC5/USBUART_hid.c ****                 
 430              		.loc 1 165 0
 431 01aa 00BF     		nop
 432 01ac 0AE0     		b	.L27
 433              	.L40:
 173:Generated_Source\PSoC5/USBUART_hid.c **** 
 434              		.loc 1 173 0
 435 01ae 00BF     		nop
 436 01b0 08E0     		b	.L27
 437              	.L41:
 184:Generated_Source\PSoC5/USBUART_hid.c ****                 
 438              		.loc 1 184 0
 439 01b2 00BF     		nop
 440 01b4 06E0     		b	.L27
 441              	.L42:
 194:Generated_Source\PSoC5/USBUART_hid.c ****                 
 442              		.loc 1 194 0
 443 01b6 00BF     		nop
 444 01b8 04E0     		b	.L27
 445              	.L43:
 212:Generated_Source\PSoC5/USBUART_hid.c ****                 
 446              		.loc 1 212 0
 447 01ba 00BF     		nop
ARM GAS  C:\Users\HPz420\AppData\Local\Temp\ccz6x7yl.s 			page 14


 448 01bc 02E0     		b	.L27
 449              	.L44:
 249:Generated_Source\PSoC5/USBUART_hid.c **** 
 450              		.loc 1 249 0
 451 01be 00BF     		nop
 452 01c0 00E0     		b	.L27
 453              	.L45:
 258:Generated_Source\PSoC5/USBUART_hid.c ****             
 454              		.loc 1 258 0
 455 01c2 00BF     		nop
 456              	.L27:
 263:Generated_Source\PSoC5/USBUART_hid.c ****         }
 264:Generated_Source\PSoC5/USBUART_hid.c ****     }
 265:Generated_Source\PSoC5/USBUART_hid.c **** 
 266:Generated_Source\PSoC5/USBUART_hid.c ****     return (requestHandled);
 457              		.loc 1 266 0
 458 01c4 FB79     		ldrb	r3, [r7, #7]	@ zero_extendqisi2
 267:Generated_Source\PSoC5/USBUART_hid.c **** }
 459              		.loc 1 267 0
 460 01c6 1846     		mov	r0, r3
 461 01c8 0837     		adds	r7, r7, #8
 462              		.cfi_def_cfa_offset 8
 463 01ca BD46     		mov	sp, r7
 464              		.cfi_def_cfa_register 13
 465              		@ sp needed
 466 01cc 80BD     		pop	{r7, pc}
 467              	.L47:
 468 01ce 00BF     		.align	2
 469              	.L46:
 470 01d0 00600040 		.word	1073766400
 471 01d4 00000000 		.word	USBUART_currentTD
 472 01d8 00000000 		.word	USBUART_hidIdleRate
 473 01dc 00000000 		.word	USBUART_hidProtocol
 474 01e0 00000000 		.word	USBUART_hidIdleTimer
 475              		.cfi_endproc
 476              	.LFE2:
 477              		.size	USBUART_DispatchHIDClassRqst, .-USBUART_DispatchHIDClassRqst
 478              		.section	.text.USBUART_FindHidClassDecriptor,"ax",%progbits
 479              		.align	2
 480              		.global	USBUART_FindHidClassDecriptor
 481              		.thumb
 482              		.thumb_func
 483              		.type	USBUART_FindHidClassDecriptor, %function
 484              	USBUART_FindHidClassDecriptor:
 485              	.LFB3:
 268:Generated_Source\PSoC5/USBUART_hid.c **** 
 269:Generated_Source\PSoC5/USBUART_hid.c **** 
 270:Generated_Source\PSoC5/USBUART_hid.c **** /*******************************************************************************
 271:Generated_Source\PSoC5/USBUART_hid.c **** * Function Name: USB_FindHidClassDescriptor
 272:Generated_Source\PSoC5/USBUART_hid.c **** ****************************************************************************//**
 273:Generated_Source\PSoC5/USBUART_hid.c **** *
 274:Generated_Source\PSoC5/USBUART_hid.c **** *  This routine find Hid Class Descriptor pointer based on the Interface number
 275:Generated_Source\PSoC5/USBUART_hid.c **** *  and Alternate setting then loads the currentTD structure with the address of
 276:Generated_Source\PSoC5/USBUART_hid.c **** *  the buffer and the size.
 277:Generated_Source\PSoC5/USBUART_hid.c **** *  The HID Class Descriptor resides inside the config descriptor.
 278:Generated_Source\PSoC5/USBUART_hid.c **** *
 279:Generated_Source\PSoC5/USBUART_hid.c **** * \return
ARM GAS  C:\Users\HPz420\AppData\Local\Temp\ccz6x7yl.s 			page 15


 280:Generated_Source\PSoC5/USBUART_hid.c **** *  currentTD
 281:Generated_Source\PSoC5/USBUART_hid.c **** *
 282:Generated_Source\PSoC5/USBUART_hid.c **** * \reentrant
 283:Generated_Source\PSoC5/USBUART_hid.c **** *  No.
 284:Generated_Source\PSoC5/USBUART_hid.c **** *
 285:Generated_Source\PSoC5/USBUART_hid.c **** *******************************************************************************/
 286:Generated_Source\PSoC5/USBUART_hid.c **** void USBUART_FindHidClassDecriptor(void) 
 287:Generated_Source\PSoC5/USBUART_hid.c **** {
 486              		.loc 1 287 0
 487              		.cfi_startproc
 488              		@ args = 0, pretend = 0, frame = 16
 489              		@ frame_needed = 1, uses_anonymous_args = 0
 490 0000 80B5     		push	{r7, lr}
 491              		.cfi_def_cfa_offset 8
 492              		.cfi_offset 7, -8
 493              		.cfi_offset 14, -4
 494 0002 84B0     		sub	sp, sp, #16
 495              		.cfi_def_cfa_offset 24
 496 0004 00AF     		add	r7, sp, #0
 497              		.cfi_def_cfa_register 7
 288:Generated_Source\PSoC5/USBUART_hid.c ****     const T_USBUART_LUT CYCODE *pTmp;
 289:Generated_Source\PSoC5/USBUART_hid.c ****     volatile uint8 *pDescr;
 290:Generated_Source\PSoC5/USBUART_hid.c ****     uint8 interfaceN;
 291:Generated_Source\PSoC5/USBUART_hid.c **** 
 292:Generated_Source\PSoC5/USBUART_hid.c ****     pTmp = USBUART_GetConfigTablePtr(USBUART_configuration - 1u);
 498              		.loc 1 292 0
 499 0006 194B     		ldr	r3, .L49
 500 0008 1B78     		ldrb	r3, [r3]
 501 000a DBB2     		uxtb	r3, r3
 502 000c 013B     		subs	r3, r3, #1
 503 000e DBB2     		uxtb	r3, r3
 504 0010 1846     		mov	r0, r3
 505 0012 FFF7FEFF 		bl	USBUART_GetConfigTablePtr
 506 0016 F860     		str	r0, [r7, #12]
 293:Generated_Source\PSoC5/USBUART_hid.c ****     
 294:Generated_Source\PSoC5/USBUART_hid.c ****     interfaceN = (uint8) USBUART_wIndexLoReg;
 507              		.loc 1 294 0
 508 0018 154B     		ldr	r3, .L49+4
 509 001a 1B79     		ldrb	r3, [r3, #4]
 510 001c FB72     		strb	r3, [r7, #11]
 295:Generated_Source\PSoC5/USBUART_hid.c ****     /* Third entry in the LUT starts the Interface Table pointers */
 296:Generated_Source\PSoC5/USBUART_hid.c ****     /* Now use the request interface number*/
 297:Generated_Source\PSoC5/USBUART_hid.c ****     pTmp = &pTmp[interfaceN + 2u];
 511              		.loc 1 297 0
 512 001e FB7A     		ldrb	r3, [r7, #11]	@ zero_extendqisi2
 513 0020 0233     		adds	r3, r3, #2
 514 0022 DB00     		lsls	r3, r3, #3
 515 0024 FA68     		ldr	r2, [r7, #12]
 516 0026 1344     		add	r3, r3, r2
 517 0028 FB60     		str	r3, [r7, #12]
 298:Generated_Source\PSoC5/USBUART_hid.c ****     
 299:Generated_Source\PSoC5/USBUART_hid.c ****     /* USB_DEVICEx_CONFIGURATIONy_INTERFACEz_TABLE */
 300:Generated_Source\PSoC5/USBUART_hid.c ****     pTmp = (const T_USBUART_LUT CYCODE *) pTmp->p_list;
 518              		.loc 1 300 0
 519 002a FB68     		ldr	r3, [r7, #12]
 520 002c 5B68     		ldr	r3, [r3, #4]
 521 002e FB60     		str	r3, [r7, #12]
ARM GAS  C:\Users\HPz420\AppData\Local\Temp\ccz6x7yl.s 			page 16


 301:Generated_Source\PSoC5/USBUART_hid.c ****     
 302:Generated_Source\PSoC5/USBUART_hid.c ****     /* Now use Alternate setting number */
 303:Generated_Source\PSoC5/USBUART_hid.c ****     pTmp = &pTmp[USBUART_interfaceSetting[interfaceN]];
 522              		.loc 1 303 0
 523 0030 FB7A     		ldrb	r3, [r7, #11]	@ zero_extendqisi2
 524 0032 104A     		ldr	r2, .L49+8
 525 0034 D35C     		ldrb	r3, [r2, r3]
 526 0036 DBB2     		uxtb	r3, r3
 527 0038 DB00     		lsls	r3, r3, #3
 528 003a FA68     		ldr	r2, [r7, #12]
 529 003c 1344     		add	r3, r3, r2
 530 003e FB60     		str	r3, [r7, #12]
 304:Generated_Source\PSoC5/USBUART_hid.c ****     
 305:Generated_Source\PSoC5/USBUART_hid.c ****     /* USB_DEVICEx_CONFIGURATIONy_INTERFACEz_ALTERNATEi_HID_TABLE */
 306:Generated_Source\PSoC5/USBUART_hid.c ****     pTmp = (const T_USBUART_LUT CYCODE *) pTmp->p_list;
 531              		.loc 1 306 0
 532 0040 FB68     		ldr	r3, [r7, #12]
 533 0042 5B68     		ldr	r3, [r3, #4]
 534 0044 FB60     		str	r3, [r7, #12]
 307:Generated_Source\PSoC5/USBUART_hid.c ****     
 308:Generated_Source\PSoC5/USBUART_hid.c ****     /* Fifth entry in the LUT points to Hid Class Descriptor in Configuration Descriptor */
 309:Generated_Source\PSoC5/USBUART_hid.c ****     pTmp = &pTmp[4u];
 535              		.loc 1 309 0
 536 0046 FB68     		ldr	r3, [r7, #12]
 537 0048 2033     		adds	r3, r3, #32
 538 004a FB60     		str	r3, [r7, #12]
 310:Generated_Source\PSoC5/USBUART_hid.c ****     pDescr = (volatile uint8 *)pTmp->p_list;
 539              		.loc 1 310 0
 540 004c FB68     		ldr	r3, [r7, #12]
 541 004e 5B68     		ldr	r3, [r3, #4]
 542 0050 7B60     		str	r3, [r7, #4]
 311:Generated_Source\PSoC5/USBUART_hid.c ****     
 312:Generated_Source\PSoC5/USBUART_hid.c ****     /* The first byte contains the descriptor length */
 313:Generated_Source\PSoC5/USBUART_hid.c ****     USBUART_currentTD.count = *pDescr;
 543              		.loc 1 313 0
 544 0052 7B68     		ldr	r3, [r7, #4]
 545 0054 1B78     		ldrb	r3, [r3]
 546 0056 DBB2     		uxtb	r3, r3
 547 0058 9AB2     		uxth	r2, r3
 548 005a 074B     		ldr	r3, .L49+12
 549 005c 1A80     		strh	r2, [r3]	@ movhi
 314:Generated_Source\PSoC5/USBUART_hid.c ****     USBUART_currentTD.pData = pDescr;
 550              		.loc 1 314 0
 551 005e 064A     		ldr	r2, .L49+12
 552 0060 7B68     		ldr	r3, [r7, #4]
 553 0062 5360     		str	r3, [r2, #4]
 315:Generated_Source\PSoC5/USBUART_hid.c **** }
 554              		.loc 1 315 0
 555 0064 00BF     		nop
 556 0066 1037     		adds	r7, r7, #16
 557              		.cfi_def_cfa_offset 8
 558 0068 BD46     		mov	sp, r7
 559              		.cfi_def_cfa_register 13
 560              		@ sp needed
 561 006a 80BD     		pop	{r7, pc}
 562              	.L50:
 563              		.align	2
ARM GAS  C:\Users\HPz420\AppData\Local\Temp\ccz6x7yl.s 			page 17


 564              	.L49:
 565 006c 00000000 		.word	USBUART_configuration
 566 0070 00600040 		.word	1073766400
 567 0074 00000000 		.word	USBUART_interfaceSetting
 568 0078 00000000 		.word	USBUART_currentTD
 569              		.cfi_endproc
 570              	.LFE3:
 571              		.size	USBUART_FindHidClassDecriptor, .-USBUART_FindHidClassDecriptor
 572              		.section	.text.USBUART_FindReportDescriptor,"ax",%progbits
 573              		.align	2
 574              		.global	USBUART_FindReportDescriptor
 575              		.thumb
 576              		.thumb_func
 577              		.type	USBUART_FindReportDescriptor, %function
 578              	USBUART_FindReportDescriptor:
 579              	.LFB4:
 316:Generated_Source\PSoC5/USBUART_hid.c **** 
 317:Generated_Source\PSoC5/USBUART_hid.c **** 
 318:Generated_Source\PSoC5/USBUART_hid.c **** /*******************************************************************************
 319:Generated_Source\PSoC5/USBUART_hid.c **** * Function Name: USB_FindReportDescriptor
 320:Generated_Source\PSoC5/USBUART_hid.c **** ****************************************************************************//**
 321:Generated_Source\PSoC5/USBUART_hid.c **** *
 322:Generated_Source\PSoC5/USBUART_hid.c **** *  This routine find Hid Report Descriptor pointer based on the Interface
 323:Generated_Source\PSoC5/USBUART_hid.c **** *  number, then loads the currentTD structure with the address of the buffer
 324:Generated_Source\PSoC5/USBUART_hid.c **** *  and the size.
 325:Generated_Source\PSoC5/USBUART_hid.c **** *  Hid Report Descriptor is located after IN/OUT/FEATURE reports.
 326:Generated_Source\PSoC5/USBUART_hid.c **** *
 327:Generated_Source\PSoC5/USBUART_hid.c **** * \return
 328:Generated_Source\PSoC5/USBUART_hid.c **** *  currentTD
 329:Generated_Source\PSoC5/USBUART_hid.c **** *
 330:Generated_Source\PSoC5/USBUART_hid.c **** * \reentrant
 331:Generated_Source\PSoC5/USBUART_hid.c **** *  No.
 332:Generated_Source\PSoC5/USBUART_hid.c **** *
 333:Generated_Source\PSoC5/USBUART_hid.c **** *******************************************************************************/
 334:Generated_Source\PSoC5/USBUART_hid.c **** void USBUART_FindReportDescriptor(void) 
 335:Generated_Source\PSoC5/USBUART_hid.c **** {
 580              		.loc 1 335 0
 581              		.cfi_startproc
 582              		@ args = 0, pretend = 0, frame = 16
 583              		@ frame_needed = 1, uses_anonymous_args = 0
 584 0000 80B5     		push	{r7, lr}
 585              		.cfi_def_cfa_offset 8
 586              		.cfi_offset 7, -8
 587              		.cfi_offset 14, -4
 588 0002 84B0     		sub	sp, sp, #16
 589              		.cfi_def_cfa_offset 24
 590 0004 00AF     		add	r7, sp, #0
 591              		.cfi_def_cfa_register 7
 336:Generated_Source\PSoC5/USBUART_hid.c ****     const T_USBUART_LUT CYCODE *pTmp;
 337:Generated_Source\PSoC5/USBUART_hid.c ****     volatile uint8 *pDescr;
 338:Generated_Source\PSoC5/USBUART_hid.c ****     uint8 interfaceN;
 339:Generated_Source\PSoC5/USBUART_hid.c **** 
 340:Generated_Source\PSoC5/USBUART_hid.c ****     pTmp = USBUART_GetConfigTablePtr(USBUART_configuration - 1u);
 592              		.loc 1 340 0
 593 0006 1E4B     		ldr	r3, .L52
 594 0008 1B78     		ldrb	r3, [r3]
 595 000a DBB2     		uxtb	r3, r3
ARM GAS  C:\Users\HPz420\AppData\Local\Temp\ccz6x7yl.s 			page 18


 596 000c 013B     		subs	r3, r3, #1
 597 000e DBB2     		uxtb	r3, r3
 598 0010 1846     		mov	r0, r3
 599 0012 FFF7FEFF 		bl	USBUART_GetConfigTablePtr
 600 0016 F860     		str	r0, [r7, #12]
 341:Generated_Source\PSoC5/USBUART_hid.c ****     interfaceN = (uint8) USBUART_wIndexLoReg;
 601              		.loc 1 341 0
 602 0018 1A4B     		ldr	r3, .L52+4
 603 001a 1B79     		ldrb	r3, [r3, #4]
 604 001c FB72     		strb	r3, [r7, #11]
 342:Generated_Source\PSoC5/USBUART_hid.c ****     
 343:Generated_Source\PSoC5/USBUART_hid.c ****     /* Third entry in the LUT starts the Interface Table pointers */
 344:Generated_Source\PSoC5/USBUART_hid.c ****     /* Now use the request interface number */
 345:Generated_Source\PSoC5/USBUART_hid.c ****     pTmp = &pTmp[interfaceN + 2u];
 605              		.loc 1 345 0
 606 001e FB7A     		ldrb	r3, [r7, #11]	@ zero_extendqisi2
 607 0020 0233     		adds	r3, r3, #2
 608 0022 DB00     		lsls	r3, r3, #3
 609 0024 FA68     		ldr	r2, [r7, #12]
 610 0026 1344     		add	r3, r3, r2
 611 0028 FB60     		str	r3, [r7, #12]
 346:Generated_Source\PSoC5/USBUART_hid.c ****     
 347:Generated_Source\PSoC5/USBUART_hid.c ****     /* USB_DEVICEx_CONFIGURATIONy_INTERFACEz_TABLE */
 348:Generated_Source\PSoC5/USBUART_hid.c ****     pTmp = (const T_USBUART_LUT CYCODE *) pTmp->p_list;
 612              		.loc 1 348 0
 613 002a FB68     		ldr	r3, [r7, #12]
 614 002c 5B68     		ldr	r3, [r3, #4]
 615 002e FB60     		str	r3, [r7, #12]
 349:Generated_Source\PSoC5/USBUART_hid.c ****     
 350:Generated_Source\PSoC5/USBUART_hid.c ****     /* Now use Alternate setting number */
 351:Generated_Source\PSoC5/USBUART_hid.c ****     pTmp = &pTmp[USBUART_interfaceSetting[interfaceN]];
 616              		.loc 1 351 0
 617 0030 FB7A     		ldrb	r3, [r7, #11]	@ zero_extendqisi2
 618 0032 154A     		ldr	r2, .L52+8
 619 0034 D35C     		ldrb	r3, [r2, r3]
 620 0036 DBB2     		uxtb	r3, r3
 621 0038 DB00     		lsls	r3, r3, #3
 622 003a FA68     		ldr	r2, [r7, #12]
 623 003c 1344     		add	r3, r3, r2
 624 003e FB60     		str	r3, [r7, #12]
 352:Generated_Source\PSoC5/USBUART_hid.c ****     
 353:Generated_Source\PSoC5/USBUART_hid.c ****     /* USB_DEVICEx_CONFIGURATIONy_INTERFACEz_ALTERNATEi_HID_TABLE */
 354:Generated_Source\PSoC5/USBUART_hid.c ****     pTmp = (const T_USBUART_LUT CYCODE *) pTmp->p_list;
 625              		.loc 1 354 0
 626 0040 FB68     		ldr	r3, [r7, #12]
 627 0042 5B68     		ldr	r3, [r3, #4]
 628 0044 FB60     		str	r3, [r7, #12]
 355:Generated_Source\PSoC5/USBUART_hid.c ****     
 356:Generated_Source\PSoC5/USBUART_hid.c ****     /* Fourth entry in the LUT starts the Hid Report Descriptor */
 357:Generated_Source\PSoC5/USBUART_hid.c ****     pTmp = &pTmp[3u];
 629              		.loc 1 357 0
 630 0046 FB68     		ldr	r3, [r7, #12]
 631 0048 1833     		adds	r3, r3, #24
 632 004a FB60     		str	r3, [r7, #12]
 358:Generated_Source\PSoC5/USBUART_hid.c ****     pDescr = (volatile uint8 *)pTmp->p_list;
 633              		.loc 1 358 0
 634 004c FB68     		ldr	r3, [r7, #12]
ARM GAS  C:\Users\HPz420\AppData\Local\Temp\ccz6x7yl.s 			page 19


 635 004e 5B68     		ldr	r3, [r3, #4]
 636 0050 7B60     		str	r3, [r7, #4]
 359:Generated_Source\PSoC5/USBUART_hid.c ****     
 360:Generated_Source\PSoC5/USBUART_hid.c ****     /* The 1st and 2nd bytes of descriptor contain its length. LSB is 1st. */
 361:Generated_Source\PSoC5/USBUART_hid.c ****     USBUART_currentTD.count =  ((uint16)((uint16) pDescr[1u] << 8u) | pDescr[0u]);
 637              		.loc 1 361 0
 638 0052 7B68     		ldr	r3, [r7, #4]
 639 0054 0133     		adds	r3, r3, #1
 640 0056 1B78     		ldrb	r3, [r3]
 641 0058 DBB2     		uxtb	r3, r3
 642 005a 9BB2     		uxth	r3, r3
 643 005c 1B02     		lsls	r3, r3, #8
 644 005e 9AB2     		uxth	r2, r3
 645 0060 7B68     		ldr	r3, [r7, #4]
 646 0062 1B78     		ldrb	r3, [r3]
 647 0064 DBB2     		uxtb	r3, r3
 648 0066 9BB2     		uxth	r3, r3
 649 0068 1343     		orrs	r3, r3, r2
 650 006a 9AB2     		uxth	r2, r3
 651 006c 074B     		ldr	r3, .L52+12
 652 006e 1A80     		strh	r2, [r3]	@ movhi
 362:Generated_Source\PSoC5/USBUART_hid.c ****     USBUART_currentTD.pData = &pDescr[2u];
 653              		.loc 1 362 0
 654 0070 7B68     		ldr	r3, [r7, #4]
 655 0072 0233     		adds	r3, r3, #2
 656 0074 054A     		ldr	r2, .L52+12
 657 0076 5360     		str	r3, [r2, #4]
 363:Generated_Source\PSoC5/USBUART_hid.c **** }
 658              		.loc 1 363 0
 659 0078 00BF     		nop
 660 007a 1037     		adds	r7, r7, #16
 661              		.cfi_def_cfa_offset 8
 662 007c BD46     		mov	sp, r7
 663              		.cfi_def_cfa_register 13
 664              		@ sp needed
 665 007e 80BD     		pop	{r7, pc}
 666              	.L53:
 667              		.align	2
 668              	.L52:
 669 0080 00000000 		.word	USBUART_configuration
 670 0084 00600040 		.word	1073766400
 671 0088 00000000 		.word	USBUART_interfaceSetting
 672 008c 00000000 		.word	USBUART_currentTD
 673              		.cfi_endproc
 674              	.LFE4:
 675              		.size	USBUART_FindReportDescriptor, .-USBUART_FindReportDescriptor
 676              		.section	.text.USBUART_FindReport,"ax",%progbits
 677              		.align	2
 678              		.global	USBUART_FindReport
 679              		.thumb
 680              		.thumb_func
 681              		.type	USBUART_FindReport, %function
 682              	USBUART_FindReport:
 683              	.LFB5:
 364:Generated_Source\PSoC5/USBUART_hid.c **** 
 365:Generated_Source\PSoC5/USBUART_hid.c **** 
 366:Generated_Source\PSoC5/USBUART_hid.c **** /*******************************************************************************
ARM GAS  C:\Users\HPz420\AppData\Local\Temp\ccz6x7yl.s 			page 20


 367:Generated_Source\PSoC5/USBUART_hid.c **** * Function Name: USBUART_FindReport
 368:Generated_Source\PSoC5/USBUART_hid.c **** ****************************************************************************//**
 369:Generated_Source\PSoC5/USBUART_hid.c **** *
 370:Generated_Source\PSoC5/USBUART_hid.c **** *  This routine sets up a transfer based on the Interface number, Report Type
 371:Generated_Source\PSoC5/USBUART_hid.c **** *  and Report ID, then loads the currentTD structure with the address of the
 372:Generated_Source\PSoC5/USBUART_hid.c **** *  buffer and the size.  The caller has to decide if it is a control read or
 373:Generated_Source\PSoC5/USBUART_hid.c **** *  control write.
 374:Generated_Source\PSoC5/USBUART_hid.c **** *
 375:Generated_Source\PSoC5/USBUART_hid.c **** * \return
 376:Generated_Source\PSoC5/USBUART_hid.c **** *  currentTD
 377:Generated_Source\PSoC5/USBUART_hid.c **** *
 378:Generated_Source\PSoC5/USBUART_hid.c **** * \reentrant
 379:Generated_Source\PSoC5/USBUART_hid.c **** *  No.
 380:Generated_Source\PSoC5/USBUART_hid.c **** *
 381:Generated_Source\PSoC5/USBUART_hid.c **** *******************************************************************************/
 382:Generated_Source\PSoC5/USBUART_hid.c **** void USBUART_FindReport(void) 
 383:Generated_Source\PSoC5/USBUART_hid.c **** {
 684              		.loc 1 383 0
 685              		.cfi_startproc
 686              		@ args = 0, pretend = 0, frame = 16
 687              		@ frame_needed = 1, uses_anonymous_args = 0
 688 0000 80B5     		push	{r7, lr}
 689              		.cfi_def_cfa_offset 8
 690              		.cfi_offset 7, -8
 691              		.cfi_offset 14, -4
 692 0002 84B0     		sub	sp, sp, #16
 693              		.cfi_def_cfa_offset 24
 694 0004 00AF     		add	r7, sp, #0
 695              		.cfi_def_cfa_register 7
 384:Generated_Source\PSoC5/USBUART_hid.c ****     const T_USBUART_LUT CYCODE *pTmp;
 385:Generated_Source\PSoC5/USBUART_hid.c ****     T_USBUART_TD *pTD;
 386:Generated_Source\PSoC5/USBUART_hid.c ****     uint8 reportType;
 387:Generated_Source\PSoC5/USBUART_hid.c ****     uint8 interfaceN;
 388:Generated_Source\PSoC5/USBUART_hid.c ****  
 389:Generated_Source\PSoC5/USBUART_hid.c ****     /* `#START HID_FINDREPORT` Place custom handling here */
 390:Generated_Source\PSoC5/USBUART_hid.c **** 
 391:Generated_Source\PSoC5/USBUART_hid.c ****     /* `#END` */
 392:Generated_Source\PSoC5/USBUART_hid.c ****     
 393:Generated_Source\PSoC5/USBUART_hid.c **** #ifdef USBUART_FIND_REPORT_CALLBACK
 394:Generated_Source\PSoC5/USBUART_hid.c ****     USBUART_FindReport_Callback();
 395:Generated_Source\PSoC5/USBUART_hid.c **** #endif /* (USBUART_FIND_REPORT_CALLBACK) */
 396:Generated_Source\PSoC5/USBUART_hid.c ****     
 397:Generated_Source\PSoC5/USBUART_hid.c ****     USBUART_currentTD.count = 0u;   /* Init not supported condition */
 696              		.loc 1 397 0
 697 0006 2D4B     		ldr	r3, .L57
 698 0008 0022     		movs	r2, #0
 699 000a 1A80     		strh	r2, [r3]	@ movhi
 398:Generated_Source\PSoC5/USBUART_hid.c ****     pTmp = USBUART_GetConfigTablePtr(USBUART_configuration - 1u);
 700              		.loc 1 398 0
 701 000c 2C4B     		ldr	r3, .L57+4
 702 000e 1B78     		ldrb	r3, [r3]
 703 0010 DBB2     		uxtb	r3, r3
 704 0012 013B     		subs	r3, r3, #1
 705 0014 DBB2     		uxtb	r3, r3
 706 0016 1846     		mov	r0, r3
 707 0018 FFF7FEFF 		bl	USBUART_GetConfigTablePtr
 708 001c F860     		str	r0, [r7, #12]
ARM GAS  C:\Users\HPz420\AppData\Local\Temp\ccz6x7yl.s 			page 21


 399:Generated_Source\PSoC5/USBUART_hid.c ****     reportType = (uint8) USBUART_wValueHiReg;
 709              		.loc 1 399 0
 710 001e 294B     		ldr	r3, .L57+8
 711 0020 DB78     		ldrb	r3, [r3, #3]
 712 0022 FB72     		strb	r3, [r7, #11]
 400:Generated_Source\PSoC5/USBUART_hid.c ****     interfaceN = (uint8) USBUART_wIndexLoReg;
 713              		.loc 1 400 0
 714 0024 274B     		ldr	r3, .L57+8
 715 0026 1B79     		ldrb	r3, [r3, #4]
 716 0028 BB72     		strb	r3, [r7, #10]
 401:Generated_Source\PSoC5/USBUART_hid.c ****     
 402:Generated_Source\PSoC5/USBUART_hid.c ****     /* Third entry in the LUT Configuration Table starts the Interface Table pointers */
 403:Generated_Source\PSoC5/USBUART_hid.c ****     /* Now use the request interface number */
 404:Generated_Source\PSoC5/USBUART_hid.c ****     pTmp = &pTmp[interfaceN + 2u];
 717              		.loc 1 404 0
 718 002a BB7A     		ldrb	r3, [r7, #10]	@ zero_extendqisi2
 719 002c 0233     		adds	r3, r3, #2
 720 002e DB00     		lsls	r3, r3, #3
 721 0030 FA68     		ldr	r2, [r7, #12]
 722 0032 1344     		add	r3, r3, r2
 723 0034 FB60     		str	r3, [r7, #12]
 405:Generated_Source\PSoC5/USBUART_hid.c ****     
 406:Generated_Source\PSoC5/USBUART_hid.c ****     /* USB_DEVICEx_CONFIGURATIONy_INTERFACEz_TABLE */
 407:Generated_Source\PSoC5/USBUART_hid.c ****     pTmp = (const T_USBUART_LUT CYCODE *) pTmp->p_list;
 724              		.loc 1 407 0
 725 0036 FB68     		ldr	r3, [r7, #12]
 726 0038 5B68     		ldr	r3, [r3, #4]
 727 003a FB60     		str	r3, [r7, #12]
 408:Generated_Source\PSoC5/USBUART_hid.c ****     if (interfaceN < USBUART_MAX_INTERFACES_NUMBER)
 728              		.loc 1 408 0
 729 003c BB7A     		ldrb	r3, [r7, #10]	@ zero_extendqisi2
 730 003e 012B     		cmp	r3, #1
 731 0040 38D8     		bhi	.L56
 409:Generated_Source\PSoC5/USBUART_hid.c ****     {
 410:Generated_Source\PSoC5/USBUART_hid.c ****         /* Now use Alternate setting number */
 411:Generated_Source\PSoC5/USBUART_hid.c ****         pTmp = &pTmp[USBUART_interfaceSetting[interfaceN]];
 732              		.loc 1 411 0
 733 0042 BB7A     		ldrb	r3, [r7, #10]	@ zero_extendqisi2
 734 0044 204A     		ldr	r2, .L57+12
 735 0046 D35C     		ldrb	r3, [r2, r3]
 736 0048 DBB2     		uxtb	r3, r3
 737 004a DB00     		lsls	r3, r3, #3
 738 004c FA68     		ldr	r2, [r7, #12]
 739 004e 1344     		add	r3, r3, r2
 740 0050 FB60     		str	r3, [r7, #12]
 412:Generated_Source\PSoC5/USBUART_hid.c ****         
 413:Generated_Source\PSoC5/USBUART_hid.c ****         /* USB_DEVICEx_CONFIGURATIONy_INTERFACEz_ALTERNATEi_HID_TABLE */
 414:Generated_Source\PSoC5/USBUART_hid.c ****         pTmp = (const T_USBUART_LUT CYCODE *) pTmp->p_list;
 741              		.loc 1 414 0
 742 0052 FB68     		ldr	r3, [r7, #12]
 743 0054 5B68     		ldr	r3, [r3, #4]
 744 0056 FB60     		str	r3, [r7, #12]
 415:Generated_Source\PSoC5/USBUART_hid.c ****         
 416:Generated_Source\PSoC5/USBUART_hid.c ****         /* Validate reportType to comply with "7.2.1 Get_Report Request" */
 417:Generated_Source\PSoC5/USBUART_hid.c ****         if ((reportType >= USBUART_HID_GET_REPORT_INPUT) &&
 745              		.loc 1 417 0
 746 0058 FB7A     		ldrb	r3, [r7, #11]	@ zero_extendqisi2
ARM GAS  C:\Users\HPz420\AppData\Local\Temp\ccz6x7yl.s 			page 22


 747 005a 002B     		cmp	r3, #0
 748 005c 2AD0     		beq	.L56
 749              		.loc 1 417 0 is_stmt 0 discriminator 1
 750 005e FB7A     		ldrb	r3, [r7, #11]	@ zero_extendqisi2
 751 0060 032B     		cmp	r3, #3
 752 0062 27D8     		bhi	.L56
 418:Generated_Source\PSoC5/USBUART_hid.c ****             (reportType <= USBUART_HID_GET_REPORT_FEATURE))
 419:Generated_Source\PSoC5/USBUART_hid.c ****         {
 420:Generated_Source\PSoC5/USBUART_hid.c ****             /* Get the entry proper TD (IN, OUT or Feature Report Table)*/
 421:Generated_Source\PSoC5/USBUART_hid.c ****             pTmp = &pTmp[reportType - 1u];
 753              		.loc 1 421 0 is_stmt 1
 754 0064 FB7A     		ldrb	r3, [r7, #11]	@ zero_extendqisi2
 755 0066 03F10053 		add	r3, r3, #536870912
 756 006a 013B     		subs	r3, r3, #1
 757 006c DB00     		lsls	r3, r3, #3
 758 006e FA68     		ldr	r2, [r7, #12]
 759 0070 1344     		add	r3, r3, r2
 760 0072 FB60     		str	r3, [r7, #12]
 422:Generated_Source\PSoC5/USBUART_hid.c ****             
 423:Generated_Source\PSoC5/USBUART_hid.c ****             /* Get reportID */
 424:Generated_Source\PSoC5/USBUART_hid.c ****             reportType = (uint8) USBUART_wValueLoReg;
 761              		.loc 1 424 0
 762 0074 134B     		ldr	r3, .L57+8
 763 0076 9B78     		ldrb	r3, [r3, #2]
 764 0078 FB72     		strb	r3, [r7, #11]
 425:Generated_Source\PSoC5/USBUART_hid.c ****             
 426:Generated_Source\PSoC5/USBUART_hid.c ****             /* Validate table support by the HID descriptor, compare table count with reportID */
 427:Generated_Source\PSoC5/USBUART_hid.c ****             if (pTmp->c >= reportType)
 765              		.loc 1 427 0
 766 007a FB68     		ldr	r3, [r7, #12]
 767 007c 1B78     		ldrb	r3, [r3]	@ zero_extendqisi2
 768 007e FA7A     		ldrb	r2, [r7, #11]	@ zero_extendqisi2
 769 0080 9A42     		cmp	r2, r3
 770 0082 17D8     		bhi	.L56
 428:Generated_Source\PSoC5/USBUART_hid.c ****             {
 429:Generated_Source\PSoC5/USBUART_hid.c ****                 pTD = (T_USBUART_TD *) pTmp->p_list;
 771              		.loc 1 429 0
 772 0084 FB68     		ldr	r3, [r7, #12]
 773 0086 5B68     		ldr	r3, [r3, #4]
 774 0088 7B60     		str	r3, [r7, #4]
 430:Generated_Source\PSoC5/USBUART_hid.c ****                 pTD = &pTD[reportType];                          /* select entry depend on report I
 775              		.loc 1 430 0
 776 008a FA7A     		ldrb	r2, [r7, #11]	@ zero_extendqisi2
 777 008c 1346     		mov	r3, r2
 778 008e 5B00     		lsls	r3, r3, #1
 779 0090 1344     		add	r3, r3, r2
 780 0092 9B00     		lsls	r3, r3, #2
 781 0094 1A46     		mov	r2, r3
 782 0096 7B68     		ldr	r3, [r7, #4]
 783 0098 1344     		add	r3, r3, r2
 784 009a 7B60     		str	r3, [r7, #4]
 431:Generated_Source\PSoC5/USBUART_hid.c ****                 USBUART_currentTD.pData = pTD->pData;   /* Buffer pointer */
 785              		.loc 1 431 0
 786 009c 7B68     		ldr	r3, [r7, #4]
 787 009e 5B68     		ldr	r3, [r3, #4]
 788 00a0 064A     		ldr	r2, .L57
 789 00a2 5360     		str	r3, [r2, #4]
ARM GAS  C:\Users\HPz420\AppData\Local\Temp\ccz6x7yl.s 			page 23


 432:Generated_Source\PSoC5/USBUART_hid.c ****                 USBUART_currentTD.count = pTD->count;   /* Buffer Size */
 790              		.loc 1 432 0
 791 00a4 7B68     		ldr	r3, [r7, #4]
 792 00a6 1A88     		ldrh	r2, [r3]
 793 00a8 044B     		ldr	r3, .L57
 794 00aa 1A80     		strh	r2, [r3]	@ movhi
 433:Generated_Source\PSoC5/USBUART_hid.c ****                 USBUART_currentTD.pStatusBlock = pTD->pStatusBlock;
 795              		.loc 1 433 0
 796 00ac 7B68     		ldr	r3, [r7, #4]
 797 00ae 9B68     		ldr	r3, [r3, #8]
 798 00b0 024A     		ldr	r2, .L57
 799 00b2 9360     		str	r3, [r2, #8]
 800              	.L56:
 434:Generated_Source\PSoC5/USBUART_hid.c ****             }
 435:Generated_Source\PSoC5/USBUART_hid.c ****         }
 436:Generated_Source\PSoC5/USBUART_hid.c ****     }
 437:Generated_Source\PSoC5/USBUART_hid.c **** }
 801              		.loc 1 437 0
 802 00b4 00BF     		nop
 803 00b6 1037     		adds	r7, r7, #16
 804              		.cfi_def_cfa_offset 8
 805 00b8 BD46     		mov	sp, r7
 806              		.cfi_def_cfa_register 13
 807              		@ sp needed
 808 00ba 80BD     		pop	{r7, pc}
 809              	.L58:
 810              		.align	2
 811              	.L57:
 812 00bc 00000000 		.word	USBUART_currentTD
 813 00c0 00000000 		.word	USBUART_configuration
 814 00c4 00600040 		.word	1073766400
 815 00c8 00000000 		.word	USBUART_interfaceSetting
 816              		.cfi_endproc
 817              	.LFE5:
 818              		.size	USBUART_FindReport, .-USBUART_FindReport
 819              		.text
 820              	.Letext0:
 821              		.file 2 "Generated_Source\\PSoC5\\cytypes.h"
 822              		.file 3 "Generated_Source\\PSoC5\\USBUART.h"
 823              		.file 4 "Generated_Source\\PSoC5\\USBUART_pvt.h"
 824              		.section	.debug_info,"",%progbits
 825              	.Ldebug_info0:
 826 0000 77030000 		.4byte	0x377
 827 0004 0400     		.2byte	0x4
 828 0006 00000000 		.4byte	.Ldebug_abbrev0
 829 000a 04       		.byte	0x4
 830 000b 01       		.uleb128 0x1
 831 000c 2A000000 		.4byte	.LASF47
 832 0010 0C       		.byte	0xc
 833 0011 B9010000 		.4byte	.LASF48
 834 0015 53030000 		.4byte	.LASF49
 835 0019 00000000 		.4byte	.Ldebug_ranges0+0
 836 001d 00000000 		.4byte	0
 837 0021 00000000 		.4byte	.Ldebug_line0
 838 0025 02       		.uleb128 0x2
 839 0026 01       		.byte	0x1
 840 0027 06       		.byte	0x6
ARM GAS  C:\Users\HPz420\AppData\Local\Temp\ccz6x7yl.s 			page 24


 841 0028 47030000 		.4byte	.LASF0
 842 002c 02       		.uleb128 0x2
 843 002d 01       		.byte	0x1
 844 002e 08       		.byte	0x8
 845 002f 28010000 		.4byte	.LASF1
 846 0033 02       		.uleb128 0x2
 847 0034 02       		.byte	0x2
 848 0035 05       		.byte	0x5
 849 0036 D7020000 		.4byte	.LASF2
 850 003a 02       		.uleb128 0x2
 851 003b 02       		.byte	0x2
 852 003c 07       		.byte	0x7
 853 003d BE000000 		.4byte	.LASF3
 854 0041 02       		.uleb128 0x2
 855 0042 04       		.byte	0x4
 856 0043 05       		.byte	0x5
 857 0044 19030000 		.4byte	.LASF4
 858 0048 02       		.uleb128 0x2
 859 0049 04       		.byte	0x4
 860 004a 07       		.byte	0x7
 861 004b 57010000 		.4byte	.LASF5
 862 004f 02       		.uleb128 0x2
 863 0050 08       		.byte	0x8
 864 0051 05       		.byte	0x5
 865 0052 AC020000 		.4byte	.LASF6
 866 0056 02       		.uleb128 0x2
 867 0057 08       		.byte	0x8
 868 0058 07       		.byte	0x7
 869 0059 1D020000 		.4byte	.LASF7
 870 005d 03       		.uleb128 0x3
 871 005e 04       		.byte	0x4
 872 005f 05       		.byte	0x5
 873 0060 696E7400 		.ascii	"int\000"
 874 0064 02       		.uleb128 0x2
 875 0065 04       		.byte	0x4
 876 0066 07       		.byte	0x7
 877 0067 E5010000 		.4byte	.LASF8
 878 006b 04       		.uleb128 0x4
 879 006c 69010000 		.4byte	.LASF9
 880 0070 02       		.byte	0x2
 881 0071 E401     		.2byte	0x1e4
 882 0073 2C000000 		.4byte	0x2c
 883 0077 04       		.uleb128 0x4
 884 0078 B2010000 		.4byte	.LASF10
 885 007c 02       		.byte	0x2
 886 007d E501     		.2byte	0x1e5
 887 007f 3A000000 		.4byte	0x3a
 888 0083 02       		.uleb128 0x2
 889 0084 04       		.byte	0x4
 890 0085 04       		.byte	0x4
 891 0086 17010000 		.4byte	.LASF11
 892 008a 02       		.uleb128 0x2
 893 008b 08       		.byte	0x8
 894 008c 04       		.byte	0x4
 895 008d 99010000 		.4byte	.LASF12
 896 0091 02       		.uleb128 0x2
 897 0092 01       		.byte	0x1
ARM GAS  C:\Users\HPz420\AppData\Local\Temp\ccz6x7yl.s 			page 25


 898 0093 08       		.byte	0x8
 899 0094 CD020000 		.4byte	.LASF13
 900 0098 05       		.uleb128 0x5
 901 0099 6B000000 		.4byte	0x6b
 902 009d 02       		.uleb128 0x2
 903 009e 08       		.byte	0x8
 904 009f 04       		.byte	0x4
 905 00a0 3B030000 		.4byte	.LASF14
 906 00a4 02       		.uleb128 0x2
 907 00a5 04       		.byte	0x4
 908 00a6 07       		.byte	0x7
 909 00a7 8D020000 		.4byte	.LASF15
 910 00ab 06       		.uleb128 0x6
 911 00ac 04       		.byte	0x4
 912 00ad 03       		.byte	0x3
 913 00ae A8       		.byte	0xa8
 914 00af CC000000 		.4byte	0xcc
 915 00b3 07       		.uleb128 0x7
 916 00b4 E6000000 		.4byte	.LASF16
 917 00b8 03       		.byte	0x3
 918 00b9 AA       		.byte	0xaa
 919 00ba 6B000000 		.4byte	0x6b
 920 00be 00       		.byte	0
 921 00bf 07       		.uleb128 0x7
 922 00c0 F5020000 		.4byte	.LASF17
 923 00c4 03       		.byte	0x3
 924 00c5 AB       		.byte	0xab
 925 00c6 77000000 		.4byte	0x77
 926 00ca 02       		.byte	0x2
 927 00cb 00       		.byte	0
 928 00cc 08       		.uleb128 0x8
 929 00cd 59020000 		.4byte	.LASF18
 930 00d1 03       		.byte	0x3
 931 00d2 AC       		.byte	0xac
 932 00d3 AB000000 		.4byte	0xab
 933 00d7 06       		.uleb128 0x6
 934 00d8 0C       		.byte	0xc
 935 00d9 03       		.byte	0x3
 936 00da AE       		.byte	0xae
 937 00db 04010000 		.4byte	0x104
 938 00df 07       		.uleb128 0x7
 939 00e0 B8000000 		.4byte	.LASF19
 940 00e4 03       		.byte	0x3
 941 00e5 B0       		.byte	0xb0
 942 00e6 77000000 		.4byte	0x77
 943 00ea 00       		.byte	0
 944 00eb 07       		.uleb128 0x7
 945 00ec 0A010000 		.4byte	.LASF20
 946 00f0 03       		.byte	0x3
 947 00f1 B1       		.byte	0xb1
 948 00f2 04010000 		.4byte	0x104
 949 00f6 04       		.byte	0x4
 950 00f7 07       		.uleb128 0x7
 951 00f8 1D000000 		.4byte	.LASF21
 952 00fc 03       		.byte	0x3
 953 00fd B2       		.byte	0xb2
 954 00fe 0A010000 		.4byte	0x10a
ARM GAS  C:\Users\HPz420\AppData\Local\Temp\ccz6x7yl.s 			page 26


 955 0102 08       		.byte	0x8
 956 0103 00       		.byte	0
 957 0104 09       		.uleb128 0x9
 958 0105 04       		.byte	0x4
 959 0106 98000000 		.4byte	0x98
 960 010a 09       		.uleb128 0x9
 961 010b 04       		.byte	0x4
 962 010c CC000000 		.4byte	0xcc
 963 0110 08       		.uleb128 0x8
 964 0111 4A010000 		.4byte	.LASF22
 965 0115 03       		.byte	0x3
 966 0116 B3       		.byte	0xb3
 967 0117 D7000000 		.4byte	0xd7
 968 011b 06       		.uleb128 0x6
 969 011c 08       		.byte	0x8
 970 011d 03       		.byte	0x3
 971 011e B5       		.byte	0xb5
 972 011f 3A010000 		.4byte	0x13a
 973 0123 0A       		.uleb128 0xa
 974 0124 6300     		.ascii	"c\000"
 975 0126 03       		.byte	0x3
 976 0127 B7       		.byte	0xb7
 977 0128 6B000000 		.4byte	0x6b
 978 012c 00       		.byte	0
 979 012d 07       		.uleb128 0x7
 980 012e 52020000 		.4byte	.LASF23
 981 0132 03       		.byte	0x3
 982 0133 B8       		.byte	0xb8
 983 0134 3A010000 		.4byte	0x13a
 984 0138 04       		.byte	0x4
 985 0139 00       		.byte	0
 986 013a 09       		.uleb128 0x9
 987 013b 04       		.byte	0x4
 988 013c 40010000 		.4byte	0x140
 989 0140 0B       		.uleb128 0xb
 990 0141 08       		.uleb128 0x8
 991 0142 0B030000 		.4byte	.LASF24
 992 0146 03       		.byte	0x3
 993 0147 B9       		.byte	0xb9
 994 0148 1B010000 		.4byte	0x11b
 995 014c 06       		.uleb128 0x6
 996 014d 08       		.byte	0x8
 997 014e 03       		.byte	0x3
 998 014f C9       		.byte	0xc9
 999 0150 61010000 		.4byte	0x161
 1000 0154 07       		.uleb128 0x7
 1001 0155 10010000 		.4byte	.LASF25
 1002 0159 03       		.byte	0x3
 1003 015a CB       		.byte	0xcb
 1004 015b 61010000 		.4byte	0x161
 1005 015f 00       		.byte	0
 1006 0160 00       		.byte	0
 1007 0161 0C       		.uleb128 0xc
 1008 0162 6B000000 		.4byte	0x6b
 1009 0166 71010000 		.4byte	0x171
 1010 016a 0D       		.uleb128 0xd
 1011 016b A4000000 		.4byte	0xa4
ARM GAS  C:\Users\HPz420\AppData\Local\Temp\ccz6x7yl.s 			page 27


 1012 016f 07       		.byte	0x7
 1013 0170 00       		.byte	0
 1014 0171 08       		.uleb128 0x8
 1015 0172 75020000 		.4byte	.LASF26
 1016 0176 03       		.byte	0x3
 1017 0177 CC       		.byte	0xcc
 1018 0178 4C010000 		.4byte	0x14c
 1019 017c 0E       		.uleb128 0xe
 1020 017d 06020000 		.4byte	.LASF27
 1021 0181 01       		.byte	0x1
 1022 0182 4C       		.byte	0x4c
 1023 0183 6B000000 		.4byte	0x6b
 1024 0187 00000000 		.4byte	.LFB0
 1025 018b 64000000 		.4byte	.LFE0-.LFB0
 1026 018f 01       		.uleb128 0x1
 1027 0190 9C       		.byte	0x9c
 1028 0191 B2010000 		.4byte	0x1b2
 1029 0195 0F       		.uleb128 0xf
 1030 0196 D1000000 		.4byte	.LASF29
 1031 019a 01       		.byte	0x1
 1032 019b 4C       		.byte	0x4c
 1033 019c 6B000000 		.4byte	0x6b
 1034 01a0 02       		.uleb128 0x2
 1035 01a1 91       		.byte	0x91
 1036 01a2 6F       		.sleb128 -17
 1037 01a3 10       		.uleb128 0x10
 1038 01a4 7F010000 		.4byte	.LASF31
 1039 01a8 01       		.byte	0x1
 1040 01a9 4E       		.byte	0x4e
 1041 01aa 6B000000 		.4byte	0x6b
 1042 01ae 02       		.uleb128 0x2
 1043 01af 91       		.byte	0x91
 1044 01b0 77       		.sleb128 -9
 1045 01b1 00       		.byte	0
 1046 01b2 0E       		.uleb128 0xe
 1047 01b3 E1020000 		.4byte	.LASF28
 1048 01b7 01       		.byte	0x1
 1049 01b8 6E       		.byte	0x6e
 1050 01b9 6B000000 		.4byte	0x6b
 1051 01bd 00000000 		.4byte	.LFB1
 1052 01c1 20000000 		.4byte	.LFE1-.LFB1
 1053 01c5 01       		.uleb128 0x1
 1054 01c6 9C       		.byte	0x9c
 1055 01c7 DA010000 		.4byte	0x1da
 1056 01cb 0F       		.uleb128 0xf
 1057 01cc D1000000 		.4byte	.LASF29
 1058 01d0 01       		.byte	0x1
 1059 01d1 6E       		.byte	0x6e
 1060 01d2 6B000000 		.4byte	0x6b
 1061 01d6 02       		.uleb128 0x2
 1062 01d7 91       		.byte	0x91
 1063 01d8 77       		.sleb128 -9
 1064 01d9 00       		.byte	0
 1065 01da 11       		.uleb128 0x11
 1066 01db 00000000 		.4byte	.LASF30
 1067 01df 01       		.byte	0x1
 1068 01e0 83       		.byte	0x83
ARM GAS  C:\Users\HPz420\AppData\Local\Temp\ccz6x7yl.s 			page 28


 1069 01e1 6B000000 		.4byte	0x6b
 1070 01e5 00000000 		.4byte	.LFB2
 1071 01e9 E4010000 		.4byte	.LFE2-.LFB2
 1072 01ed 01       		.uleb128 0x1
 1073 01ee 9C       		.byte	0x9c
 1074 01ef 10020000 		.4byte	0x210
 1075 01f3 10       		.uleb128 0x10
 1076 01f4 FC020000 		.4byte	.LASF32
 1077 01f8 01       		.byte	0x1
 1078 01f9 85       		.byte	0x85
 1079 01fa 6B000000 		.4byte	0x6b
 1080 01fe 02       		.uleb128 0x2
 1081 01ff 91       		.byte	0x91
 1082 0200 77       		.sleb128 -9
 1083 0201 10       		.uleb128 0x10
 1084 0202 6F010000 		.4byte	.LASF33
 1085 0206 01       		.byte	0x1
 1086 0207 87       		.byte	0x87
 1087 0208 6B000000 		.4byte	0x6b
 1088 020c 02       		.uleb128 0x2
 1089 020d 91       		.byte	0x91
 1090 020e 76       		.sleb128 -10
 1091 020f 00       		.byte	0
 1092 0210 12       		.uleb128 0x12
 1093 0211 34020000 		.4byte	.LASF37
 1094 0215 01       		.byte	0x1
 1095 0216 1E01     		.2byte	0x11e
 1096 0218 00000000 		.4byte	.LFB3
 1097 021c 7C000000 		.4byte	.LFE3-.LFB3
 1098 0220 01       		.uleb128 0x1
 1099 0221 9C       		.byte	0x9c
 1100 0222 54020000 		.4byte	0x254
 1101 0226 13       		.uleb128 0x13
 1102 0227 D2020000 		.4byte	.LASF34
 1103 022b 01       		.byte	0x1
 1104 022c 2001     		.2byte	0x120
 1105 022e 54020000 		.4byte	0x254
 1106 0232 02       		.uleb128 0x2
 1107 0233 91       		.byte	0x91
 1108 0234 74       		.sleb128 -12
 1109 0235 13       		.uleb128 0x13
 1110 0236 DE010000 		.4byte	.LASF35
 1111 023a 01       		.byte	0x1
 1112 023b 2101     		.2byte	0x121
 1113 023d 04010000 		.4byte	0x104
 1114 0241 02       		.uleb128 0x2
 1115 0242 91       		.byte	0x91
 1116 0243 6C       		.sleb128 -20
 1117 0244 13       		.uleb128 0x13
 1118 0245 DB000000 		.4byte	.LASF36
 1119 0249 01       		.byte	0x1
 1120 024a 2201     		.2byte	0x122
 1121 024c 6B000000 		.4byte	0x6b
 1122 0250 02       		.uleb128 0x2
 1123 0251 91       		.byte	0x91
 1124 0252 73       		.sleb128 -13
 1125 0253 00       		.byte	0
ARM GAS  C:\Users\HPz420\AppData\Local\Temp\ccz6x7yl.s 			page 29


 1126 0254 09       		.uleb128 0x9
 1127 0255 04       		.byte	0x4
 1128 0256 5A020000 		.4byte	0x25a
 1129 025a 14       		.uleb128 0x14
 1130 025b 41010000 		.4byte	0x141
 1131 025f 12       		.uleb128 0x12
 1132 0260 ED000000 		.4byte	.LASF38
 1133 0264 01       		.byte	0x1
 1134 0265 4E01     		.2byte	0x14e
 1135 0267 00000000 		.4byte	.LFB4
 1136 026b 90000000 		.4byte	.LFE4-.LFB4
 1137 026f 01       		.uleb128 0x1
 1138 0270 9C       		.byte	0x9c
 1139 0271 A3020000 		.4byte	0x2a3
 1140 0275 13       		.uleb128 0x13
 1141 0276 D2020000 		.4byte	.LASF34
 1142 027a 01       		.byte	0x1
 1143 027b 5001     		.2byte	0x150
 1144 027d 54020000 		.4byte	0x254
 1145 0281 02       		.uleb128 0x2
 1146 0282 91       		.byte	0x91
 1147 0283 74       		.sleb128 -12
 1148 0284 13       		.uleb128 0x13
 1149 0285 DE010000 		.4byte	.LASF35
 1150 0289 01       		.byte	0x1
 1151 028a 5101     		.2byte	0x151
 1152 028c 04010000 		.4byte	0x104
 1153 0290 02       		.uleb128 0x2
 1154 0291 91       		.byte	0x91
 1155 0292 6C       		.sleb128 -20
 1156 0293 13       		.uleb128 0x13
 1157 0294 DB000000 		.4byte	.LASF36
 1158 0298 01       		.byte	0x1
 1159 0299 5201     		.2byte	0x152
 1160 029b 6B000000 		.4byte	0x6b
 1161 029f 02       		.uleb128 0x2
 1162 02a0 91       		.byte	0x91
 1163 02a1 73       		.sleb128 -13
 1164 02a2 00       		.byte	0
 1165 02a3 12       		.uleb128 0x12
 1166 02a4 BA020000 		.4byte	.LASF39
 1167 02a8 01       		.byte	0x1
 1168 02a9 7E01     		.2byte	0x17e
 1169 02ab 00000000 		.4byte	.LFB5
 1170 02af CC000000 		.4byte	.LFE5-.LFB5
 1171 02b3 01       		.uleb128 0x1
 1172 02b4 9C       		.byte	0x9c
 1173 02b5 F6020000 		.4byte	0x2f6
 1174 02b9 13       		.uleb128 0x13
 1175 02ba D2020000 		.4byte	.LASF34
 1176 02be 01       		.byte	0x1
 1177 02bf 8001     		.2byte	0x180
 1178 02c1 54020000 		.4byte	0x254
 1179 02c5 02       		.uleb128 0x2
 1180 02c6 91       		.byte	0x91
 1181 02c7 74       		.sleb128 -12
 1182 02c8 15       		.uleb128 0x15
ARM GAS  C:\Users\HPz420\AppData\Local\Temp\ccz6x7yl.s 			page 30


 1183 02c9 70544400 		.ascii	"pTD\000"
 1184 02cd 01       		.byte	0x1
 1185 02ce 8101     		.2byte	0x181
 1186 02d0 F6020000 		.4byte	0x2f6
 1187 02d4 02       		.uleb128 0x2
 1188 02d5 91       		.byte	0x91
 1189 02d6 6C       		.sleb128 -20
 1190 02d7 13       		.uleb128 0x13
 1191 02d8 1D010000 		.4byte	.LASF40
 1192 02dc 01       		.byte	0x1
 1193 02dd 8201     		.2byte	0x182
 1194 02df 6B000000 		.4byte	0x6b
 1195 02e3 02       		.uleb128 0x2
 1196 02e4 91       		.byte	0x91
 1197 02e5 73       		.sleb128 -13
 1198 02e6 13       		.uleb128 0x13
 1199 02e7 DB000000 		.4byte	.LASF36
 1200 02eb 01       		.byte	0x1
 1201 02ec 8301     		.2byte	0x183
 1202 02ee 6B000000 		.4byte	0x6b
 1203 02f2 02       		.uleb128 0x2
 1204 02f3 91       		.byte	0x91
 1205 02f4 72       		.sleb128 -14
 1206 02f5 00       		.byte	0
 1207 02f6 09       		.uleb128 0x9
 1208 02f7 04       		.byte	0x4
 1209 02f8 10010000 		.4byte	0x110
 1210 02fc 16       		.uleb128 0x16
 1211 02fd 96020000 		.4byte	.LASF41
 1212 0301 03       		.byte	0x3
 1213 0302 D802     		.2byte	0x2d8
 1214 0304 98000000 		.4byte	0x98
 1215 0308 0C       		.uleb128 0xc
 1216 0309 98000000 		.4byte	0x98
 1217 030d 18030000 		.4byte	0x318
 1218 0311 0D       		.uleb128 0xd
 1219 0312 A4000000 		.4byte	0xa4
 1220 0316 01       		.byte	0x1
 1221 0317 00       		.byte	0
 1222 0318 17       		.uleb128 0x17
 1223 0319 F2010000 		.4byte	.LASF42
 1224 031d 01       		.byte	0x1
 1225 031e 21       		.byte	0x21
 1226 031f 29030000 		.4byte	0x329
 1227 0323 05       		.uleb128 0x5
 1228 0324 03       		.byte	0x3
 1229 0325 00000000 		.4byte	USBUART_hidProtocol
 1230 0329 05       		.uleb128 0x5
 1231 032a 08030000 		.4byte	0x308
 1232 032e 17       		.uleb128 0x17
 1233 032f 36010000 		.4byte	.LASF43
 1234 0333 01       		.byte	0x1
 1235 0334 26       		.byte	0x26
 1236 0335 3F030000 		.4byte	0x33f
 1237 0339 05       		.uleb128 0x5
 1238 033a 03       		.byte	0x3
 1239 033b 00000000 		.4byte	USBUART_hidIdleRate
ARM GAS  C:\Users\HPz420\AppData\Local\Temp\ccz6x7yl.s 			page 31


 1240 033f 05       		.uleb128 0x5
 1241 0340 08030000 		.4byte	0x308
 1242 0344 17       		.uleb128 0x17
 1243 0345 84010000 		.4byte	.LASF44
 1244 0349 01       		.byte	0x1
 1245 034a 2A       		.byte	0x2a
 1246 034b 55030000 		.4byte	0x355
 1247 034f 05       		.uleb128 0x5
 1248 0350 03       		.byte	0x3
 1249 0351 00000000 		.4byte	USBUART_hidIdleTimer
 1250 0355 05       		.uleb128 0x5
 1251 0356 08030000 		.4byte	0x308
 1252 035a 18       		.uleb128 0x18
 1253 035b 22030000 		.4byte	.LASF45
 1254 035f 04       		.byte	0x4
 1255 0360 74       		.byte	0x74
 1256 0361 65030000 		.4byte	0x365
 1257 0365 05       		.uleb128 0x5
 1258 0366 08030000 		.4byte	0x308
 1259 036a 18       		.uleb128 0x18
 1260 036b A0010000 		.4byte	.LASF46
 1261 036f 04       		.byte	0x4
 1262 0370 7B       		.byte	0x7b
 1263 0371 75030000 		.4byte	0x375
 1264 0375 05       		.uleb128 0x5
 1265 0376 10010000 		.4byte	0x110
 1266 037a 00       		.byte	0
 1267              		.section	.debug_abbrev,"",%progbits
 1268              	.Ldebug_abbrev0:
 1269 0000 01       		.uleb128 0x1
 1270 0001 11       		.uleb128 0x11
 1271 0002 01       		.byte	0x1
 1272 0003 25       		.uleb128 0x25
 1273 0004 0E       		.uleb128 0xe
 1274 0005 13       		.uleb128 0x13
 1275 0006 0B       		.uleb128 0xb
 1276 0007 03       		.uleb128 0x3
 1277 0008 0E       		.uleb128 0xe
 1278 0009 1B       		.uleb128 0x1b
 1279 000a 0E       		.uleb128 0xe
 1280 000b 55       		.uleb128 0x55
 1281 000c 17       		.uleb128 0x17
 1282 000d 11       		.uleb128 0x11
 1283 000e 01       		.uleb128 0x1
 1284 000f 10       		.uleb128 0x10
 1285 0010 17       		.uleb128 0x17
 1286 0011 00       		.byte	0
 1287 0012 00       		.byte	0
 1288 0013 02       		.uleb128 0x2
 1289 0014 24       		.uleb128 0x24
 1290 0015 00       		.byte	0
 1291 0016 0B       		.uleb128 0xb
 1292 0017 0B       		.uleb128 0xb
 1293 0018 3E       		.uleb128 0x3e
 1294 0019 0B       		.uleb128 0xb
 1295 001a 03       		.uleb128 0x3
 1296 001b 0E       		.uleb128 0xe
ARM GAS  C:\Users\HPz420\AppData\Local\Temp\ccz6x7yl.s 			page 32


 1297 001c 00       		.byte	0
 1298 001d 00       		.byte	0
 1299 001e 03       		.uleb128 0x3
 1300 001f 24       		.uleb128 0x24
 1301 0020 00       		.byte	0
 1302 0021 0B       		.uleb128 0xb
 1303 0022 0B       		.uleb128 0xb
 1304 0023 3E       		.uleb128 0x3e
 1305 0024 0B       		.uleb128 0xb
 1306 0025 03       		.uleb128 0x3
 1307 0026 08       		.uleb128 0x8
 1308 0027 00       		.byte	0
 1309 0028 00       		.byte	0
 1310 0029 04       		.uleb128 0x4
 1311 002a 16       		.uleb128 0x16
 1312 002b 00       		.byte	0
 1313 002c 03       		.uleb128 0x3
 1314 002d 0E       		.uleb128 0xe
 1315 002e 3A       		.uleb128 0x3a
 1316 002f 0B       		.uleb128 0xb
 1317 0030 3B       		.uleb128 0x3b
 1318 0031 05       		.uleb128 0x5
 1319 0032 49       		.uleb128 0x49
 1320 0033 13       		.uleb128 0x13
 1321 0034 00       		.byte	0
 1322 0035 00       		.byte	0
 1323 0036 05       		.uleb128 0x5
 1324 0037 35       		.uleb128 0x35
 1325 0038 00       		.byte	0
 1326 0039 49       		.uleb128 0x49
 1327 003a 13       		.uleb128 0x13
 1328 003b 00       		.byte	0
 1329 003c 00       		.byte	0
 1330 003d 06       		.uleb128 0x6
 1331 003e 13       		.uleb128 0x13
 1332 003f 01       		.byte	0x1
 1333 0040 0B       		.uleb128 0xb
 1334 0041 0B       		.uleb128 0xb
 1335 0042 3A       		.uleb128 0x3a
 1336 0043 0B       		.uleb128 0xb
 1337 0044 3B       		.uleb128 0x3b
 1338 0045 0B       		.uleb128 0xb
 1339 0046 01       		.uleb128 0x1
 1340 0047 13       		.uleb128 0x13
 1341 0048 00       		.byte	0
 1342 0049 00       		.byte	0
 1343 004a 07       		.uleb128 0x7
 1344 004b 0D       		.uleb128 0xd
 1345 004c 00       		.byte	0
 1346 004d 03       		.uleb128 0x3
 1347 004e 0E       		.uleb128 0xe
 1348 004f 3A       		.uleb128 0x3a
 1349 0050 0B       		.uleb128 0xb
 1350 0051 3B       		.uleb128 0x3b
 1351 0052 0B       		.uleb128 0xb
 1352 0053 49       		.uleb128 0x49
 1353 0054 13       		.uleb128 0x13
ARM GAS  C:\Users\HPz420\AppData\Local\Temp\ccz6x7yl.s 			page 33


 1354 0055 38       		.uleb128 0x38
 1355 0056 0B       		.uleb128 0xb
 1356 0057 00       		.byte	0
 1357 0058 00       		.byte	0
 1358 0059 08       		.uleb128 0x8
 1359 005a 16       		.uleb128 0x16
 1360 005b 00       		.byte	0
 1361 005c 03       		.uleb128 0x3
 1362 005d 0E       		.uleb128 0xe
 1363 005e 3A       		.uleb128 0x3a
 1364 005f 0B       		.uleb128 0xb
 1365 0060 3B       		.uleb128 0x3b
 1366 0061 0B       		.uleb128 0xb
 1367 0062 49       		.uleb128 0x49
 1368 0063 13       		.uleb128 0x13
 1369 0064 00       		.byte	0
 1370 0065 00       		.byte	0
 1371 0066 09       		.uleb128 0x9
 1372 0067 0F       		.uleb128 0xf
 1373 0068 00       		.byte	0
 1374 0069 0B       		.uleb128 0xb
 1375 006a 0B       		.uleb128 0xb
 1376 006b 49       		.uleb128 0x49
 1377 006c 13       		.uleb128 0x13
 1378 006d 00       		.byte	0
 1379 006e 00       		.byte	0
 1380 006f 0A       		.uleb128 0xa
 1381 0070 0D       		.uleb128 0xd
 1382 0071 00       		.byte	0
 1383 0072 03       		.uleb128 0x3
 1384 0073 08       		.uleb128 0x8
 1385 0074 3A       		.uleb128 0x3a
 1386 0075 0B       		.uleb128 0xb
 1387 0076 3B       		.uleb128 0x3b
 1388 0077 0B       		.uleb128 0xb
 1389 0078 49       		.uleb128 0x49
 1390 0079 13       		.uleb128 0x13
 1391 007a 38       		.uleb128 0x38
 1392 007b 0B       		.uleb128 0xb
 1393 007c 00       		.byte	0
 1394 007d 00       		.byte	0
 1395 007e 0B       		.uleb128 0xb
 1396 007f 26       		.uleb128 0x26
 1397 0080 00       		.byte	0
 1398 0081 00       		.byte	0
 1399 0082 00       		.byte	0
 1400 0083 0C       		.uleb128 0xc
 1401 0084 01       		.uleb128 0x1
 1402 0085 01       		.byte	0x1
 1403 0086 49       		.uleb128 0x49
 1404 0087 13       		.uleb128 0x13
 1405 0088 01       		.uleb128 0x1
 1406 0089 13       		.uleb128 0x13
 1407 008a 00       		.byte	0
 1408 008b 00       		.byte	0
 1409 008c 0D       		.uleb128 0xd
 1410 008d 21       		.uleb128 0x21
ARM GAS  C:\Users\HPz420\AppData\Local\Temp\ccz6x7yl.s 			page 34


 1411 008e 00       		.byte	0
 1412 008f 49       		.uleb128 0x49
 1413 0090 13       		.uleb128 0x13
 1414 0091 2F       		.uleb128 0x2f
 1415 0092 0B       		.uleb128 0xb
 1416 0093 00       		.byte	0
 1417 0094 00       		.byte	0
 1418 0095 0E       		.uleb128 0xe
 1419 0096 2E       		.uleb128 0x2e
 1420 0097 01       		.byte	0x1
 1421 0098 3F       		.uleb128 0x3f
 1422 0099 19       		.uleb128 0x19
 1423 009a 03       		.uleb128 0x3
 1424 009b 0E       		.uleb128 0xe
 1425 009c 3A       		.uleb128 0x3a
 1426 009d 0B       		.uleb128 0xb
 1427 009e 3B       		.uleb128 0x3b
 1428 009f 0B       		.uleb128 0xb
 1429 00a0 27       		.uleb128 0x27
 1430 00a1 19       		.uleb128 0x19
 1431 00a2 49       		.uleb128 0x49
 1432 00a3 13       		.uleb128 0x13
 1433 00a4 11       		.uleb128 0x11
 1434 00a5 01       		.uleb128 0x1
 1435 00a6 12       		.uleb128 0x12
 1436 00a7 06       		.uleb128 0x6
 1437 00a8 40       		.uleb128 0x40
 1438 00a9 18       		.uleb128 0x18
 1439 00aa 9742     		.uleb128 0x2117
 1440 00ac 19       		.uleb128 0x19
 1441 00ad 01       		.uleb128 0x1
 1442 00ae 13       		.uleb128 0x13
 1443 00af 00       		.byte	0
 1444 00b0 00       		.byte	0
 1445 00b1 0F       		.uleb128 0xf
 1446 00b2 05       		.uleb128 0x5
 1447 00b3 00       		.byte	0
 1448 00b4 03       		.uleb128 0x3
 1449 00b5 0E       		.uleb128 0xe
 1450 00b6 3A       		.uleb128 0x3a
 1451 00b7 0B       		.uleb128 0xb
 1452 00b8 3B       		.uleb128 0x3b
 1453 00b9 0B       		.uleb128 0xb
 1454 00ba 49       		.uleb128 0x49
 1455 00bb 13       		.uleb128 0x13
 1456 00bc 02       		.uleb128 0x2
 1457 00bd 18       		.uleb128 0x18
 1458 00be 00       		.byte	0
 1459 00bf 00       		.byte	0
 1460 00c0 10       		.uleb128 0x10
 1461 00c1 34       		.uleb128 0x34
 1462 00c2 00       		.byte	0
 1463 00c3 03       		.uleb128 0x3
 1464 00c4 0E       		.uleb128 0xe
 1465 00c5 3A       		.uleb128 0x3a
 1466 00c6 0B       		.uleb128 0xb
 1467 00c7 3B       		.uleb128 0x3b
ARM GAS  C:\Users\HPz420\AppData\Local\Temp\ccz6x7yl.s 			page 35


 1468 00c8 0B       		.uleb128 0xb
 1469 00c9 49       		.uleb128 0x49
 1470 00ca 13       		.uleb128 0x13
 1471 00cb 02       		.uleb128 0x2
 1472 00cc 18       		.uleb128 0x18
 1473 00cd 00       		.byte	0
 1474 00ce 00       		.byte	0
 1475 00cf 11       		.uleb128 0x11
 1476 00d0 2E       		.uleb128 0x2e
 1477 00d1 01       		.byte	0x1
 1478 00d2 3F       		.uleb128 0x3f
 1479 00d3 19       		.uleb128 0x19
 1480 00d4 03       		.uleb128 0x3
 1481 00d5 0E       		.uleb128 0xe
 1482 00d6 3A       		.uleb128 0x3a
 1483 00d7 0B       		.uleb128 0xb
 1484 00d8 3B       		.uleb128 0x3b
 1485 00d9 0B       		.uleb128 0xb
 1486 00da 27       		.uleb128 0x27
 1487 00db 19       		.uleb128 0x19
 1488 00dc 49       		.uleb128 0x49
 1489 00dd 13       		.uleb128 0x13
 1490 00de 11       		.uleb128 0x11
 1491 00df 01       		.uleb128 0x1
 1492 00e0 12       		.uleb128 0x12
 1493 00e1 06       		.uleb128 0x6
 1494 00e2 40       		.uleb128 0x40
 1495 00e3 18       		.uleb128 0x18
 1496 00e4 9642     		.uleb128 0x2116
 1497 00e6 19       		.uleb128 0x19
 1498 00e7 01       		.uleb128 0x1
 1499 00e8 13       		.uleb128 0x13
 1500 00e9 00       		.byte	0
 1501 00ea 00       		.byte	0
 1502 00eb 12       		.uleb128 0x12
 1503 00ec 2E       		.uleb128 0x2e
 1504 00ed 01       		.byte	0x1
 1505 00ee 3F       		.uleb128 0x3f
 1506 00ef 19       		.uleb128 0x19
 1507 00f0 03       		.uleb128 0x3
 1508 00f1 0E       		.uleb128 0xe
 1509 00f2 3A       		.uleb128 0x3a
 1510 00f3 0B       		.uleb128 0xb
 1511 00f4 3B       		.uleb128 0x3b
 1512 00f5 05       		.uleb128 0x5
 1513 00f6 27       		.uleb128 0x27
 1514 00f7 19       		.uleb128 0x19
 1515 00f8 11       		.uleb128 0x11
 1516 00f9 01       		.uleb128 0x1
 1517 00fa 12       		.uleb128 0x12
 1518 00fb 06       		.uleb128 0x6
 1519 00fc 40       		.uleb128 0x40
 1520 00fd 18       		.uleb128 0x18
 1521 00fe 9642     		.uleb128 0x2116
 1522 0100 19       		.uleb128 0x19
 1523 0101 01       		.uleb128 0x1
 1524 0102 13       		.uleb128 0x13
ARM GAS  C:\Users\HPz420\AppData\Local\Temp\ccz6x7yl.s 			page 36


 1525 0103 00       		.byte	0
 1526 0104 00       		.byte	0
 1527 0105 13       		.uleb128 0x13
 1528 0106 34       		.uleb128 0x34
 1529 0107 00       		.byte	0
 1530 0108 03       		.uleb128 0x3
 1531 0109 0E       		.uleb128 0xe
 1532 010a 3A       		.uleb128 0x3a
 1533 010b 0B       		.uleb128 0xb
 1534 010c 3B       		.uleb128 0x3b
 1535 010d 05       		.uleb128 0x5
 1536 010e 49       		.uleb128 0x49
 1537 010f 13       		.uleb128 0x13
 1538 0110 02       		.uleb128 0x2
 1539 0111 18       		.uleb128 0x18
 1540 0112 00       		.byte	0
 1541 0113 00       		.byte	0
 1542 0114 14       		.uleb128 0x14
 1543 0115 26       		.uleb128 0x26
 1544 0116 00       		.byte	0
 1545 0117 49       		.uleb128 0x49
 1546 0118 13       		.uleb128 0x13
 1547 0119 00       		.byte	0
 1548 011a 00       		.byte	0
 1549 011b 15       		.uleb128 0x15
 1550 011c 34       		.uleb128 0x34
 1551 011d 00       		.byte	0
 1552 011e 03       		.uleb128 0x3
 1553 011f 08       		.uleb128 0x8
 1554 0120 3A       		.uleb128 0x3a
 1555 0121 0B       		.uleb128 0xb
 1556 0122 3B       		.uleb128 0x3b
 1557 0123 05       		.uleb128 0x5
 1558 0124 49       		.uleb128 0x49
 1559 0125 13       		.uleb128 0x13
 1560 0126 02       		.uleb128 0x2
 1561 0127 18       		.uleb128 0x18
 1562 0128 00       		.byte	0
 1563 0129 00       		.byte	0
 1564 012a 16       		.uleb128 0x16
 1565 012b 34       		.uleb128 0x34
 1566 012c 00       		.byte	0
 1567 012d 03       		.uleb128 0x3
 1568 012e 0E       		.uleb128 0xe
 1569 012f 3A       		.uleb128 0x3a
 1570 0130 0B       		.uleb128 0xb
 1571 0131 3B       		.uleb128 0x3b
 1572 0132 05       		.uleb128 0x5
 1573 0133 49       		.uleb128 0x49
 1574 0134 13       		.uleb128 0x13
 1575 0135 3F       		.uleb128 0x3f
 1576 0136 19       		.uleb128 0x19
 1577 0137 3C       		.uleb128 0x3c
 1578 0138 19       		.uleb128 0x19
 1579 0139 00       		.byte	0
 1580 013a 00       		.byte	0
 1581 013b 17       		.uleb128 0x17
ARM GAS  C:\Users\HPz420\AppData\Local\Temp\ccz6x7yl.s 			page 37


 1582 013c 34       		.uleb128 0x34
 1583 013d 00       		.byte	0
 1584 013e 03       		.uleb128 0x3
 1585 013f 0E       		.uleb128 0xe
 1586 0140 3A       		.uleb128 0x3a
 1587 0141 0B       		.uleb128 0xb
 1588 0142 3B       		.uleb128 0x3b
 1589 0143 0B       		.uleb128 0xb
 1590 0144 49       		.uleb128 0x49
 1591 0145 13       		.uleb128 0x13
 1592 0146 3F       		.uleb128 0x3f
 1593 0147 19       		.uleb128 0x19
 1594 0148 02       		.uleb128 0x2
 1595 0149 18       		.uleb128 0x18
 1596 014a 00       		.byte	0
 1597 014b 00       		.byte	0
 1598 014c 18       		.uleb128 0x18
 1599 014d 34       		.uleb128 0x34
 1600 014e 00       		.byte	0
 1601 014f 03       		.uleb128 0x3
 1602 0150 0E       		.uleb128 0xe
 1603 0151 3A       		.uleb128 0x3a
 1604 0152 0B       		.uleb128 0xb
 1605 0153 3B       		.uleb128 0x3b
 1606 0154 0B       		.uleb128 0xb
 1607 0155 49       		.uleb128 0x49
 1608 0156 13       		.uleb128 0x13
 1609 0157 3F       		.uleb128 0x3f
 1610 0158 19       		.uleb128 0x19
 1611 0159 3C       		.uleb128 0x3c
 1612 015a 19       		.uleb128 0x19
 1613 015b 00       		.byte	0
 1614 015c 00       		.byte	0
 1615 015d 00       		.byte	0
 1616              		.section	.debug_aranges,"",%progbits
 1617 0000 44000000 		.4byte	0x44
 1618 0004 0200     		.2byte	0x2
 1619 0006 00000000 		.4byte	.Ldebug_info0
 1620 000a 04       		.byte	0x4
 1621 000b 00       		.byte	0
 1622 000c 0000     		.2byte	0
 1623 000e 0000     		.2byte	0
 1624 0010 00000000 		.4byte	.LFB0
 1625 0014 64000000 		.4byte	.LFE0-.LFB0
 1626 0018 00000000 		.4byte	.LFB1
 1627 001c 20000000 		.4byte	.LFE1-.LFB1
 1628 0020 00000000 		.4byte	.LFB2
 1629 0024 E4010000 		.4byte	.LFE2-.LFB2
 1630 0028 00000000 		.4byte	.LFB3
 1631 002c 7C000000 		.4byte	.LFE3-.LFB3
 1632 0030 00000000 		.4byte	.LFB4
 1633 0034 90000000 		.4byte	.LFE4-.LFB4
 1634 0038 00000000 		.4byte	.LFB5
 1635 003c CC000000 		.4byte	.LFE5-.LFB5
 1636 0040 00000000 		.4byte	0
 1637 0044 00000000 		.4byte	0
 1638              		.section	.debug_ranges,"",%progbits
ARM GAS  C:\Users\HPz420\AppData\Local\Temp\ccz6x7yl.s 			page 38


 1639              	.Ldebug_ranges0:
 1640 0000 00000000 		.4byte	.LFB0
 1641 0004 64000000 		.4byte	.LFE0
 1642 0008 00000000 		.4byte	.LFB1
 1643 000c 20000000 		.4byte	.LFE1
 1644 0010 00000000 		.4byte	.LFB2
 1645 0014 E4010000 		.4byte	.LFE2
 1646 0018 00000000 		.4byte	.LFB3
 1647 001c 7C000000 		.4byte	.LFE3
 1648 0020 00000000 		.4byte	.LFB4
 1649 0024 90000000 		.4byte	.LFE4
 1650 0028 00000000 		.4byte	.LFB5
 1651 002c CC000000 		.4byte	.LFE5
 1652 0030 00000000 		.4byte	0
 1653 0034 00000000 		.4byte	0
 1654              		.section	.debug_line,"",%progbits
 1655              	.Ldebug_line0:
 1656 0000 75010000 		.section	.debug_str,"MS",%progbits,1
 1656      02006600 
 1656      00000201 
 1656      FB0E0D00 
 1656      01010101 
 1657              	.LASF30:
 1658 0000 55534255 		.ascii	"USBUART_DispatchHIDClassRqst\000"
 1658      4152545F 
 1658      44697370 
 1658      61746368 
 1658      48494443 
 1659              	.LASF21:
 1660 001d 70537461 		.ascii	"pStatusBlock\000"
 1660      74757342 
 1660      6C6F636B 
 1660      00
 1661              	.LASF47:
 1662 002a 474E5520 		.ascii	"GNU C11 5.4.1 20160609 (release) [ARM/embedded-5-br"
 1662      43313120 
 1662      352E342E 
 1662      31203230 
 1662      31363036 
 1663 005d 616E6368 		.ascii	"anch revision 237715] -mcpu=cortex-m3 -mthumb -g -O"
 1663      20726576 
 1663      6973696F 
 1663      6E203233 
 1663      37373135 
 1664 0090 30202D66 		.ascii	"0 -ffunction-sections -ffat-lto-objects\000"
 1664      66756E63 
 1664      74696F6E 
 1664      2D736563 
 1664      74696F6E 
 1665              	.LASF19:
 1666 00b8 636F756E 		.ascii	"count\000"
 1666      7400
 1667              	.LASF3:
 1668 00be 73686F72 		.ascii	"short unsigned int\000"
 1668      7420756E 
 1668      7369676E 
 1668      65642069 
ARM GAS  C:\Users\HPz420\AppData\Local\Temp\ccz6x7yl.s 			page 39


 1668      6E7400
 1669              	.LASF29:
 1670 00d1 696E7465 		.ascii	"interface\000"
 1670      72666163 
 1670      6500
 1671              	.LASF36:
 1672 00db 696E7465 		.ascii	"interfaceN\000"
 1672      72666163 
 1672      654E00
 1673              	.LASF16:
 1674 00e6 73746174 		.ascii	"status\000"
 1674      757300
 1675              	.LASF38:
 1676 00ed 55534255 		.ascii	"USBUART_FindReportDescriptor\000"
 1676      4152545F 
 1676      46696E64 
 1676      5265706F 
 1676      72744465 
 1677              	.LASF20:
 1678 010a 70446174 		.ascii	"pData\000"
 1678      6100
 1679              	.LASF25:
 1680 0110 65704461 		.ascii	"epData\000"
 1680      746100
 1681              	.LASF11:
 1682 0117 666C6F61 		.ascii	"float\000"
 1682      7400
 1683              	.LASF40:
 1684 011d 7265706F 		.ascii	"reportType\000"
 1684      72745479 
 1684      706500
 1685              	.LASF1:
 1686 0128 756E7369 		.ascii	"unsigned char\000"
 1686      676E6564 
 1686      20636861 
 1686      7200
 1687              	.LASF43:
 1688 0136 55534255 		.ascii	"USBUART_hidIdleRate\000"
 1688      4152545F 
 1688      68696449 
 1688      646C6552 
 1688      61746500 
 1689              	.LASF22:
 1690 014a 545F5553 		.ascii	"T_USBUART_TD\000"
 1690      42554152 
 1690      545F5444 
 1690      00
 1691              	.LASF5:
 1692 0157 6C6F6E67 		.ascii	"long unsigned int\000"
 1692      20756E73 
 1692      69676E65 
 1692      6420696E 
 1692      7400
 1693              	.LASF9:
 1694 0169 75696E74 		.ascii	"uint8\000"
 1694      3800
 1695              	.LASF33:
ARM GAS  C:\Users\HPz420\AppData\Local\Temp\ccz6x7yl.s 			page 40


 1696 016f 696E7465 		.ascii	"interfaceNumber\000"
 1696      72666163 
 1696      654E756D 
 1696      62657200 
 1697              	.LASF31:
 1698 017f 73746174 		.ascii	"stat\000"
 1698      00
 1699              	.LASF44:
 1700 0184 55534255 		.ascii	"USBUART_hidIdleTimer\000"
 1700      4152545F 
 1700      68696449 
 1700      646C6554 
 1700      696D6572 
 1701              	.LASF12:
 1702 0199 646F7562 		.ascii	"double\000"
 1702      6C6500
 1703              	.LASF46:
 1704 01a0 55534255 		.ascii	"USBUART_currentTD\000"
 1704      4152545F 
 1704      63757272 
 1704      656E7454 
 1704      4400
 1705              	.LASF10:
 1706 01b2 75696E74 		.ascii	"uint16\000"
 1706      313600
 1707              	.LASF48:
 1708 01b9 47656E65 		.ascii	"Generated_Source\\PSoC5\\USBUART_hid.c\000"
 1708      72617465 
 1708      645F536F 
 1708      75726365 
 1708      5C50536F 
 1709              	.LASF35:
 1710 01de 70446573 		.ascii	"pDescr\000"
 1710      637200
 1711              	.LASF8:
 1712 01e5 756E7369 		.ascii	"unsigned int\000"
 1712      676E6564 
 1712      20696E74 
 1712      00
 1713              	.LASF42:
 1714 01f2 55534255 		.ascii	"USBUART_hidProtocol\000"
 1714      4152545F 
 1714      68696450 
 1714      726F746F 
 1714      636F6C00 
 1715              	.LASF27:
 1716 0206 55534255 		.ascii	"USBUART_UpdateHIDTimer\000"
 1716      4152545F 
 1716      55706461 
 1716      74654849 
 1716      4454696D 
 1717              	.LASF7:
 1718 021d 6C6F6E67 		.ascii	"long long unsigned int\000"
 1718      206C6F6E 
 1718      6720756E 
 1718      7369676E 
 1718      65642069 
ARM GAS  C:\Users\HPz420\AppData\Local\Temp\ccz6x7yl.s 			page 41


 1719              	.LASF37:
 1720 0234 55534255 		.ascii	"USBUART_FindHidClassDecriptor\000"
 1720      4152545F 
 1720      46696E64 
 1720      48696443 
 1720      6C617373 
 1721              	.LASF23:
 1722 0252 705F6C69 		.ascii	"p_list\000"
 1722      737400
 1723              	.LASF18:
 1724 0259 545F5553 		.ascii	"T_USBUART_XFER_STATUS_BLOCK\000"
 1724      42554152 
 1724      545F5846 
 1724      45525F53 
 1724      54415455 
 1725              	.LASF26:
 1726 0275 55534255 		.ascii	"USBUART_ep0_data_struct\000"
 1726      4152545F 
 1726      6570305F 
 1726      64617461 
 1726      5F737472 
 1727              	.LASF15:
 1728 028d 73697A65 		.ascii	"sizetype\000"
 1728      74797065 
 1728      00
 1729              	.LASF41:
 1730 0296 55534255 		.ascii	"USBUART_configuration\000"
 1730      4152545F 
 1730      636F6E66 
 1730      69677572 
 1730      6174696F 
 1731              	.LASF6:
 1732 02ac 6C6F6E67 		.ascii	"long long int\000"
 1732      206C6F6E 
 1732      6720696E 
 1732      7400
 1733              	.LASF39:
 1734 02ba 55534255 		.ascii	"USBUART_FindReport\000"
 1734      4152545F 
 1734      46696E64 
 1734      5265706F 
 1734      727400
 1735              	.LASF13:
 1736 02cd 63686172 		.ascii	"char\000"
 1736      00
 1737              	.LASF34:
 1738 02d2 70546D70 		.ascii	"pTmp\000"
 1738      00
 1739              	.LASF2:
 1740 02d7 73686F72 		.ascii	"short int\000"
 1740      7420696E 
 1740      7400
 1741              	.LASF28:
 1742 02e1 55534255 		.ascii	"USBUART_GetProtocol\000"
 1742      4152545F 
 1742      47657450 
 1742      726F746F 
ARM GAS  C:\Users\HPz420\AppData\Local\Temp\ccz6x7yl.s 			page 42


 1742      636F6C00 
 1743              	.LASF17:
 1744 02f5 6C656E67 		.ascii	"length\000"
 1744      746800
 1745              	.LASF32:
 1746 02fc 72657175 		.ascii	"requestHandled\000"
 1746      65737448 
 1746      616E646C 
 1746      656400
 1747              	.LASF24:
 1748 030b 545F5553 		.ascii	"T_USBUART_LUT\000"
 1748      42554152 
 1748      545F4C55 
 1748      5400
 1749              	.LASF4:
 1750 0319 6C6F6E67 		.ascii	"long int\000"
 1750      20696E74 
 1750      00
 1751              	.LASF45:
 1752 0322 55534255 		.ascii	"USBUART_interfaceSetting\000"
 1752      4152545F 
 1752      696E7465 
 1752      72666163 
 1752      65536574 
 1753              	.LASF14:
 1754 033b 6C6F6E67 		.ascii	"long double\000"
 1754      20646F75 
 1754      626C6500 
 1755              	.LASF0:
 1756 0347 7369676E 		.ascii	"signed char\000"
 1756      65642063 
 1756      68617200 
 1757              	.LASF49:
 1758 0353 433A5C55 		.ascii	"C:\\Users\\HPz420\\Documents\\GitHub\\Retro-Compute"
 1758      73657273 
 1758      5C48507A 
 1758      3432305C 
 1758      446F6375 
 1759 0381 72735C5A 		.ascii	"rs\\Z80\\PSOC\\PSOC_Design_Files\\FrontPanelI2CIO8\\"
 1759      38305C50 
 1759      534F435C 
 1759      50534F43 
 1759      5F446573 
 1760 03b0 55534246 		.ascii	"USBFS_UART01.cydsn\000"
 1760      535F5541 
 1760      52543031 
 1760      2E637964 
 1760      736E00
 1761              		.ident	"GCC: (GNU Tools for ARM Embedded Processors) 5.4.1 20160609 (release) [ARM/embedded-5-bran
