ARM GAS  C:\Users\HPz420\AppData\Local\Temp\ccz6x7yl.s 			page 1


   1              		.syntax unified
   2              		.cpu cortex-m3
   3              		.fpu softvfp
   4              		.eabi_attribute 20, 1
   5              		.eabi_attribute 21, 1
   6              		.eabi_attribute 23, 3
   7              		.eabi_attribute 24, 1
   8              		.eabi_attribute 25, 1
   9              		.eabi_attribute 26, 1
  10              		.eabi_attribute 30, 6
  11              		.eabi_attribute 34, 1
  12              		.eabi_attribute 18, 4
  13              		.thumb
  14              		.syntax unified
  15              		.file	"USBUART_hid.c"
  16              		.text
  17              	.Ltext0:
  18              		.cfi_sections	.debug_frame
  19              		.comm	USBUART_hidProtocol,2,4
  20              		.comm	USBUART_hidIdleRate,2,4
  21              		.comm	USBUART_hidIdleTimer,2,4
  22              		.section	.text.USBUART_UpdateHIDTimer,"ax",%progbits
  23              		.align	2
  24              		.global	USBUART_UpdateHIDTimer
  25              		.thumb
  26              		.thumb_func
  27              		.type	USBUART_UpdateHIDTimer, %function
  28              	USBUART_UpdateHIDTimer:
  29              	.LFB0:
  30              		.file 1 "Generated_Source\\PSoC5\\USBUART_hid.c"
   1:Generated_Source\PSoC5/USBUART_hid.c **** /***************************************************************************//**
   2:Generated_Source\PSoC5/USBUART_hid.c **** * \file USBUART_hid.c
   3:Generated_Source\PSoC5/USBUART_hid.c **** * \version 3.20
   4:Generated_Source\PSoC5/USBUART_hid.c **** *
   5:Generated_Source\PSoC5/USBUART_hid.c **** * \brief
   6:Generated_Source\PSoC5/USBUART_hid.c **** *  This file contains the USB HID Class request handler. 
   7:Generated_Source\PSoC5/USBUART_hid.c **** *
   8:Generated_Source\PSoC5/USBUART_hid.c **** * Related Document:
   9:Generated_Source\PSoC5/USBUART_hid.c **** *  Device Class Definition for Human Interface Devices (HID) Version 1.11
  10:Generated_Source\PSoC5/USBUART_hid.c **** *
  11:Generated_Source\PSoC5/USBUART_hid.c **** ********************************************************************************
  12:Generated_Source\PSoC5/USBUART_hid.c **** * \copyright
  13:Generated_Source\PSoC5/USBUART_hid.c **** * Copyright 2008-2016, Cypress Semiconductor Corporation.  All rights reserved.
  14:Generated_Source\PSoC5/USBUART_hid.c **** * You may use this file only in accordance with the license, terms, conditions,
  15:Generated_Source\PSoC5/USBUART_hid.c **** * disclaimers, and limitations in the end user license agreement accompanying
  16:Generated_Source\PSoC5/USBUART_hid.c **** * the software package with which this file was provided.
  17:Generated_Source\PSoC5/USBUART_hid.c **** *******************************************************************************/
  18:Generated_Source\PSoC5/USBUART_hid.c **** 
  19:Generated_Source\PSoC5/USBUART_hid.c **** #include "USBUART_hid.h"
  20:Generated_Source\PSoC5/USBUART_hid.c **** #include "USBUART_pvt.h"
  21:Generated_Source\PSoC5/USBUART_hid.c **** #include "cyapicallbacks.h"
  22:Generated_Source\PSoC5/USBUART_hid.c **** 
  23:Generated_Source\PSoC5/USBUART_hid.c **** 
  24:Generated_Source\PSoC5/USBUART_hid.c **** #if defined(USBUART_ENABLE_HID_CLASS)
  25:Generated_Source\PSoC5/USBUART_hid.c **** 
  26:Generated_Source\PSoC5/USBUART_hid.c **** /***************************************
  27:Generated_Source\PSoC5/USBUART_hid.c **** *    HID Variables
ARM GAS  C:\Users\HPz420\AppData\Local\Temp\ccz6x7yl.s 			page 2


  28:Generated_Source\PSoC5/USBUART_hid.c **** ***************************************/
  29:Generated_Source\PSoC5/USBUART_hid.c **** /** This variable is initialized in the USBFS_InitComponent() API to the 
  30:Generated_Source\PSoC5/USBUART_hid.c ****  * PROTOCOL_REPORT value. It is controlled by the host using the 
  31:Generated_Source\PSoC5/USBUART_hid.c ****  * HID_SET_PROTOCOL request. The value is returned to the user code by the 
  32:Generated_Source\PSoC5/USBUART_hid.c ****  * USBFS_GetProtocol() API.*/
  33:Generated_Source\PSoC5/USBUART_hid.c **** volatile uint8 USBUART_hidProtocol[USBUART_MAX_INTERFACES_NUMBER];
  34:Generated_Source\PSoC5/USBUART_hid.c **** 
  35:Generated_Source\PSoC5/USBUART_hid.c **** /** This variable controls the HID report rate. It is controlled by the host 
  36:Generated_Source\PSoC5/USBUART_hid.c ****  * using the HID_SET_IDLE request and used by the USBFS_UpdateHIDTimer() API to 
  37:Generated_Source\PSoC5/USBUART_hid.c ****  * reload timer.*/
  38:Generated_Source\PSoC5/USBUART_hid.c **** volatile uint8 USBUART_hidIdleRate[USBUART_MAX_INTERFACES_NUMBER];
  39:Generated_Source\PSoC5/USBUART_hid.c **** 
  40:Generated_Source\PSoC5/USBUART_hid.c **** /** This variable contains the timer counter, which is decremented and reloaded 
  41:Generated_Source\PSoC5/USBUART_hid.c ****  * by the USBFS_UpdateHIDTimer() API.*/
  42:Generated_Source\PSoC5/USBUART_hid.c **** volatile uint8 USBUART_hidIdleTimer[USBUART_MAX_INTERFACES_NUMBER]; /* HID device idle rate value *
  43:Generated_Source\PSoC5/USBUART_hid.c **** 
  44:Generated_Source\PSoC5/USBUART_hid.c **** 
  45:Generated_Source\PSoC5/USBUART_hid.c **** /***************************************
  46:Generated_Source\PSoC5/USBUART_hid.c **** * Custom Declarations
  47:Generated_Source\PSoC5/USBUART_hid.c **** ***************************************/
  48:Generated_Source\PSoC5/USBUART_hid.c **** 
  49:Generated_Source\PSoC5/USBUART_hid.c **** /* `#START HID_CUSTOM_DECLARATIONS` Place your declaration here */
  50:Generated_Source\PSoC5/USBUART_hid.c **** 
  51:Generated_Source\PSoC5/USBUART_hid.c **** /* `#END` */
  52:Generated_Source\PSoC5/USBUART_hid.c **** 
  53:Generated_Source\PSoC5/USBUART_hid.c **** 
  54:Generated_Source\PSoC5/USBUART_hid.c **** /*******************************************************************************
  55:Generated_Source\PSoC5/USBUART_hid.c **** * Function Name: USBUART_UpdateHIDTimer
  56:Generated_Source\PSoC5/USBUART_hid.c **** ****************************************************************************//**
  57:Generated_Source\PSoC5/USBUART_hid.c **** *
  58:Generated_Source\PSoC5/USBUART_hid.c **** *  This function updates the HID Report idle timer and returns the status and 
  59:Generated_Source\PSoC5/USBUART_hid.c **** *  reloads the timer if it expires.
  60:Generated_Source\PSoC5/USBUART_hid.c **** *
  61:Generated_Source\PSoC5/USBUART_hid.c **** *  \param interface Contains the interface number.
  62:Generated_Source\PSoC5/USBUART_hid.c **** *
  63:Generated_Source\PSoC5/USBUART_hid.c **** * \return
  64:Generated_Source\PSoC5/USBUART_hid.c **** *  Returns the state of the HID timer. Symbolic names and their associated values are given here:
  65:Generated_Source\PSoC5/USBUART_hid.c **** *  Return Value               |Notes
  66:Generated_Source\PSoC5/USBUART_hid.c **** *  ---------------------------|------------------------------------------------
  67:Generated_Source\PSoC5/USBUART_hid.c **** *  USBFS_IDLE_TIMER_EXPIRED   | The timer expired.
  68:Generated_Source\PSoC5/USBUART_hid.c **** *  USBFS_IDLE_TIMER_RUNNING   | The timer is running.
  69:Generated_Source\PSoC5/USBUART_hid.c **** *  USBFS_IDLE_TIMER_IDEFINITE | The report is sent when data or state changes.
  70:Generated_Source\PSoC5/USBUART_hid.c **** *
  71:Generated_Source\PSoC5/USBUART_hid.c **** *
  72:Generated_Source\PSoC5/USBUART_hid.c **** * \reentrant
  73:Generated_Source\PSoC5/USBUART_hid.c **** *  No.
  74:Generated_Source\PSoC5/USBUART_hid.c **** *
  75:Generated_Source\PSoC5/USBUART_hid.c **** *******************************************************************************/
  76:Generated_Source\PSoC5/USBUART_hid.c **** uint8 USBUART_UpdateHIDTimer(uint8 interface) 
  77:Generated_Source\PSoC5/USBUART_hid.c **** {
  31              		.loc 1 77 0
  32              		.cfi_startproc
  33              		@ args = 0, pretend = 0, frame = 16
  34              		@ frame_needed = 1, uses_anonymous_args = 0
  35              		@ link register save eliminated.
  36 0000 80B4     		push	{r7}
  37              		.cfi_def_cfa_offset 4
ARM GAS  C:\Users\HPz420\AppData\Local\Temp\ccz6x7yl.s 			page 3


  38              		.cfi_offset 7, -4
  39 0002 85B0     		sub	sp, sp, #20
  40              		.cfi_def_cfa_offset 24
  41 0004 00AF     		add	r7, sp, #0
  42              		.cfi_def_cfa_register 7
  43 0006 0346     		mov	r3, r0
  44 0008 FB71     		strb	r3, [r7, #7]
  78:Generated_Source\PSoC5/USBUART_hid.c ****     uint8 stat = USBUART_IDLE_TIMER_INDEFINITE;
  45              		.loc 1 78 0
  46 000a 0023     		movs	r3, #0
  47 000c FB73     		strb	r3, [r7, #15]
  79:Generated_Source\PSoC5/USBUART_hid.c **** 
  80:Generated_Source\PSoC5/USBUART_hid.c ****     if(USBUART_hidIdleRate[interface] != 0u)
  48              		.loc 1 80 0
  49 000e FB79     		ldrb	r3, [r7, #7]	@ zero_extendqisi2
  50 0010 124A     		ldr	r2, .L5
  51 0012 D35C     		ldrb	r3, [r2, r3]
  52 0014 DBB2     		uxtb	r3, r3
  53 0016 002B     		cmp	r3, #0
  54 0018 19D0     		beq	.L2
  81:Generated_Source\PSoC5/USBUART_hid.c ****     {
  82:Generated_Source\PSoC5/USBUART_hid.c ****         if(USBUART_hidIdleTimer[interface] > 0u)
  55              		.loc 1 82 0
  56 001a FB79     		ldrb	r3, [r7, #7]	@ zero_extendqisi2
  57 001c 104A     		ldr	r2, .L5+4
  58 001e D35C     		ldrb	r3, [r2, r3]
  59 0020 DBB2     		uxtb	r3, r3
  60 0022 002B     		cmp	r3, #0
  61 0024 0AD0     		beq	.L3
  83:Generated_Source\PSoC5/USBUART_hid.c ****         {
  84:Generated_Source\PSoC5/USBUART_hid.c ****             USBUART_hidIdleTimer[interface]--;
  62              		.loc 1 84 0
  63 0026 FB79     		ldrb	r3, [r7, #7]	@ zero_extendqisi2
  64 0028 0D4A     		ldr	r2, .L5+4
  65 002a D25C     		ldrb	r2, [r2, r3]
  66 002c D2B2     		uxtb	r2, r2
  67 002e 013A     		subs	r2, r2, #1
  68 0030 D1B2     		uxtb	r1, r2
  69 0032 0B4A     		ldr	r2, .L5+4
  70 0034 D154     		strb	r1, [r2, r3]
  85:Generated_Source\PSoC5/USBUART_hid.c ****             stat = USBUART_IDLE_TIMER_RUNNING;
  71              		.loc 1 85 0
  72 0036 0223     		movs	r3, #2
  73 0038 FB73     		strb	r3, [r7, #15]
  74 003a 08E0     		b	.L2
  75              	.L3:
  86:Generated_Source\PSoC5/USBUART_hid.c ****         }
  87:Generated_Source\PSoC5/USBUART_hid.c ****         else
  88:Generated_Source\PSoC5/USBUART_hid.c ****         {
  89:Generated_Source\PSoC5/USBUART_hid.c ****             USBUART_hidIdleTimer[interface] = USBUART_hidIdleRate[interface];
  76              		.loc 1 89 0
  77 003c FB79     		ldrb	r3, [r7, #7]	@ zero_extendqisi2
  78 003e FA79     		ldrb	r2, [r7, #7]	@ zero_extendqisi2
  79 0040 0649     		ldr	r1, .L5
  80 0042 8A5C     		ldrb	r2, [r1, r2]
  81 0044 D1B2     		uxtb	r1, r2
  82 0046 064A     		ldr	r2, .L5+4
ARM GAS  C:\Users\HPz420\AppData\Local\Temp\ccz6x7yl.s 			page 4


  83 0048 D154     		strb	r1, [r2, r3]
  90:Generated_Source\PSoC5/USBUART_hid.c ****             stat = USBUART_IDLE_TIMER_EXPIRED;
  84              		.loc 1 90 0
  85 004a 0123     		movs	r3, #1
  86 004c FB73     		strb	r3, [r7, #15]
  87              	.L2:
  91:Generated_Source\PSoC5/USBUART_hid.c ****         }
  92:Generated_Source\PSoC5/USBUART_hid.c ****     }
  93:Generated_Source\PSoC5/USBUART_hid.c **** 
  94:Generated_Source\PSoC5/USBUART_hid.c ****     return((uint8)stat);
  88              		.loc 1 94 0
  89 004e FB7B     		ldrb	r3, [r7, #15]	@ zero_extendqisi2
  95:Generated_Source\PSoC5/USBUART_hid.c **** }
  90              		.loc 1 95 0
  91 0050 1846     		mov	r0, r3
  92 0052 1437     		adds	r7, r7, #20
  93              		.cfi_def_cfa_offset 4
  94 0054 BD46     		mov	sp, r7
  95              		.cfi_def_cfa_register 13
  96              		@ sp needed
  97 0056 80BC     		pop	{r7}
  98              		.cfi_restore 7
  99              		.cfi_def_cfa_offset 0
 100 0058 7047     		bx	lr
 101              	.L6:
 102 005a 00BF     		.align	2
 103              	.L5:
 104 005c 00000000 		.word	USBUART_hidIdleRate
 105 0060 00000000 		.word	USBUART_hidIdleTimer
 106              		.cfi_endproc
 107              	.LFE0:
 108              		.size	USBUART_UpdateHIDTimer, .-USBUART_UpdateHIDTimer
 109              		.section	.text.USBUART_GetProtocol,"ax",%progbits
 110              		.align	2
 111              		.global	USBUART_GetProtocol
 112              		.thumb
 113              		.thumb_func
 114              		.type	USBUART_GetProtocol, %function
 115              	USBUART_GetProtocol:
 116              	.LFB1:
  96:Generated_Source\PSoC5/USBUART_hid.c **** 
  97:Generated_Source\PSoC5/USBUART_hid.c **** 
  98:Generated_Source\PSoC5/USBUART_hid.c **** /*******************************************************************************
  99:Generated_Source\PSoC5/USBUART_hid.c **** * Function Name: USBUART_GetProtocol
 100:Generated_Source\PSoC5/USBUART_hid.c **** ****************************************************************************//**
 101:Generated_Source\PSoC5/USBUART_hid.c **** *
 102:Generated_Source\PSoC5/USBUART_hid.c **** *  This function returns the HID protocol value for the selected interface.
 103:Generated_Source\PSoC5/USBUART_hid.c **** *
 104:Generated_Source\PSoC5/USBUART_hid.c **** *  \param interface:  Contains the interface number.
 105:Generated_Source\PSoC5/USBUART_hid.c **** *
 106:Generated_Source\PSoC5/USBUART_hid.c **** *  \return
 107:Generated_Source\PSoC5/USBUART_hid.c **** *  Returns the protocol value. 
 108:Generated_Source\PSoC5/USBUART_hid.c **** *
 109:Generated_Source\PSoC5/USBUART_hid.c **** *******************************************************************************/
 110:Generated_Source\PSoC5/USBUART_hid.c **** uint8 USBUART_GetProtocol(uint8 interface) 
 111:Generated_Source\PSoC5/USBUART_hid.c **** {
 117              		.loc 1 111 0
ARM GAS  C:\Users\HPz420\AppData\Local\Temp\ccz6x7yl.s 			page 5


 118              		.cfi_startproc
 119              		@ args = 0, pretend = 0, frame = 8
 120              		@ frame_needed = 1, uses_anonymous_args = 0
 121              		@ link register save eliminated.
 122 0000 80B4     		push	{r7}
 123              		.cfi_def_cfa_offset 4
 124              		.cfi_offset 7, -4
 125 0002 83B0     		sub	sp, sp, #12
 126              		.cfi_def_cfa_offset 16
 127 0004 00AF     		add	r7, sp, #0
 128              		.cfi_def_cfa_register 7
 129 0006 0346     		mov	r3, r0
 130 0008 FB71     		strb	r3, [r7, #7]
 112:Generated_Source\PSoC5/USBUART_hid.c ****     return(USBUART_hidProtocol[interface]);
 131              		.loc 1 112 0
 132 000a FB79     		ldrb	r3, [r7, #7]	@ zero_extendqisi2
 133 000c 034A     		ldr	r2, .L9
 134 000e D35C     		ldrb	r3, [r2, r3]
 135 0010 DBB2     		uxtb	r3, r3
 113:Generated_Source\PSoC5/USBUART_hid.c **** }
 136              		.loc 1 113 0
 137 0012 1846     		mov	r0, r3
 138 0014 0C37     		adds	r7, r7, #12
 139              		.cfi_def_cfa_offset 4
 140 0016 BD46     		mov	sp, r7
 141              		.cfi_def_cfa_register 13
 142              		@ sp needed
 143 0018 80BC     		pop	{r7}
 144              		.cfi_restore 7
 145              		.cfi_def_cfa_offset 0
 146 001a 7047     		bx	lr
 147              	.L10:
 148              		.align	2
 149              	.L9:
 150 001c 00000000 		.word	USBUART_hidProtocol
 151              		.cfi_endproc
 152              	.LFE1:
 153              		.size	USBUART_GetProtocol, .-USBUART_GetProtocol
 154              		.section	.text.USBUART_DispatchHIDClassRqst,"ax",%progbits
 155              		.align	2
 156              		.global	USBUART_DispatchHIDClassRqst
 157              		.thumb
 158              		.thumb_func
 159              		.type	USBUART_DispatchHIDClassRqst, %function
 160              	USBUART_DispatchHIDClassRqst:
 161              	.LFB2:
 114:Generated_Source\PSoC5/USBUART_hid.c **** 
 115:Generated_Source\PSoC5/USBUART_hid.c **** 
 116:Generated_Source\PSoC5/USBUART_hid.c **** /*******************************************************************************
 117:Generated_Source\PSoC5/USBUART_hid.c **** * Function Name: USBUART_DispatchHIDClassRqst
 118:Generated_Source\PSoC5/USBUART_hid.c **** ****************************************************************************//**
 119:Generated_Source\PSoC5/USBUART_hid.c **** *
 120:Generated_Source\PSoC5/USBUART_hid.c **** *  This routine dispatches class requests
 121:Generated_Source\PSoC5/USBUART_hid.c **** *
 122:Generated_Source\PSoC5/USBUART_hid.c **** * \return
 123:Generated_Source\PSoC5/USBUART_hid.c **** *  Results of HID Class request handling: 
 124:Generated_Source\PSoC5/USBUART_hid.c **** *  - USBUART_TRUE  - request was handled without errors
ARM GAS  C:\Users\HPz420\AppData\Local\Temp\ccz6x7yl.s 			page 6


 125:Generated_Source\PSoC5/USBUART_hid.c **** *  - USBUART_FALSE - error occurs during handling of request  
 126:Generated_Source\PSoC5/USBUART_hid.c **** *
 127:Generated_Source\PSoC5/USBUART_hid.c **** * \reentrant
 128:Generated_Source\PSoC5/USBUART_hid.c **** *  No.
 129:Generated_Source\PSoC5/USBUART_hid.c **** *
 130:Generated_Source\PSoC5/USBUART_hid.c **** *******************************************************************************/
 131:Generated_Source\PSoC5/USBUART_hid.c **** uint8 USBUART_DispatchHIDClassRqst(void) 
 132:Generated_Source\PSoC5/USBUART_hid.c **** {
 162              		.loc 1 132 0
 163              		.cfi_startproc
 164              		@ args = 0, pretend = 0, frame = 8
 165              		@ frame_needed = 1, uses_anonymous_args = 0
 166 0000 80B5     		push	{r7, lr}
 167              		.cfi_def_cfa_offset 8
 168              		.cfi_offset 7, -8
 169              		.cfi_offset 14, -4
 170 0002 82B0     		sub	sp, sp, #8
 171              		.cfi_def_cfa_offset 16
 172 0004 00AF     		add	r7, sp, #0
 173              		.cfi_def_cfa_register 7
 133:Generated_Source\PSoC5/USBUART_hid.c ****     uint8 requestHandled = USBUART_FALSE;
 174              		.loc 1 133 0
 175 0006 0023     		movs	r3, #0
 176 0008 FB71     		strb	r3, [r7, #7]
 134:Generated_Source\PSoC5/USBUART_hid.c **** 
 135:Generated_Source\PSoC5/USBUART_hid.c ****     uint8 interfaceNumber = (uint8) USBUART_wIndexLoReg;
 177              		.loc 1 135 0
 178 000a 714B     		ldr	r3, .L46
 179 000c 1B79     		ldrb	r3, [r3, #4]
 180 000e BB71     		strb	r3, [r7, #6]
 136:Generated_Source\PSoC5/USBUART_hid.c ****     
 137:Generated_Source\PSoC5/USBUART_hid.c ****     /* Check request direction: D2H or H2D. */
 138:Generated_Source\PSoC5/USBUART_hid.c ****     if (0u != (USBUART_bmRequestTypeReg & USBUART_RQST_DIR_D2H))
 181              		.loc 1 138 0
 182 0010 6F4B     		ldr	r3, .L46
 183 0012 1B78     		ldrb	r3, [r3]
 184 0014 DBB2     		uxtb	r3, r3
 185 0016 5BB2     		sxtb	r3, r3
 186 0018 002B     		cmp	r3, #0
 187 001a 6CDA     		bge	.L12
 139:Generated_Source\PSoC5/USBUART_hid.c ****     {
 140:Generated_Source\PSoC5/USBUART_hid.c ****         /* Handle direction from device to host. */
 141:Generated_Source\PSoC5/USBUART_hid.c ****         
 142:Generated_Source\PSoC5/USBUART_hid.c ****         switch (USBUART_bRequestReg)
 188              		.loc 1 142 0
 189 001c 6C4B     		ldr	r3, .L46
 190 001e 5B78     		ldrb	r3, [r3, #1]
 191 0020 DBB2     		uxtb	r3, r3
 192 0022 013B     		subs	r3, r3, #1
 193 0024 052B     		cmp	r3, #5
 194 0026 00F2BE80 		bhi	.L38
 195 002a 01A2     		adr	r2, .L15
 196 002c 52F823F0 		ldr	pc, [r2, r3, lsl #2]
 197              		.p2align 2
 198              	.L15:
 199 0030 93000000 		.word	.L14+1
 200 0034 AD000000 		.word	.L16+1
ARM GAS  C:\Users\HPz420\AppData\Local\Temp\ccz6x7yl.s 			page 7


 201 0038 D7000000 		.word	.L17+1
 202 003c A7010000 		.word	.L38+1
 203 0040 A7010000 		.word	.L38+1
 204 0044 49000000 		.word	.L18+1
 205              		.p2align 1
 206              	.L18:
 143:Generated_Source\PSoC5/USBUART_hid.c ****         {
 144:Generated_Source\PSoC5/USBUART_hid.c ****             case USBUART_GET_DESCRIPTOR:
 145:Generated_Source\PSoC5/USBUART_hid.c ****                 if (USBUART_wValueHiReg == USBUART_DESCR_HID_CLASS)
 207              		.loc 1 145 0
 208 0048 614B     		ldr	r3, .L46
 209 004a DB78     		ldrb	r3, [r3, #3]
 210 004c DBB2     		uxtb	r3, r3
 211 004e 212B     		cmp	r3, #33
 212 0050 0CD1     		bne	.L19
 146:Generated_Source\PSoC5/USBUART_hid.c ****                 {
 147:Generated_Source\PSoC5/USBUART_hid.c ****                     USBUART_FindHidClassDecriptor();
 213              		.loc 1 147 0
 214 0052 FFF7FEFF 		bl	USBUART_FindHidClassDecriptor
 148:Generated_Source\PSoC5/USBUART_hid.c ****                     if (USBUART_currentTD.count != 0u)
 215              		.loc 1 148 0
 216 0056 5F4B     		ldr	r3, .L46+4
 217 0058 1B88     		ldrh	r3, [r3]	@ movhi
 218 005a 9BB2     		uxth	r3, r3
 219 005c 002B     		cmp	r3, #0
 220 005e 00F0A480 		beq	.L39
 149:Generated_Source\PSoC5/USBUART_hid.c ****                     {
 150:Generated_Source\PSoC5/USBUART_hid.c ****                         requestHandled = USBUART_InitControlRead();
 221              		.loc 1 150 0
 222 0062 FFF7FEFF 		bl	USBUART_InitControlRead
 223 0066 0346     		mov	r3, r0
 224 0068 FB71     		strb	r3, [r7, #7]
 151:Generated_Source\PSoC5/USBUART_hid.c ****                     }
 152:Generated_Source\PSoC5/USBUART_hid.c ****                 }
 153:Generated_Source\PSoC5/USBUART_hid.c ****                 else if (USBUART_wValueHiReg == USBUART_DESCR_HID_REPORT)
 154:Generated_Source\PSoC5/USBUART_hid.c ****                 {
 155:Generated_Source\PSoC5/USBUART_hid.c ****                     USBUART_FindReportDescriptor();
 156:Generated_Source\PSoC5/USBUART_hid.c ****                     if (USBUART_currentTD.count != 0u)
 157:Generated_Source\PSoC5/USBUART_hid.c ****                     {
 158:Generated_Source\PSoC5/USBUART_hid.c ****                         requestHandled = USBUART_InitControlRead();
 159:Generated_Source\PSoC5/USBUART_hid.c ****                     }
 160:Generated_Source\PSoC5/USBUART_hid.c ****                 }
 161:Generated_Source\PSoC5/USBUART_hid.c ****                 else
 162:Generated_Source\PSoC5/USBUART_hid.c ****                 {   
 163:Generated_Source\PSoC5/USBUART_hid.c ****                     /* Do not handle this request. */
 164:Generated_Source\PSoC5/USBUART_hid.c ****                 }
 165:Generated_Source\PSoC5/USBUART_hid.c ****                 break;
 225              		.loc 1 165 0
 226 006a 9EE0     		b	.L39
 227              	.L19:
 153:Generated_Source\PSoC5/USBUART_hid.c ****                 {
 228              		.loc 1 153 0
 229 006c 584B     		ldr	r3, .L46
 230 006e DB78     		ldrb	r3, [r3, #3]
 231 0070 DBB2     		uxtb	r3, r3
 232 0072 222B     		cmp	r3, #34
 233 0074 40F09980 		bne	.L39
ARM GAS  C:\Users\HPz420\AppData\Local\Temp\ccz6x7yl.s 			page 8


 155:Generated_Source\PSoC5/USBUART_hid.c ****                     if (USBUART_currentTD.count != 0u)
 234              		.loc 1 155 0
 235 0078 FFF7FEFF 		bl	USBUART_FindReportDescriptor
 156:Generated_Source\PSoC5/USBUART_hid.c ****                     {
 236              		.loc 1 156 0
 237 007c 554B     		ldr	r3, .L46+4
 238 007e 1B88     		ldrh	r3, [r3]	@ movhi
 239 0080 9BB2     		uxth	r3, r3
 240 0082 002B     		cmp	r3, #0
 241 0084 00F09180 		beq	.L39
 158:Generated_Source\PSoC5/USBUART_hid.c ****                     }
 242              		.loc 1 158 0
 243 0088 FFF7FEFF 		bl	USBUART_InitControlRead
 244 008c 0346     		mov	r3, r0
 245 008e FB71     		strb	r3, [r7, #7]
 246              		.loc 1 165 0
 247 0090 8BE0     		b	.L39
 248              	.L14:
 166:Generated_Source\PSoC5/USBUART_hid.c ****                 
 167:Generated_Source\PSoC5/USBUART_hid.c ****             case USBUART_HID_GET_REPORT:
 168:Generated_Source\PSoC5/USBUART_hid.c ****                 USBUART_FindReport();
 249              		.loc 1 168 0
 250 0092 FFF7FEFF 		bl	USBUART_FindReport
 169:Generated_Source\PSoC5/USBUART_hid.c ****                 if (USBUART_currentTD.count != 0u)
 251              		.loc 1 169 0
 252 0096 4F4B     		ldr	r3, .L46+4
 253 0098 1B88     		ldrh	r3, [r3]	@ movhi
 254 009a 9BB2     		uxth	r3, r3
 255 009c 002B     		cmp	r3, #0
 256 009e 00F08680 		beq	.L40
 170:Generated_Source\PSoC5/USBUART_hid.c ****                 {
 171:Generated_Source\PSoC5/USBUART_hid.c ****                     requestHandled = USBUART_InitControlRead();
 257              		.loc 1 171 0
 258 00a2 FFF7FEFF 		bl	USBUART_InitControlRead
 259 00a6 0346     		mov	r3, r0
 260 00a8 FB71     		strb	r3, [r7, #7]
 172:Generated_Source\PSoC5/USBUART_hid.c ****                 }
 173:Generated_Source\PSoC5/USBUART_hid.c ****                 break;
 261              		.loc 1 173 0
 262 00aa 80E0     		b	.L40
 263              	.L16:
 174:Generated_Source\PSoC5/USBUART_hid.c **** 
 175:Generated_Source\PSoC5/USBUART_hid.c ****             case USBUART_HID_GET_IDLE:
 176:Generated_Source\PSoC5/USBUART_hid.c ****                 /* This function does not support multiple reports per interface*/
 177:Generated_Source\PSoC5/USBUART_hid.c ****                 /* Validate interfaceNumber and Report ID (should be 0): Do not support Idle per Re
 178:Generated_Source\PSoC5/USBUART_hid.c ****                 if ((interfaceNumber < USBUART_MAX_INTERFACES_NUMBER) && (USBUART_wValueLoReg == 0u
 264              		.loc 1 178 0
 265 00ac BB79     		ldrb	r3, [r7, #6]	@ zero_extendqisi2
 266 00ae 012B     		cmp	r3, #1
 267 00b0 7FD8     		bhi	.L41
 268              		.loc 1 178 0 is_stmt 0 discriminator 1
 269 00b2 474B     		ldr	r3, .L46
 270 00b4 9B78     		ldrb	r3, [r3, #2]
 271 00b6 DBB2     		uxtb	r3, r3
 272 00b8 002B     		cmp	r3, #0
 273 00ba 7AD1     		bne	.L41
 179:Generated_Source\PSoC5/USBUART_hid.c ****                 {
ARM GAS  C:\Users\HPz420\AppData\Local\Temp\ccz6x7yl.s 			page 9


 180:Generated_Source\PSoC5/USBUART_hid.c ****                     USBUART_currentTD.count = 1u;
 274              		.loc 1 180 0 is_stmt 1
 275 00bc 454B     		ldr	r3, .L46+4
 276 00be 0122     		movs	r2, #1
 277 00c0 1A80     		strh	r2, [r3]	@ movhi
 181:Generated_Source\PSoC5/USBUART_hid.c ****                     USBUART_currentTD.pData = &USBUART_hidIdleRate[interfaceNumber];
 278              		.loc 1 181 0
 279 00c2 BB79     		ldrb	r3, [r7, #6]	@ zero_extendqisi2
 280 00c4 444A     		ldr	r2, .L46+8
 281 00c6 1344     		add	r3, r3, r2
 282 00c8 424A     		ldr	r2, .L46+4
 283 00ca 5360     		str	r3, [r2, #4]
 182:Generated_Source\PSoC5/USBUART_hid.c ****                     requestHandled  = USBUART_InitControlRead();
 284              		.loc 1 182 0
 285 00cc FFF7FEFF 		bl	USBUART_InitControlRead
 286 00d0 0346     		mov	r3, r0
 287 00d2 FB71     		strb	r3, [r7, #7]
 183:Generated_Source\PSoC5/USBUART_hid.c ****                 }
 184:Generated_Source\PSoC5/USBUART_hid.c ****                 break;
 288              		.loc 1 184 0
 289 00d4 6DE0     		b	.L41
 290              	.L17:
 185:Generated_Source\PSoC5/USBUART_hid.c ****                 
 186:Generated_Source\PSoC5/USBUART_hid.c ****             case USBUART_HID_GET_PROTOCOL:
 187:Generated_Source\PSoC5/USBUART_hid.c ****                 /* Validate interfaceNumber */
 188:Generated_Source\PSoC5/USBUART_hid.c ****                 if( interfaceNumber < USBUART_MAX_INTERFACES_NUMBER)
 291              		.loc 1 188 0
 292 00d6 BB79     		ldrb	r3, [r7, #6]	@ zero_extendqisi2
 293 00d8 012B     		cmp	r3, #1
 294 00da 6CD8     		bhi	.L42
 189:Generated_Source\PSoC5/USBUART_hid.c ****                 {
 190:Generated_Source\PSoC5/USBUART_hid.c ****                     USBUART_currentTD.count = 1u;
 295              		.loc 1 190 0
 296 00dc 3D4B     		ldr	r3, .L46+4
 297 00de 0122     		movs	r2, #1
 298 00e0 1A80     		strh	r2, [r3]	@ movhi
 191:Generated_Source\PSoC5/USBUART_hid.c ****                     USBUART_currentTD.pData = &USBUART_hidProtocol[interfaceNumber];
 299              		.loc 1 191 0
 300 00e2 BB79     		ldrb	r3, [r7, #6]	@ zero_extendqisi2
 301 00e4 3D4A     		ldr	r2, .L46+12
 302 00e6 1344     		add	r3, r3, r2
 303 00e8 3A4A     		ldr	r2, .L46+4
 304 00ea 5360     		str	r3, [r2, #4]
 192:Generated_Source\PSoC5/USBUART_hid.c ****                     requestHandled  = USBUART_InitControlRead();
 305              		.loc 1 192 0
 306 00ec FFF7FEFF 		bl	USBUART_InitControlRead
 307 00f0 0346     		mov	r3, r0
 308 00f2 FB71     		strb	r3, [r7, #7]
 193:Generated_Source\PSoC5/USBUART_hid.c ****                 }
 194:Generated_Source\PSoC5/USBUART_hid.c ****                 break;
 309              		.loc 1 194 0
 310 00f4 5FE0     		b	.L42
 311              	.L12:
 195:Generated_Source\PSoC5/USBUART_hid.c ****                 
 196:Generated_Source\PSoC5/USBUART_hid.c ****             default:    /* requestHandled is initialized as FALSE by default */
 197:Generated_Source\PSoC5/USBUART_hid.c ****                 break;
 198:Generated_Source\PSoC5/USBUART_hid.c ****         }
ARM GAS  C:\Users\HPz420\AppData\Local\Temp\ccz6x7yl.s 			page 10


 199:Generated_Source\PSoC5/USBUART_hid.c ****     }
 200:Generated_Source\PSoC5/USBUART_hid.c ****     else
 201:Generated_Source\PSoC5/USBUART_hid.c ****     {   
 202:Generated_Source\PSoC5/USBUART_hid.c ****         /* Handle direction from host to device. */
 203:Generated_Source\PSoC5/USBUART_hid.c ****         
 204:Generated_Source\PSoC5/USBUART_hid.c ****         switch (USBUART_bRequestReg)
 312              		.loc 1 204 0
 313 00f6 364B     		ldr	r3, .L46
 314 00f8 5B78     		ldrb	r3, [r3, #1]
 315 00fa DBB2     		uxtb	r3, r3
 316 00fc 0A2B     		cmp	r3, #10
 317 00fe 10D0     		beq	.L29
 318 0100 0B2B     		cmp	r3, #11
 319 0102 3DD0     		beq	.L30
 320 0104 092B     		cmp	r3, #9
 321 0106 00D0     		beq	.L31
 205:Generated_Source\PSoC5/USBUART_hid.c ****         {
 206:Generated_Source\PSoC5/USBUART_hid.c ****             case USBUART_HID_SET_REPORT:
 207:Generated_Source\PSoC5/USBUART_hid.c ****                 USBUART_FindReport();
 208:Generated_Source\PSoC5/USBUART_hid.c ****                 if (USBUART_currentTD.count != 0u)
 209:Generated_Source\PSoC5/USBUART_hid.c ****                 {
 210:Generated_Source\PSoC5/USBUART_hid.c ****                     requestHandled = USBUART_InitControlWrite();
 211:Generated_Source\PSoC5/USBUART_hid.c ****                 }
 212:Generated_Source\PSoC5/USBUART_hid.c ****                 break;
 213:Generated_Source\PSoC5/USBUART_hid.c ****                 
 214:Generated_Source\PSoC5/USBUART_hid.c ****             case USBUART_HID_SET_IDLE:
 215:Generated_Source\PSoC5/USBUART_hid.c ****                 /* This function does not support multiple reports per interface */
 216:Generated_Source\PSoC5/USBUART_hid.c ****                 /* Validate interfaceNumber and Report ID (should be 0): Do not support Idle per Re
 217:Generated_Source\PSoC5/USBUART_hid.c ****                 if ((interfaceNumber < USBUART_MAX_INTERFACES_NUMBER) && (USBUART_wValueLoReg == 0u
 218:Generated_Source\PSoC5/USBUART_hid.c ****                 {
 219:Generated_Source\PSoC5/USBUART_hid.c ****                     USBUART_hidIdleRate[interfaceNumber] = (uint8)USBUART_wValueHiReg;
 220:Generated_Source\PSoC5/USBUART_hid.c ****                     /* With regards to HID spec: "7.2.4 Set_Idle Request"
 221:Generated_Source\PSoC5/USBUART_hid.c ****                     *  Latency. If the current period has gone past the
 222:Generated_Source\PSoC5/USBUART_hid.c ****                     *  newly proscribed time duration, then a report
 223:Generated_Source\PSoC5/USBUART_hid.c ****                     *  will be generated immediately.
 224:Generated_Source\PSoC5/USBUART_hid.c ****                     */
 225:Generated_Source\PSoC5/USBUART_hid.c ****                     if(USBUART_hidIdleRate[interfaceNumber] <
 226:Generated_Source\PSoC5/USBUART_hid.c ****                        USBUART_hidIdleTimer[interfaceNumber])
 227:Generated_Source\PSoC5/USBUART_hid.c ****                     {
 228:Generated_Source\PSoC5/USBUART_hid.c ****                         /* Set the timer to zero and let the UpdateHIDTimer() API return IDLE_TIMER
 229:Generated_Source\PSoC5/USBUART_hid.c ****                         USBUART_hidIdleTimer[interfaceNumber] = 0u;
 230:Generated_Source\PSoC5/USBUART_hid.c ****                     }
 231:Generated_Source\PSoC5/USBUART_hid.c ****                     /* If the new request is received within 4 milliseconds
 232:Generated_Source\PSoC5/USBUART_hid.c ****                     *  (1 count) of the end of the current period, then the
 233:Generated_Source\PSoC5/USBUART_hid.c ****                     *  new request will have no effect until after the report.
 234:Generated_Source\PSoC5/USBUART_hid.c ****                     */
 235:Generated_Source\PSoC5/USBUART_hid.c ****                     else if(USBUART_hidIdleTimer[interfaceNumber] <= 1u)
 236:Generated_Source\PSoC5/USBUART_hid.c ****                     {
 237:Generated_Source\PSoC5/USBUART_hid.c ****                         /* Do nothing.
 238:Generated_Source\PSoC5/USBUART_hid.c ****                         *  Let the UpdateHIDTimer() API continue to work and
 239:Generated_Source\PSoC5/USBUART_hid.c ****                         *  return IDLE_TIMER_EXPIRED status
 240:Generated_Source\PSoC5/USBUART_hid.c ****                         */
 241:Generated_Source\PSoC5/USBUART_hid.c ****                     }
 242:Generated_Source\PSoC5/USBUART_hid.c ****                     else
 243:Generated_Source\PSoC5/USBUART_hid.c ****                     {   /* Reload the timer*/
 244:Generated_Source\PSoC5/USBUART_hid.c ****                         USBUART_hidIdleTimer[interfaceNumber] =
 245:Generated_Source\PSoC5/USBUART_hid.c ****                         USBUART_hidIdleRate[interfaceNumber];
ARM GAS  C:\Users\HPz420\AppData\Local\Temp\ccz6x7yl.s 			page 11


 246:Generated_Source\PSoC5/USBUART_hid.c ****                     }
 247:Generated_Source\PSoC5/USBUART_hid.c ****                     requestHandled = USBUART_InitNoDataControlTransfer();
 248:Generated_Source\PSoC5/USBUART_hid.c ****                 }
 249:Generated_Source\PSoC5/USBUART_hid.c ****                 break;
 250:Generated_Source\PSoC5/USBUART_hid.c **** 
 251:Generated_Source\PSoC5/USBUART_hid.c ****             case USBUART_HID_SET_PROTOCOL:
 252:Generated_Source\PSoC5/USBUART_hid.c ****                 /* Validate interfaceNumber and protocol (must be 0 or 1) */
 253:Generated_Source\PSoC5/USBUART_hid.c ****                 if ((interfaceNumber < USBUART_MAX_INTERFACES_NUMBER) && (USBUART_wValueLoReg <= 1u
 254:Generated_Source\PSoC5/USBUART_hid.c ****                 {
 255:Generated_Source\PSoC5/USBUART_hid.c ****                     USBUART_hidProtocol[interfaceNumber] = (uint8)USBUART_wValueLoReg;
 256:Generated_Source\PSoC5/USBUART_hid.c ****                     requestHandled = USBUART_InitNoDataControlTransfer();
 257:Generated_Source\PSoC5/USBUART_hid.c ****                 }
 258:Generated_Source\PSoC5/USBUART_hid.c ****                 break;
 259:Generated_Source\PSoC5/USBUART_hid.c ****             
 260:Generated_Source\PSoC5/USBUART_hid.c ****             default:    
 261:Generated_Source\PSoC5/USBUART_hid.c ****                 /* Unknown class request is not handled. */
 262:Generated_Source\PSoC5/USBUART_hid.c ****                 break;
 322              		.loc 1 262 0
 323 0108 5CE0     		b	.L27
 324              	.L31:
 207:Generated_Source\PSoC5/USBUART_hid.c ****                 if (USBUART_currentTD.count != 0u)
 325              		.loc 1 207 0
 326 010a FFF7FEFF 		bl	USBUART_FindReport
 208:Generated_Source\PSoC5/USBUART_hid.c ****                 {
 327              		.loc 1 208 0
 328 010e 314B     		ldr	r3, .L46+4
 329 0110 1B88     		ldrh	r3, [r3]	@ movhi
 330 0112 9BB2     		uxth	r3, r3
 331 0114 002B     		cmp	r3, #0
 332 0116 50D0     		beq	.L43
 210:Generated_Source\PSoC5/USBUART_hid.c ****                 }
 333              		.loc 1 210 0
 334 0118 FFF7FEFF 		bl	USBUART_InitControlWrite
 335 011c 0346     		mov	r3, r0
 336 011e FB71     		strb	r3, [r7, #7]
 212:Generated_Source\PSoC5/USBUART_hid.c ****                 
 337              		.loc 1 212 0
 338 0120 4BE0     		b	.L43
 339              	.L29:
 217:Generated_Source\PSoC5/USBUART_hid.c ****                 {
 340              		.loc 1 217 0
 341 0122 BB79     		ldrb	r3, [r7, #6]	@ zero_extendqisi2
 342 0124 012B     		cmp	r3, #1
 343 0126 4AD8     		bhi	.L44
 217:Generated_Source\PSoC5/USBUART_hid.c ****                 {
 344              		.loc 1 217 0 is_stmt 0 discriminator 1
 345 0128 294B     		ldr	r3, .L46
 346 012a 9B78     		ldrb	r3, [r3, #2]
 347 012c DBB2     		uxtb	r3, r3
 348 012e 002B     		cmp	r3, #0
 349 0130 45D1     		bne	.L44
 219:Generated_Source\PSoC5/USBUART_hid.c ****                     /* With regards to HID spec: "7.2.4 Set_Idle Request"
 350              		.loc 1 219 0 is_stmt 1
 351 0132 BB79     		ldrb	r3, [r7, #6]	@ zero_extendqisi2
 352 0134 264A     		ldr	r2, .L46
 353 0136 D278     		ldrb	r2, [r2, #3]
 354 0138 D1B2     		uxtb	r1, r2
ARM GAS  C:\Users\HPz420\AppData\Local\Temp\ccz6x7yl.s 			page 12


 355 013a 274A     		ldr	r2, .L46+8
 356 013c D154     		strb	r1, [r2, r3]
 225:Generated_Source\PSoC5/USBUART_hid.c ****                        USBUART_hidIdleTimer[interfaceNumber])
 357              		.loc 1 225 0
 358 013e BB79     		ldrb	r3, [r7, #6]	@ zero_extendqisi2
 359 0140 254A     		ldr	r2, .L46+8
 360 0142 D35C     		ldrb	r3, [r2, r3]
 361 0144 DAB2     		uxtb	r2, r3
 226:Generated_Source\PSoC5/USBUART_hid.c ****                     {
 362              		.loc 1 226 0
 363 0146 BB79     		ldrb	r3, [r7, #6]	@ zero_extendqisi2
 364 0148 2549     		ldr	r1, .L46+16
 365 014a CB5C     		ldrb	r3, [r1, r3]
 366 014c DBB2     		uxtb	r3, r3
 225:Generated_Source\PSoC5/USBUART_hid.c ****                        USBUART_hidIdleTimer[interfaceNumber])
 367              		.loc 1 225 0
 368 014e 9A42     		cmp	r2, r3
 369 0150 04D2     		bcs	.L34
 229:Generated_Source\PSoC5/USBUART_hid.c ****                     }
 370              		.loc 1 229 0
 371 0152 BB79     		ldrb	r3, [r7, #6]	@ zero_extendqisi2
 372 0154 224A     		ldr	r2, .L46+16
 373 0156 0021     		movs	r1, #0
 374 0158 D154     		strb	r1, [r2, r3]
 375 015a 0CE0     		b	.L35
 376              	.L34:
 235:Generated_Source\PSoC5/USBUART_hid.c ****                     {
 377              		.loc 1 235 0
 378 015c BB79     		ldrb	r3, [r7, #6]	@ zero_extendqisi2
 379 015e 204A     		ldr	r2, .L46+16
 380 0160 D35C     		ldrb	r3, [r2, r3]
 381 0162 DBB2     		uxtb	r3, r3
 382 0164 012B     		cmp	r3, #1
 383 0166 06D9     		bls	.L35
 244:Generated_Source\PSoC5/USBUART_hid.c ****                         USBUART_hidIdleRate[interfaceNumber];
 384              		.loc 1 244 0
 385 0168 BB79     		ldrb	r3, [r7, #6]	@ zero_extendqisi2
 245:Generated_Source\PSoC5/USBUART_hid.c ****                     }
 386              		.loc 1 245 0
 387 016a BA79     		ldrb	r2, [r7, #6]	@ zero_extendqisi2
 388 016c 1A49     		ldr	r1, .L46+8
 389 016e 8A5C     		ldrb	r2, [r1, r2]
 390 0170 D1B2     		uxtb	r1, r2
 244:Generated_Source\PSoC5/USBUART_hid.c ****                         USBUART_hidIdleRate[interfaceNumber];
 391              		.loc 1 244 0
 392 0172 1B4A     		ldr	r2, .L46+16
 393 0174 D154     		strb	r1, [r2, r3]
 394              	.L35:
 247:Generated_Source\PSoC5/USBUART_hid.c ****                 }
 395              		.loc 1 247 0
 396 0176 FFF7FEFF 		bl	USBUART_InitNoDataControlTransfer
 397 017a 0346     		mov	r3, r0
 398 017c FB71     		strb	r3, [r7, #7]
 249:Generated_Source\PSoC5/USBUART_hid.c **** 
 399              		.loc 1 249 0
 400 017e 1EE0     		b	.L44
 401              	.L30:
ARM GAS  C:\Users\HPz420\AppData\Local\Temp\ccz6x7yl.s 			page 13


 253:Generated_Source\PSoC5/USBUART_hid.c ****                 {
 402              		.loc 1 253 0
 403 0180 BB79     		ldrb	r3, [r7, #6]	@ zero_extendqisi2
 404 0182 012B     		cmp	r3, #1
 405 0184 1DD8     		bhi	.L45
 253:Generated_Source\PSoC5/USBUART_hid.c ****                 {
 406              		.loc 1 253 0 is_stmt 0 discriminator 1
 407 0186 124B     		ldr	r3, .L46
 408 0188 9B78     		ldrb	r3, [r3, #2]
 409 018a DBB2     		uxtb	r3, r3
 410 018c 012B     		cmp	r3, #1
 411 018e 18D8     		bhi	.L45
 255:Generated_Source\PSoC5/USBUART_hid.c ****                     requestHandled = USBUART_InitNoDataControlTransfer();
 412              		.loc 1 255 0 is_stmt 1
 413 0190 BB79     		ldrb	r3, [r7, #6]	@ zero_extendqisi2
 414 0192 0F4A     		ldr	r2, .L46
 415 0194 9278     		ldrb	r2, [r2, #2]
 416 0196 D1B2     		uxtb	r1, r2
 417 0198 104A     		ldr	r2, .L46+12
 418 019a D154     		strb	r1, [r2, r3]
 256:Generated_Source\PSoC5/USBUART_hid.c ****                 }
 419              		.loc 1 256 0
 420 019c FFF7FEFF 		bl	USBUART_InitNoDataControlTransfer
 421 01a0 0346     		mov	r3, r0
 422 01a2 FB71     		strb	r3, [r7, #7]
 258:Generated_Source\PSoC5/USBUART_hid.c ****             
 423              		.loc 1 258 0
 424 01a4 0DE0     		b	.L45
 425              	.L38:
 197:Generated_Source\PSoC5/USBUART_hid.c ****         }
 426              		.loc 1 197 0
 427 01a6 00BF     		nop
 428 01a8 0CE0     		b	.L27
 429              	.L39:
 165:Generated_Source\PSoC5/USBUART_hid.c ****                 
 430              		.loc 1 165 0
 431 01aa 00BF     		nop
 432 01ac 0AE0     		b	.L27
 433              	.L40:
 173:Generated_Source\PSoC5/USBUART_hid.c **** 
 434              		.loc 1 173 0
 435 01ae 00BF     		nop
 436 01b0 08E0     		b	.L27
 437              	.L41:
 184:Generated_Source\PSoC5/USBUART_hid.c ****                 
 438              		.loc 1 184 0
 439 01b2 00BF     		nop
 440 01b4 06E0     		b	.L27
 441              	.L42:
 194:Generated_Source\PSoC5/USBUART_hid.c ****                 
 442              		.loc 1 194 0
 443 01b6 00BF     		nop
 444 01b8 04E0     		b	.L27
 445              	.L43:
 212:Generated_Source\PSoC5/USBUART_hid.c ****                 
 446              		.loc 1 212 0
 447 01ba 00BF     		nop
ARM GAS  C:\Users\HPz420\AppData\Local\Temp\ccz6x7yl.s 			page 14


 448 01bc 02E0     		b	.L27
 449              	.L44:
 249:Generated_Source\PSoC5/USBUART_hid.c **** 
 450              		.loc 1 249 0
 451 01be 00BF     		nop
 452 01c0 00E0     		b	.L27
 453              	.L45:
 258:Generated_Source\PSoC5/USBUART_hid.c ****             
 454              		.loc 1 258 0
 455 01c2 00BF     		nop
 456              	.L27:
 263:Generated_Source\PSoC5/USBUART_hid.c ****         }
 264:Generated_Source\PSoC5/USBUART_hid.c ****     }
 265:Generated_Source\PSoC5/USBUART_hid.c **** 
 266:Generated_Source\PSoC5/USBUART_hid.c ****     return (requestHandled);
 457              		.loc 1 266 0
 458 01c4 FB79     		ldrb	r3, [r7, #7]	@ zero_extendqisi2
 267:Generated_Source\PSoC5/USBUART_hid.c **** }
 459              		.loc 1 267 0
 460 01c6 1846     		mov	r0, r3
 461 01c8 0837     		adds	r7, r7, #8
 462              		.cfi_def_cfa_offset 8
 463 01ca BD46     		mov	sp, r7
 464              		.cfi_def_cfa_register 13
 465              		@ sp needed
 466 01cc 80BD     		pop	{r7, pc}
 467              	.L47:
 468 01ce 00BF     		.align	2
 469              	.L46:
 470 01d0 00600040 		.word	1073766400
 471 01d4 00000000 		.word	USBUART_currentTD
 472 01d8 00000000 		.word	USBUART_hidIdleRate
 473 01dc 00000000 		.word	USBUART_hidProtocol
 474 01e0 00000000 		.word	USBUART_hidIdleTimer
 475              		.cfi_endproc
 476              	.LFE2:
 477              		.size	USBUART_DispatchHIDClassRqst, .-USBUART_DispatchHIDClassRqst
 478              		.section	.text.USBUART_FindHidClassDecriptor,"ax",%progbits
 479              		.align	2
 480              		.global	USBUART_FindHidClassDecriptor
 481              		.thumb
 482              		.thumb_func
 483              		.type	USBUART_FindHidClassDecriptor, %function
 484              	USBUART_FindHidClassDecriptor:
 485              	.LFB3:
 268:Generated_Source\PSoC5/USBUART_hid.c **** 
 269:Generated_Source\PSoC5/USBUART_hid.c **** 
 270:Generated_Source\PSoC5/USBUART_hid.c **** /*******************************************************************************
 271:Generated_Source\PSoC5/USBUART_hid.c **** * Function Name: USB_FindHidClassDescriptor
 272:Generated_Source\PSoC5/USBUART_hid.c **** ****************************************************************************//**
 273:Generated_Source\PSoC5/USBUART_hid.c **** *
 274:Generated_Source\PSoC5/USBUART_hid.c **** *  This routine find Hid Class Descriptor pointer based on the Interface number
 275:Generated_Source\PSoC5/USBUART_hid.c **** *  and Alternate setting then loads the currentTD structure with the address of
 276:Generated_Source\PSoC5/USBUART_hid.c **** *  the buffer and the size.
 277:Generated_Source\PSoC5/USBUART_hid.c **** *  The HID Class Descriptor resides inside the config descriptor.
 278:Generated_Source\PSoC5/USBUART_hid.c **** *
 279:Generated_Source\PSoC5/USBUART_hid.c **** * \return
ARM GAS  C:\Users\HPz420\AppData\Local\Temp\ccz6x7yl.s 			page 15


 280:Generated_Source\PSoC5/USBUART_hid.c **** *  currentTD
 281:Generated_Source\PSoC5/USBUART_hid.c **** *
 282:Generated_Source\PSoC5/USBUART_hid.c **** * \reentrant
 283:Generated_Source\PSoC5/USBUART_hid.c **** *  No.
 284:Generated_Source\PSoC5/USBUART_hid.c **** *
 285:Generated_Source\PSoC5/USBUART_hid.c **** *******************************************************************************/
 286:Generated_Source\PSoC5/USBUART_hid.c **** void USBUART_FindHidClassDecriptor(void) 
 287:Generated_Source\PSoC5/USBUART_hid.c **** {
 486              		.loc 1 287 0
 487              		.cfi_startproc
 488              		@ args = 0, pretend = 0, frame = 16
 489              		@ frame_needed = 1, uses_anonymous_args = 0
 490 0000 80B5     		push	{r7, lr}
 491              		.cfi_def_cfa_offset 8
 492              		.cfi_offset 7, -8
 493              		.cfi_offset 14, -4
 494 0002 84B0     		sub	sp, sp, #16
 495              		.cfi_def_cfa_offset 24
 496 0004 00AF     		add	r7, sp, #0
 497              		.cfi_def_cfa_register 7
 288:Generated_Source\PSoC5/USBUART_hid.c ****     const T_USBUART_LUT CYCODE *pTmp;
 289:Generated_Source\PSoC5/USBUART_hid.c ****     volatile uint8 *pDescr;
 290:Generated_Source\PSoC5/USBUART_hid.c ****     uint8 interfaceN;
 291:Generated_Source\PSoC5/USBUART_hid.c **** 
 292:Generated_Source\PSoC5/USBUART_hid.c ****     pTmp = USBUART_GetConfigTablePtr(USBUART_configuration - 1u);
 498              		.loc 1 292 0
 499 0006 194B     		ldr	r3, .L49
 500 0008 1B78     		ldrb	r3, [r3]
 501 000a DBB2     		uxtb	r3, r3
 502 000c 013B     		subs	r3, r3, #1
 503 000e DBB2     		uxtb	r3, r3
 504 0010 1846     		mov	r0, r3
 505 0012 FFF7FEFF 		bl	USBUART_GetConfigTablePtr
 506 0016 F860     		str	r0, [r7, #12]
 293:Generated_Source\PSoC5/USBUART_hid.c ****     
 294:Generated_Source\PSoC5/USBUART_hid.c ****     interfaceN = (uint8) USBUART_wIndexLoReg;
 507              		.loc 1 294 0
 508 0018 154B     		ldr	r3, .L49+4
 509 001a 1B79     		ldrb	r3, [r3, #4]
 510 001c FB72     		strb	r3, [r7, #11]
 295:Generated_Source\PSoC5/USBUART_hid.c ****     /* Third entry in the LUT starts the Interface Table pointers */
 296:Generated_Source\PSoC5/USBUART_hid.c ****     /* Now use the request interface number*/
 297:Generated_Source\PSoC5/USBUART_hid.c ****     pTmp = &pTmp[interfaceN + 2u];
 511              		.loc 1 297 0
 512 001e FB7A     		ldrb	r3, [r7, #11]	@ zero_extendqisi2
 513 0020 0233     		adds	r3, r3, #2
 514 0022 DB00     		lsls	r3, r3, #3
 515 0024 FA68     		ldr	r2, [r7, #12]
 516 0026 1344     		add	r3, r3, r2
 517 0028 FB60     		str	r3, [r7, #12]
 298:Generated_Source\PSoC5/USBUART_hid.c ****     
 299:Generated_Source\PSoC5/USBUART_hid.c ****     /* USB_DEVICEx_CONFIGURATIONy_INTERFACEz_TABLE */
 300:Generated_Source\PSoC5/USBUART_hid.c ****     pTmp = (const T_USBUART_LUT CYCODE *) pTmp->p_list;
 518              		.loc 1 300 0
 519 002a FB68     		ldr	r3, [r7, #12]
 520 002c 5B68     		ldr	r3, [r3, #4]
 521 002e FB60     		str	r3, [r7, #12]
ARM GAS  C:\Users\HPz420\AppData\Local\Temp\ccz6x7yl.s 			page 16


 301:Generated_Source\PSoC5/USBUART_hid.c ****     
 302:Generated_Source\PSoC5/USBUART_hid.c ****     /* Now use Alternate setting number */
 303:Generated_Source\PSoC5/USBUART_hid.c ****     pTmp = &pTmp[USBUART_interfaceSetting[interfaceN]];
 522              		.loc 1 303 0
 523 0030 FB7A     		ldrb	r3, [r7, #11]	@ zero_extendqisi2
 524 0032 104A     		ldr	r2, .L49+8
 525 0034 D35C     		ldrb	r3, [r2, r3]
 526 0036 DBB2     		uxtb	r3, r3
 527 0038 DB00     		lsls	r3, r3, #3
 528 003a FA68     		ldr	r2, [r7, #12]
 529 003c 1344     		add	r3, r3, r2
 530 003e FB60     		str	r3, [r7, #12]
 304:Generated_Source\PSoC5/USBUART_hid.c ****     
 305:Generated_Source\PSoC5/USBUART_hid.c ****     /* USB_DEVICEx_CONFIGURATIONy_INTERFACEz_ALTERNATEi_HID_TABLE */
 306:Generated_Source\PSoC5/USBUART_hid.c ****     pTmp = (const T_USBUART_LUT CYCODE *) pTmp->p_list;
 531              		.loc 1 306 0
 532 0040 FB68     		ldr	r3, [r7, #12]
 533 0042 5B68     		ldr	r3, [r3, #4]
 534 0044 FB60     		str	r3, [r7, #12]
 307:Generated_Source\PSoC5/USBUART_hid.c ****     
 308:Generated_Source\PSoC5/USBUART_hid.c ****     /* Fifth entry in the LUT points to Hid Class Descriptor in Configuration Descriptor */
 309:Generated_Source\PSoC5/USBUART_hid.c ****     pTmp = &pTmp[4u];
 535              		.loc 1 309 0
 536 0046 FB68     		ldr	r3, [r7, #12]
 537 0048 2033     		adds	r3, r3, #32
 538 004a FB60     		str	r3, [r7, #12]
 310:Generated_Source\PSoC5/USBUART_hid.c ****     pDescr = (volatile uint8 *)pTmp->p_list;
 539              		.loc 1 310 0
 540 004c FB68     		ldr	r3, [r7, #12]
 541 004e 5B68     		ldr	r3, [r3, #4]
 542 0050 7B60     		str	r3, [r7, #4]
 311:Generated_Source\PSoC5/USBUART_hid.c ****     
 312:Generated_Source\PSoC5/USBUART_hid.c ****     /* The first byte contains the descriptor length */
 313:Generated_Source\PSoC5/USBUART_hid.c ****     USBUART_currentTD.count = *pDescr;
 543              		.loc 1 313 0
 544 0052 7B68     		ldr	r3, [r7, #4]
 545 0054 1B78     		ldrb	r3, [r3]
 546 0056 DBB2     		uxtb	r3, r3
 547 0058 9AB2     		uxth	r2, r3
 548 005a 074B     		ldr	r3, .L49+12
 549 005c 1A80     		strh	r2, [r3]	@ movhi
 314:Generated_Source\PSoC5/USBUART_hid.c ****     USBUART_currentTD.pData = pDescr;
 550              		.loc 1 314 0
 551 005e 064A     		ldr	r2, .L49+12
 552 0060 7B68     		ldr	r3, [r7, #4]
 553 0062 5360     		str	r3, [r2, #4]
 315:Generated_Source\PSoC5/USBUART_hid.c **** }
 554              		.loc 1 315 0
 555 0064 00BF     		nop
 556 0066 1037     		adds	r7, r7, #16
 557              		.cfi_def_cfa_offset 8
 558 0068 BD46     		mov	sp, r7
 559              		.cfi_def_cfa_register 13
 560              		@ sp needed
 561 006a 80BD     		pop	{r7, pc}
 562              	.L50:
 563              		.align	2
ARM GAS  C:\Users\HPz420\AppData\Local\Temp\ccz6x7yl.s 			page 17


 564              	.L49:
 565 006c 00000000 		.word	USBUART_configuration
 566 0070 00600040 		.word	1073766400
 567 0074 00000000 		.word	USBUART_interfaceSetting
 568 0078 00000000 		.word	USBUART_currentTD
 569              		.cfi_endproc
 570              	.LFE3:
 571              		.size	USBUART_FindHidClassDecriptor, .-USBUART_FindHidClassDecriptor
 572              		.section	.text.USBUART_FindReportDescriptor,"ax",%progbits
 573              		.align	2
 574              		.global	USBUART_FindReportDescriptor
 575              		.thumb
 576              		.thumb_func
 577              		.type	USBUART_FindReportDescriptor, %function
 578              	USBUART_FindReportDescriptor:
 579              	.LFB4:
 316:Generated_Source\PSoC5/USBUART_hid.c **** 
 317:Generated_Source\PSoC5/USBUART_hid.c **** 
 318:Generated_Source\PSoC5/USBUART_hid.c **** /*******************************************************************************
 319:Generated_Source\PSoC5/USBUART_hid.c **** * Function Name: USB_FindReportDescriptor
 320:Generated_Source\PSoC5/USBUART_hid.c **** ****************************************************************************//**
 321:Generated_Source\PSoC5/USBUART_hid.c **** *
 322:Generated_Source\PSoC5/USBUART_hid.c **** *  This routine find Hid Report Descriptor pointer based on the Interface
 323:Generated_Source\PSoC5/USBUART_hid.c **** *  number, then loads the currentTD structure with the address of the buffer
 324:Generated_Source\PSoC5/USBUART_hid.c **** *  and the size.
 325:Generated_Source\PSoC5/USBUART_hid.c **** *  Hid Report Descriptor is located after IN/OUT/FEATURE reports.
 326:Generated_Source\PSoC5/USBUART_hid.c **** *
 327:Generated_Source\PSoC5/USBUART_hid.c **** * \return
 328:Generated_Source\PSoC5/USBUART_hid.c **** *  currentTD
 329:Generated_Source\PSoC5/USBUART_hid.c **** *
 330:Generated_Source\PSoC5/USBUART_hid.c **** * \reentrant
 331:Generated_Source\PSoC5/USBUART_hid.c **** *  No.
 332:Generated_Source\PSoC5/USBUART_hid.c **** *
 333:Generated_Source\PSoC5/USBUART_hid.c **** *******************************************************************************/
 334:Generated_Source\PSoC5/USBUART_hid.c **** void USBUART_FindReportDescriptor(void) 
 335:Generated_Source\PSoC5/USBUART_hid.c **** {
 580              		.loc 1 335 0
 581              		.cfi_startproc
 582              		@ args = 0, pretend = 0, frame = 16
 583              		@ frame_needed = 1, uses_anonymous_args = 0
 584 0000 80B5     		push	{r7, lr}
 585              		.cfi_def_cfa_offset 8
 586              		.cfi_offset 7, -8
 587              		.cfi_offset 14, -4
 588 0002 84B0     		sub	sp, sp, #16
 589              		.cfi_def_cfa_offset 24
 590 0004 00AF     		add	r7, sp, #0
 591              		.cfi_def_cfa_register 7
 336:Generated_Source\PSoC5/USBUART_hid.c ****     const T_USBUART_LUT CYCODE *pTmp;
 337:Generated_Source\PSoC5/USBUART_hid.c ****     volatile uint8 *pDescr;
 338:Generated_Source\PSoC5/USBUART_hid.c ****     uint8 interfaceN;
 339:Generated_Source\PSoC5/USBUART_hid.c **** 
 340:Generated_Source\PSoC5/USBUART_hid.c ****     pTmp = USBUART_GetConfigTablePtr(USBUART_configuration - 1u);
 592              		.loc 1 340 0
 593 0006 1E4B     		ldr	r3, .L52
 594 0008 1B78     		ldrb	r3, [r3]
 595 000a DBB2     		uxtb	r3, r3
ARM GAS  C:\Users\HPz420\AppData\Local\Temp\ccz6x7yl.s 			page 18


 596 000c 013B     		subs	r3, r3, #1
 597 000e DBB2     		uxtb	r3, r3
 598 0010 1846     		mov	r0, r3
 599 0012 FFF7FEFF 		bl	USBUART_GetConfigTablePtr
 600 0016 F860     		str	r0, [r7, #12]
 341:Generated_Source\PSoC5/USBUART_hid.c ****     interfaceN = (uint8) USBUART_wIndexLoReg;
 601              		.loc 1 341 0
 602 0018 1A4B     		ldr	r3, .L52+4
 603 001a 1B79     		ldrb	r3, [r3, #4]
 604 001c FB72     		strb	r3, [r7, #11]
 342:Generated_Source\PSoC5/USBUART_hid.c ****     
 343:Generated_Source\PSoC5/USBUART_hid.c ****     /* Third entry in the LUT starts the Interface Table pointers */
 344:Generated_Source\PSoC5/USBUART_hid.c ****     /* Now use the request interface number */
 345:Generated_Source\PSoC5/USBUART_hid.c ****     pTmp = &pTmp[interfaceN + 2u];
 605              		.loc 1 345 0
 606 001e FB7A     		ldrb	r3, [r7, #11]	@ zero_extendqisi2
 607 0020 0233     		adds	r3, r3, #2
 608 0022 DB00     		lsls	r3, r3, #3
 609 0024 FA68     		ldr	r2, [r7, #12]
 610 0026 1344     		add	r3, r3, r2
 611 0028 FB60     		str	r3, [r7, #12]
 346:Generated_Source\PSoC5/USBUART_hid.c ****     
 347:Generated_Source\PSoC5/USBUART_hid.c ****     /* USB_DEVICEx_CONFIGURATIONy_INTERFACEz_TABLE */
 348:Generated_Source\PSoC5/USBUART_hid.c ****     pTmp = (const T_USBUART_LUT CYCODE *) pTmp->p_list;
 612              		.loc 1 348 0
 613 002a FB68     		ldr	r3, [r7, #12]
 614 002c 5B68     		ldr	r3, [r3, #4]
 615 002e FB60     		str	r3, [r7, #12]
 349:Generated_Source\PSoC5/USBUART_hid.c ****     
 350:Generated_Source\PSoC5/USBUART_hid.c ****     /* Now use Alternate setting number */
 351:Generated_Source\PSoC5/USBUART_hid.c ****     pTmp = &pTmp[USBUART_interfaceSetting[interfaceN]];
 616              		.loc 1 351 0
 617 0030 FB7A     		ldrb	r3, [r7, #11]	@ zero_extendqisi2
 618 0032 154A     		ldr	r2, .L52+8
 619 0034 D35C     		ldrb	r3, [r2, r3]
 620 0036 DBB2     		uxtb	r3, r3
 621 0038 DB00     		lsls	r3, r3, #3
 622 003a FA68     		ldr	r2, [r7, #12]
 623 003c 1344     		add	r3, r3, r2
 624 003e FB60     		str	r3, [r7, #12]
 352:Generated_Source\PSoC5/USBUART_hid.c ****     
 353:Generated_Source\PSoC5/USBUART_hid.c ****     /* USB_DEVICEx_CONFIGURATIONy_INTERFACEz_ALTERNATEi_HID_TABLE */
 354:Generated_Source\PSoC5/USBUART_hid.c ****     pTmp = (const T_USBUART_LUT CYCODE *) pTmp->p_list;
 625              		.loc 1 354 0
 626 0040 FB68     		ldr	r3, [r7, #12]
 627 0042 5B68     		ldr	r3, [r3, #4]
 628 0044 FB60     		str	r3, [r7, #12]
 355:Generated_Source\PSoC5/USBUART_hid.c ****     
 356:Generated_Source\PSoC5/USBUART_hid.c ****     /* Fourth entry in the LUT starts the Hid Report Descriptor */
 357:Generated_Source\PSoC5/USBUART_hid.c ****     pTmp = &pTmp[3u];
 629              		.loc 1 357 0
 630 0046 FB68     		ldr	r3, [r7, #12]
 631 0048 1833     		adds	r3, r3, #24
 632 004a FB60     		str	r3, [r7, #12]
 358:Generated_Source\PSoC5/USBUART_hid.c ****     pDescr = (volatile uint8 *)pTmp->p_list;
 633              		.loc 1 358 0
 634 004c FB68     		ldr	r3, [r7, #12]
ARM GAS  C:\Users\HPz420\AppData\Local\Temp\ccz6x7yl.s 			page 19


 635 004e 5B68     		ldr	r3, [r3, #4]
 636 0050 7B60     		str	r3, [r7, #4]
 359:Generated_Source\PSoC5/USBUART_hid.c ****     
 360:Generated_Source\PSoC5/USBUART_hid.c ****     /* The 1st and 2nd bytes of descriptor contain its length. LSB is 1st. */
 361:Generated_Source\PSoC5/USBUART_hid.c ****     USBUART_currentTD.count =  ((uint16)((uint16) pDescr[1u] << 8u) | pDescr[0u]);
 637              		.loc 1 361 0
 638 0052 7B68     		ldr	r3, [r7, #4]
 639 0054 0133     		adds	r3, r3, #1
 640 0056 1B78     		ldrb	r3, [r3]
 641 0058 DBB2     		uxtb	r3, r3
 642 005a 9BB2     		uxth	r3, r3
 643 005c 1B02     		lsls	r3, r3, #8
 644 005e 9AB2     		uxth	r2, r3
 645 0060 7B68     		ldr	r3, [r7, #4]
 646 0062 1B78     		ldrb	r3, [r3]
 647 0064 DBB2     		uxtb	r3, r3
 648 0066 9BB2     		uxth	r3, r3
 649 0068 1343     		orrs	r3, r3, r2
 650 006a 9AB2     		uxth	r2, r3
 651 006c 074B     		ldr	r3, .L52+12
 652 006e 1A80     		strh	r2, [r3]	@ movhi
 362:Generated_Source\PSoC5/USBUART_hid.c ****     USBUART_currentTD.pData = &pDescr[2u];
 653              		.loc 1 362 0
 654 0070 7B68     		ldr	r3, [r7, #4]
 655 0072 0233     		adds	r3, r3, #2
 656 0074 054A     		ldr	r2, .L52+12
 657 0076 5360     		str	r3, [r2, #4]
 363:Generated_Source\PSoC5/USBUART_hid.c **** }
 658              		.loc 1 363 0
 659 0078 00BF     		nop
 660 007a 1037     		adds	r7, r7, #16
 661              		.cfi_def_cfa_offset 8
 662 007c BD46     		mov	sp, r7
 663              		.cfi_def_cfa_register 13
 664              		@ sp needed
 665 007e 80BD     		pop	{r7, pc}
 666              	.L53:
 667              		.align	2
 668              	.L52:
 669 0080 00000000 		.word	USBUART_configuration
 670 0084 00600040 		.word	1073766400
 671 0088 00000000 		.word	USBUART_interfaceSetting
 672 008c 00000000 		.word	USBUART_currentTD
 673              		.cfi_endproc
 674              	.LFE4:
 675              		.size	USBUART_FindReportDescriptor, .-USBUART_FindReportDescriptor
 676              		.section	.text.USBUART_FindReport,"ax",%progbits
 677              		.align	2
 678              		.global	USBUART_FindReport
 679              		.thumb
 680              		.thumb_func
 681              		.type	USBUART_FindReport, %function
 682              	USBUART_FindReport:
 683              	.LFB5:
 364:Generated_Source\PSoC5/USBUART_hid.c **** 
 365:Generated_Source\PSoC5/USBUART_hid.c **** 
 366:Generated_Source\PSoC5/USBUART_hid.c **** /*******************************************************************************
ARM GAS  C:\Users\HPz420\AppData\Local\Temp\ccz6x7yl.s 			page 20


 367:Generated_Source\PSoC5/USBUART_hid.c **** * Function Name: USBUART_FindReport
 368:Generated_Source\PSoC5/USBUART_hid.c **** ****************************************************************************//**
 369:Generated_Source\PSoC5/USBUART_hid.c **** *
 370:Generated_Source\PSoC5/USBUART_hid.c **** *  This routine sets up a transfer based on the Interface number, Report Type
 371:Generated_Source\PSoC5/USBUART_hid.c **** *  and Report ID, then loads the currentTD structure with the address of the
 372:Generated_Source\PSoC5/USBUART_hid.c **** *  buffer and the size.  The caller has to decide if it is a control read or
 373:Generated_Source\PSoC5/USBUART_hid.c **** *  control write.
 374:Generated_Source\PSoC5/USBUART_hid.c **** *
 375:Generated_Source\PSoC5/USBUART_hid.c **** * \return
 376:Generated_Source\PSoC5/USBUART_hid.c **** *  currentTD
 377:Generated_Source\PSoC5/USBUART_hid.c **** *
 378:Generated_Source\PSoC5/USBUART_hid.c **** * \reentrant
 379:Generated_Source\PSoC5/USBUART_hid.c **** *  No.
 380:Generated_Source\PSoC5/USBUART_hid.c **** *
 381:Generated_Source\PSoC5/USBUART_hid.c **** *******************************************************************************/
 382:Generated_Source\PSoC5/USBUART_hid.c **** void USBUART_FindReport(void) 
 383:Generated_Source\PSoC5/USBUART_hid.c **** {
 684              		.loc 1 383 0
 685              		.cfi_startproc
 686              		@ args = 0, pretend = 0, frame = 16
 687              		@ frame_needed = 1, uses_anonymous_args = 0
 688 0000 80B5     		push	{r7, lr}
 689              		.cfi_def_cfa_offset 8
 690              		.cfi_offset 7, -8
 691              		.cfi_offset 14, -4
 692 0002 84B0     		sub	sp, sp, #16
 693              		.cfi_def_cfa_offset 24
 694 0004 00AF     		add	r7, sp, #0
 695              		.cfi_def_cfa_register 7
 384:Generated_Source\PSoC5/USBUART_hid.c ****     const T_USBUART_LUT CYCODE *pTmp;
 385:Generated_Source\PSoC5/USBUART_hid.c ****     T_USBUART_TD *pTD;
 386:Generated_Source\PSoC5/USBUART_hid.c ****     uint8 reportType;
 387:Generated_Source\PSoC5/USBUART_hid.c ****     uint8 interfaceN;
 388:Generated_Source\PSoC5/USBUART_hid.c ****  
 389:Generated_Source\PSoC5/USBUART_hid.c ****     /* `#START HID_FINDREPORT` Place custom handling here */
 390:Generated_Source\PSoC5/USBUART_hid.c **** 
 391:Generated_Source\PSoC5/USBUART_hid.c ****     /* `#END` */
 392:Generated_Source\PSoC5/USBUART_hid.c ****     
 393:Generated_Source\PSoC5/USBUART_hid.c **** #ifdef USBUART_FIND_REPORT_CALLBACK
 394:Generated_Source\PSoC5/USBUART_hid.c ****     USBUART_FindReport_Callback();
 395:Generated_Source\PSoC5/USBUART_hid.c **** #endif /* (USBUART_FIND_REPORT_CALLBACK) */
 396:Generated_Source\PSoC5/USBUART_hid.c ****     
 397:Generated_Source\PSoC5/USBUART_hid.c ****     USBUART_currentTD.count = 0u;   /* Init not supported condition */
 696              		.loc 1 397 0
 697 0006 2D4B     		ldr	r3, .L57
 698 0008 0022     		movs	r2, #0
 699 000a 1A80     		strh	r2, [r3]	@ movhi
 398:Generated_Source\PSoC5/USBUART_hid.c ****     pTmp = USBUART_GetConfigTablePtr(USBUART_configuration - 1u);
 700              		.loc 1 398 0
 701 000c 2C4B     		ldr	r3, .L57+4
 702 000e 1B78     		ldrb	r3, [r3]
 703 0010 DBB2     		uxtb	r3, r3
 704 0012 013B     		subs	r3, r3, #1
 705 0014 DBB2     		uxtb	r3, r3
 706 0016 1846     		mov	r0, r3
 707 0018 FFF7FEFF 		bl	USBUART_GetConfigTablePtr
 708 001c F860     		str	r0, [r7, #12]
ARM GAS  C:\Users\HPz420\AppData\Local\Temp\ccz6x7yl.s 			page 21


 399:Generated_Source\PSoC5/USBUART_hid.c ****     reportType = (uint8) USBUART_wValueHiReg;
 709              		.loc 1 399 0
 710 001e 294B     		ldr	r3, .L57+8
 711 0020 DB78     		ldrb	r3, [r3, #3]
 712 0022 FB72     		strb	r3, [r7, #11]
 400:Generated_Source\PSoC5/USBUART_hid.c ****     interfaceN = (uint8) USBUART_wIndexLoReg;
 713              		.loc 1 400 0
 714 0024 274B     		ldr	r3, .L57+8
 715 0026 1B79     		ldrb	r3, [r3, #4]
 716 0028 BB72     		strb	r3, [r7, #10]
 401:Generated_Source\PSoC5/USBUART_hid.c ****     
 402:Generated_Source\PSoC5/USBUART_hid.c ****     /* Third entry in the LUT Configuration Table starts the Interface Table pointers */
 403:Generated_Source\PSoC5/USBUART_hid.c ****     /* Now use the request interface number */
 404:Generated_Source\PSoC5/USBUART_hid.c ****     pTmp = &pTmp[interfaceN + 2u];
 717              		.loc 1 404 0
 718 002a BB7A     		ldrb	r3, [r7, #10]	@ zero_extendqisi2
 719 002c 0233     		adds	r3, r3, #2
 720 002e DB00     		lsls	r3, r3, #3
 721 0030 FA68     		ldr	r2, [r7, #12]
 722 0032 1344     		add	r3, r3, r2
 723 0034 FB60     		str	r3, [r7, #12]
 405:Generated_Source\PSoC5/USBUART_hid.c ****     
 406:Generated_Source\PSoC5/USBUART_hid.c ****     /* USB_DEVICEx_CONFIGURATIONy_INTERFACEz_TABLE */
 407:Generated_Source\PSoC5/USBUART_hid.c ****     pTmp = (const T_USBUART_LUT CYCODE *) pTmp->p_list;
 724              		.loc 1 407 0
 725 0036 FB68     		ldr	r3, [r7, #12]
 726 0038 5B68     		ldr	r3, [r3, #4]
 727 003a FB60     		str	r3, [r7, #12]
 408:Generated_Source\PSoC5/USBUART_hid.c ****     if (interfaceN < USBUART_MAX_INTERFACES_NUMBER)
 728              		.loc 1 408 0
 729 003c BB7A     		ldrb	r3, [r7, #10]	@ zero_extendqisi2
 730 003e 012B     		cmp	r3, #1
 731 0040 38D8     		bhi	.L56
 409:Generated_Source\PSoC5/USBUART_hid.c ****     {
 410:Generated_Source\PSoC5/USBUART_hid.c ****         /* Now use Alternate setting number */
 411:Generated_Source\PSoC5/USBUART_hid.c ****         pTmp = &pTmp[USBUART_interfaceSetting[interfaceN]];
 732              		.loc 1 411 0
 733 0042 BB7A     		ldrb	r3, [r7, #10]	@ zero_extendqisi2
 734 0044 204A     		ldr	r2, .L57+12
 735 0046 D35C     		ldrb	r3, [r2, r3]
 736 0048 DBB2     		uxtb	r3, r3
 737 004a DB00     		lsls	r3, r3, #3
 738 004c FA68     		ldr	r2, [r7, #12]
 739 004e 1344     		add	r3, r3, r2
 740 0050 FB60     		str	r3, [r7, #12]
 412:Generated_Source\PSoC5/USBUART_hid.c ****         
 413:Generated_Source\PSoC5/USBUART_hid.c ****         /* USB_DEVICEx_CONFIGURATIONy_INTERFACEz_ALTERNATEi_HID_TABLE */
 414:Generated_Source\PSoC5/USBUART_hid.c ****         pTmp = (const T_USBUART_LUT CYCODE *) pTmp->p_list;
 741              		.loc 1 414 0
 742 0052 FB68     		ldr	r3, [r7, #12]
 743 0054 5B68     		ldr	r3, [r3, #4]
 744 0056 FB60     		str	r3, [r7, #12]
 415:Generated_Source\PSoC5/USBUART_hid.c ****         
 416:Generated_Source\PSoC5/USBUART_hid.c ****         /* Validate reportType to comply with "7.2.1 Get_Report Request" */
 417:Generated_Source\PSoC5/USBUART_hid.c ****         if ((reportType >= USBUART_HID_GET_REPORT_INPUT) &&
 745              		.loc 1 417 0
 746 0058 FB7A     		ldrb	r3, [r7, #11]	@ zero_extendqisi2
ARM GAS  C:\Users\HPz420\AppData\Local\Temp\ccz6x7yl.s 			page 22


 747 005a 002B     		cmp	r3, #0
 748 005c 2AD0     		beq	.L56
 749              		.loc 1 417 0 is_stmt 0 discriminator 1
 750 005e FB7A     		ldrb	r3, [r7, #11]	@ zero_extendqisi2
 751 0060 032B     		cmp	r3, #3
 752 0062 27D8     		bhi	.L56
 418:Generated_Source\PSoC5/USBUART_hid.c ****             (reportType <= USBUART_HID_GET_REPORT_FEATURE))
 419:Generated_Source\PSoC5/USBUART_hid.c ****         {
 420:Generated_Source\PSoC5/USBUART_hid.c ****             /* Get the entry proper TD (IN, OUT or Feature Report Table)*/
 421:Generated_Source\PSoC5/USBUART_hid.c ****             pTmp = &pTmp[reportType - 1u];
 753              		.loc 1 421 0 is_stmt 1
 754 0064 FB7A     		ldrb	r3, [r7, #11]	@ zero_extendqisi2
 755 0066 03F10053 		add	r3, r3, #536870912
 756 006a 013B     		subs	r3, r3, #1
 757 006c DB00     		lsls	r3, r3, #3
 758 006e FA68     		ldr	r2, [r7, #12]
 759 0070 1344     		add	r3, r3, r2
 760 0072 FB60     		str	r3, [r7, #12]
 422:Generated_Source\PSoC5/USBUART_hid.c ****             
 423:Generated_Source\PSoC5/USBUART_hid.c ****             /* Get reportID */
 424:Generated_Source\PSoC5/USBUART_hid.c ****             reportType = (uint8) USBUART_wValueLoReg;
 761              		.loc 1 424 0
 762 0074 134B     		ldr	r3, .L57+8
 763 0076 9B78     		ldrb	r3, [r3, #2]
 764 0078 FB72     		strb	r3, [r7, #11]
 425:Generated_Source\PSoC5/USBUART_hid.c ****             
 426:Generated_Source\PSoC5/USBUART_hid.c ****             /* Validate table support by the HID descriptor, compare table count with reportID */
 427:Generated_Source\PSoC5/USBUART_hid.c ****             if (pTmp->c >= reportType)
 765              		.loc 1 427 0
 766 007a FB68     		ldr	r3, [r7, #12]
 767 007c 1B78     		ldrb	r3, [r3]	@ zero_extendqisi2
 768 007e FA7A     		ldrb	r2, [r7, #11]	@ zero_extendqisi2
 769 0080 9A42     		cmp	r2, r3
 770 0082 17D8     		bhi	.L56
 428:Generated_Source\PSoC5/USBUART_hid.c ****             {
 429:Generated_Source\PSoC5/USBUART_hid.c ****                 pTD = (T_USBUART_TD *) pTmp->p_list;
 771              		.loc 1 429 0
 772 0084 FB68     		ldr	r3, [r7, #12]
 773 0086 5B68     		ldr	r3, [r3, #4]
 774 0088 7B60     		str	r3, [r7, #4]
 430:Generated_Source\PSoC5/USBUART_hid.c ****                 pTD = &pTD[reportType];                          /* select entry depend on report I
 775              		.loc 1 430 0
 776 008a FA7A     		ldrb	r2, [r7, #11]	@ zero_extendqisi2
 777 008c 1346     		mov	r3, r2
 778 008e 5B00     		lsls	r3, r3, #1
 779 0090 1344     		add	r3, r3, r2
 780 0092 9B00     		lsls	r3, r3, #2
 781 0094 1A46     		mov	r2, r3
 782 0096 7B68     		ldr	r3, [r7, #4]
 783 0098 1344     		add	r3, r3, r2
 784 009a 7B60     		str	r3, [r7, #4]
 431:Generated_Source\PSoC5/USBUART_hid.c ****                 USBUART_currentTD.pData = pTD->pData;   /* Buffer pointer */
 785              		.loc 1 431 0
 786 009c 7B68     		ldr	r3, [r7, #4]
 787 009e 5B68     		ldr	r3, [r3, #4]
 788 00a0 064A     		ldr	r2, .L57
 789 00a2 5360     		str	r3, [r2, #4]
ARM GAS  C:\Users\HPz420\AppData\Local\Temp\ccz6x7yl.s 			page 23


 432:Generated_Source\PSoC5/USBUART_hid.c ****                 USBUART_currentTD.count = pTD->count;   /* Buffer Size */
 790              		.loc 1 432 0
 791 00a4 7B68     		ldr	r3, [r7, #4]
 792 00a6 1A88     		ldrh	r2, [r3]
 793 00a8 044B     		ldr	r3, .L57
 794 00aa 1A80     		strh	r2, [r3]	@ movhi
 433:Generated_Source\PSoC5/USBUART_hid.c ****                 USBUART_currentTD.pStatusBlock = pTD->pStatusBlock;
 795              		.loc 1 433 0
 796 00ac 7B68     		ldr	r3, [r7, #4]
 797 00ae 9B68     		ldr	r3, [r3, #8]
 798 00b0 024A     		ldr	r2, .L57
 799 00b2 9360     		str	r3, [r2, #8]
 800              	.L56:
 434:Generated_Source\PSoC5/USBUART_hid.c ****             }
 435:Generated_Source\PSoC5/USBUART_hid.c ****         }
 436:Generated_Source\PSoC5/USBUART_hid.c ****     }
 437:Generated_Source\PSoC5/USBUART_hid.c **** }
 801              		.loc 1 437 0
 802 00b4 00BF     		nop
 803 00b6 1037     		adds	r7, r7, #16
 804              		.cfi_def_cfa_offset 8
 805 00b8 BD46     		mov	sp, r7
 806              		.cfi_def_cfa_register 13
 807              		@ sp needed
 808 00ba 80BD     		pop	{r7, pc}
 809              	.L58:
 810              		.align	2
 811              	.L57:
 812 00bc 00000000 		.word	USBUART_currentTD
 813 00c0 00000000 		.word	USBUART_configuration
 814 00c4 00600040 		.word	1073766400
 815 00c8 00000000 		.word	USBUART_interfaceSetting
 816              		.cfi_endproc
 817              	.LFE5:
 818              		.size	USBUART_FindReport, .-USBUART_FindReport
 819              		.text
 820              	.Letext0:
 821              		.file 2 "Generated_Source\\PSoC5\\cytypes.h"
 822              		.file 3 "Generated_Source\\PSoC5\\USBUART.h"
 823              		.file 4 "Generated_Source\\PSoC5\\USBUART_pvt.h"