	MACRO-80 3.43	27-Jul-81	PAGE	1


                                ;
                                ;  **************
                                ;  *            *
                                ;  * ZEN> 0900H *
                                ;  *            *
                                ;  **************
                                ;
  0000                          ORIGIN EQU 000H
  0000'                                ASEG
                                       .Z80
                                ORG ORIGIN
  3000                          FILEBASE  EQU  3000H
                                ;
  000D                          CR      EQU  13
  000C                          FF      EQU  12
  0008                          BS      EQU  8
  0020                          BLANK   EQU  32
                                
                                ;EXTERNAL VARIABLE SPACE
                                
  10F0                          HBUFF     EQU  10F0H
  1102                          FILESIZE  EQU  1102H
  1104                          FILESTART EQU  1104H
  1106                          FILEXEC   EQU  1106H
  11A3                          TBUFF     EQU  11A3H
                                
                                ;CALLS TO SP-1002 MONITOR
                                
                                
  1171                          CURSOR    EQU  1171H
                                
                                ;DISPLACEMENT OF EACH FLAG FROM
                                ;THE IX REGISTER
                                
  0000                          F1  EQU  0
  0001                          F2  EQU  1
  0002                          F3  EQU  2
  0003                          F5  EQU  3
  0004                          F6  EQU  4
  0005                          F7  EQU  5
                                
                                ;CODE STARTS HERE, SKIP OVER
                                ;TEXT AND VARIABLE STORAGE.
                                
  0000    C3 012B               ENTRY:    JP ZEN
  0003    C3 06A2               REENTRY:  JP TRAP
                                
  0006    5A 45 4E 3E           M1:  DB 'ZEN>',CR
  000A    0D                    
  000B    48 55 48 3F           M2:  DB 'HUH?',CR
  000F    0D                    
  0010    42 41 44 20           M3:  DB 'BAD READ',CR
  0014    52 45 41 44           
  0018    0D                    
  0019    50 41 47 45           M4:  DB 'PAGE',CR
  001D    0D                    
	MACRO-80 3.43	27-Jul-81	PAGE	1-1


  001E    45 4F 46 0D           M5:  DB 'EOF',CR
  0022    4C 4F 41 44           M6:  DB 'LOAD>',CR
  0026    3E 0D                 
  0028    4F 50 54 49           M7:  DB 'OPTION>',CR
  002C    4F 4E 3E 0D           
  0030    46 4F 55 4E           M8:  DB 'FOUND ',CR
  0034    44 20 0D              
  0037    52 45 53 45           M12:  DB 'RESERVED',CR
  003B    52 56 45 44           
  003F    0D                    
  0040    4D 45 4D 4F           M20:  DB 'MEMORY '
  0044    52 59 20              
  0047    46 55 4C 4C           M14:  DB 'FULL',CR
  004B    0D                    
  004C    44 4F 55 42           M13:  DB 'DOUBLE '
  0050    4C 45 20              
  0053    53 59 4D 42           M15:  DB 'SYMBOL',CR
  0057    4F 4C 0D              
  005A    4F 50 45 52           M16:  DB 'OPERAND',CR
  005E    41 4E 44 0D           
  0062    55 4E 44 45           M17:  DB 'UNDEFINED',CR
  0066    46 49 4E 45           
  006A    44 0D                 
  006C    4F 52 47 21           M18:  DB 'ORG!',CR
  0070    0D                    
  0071    4E 41 4D 45           M21:  DB 'NAME>',CR
  0075    3E 0D                 
  0077    53 54 41 52           M22:  DB 'START>',CR
  007B    54 3E 0D              
  007E    53 54 4F 50           M23:  DB 'STOP>',CR
  0082    3E 0D                 
  0084    42 4B 50 54           M24:  DB 'BKPT>',CR
  0088    3E 0D                 
  008A    45 58 45 43           M25:  DB 'EXEC>',CR
  008E    3E 0D                 
  0090    44 45 53 54           M27:  DB 'DEST>',CR
  0094    3E 0D                 
  0096    44 41 54 41           M28:  DB 'DATA>',CR
  009A    3E 0D                 
  009C    20 48 4C 20           M29:  DB ' HL   DE   '
  00A0    20 20 44 45           
  00A4    20 20 20              
  00A7    42 43 20 20                 DB 'BC   AF   RI',CR
  00AB    20 41 46 20           
  00AF    20 20 52 49           
  00B3    0D                    
  00B4    20 49 58 20           M30:  DB ' IX   IY   '
  00B8    20 20 49 59           
  00BC    20 20 20              
  00BF    53 50 20 20                 DB 'SP   PC',CR
  00C3    20 50 43 0D           
                                
  00C7    56 00 00              FLAGS:  DB 'V',0,0
  00CA    00 00 00                      DB 0,0,0
                                
                                ;LISTING FIELD WIDTHS
	MACRO-80 3.43	27-Jul-81	PAGE	1-2


                                
  00CD    3C 14                 COMWIDTH:  DB 60,20
  00CF    0C 07                 SYMWIDTH:  DB 12,7
  00D1    05 05                            DB 5,5
  00D3    12 07                            DB 18,7
  00D5    19 01                            DB 25,1
                                
  00D7    0000                  PAGENO:    DW 0;PAGE NUMBER
  00D9    0000                  LCT:       DW 0;LINE COUNTER
  00DB    0000                  LIMIT:     DW 0
  00DD    0000                  CURRENT:   DW 0;CURRENT LINE
  00DF    3000                  SOFP:      DW FILEBASE
  00E1    3000                  EOFP:      DW FILEBASE
  00E3    0000                  CUROBJ:    DW 0;CURRENT OBJECT
  00E5    0000                  TEMP:      DW 0;TEMPORARY
  00E7    0000                  FEP:       DW 0;FREE ENTRY POINTER
  00E9    0000                  STK:       DW 0;SP SAVE BUFFER
  00EB    0000                  LBLP:      DW 0;LABEL POINTER
  00ED    0000                  PC:        DW 0;PROGRAM COUNTER
  00EF    0000                  OBJ:       DW 0;OBJECT POINTER
  00F1    0000                  BKPTADDR:  DW 0;ADDR OF BKPT
  00F3    00                    BKPTCODE:  DB 0;CODE AT BKPT
  00F4    00 00 00              CODE:      DB 0,0,0;CODE REPLACED
                                
  00F7                                     DS 24;USER STACK
  010F    0000                  IMAGE:     DW 0;USER REGISTER IMAGE
  0111    0000                  DW 0
  0113    0000                  DW 0
  0115    0000                  DW 0
  0117    0000                  DW 0
  0119    0000                  DW 0
  011B    0000                  DW 0
  011D    0000                  DW 0
  011F    0000                  DW 0
  0121    0000                  DW 0
  0123    0000                  DW 0
                                
                                ;GOTO EXIT ROUTINE
                                
  0125    31 010F               EXIT:    LD SP,IMAGE
  0128    C3 0000               EXIT1:   JP 0
                                
  0126                          USP  EQU  EXIT+1
  0129                          UPC  EQU  EXIT1+1
                                
                                ;START OF ZEN MAINLOOP
                                
  012B    31 10F0               ZEN:     LD SP,HBUFF
  012E    DD 21 00C7                     LD IX,FLAGS
  0132    CD 01EF                        CALL TOP
  0135    CD 0592                        CALL BEEP
  0138    CD 0540                        CALL CRLF
  013B    21 013B                        LD HL,$
  013E    E5                             PUSH HL
  013F    ED 73 00E9            LD (STK),SP
  0143    DD 36 00 56           LD (IX+F1),'V'
	MACRO-80 3.43	27-Jul-81	PAGE	1-3


  0147    2E 00                 LD L,M1 OR 0FFH
  0149    CD 05CF               CALL CUE
  014C    0D                    DEC C
  014D    CA 0787               JP Z,CLEAR
  0150    FE 53                 CP 'S'
  0152    CA 0345               JP Z,SORT
  0155    FE 52                 CP 'R'
  0157    CA 0307               JP Z,READ
  015A    FE 57                 CP 'W'
  015C    CA 02C4               JP Z,WRITE
  015F    FE 56                 CP 'V'
  0161    CA 02F3               JP Z,VERIFY
  0164    FE 4C                 CP 'L'
  0166    28 45                 JR Z,LOCATE
  0168    FE 4A                 CP'J'
  016A    28 24                 JR Z,JLOCATE
  016C    E5                    PUSH HL
  016D    C5                    PUSH BC
  016E    0E 01                 LD C,1
  0170    11 11A3               LD DE,TBUFF
  0173    21 04EB               LD HL,COMTAB
  0176    CD 0A7C               CALL SEARCH
  0179    DA 072F               JP C,E10
  017C    C1                    POP BC
  017D    E3                    EX (SP),HL
  017E    41                    LD B,C
  017F    05                    DEC B
  0180    37                    SCF
  0181    28 09                 JR Z,ZEN2
  0183    13                    INC DE
  0184    CD 0734               CALL CONVERT
  0187    DA 072F               JP C,E10
  018A    44                    LD B,H
  018B    4D                    LD C,L
  018C    2A 00DD               ZEN2:  LD HL,(CURRENT)
  018F    C9                    RET
                                
  0190    0D                    JLOCATE:  DEC C
  0191    CA 072F               JP Z,E10
  0194    2A 00DD               LD HL,(CURRENT)
  0197    CD 01B9               JLCATE1:  CALL CATE1
  019A    CD 020F               CALL LINE
  019D    CD 01A2               CALL PAGER
  01A0    18 F5                 JR JLCATE1
                                
  01A2    F5                    PAGER:  PUSH AF
  01A3    3A 1172               LD A,(CURSOR+1)
  01A6    FE 18                 CP 18H
  01A8    CC 0774               CALL Z,DELAY
  01AB    F1                    POP AF
  01AC    C9                    RET
                                
  01AD    CD 01B2               LOCATE:  CALL CATE
  01B0    18 5D                 JR LINE
                                
  01B2    0D                    CATE:  DEC C
	MACRO-80 3.43	27-Jul-81	PAGE	1-4


  01B3    CA 072F               JP Z,E10
  01B6    2A 00DD               LD HL,(CURRENT)
  01B9    C5                    CATE1:  PUSH BC
  01BA    CD 07C4               CALL NEXT
  01BD    C1                    POP BC
  01BE    2B                    DEC HL
  01BF    E5                    PUSH HL
  01C0    E1                    LC1:  POP HL
  01C1    7E                    LD A,(HL)
  01C2    23                    INC HL
  01C3    FE 0D                 CP CR
  01C5    CC 081D               CALL Z,UPDATE
  01C8    CD 0522               CALL EOF
  01CB    41                    LD B,C
  01CC    11 11A4               LD DE,TBUFF+1
  01CF    E5                    PUSH HL
  01D0    1A                    LC2:  LD A,(DE)
  01D1    BE                    CP (HL)
  01D2    20 EC                 JR NZ,LC1
  01D4    13                    INC DE
  01D5    23                    INC HL
  01D6    10 F8                 DJNZ LC2
  01D8    E1                    POP HL
  01D9    CD 0250               CALL THIS
  01DC    C9                    RET
                                
  01DD    78                    UP:  LD A,B
  01DE    B1                    OR C
  01DF    28 2E                 JR Z,LINE
  01E1    CD 0246               CALL LAST
  01E4    30 29                 JR NC,LINE
  01E6    0B                    DEC BC
  01E7    18 F4                 JR UP
                                
  01E9    2A 00DF               KILL:  LD HL,(SOFP)
  01EC    22 00E1               LD (EOFP),HL
                                
  01EF    21 0001               TOP:  LD HL,1
  01F2    22 00D9               LD (LCT),HL
  01F5    2A 00DF               LD HL,(SOFP)
  01F8    22 00DD               LD (CURRENT),HL
  01FB    C9                    RET
                                
  01FC    CD 01EF               TARGET:  CALL TOP
  01FF    0B                    DEC BC
                                
  0200    78                    DOWN:  LD A,B
  0201    B1                    OR C
  0202    28 0B                 JR Z,LINE
  0204    C5                    PUSH BC
  0205    CD 07C4               CALL NEXT
  0208    C1                    POP BC
  0209    CD 081D               CALL UPDATE
  020C    0B                    DEC BC
  020D    18 F1                 JR DOWN
  020F    CD 0522               LINE:  CALL EOF
	MACRO-80 3.43	27-Jul-81	PAGE	1-5


  0212    CD 07D2               CALL POSITION
  0215    C3 053D               JP PR3
                                
  0218    78                    ZAP:  LD A,B
  0219    B1                    OR C
  021A    28 F3                 JR Z,LINE
  021C    E5                    PUSH HL
  021D    C5                    PUSH BC
  021E    CD 06EE               CALL REMOVE
  0221    C1                    POP BC
  0222    E1                    POP HL
  0223    0B                    DEC BC
  0224    18 F2                 JR ZAP
                                
  0226    2E 00                 E0:  LD L,M15 OR 0FFH
  0228    ED 7B 00E9            ER:  LD SP,(STK)
  022C    CD 0534               CALL ERR2
  022F    2A 00E5               LD HL,(TEMP)
  0232    01 0001               LD BC,1
                                
  0235    78                    PRINT:  LD A,B
  0236    B1                    OR C
  0237    28 0D                 JR Z,LAST
  0239    CD 020F               CALL LINE
  023C    23                    INC HL
  023D    CD 081D               CALL UPDATE
  0240    0B                    DEC BC
  0241    CD 01A2               CALL PAGER
  0244    18 EF                 JR PRINT
                                
  0246    E5                    LAST:  PUSH HL
  0247    2A 00D9               LD HL,(LCT)
  024A    2B                    DEC HL
  024B    22 00D9               LD (LCT),HL
  024E    E1                    POP HL
  024F    2B                    DEC HL
  0250    CD 078C               THIS:  CALL SOF
  0253    30 9A                 JR NC,TOP
  0255    2B                    DEC HL
  0256    7E                    LD A,(HL)
  0257    FE 0D                 CP CR
  0259    20 F5                 JR NZ,THIS
  025B    23                    INC HL
  025C    22 00DD               LD (CURRENT),HL
  025F    37                    SCF
  0260    C9                    RET
                                
  0261    CD 07D2               ENTER:  CALL POSITION
  0264    EB                    EX DE,HL
  0265    CD 05D2               CALL USER
  0268    FE 2E                 CP '.'
  026A    C8                    RET Z
  026B    2A 00E1               LD HL,(EOFP)
  026E    CD 0797               CALL MEMCHECK
  0271    CD 02A8               CALL INSERT
  0274    EB                    EX DE,HL
	MACRO-80 3.43	27-Jul-81	PAGE	1-6


  0275    CD 081D               CALL UPDATE
  0278    18 E7                 JR ENTER
                                
  027A    E5                    NEW:  PUSH HL
  027B    CD 07C4               CALL NEXT
  027E    2A 00E1               LD HL,(EOFP)
  0281    ED 42                 SBC HL,BC
  0283    E3                    EX (SP),HL
  0284    E5                    PUSH HL
  0285    C5                    PUSH BC
  0286    11 11A3               LD DE,TBUFF
  0289    D5                    PUSH DE
  028A    ED B0                 LDIR
  028C    E1                    POP HL
  028D    C1                    POP BC
  028E    0B                    DEC BC
  028F    CD 07D2               CALL POSITION
  0292    CD 05C5               CALL STR1
  0295    CD 05DC               CALL US1
  0298    CD 0540               CALL CRLF
  029B    E1                    POP HL
  029C    E3                    EX (SP),HL
  029D    CD 0797               CALL MEMCHECK
  02A0    E1                    POP HL
  02A1    E5                    PUSH HL
  02A2    C5                    PUSH BC
  02A3    CD 06EE               CALL REMOVE
  02A6    C1                    POP BC
  02A7    D1                    POP DE
                                
  02A8    D5                    INSERT:  PUSH DE
  02A9    C5                    PUSH BC
  02AA    2A 00E1               LD HL,(EOFP)
  02AD    E5                    PUSH HL
  02AE    09                    ADD HL,BC
  02AF    22 00E1               LD (EOFP),HL
  02B2    E3                    EX (SP),HL
  02B3    E5                    PUSH HL
  02B4    ED 52                 SBC HL,DE
  02B6    E3                    EX (SP),HL
  02B7    C1                    POP BC
  02B8    D1                    POP DE
  02B9    03                    INC BC
  02BA    ED B8                 LDDR
  02BC    C1                    POP BC
  02BD    D1                    POP DE
  02BE    21 11A3               LD HL,TBUFF
  02C1    ED B0                 LDIR
  02C3    C9                    RET
                                
  02C4    3E 04                 WRITE:  LD A,4
  02C6    ED 5B 00DF            LD DE,(SOFP)
  02CA    D5                    PUSH DE
  02CB    FD E1                 POP IY
  02CD    2A 00E1               LD HL,(EOFP)
  02D0    ED 52                 SBC HL,DE
	MACRO-80 3.43	27-Jul-81	PAGE	1-7


  02D2    0D                    DEC C
  02D3    C4 0602               CALL NZ,OWRITE
  02D6    ED 53 1104            LD (FILESTART),DE
  02DA    22 1102               LD (FILESIZE),HL
  02DD    CD 061A               CALL GETNAME
  02E0    CD 0576               CALL PHEAD
  02E3    DA 012B               JP C,ZEN
  02E6    FD 22 1104            LD (FILESTART),IY
  02EA    CD 057A               CALL PDATA
  02ED    DA 012B               JP C,ZEN
  02F0    C3 0540               JP CRLF
                                
  02F3    CD 0636               VERIFY:  CALL FINDFILE
  02F6    FD 22 1104            LD (FILESTART),IY
  02FA    CD 0586               CALL CHECK
  02FD    D0                    RET NC
  02FE    3D                    BADNEWS:  DEC A
  02FF    C2 012B               JP NZ,ZEN
  0302    2E 00                 E3:  LD L,M3 OR 0FFH
  0304    C3 0530               JP ERR
                                
  0307    CD 0636               READ:  CALL FINDFILE
  030A    28 0C                 JR Z,RSOURCE
  030C    CD 0582               CALL LDATA
  030F    38 ED                 JR C,BADNEWS
  0311    2A 1106               LD HL,(FILEXEC)
  0314    22 0129               LD (UPC),HL
  0317    C9                    RET
                                
  0318    2A 00E1               RSOURCE:  LD HL,(EOFP)
  031B    E5                    PUSH HL
  031C    ED 4B 1102            LD BC,(FILESIZE)
  0320    CD 0797               CALL MEMCHECK
  0323    E1                    POP HL
  0324    22 1104               LD (FILESTART),HL
  0327    CD 0582               CALL LDATA
  032A    38 D2                 JR C,BADNEWS
  032C    09                    ADD HL,BC
  032D    22 00E1               LD (EOFP),HL
                                
  0330    2A 00DF               HOWBIG:  LD HL,(SOFP)
  0333    CD 07FF               CALL WORDSP
  0336    2A 00E1               LD HL,(EOFP)
  0339    CD 07FF               CALL WORDSP
  033C    CD 07AB               CALL MEMTOP
  033F    CD 07FF               CALL WORDSP
  0342    C3 0540               JP CRLF
                                
  0345    21 0540               SORT:  LD HL,CRLF
  0348    E5                    PUSH HL
  0349    3A 11A4               LD A,(TBUFF+1)
  034C    F5                    PUSH AF
  034D    CD 088E               CALL GETOPTION
  0350    DD 36 02 01           LD (IX+F3),1
  0354    F1                    POP AF
  0355    4F                    LD C,A
	MACRO-80 3.43	27-Jul-81	PAGE	1-8


  0356    FE 0D                 CP CR
  0358    20 0B                 JR NZ,SCAN
  035A    0E 41                 LD C,'A'
  035C    CD 0365               SRT2:  CALL SCAN
  035F    0C                    INC C
  0360    79                    LD A,C
  0361    FE 5A                 CP 'Z'
  0363    20 F7                 JR NZ,SRT2
  0365    21 1140               SCAN:  LD HL,AEND-1
  0368    23                    SCN1:  INC HL
  0369    23                    SCN2:  INC HL
  036A    7E                    LD A,(HL)
  036B    3C                    INC A
  036C    C8                    RET Z
  036D    CD 08A3               CALL HOLD
  0370    06 00                 LD B,0
  0372    54                    LD D,H
  0373    5D                    LD E,L
  0374    04                    SCN3:  INC B
  0375    CB 7E                 BIT 7,(HL)
  0377    23                    INC HL
  0378    28 FA                 JR Z,SCN3
  037A    1A                    LD A,(DE)
  037B    B9                    CP C
  037C    20 EA                 JR NZ,SCN1
  037E    DD 35 02              DEC (IX+F3)
  0381    20 15                 JR NZ,SCN4
  0383    CD 0540               CALL CRLF
  0386    DD 36 02 04           LD (IX+F3),4
  038A    DD CB 00 4E           BIT 1,(IX+F1)
  038E    28 03                 JR Z,SCN31
  0390    DD 35 02              DEC (IX+F3)
  0393    D5                    SCN31:  PUSH DE
  0394    CD 066C               CALL PAGE
  0397    D1                    POP DE
  0398    EB                    SCN4:  EX DE,HL
  0399    C5                    PUSH BC
  039A    D5                    PUSH DE
  039B    50                    LD D,B
  039C    0E 7F                 LD C,7FH
  039E    CD 0A07               CALL SYMFIELD
  03A1    E1                    POP HL
  03A2    C1                    POP BC
  03A3    5E                    LD E,(HL)
  03A4    23                    INC HL
  03A5    56                    LD D,(HL)
  03A6    EB                    EX DE,HL
  03A7    CD 07FF               CALL WORDSP
  03AA    EB                    EX DE,HL
  03AB    18 BC                 JR SCN2
                                
  03AD    38 04                 GOTO:  JR C,GOT2
  03AF    ED 43 0129            LD (UPC),BC
  03B3    2E 00                 GOT2:  LD L,M24 OR 0FFH
  03B5    CD 070A               CALL PARAMETER
  03B8    38 1F                 JR C,GOT3
	MACRO-80 3.43	27-Jul-81	PAGE	1-9


  03BA    22 00F1               LD (BKPTADDR),HL
  03BD    7E                    LD A,(HL)
  03BE    32 00F3               LD (BKPTCODE),A
  03C1    36 FF                 LD (HL),0FFH
  03C3    21 1038               LD HL,1038H
  03C6    11 00F4               LD DE,CODE
  03C9    7E                    LD A,(HL)
  03CA    12                    LD (DE),A
  03CB    36 C3                 LD (HL),0C3H
  03CD    23                    INC HL
  03CE    13                    INC DE
  03CF    7E                    LD A,(HL)
  03D0    12                    LD (DE),A
  03D1    36 03                 LD (HL),REENTRY AND 0FFH
  03D3    23                    INC HL
  03D4    13                    INC DE
  03D5    7E                    LD A,(HL)
  03D6    12                    LD (DE),A
  03D7    36 00                 LD (HL),REENTRY/256
  03D9    31 010F               GOT3:  LD SP,IMAGE
  03DC    E1                    POP HL
  03DD    D1                    POP DE
  03DE    C1                    POP BC
  03DF    F1                    POP AF
  03E0    08                    EX AF,AF
  03E1    D9                    EXX
  03E2    C1                    POP BC
  03E3    79                    LD A,C
  03E4    ED 47                 LD I,A
  03E6    78                    LD A,B
  03E7    ED 4F                 LD R,A
  03E9    E1                    POP HL
  03EA    D1                    POP DE
  03EB    C1                    POP BC
  03EC    F1                    POP AF
  03ED    D9                    EXX
  03EE    08                    EX AF,AF
  03EF    DD E1                 POP IX
  03F1    FD E1                 POP IY
  03F3    C3 0125               JP EXIT
                                
  03F6    CD 071F               COPY:  CALL STARTSTOP
  03F9    E5                    PUSH HL
  03FA    2E 90                 LD L,M27 AND 0FFH
  03FC    CD 070A               CALL PARAMETER
  03FF    EB                    EX DE,HL
  0400    C1                    POP BC
  0401    ED B0                 LDIR
  0403    C9                    RET
                                
  0404    CD 071F               FILL:  CALL STARTSTOP
  0407    E5                    PUSH HL
  0408    2E 96                 LD L,M28 AND 0FFH
  040A    CD 070A               CALL PARAMETER
  040D    EB                    EX DE,HL
  040E    C1                    POP BC
	MACRO-80 3.43	27-Jul-81	PAGE	1-10


  040F    73                    FIL2:  LD (HL),E
  0410    23                    INC HL
  0411    0B                    DEC BC
  0412    78                    LD A,B
  0413    B1                    OR C
  0414    20 F9                 JR NZ,FIL2
  0416    C9                    RET
                                
  0417    38 04                 MODIFY:  JR C,MOD1
  0419    ED 43 00E3            LD (CUROBJ),BC
  041D    2A 00E3               MOD1:  LD HL,(CUROBJ)
  0420    CD 0540               MOD2:  CALL CRLF
  0423    CD 07FF               CALL WORDSP
  0426    22 00E3               MOD3:  LD (CUROBJ),HL
  0429    7E                    LD A,(HL)
  042A    CD 0804               CALL BYTESP
  042D    EB                    EX DE,HL
  042E    CD 05D6               CALL US0
  0431    FE 2E                 CP '.'
  0433    CA 0540               JP Z,CRLF
  0436    C5                    PUSH BC
  0437    CD 070D               CALL PARAM1
  043A    C1                    POP BC
  043B    EB                    EX DE,HL
  043C    38 10                 JR C,MOD5
  043E    73                    LD (HL),E
  043F    79                    LD A,C
  0440    C6 02                 ADD A,2
  0442    47                    LD B,A
  0443    3E 08                 MOD4:  LD A,BS
  0445    CD 054A               CALL OUTPUT
  0448    10 F9                 DJNZ MOD4
  044A    7E                    LD A,(HL)
  044B    CD 0804               CALL BYTESP
  044E    23                    MOD5:  INC HL
  044F    7D                    LD A,L
  0450    E6 07                 AND 7
  0452    28 CC                 JR Z,MOD2
  0454    18 D0                 JR MOD3
                                
  0456    38 04                 QUERY:  JR C,QU2
  0458    ED 43 00E3            LD (CUROBJ),BC
  045C    2A 00E3               QU2:  LD HL,(CUROBJ)
  045F    7D                    LD A,L
  0460    E6 F8                 AND 0F8H
  0462    6F                    LD L,A
  0463    0E 08                 LD C,8
  0465    06 08                 QU3:  LD B,8
  0467    E5                    PUSH HL
  0468    CD 07FF               CALL WORDSP
  046B    7E                    QU4:  LD A,(HL)
  046C    CD 0804               CALL BYTESP
  046F    23                    INC HL
  0470    10 F9                 DJNZ QU4
  0472    E1                    POP HL
  0473    CD 0548               CALL SPACE
	MACRO-80 3.43	27-Jul-81	PAGE	1-11


  0476    06 08                 LD B,8
  0478    7E                    QU5:  LD A,(HL)
  0479    FE 11                 CP 11H
  047B    30 02                 JR NC,QU7
  047D    3E 2E                 LD A,'.'
  047F    CD 054A               QU7:  CALL OUTPUT
  0482    23                    INC HL
  0483    10 F3                 DJNZ QU5
  0485    CD 0540               CALL CRLF
  0488    0D                    DEC C
  0489    20 DA                 JR NZ,QU3
  048B    22 00E3               LD (CUROBJ),HL
  048E    C9                    RET
                                
  048F    21 0540               XAMINE:  LD HL,CRLF
  0492    E5                    PUSH HL
  0493    2E 9C                 LD L,M29 AND 0FFH
  0495    CD 053B               CALL PR2
  0498    21 010F               LD HL,IMAGE
  049B    06 05                 LD B,5
  049D    CD 04BD               CALL PAIR
  04A0    CD 0540               CALL CRLF
  04A3    06 04                 LD B,4
  04A5    CD 04BD               CALL PAIR
  04A8    CD 0540               CALL CRLF
  04AB    E5                    PUSH HL
  04AC    2E B4                 LD L,M30 AND 0FFH
  04AE    CD 053B               CALL PR2
  04B1    E1                    POP HL
  04B2    06 02                 LD B,2
  04B4    CD 04BD               CALL PAIR
  04B7    23                    INC HL
  04B8    CD 04BC               CALL ONEPAIR
  04BB    23                    INC HL
  04BC    04                    ONEPAIR:  INC B
  04BD    5E                    PAIR:  LD E,(HL)
  04BE    23                    INC HL
  04BF    56                    LD D,(HL)
  04C0    23                    INC HL
  04C1    EB                    EX DE,HL
  04C2    CD 07FF               CALL WORDSP
  04C5    EB                    EX DE,HL
  04C6    10 F5                 DJNZ PAIR
  04C8    C9                    RET
                                
  04C9    C5                    OUTPORT:  PUSH BC
  04CA    2E 96                 LD L,M28 AND 0FFH
  04CC    CD 070A               CALL PARAMETER
  04CF    C1                    POP BC
  04D0    ED 69                 OUT (C),L
  04D2    C9                    RET
                                
  04D3    ED 78                 INPORT:  IN A,(C)
  04D5    F5                    PUSH AF
  04D6    CD 0804               CALL BYTESP
  04D9    F1                    POP AF
	MACRO-80 3.43	27-Jul-81	PAGE	1-12


  04DA    06 08                 LD B,8
  04DC    07                    IN2:  RLCA
  04DD    F5                    PUSH AF
  04DE    E6 01                 AND 1
  04E0    C6 30                 ADD A,'0'
  04E2    CD 054A               CALL OUTPUT
  04E5    F1                    POP AF
  04E6    10 F4                 DJNZ IN2
  04E8    C3 0540               JP CRLF
  04EB    D5                    COMTAB:  DB 'U'+80H
  04EC    01DD                  DW UP
  04EE    C9                    DB 'I'+80H
  04EF    04D3                  DW INPORT
  04F1    CF                    DB 'O'+80H
  04F2    04C9                  DW OUTPORT
  04F4    D1                    DB 'Q'+80H
  04F5    0456                  DW QUERY
  04F7    CD                    DB 'M'+80H
  04F8    0417                  DW MODIFY
  04FA    C6                    DB 'F'+80H
  04FB    0404                  DW FILL
  04FD    C3                    DB 'C'+80H
  04FE    03F6                  DW COPY
  0500    C7                    DB 'G'+80H
  0501    03AD                  DW GOTO
  0503    D8                    DB 'X'+80H
  0504    048F                  DW XAMINE
  0506    C1                    DB 'A'+80H
  0507    082A                  DW ASMB
  0509    CB                    DB 'K'+80H
  050A    01E9                  DW KILL
  050C    C8                    DB 'H'+80H
  050D    0330                  DW HOWBIG
  050F    C5                    DB 'E'+80H
  0510    0261                  DW ENTER
  0512    D4                    DB 'T'+80H
  0513    01FC                  DW TARGET
  0515    CE                    DB 'N'+80H
  0516    027A                  DW NEW
  0518    C4                    DB 'D'+80H
  0519    0200                  DW DOWN
  051B    DA                    DB 'Z'+80H
  051C    0218                  DW ZAP
  051E    D0                    DB 'P'+80H
  051F    0235                  DW PRINT
  0521    FF                    DB 0FFH
                                
  0522    D5                    EOF:  PUSH DE
  0523    EB                    EX DE,HL
  0524    2A 00E1               LD HL,(EOFP)
  0527    2B                    DEC HL
  0528    B7                    OR A
  0529    ED 52                 SBC HL,DE
  052B    EB                    EX DE,HL
  052C    D1                    POP DE
  052D    D0                    RET NC
	MACRO-80 3.43	27-Jul-81	PAGE	1-13


  052E    2E 1E                 LD L,M5 AND 0FFH
                                
  0530    ED 7B 00E9            ERR:  LD SP,(STK)
  0534    DD 36 00 56           ERR2:  LD (IX+F1),'V'
  0538    CD 0592               CALL BEEP
                                
  053B    26 00                 PR2:  LD H,M1/256
  053D    CD 05C5               PR3:  CALL STR1
  0540    F5                    CRLF:  PUSH AF
  0541    3E 0D                 LD A,CR
  0543    CD 054A               CALL OUTPUT
  0546    F1                    POP AF
  0547    C9                    RET
                                
  0548    3E 20                 SPACE:  LD A,BLANK
                                
  054A                          OUTPUT:
  054A    DD CB 00 4E           BIT 1,(IX+F1)
  054E    FE 0D                 VIDEO:  CP CR
  0550    20 04                 JR NZ,VID2
  0552    3E CD                 LD A,0CDH
  0554    18 0E                 JR VID4
  0556    FE 08                 VID2:  CP BS
  0558    20 04                 JR NZ,VID3
  055A    3E C7                 LD A,0C7H
  055C    18 06                 JR VID4
  055E    FE 0C                 VID3:  CP FF
  0560    20 06                 JR NZ,VID5
  0562    3E C6                 LD A,0C6H
  0564    CD 0596               VID4:  CALL CONTROL
  0567    C9                    RET
  0568    E5                    VID5:  PUSH HL
  0569    CD 058A               CALL SCREEN
  056C    CD 05A2               CALL SPECIAL
  056F    77                    LD (HL),A  ;PRINT CHAR IN VRAM
  0570    21 1171               LD HL,CURSOR
  0573    34                    INC (HL)
  0574    E1                    POP HL
  0575    C9                    RET
                                
                                ;
                                ;
                                ;  MEMSWITCH ROUTINES
                                ;
                                ;
  0576                          PHEAD:      ;CALLED ONCE ONLY...
  0576    CD 0021               CALL 21H
  0579    C9                    RET
                                ;
  057A                          PDATA:      ;CALLED ONCE ONLY...
  057A    CD 0024               CALL 24H
  057D    C9                    RET
                                ;
  057E                          LHEAD:
  057E    CD 0027               CALL 27H    ;NOT REQUIRED?
  0581    C9                    RET
	MACRO-80 3.43	27-Jul-81	PAGE	1-14


                                ;
  0582                          LDATA:      ;NOT REQUIRED?
  0582    CD 002A               CALL 2AH
  0585    C9                    RET
                                ;
  0586                          CHECK:      ;CALLED ONCE ONLY...
  0586    CD 051D               CALL 051DH
  0589    C9                    RET
                                ;
  058A                          SCREEN:      ;CALLED ONCE ONLY... IS 'POSITION:' IN MONITOR ROM!
  058A    CD 0E99               CALL 0E99H
  058D    C9                    RET
                                ;
  058E                          BREAK:       ;CALLED ONCE ONLY...
  058E    CD 094E               CALL 094EH
  0591    C9                    RET
                                ;
  0592                          BEEP:        ;CALLED SEVERAL TIMES....
  0592    CD 02A0               CALL 02A0H
  0595    C9                    RET
                                ;
  0596                          CONTROL:
  0596    CD 0CDB               CALL 0CDBH
  0599    C9                    RET
                                ;
  059A                          GETCHAR:
  059A    CD 08C3               CALL 08C3H
  059D    C9                    RET
                                ;
  059E                          NORMAL:
  059E    CD 0AD0               CALL 0AD0H
  05A1    C9                    RET
                                ;
  05A2                          SPECIAL:
  05A2    CD 0ABC               CALL 0ABCH
  05A5    C9                    RET
                                
  05A6    CD 0596               KB2:  CALL CONTROL
  05A9    CD 059A               KEYBOARD:  CALL GETCHAR
  05AC    FE C9                 CP 0C9H
  05AE    28 F6                 JR Z,KB2
  05B0    FE CA                 CP 0CAH
  05B2    28 F2                 JR Z,KB2
  05B4    CD 059E               CALL NORMAL
  05B7    FE 66                 CP 66H
  05B9    20 02                 JR NZ,KB3
  05BB    3E 0D                 LD A,CR
  05BD    FE 60                 KB3:  CP 60H
  05BF    C0                    RET NZ
  05C0    3E 08                 LD A,BS
  05C2    C9                    RET
                                
  05C3    26 00                 STRING:  LD H,M1/256
  05C5    7E                    STR1:  LD A,(HL)
  05C6    FE 0D                 CP CR
  05C8    C8                    RET Z
	MACRO-80 3.43	27-Jul-81	PAGE	1-15


  05C9    CD 054A               CALL OUTPUT
  05CC    23                    INC HL
  05CD    18 F6                 JR STR1
                                
  05CF    CD 05C3               CUE:  CALL STRING
  05D2    21 0540               USER:  LD HL,CRLF
  05D5    E5                    PUSH HL
  05D6    21 11A3               US0:  LD HL,TBUFF
  05D9    01 0000               LD BC,0
  05DC    CD 05A9               US1:  CALL KEYBOARD
  05DF    77                    LD (HL),A
  05E0    FE 08                 CP BS
  05E2    20 07                 JR NZ,US2
  05E4    0D                    DEC C
  05E5    FA 05D6               JP M,US0
  05E8    2B                    DEC HL
  05E9    18 12                 JR US4
  05EB    0C                    US2:  INC C
  05EC    FE 0D                 CP CR
  05EE    3A 11A3               LD A,(TBUFF)
  05F1    C8                    RET Z
  05F2    0D                    DEC C
  05F3    3A 1171               LD A,(CURSOR)
  05F6    FE 27                 CP 39
  05F8    28 E2                 JR Z,US1
  05FA    7E                    LD A,(HL)
  05FB    0C                    INC C
  05FC    23                    INC HL
  05FD    CD 054A               US4:  CALL OUTPUT
  0600    18 DA                 JR US1
                                
  0602    CD 071F               OWRITE:  CALL STARTSTOP
  0605    E5                    PUSH HL
  0606    2E 8A                 LD L,M25 AND 0FFH
  0608    CD 070A               CALL PARAMETER
  060B    22 1106               LD (FILEXEC),HL
  060E    2E 22                 LD L,M6 AND 0FFH
  0610    CD 070A               CALL PARAMETER
  0613    EB                    EX DE,HL
  0614    E3                    EX (SP),HL
  0615    FD E1                 POP IY
  0617    3E 01                 LD A,1
  0619    C9                    RET
                                
  061A    11 10F0               GETNAME:  LD DE,HBUFF
  061D    12                    LD (DE),A
  061E    2E 71                 GTN2:  LD L,M21 AND 0FFH
  0620    CD 05CF               CALL CUE
  0623    79                    LD A,C
  0624    FE 12                 CP 18
  0626    30 F6                 JR NC,GTN2
  0628    13                    INC DE
  0629    21 11A3               LD HL,TBUFF
  062C    ED B0                 LDIR
  062E    EB                    EX DE,HL
  062F    2B                    DEC HL
	MACRO-80 3.43	27-Jul-81	PAGE	1-16


  0630    4F                    LD C,A
  0631    0C                    INC C
  0632    ED B8                 LDDR
  0634    4F                    LD C,A
  0635    C9                    RET
                                
  0636    0D                    FINDFILE:  DEC C
  0637    F5                    PUSH AF
  0638    3E 04                 LD A,4
  063A    28 02                 JR Z,FL2
  063C    3E 01                 LD A,1
  063E    CD 061A               FL2:  CALL GETNAME
  0641    CD 057E               FL3:  CALL LHEAD
  0644    CD 0540               CALL CRLF
  0647    DA 02FE               JP C,BADNEWS
  064A    2E 30                 LD L,M8 AND 0FFH
  064C    CD 05C3               CALL STRING
  064F    21 10F0               LD HL,HBUFF
  0652    E5                    PUSH HL
  0653    CD 05C5               CALL STR1
  0656    E1                    POP HL
  0657    11 11A3               LD DE,TBUFF
  065A    41                    LD B,C
  065B    10 01                 DJNZ FL4
  065D    05                    DEC B
  065E    04                    FL4:  INC B
  065F    04                    INC B
  0660    1A                    FL5:  LD A,(DE)
  0661    BE                    CP (HL)
  0662    20 DD                 JR NZ,FL3
  0664    23                    INC HL
  0665    13                    INC DE
  0666    10 F8                 DJNZ FL5
  0668    F1                    POP AF
  0669    C3 0540               JP CRLF
                                
  066C    DD 35 03              PAGE:  DEC (IX+F5)
  066F    C0                    RET NZ
  0670    3E 3C                 LD A,60
  0672    DD CB 00 4E           BIT 1,(IX+F1)
  0676    28 02                 JR Z,PG2
  0678    3E 16                 LD A,22
  067A    DD 77 03              PG2:  LD (IX+F5),A
  067D    CD 0774               CALL DELAY
  0680    E5                    PUSH HL
  0681    2E 19                 LD L,M4 AND 0FFH
  0683    CD 05C3               CALL STRING
  0686    2A 00D9               LD HL,(LCT)
  0689    E5                    PUSH HL
  068A    2A 00D7               LD HL,(PAGENO)
  068D    23                    INC HL
  068E    22 00D7               LD (PAGENO),HL
  0691    22 00D9               LD (LCT),HL
  0694    CD 07D2               CALL POSITION
  0697    E1                    POP HL
  0698    22 00D9               LD (LCT),HL
	MACRO-80 3.43	27-Jul-81	PAGE	1-17


  069B    E1                    POP HL
  069C    CD 0540               CALL CRLF
  069F    C3 0540               JP CRLF
                                
  06A2    E3                    TRAP:  EX (SP),HL
  06A3    2B                    DEC HL
  06A4    22 0129               LD (UPC),HL
  06A7    E1                    POP HL
  06A8    ED 73 0126            LD (USP),SP
  06AC    31 0125               LD SP,EXIT
  06AF    FD E5                 PUSH IY
  06B1    DD E5                 PUSH IX
  06B3    08                    EX AF,AF
  06B4    D9                    EXX
  06B5    F5                    PUSH AF
  06B6    C5                    PUSH BC
  06B7    D5                    PUSH DE
  06B8    E5                    PUSH HL
  06B9    ED 5F                 LD A,R
  06BB    47                    LD B,A
  06BC    ED 57                 LD A,I
  06BE    4F                    LD C,A
  06BF    C5                    PUSH BC
  06C0    D9                    EXX
  06C1    08                    EX AF,AF
  06C2    F5                    PUSH AF
  06C3    C5                    PUSH BC
  06C4    D5                    PUSH DE
  06C5    E5                    PUSH HL
  06C6    2A 00F1               LD HL,(BKPTADDR)
  06C9    ED 5B 0129            LD DE,(UPC)
  06CD    B7                    OR A
  06CE    ED 52                 SBC HL,DE
  06D0    20 14                 JR NZ,TRAP2
  06D2    3A 00F3               LD A,(BKPTCODE)
  06D5    12                    LD (DE),A
  06D6    11 1038               LD DE,1038H
  06D9    21 00F4               LD HL,CODE
  06DC    01 0003               LD BC,3
  06DF    ED B0                 LDIR
  06E1    ED 5B 0129            LD DE,(UPC)
  06E5    1B                    DEC DE
  06E6    13                    TRAP2:  INC DE
  06E7    ED 53 0129            LD (UPC),DE
  06EB    C3 012B               JP ZEN
                                
  06EE    E5                    REMOVE:  PUSH HL
  06EF    CD 07C4               CALL NEXT
  06F2    E5                    PUSH HL
  06F3    2A 00E1               LD HL,(EOFP)
  06F6    E5                    PUSH HL
  06F7    B7                    OR A
  06F8    ED 42                 SBC HL,BC
  06FA    22 00E1               LD (EOFP),HL
  06FD    E1                    POP HL
  06FE    D1                    POP DE
	MACRO-80 3.43	27-Jul-81	PAGE	1-18


  06FF    D5                    PUSH DE
  0700    B7                    OR A
  0701    ED 52                 SBC HL,DE
  0703    E3                    EX (SP),HL
  0704    C1                    POP BC
  0705    D1                    POP DE
  0706    C8                    RET Z
  0707    ED B0                 LDIR
  0709    C9                    RET
                                
  070A    CD 05CF               PARAMETER:  CALL CUE
  070D    41                    PARAM1:  LD B,C
  070E    05                    DEC B
  070F    37                    SCF
  0710    C8                    RET Z
  0711    D5                    PUSH DE
  0712    11 11A3               LD DE,TBUFF
  0715    CD 0734               CALL CONVERT
  0718    D1                    POP DE
  0719    D0                    RET NC
  071A    CD 0540               CALL CRLF
  071D    18 10                 JR E10
                                
  071F    2E 77                 STARTSTOP:  LD L,M22 AND 0FFH
  0721    CD 070A               CALL PARAMETER
  0724    EB                    EX DE,HL
  0725    2E 7E                 LD L,M23 AND 0FFH
  0727    CD 070A               CALL PARAMETER
  072A    B7                    OR A
  072B    ED 52                 SBC HL,DE
  072D    23                    INC HL
  072E    D0                    RET NC
                                
  072F    2E 0B                 E10:  LD L,M2 AND 0FFH
  0731    C3 0530               JP ERR
                                
  0734    2B                    CONVERT:  DEC HL
  0735    7E                    LD A,(HL)
  0736    0E 10                 LD C,16
  0738    FE 48                 CP 'H'
  073A    28 09                 JR Z,CV0
  073C    0E 08                 LD C,8
  073E    FE 4F                 CP 'O'
  0740    28 03                 JR Z,CV0
  0742    0E 0A                 LD C,10
  0744    04                    INC B
  0745    05                    CV0:  DEC B
  0746    21 0000               LD HL,0
  0749    1A                    CV1:  LD A,(DE)
  074A    D6 30                 SUB 48
  074C    FE 0A                 CP 10
  074E    38 05                 JR C,CV2
  0750    D6 07                 SUB 7
  0752    FE 0A                 CP 10
  0754    D8                    RET C
  0755    B9                    CV2:  CP C
	MACRO-80 3.43	27-Jul-81	PAGE	1-19


  0756    3F                    CCF
  0757    D8                    RET C
  0758    D5                    PUSH DE
  0759    5D                    LD E,L
  075A    54                    LD D,H
  075B    CB 49                 BIT 1,C
  075D    20 08                 JR NZ,CV3
  075F    11 0000               LD DE,0
  0762    CB 59                 BIT 3,C
  0764    20 01                 JR NZ,CV3
  0766    29                    ADD HL,HL
  0767    29                    CV3:  ADD HL,HL
  0768    29                    ADD HL,HL
  0769    19                    ADD HL,DE
  076A    29                    ADD HL,HL
  076B    5F                    LD E,A
  076C    16 00                 LD D,0
  076E    19                    ADD HL,DE
  076F    D1                    POP DE
  0770    13                    INC DE
  0771    10 D6                 DJNZ CV1
  0773    C9                    RET
                                
  0774    CD 08A3               DELAY:  CALL HOLD
  0777    DD CB 00 5E           BIT 3,(IX+F1)
  077B    CC 05A9               CALL Z,KEYBOARD
  077E    FE 51                 CP 'Q'
  0780    CA 012B               JP Z,ZEN
  0783    DD CB 00 DE           SET 3,(IX+F1)
  0787    3E 0C                 CLEAR:  LD A,FF
  0789    C3 054A               JP OUTPUT
                                
  078C    D5                    SOF:  PUSH DE
  078D    EB                    EX DE,HL
  078E    2A 00DF               LD HL,(SOFP)
  0791    B7                    OR A
  0792    ED 52                 SBC HL,DE
  0794    EB                    EX DE,HL
  0795    D1                    POP DE
  0796    C9                    RET
                                
  0797    D5                    MEMCHECK:  PUSH DE
  0798    09                    ADD HL,BC
  0799    EB                    EX DE,HL
  079A    CD 07AB               CALL MEMTOP
  079D    B7                    OR A
  079E    ED 52                 SBC HL,DE
  07A0    EB                    EX DE,HL
  07A1    D1                    POP DE
  07A2    D0                    RET NC
  07A3    CD 07FF               CALL WORDSP
  07A6    2E 40                 LD L,M20 AND 0FFH
  07A8    C3 0530               JP ERR
                                
  07AB    2A 00DB               MEMTOP:  LD HL,(LIMIT)
  07AE    7C                    LD A,H
	MACRO-80 3.43	27-Jul-81	PAGE	1-20


  07AF    B5                    OR L
  07B0    C0                    RET NZ
  07B1    21 1100               LD HL,AEND OR 0FFH
  07B4    24                    MEM2:  INC H
  07B5    7E                    LD A,(HL)
  07B6    2F                    CPL
  07B7    77                    LD (HL),A
  07B8    BE                    CP (HL)
  07B9    2F                    CPL
  07BA    77                    LD (HL),A
  07BB    20 05                 JR NZ,MEM3
  07BD    7C                    LD A,H
  07BE    FE 00                 CP 0H
  07C0    20 F2                 JR NZ,MEM2
  07C2    25                    MEM3:  DEC H
  07C3    C9                    RET
                                
  07C4    CD 0522               NEXT:  CALL EOF
  07C7    01 0000               LD BC,0
  07CA    7E                    NX1:  LD A,(HL)
  07CB    23                    INC HL
  07CC    03                    INC BC
  07CD    FE 0D                 CP CR
  07CF    20 F9                 JR NZ,NX1
  07D1    C9                    RET
                                
  07D2    E5                    POSITION:  PUSH HL
  07D3    C5                    PUSH BC
  07D4    21 11C7               LD HL,TBUFF+36
  07D7    E5                    PUSH HL
  07D8    06 05                 LD B,5
  07DA    36 20                 POS1:  LD (HL),BLANK
  07DC    23                    INC HL
  07DD    10 FB                 DJNZ POS1
  07DF    36 0D                 LD (HL),CR
  07E1    EB                    EX DE,HL
  07E2    1B                    DEC DE
  07E3    01 000A               LD BC,10
  07E6    2A 00D9               LD HL,(LCT)
  07E9    1B                    POS2:  DEC DE
  07EA    D5                    PUSH DE
  07EB    EB                    EX DE,HL
  07EC    CD 0BA8               CALL MA50
  07EF    7B                    LD A,E
  07F0    D1                    POP DE
  07F1    C6 30                 ADD A,'0'
  07F3    12                    LD (DE),A
  07F4    7D                    LD A,L
  07F5    B4                    OR H
  07F6    20 F1                 JR NZ,POS2
  07F8    E1                    POP HL
  07F9    CD 05C5               CALL STR1
  07FC    C1                    POP BC
  07FD    E1                    POP HL
  07FE    C9                    RET
                                
	MACRO-80 3.43	27-Jul-81	PAGE	1-21


  07FF    7C                    WORDSP:  LD A,H
  0800    CD 0809               CALL BYTE
  0803    7D                    LD A,L
  0804    E5                    BYTESP:  PUSH HL
  0805    21 0548               LD HL,SPACE
  0808    E3                    EX (SP),HL
  0809    F5                    BYTE:  PUSH AF
  080A    0F                    RRCA
  080B    0F                    RRCA
  080C    0F                    RRCA
  080D    0F                    RRCA
  080E    CD 0812               CALL NYB
  0811    F1                    POP AF
  0812    E6 0F                 NYB:  AND 0FH
  0814    C6 90                 ADD A,90H
  0816    27                    DAA
  0817    CE 40                 ADC A,40H
  0819    27                    DAA
  081A    C3 054A               JP OUTPUT
                                
  081D    22 00DD               UPDATE:  LD (CURRENT),HL
  0820    E5                    LINC:  PUSH HL
  0821    2A 00D9               LD HL,(LCT)
  0824    23                    INC HL
  0825    22 00D9               LD (LCT),HL
  0828    E1                    POP HL
  0829    C9                    RET
                                
                                ;TABLE LENGTHS
                                
  0003                          JL  EQU  3
  0001                          CL  EQU  1
  0010                          TL  EQU  16
  0015                          LL  EQU  21
  0002                          AL  EQU  2
  0002                          SBL  EQU  2
  0004                          ADL  EQU  4
  0003                          INL  EQU  3
  0003                          OL  EQU  3
  0004                          XL  EQU  4
                                
  0080                          S  EQU  80H
                                
                                ;REGISTER PAIR IDENTIFIERS
                                
  0000                          IBC  EQU  0
  0002                          IDE  EQU  2
  0004                          IHL  EQU  4
  000E                          IAF  EQU  0EH
  0006                          ISP  EQU  6
                                
                                ;REGISTER IDENTIFIERS
                                
  0000                          IB  EQU  0
  0001                          IC  EQU  1
  0002                          ID  EQU  2
	MACRO-80 3.43	27-Jul-81	PAGE	1-22


  0003                          IE  EQU  3
  0004                          IH  EQU  4
  0005                          IL  EQU  5
  0007                          IA  EQU  7
                                
  00DD                          IIX  EQU  0DDH
  00FD                          IIY  EQU  0FDH
                                
  0008                          IREF  EQU  8
  0000                          IINT  EQU  0
                                
                                ;CONDITION CODE IDENTIFIERS
                                
  0018                          ICY  EQU  18H
  0010                          INCY  EQU  10H
  0008                          IZ  EQU  8
  0000                          INZ  EQU  0
  0020                          IPO  EQU  20H
  0028                          IPE  EQU  28H
  0038                          IMIN  EQU  38H
  0030                          IPOS  EQU  30H
                                
                                ;PARSER EXIT TOKENS
                                
  0000                          TR  EQU  0
  0004                          RI  EQU  4
  0001                          RP  EQU  1
  0005                          RPI  EQU  5
  0002                          XY  EQU  2
  0006                          XYI  EQU  6
  0003                          NO  EQU  3
  0007                          NOI  EQU  7
  0008                          RE  EQU  8
  0009                          CC  EQU  9
  000A                          XYD  EQU  10
  000B                          TCR  EQU  11
                                
                                ;INTERMEDIARE TOKENS
                                
  0030                          TALPHA  EQU  30H
  0031                          TLAB  EQU  31H
  0032                          TOPD  EQU  32H
  0033                          TCOM  EQU  33H
  0034                          TIND  EQU  34H
  0040                          TADD  EQU  40H
  00C0                          TSUB  EQU  0C0H
  0080                          TMUL  EQU  80H
  0081                          TDIV  EQU  81H
  0082                          TAND  EQU  82H
  0083                          TOR  EQU  83H
  0035                          TDEF  EQU  35H
  0036                          TLIT  EQU  36H
                                
                                ;TWO PASS ASSEMBLER
                                
  082A    CD 088E               ASMB:  CALL GETOPTION
	MACRO-80 3.43	27-Jul-81	PAGE	1-23


  082D    21 1142               LD HL,AEND+1
  0830    36 FF                 LD (HL),0FFH
  0832    22 00E7               LD (FEP),HL
  0835    CD 083C               CALL PASS
  0838    DD CB 00 AE           RES 5,(IX+F1)
                                
  083C    CD 01EF               PASS:  CALL TOP
  083F    CD 08A3               PS1:  CALL HOLD
  0842    2A 00DD               LD HL,(CURRENT)
  0845    22 00E5               LD (TEMP),HL
  0848    2A 00ED               LD HL,(PC)
  084B    E5                    PUSH HL
  084C    21 0000               LD HL,0
  084F    22 00C8               LD (FLAGS+F2),HL
  0852    22 00CB               LD (FLAGS+F6),HL
  0855    CD 0C6E               CALL CLASS
  0858    FE 31                 CP TLAB
  085A    CC 08B3               CALL Z,SYMBOL
  085D    FE 0B                 CP TCR
  085F    28 19                 JR Z,PS2
  0861    FE 30                 CP TALPHA
  0863    20 24                 JR NZ,E1
  0865    CD 0A5E               CALL OPTSCH
  0868    38 1F                 JR C,E1
  086A    DD 71 04              LD (IX+F6),C
  086D    CD 0907               CALL JUMP
  0870    C2 0AB2               JP NZ,E6
  0873    CD 0AFD               CALL PARSER
  0876    FE 0B                 CP TCR
  0878    20 0F                 JR NZ,E1
  087A    E1                    PS2:  POP HL
  087B    DD CB 00 6E           BIT 5,(IX+F1)
  087F    CC 0981               CALL Z,LIST
  0882    CD 0820               CALL LINC
  0885    04                    INC B
  0886    20 B7                 JR NZ,PS1
  0888    C9                    RET
                                
  0889    2E 0B                 E1:  LD L,M2 AND 0FFH
  088B    C3 0228               JP ER
                                
  088E    2E 28                 GETOPTION:  LD L,M7 AND 0FFH
  0890    CD 05CF               CALL CUE
  0893    F6 B8                 OR 0B8H
  0895    DD 77 00              LD (IX+F1),A
  0898    DD 36 03 01           LD (IX+F5),1
  089C    21 0000               LD HL,0
  089F    22 00D7               LD (PAGENO),HL
  08A2    C9                    RET
                                
  08A3    CD 058E               HOLD:  CALL BREAK
  08A6    C0                    RET NZ
  08A7    DD CB 00 76           BIT 6,(IX+F1)
  08AB    CA 012B               JP Z,ZEN
  08AE    DD CB 00 9E           RES 3,(IX+F1)
  08B2    C9                    RET
	MACRO-80 3.43	27-Jul-81	PAGE	1-24


                                
  08B3    DD CB 01 CE           SYMBOL:  SET 1,(IX+F2)
  08B7    0C                    INC C
  08B8    DD 71 05              LD (IX+F7),C
  08BB    0D                    DEC C
  08BC    CA 0226               JP Z,E0
  08BF    CD 0A4B               CALL SYMSCH
  08C2    FD 22 00EB            LD (LBLP),IY
  08C6    DD CB 00 6E           BIT 5,(IX+F1)
  08CA    28 38                 JR Z,SY2
  08CC    2E 4C                 LD L,M13 AND 0FFH
  08CE    D2 0228               JP NC,ER
  08D1    CD 0A50               CALL OPDSCH
  08D4    2E 37                 LD L,M12 AND 0FFH
  08D6    D2 0228               JP NC,ER
  08D9    2A 00E7               LD HL,(FEP)
  08DC    E5                    PUSH HL
  08DD    06 00                 LD B,0
  08DF    09                    ADD HL,BC
  08E0    23                    INC HL
  08E1    23                    INC HL
  08E2    23                    INC HL
  08E3    CD 078C               CALL SOF
  08E6    2E 47                 LD L,M14 AND 0FFH
  08E8    DA 0228               JP C,ER
  08EB    E1                    POP HL
  08EC    EB                    EX DE,HL
  08ED    ED B0                 LDIR
  08EF    EB                    EX DE,HL
  08F0    2B                    DEC HL
  08F1    CB FE                 SET 7,(HL)
  08F3    C1                    POP BC
  08F4    D1                    POP DE
  08F5    D5                    PUSH DE
  08F6    C5                    PUSH BC
  08F7    23                    INC HL
  08F8    73                    LD (HL),E
  08F9    23                    INC HL
  08FA    72                    LD (HL),D
  08FB    22 00EB               LD (LBLP),HL
  08FE    23                    INC HL
  08FF    36 FF                 LD (HL),0FFH
  0901    22 00E7               LD (FEP),HL
  0904    C3 0C6E               SY2:  JP CLASS
                                
  0907    44                    JUMP:  LD B,H
  0908    CB 7D                 BIT 7,L
  090A    20 04                 JR NZ,JP2
  090C    DD CB 01 DE           SET 3,(IX+F2)
  0910    CB BD                 JP2:  RES 7,L
  0912    5D                    LD E,L
  0913    16 00                 LD D,0
  0915    7D                    LD A,L
  0916    21 0949               LD HL,JPTAB
  0919    19                    ADD HL,DE
  091A    5E                    LD E,(HL)
	MACRO-80 3.43	27-Jul-81	PAGE	1-25


  091B    23                    INC HL
  091C    56                    LD D,(HL)
  091D    D5                    PUSH DE
  091E    FE 05                 CP 5
  0920    D8                    RET C
  0921    FE 25                 CP 37
  0923    DA 0AFD               JP C,PARSER
  0926    CD 0AFD               CALL PARSER
  0929    E5                    PUSH HL
  092A    F5                    PUSH AF
  092B    CD 0AFD               CALL PARSER
  092E    4F                    LD C,A
  092F    F1                    POP AF
  0930    EB                    EX DE,HL
  0931    E1                    POP HL
  0932    07                    RLCA
  0933    07                    RLCA
  0934    07                    RLCA
  0935    07                    RLCA
  0936    B1                    OR C
  0937    4F                    LD C,A
  0938    FD E1                 POP IY
  093A    CD 0C1D               CALL FIND
  093D    47                    LD B,A
  093E    28 01                 JR Z,JP3
  0940    EB                    EX DE,HL
  0941    7D                    JP3:  LD A,L
  0942    07                    RLCA
  0943    07                    RLCA
  0944    07                    RLCA
  0945    07                    RLCA
  0946    B3                    OR E
  0947    FD E9                 JP (IY)
                                
  0949    0ACE                  JPTAB:  DW MOFB
  094B    0DC5                  DW L30
  094D    0D6E                  DW ENDH
  094F    0E31                  DW RSTH
  0951    0E3E                  DW RETH
  0953    0E73                  DW PPH
  0955    0CE1                  DW JRH
  0957    0CEF                  DW DJH
  0959    0E9F                  DW INCH
  095B    0EFE                  DW ML1
  095D    0F35                  DW SRH
  095F    0F23                  DW BITH
  0961    0D0E                  DW DWH
  0963    0D14                  DW DBH
  0965    0D31                  DW DSH
  0967    0D61                  DW EQUH
  0969    0D50                  DW ORGH
  096B    0E8B                  DW IMH
  096D    0D44                  DW LOADH
  096F    0D70                  DW LTAB
  0971    0E5D                  DW CALTAB
  0973    0E48                  DW JMPTAB
	MACRO-80 3.43	27-Jul-81	PAGE	1-26


  0975    0F73                  DW XTAB
  0977    0F4E                  DW INTAB
  0979    0EC7                  DW ADDTAB
  097B    0EB9                  DW ADCTAB
  097D    0EC0                  DW SBCTAB
  097F    0F58                  DW OUTAB
                                
  0981    DD CB 00 76           LIST:  BIT 6,(IX+F1)
  0985    C8                    RET Z
  0986    C5                    PUSH BC
  0987    DD 4E 02              LD C,(IX+F3)
  098A    ED 5B 00CB            LD DE,(FLAGS+F6)
  098E    FD 21 11A3            LD IY,TBUFF
  0992    D5                    LS1:  PUSH DE
  0993    CD 066C               CALL PAGE
  0996    CD 07D2               CALL POSITION
  0999    D1                    POP DE
  099A    06 0E                 LD B,14
  099C    0C                    INC C
  099D    0D                    DEC C
  099E    28 17                 JR Z,LS4
  09A0    CD 07FF               CALL WORDSP
  09A3    06 04                 LD B,4
  09A5    FD 7E 00              LS2:  LD A,(IY+0)
  09A8    CD 0809               CALL BYTE
  09AB    FD 23                 INC IY
  09AD    23                    INC HL
  09AE    0D                    DEC C
  09AF    28 03                 JR Z,LS3
  09B1    10 F2                 DJNZ LS2
  09B3    04                    INC B
  09B4    CB 20                 LS3:  SLA B
  09B6    05                    DEC B
  09B7    CD 0548               LS4:  CALL SPACE
  09BA    10 FB                 DJNZ LS4
  09BC    C5                    PUSH BC
  09BD    E5                    PUSH HL
  09BE    FD E5                 PUSH IY
  09C0    FD 21 00CD            LD IY,COMWIDTH
  09C4    2A 00E5               LD HL,(TEMP)
  09C7    0E FF                 LD C,0FFH
  09C9    DD CB 01 46           BIT 0,(IX+F2)
  09CD    28 1A                 JR Z,LS7
  09CF    CD 0A07               CALL SYMFIELD
  09D2    53                    LD D,E
  09D3    CD 0A0B               CALL FIELD
  09D6    5A                    LD E,D
  09D7    E5                    PUSH HL
  09D8    7E                    LS5:  LD A,(HL)
  09D9    FE 0D                 CP CR
  09DB    28 08                 JR Z,LS6
  09DD    FE 3B                 CP 3BH
  09DF    28 04                 JR Z,LS6
  09E1    14                    INC D
  09E2    23                    INC HL
  09E3    18 F3                 JR LS5
	MACRO-80 3.43	27-Jul-81	PAGE	1-27


  09E5    E1                    LS6:  POP HL
  09E6    CD 0A0B               CALL FIELD
  09E9    E5                    LS7:  PUSH HL
  09EA    7E                    LS8:  LD A,(HL)
  09EB    FE 0D                 CP CR
  09ED    28 04                 JR Z,LS9
  09EF    14                    INC D
  09F0    23                    INC HL
  09F1    18 F7                 JR LS8
  09F3    E1                    LS9:  POP HL
  09F4    CD 0A0B               CALL FIELD
  09F7    22 00E5               LD (TEMP),HL
  09FA    FD E1                 POP IY
  09FC    E1                    POP HL
  09FD    C1                    POP BC
  09FE    CD 0540               CALL CRLF
  0A01    0C                    INC C
  0A02    0D                    DEC C
  0A03    20 8D                 JR NZ,LS1
  0A05    C1                    POP BC
  0A06    C9                    RET
                                
  0A07    FD 21 00CF            SYMFIELD:  LD IY,SYMWIDTH
  0A0B    FD 46 00              FIELD:  LD B,(IY+0)
  0A0E    DD CB 00 4E           BIT 1,(IX+F1)
  0A12    28 03                 JR Z,FD1
  0A14    FD 46 01              LD B,(IY+1)
  0A17    FD 23                 FD1:  INC IY
  0A19    FD 23                 INC IY
  0A1B    7A                    LD A,D
  0A1C    B8                    CP B
  0A1D    38 01                 JR C,FD2
  0A1F    78                    LD A,B
  0A20    3C                    FD2:  INC A
  0A21    3D                    FD3:  DEC A
  0A22    28 0A                 JR Z,FD4
  0A24    F5                    PUSH AF
  0A25    7E                    LD A,(HL)
  0A26    A1                    AND C
  0A27    CD 054A               CALL OUTPUT
  0A2A    F1                    POP AF
  0A2B    23                    INC HL
  0A2C    18 F3                 JR FD3
  0A2E    78                    FD4:  LD A,B
  0A2F    92                    SUB D
  0A30    30 04                 JR NC,FD6
  0A32    23                    FD5:  INC HL
  0A33    3C                    INC A
  0A34    20 FC                 JR NZ,FD5
  0A36    7A                    FD6:  LD A,D
  0A37    90                    SUB B
  0A38    16 00                 LD D,0
  0A3A    30 08                 JR NC,FD8
  0A3C    F5                    FD7:  PUSH AF
  0A3D    CD 0548               CALL SPACE
  0A40    F1                    POP AF
	MACRO-80 3.43	27-Jul-81	PAGE	1-28


  0A41    3C                    INC A
  0A42    20 F8                 JR NZ,FD7
  0A44    7E                    FD8:  LD A,(HL)
  0A45    FE 20                 CP BLANK
  0A47    C0                    RET NZ
  0A48    23                    INC HL
  0A49    18 F9                 JR FD8
                                
  0A4B    21 1142               SYMSCH:  LD HL,AEND+1
  0A4E    18 2C                 JR SEARCH
                                
  0A50    21 0F94               OPDSCH:  LD HL,CCODES
  0A53    DD CB 01 5E           BIT 3,(IX+F2)
  0A57    28 23                 JR Z,SEARCH
  0A59    21 0FB0               LD HL,REGS
  0A5C    18 1E                 JR SEARCH
                                
  0A5E    21 0FE8               OPTSCH:  LD HL,KEYTB
  0A61    C5                    PUSH BC
  0A62    0E 01                 LD C,1
  0A64    CD 0A7C               CALL SEARCH
  0A67    C1                    POP BC
  0A68    23                    INC HL
  0A69    38 11                 JR C,SEARCH
  0A6B    13                    INC DE
  0A6C    0D                    DEC C
  0A6D    37                    SCF
  0A6E    C4 0A7C               CALL NZ,SEARCH
  0A71    03                    INC BC
  0A72    1B                    DEC DE
  0A73    C9                    RET
                                
  0A74    CB 7E                 BAD:  BIT 7,(HL)
  0A76    23                    INC HL
  0A77    28 FB                 JR Z,BAD
  0A79    23                    INC HL
  0A7A    23                    INC HL
  0A7B    D1                    POP DE
                                
  0A7C    7E                    SEARCH:  LD A,(HL)
  0A7D    3C                    INC A
  0A7E    37                    SCF
  0A7F    C8                    RET Z
  0A80    D5                    PUSH DE
  0A81    41                    LD B,C
  0A82    1A                    SC2:  LD A,(DE)
  0A83    10 02                 DJNZ SC3
  0A85    CB FF                 SET 7,A
  0A87    04                    SC3:  INC B
  0A88    BE                    CP (HL)
  0A89    20 E9                 JR NZ,BAD
  0A8B    13                    INC DE
  0A8C    23                    INC HL
  0A8D    10 F3                 DJNZ SC2
  0A8F    5E                    LD E,(HL)
  0A90    23                    INC HL
	MACRO-80 3.43	27-Jul-81	PAGE	1-29


  0A91    56                    LD D,(HL)
  0A92    E3                    EX (SP),HL
  0A93    EB                    EX DE,HL
  0A94    FD E1                 POP IY
  0A96    C9                    RET
                                
  0A97    FE 03                 RESOLV:  CP NO
  0A99    20 17                 JR NZ,E6
  0A9B    DD 7E 01              LD A,(IX+F2)
  0A9E    CB 67                 BIT 4,A
  0AA0    C2 0C08               JP NZ,E7
  0AA3    CB 4F                 BIT 1,A
  0AA5    C9                    RET
                                
  0AA6    FE 03                 LITLE:  CP NO
  0AA8    20 08                 JR NZ,E6
  0AAA    DD CB 00 6E           LITLE2:  BIT 5,(IX+F1)
  0AAE    C0                    RET NZ
  0AAF    7C                    LD A,H
  0AB0    B7                    OR A
  0AB1    C8                    RET Z
  0AB2    2E 5A                 E6:  LD L,M16 AND 0FFH
  0AB4    C3 0228               JP ER
                                
  0AB7    5D                    MOFMIX:  LD E,L
  0AB8    CB 5B                 MOFMX2:  BIT 3,E
  0ABA    20 F6                 JR NZ,E6
  0ABC    7B                    LD A,E
  0ABD    07                    RLCA
  0ABE    07                    RLCA
  0ABF    07                    RLCA
  0AC0    B0                    OR B
  0AC1    18 0C                 JR MOF
  0AC3    3E ED                 MOFPRE:  LD A,0EDH
  0AC5    18 08                 JR MOF
  0AC7    7D                    MOFLH:  LD A,L
  0AC8    CD 0ACF               CALL MOF
  0ACB    7C                    MOFH:  LD A,H
  0ACC    18 01                 JR MOF
  0ACE    78                    MOFB:  LD A,B
                                
  0ACF    E5                    MOF:  PUSH HL
  0AD0    C5                    PUSH BC
  0AD1    CD 0C7E               CALL CL2
  0AD4    23                    INC HL
  0AD5    22 00ED               LD (PC),HL
  0AD8    DD CB 00 6E           BIT 5,(IX+F1)
  0ADC    20 18                 JR NZ,MOF5
  0ADE    DD CB 00 66           BIT 4,(IX+F1)
  0AE2    20 08                 JR NZ,MOF2
  0AE4    2A 00EF               LD HL,(OBJ)
  0AE7    77                    LD (HL),A
  0AE8    23                    INC HL
  0AE9    22 00EF               LD (OBJ),HL
  0AEC    06 00                 MOF2:  LD B,0
  0AEE    DD 4E 02              LD C,(IX+F3)
	MACRO-80 3.43	27-Jul-81	PAGE	1-30


  0AF1    21 11A3               LD HL,TBUFF
  0AF4    09                    ADD HL,BC
  0AF5    77                    LD (HL),A
  0AF6    DD 34 02              MOF5:  INC (IX+F3)
  0AF9    C1                    POP BC
  0AFA    E1                    POP HL
  0AFB    AF                    XOR A
  0AFC    C9                    RET
                                
  0AFD    DD CB 01 46           PARSER:  BIT 0,(IX+F2)
  0B01    3E 0B                 LD A,TCR
  0B03    C0                    RET NZ
  0B04    C5                    PUSH BC
  0B05    CD 0B0A               CALL PA1
  0B08    C1                    POP BC
  0B09    C9                    RET
                                
  0B0A    CD 0BD7               PA1:  CALL TERM
  0B0D    D8                    RET C
  0B0E    FE 34                 CP TIND
  0B10    06 00                 LD B,0
  0B12    20 05                 JR NZ,PA2
  0B14    CD 0BD7               CALL TERM
  0B17    06 04                 LD B,4
  0B19    FE 32                 PA2:  CP TOPD
  0B1B    20 31                 JR NZ,PA7
  0B1D    7C                    LD A,H
  0B1E    B0                    OR B
  0B1F    57                    LD D,A
  0B20    E5                    PUSH HL
  0B21    CD 0BD7               CALL TERM
  0B24    E1                    POP HL
  0B25    4F                    LD C,A
  0B26    7A                    LD A,D
  0B27    D8                    RET C
  0B28    FE 06                 CP XYI
  0B2A    20 2F                 JR NZ,PER
  0B2C    CB 71                 BIT 6,C
  0B2E    28 2B                 JR Z,PER
  0B30    45                    LD B,L
  0B31    C5                    PUSH BC
  0B32    CD 0BD7               CALL TERM
  0B35    CD 0B5E               CALL PA4
  0B38    C1                    POP BC
  0B39    CD 0AAA               CALL LITLE2
  0B3C    20 0C                 JR NZ,PA3
  0B3E    7D                    LD A,L
  0B3F    CB 79                 BIT 7,C
  0B41    28 03                 JR Z,PA31
  0B43    ED 44                 NEG
  0B45    6F                    LD L,A
  0B46    A9                    PA31:  XOR C
  0B47    FA 0AB2               JP M,E6
  0B4A    60                    PA3:  LD H,B
  0B4B    3E 0A                 LD A,XYD
  0B4D    C9                    RET
	MACRO-80 3.43	27-Jul-81	PAGE	1-31


                                
  0B4E    FE 36                 PA7:  CP TLIT
  0B50    20 0C                 JR NZ,PA4
  0B52    B0                    OR B
  0B53    6F                    LD L,A
  0B54    E5                    PUSH HL
  0B55    CD 0BD7               CALL TERM
  0B58    E1                    POP HL
  0B59    7D                    LD A,L
  0B5A    D8                    RET C
  0B5B    C3 0AB2               PER:  JP E6
                                
  0B5E    FE 03                 PA4:  CP NO
  0B60    20 F9                 JR NZ,PER
  0B62    B0                    OR B
  0B63    F5                    PUSH AF
  0B64    E5                    PA5:  PUSH HL
  0B65    CD 0BD7               CALL TERM
  0B68    E1                    POP HL
  0B69    38 11                 JR C,PA6
  0B6B    F5                    PUSH AF
  0B6C    E5                    PUSH HL
  0B6D    CD 0BD7               CALL TERM
  0B70    EB                    EX DE,HL
  0B71    E1                    POP HL
  0B72    FE 03                 CP NO
  0B74    20 E5                 JR NZ,PER
  0B76    F1                    POP AF
  0B77    CD 0B7E               CALL MATH
  0B7A    18 E8                 JR PA5
  0B7C    F1                    PA6:  POP AF
  0B7D    C9                    RET
                                
  0B7E    FE 40                 MATH:  CP TADD
  0B80    20 02                 JR NZ,MA2
  0B82    19                    ADD HL,DE
  0B83    C9                    RET
  0B84    FE C0                 MA2:  CP TSUB
  0B86    20 03                 JR NZ,MA3
  0B88    ED 52                 SBC HL,DE
  0B8A    C9                    RET
  0B8B    FE 82                 MA3:  CP TAND
  0B8D    20 07                 JR NZ,MA4
  0B8F    7B                    LD A,E
  0B90    A5                    AND L
  0B91    6F                    LD L,A
  0B92    7A                    LD A,D
  0B93    A4                    AND H
  0B94    67                    LD H,A
  0B95    C9                    RET
                                
  0B96    FE 83                 MA4:  CP TOR
  0B98    20 07                 JR NZ,MA5
  0B9A    7B                    LD A,E
  0B9B    B5                    OR L
  0B9C    6F                    LD L,A
	MACRO-80 3.43	27-Jul-81	PAGE	1-32


  0B9D    7A                    LD A,D
  0B9E    B4                    OR H
  0B9F    67                    LD H,A
  0BA0    C9                    RET
                                
  0BA1    4B                    MA5:  LD C,E
  0BA2    42                    LD B,D
  0BA3    EB                    EX DE,HL
  0BA4    FE 81                 CP TDIV
  0BA6    20 18                 JR NZ,MA6
  0BA8    21 0000               MA50:  LD HL,0
  0BAB    3E 11                 LD A,17
  0BAD    B7                    OR A
  0BAE    ED 6A                 MA51:  ADC HL,HL
  0BB0    ED 42                 SBC HL,BC
  0BB2    30 02                 JR NC,MA52
  0BB4    09                    ADD HL,BC
  0BB5    37                    SCF
  0BB6    3F                    MA52:  CCF
  0BB7    CB 13                 RL E
  0BB9    CB 12                 RL D
  0BBB    3D                    DEC A
  0BBC    20 F0                 JR NZ,MA51
  0BBE    EB                    EX DE,HL
  0BBF    C9                    RET
                                
  0BC0    FE 80                 MA6:  CP TMUL
  0BC2    20 97                 JR NZ,PER
  0BC4    21 0000               LD HL,0
  0BC7    3E 10                 LD A,16
  0BC9    CB 38                 MA61:  SRL B
  0BCB    CB 19                 RR C
  0BCD    30 01                 JR NC,MA62
  0BCF    19                    ADD HL,DE
  0BD0    EB                    MA62:  EX DE,HL
  0BD1    29                    ADD HL,HL
  0BD2    EB                    EX DE,HL
  0BD3    3D                    DEC A
  0BD4    20 F3                 JR NZ,MA61
  0BD6    C9                    RET
                                
  0BD7    CD 0C6E               TERM:  CALL CLASS
  0BDA    FE 31                 CP TLAB
  0BDC    CA 0AB2               JP Z,E6
  0BDF    FE 0B                 TE2:  CP TCR
  0BE1    20 06                 JR NZ,TE3
  0BE3    DD CB 01 C6           SET 0,(IX+F2)
  0BE7    37                    SCF
  0BE8    C9                    RET
  0BE9    FE 33                 TE3:  CP TCOM
  0BEB    37                    SCF
  0BEC    C8                    RET Z
  0BED    FE 30                 CP TALPHA
  0BEF    37                    SCF
  0BF0    3F                    CCF
  0BF1    C0                    RET NZ
	MACRO-80 3.43	27-Jul-81	PAGE	1-33


  0BF2    CD 0A50               CALL OPDSCH
  0BF5    3E 32                 LD A,TOPD
  0BF7    D0                    RET NC
  0BF8    CD 0A4B               CALL SYMSCH
  0BFB    3E 03                 LD A,NO
  0BFD    D0                    RET NC
  0BFE    3F                    CCF
  0BFF    DD CB 01 E6           SET 4,(IX+F2)
  0C03    DD CB 00 6E           BIT 5,(IX+F1)
  0C07    C0                    RET NZ
  0C08    2E 62                 E7:  LD L,M17 AND 0FFH
  0C0A    C3 0228               JP ER
                                
  0C0D    2A 00DD               TYPE:  LD HL,(CURRENT)
  0C10    CD 0522               CALL EOF
  0C13    23                    INC HL
  0C14    22 00DD               LD (CURRENT),HL
  0C17    2B                    DEC HL
  0C18    7E                    LD A,(HL)
  0C19    FD 21 0C3B            LD IY,TYPTAB
                                
  0C1D    D5                    FIND:  PUSH DE
  0C1E    FD E5                 PUSH IY
  0C20    E3                    EX (SP),HL
  0C21    5E                    LD E,(HL)
  0C22    53                    LD D,E
  0C23    23                    FIN1:  INC HL
  0C24    BE                    CP (HL)
  0C25    28 03                 JR Z,FIN2
  0C27    15                    DEC D
  0C28    20 F9                 JR NZ,FIN1
  0C2A    16 00                 FIN2:  LD D,0
  0C2C    19                    ADD HL,DE
  0C2D    7E                    LD A,(HL)
  0C2E    19                    ADD HL,DE
  0C2F    5F                    LD E,A
  0C30    7E                    LD A,(HL)
  0C31    CB 7B                 BIT 7,E
  0C33    CB BB                 RES 7,E
  0C35    19                    ADD HL,DE
  0C36    E3                    EX (SP),HL
  0C37    FD E1                 POP IY
  0C39    D1                    POP DE
  0C3A    C9                    RET
                                
  0C3B    10 0D 27              TYPTAB:  DB TL,CR,"'"
  0C3E    24 2A 2F 2B           DB '$*/+-&.()'
  0C42    2D 26 2E 28           
  0C46    29                    
  0C47    3B 3A 20 20           DB 3BH,':  ",'
  0C4B    22 2C                 
  0C4D    00                    DB 0
                                
  0C4E    1F                    DB CL3-$-TL
  0C4F    2C                    DB CL4-$-TL
  0C50    1E                    DB CL2-$-TL
	MACRO-80 3.43	27-Jul-81	PAGE	1-34


  0C51    1C                    DB CL3-$-TL
  0C52    1B                    DB CL3-$-TL
  0C53    1A                    DB CL3-$-TL
  0C54    19                    DB CL3-$-TL
  0C55    18                    DB CL3-$-TL
  0C56    17                    DB CL3-$-TL
  0C57    16                    DB CL3-$-TL
  0C58    06                    DB CLASS-$-TL
  0C59    0D                    DB CL1-$-TL
  0C5A    13                    DB CL3-$-TL
  0C5B    20                    DB CL4-$-TL
  0C5C    11                    DB CL3-$-TL
  0C5D    3B                    DB CL5-$-TL
                                
  0C5E    0B 00 03 80           DB TCR,0,NO,TMUL,TDIV
  0C62    81                    
  0C63    40 C0 82 83           DB TADD,TSUB,TAND,TOR
  0C67    34 00 00 31           DB TIND,0,0,TLAB
  0C6B    00 33 35              DB 0,TCOM,TDEF
                                
  0C6E    CD 0C0D               CLASS:  CALL TYPE
  0C71    01 2100               LD BC,2100H
  0C74    FD E9                 JP (IY)
                                
  0C76    CD 0C0D               CL1:  CALL TYPE
  0C79    FE 0B                 CP TCR
  0C7B    20 F9                 JR NZ,CL1
  0C7D    C9                    CL3:  RET
  0C7E    2A 00ED               CL2:  LD HL,(PC)
  0C81    DD CB 00 7E           BIT 7,(IX+F1)
  0C85    C8                    RET Z
  0C86    2E 6C                 E11:  LD L,M18 AND 0FFH
  0C88    C3 0228               JP ER
  0C8B    E5                    CL4:  PUSH HL
  0C8C    46                    LD B,(HL)
  0C8D    5E                    CL41:  LD E,(HL)
  0C8E    0C                    INC C
  0C8F    CD 0C0D               CALL TYPE
  0C92    FE 0B                 CP TCR
  0C94    28 2C                 JR Z,CLER
  0C96    7E                    LD A,(HL)
  0C97    B8                    CP B
  0C98    20 F3                 JR NZ,CL41
  0C9A    EB                    EX DE,HL
  0C9B    D1                    POP DE
  0C9C    0D                    DEC C
  0C9D    28 23                 JR Z,CLER
  0C9F    61                    LD H,C
  0CA0    3E 03                 LD A,NO
  0CA2    25                    DEC H
  0CA3    C8                    RET Z
  0CA4    24                    INC H
  0CA5    3E 36                 LD A,TLIT
  0CA7    C9                    RET
                                
  0CA8    7E                    CL5:  LD A,(HL)
	MACRO-80 3.43	27-Jul-81	PAGE	1-35


  0CA9    B8                    CP B
  0CAA    38 C2                 JR C,CLASS
  0CAC    FE 30                 CP 30H
  0CAE    38 15                 JR C,CL7
  0CB0    FE 3A                 CP 3AH
  0CB2    30 11                 JR NC,CL7
  0CB4    CD 0CC5               CL6:  CALL CL7
  0CB7    FE 31                 CP TLAB
  0CB9    28 07                 JR Z,CLER
  0CBB    41                    LD B,C
  0CBC    CD 0734               CALL CONVERT
  0CBF    3E 03                 LD A,NO
  0CC1    D0                    RET NC
  0CC2    C3 0AB2               CLER:  JP E6
                                
  0CC5    E5                    CL7:  PUSH HL
  0CC6    D1                    POP DE
  0CC7    CB 7E                 CL71:  BIT 7,(HL)
  0CC9    C2 0889               JP NZ,E1
  0CCC    0C                    INC C
  0CCD    CD 0C0D               CALL TYPE
  0CD0    FE 31                 CP TLAB
  0CD2    C8                    RET Z
  0CD3    FE 35                 CP TDEF
  0CD5    20 04                 JR NZ,CL72
  0CD7    7E                    LD A,(HL)
  0CD8    B8                    CP B
  0CD9    30 EC                 JR NC,CL71
  0CDB    22 00DD               CL72:  LD (CURRENT),HL
  0CDE    3E 30                 LD A,TALPHA
  0CE0    C9                    RET
                                
  0CE1    FE 09                 JRH:  CP CC
  0CE3    20 0A                 JR NZ,DJH
  0CE5    7D                    LD A,L
  0CE6    E6 E7                 AND 0E7H
  0CE8    C0                    RET NZ
  0CE9    45                    LD B,L
  0CEA    CB E8                 SET 5,B
  0CEC    CD 0AFD               CALL PARSER
                                
  0CEF    FE 03                 DJH:  CP NO
  0CF1    C0                    RET NZ
  0CF2    CD 0ACE               CALL MOFB
  0CF5    DD CB 00 6E           BIT 5,(IX+F1)
  0CF9    20 0F                 JR NZ,DJ2
  0CFB    ED 5B 00ED            LD DE,(PC)
  0CFF    37                    SCF
  0D00    ED 52                 SBC HL,DE
  0D02    7C                    LD A,H
  0D03    24                    INC H
  0D04    28 02                 JR Z,DJ1
  0D06    25                    DEC H
  0D07    C0                    RET NZ
  0D08    AD                    DJ1:  XOR L
  0D09    F8                    RET M
	MACRO-80 3.43	27-Jul-81	PAGE	1-36


  0D0A    7D                    DJ2:  LD A,L
  0D0B    C3 0ACF               JP MOF
                                
  0D0E    FE 03                 DWH:  CP NO
  0D10    C0                    RET NZ
  0D11    C3 0AC7               JP MOFLH
                                
  0D14    FE 36                 DBH:  CP TLIT
  0D16    20 0A                 JR NZ,DBH3
  0D18    13                    DBH1:  INC DE
  0D19    1A                    LD A,(DE)
  0D1A    CD 0ACF               CALL MOF
  0D1D    25                    DEC H
  0D1E    20 F8                 JR NZ,DBH1
  0D20    18 07                 JR DBH4
                                
  0D22    CD 0AA6               DBH3:  CALL LITLE
  0D25    7D                    LD A,L
  0D26    CD 0ACF               CALL MOF
  0D29    CD 0AFD               DBH4:  CALL PARSER
  0D2C    FE 0B                 CP TCR
  0D2E    20 E4                 JR NZ,DBH
  0D30    C9                    RET
                                
  0D31    CD 0A97               DSH:  CALL RESOLV
  0D34    EB                    EX DE,HL
  0D35    2A 00ED               LD HL,(PC)
  0D38    19                    ADD HL,DE
  0D39    22 00ED               LD (PC),HL
  0D3C    2A 00EF               LD HL,(OBJ)
  0D3F    19                    ADD HL,DE
  0D40    22 00EF               LD (OBJ),HL
  0D43    C9                    RET
                                
  0D44    CD 0A97               LOADH:  CALL RESOLV
  0D47    22 00EF               LD (OBJ),HL
  0D4A    DD CB 00 A6           RES 4,(IX+F1)
  0D4E    AF                    XOR A
  0D4F    C9                    RET
                                
  0D50    CD 0A97               ORGH:  CALL RESOLV
  0D53    22 00ED               LD (PC),HL
  0D56    DD CB 00 E6           SET 4,(IX+F1)
  0D5A    DD CB 00 BE           RES 7,(IX+F1)
  0D5E    20 07                 JR NZ,EQ2
  0D60    C9                    RET
                                
  0D61    CD 0A97               EQUH:  CALL RESOLV
  0D64    CA 0226               JP Z,E0
  0D67    EB                    EQ2:  EX DE,HL
  0D68    2A 00EB               LD HL,(LBLP)
  0D6B    72                    LD (HL),D
  0D6C    2B                    DEC HL
  0D6D    73                    LD (HL),E
  0D6E    AF                    ENDH:  XOR A
  0D6F    C9                    RET
	MACRO-80 3.43	27-Jul-81	PAGE	1-37


                                
  0D70    15                    LTAB:  DB LL
  0D71    00                    DB RPI*16 OR NO
  0D72    00                    DB TR*16 OR NO
  0D73    C3                    DB RE*16 OR TR
  0D74    00                    DB TR*16 OR RE
  0D75    C3                    DB TR*16 OR TR
  0D76    03                    DB RP*16 OR RP
  0D77    FF                    DB NOI*16 OR XY
  0D78    FE                    DB XY*16 OR NOI
  0D79    00                    DB XY*16 OR NO
  0D7A    C3                    DB NOI*16 OR TR
  0D7B    FE                    DB TR*16 OR NOI
  0D7C    03                    DB NOI*16 OR RP
  0D7D    FE                    DB RP*16 OR NOI
  0D7E    FF                    DB RP*16 OR XY
  0D7F    00                    DB XYD*16 OR NO
  0D80    00                    DB RP*16 OR NO
  0D81    C3                    DB XYD*16 OR TR
  0D82    00                    DB TR*16 OR XYD
  0D83    C3                    DB RPI*16 OR TR
  0D84    C3                    DB TR*16 OR RPI
  0D85    00                    DB 0
                                
  0D86    95                    DB L1-$-LL+80H
  0D87    98                    DB L2-$-LL+80H
  0D88    21                    DB L3-$-LL
  0D89    A0                    DB L3-$-LL+80H
  0D8A    AC                    DB L4-$-LL+80H
  0D8B    31                    DB L5-$-LL
  0D8C    35                    DB L6-$-LL
  0D8D    B4                    DB L6-$-LL+80H
  0D8E    B3                    DB L6-$-LL+80H
  0D8F    3C                    DB L7-$-LL
  0D90    BB                    DB L7-$-LL+80H
  0D91    42                    DB L8-$-LL
  0D92    C1                    DB L8-$-LL+80H
  0D93    D2                    DB L9-$-LL+80H
  0D94    D8                    DB LA-$-LL+80H
  0D95    DF                    DB LB-$-LL+80H
  0D96    63                    DB LC-$-LL
  0D97    E2                    DB LC-$-LL+80H
  0D98    6A                    DB LE-$-LL
  0D99    E9                    DB LE-$-LL+80H
  0D9A    36                    DB LER-$-LL
                                
  0D9B    16 06 47 57           DB 16H,6,47H,57H,40H
  0D9F    40                    
  0DA0    F9 22 2A 21           DB 0F9H,22H,2AH,21H,32H
  0DA4    32                    
  0DA5    3A 22 2A F9           DB 3AH,22H,2AH,0F9H,36H
  0DA9    36                    
  0DAA    01 02 0A 02           DB 1,2,0AH,2,0AH,0
  0DAE    0A 00                 
                                
  0DB0    7B                    L1:  LD A,E
	MACRO-80 3.43	27-Jul-81	PAGE	1-38


  0DB1    FE 04                 CP IHL
  0DB3    C0                    RET NZ
  0DB4    CD 0AAA               L2:  CALL LITLE2
  0DB7    CD 0AB8               CALL MOFMX2
  0DBA    7D                    LD A,L
  0DBB    C3 0ACF               L21:  JP MOF
                                
  0DBE    7B                    L3:  LD A,E
  0DBF    FE 07                 CP IA
  0DC1    C0                    RET NZ
  0DC2    7D                    LD A,L
  0DC3    B0                    OR B
  0DC4    47                    LD B,A
  0DC5    CD 0AC3               L30:  CALL MOFPRE
  0DC8    C3 0ACE               L31:  JP MOFB
                                
  0DCB    7D                    L4:  LD A,L
  0DCC    B0                    OR B
  0DCD    47                    LD B,A
  0DCE    C3 0AB8               JP MOFMX2
                                
  0DD1    FE 02                 L5:  CP ISP*16 OR IHL
  0DD3    C0                    RET NZ
  0DD4    18 F2                 JR L31
                                
  0DD6    7B                    L6:  LD A,E
  0DD7    CD 0ACF               L61:  CALL MOF
  0DDA    CD 0ACE               L62:  CALL MOFB
  0DDD    C3 0AC7               L63:  JP MOFLH
                                
  0DE0    7B                    L7:  LD A,E
  0DE1    FE 07                 CP IA
  0DE3    28 F5                 JR Z,L62
  0DE5    C3 0AB2               LER:  JP E6
                                
  0DE8    7B                    L8:  LD A,E
  0DE9    FE 04                 CP IHL
  0DEB    28 ED                 JR Z,L62
  0DED    CD 0AC3               CALL MOFPRE
  0DF0    78                    LD A,B
  0DF1    EE 61                 XOR 61H
  0DF3    47                    LD B,A
  0DF4    CD 0AB8               CALL MOFMX2
  0DF7    C3 0AC7               JP MOFLH
                                
  0DFA    7B                    L9:  LD A,E
  0DFB    FE 06                 CP ISP
  0DFD    C0                    RET NZ
  0DFE    60                    LD H,B
  0DFF    18 DC                 JR L63
                                
  0E01    CD 0AAA               LA:  CALL LITLE2
  0E04    7A                    LD A,D
  0E05    65                    LD H,L
  0E06    6B                    LD L,E
  0E07    18 CE                 JR L61
	MACRO-80 3.43	27-Jul-81	PAGE	1-39


                                
  0E09    CD 0AB8               LB:  CALL MOFMX2
  0E0C    18 CF                 JR L63
                                
  0E0E    CD 0ACB               LC:  CALL MOFH
  0E11    CD 0E25               CALL LE1
  0E14    7D                    LD A,L
  0E15    18 A4                 JR L21
                                
  0E17    FE FE                 LE:  CP IBC*16 OR IA
  0E19    28 AD                 JR Z,L31
  0E1B    CB E0                 SET 4,B
  0E1D    FE FE                 CP IDE*16 OR IA
  0E1F    28 A7                 JR Z,L31
  0E21    7D                    LD A,L
  0E22    FE 04                 CP IHL
  0E24    C0                    RET NZ
  0E25    CB 58                 LE1:  BIT 3,B
  0E27    06 46                 LD B,46H
  0E29    C2 0AB8               JP NZ,MOFMX2
  0E2C    7B                    LD A,E
  0E2D    F6 70                 OR 70H
  0E2F    18 8A                 JR L21
                                
  0E31    CD 0AA6               RSTH:  CALL LITLE
  0E34    20 03                 JR NZ,RST2
  0E36    7D                    LD A,L
  0E37    A0                    AND B
  0E38    C0                    RET NZ
  0E39    78                    RST2:  LD A,B
  0E3A    B5                    OR L
  0E3B    C3 0ACF               JP MOF
                                
  0E3E    FE 09                 RETH:  CP CC
  0E40    28 F7                 JR Z,RST2
  0E42    06 C9                 LD B,0C9H
  0E44    FE 0B                 CP TCR
  0E46    18 11                 JR JMP21
                                
  0E48    03                    JMPTAB:  DB JL
  0E49    00                    DB XYI*16 OR TCR
  0E4A    00                    DB RPI*16 OR TCR
  0E4B    00                    DB 0
  0E4C    03                    DB JMP1-$-JL
  0E4D    06                    DB JMP2-$-JL
  0E4E    10                    DB JMP3-$-JL
  0E4F    E9 E9 C3              DB 0E9H,0E9H,0C3H
                                
  0E52    60                    JMP1:  LD H,B
  0E53    C3 0AC7               JP MOFLH
  0E56    7D                    JMP2:  LD A,L
  0E57    FE 04                 CP IHL
  0E59    C0                    JMP21:  RET NZ
  0E5A    C3 0ACE               JP MOFB
                                
  0E5D    01                    CALTAB:  DB CL
	MACRO-80 3.43	27-Jul-81	PAGE	1-40


  0E5E    00                    DB 0
  0E5F    01                    DB JMP3-$-CL
  0E60    CD                    DB 0CDH
                                
  0E61    79                    JMP3:  LD A,C
  0E62    FE 00                 CP NO*16 OR TCR
  0E64    CA 0DDA               JP Z,L62
  0E67    FE 00                 CP CC*16 OR NO
  0E69    C0                    RET NZ
  0E6A    78                    LD A,B
  0E6B    E6 C6                 AND 0C6H
  0E6D    B5                    OR L
  0E6E    47                    LD B,A
  0E6F    EB                    EX DE,HL
  0E70    C3 0DDA               JP L62
                                
  0E73    FE 01                 PPH:  CP RP
  0E75    20 0B                 JR NZ,PP2
  0E77    7D                    LD A,L
  0E78    FE 06                 CP ISP
  0E7A    CA 0AB2               JP Z,E6
  0E7D    CB 9D                 RES 3,L
  0E7F    C3 0AB7               JP MOFMIX
  0E82    FE 02                 PP2:  CP XY
  0E84    C0                    RET NZ
  0E85    CB E8                 PP21:  SET 5,B
  0E87    60                    LD H,B
  0E88    C3 0AC7               JP MOFLH
                                
  0E8B    CD 0AA6               IMH:  CALL LITLE
  0E8E    20 04                 JR NZ,IM2
  0E90    3E 02                 LD A,2
  0E92    95                    SUB L
  0E93    D8                    RET C
  0E94    11 0E9C               IM2:  LD DE,IMTAB
  0E97    19                    ADD HL,DE
  0E98    46                    LD B,(HL)
  0E99    C3 0DC5               JP L30
                                
  0E9C    46 56 5E              IMTAB:  DB 46H,56H,5EH
                                
  0E9F    FE 02                 INCH:  CP XY
  0EA1    28 E2                 JR Z,PP21
  0EA3    FE 01                 CP RP
  0EA5    CA 0AB7               JP Z,MOFMIX
  0EA8    CB 58                 BIT 3,B
  0EAA    06 34                 LD B,34H
  0EAC    28 01                 JR Z,INC2
  0EAE    04                    INC B
  0EAF    B7                    INC2:  OR A
  0EB0    20 5A                 JR NZ,ML2
  0EB2    78                    LD A,B
  0EB3    E6 C7                 AND 0C7H
  0EB5    47                    LD B,A
  0EB6    C3 0AB7               JP MOFMIX
                                
	MACRO-80 3.43	27-Jul-81	PAGE	1-41


  0EB9    02                    ADCTAB:  DB AL
  0EBA    03                    DB RP*16 OR RP
  0EBB    00                    DB 0
  0EBC    16                    DB DL1-$-AL
  0EBD    B3                    DB DL5-$-AL+80H
  0EBE    4A 8E                 DB 4AH,8EH
                                
  0EC0    02                    SBCTAB:  DB SBL
  0EC1    03                    DB RP*16 OR RP
  0EC2    00                    DB 0
  0EC3    0F                    DB DL1-$-SBL
  0EC4    AC                    DB DL5-$-SBL+80H
  0EC5    42 9E                 DB 42H,9EH
                                
  0EC7    04                    ADDTAB:  DB ADL
  0EC8    03                    DB RP*16 OR RP
  0EC9    03                    DB XY*16 OR RP
  0ECA    FF                    DB XY*16 OR XY
  0ECB    00                    DB 0
  0ECC    07                    DB DL2-$-ADL
  0ECD    0D                    DB DL3-$-ADL
  0ECE    19                    DB DL4-$-ADL
  0ECF    9F                    DB DL5-$-ADL+80H
  0ED0    09 09 29 86           DB 9,9,29H,86H
                                
  0ED4    CD 0AC3               DL1:  CALL MOFPRE
  0ED7    7D                    DL2:  LD A,L
  0ED8    FE 04                 CP IHL
  0EDA    C0                    RET NZ
  0EDB    C3 0AB8               JP MOFMX2
                                
  0EDE    7B                    DL3:  LD A,E
  0EDF    FE 04                 CP IHL
  0EE1    CA 0AB2               JP Z,E6
  0EE4    7D                    LD A,L
  0EE5    CD 0ACF               CALL MOF
  0EE8    C3 0AB8               JP MOFMX2
                                
  0EEB    7B                    DL4:  LD A,E
  0EEC    BD                    CP L
  0EED    60                    LD H,B
  0EEE    C0                    RET NZ
  0EEF    C3 0AC7               JP MOFLH
                                
  0EF2    79                    DL5:  LD A,C
  0EF3    E6 F0                 AND 0F0H
  0EF5    C0                    RET NZ
  0EF6    CB 53                 BIT 2,E
  0EF8    CA 0AB2               JP Z,E6
  0EFB    79                    LD A,C
  0EFC    E6 0F                 AND 0FH
                                
  0EFE    FE 03                 ML1:  CP NO
  0F00    20 0A                 JR NZ,ML2
  0F02    CB F0                 SET 6,B
  0F04    CD 0AAA               ML11:  CALL LITLE2
	MACRO-80 3.43	27-Jul-81	PAGE	1-42


  0F07    65                    ML12:  LD H,L
  0F08    68                    LD L,B
  0F09    C3 0AC7               JP MOFLH
                                
  0F0C    FE 0A                 ML2:  CP XYD
  0F0E    20 05                 JR NZ,ML3
  0F10    CD 0ACB               CALL MOFH
  0F13    18 F2                 JR ML12
                                
  0F15    FE 05                 ML3:  CP RPI
  0F17    CA 0E56               JP Z,JMP2
  0F1A    B7                    OR A
  0F1B    C0                    RET NZ
  0F1C    78                    LD A,B
  0F1D    E6 F8                 AND 0F8H
  0F1F    B5                    OR L
  0F20    C3 0ACF               JP MOF
                                
  0F23    CD 0AA6               BITH:  CALL LITLE
  0F26    20 04                 JR NZ,BIT2
  0F28    3E 07                 LD A,7
  0F2A    95                    SUB L
  0F2B    D8                    RET C
  0F2C    7D                    BIT2:  LD A,L
  0F2D    07                    RLCA
  0F2E    07                    RLCA
  0F2F    07                    RLCA
  0F30    B0                    OR B
  0F31    47                    LD B,A
  0F32    CD 0AFD               CALL PARSER
                                
  0F35    FE 0A                 SRH:  CP XYD
  0F37    20 0C                 JR NZ,SR2
  0F39    E5                    PUSH HL
  0F3A    6C                    LD L,H
  0F3B    26 CB                 LD H,0CBH
  0F3D    CD 0AC7               CALL MOFLH
  0F40    E1                    POP HL
  0F41    60                    LD H,B
  0F42    C3 0AC7               JP MOFLH
                                
  0F45    F5                    SR2:  PUSH AF
  0F46    3E CB                 LD A,0CBH
  0F48    CD 0ACF               CALL MOF
  0F4B    F1                    POP AF
  0F4C    18 C7                 JR ML3
                                
  0F4E    03                    INTAB:  DB INL
  0F4F    FE                    DB TR*16 OR NOI
  0F50    02                    DB TR*16 OR RI
  0F51    00                    DB 0
  0F52    8D                    DB IO1-$-INL+80H
  0F53    93                    DB IO2-$-INL+80H
  0F54    19                    DB IOER-$-INL
  0F55    DB 40 00              DB 0DBH,40H,0
                                
	MACRO-80 3.43	27-Jul-81	PAGE	1-43


  0F58    03                    OUTAB:  DB OL
  0F59    C3                    DB NOI*16 OR TR
  0F5A    C3                    DB RI*16 OR TR
  0F5B    00                    DB 0
  0F5C    03                    DB IO1-$-OL
  0F5D    09                    DB IO2-$-OL
  0F5E    0F                    DB IOER-$-OL
  0F5F    D3 41 00              DB 0D3H,41H,0
                                
  0F62    CB 53                 IO1:  BIT 2,E
  0F64    28 0A                 JR Z,IOER
  0F66    C3 0F04               JP ML11
  0F69    CD 0AC3               IO2:  CALL MOFPRE
  0F6C    2D                    DEC L
  0F6D    CA 0AB8               JP Z,MOFMX2
  0F70    C3 0AB2               IOER:  JP E6
                                
  0F73    04                    XTAB:  DB XL
  0F74    03                    DB RP*16 OR RP
  0F75    03                    DB RPI*16 OR RP
  0F76    FF                    DB RPI*16 OR XY
  0F77    00                    DB 0
  0F78    04                    DB X1-$-XL
  0F79    11                    DB X2-$-XL
  0F7A    93                    DB X3-$-XL+80H
  0F7B    0D                    DB XER-$-XL
  0F7C    EB E3 E3 00           DB 0EBH,0E3H,0E3H,0
                                
  0F80    FE 02                 X1:  CP IDE*16 OR IHL
  0F82    CA 0ACE               JP Z,MOFB
  0F85    06 08                 LD B,8
  0F87    FE 00                 CP IAF*16 OR IAF
  0F89    CA 0ACE               JP Z,MOFB
  0F8C    18 E2                 XER:  JR IOER
                                
  0F8E    C3 0DD1               X2:  JP L5
                                
  0F91    C3 0DFA               X3:  JP L9
                                
  0F94    C3 18 09              CCODES:  DB 'C'+80H,ICY,CC
  0F97    4E C3 10 09           DB 'N','C'+80H,INCY,CC
  0F9B    DA 08 09              DB 'Z'+80H,IZ,CC
  0F9E    4E DA 00 09           DB 'N','Z'+80H,INZ,CC
  0FA2    D0 30 09              DB 'P'+80H,IPOS,CC
  0FA5    CD 38 09              DB 'M'+80H,IMIN,CC
  0FA8    50 CF 20 09           DB 'P','O'+80H,IPO,CC
  0FAC    50 C5 28 09           DB 'P','E'+80H,IPE,CC
                                
  0FB0    48 CC 04 01           REGS:  DB 'H','L'+80H,IHL,RP
  0FB4    44 C5 02 01           DB 'D','E'+80H,IDE,RP
  0FB8    42 C3 00 01           DB 'B','C'+80H,IBC,RP
  0FBC    41 C6 0E 01           DB 'A','F'+80H,IAF,RP
  0FC0    53 D0 06 01           DB 'S','P'+80H,ISP,RP
  0FC4    C1 07 00              DB 'A'+80H,IA,TR
  0FC7    C2 00 00              DB 'B'+80H,IB,TR
  0FCA    C3 01 00              DB 'C'+80H,IC,TR
	MACRO-80 3.43	27-Jul-81	PAGE	1-44


  0FCD    C4 02 00              DB 'D'+80H,ID,TR
  0FD0    C5 03 00              DB 'E'+80H,IE,TR
  0FD3    C8 04 00              DB 'H'+80H,IH,TR
  0FD6    CC 05 00              DB 'L'+80H,IL,TR
  0FD9    C9 00 08              DB 'I'+80H,IINT,RE
  0FDC    D2 08 08              DB 'R'+80H,IREF,RE
  0FDF    49 D9 FD 02           DB 'I','Y'+80H,IIY,XY
  0FE3    49 D8 DD 02           DB 'I','X'+80H,IIX,XY
  0FE7    FF                    DB 0FFH
                                
  0FE8    CC                    KEYTB:  DB 'L'+80H
  0FE9    103D                  DW LOPS-1
  0FEB    C3                    DB 'C'+80H
  0FEC    1058                  DW COPS-1
  0FEE    C4                    DB 'D'+80H
  0FEF    107B                  DW DOPS-1
  0FF1    C9                    DB 'I'+80H
  0FF2    1095                  DW IOPS-1
  0FF4    D3                    DB 'S'+80H
  0FF5    10B2                  DW SOPS-1
  0FF7    CF                    DB 'O'+80H
  0FF8    10CF                  DW OOPS-1
  0FFA    C5                    DB 'E'+80H
  0FFB    10EF                  DW EOPS-1
  0FFD    D2                    DB 'R'+80H
  0FFE    1102                  DW ROPS-1
  1000    FF                    DB 0FFH
                                
  1001    4A D0 AA 00           DB 'J','P'+80H,42+80H,0
  1005    4A D2 8C 18           DB 'J','R'+80H,12+80H,18H
  1009    50 55 53 C8           DB 'PUS','H'+80H,10,0C5H
  100D    0A C5                 
  100F    50 4F D0 0A           DB 'PO','P'+80H,10,0C1H
  1013    C1                    
  1014    41 44 C4 30           DB 'AD','D'+80H,48,0
  1018    00                    
  1019    41 44 C3 32           DB 'AD','C'+80H,50,0
  101D    00                    
  101E    42 49 D4 16           DB 'BI','T'+80H,22,46H
  1022    46                    
  1023    58 4F D2 12           DB 'XO','R'+80H,18,0AEH
  1027    AE                    
  1028    41 4E C4 12           DB 'AN','D'+80H,18,0A6H
  102C    A6                    
  102D    4E 4F D0 00           DB 'NO','P'+80H,0,0
  1031    00                    
  1032    4E 45 C7 02           DB 'NE','G'+80H,2,44H
  1036    44                    
  1037    48 41 4C D4           DB 'HAL','T'+80H,0,76H
  103B    00 76                 
  103D    FF                    DB 0FFH
                                
  103E    C4 26 00              LOPS:  DB 'D'+80H,38,0
  1041    4F 41 C4 24           DB 'OA','D'+80H,36,0
  1045    00                    
  1046    44 C9 02 A0           DB 'D','I'+80H,2,0A0H
	MACRO-80 3.43	27-Jul-81	PAGE	1-45


  104A    44 49 D2 02           DB 'DI','R'+80H,2,0B0H
  104E    B0                    
  104F    44 C4 02 A8           DB 'D','D'+80H,2,0A8H
  1053    44 44 D2 02           DB 'DD','R'+80H,2,0B8H
  1057    B8                    
  1058    FF                    DB 0FFH
                                
  1059    41 4C CC A8           COPS:  DB 'AL','L'+80H,40+80H,0
  105D    00                    
  105E    D0 12 BE              DB 'P'+80H,18,0BEH
  1061    43 C6 00 3F           DB 'C','F'+80H,0,3FH
  1065    50 CC 00 2F           DB 'P','L'+80H,0,2FH
  1069    50 C9 02 A1           DB 'P','I'+80H,2,0A1H
  106D    50 49 D2 02           DB 'PI','R'+80H,2,0B1H
  1071    B1                    
  1072    50 C4 02 A9           DB 'P','D'+80H,2,0A9H
  1076    50 44 D2 02           DB 'PD','R'+80H,2,0B9H
  107A    B9                    
  107B    FF                    DB 0FFH
                                
  107C    45 C3 10 0B           DOPS:  DB 'E','C'+80H,16,0BH
  1080    4A 4E DA 0E           DB 'JN','Z'+80H,14,10H
  1084    10                    
  1085    C2 1A 00              DB 'B'+80H,26,0
  1088    D7 18 00              DB 'W'+80H,24,0
  108B    D3 1C 00              DB 'S'+80H,28,0
  108E    41 C1 00 27           DB 'A','A'+80H,0,27H
  1092    C9 00 F3              DB 'I'+80H,0,0F3H
  1095    FF                    DB 0FFH
                                
  1096    4E C3 10 03           IOPS:  DB 'N','C'+80H,16,3
  109A    CD 22 00              DB 'M'+80H,34,0
  109D    CE 2E 00              DB 'N'+80H,46,0
  10A0    4E C9 02 A2           DB 'N','I'+80H,2,0A2H
  10A4    4E 49 D2 02           DB 'NI','R'+80H,2,0B2H
  10A8    B2                    
  10A9    4E C4 02 AA           DB 'N','D'+80H,2,0AAH
  10AD    4E 44 D2 02           DB 'ND','R'+80H,2,0BAH
  10B1    BA                    
  10B2    FF                    DB 0FFH
                                
  10B3    42 C3 34 00           SOPS:  DB 'B','C'+80H,52,0
  10B7    43 C6 00 37           DB 'C','F'+80H,0,37H
  10BB    4C C1 14 26           DB 'L','A'+80H,20,26H
  10BF    52 C1 14 2E           DB 'R','A'+80H,20,2EH
  10C3    52 CC 14 3E           DB 'R','L'+80H,20,3EH
  10C7    45 D4 16 C6           DB 'E','T'+80H,22,0C6H
  10CB    55 C2 12 96           DB 'U','B'+80H,18,96H
  10CF    FF                    DB 0FFH
                                
  10D0    D2 12 B6              OOPS:  DB 'R'+80H,18,0B6H
  10D3    52 C7 20 00           DB 'R','G'+80H,32,0
  10D7    55 D4 36 00           DB 'U','T'+80H,54,0
  10DB    55 54 C9 02           DB 'UT','I'+80H,2,0A3H
  10DF    A3                    
  10E0    54 49 D2 02           DB 'TI','R'+80H,2,0B3H
	MACRO-80 3.43	27-Jul-81	PAGE	1-46


  10E4    B3                    
  10E5    55 54 C4 02           DB 'UT','D'+80H,2,0ABH
  10E9    AB                    
  10EA    54 44 D2 02           DB 'TD','R'+80H,2,0BBH
  10EE    BB                    
  10EF    FF                    DB 0FFH
                                
  10F0    D8 2C 00              EOPS:  DB 'X'+80H,44,0
  10F3    58 D8 00 D9           DB 'X','X'+80H,0,0D9H
  10F7    51 D5 1E 00           DB 'Q','U'+80H,30,0
  10FB    C9 00 FB              DB 'I'+80H,0,0FBH
  10FE    4E C4 04 FF           DB 'N','D'+80H,4,0FFH
  1102    FF                    DB 0FFH
                                
                                
  1103    45 D4 88 C0           ROPS:  DB 'E','T'+80H,8+80H,0C0H
  1107    53 D4 06 C7           DB 'S','T'+80H,6,0C7H
  110B    45 D3 16 86           DB 'E','S'+80H,22,86H
  110F    CC 14 16              DB 'L'+80H,20,16H
  1112    4C C3 14 06           DB 'L','C'+80H,20,6
  1116    4C 43 C1 00           DB 'LC','A'+80H,0,7
  111A    07                    
  111B    4C C1 00 17           DB 'L','A'+80H,0,17H
  111F    D2 14 1E              DB 'R'+80H,20,1EH
  1122    52 C3 14 0E           DB 'R','C'+80H,20,0EH
  1126    52 43 C1 00           DB 'RC','A'+80H,0,0FH
  112A    0F                    
  112B    52 C1 00 1F           DB 'R','A'+80H,0,1FH
  112F    4C C4 02 6F           DB 'L','D'+80H,2,6FH
  1133    52 C4 02 67           DB 'R','D'+80H,2,67H
  1137    45 54 C9 02           DB 'ET','I'+80H,2,4DH
  113B    4D                    
  113C    45 54 CE 02           DB 'ET','N'+80H,2,45H
  1140    45                    
  1141    FF                    AEND:  DB 0FFH
  1142    FF                    DB 0FFH
                                END
	MACRO-80 3.43	27-Jul-81	PAGE	S


Macros:

Symbols:
0EB9 	ADCTAB          0EC7 	ADDTAB          0004 	ADL             
1141 	AEND            0002 	AL              082A 	ASMB            
0A74 	BAD             02FE 	BADNEWS         0592 	BEEP            
0F2C 	BIT2            0F23 	BITH            00F1 	BKPTADDR        
00F3 	BKPTCODE        0020 	BLANK           058E 	BREAK           
0008 	BS              0809 	BYTE            0804 	BYTESP          
0E5D 	CALTAB          01B2 	CATE            01B9 	CATE1           
0009 	CC              0F94 	CCODES          0586 	CHECK           
0001 	CL              0C76 	CL1             0C7E 	CL2             
0C7D 	CL3             0C8B 	CL4             0C8D 	CL41            
0CA8 	CL5             0CB4 	CL6             0CC5 	CL7             
0CC7 	CL71            0CDB 	CL72            0C6E 	CLASS           
0787 	CLEAR           0CC2 	CLER            00F4 	CODE            
04EB 	COMTAB          00CD 	COMWIDTH        0596 	CONTROL         
0734 	CONVERT         1059 	COPS            03F6 	COPY            
000D 	CR              0540 	CRLF            05CF 	CUE             
00E3 	CUROBJ          00DD 	CURRENT         1171 	CURSOR          
0745 	CV0             0749 	CV1             0755 	CV2             
0767 	CV3             0D14 	DBH             0D18 	DBH1            
0D22 	DBH3            0D29 	DBH4            0774 	DELAY           
0D08 	DJ1             0D0A 	DJ2             0CEF 	DJH             
0ED4 	DL1             0ED7 	DL2             0EDE 	DL3             
0EEB 	DL4             0EF2 	DL5             107C 	DOPS            
0200 	DOWN            0D31 	DSH             0D0E 	DWH             
0226 	E0              0889 	E1              072F 	E10             
0C86 	E11             0302 	E3              0AB2 	E6              
0C08 	E7              0D6E 	ENDH            0261 	ENTER           
0000 	ENTRY           0522 	EOF             00E1 	EOFP            
10F0 	EOPS            0D67 	EQ2             0D61 	EQUH            
0228 	ER              0530 	ERR             0534 	ERR2            
0125 	EXIT            0128 	EXIT1           0000 	F1              
0001 	F2              0002 	F3              0003 	F5              
0004 	F6              0005 	F7              0A17 	FD1             
0A20 	FD2             0A21 	FD3             0A2E 	FD4             
0A32 	FD5             0A36 	FD6             0A3C 	FD7             
0A44 	FD8             00E7 	FEP             000C 	FF              
0A0B 	FIELD           040F 	FIL2            3000 	FILEBASE        
1102 	FILESIZE        1104 	FILESTART       1106 	FILEXEC         
0404 	FILL            0C23 	FIN1            0C2A 	FIN2            
0C1D 	FIND            0636 	FINDFILE        063E 	FL2             
0641 	FL3             065E 	FL4             0660 	FL5             
00C7 	FLAGS           059A 	GETCHAR         061A 	GETNAME         
088E 	GETOPTION       03B3 	GOT2            03D9 	GOT3            
03AD 	GOTO            061E 	GTN2            10F0 	HBUFF           
08A3 	HOLD            0330 	HOWBIG          0007 	IA              
000E 	IAF             0000 	IB              0000 	IBC             
0001 	IC              0018 	ICY             0002 	ID              
0002 	IDE             0003 	IE              0004 	IH              
0004 	IHL             0000 	IINT            00DD 	IIX             
00FD 	IIY             0005 	IL              0E94 	IM2             
010F 	IMAGE           0E8B 	IMH             0038 	IMIN            
0E9C 	IMTAB           04DC 	IN2             0EAF 	INC2            
0E9F 	INCH            0010 	INCY            0003 	INL             
04D3 	INPORT          02A8 	INSERT          0F4E 	INTAB           
	MACRO-80 3.43	27-Jul-81	PAGE	S-1


0000 	INZ             0F62 	IO1             0F69 	IO2             
0F70 	IOER            1096 	IOPS            0028 	IPE             
0020 	IPO             0030 	IPOS            0008 	IREF            
0006 	ISP             0008 	IZ              0003 	JL              
0197 	JLCATE1         0190 	JLOCATE         0E52 	JMP1            
0E56 	JMP2            0E59 	JMP21           0E61 	JMP3            
0E48 	JMPTAB          0910 	JP2             0941 	JP3             
0949 	JPTAB           0CE1 	JRH             0907 	JUMP            
05A6 	KB2             05BD 	KB3             05A9 	KEYBOARD        
0FE8 	KEYTB           01E9 	KILL            0DB0 	L1              
0DB4 	L2              0DBB 	L21             0DBE 	L3              
0DC5 	L30             0DC8 	L31             0DCB 	L4              
0DD1 	L5              0DD6 	L6              0DD7 	L61             
0DDA 	L62             0DDD 	L63             0DE0 	L7              
0DE8 	L8              0DFA 	L9              0E01 	LA              
0246 	LAST            0E09 	LB              00EB 	LBLP            
0E0E 	LC              01C0 	LC1             01D0 	LC2             
00D9 	LCT             0582 	LDATA           0E17 	LE              
0E25 	LE1             0DE5 	LER             057E 	LHEAD           
00DB 	LIMIT           0820 	LINC            020F 	LINE            
0981 	LIST            0AA6 	LITLE           0AAA 	LITLE2          
0015 	LL              0D44 	LOADH           01AD 	LOCATE          
103E 	LOPS            0992 	LS1             09A5 	LS2             
09B4 	LS3             09B7 	LS4             09D8 	LS5             
09E5 	LS6             09E9 	LS7             09EA 	LS8             
09F3 	LS9             0D70 	LTAB            0006 	M1              
0037 	M12             004C 	M13             0047 	M14             
0053 	M15             005A 	M16             0062 	M17             
006C 	M18             000B 	M2              0040 	M20             
0071 	M21             0077 	M22             007E 	M23             
0084 	M24             008A 	M25             0090 	M27             
0096 	M28             009C 	M29             0010 	M3              
00B4 	M30             0019 	M4              001E 	M5              
0022 	M6              0028 	M7              0030 	M8              
0B84 	MA2             0B8B 	MA3             0B96 	MA4             
0BA1 	MA5             0BA8 	MA50            0BAE 	MA51            
0BB6 	MA52            0BC0 	MA6             0BC9 	MA61            
0BD0 	MA62            0B7E 	MATH            07B4 	MEM2            
07C2 	MEM3            0797 	MEMCHECK        07AB 	MEMTOP          
0EFE 	ML1             0F04 	ML11            0F07 	ML12            
0F0C 	ML2             0F15 	ML3             041D 	MOD1            
0420 	MOD2            0426 	MOD3            0443 	MOD4            
044E 	MOD5            0417 	MODIFY          0ACF 	MOF             
0AEC 	MOF2            0AF6 	MOF5            0ACE 	MOFB            
0ACB 	MOFH            0AC7 	MOFLH           0AB7 	MOFMIX          
0AB8 	MOFMX2          0AC3 	MOFPRE          027A 	NEW             
07C4 	NEXT            0003 	NO              0007 	NOI             
059E 	NORMAL          07CA 	NX1             0812 	NYB             
00EF 	OBJ             0003 	OL              04BC 	ONEPAIR         
10D0 	OOPS            0A50 	OPDSCH          0A5E 	OPTSCH          
0D50 	ORGH            0000 	ORIGIN          0F58 	OUTAB           
04C9 	OUTPORT         054A 	OUTPUT          0602 	OWRITE          
0B0A 	PA1             0B19 	PA2             0B4A 	PA3             
0B46 	PA31            0B5E 	PA4             0B64 	PA5             
0B7C 	PA6             0B4E 	PA7             066C 	PAGE            
00D7 	PAGENO          01A2 	PAGER           04BD 	PAIR            
	MACRO-80 3.43	27-Jul-81	PAGE	S-2


070D 	PARAM1          070A 	PARAMETER       0AFD 	PARSER          
083C 	PASS            00ED 	PC              057A 	PDATA           
0B5B 	PER             067A 	PG2             0576 	PHEAD           
07DA 	POS1            07E9 	POS2            07D2 	POSITION        
0E82 	PP2             0E85 	PP21            0E73 	PPH             
053B 	PR2             053D 	PR3             0235 	PRINT           
083F 	PS1             087A 	PS2             045C 	QU2             
0465 	QU3             046B 	QU4             0478 	QU5             
047F 	QU7             0456 	QUERY           0008 	RE              
0307 	READ            0003 	REENTRY         0FB0 	REGS            
06EE 	REMOVE          0A97 	RESOLV          0E3E 	RETH            
0004 	RI              1103 	ROPS            0001 	RP              
0005 	RPI             0318 	RSOURCE         0E39 	RST2            
0E31 	RSTH            0080 	S               0EC0 	SBCTAB          
0002 	SBL             0A82 	SC2             0A87 	SC3             
0365 	SCAN            0368 	SCN1            0369 	SCN2            
0374 	SCN3            0393 	SCN31           0398 	SCN4            
058A 	SCREEN          0A7C 	SEARCH          078C 	SOF             
00DF 	SOFP            10B3 	SOPS            0345 	SORT            
0548 	SPACE           05A2 	SPECIAL         0F45 	SR2             
0F35 	SRH             035C 	SRT2            071F 	STARTSTOP       
00E9 	STK             05C5 	STR1            05C3 	STRING          
0904 	SY2             08B3 	SYMBOL          0A07 	SYMFIELD        
0A4B 	SYMSCH          00CF 	SYMWIDTH        0040 	TADD            
0030 	TALPHA          0082 	TAND            01FC 	TARGET          
11A3 	TBUFF           0033 	TCOM            000B 	TCR             
0035 	TDEF            0081 	TDIV            0BDF 	TE2             
0BE9 	TE3             00E5 	TEMP            0BD7 	TERM            
0250 	THIS            0034 	TIND            0010 	TL              
0031 	TLAB            0036 	TLIT            0080 	TMUL            
01EF 	TOP             0032 	TOPD            0083 	TOR             
0000 	TR              06A2 	TRAP            06E6 	TRAP2           
00C0 	TSUB            0C0D 	TYPE            0C3B 	TYPTAB          
01DD 	UP              0129 	UPC             081D 	UPDATE          
05D6 	US0             05DC 	US1             05EB 	US2             
05FD 	US4             05D2 	USER            0126 	USP             
02F3 	VERIFY          0556 	VID2            055E 	VID3            
0564 	VID4            0568 	VID5            054E 	VIDEO           
07FF 	WORDSP          02C4 	WRITE           0F80 	X1              
0F8E 	X2              0F91 	X3              048F 	XAMINE          
0F8C 	XER             0004 	XL              0F73 	XTAB            
0002 	XY              000A 	XYD             0006 	XYI             
0218 	ZAP             012B 	ZEN             018C 	ZEN2            



No Fatal error(s)


    
02F3 	VERIFY          0556 	VID2            055E