ARM GAS  C:\Users\HPz420\AppData\Local\Temp\ccoUwBih.s 			page 1


   1              		.syntax unified
   2              		.cpu cortex-m3
   3              		.fpu softvfp
   4              		.eabi_attribute 20, 1
   5              		.eabi_attribute 21, 1
   6              		.eabi_attribute 23, 3
   7              		.eabi_attribute 24, 1
   8              		.eabi_attribute 25, 1
   9              		.eabi_attribute 26, 1
  10              		.eabi_attribute 30, 1
  11              		.eabi_attribute 34, 1
  12              		.eabi_attribute 18, 4
  13              		.thumb
  14              		.syntax unified
  15              		.file	"FrontPanel.c"
  16              		.text
  17              	.Ltext0:
  18              		.cfi_sections	.debug_frame
  19              		.section	.text.readRegister_MCP23017,"ax",%progbits
  20              		.align	2
  21              		.global	readRegister_MCP23017
  22              		.thumb
  23              		.thumb_func
  24              		.type	readRegister_MCP23017, %function
  25              	readRegister_MCP23017:
  26              	.LFB69:
  27              		.file 1 "FrontPanel.c"
   1:FrontPanel.c  **** /* ========================================
   2:FrontPanel.c  ****  *
   3:FrontPanel.c  ****  * Copyright Land Boards, LLC, 2019.
   4:FrontPanel.c  ****  * All Rights Reserved
   5:FrontPanel.c  ****  * UNPUBLISHED, LICENSED SOFTWARE.
   6:FrontPanel.c  ****  *
   7:FrontPanel.c  ****  * CONFIDENTIAL AND PROPRIETARY INFORMATION
   8:FrontPanel.c  ****  * WHICH IS THE PROPERTY OF LAND BOARDS. LLC.
   9:FrontPanel.c  ****  *
  10:FrontPanel.c  ****  * ========================================
  11:FrontPanel.c  **** */
  12:FrontPanel.c  **** 
  13:FrontPanel.c  **** #include <project.h>
  14:FrontPanel.c  **** #include "FrontPanel.h"
  15:FrontPanel.c  **** #include "ExtSRAM.h"
  16:FrontPanel.c  **** 
  17:FrontPanel.c  **** #define MCP23017_IODIR_DEFVAL    0xff       // Initially set all channels to inputs
  18:FrontPanel.c  **** #define MCP23017_IODIR_ALL_INS   0xff
  19:FrontPanel.c  **** #define MCP23017_IODIR_ALL_OUTS  0x00
  20:FrontPanel.c  **** 
  21:FrontPanel.c  **** #define MCP23017_IPOL_INVERT     0xFF       // Input polarity = invert jumpers
  22:FrontPanel.c  **** #define MCP23017_GPINTEN_DISABLE 0x00       // Disable GPIO for interrupt on change
  23:FrontPanel.c  **** #define MCP23017_GPINTEN_ENABLE  0xFF       // Enable GPIO for interrupt on change
  24:FrontPanel.c  **** #define MCP23017_INTCON_DEFVAL   0x00       // Int for change from previous pin
  25:FrontPanel.c  **** #define MCP23017_IOCON_DEFVAL    0x04       // Disable sequential,  active-low
  26:FrontPanel.c  **** #define MCP23017_GPPU_DISABLE    0x00       // Disable pull-ups
  27:FrontPanel.c  **** #define MCP23017_GPPU_ENABLE     0xFF       // Enable pull-ups
  28:FrontPanel.c  **** 
  29:FrontPanel.c  **** //////////////////////////////////////////////////////////////////////////////
  30:FrontPanel.c  **** // Front Panel Handler
ARM GAS  C:\Users\HPz420\AppData\Local\Temp\ccoUwBih.s 			page 2


  31:FrontPanel.c  **** // Starts at CPU address = 0
  32:FrontPanel.c  **** //////////////////////////////////////////////////////////////////////////////
  33:FrontPanel.c  **** 
  34:FrontPanel.c  **** // Global variables
  35:FrontPanel.c  **** uint8 FPData;       // Data that is on the Front Panel (bottom 8 LEDs)
  36:FrontPanel.c  **** uint16 FPAddr;      // Address that is on the Front Panel (middle 16 lEDs)
  37:FrontPanel.c  **** uint8 FPCtrl;       // Control that is on the Front Panel (top 8 LEDs)
  38:FrontPanel.c  **** uint32 FPLong;      // Long value of the Front Panel
  39:FrontPanel.c  **** 
  40:FrontPanel.c  **** // Bits of FPCtrl
  41:FrontPanel.c  **** #define INC_ADDR    0x01    // Increment address and read memory value at next address
  42:FrontPanel.c  **** #define ST_INC      0x02    // Store data value, increment address and read next memory 
  43:FrontPanel.c  **** #define LD_ADDR     0x04    // Load address bits and read memory
  44:FrontPanel.c  **** #define RUN_SW      0x80    // Run Switch
  45:FrontPanel.c  **** 
  46:FrontPanel.c  **** //////////////////////////////////////////////////////////////////////////////
  47:FrontPanel.c  **** // Function prototypes
  48:FrontPanel.c  **** 
  49:FrontPanel.c  **** 
  50:FrontPanel.c  **** //////////////////////////////////////////////////////////////////////////////
  51:FrontPanel.c  **** // init_FrontPanel() - Switches are on Port A, LEDs are on Port B
  52:FrontPanel.c  **** 
  53:FrontPanel.c  **** void init_FrontPanel(void)
  54:FrontPanel.c  **** {
  55:FrontPanel.c  ****     uint8 chipAddr;
  56:FrontPanel.c  ****     for (chipAddr = 0x24; chipAddr < 0x28; chipAddr++)
  57:FrontPanel.c  ****     {
  58:FrontPanel.c  ****         writeRegister_MCP23017(chipAddr,MCP23017_IODIRA_REGADR,MCP23017_IODIR_ALL_INS);     // IO: 
  59:FrontPanel.c  ****         writeRegister_MCP23017(chipAddr,MCP23017_IODIRB_REGADR,MCP23017_IODIR_ALL_OUTS);    // IO: 
  60:FrontPanel.c  ****         writeRegister_MCP23017(chipAddr,MCP23017_IPOLA_REGADR,MCP23017_IPOL_INVERT);        // IP: 
  61:FrontPanel.c  ****         writeRegister_MCP23017(chipAddr,MCP23017_GPINTENA_REGADR,MCP23017_GPINTEN_ENABLE);  // GPIN
  62:FrontPanel.c  ****         writeRegister_MCP23017(chipAddr,MCP23017_GPINTENB_REGADR,MCP23017_GPINTEN_DISABLE); // GPIN
  63:FrontPanel.c  ****         writeRegister_MCP23017(chipAddr,MCP23017_DEFVALA_REGADR,0xFF);                      // Defa
  64:FrontPanel.c  ****         writeRegister_MCP23017(chipAddr,MCP23017_INTCONA_REGADR,MCP23017_INTCON_DEFVAL);    // Int 
  65:FrontPanel.c  ****         writeRegister_MCP23017(chipAddr,MCP23017_IOCONA_REGADR,MCP23017_IOCON_DEFVAL);      // BANK
  66:FrontPanel.c  ****                                                                                             // MIRR
  67:FrontPanel.c  ****                                                                                             // SEQO
  68:FrontPanel.c  ****                                                                                             // HAEN
  69:FrontPanel.c  ****                                                                                             // ODR:
  70:FrontPanel.c  ****                                                                                             // INTP
  71:FrontPanel.c  ****         writeRegister_MCP23017(chipAddr,MCP23017_IOCONB_REGADR,MCP23017_IOCON_DEFVAL);      // Int 
  72:FrontPanel.c  ****         writeRegister_MCP23017(chipAddr,MCP23017_GPPUA_REGADR,MCP23017_GPPU_ENABLE);        // Pull
  73:FrontPanel.c  ****         readRegister_MCP23017(chipAddr,MCP23017_INTCAPA_REGADR);                            // Clea
  74:FrontPanel.c  ****     }
  75:FrontPanel.c  ****     FPData = 0;
  76:FrontPanel.c  ****     FPAddr = 0;
  77:FrontPanel.c  ****     FPCtrl = 0;
  78:FrontPanel.c  ****     FPLong = 0;
  79:FrontPanel.c  **** }
  80:FrontPanel.c  **** 
  81:FrontPanel.c  **** //////////////////////////////////////////////////////////////////////////////////////
  82:FrontPanel.c  **** // runFrontPanel()
  83:FrontPanel.c  **** // Returns when run button is pressed on front panel
  84:FrontPanel.c  **** 
  85:FrontPanel.c  **** void runFrontPanel(void)
  86:FrontPanel.c  **** {
  87:FrontPanel.c  ****     uint32 switchesVal = 0;
ARM GAS  C:\Users\HPz420\AppData\Local\Temp\ccoUwBih.s 			page 3


  88:FrontPanel.c  ****     uint32 LEDsVal = 0;
  89:FrontPanel.c  ****     
  90:FrontPanel.c  ****     I2C_Start();
  91:FrontPanel.c  ****     init_FrontPanel();
  92:FrontPanel.c  ****     LEDsVal |= ReadExtSRAM(0);
  93:FrontPanel.c  ****     writeFrontPanelLEDs(LEDsVal);       // clears LEDs
  94:FrontPanel.c  **** 
  95:FrontPanel.c  ****     for(;;)                     // Loop forever
  96:FrontPanel.c  ****     {
  97:FrontPanel.c  ****         switchesVal = waitFrontPanelSwitchesPressed();
  98:FrontPanel.c  ****         if ((switchesVal & 0xff000000) != 0)    // Control switch on top row was pressed
  99:FrontPanel.c  ****         {
 100:FrontPanel.c  ****             if ((switchesVal & 0x01000000) == 0x01000000)       // Incr address and read memory
 101:FrontPanel.c  ****             {
 102:FrontPanel.c  ****                 LEDsVal += 0x00000100;
 103:FrontPanel.c  ****                 LEDsVal &= 0xffffff00;
 104:FrontPanel.c  ****                 LEDsVal |= ReadExtSRAM((LEDsVal >> 8) & 0xffff);
 105:FrontPanel.c  ****                 writeFrontPanelLEDs(LEDsVal);
 106:FrontPanel.c  ****             }
 107:FrontPanel.c  ****             else if ((switchesVal & 0x02000000) == 0x02000000)  // Store to addr, incr address and 
 108:FrontPanel.c  ****             {
 109:FrontPanel.c  ****                 WriteExtSRAM((LEDsVal >> 8) & 0xffff,LEDsVal&0xff);
 110:FrontPanel.c  ****                 LEDsVal += 0x00000100;
 111:FrontPanel.c  ****                 LEDsVal &= 0xffffff00;
 112:FrontPanel.c  ****                 LEDsVal |= ReadExtSRAM((LEDsVal >> 8) & 0xffff);
 113:FrontPanel.c  ****                 writeFrontPanelLEDs(LEDsVal);
 114:FrontPanel.c  ****             }
 115:FrontPanel.c  ****             else if ((switchesVal & 0x04000000) == 0x04000000)  //Load address and read memory
 116:FrontPanel.c  ****             {
 117:FrontPanel.c  ****                 LEDsVal &= 0xffffff00;
 118:FrontPanel.c  ****                 LEDsVal |= ReadExtSRAM((LEDsVal >> 8) & 0xffff);
 119:FrontPanel.c  ****                 writeFrontPanelLEDs(LEDsVal);
 120:FrontPanel.c  ****             }
 121:FrontPanel.c  ****             else if ((switchesVal & 0x08000000) == 0x08000000)  // Run program
 122:FrontPanel.c  ****             {
 123:FrontPanel.c  ****                 ExtSRAMCtl_Control = 0;
 124:FrontPanel.c  ****                 return;
 125:FrontPanel.c  ****             }
 126:FrontPanel.c  ****             
 127:FrontPanel.c  ****         }
 128:FrontPanel.c  ****         else    // Non-control switch was pressed
 129:FrontPanel.c  ****         {
 130:FrontPanel.c  ****             LEDsVal ^= switchesVal;
 131:FrontPanel.c  ****             writeFrontPanelLEDs(LEDsVal);
 132:FrontPanel.c  ****         }
 133:FrontPanel.c  ****     }
 134:FrontPanel.c  **** }
 135:FrontPanel.c  **** 
 136:FrontPanel.c  **** //////////////////////////////////////////////////////////////////////////////////////
 137:FrontPanel.c  **** // readFrontPanelSwitchesRegistered
 138:FrontPanel.c  **** //  Handler for the Pushbuttons and LEDs
 139:FrontPanel.c  **** //  Toggles the LED
 140:FrontPanel.c  **** //  Reads all four MCP23017 Port A's to make a 32-bit result
 141:FrontPanel.c  **** //  Looks for the switch to be pressed for 3 samples in a row
 142:FrontPanel.c  **** // Returns: 0 if there was no key pressed
 143:FrontPanel.c  **** //          1 if there was a key pressed
 144:FrontPanel.c  **** 
ARM GAS  C:\Users\HPz420\AppData\Local\Temp\ccoUwBih.s 			page 4


 145:FrontPanel.c  **** uint32 readFrontPanelSwitchesRegistered(void)
 146:FrontPanel.c  **** {
 147:FrontPanel.c  ****     uint32 rdVal;
 148:FrontPanel.c  ****     uint32 retVal = 0;
 149:FrontPanel.c  ****     uint32 valMin1 = 0;
 150:FrontPanel.c  ****     uint32 valMin2 = 0;
 151:FrontPanel.c  ****     uint32 valMin3 = 0;
 152:FrontPanel.c  ****     uint8 keyPressed = 0;
 153:FrontPanel.c  ****     rdVal = readFrontPanelSwitchesStatic();
 154:FrontPanel.c  ****     if (rdVal  == 0x00)     // No key is pressed at this polling
 155:FrontPanel.c  ****     {
 156:FrontPanel.c  ****         valMin1 = 0;
 157:FrontPanel.c  ****         valMin2 = 0;
 158:FrontPanel.c  ****         valMin3 = 0;
 159:FrontPanel.c  ****         return(0);
 160:FrontPanel.c  ****     }
 161:FrontPanel.c  ****     else    // key is now pressed
 162:FrontPanel.c  ****     {
 163:FrontPanel.c  ****         keyPressed = 1;
 164:FrontPanel.c  ****         while (keyPressed)  // stick around until key is no longer pressed
 165:FrontPanel.c  ****         {
 166:FrontPanel.c  ****             rdVal = readFrontPanelSwitchesStatic();
 167:FrontPanel.c  ****             if (rdVal == 0)
 168:FrontPanel.c  ****             {
 169:FrontPanel.c  ****                 keyPressed = 0;
 170:FrontPanel.c  ****                 valMin1 = 0;
 171:FrontPanel.c  ****                 valMin2 = 0;
 172:FrontPanel.c  ****                 valMin3 = 0;
 173:FrontPanel.c  ****                 return(retVal);
 174:FrontPanel.c  ****             }
 175:FrontPanel.c  ****             valMin3 = valMin2;
 176:FrontPanel.c  ****             valMin2 = valMin1;
 177:FrontPanel.c  ****             valMin1 = rdVal;
 178:FrontPanel.c  ****             if ((valMin3 == 0) && (valMin2 != 0) && (valMin1 != 0) && (rdVal != 0))
 179:FrontPanel.c  ****             {
 180:FrontPanel.c  ****                 return(valMin2);
 181:FrontPanel.c  ****             }
 182:FrontPanel.c  ****             CyDelay(10);    // 10 mS sampling for debouncing
 183:FrontPanel.c  ****         }
 184:FrontPanel.c  ****     }
 185:FrontPanel.c  ****     return (retVal);
 186:FrontPanel.c  **** }
 187:FrontPanel.c  **** 
 188:FrontPanel.c  **** //////////////////////////////////////////////////////////////////////////////////////
 189:FrontPanel.c  **** // waitFrontPanelSwitchesPressed() - Wait for switch to be pressed and return value
 190:FrontPanel.c  **** 
 191:FrontPanel.c  **** uint32 waitFrontPanelSwitchesPressed(void)
 192:FrontPanel.c  **** {
 193:FrontPanel.c  ****     uint32 switchVals = 0;
 194:FrontPanel.c  ****     while (readFrontPanelSwitchesRegistered() != 0);    // wait for previous key release
 195:FrontPanel.c  ****     while (switchVals == 0)
 196:FrontPanel.c  ****     {   
 197:FrontPanel.c  ****         switchVals = readFrontPanelSwitchesRegistered();
 198:FrontPanel.c  ****         if (switchVals != 0x0)
 199:FrontPanel.c  ****             return (switchVals);
 200:FrontPanel.c  ****     }
 201:FrontPanel.c  ****     return (0);
ARM GAS  C:\Users\HPz420\AppData\Local\Temp\ccoUwBih.s 			page 5


 202:FrontPanel.c  **** }
 203:FrontPanel.c  **** 
 204:FrontPanel.c  **** //////////////////////////////////////////////////////////////////////////////////////
 205:FrontPanel.c  **** // readFrontPanelSwitchesStatic() - Reads the current value of the actual switches
 206:FrontPanel.c  **** //  Reads all four MCP23017 Port A's to make a 32-bit result
 207:FrontPanel.c  **** 
 208:FrontPanel.c  **** uint32 readFrontPanelSwitchesStatic(void)
 209:FrontPanel.c  **** {
 210:FrontPanel.c  ****     uint32 switchVals = 0;
 211:FrontPanel.c  ****     switchVals = readRegister_MCP23017(MCP23017_0,MCP23017_GPIOA_REGADR);
 212:FrontPanel.c  ****     switchVals = switchVals<<8;
 213:FrontPanel.c  ****     switchVals |= readRegister_MCP23017(MCP23017_1,MCP23017_GPIOA_REGADR);
 214:FrontPanel.c  ****     switchVals = switchVals<<8;
 215:FrontPanel.c  ****     switchVals |= readRegister_MCP23017(MCP23017_2,MCP23017_GPIOA_REGADR);
 216:FrontPanel.c  ****     switchVals = switchVals<<8;
 217:FrontPanel.c  ****     switchVals |= readRegister_MCP23017(MCP23017_3,MCP23017_GPIOA_REGADR);
 218:FrontPanel.c  ****     return (switchVals);
 219:FrontPanel.c  **** }
 220:FrontPanel.c  **** 
 221:FrontPanel.c  **** //////////////////////////////////////////////////////////////////////////////////////
 222:FrontPanel.c  **** // writeFrontPanelLEDs(uint32) - Write a 32-bit value to the Front Panel LEDs
 223:FrontPanel.c  **** 
 224:FrontPanel.c  **** void writeFrontPanelLEDs(uint32 ledsVal)
 225:FrontPanel.c  **** {
 226:FrontPanel.c  ****     writeRegister_MCP23017(MCP23017_0,MCP23017_OLATB_REGADR,((ledsVal>>24) & 0xff));
 227:FrontPanel.c  ****     writeRegister_MCP23017(MCP23017_1,MCP23017_OLATB_REGADR,((ledsVal>>16) & 0xff));
 228:FrontPanel.c  ****     writeRegister_MCP23017(MCP23017_2,MCP23017_OLATB_REGADR,((ledsVal>>8) & 0xff));
 229:FrontPanel.c  ****     writeRegister_MCP23017(MCP23017_3,MCP23017_OLATB_REGADR,ledsVal&0xff);
 230:FrontPanel.c  **** }
 231:FrontPanel.c  **** 
 232:FrontPanel.c  **** //////////////////////////////////////////////////////////////////////////////////////
 233:FrontPanel.c  **** // I2C Low Level Hardware access functions
 234:FrontPanel.c  **** 
 235:FrontPanel.c  **** //////////////////////////////////////////////////////////////////////////////////////
 236:FrontPanel.c  **** //
 237:FrontPanel.c  **** //////////////////////////////////////////////////////////////////////////////////////
 238:FrontPanel.c  **** 
 239:FrontPanel.c  **** uint8 readRegister_MCP23017(uint8 chipAddr, uint8 ctrlAdr)
 240:FrontPanel.c  **** {
  28              		.loc 1 240 0
  29              		.cfi_startproc
  30              		@ args = 0, pretend = 0, frame = 0
  31              		@ frame_needed = 0, uses_anonymous_args = 0
  32              	.LVL0:
  33 0000 38B5     		push	{r3, r4, r5, lr}
  34              		.cfi_def_cfa_offset 16
  35              		.cfi_offset 3, -16
  36              		.cfi_offset 4, -12
  37              		.cfi_offset 5, -8
  38              		.cfi_offset 14, -4
  39 0002 0446     		mov	r4, r0
  40 0004 0D46     		mov	r5, r1
 241:FrontPanel.c  ****     uint8 rdBuff;
 242:FrontPanel.c  **** 
 243:FrontPanel.c  ****     I2C_MasterClearStatus();
  41              		.loc 1 243 0
  42 0006 FFF7FEFF 		bl	I2C_MasterClearStatus
ARM GAS  C:\Users\HPz420\AppData\Local\Temp\ccoUwBih.s 			page 6


  43              	.LVL1:
 244:FrontPanel.c  ****     I2C_MasterSendStart(chipAddr,I2C_WRITE_XFER_MODE);
  44              		.loc 1 244 0
  45 000a 0021     		movs	r1, #0
  46 000c 2046     		mov	r0, r4
  47 000e FFF7FEFF 		bl	I2C_MasterSendStart
  48              	.LVL2:
 245:FrontPanel.c  ****     I2C_MasterWriteByte(ctrlAdr);
  49              		.loc 1 245 0
  50 0012 2846     		mov	r0, r5
  51 0014 FFF7FEFF 		bl	I2C_MasterWriteByte
  52              	.LVL3:
 246:FrontPanel.c  ****     I2C_MasterSendStop();
  53              		.loc 1 246 0
  54 0018 FFF7FEFF 		bl	I2C_MasterSendStop
  55              	.LVL4:
 247:FrontPanel.c  ****     I2C_MasterSendStart(chipAddr,I2C_READ_XFER_MODE);
  56              		.loc 1 247 0
  57 001c 0121     		movs	r1, #1
  58 001e 2046     		mov	r0, r4
  59 0020 FFF7FEFF 		bl	I2C_MasterSendStart
  60              	.LVL5:
 248:FrontPanel.c  ****     rdBuff = I2C_MasterReadByte(I2C_NAK_DATA);
  61              		.loc 1 248 0
  62 0024 0020     		movs	r0, #0
  63 0026 FFF7FEFF 		bl	I2C_MasterReadByte
  64              	.LVL6:
  65 002a 0446     		mov	r4, r0
  66              	.LVL7:
 249:FrontPanel.c  ****     I2C_MasterSendStop();
  67              		.loc 1 249 0
  68 002c FFF7FEFF 		bl	I2C_MasterSendStop
  69              	.LVL8:
 250:FrontPanel.c  ****     I2C_MasterClearStatus();
  70              		.loc 1 250 0
  71 0030 FFF7FEFF 		bl	I2C_MasterClearStatus
  72              	.LVL9:
 251:FrontPanel.c  ****     return rdBuff;
 252:FrontPanel.c  **** 
 253:FrontPanel.c  **** }
  73              		.loc 1 253 0
  74 0034 2046     		mov	r0, r4
  75 0036 38BD     		pop	{r3, r4, r5, pc}
  76              		.cfi_endproc
  77              	.LFE69:
  78              		.size	readRegister_MCP23017, .-readRegister_MCP23017
  79              		.section	.text.readFrontPanelSwitchesStatic,"ax",%progbits
  80              		.align	2
  81              		.global	readFrontPanelSwitchesStatic
  82              		.thumb
  83              		.thumb_func
  84              		.type	readFrontPanelSwitchesStatic, %function
  85              	readFrontPanelSwitchesStatic:
  86              	.LFB67:
 209:FrontPanel.c  ****     uint32 switchVals = 0;
  87              		.loc 1 209 0
  88              		.cfi_startproc
ARM GAS  C:\Users\HPz420\AppData\Local\Temp\ccoUwBih.s 			page 7


  89              		@ args = 0, pretend = 0, frame = 0
  90              		@ frame_needed = 0, uses_anonymous_args = 0
  91 0000 10B5     		push	{r4, lr}
  92              		.cfi_def_cfa_offset 8
  93              		.cfi_offset 4, -8
  94              		.cfi_offset 14, -4
  95              	.LVL10:
 211:FrontPanel.c  ****     switchVals = switchVals<<8;
  96              		.loc 1 211 0
  97 0002 1221     		movs	r1, #18
  98 0004 2420     		movs	r0, #36
  99 0006 FFF7FEFF 		bl	readRegister_MCP23017
 100              	.LVL11:
 212:FrontPanel.c  ****     switchVals |= readRegister_MCP23017(MCP23017_1,MCP23017_GPIOA_REGADR);
 101              		.loc 1 212 0
 102 000a 0402     		lsls	r4, r0, #8
 103              	.LVL12:
 213:FrontPanel.c  ****     switchVals = switchVals<<8;
 104              		.loc 1 213 0
 105 000c 1221     		movs	r1, #18
 106 000e 2520     		movs	r0, #37
 107 0010 FFF7FEFF 		bl	readRegister_MCP23017
 108              	.LVL13:
 109 0014 2043     		orrs	r0, r0, r4
 110              	.LVL14:
 214:FrontPanel.c  ****     switchVals |= readRegister_MCP23017(MCP23017_2,MCP23017_GPIOA_REGADR);
 111              		.loc 1 214 0
 112 0016 0402     		lsls	r4, r0, #8
 113              	.LVL15:
 215:FrontPanel.c  ****     switchVals = switchVals<<8;
 114              		.loc 1 215 0
 115 0018 1221     		movs	r1, #18
 116 001a 2620     		movs	r0, #38
 117 001c FFF7FEFF 		bl	readRegister_MCP23017
 118              	.LVL16:
 119 0020 2043     		orrs	r0, r0, r4
 120              	.LVL17:
 216:FrontPanel.c  ****     switchVals |= readRegister_MCP23017(MCP23017_3,MCP23017_GPIOA_REGADR);
 121              		.loc 1 216 0
 122 0022 0402     		lsls	r4, r0, #8
 123              	.LVL18:
 217:FrontPanel.c  ****     return (switchVals);
 124              		.loc 1 217 0
 125 0024 1221     		movs	r1, #18
 126 0026 2720     		movs	r0, #39
 127 0028 FFF7FEFF 		bl	readRegister_MCP23017
 128              	.LVL19:
 219:FrontPanel.c  **** 
 129              		.loc 1 219 0
 130 002c 2043     		orrs	r0, r0, r4
 131              	.LVL20:
 132 002e 10BD     		pop	{r4, pc}
 133              		.cfi_endproc
 134              	.LFE67:
 135              		.size	readFrontPanelSwitchesStatic, .-readFrontPanelSwitchesStatic
 136              		.section	.text.readFrontPanelSwitchesRegistered,"ax",%progbits
 137              		.align	2
ARM GAS  C:\Users\HPz420\AppData\Local\Temp\ccoUwBih.s 			page 8


 138              		.global	readFrontPanelSwitchesRegistered
 139              		.thumb
 140              		.thumb_func
 141              		.type	readFrontPanelSwitchesRegistered, %function
 142              	readFrontPanelSwitchesRegistered:
 143              	.LFB65:
 146:FrontPanel.c  ****     uint32 rdVal;
 144              		.loc 1 146 0
 145              		.cfi_startproc
 146              		@ args = 0, pretend = 0, frame = 0
 147              		@ frame_needed = 0, uses_anonymous_args = 0
 148 0000 70B5     		push	{r4, r5, r6, lr}
 149              		.cfi_def_cfa_offset 16
 150              		.cfi_offset 4, -16
 151              		.cfi_offset 5, -12
 152              		.cfi_offset 6, -8
 153              		.cfi_offset 14, -4
 154              	.LVL21:
 153:FrontPanel.c  ****     if (rdVal  == 0x00)     // No key is pressed at this polling
 155              		.loc 1 153 0
 156 0002 FFF7FEFF 		bl	readFrontPanelSwitchesStatic
 157              	.LVL22:
 154:FrontPanel.c  ****     {
 158              		.loc 1 154 0
 159 0006 88B1     		cbz	r0, .L10
 160 0008 0026     		movs	r6, #0
 161 000a 3446     		mov	r4, r6
 162 000c 08E0     		b	.L7
 163              	.LVL23:
 164              	.L9:
 178:FrontPanel.c  ****             {
 165              		.loc 1 178 0
 166 000e 16B9     		cbnz	r6, .L8
 178:FrontPanel.c  ****             {
 167              		.loc 1 178 0 is_stmt 0 discriminator 1
 168 0010 0CB1     		cbz	r4, .L8
 178:FrontPanel.c  ****             {
 169              		.loc 1 178 0 discriminator 2
 170 0012 05B1     		cbz	r5, .L8
 178:FrontPanel.c  ****             {
 171              		.loc 1 178 0 discriminator 3
 172 0014 65B9     		cbnz	r5, .L11
 173              	.L8:
 182:FrontPanel.c  ****         }
 174              		.loc 1 182 0 is_stmt 1
 175 0016 0A20     		movs	r0, #10
 176              	.LVL24:
 177 0018 FFF7FEFF 		bl	CyDelay
 178              	.LVL25:
 176:FrontPanel.c  ****             valMin1 = rdVal;
 179              		.loc 1 176 0
 180 001c 2646     		mov	r6, r4
 181              	.LVL26:
 177:FrontPanel.c  ****             if ((valMin3 == 0) && (valMin2 != 0) && (valMin1 != 0) && (rdVal != 0))
 182              		.loc 1 177 0
 183 001e 2C46     		mov	r4, r5
 184              	.LVL27:
ARM GAS  C:\Users\HPz420\AppData\Local\Temp\ccoUwBih.s 			page 9


 185              	.L7:
 166:FrontPanel.c  ****             if (rdVal == 0)
 186              		.loc 1 166 0
 187 0020 FFF7FEFF 		bl	readFrontPanelSwitchesStatic
 188              	.LVL28:
 167:FrontPanel.c  ****             {
 189              		.loc 1 167 0
 190 0024 0546     		mov	r5, r0
 191 0026 0028     		cmp	r0, #0
 192 0028 F1D1     		bne	.L9
 193 002a 70BD     		pop	{r4, r5, r6, pc}
 194              	.LVL29:
 195              	.L10:
 159:FrontPanel.c  ****     }
 196              		.loc 1 159 0
 197 002c 0020     		movs	r0, #0
 198              	.LVL30:
 199 002e 70BD     		pop	{r4, r5, r6, pc}
 200              	.LVL31:
 201              	.L11:
 180:FrontPanel.c  ****             }
 202              		.loc 1 180 0
 203 0030 2046     		mov	r0, r4
 204              	.LVL32:
 186:FrontPanel.c  **** 
 205              		.loc 1 186 0
 206 0032 70BD     		pop	{r4, r5, r6, pc}
 207              		.cfi_endproc
 208              	.LFE65:
 209              		.size	readFrontPanelSwitchesRegistered, .-readFrontPanelSwitchesRegistered
 210              		.section	.text.waitFrontPanelSwitchesPressed,"ax",%progbits
 211              		.align	2
 212              		.global	waitFrontPanelSwitchesPressed
 213              		.thumb
 214              		.thumb_func
 215              		.type	waitFrontPanelSwitchesPressed, %function
 216              	waitFrontPanelSwitchesPressed:
 217              	.LFB66:
 192:FrontPanel.c  ****     uint32 switchVals = 0;
 218              		.loc 1 192 0
 219              		.cfi_startproc
 220              		@ args = 0, pretend = 0, frame = 0
 221              		@ frame_needed = 0, uses_anonymous_args = 0
 222 0000 10B5     		push	{r4, lr}
 223              		.cfi_def_cfa_offset 8
 224              		.cfi_offset 4, -8
 225              		.cfi_offset 14, -4
 226              	.L14:
 194:FrontPanel.c  ****     while (switchVals == 0)
 227              		.loc 1 194 0 discriminator 1
 228 0002 FFF7FEFF 		bl	readFrontPanelSwitchesRegistered
 229              	.LVL33:
 230 0006 0028     		cmp	r0, #0
 231 0008 FBD1     		bne	.L14
 232 000a 0446     		mov	r4, r0
 233 000c 0023     		movs	r3, #0
 234 000e 03E0     		b	.L15
ARM GAS  C:\Users\HPz420\AppData\Local\Temp\ccoUwBih.s 			page 10


 235              	.LVL34:
 236              	.L17:
 197:FrontPanel.c  ****         if (switchVals != 0x0)
 237              		.loc 1 197 0
 238 0010 FFF7FEFF 		bl	readFrontPanelSwitchesRegistered
 239              	.LVL35:
 198:FrontPanel.c  ****             return (switchVals);
 240              		.loc 1 198 0
 241 0014 0346     		mov	r3, r0
 242 0016 10B9     		cbnz	r0, .L18
 243              	.LVL36:
 244              	.L15:
 195:FrontPanel.c  ****     {   
 245              		.loc 1 195 0
 246 0018 002B     		cmp	r3, #0
 247 001a F9D0     		beq	.L17
 248 001c 00E0     		b	.L16
 249              	.LVL37:
 250              	.L18:
 199:FrontPanel.c  ****     }
 251              		.loc 1 199 0
 252 001e 0446     		mov	r4, r0
 253              	.LVL38:
 254              	.L16:
 202:FrontPanel.c  **** 
 255              		.loc 1 202 0
 256 0020 2046     		mov	r0, r4
 257 0022 10BD     		pop	{r4, pc}
 258              		.cfi_endproc
 259              	.LFE66:
 260              		.size	waitFrontPanelSwitchesPressed, .-waitFrontPanelSwitchesPressed
 261              		.section	.text.writeRegister_MCP23017,"ax",%progbits
 262              		.align	2
 263              		.global	writeRegister_MCP23017
 264              		.thumb
 265              		.thumb_func
 266              		.type	writeRegister_MCP23017, %function
 267              	writeRegister_MCP23017:
 268              	.LFB70:
 254:FrontPanel.c  **** 
 255:FrontPanel.c  **** //////////////////////////////////////////////////////////////////////////////////////
 256:FrontPanel.c  **** //
 257:FrontPanel.c  **** //////////////////////////////////////////////////////////////////////////////////////
 258:FrontPanel.c  **** 
 259:FrontPanel.c  **** void writeRegister_MCP23017(uint8 chipAddr, uint8 ctrlAdr, uint8 ctrlVal)
 260:FrontPanel.c  **** {
 269              		.loc 1 260 0
 270              		.cfi_startproc
 271              		@ args = 0, pretend = 0, frame = 8
 272              		@ frame_needed = 0, uses_anonymous_args = 0
 273              	.LVL39:
 274 0000 70B5     		push	{r4, r5, r6, lr}
 275              		.cfi_def_cfa_offset 16
 276              		.cfi_offset 4, -16
 277              		.cfi_offset 5, -12
 278              		.cfi_offset 6, -8
 279              		.cfi_offset 14, -4
ARM GAS  C:\Users\HPz420\AppData\Local\Temp\ccoUwBih.s 			page 11


 280 0002 82B0     		sub	sp, sp, #8
 281              		.cfi_def_cfa_offset 24
 282 0004 0446     		mov	r4, r0
 283 0006 0E46     		mov	r6, r1
 284 0008 1546     		mov	r5, r2
 261:FrontPanel.c  **** uint8 MCP23017_WrBuffer[2];
 262:FrontPanel.c  ****     I2C_MasterClearStatus();
 285              		.loc 1 262 0
 286 000a FFF7FEFF 		bl	I2C_MasterClearStatus
 287              	.LVL40:
 263:FrontPanel.c  ****     MCP23017_WrBuffer[0] = ctrlAdr;
 288              		.loc 1 263 0
 289 000e 8DF80460 		strb	r6, [sp, #4]
 264:FrontPanel.c  ****     MCP23017_WrBuffer[1] = ctrlVal;
 290              		.loc 1 264 0
 291 0012 8DF80550 		strb	r5, [sp, #5]
 265:FrontPanel.c  ****     I2C_MasterWriteBuf(chipAddr, MCP23017_WrBuffer, 2, I2C_MODE_COMPLETE_XFER);
 292              		.loc 1 265 0
 293 0016 0023     		movs	r3, #0
 294 0018 0222     		movs	r2, #2
 295 001a 01A9     		add	r1, sp, #4
 296 001c 2046     		mov	r0, r4
 297 001e FFF7FEFF 		bl	I2C_MasterWriteBuf
 298              	.LVL41:
 299              	.L21:
 266:FrontPanel.c  ****     while (0u == (I2C_MasterStatus() & I2C_MSTAT_WR_CMPLT));
 300              		.loc 1 266 0 discriminator 1
 301 0022 FFF7FEFF 		bl	I2C_MasterStatus
 302              	.LVL42:
 303 0026 10F0020F 		tst	r0, #2
 304 002a FAD0     		beq	.L21
 267:FrontPanel.c  ****     I2C_MasterClearStatus();
 305              		.loc 1 267 0
 306 002c FFF7FEFF 		bl	I2C_MasterClearStatus
 307              	.LVL43:
 268:FrontPanel.c  **** }
 308              		.loc 1 268 0
 309 0030 02B0     		add	sp, sp, #8
 310              		.cfi_def_cfa_offset 16
 311              		@ sp needed
 312 0032 70BD     		pop	{r4, r5, r6, pc}
 313              		.cfi_endproc
 314              	.LFE70:
 315              		.size	writeRegister_MCP23017, .-writeRegister_MCP23017
 316              		.section	.text.init_FrontPanel,"ax",%progbits
 317              		.align	2
 318              		.global	init_FrontPanel
 319              		.thumb
 320              		.thumb_func
 321              		.type	init_FrontPanel, %function
 322              	init_FrontPanel:
 323              	.LFB63:
  54:FrontPanel.c  ****     uint8 chipAddr;
 324              		.loc 1 54 0
 325              		.cfi_startproc
 326              		@ args = 0, pretend = 0, frame = 0
 327              		@ frame_needed = 0, uses_anonymous_args = 0
ARM GAS  C:\Users\HPz420\AppData\Local\Temp\ccoUwBih.s 			page 12


 328 0000 10B5     		push	{r4, lr}
 329              		.cfi_def_cfa_offset 8
 330              		.cfi_offset 4, -8
 331              		.cfi_offset 14, -4
 332              	.LVL44:
  56:FrontPanel.c  ****     {
 333              		.loc 1 56 0
 334 0002 2424     		movs	r4, #36
 335 0004 37E0     		b	.L24
 336              	.LVL45:
 337              	.L25:
  58:FrontPanel.c  ****         writeRegister_MCP23017(chipAddr,MCP23017_IODIRB_REGADR,MCP23017_IODIR_ALL_OUTS);    // IO: 
 338              		.loc 1 58 0 discriminator 3
 339 0006 FF22     		movs	r2, #255
 340 0008 0021     		movs	r1, #0
 341 000a 2046     		mov	r0, r4
 342 000c FFF7FEFF 		bl	writeRegister_MCP23017
 343              	.LVL46:
  59:FrontPanel.c  ****         writeRegister_MCP23017(chipAddr,MCP23017_IPOLA_REGADR,MCP23017_IPOL_INVERT);        // IP: 
 344              		.loc 1 59 0 discriminator 3
 345 0010 0022     		movs	r2, #0
 346 0012 0121     		movs	r1, #1
 347 0014 2046     		mov	r0, r4
 348 0016 FFF7FEFF 		bl	writeRegister_MCP23017
 349              	.LVL47:
  60:FrontPanel.c  ****         writeRegister_MCP23017(chipAddr,MCP23017_GPINTENA_REGADR,MCP23017_GPINTEN_ENABLE);  // GPIN
 350              		.loc 1 60 0 discriminator 3
 351 001a FF22     		movs	r2, #255
 352 001c 0221     		movs	r1, #2
 353 001e 2046     		mov	r0, r4
 354 0020 FFF7FEFF 		bl	writeRegister_MCP23017
 355              	.LVL48:
  61:FrontPanel.c  ****         writeRegister_MCP23017(chipAddr,MCP23017_GPINTENB_REGADR,MCP23017_GPINTEN_DISABLE); // GPIN
 356              		.loc 1 61 0 discriminator 3
 357 0024 FF22     		movs	r2, #255
 358 0026 0421     		movs	r1, #4
 359 0028 2046     		mov	r0, r4
 360 002a FFF7FEFF 		bl	writeRegister_MCP23017
 361              	.LVL49:
  62:FrontPanel.c  ****         writeRegister_MCP23017(chipAddr,MCP23017_DEFVALA_REGADR,0xFF);                      // Defa
 362              		.loc 1 62 0 discriminator 3
 363 002e 0022     		movs	r2, #0
 364 0030 0521     		movs	r1, #5
 365 0032 2046     		mov	r0, r4
 366 0034 FFF7FEFF 		bl	writeRegister_MCP23017
 367              	.LVL50:
  63:FrontPanel.c  ****         writeRegister_MCP23017(chipAddr,MCP23017_INTCONA_REGADR,MCP23017_INTCON_DEFVAL);    // Int 
 368              		.loc 1 63 0 discriminator 3
 369 0038 FF22     		movs	r2, #255
 370 003a 0621     		movs	r1, #6
 371 003c 2046     		mov	r0, r4
 372 003e FFF7FEFF 		bl	writeRegister_MCP23017
 373              	.LVL51:
  64:FrontPanel.c  ****         writeRegister_MCP23017(chipAddr,MCP23017_IOCONA_REGADR,MCP23017_IOCON_DEFVAL);      // BANK
 374              		.loc 1 64 0 discriminator 3
 375 0042 0022     		movs	r2, #0
 376 0044 0821     		movs	r1, #8
ARM GAS  C:\Users\HPz420\AppData\Local\Temp\ccoUwBih.s 			page 13


 377 0046 2046     		mov	r0, r4
 378 0048 FFF7FEFF 		bl	writeRegister_MCP23017
 379              	.LVL52:
  65:FrontPanel.c  ****                                                                                             // MIRR
 380              		.loc 1 65 0 discriminator 3
 381 004c 0422     		movs	r2, #4
 382 004e 0A21     		movs	r1, #10
 383 0050 2046     		mov	r0, r4
 384 0052 FFF7FEFF 		bl	writeRegister_MCP23017
 385              	.LVL53:
  71:FrontPanel.c  ****         writeRegister_MCP23017(chipAddr,MCP23017_GPPUA_REGADR,MCP23017_GPPU_ENABLE);        // Pull
 386              		.loc 1 71 0 discriminator 3
 387 0056 0422     		movs	r2, #4
 388 0058 0B21     		movs	r1, #11
 389 005a 2046     		mov	r0, r4
 390 005c FFF7FEFF 		bl	writeRegister_MCP23017
 391              	.LVL54:
  72:FrontPanel.c  ****         readRegister_MCP23017(chipAddr,MCP23017_INTCAPA_REGADR);                            // Clea
 392              		.loc 1 72 0 discriminator 3
 393 0060 FF22     		movs	r2, #255
 394 0062 0C21     		movs	r1, #12
 395 0064 2046     		mov	r0, r4
 396 0066 FFF7FEFF 		bl	writeRegister_MCP23017
 397              	.LVL55:
  73:FrontPanel.c  ****     }
 398              		.loc 1 73 0 discriminator 3
 399 006a 1021     		movs	r1, #16
 400 006c 2046     		mov	r0, r4
 401 006e FFF7FEFF 		bl	readRegister_MCP23017
 402              	.LVL56:
  56:FrontPanel.c  ****     {
 403              		.loc 1 56 0 discriminator 3
 404 0072 0134     		adds	r4, r4, #1
 405              	.LVL57:
 406 0074 E4B2     		uxtb	r4, r4
 407              	.LVL58:
 408              	.L24:
  56:FrontPanel.c  ****     {
 409              		.loc 1 56 0 is_stmt 0 discriminator 1
 410 0076 272C     		cmp	r4, #39
 411 0078 C5D9     		bls	.L25
  75:FrontPanel.c  ****     FPAddr = 0;
 412              		.loc 1 75 0 is_stmt 1
 413 007a 0023     		movs	r3, #0
 414 007c 044A     		ldr	r2, .L27
 415 007e 1370     		strb	r3, [r2]
  76:FrontPanel.c  ****     FPCtrl = 0;
 416              		.loc 1 76 0
 417 0080 044A     		ldr	r2, .L27+4
 418 0082 1380     		strh	r3, [r2]	@ movhi
  77:FrontPanel.c  ****     FPLong = 0;
 419              		.loc 1 77 0
 420 0084 044A     		ldr	r2, .L27+8
 421 0086 1370     		strb	r3, [r2]
  78:FrontPanel.c  **** }
 422              		.loc 1 78 0
 423 0088 044A     		ldr	r2, .L27+12
ARM GAS  C:\Users\HPz420\AppData\Local\Temp\ccoUwBih.s 			page 14


 424 008a 1360     		str	r3, [r2]
 425 008c 10BD     		pop	{r4, pc}
 426              	.LVL59:
 427              	.L28:
 428 008e 00BF     		.align	2
 429              	.L27:
 430 0090 00000000 		.word	FPData
 431 0094 00000000 		.word	FPAddr
 432 0098 00000000 		.word	FPCtrl
 433 009c 00000000 		.word	FPLong
 434              		.cfi_endproc
 435              	.LFE63:
 436              		.size	init_FrontPanel, .-init_FrontPanel
 437              		.section	.text.writeFrontPanelLEDs,"ax",%progbits
 438              		.align	2
 439              		.global	writeFrontPanelLEDs
 440              		.thumb
 441              		.thumb_func
 442              		.type	writeFrontPanelLEDs, %function
 443              	writeFrontPanelLEDs:
 444              	.LFB68:
 225:FrontPanel.c  ****     writeRegister_MCP23017(MCP23017_0,MCP23017_OLATB_REGADR,((ledsVal>>24) & 0xff));
 445              		.loc 1 225 0
 446              		.cfi_startproc
 447              		@ args = 0, pretend = 0, frame = 0
 448              		@ frame_needed = 0, uses_anonymous_args = 0
 449              	.LVL60:
 450 0000 10B5     		push	{r4, lr}
 451              		.cfi_def_cfa_offset 8
 452              		.cfi_offset 4, -8
 453              		.cfi_offset 14, -4
 454 0002 0446     		mov	r4, r0
 226:FrontPanel.c  ****     writeRegister_MCP23017(MCP23017_1,MCP23017_OLATB_REGADR,((ledsVal>>16) & 0xff));
 455              		.loc 1 226 0
 456 0004 020E     		lsrs	r2, r0, #24
 457 0006 1521     		movs	r1, #21
 458 0008 2420     		movs	r0, #36
 459              	.LVL61:
 460 000a FFF7FEFF 		bl	writeRegister_MCP23017
 461              	.LVL62:
 227:FrontPanel.c  ****     writeRegister_MCP23017(MCP23017_2,MCP23017_OLATB_REGADR,((ledsVal>>8) & 0xff));
 462              		.loc 1 227 0
 463 000e C4F30742 		ubfx	r2, r4, #16, #8
 464 0012 1521     		movs	r1, #21
 465 0014 2520     		movs	r0, #37
 466 0016 FFF7FEFF 		bl	writeRegister_MCP23017
 467              	.LVL63:
 228:FrontPanel.c  ****     writeRegister_MCP23017(MCP23017_3,MCP23017_OLATB_REGADR,ledsVal&0xff);
 468              		.loc 1 228 0
 469 001a C4F30722 		ubfx	r2, r4, #8, #8
 470 001e 1521     		movs	r1, #21
 471 0020 2620     		movs	r0, #38
 472 0022 FFF7FEFF 		bl	writeRegister_MCP23017
 473              	.LVL64:
 229:FrontPanel.c  **** }
 474              		.loc 1 229 0
 475 0026 E2B2     		uxtb	r2, r4
ARM GAS  C:\Users\HPz420\AppData\Local\Temp\ccoUwBih.s 			page 15


 476 0028 1521     		movs	r1, #21
 477 002a 2720     		movs	r0, #39
 478 002c FFF7FEFF 		bl	writeRegister_MCP23017
 479              	.LVL65:
 480 0030 10BD     		pop	{r4, pc}
 481              		.cfi_endproc
 482              	.LFE68:
 483              		.size	writeFrontPanelLEDs, .-writeFrontPanelLEDs
 484 0032 00BF     		.section	.text.runFrontPanel,"ax",%progbits
 485              		.align	2
 486              		.global	runFrontPanel
 487              		.thumb
 488              		.thumb_func
 489              		.type	runFrontPanel, %function
 490              	runFrontPanel:
 491              	.LFB64:
  86:FrontPanel.c  ****     uint32 switchesVal = 0;
 492              		.loc 1 86 0
 493              		.cfi_startproc
 494              		@ args = 0, pretend = 0, frame = 0
 495              		@ frame_needed = 0, uses_anonymous_args = 0
 496 0000 10B5     		push	{r4, lr}
 497              		.cfi_def_cfa_offset 8
 498              		.cfi_offset 4, -8
 499              		.cfi_offset 14, -4
 500              	.LVL66:
  90:FrontPanel.c  ****     init_FrontPanel();
 501              		.loc 1 90 0
 502 0002 FFF7FEFF 		bl	I2C_Start
 503              	.LVL67:
  91:FrontPanel.c  ****     LEDsVal |= ReadExtSRAM(0);
 504              		.loc 1 91 0
 505 0006 FFF7FEFF 		bl	init_FrontPanel
 506              	.LVL68:
  92:FrontPanel.c  ****     writeFrontPanelLEDs(LEDsVal);       // clears LEDs
 507              		.loc 1 92 0
 508 000a 0020     		movs	r0, #0
 509 000c FFF7FEFF 		bl	ReadExtSRAM
 510              	.LVL69:
 511 0010 0446     		mov	r4, r0
 512              	.LVL70:
  93:FrontPanel.c  **** 
 513              		.loc 1 93 0
 514 0012 FFF7FEFF 		bl	writeFrontPanelLEDs
 515              	.LVL71:
 516              	.L32:
  97:FrontPanel.c  ****         if ((switchesVal & 0xff000000) != 0)    // Control switch on top row was pressed
 517              		.loc 1 97 0
 518 0016 FFF7FEFF 		bl	waitFrontPanelSwitchesPressed
 519              	.LVL72:
  98:FrontPanel.c  ****         {
 520              		.loc 1 98 0
 521 001a 10F07F4F 		tst	r0, #-16777216
 522 001e 39D0     		beq	.L33
 100:FrontPanel.c  ****             {
 523              		.loc 1 100 0
 524 0020 10F0807F 		tst	r0, #16777216
ARM GAS  C:\Users\HPz420\AppData\Local\Temp\ccoUwBih.s 			page 16


 525 0024 0CD0     		beq	.L34
 102:FrontPanel.c  ****                 LEDsVal &= 0xffffff00;
 526              		.loc 1 102 0
 527 0026 04F58074 		add	r4, r4, #256
 528              	.LVL73:
 103:FrontPanel.c  ****                 LEDsVal |= ReadExtSRAM((LEDsVal >> 8) & 0xffff);
 529              		.loc 1 103 0
 530 002a 24F0FF04 		bic	r4, r4, #255
 531              	.LVL74:
 104:FrontPanel.c  ****                 writeFrontPanelLEDs(LEDsVal);
 532              		.loc 1 104 0
 533 002e C4F30F20 		ubfx	r0, r4, #8, #16
 534              	.LVL75:
 535 0032 FFF7FEFF 		bl	ReadExtSRAM
 536              	.LVL76:
 537 0036 0443     		orrs	r4, r4, r0
 538              	.LVL77:
 105:FrontPanel.c  ****             }
 539              		.loc 1 105 0
 540 0038 2046     		mov	r0, r4
 541 003a FFF7FEFF 		bl	writeFrontPanelLEDs
 542              	.LVL78:
 543 003e EAE7     		b	.L32
 544              	.LVL79:
 545              	.L34:
 107:FrontPanel.c  ****             {
 546              		.loc 1 107 0
 547 0040 10F0007F 		tst	r0, #33554432
 548 0044 11D0     		beq	.L36
 109:FrontPanel.c  ****                 LEDsVal += 0x00000100;
 549              		.loc 1 109 0
 550 0046 E1B2     		uxtb	r1, r4
 551 0048 C4F30F20 		ubfx	r0, r4, #8, #16
 552              	.LVL80:
 553 004c FFF7FEFF 		bl	WriteExtSRAM
 554              	.LVL81:
 110:FrontPanel.c  ****                 LEDsVal &= 0xffffff00;
 555              		.loc 1 110 0
 556 0050 04F58074 		add	r4, r4, #256
 557              	.LVL82:
 111:FrontPanel.c  ****                 LEDsVal |= ReadExtSRAM((LEDsVal >> 8) & 0xffff);
 558              		.loc 1 111 0
 559 0054 24F0FF04 		bic	r4, r4, #255
 560              	.LVL83:
 112:FrontPanel.c  ****                 writeFrontPanelLEDs(LEDsVal);
 561              		.loc 1 112 0
 562 0058 C4F30F20 		ubfx	r0, r4, #8, #16
 563 005c FFF7FEFF 		bl	ReadExtSRAM
 564              	.LVL84:
 565 0060 0443     		orrs	r4, r4, r0
 566              	.LVL85:
 113:FrontPanel.c  ****             }
 567              		.loc 1 113 0
 568 0062 2046     		mov	r0, r4
 569 0064 FFF7FEFF 		bl	writeFrontPanelLEDs
 570              	.LVL86:
 571 0068 D5E7     		b	.L32
ARM GAS  C:\Users\HPz420\AppData\Local\Temp\ccoUwBih.s 			page 17


 572              	.LVL87:
 573              	.L36:
 115:FrontPanel.c  ****             {
 574              		.loc 1 115 0
 575 006a 10F0806F 		tst	r0, #67108864
 576 006e 0AD0     		beq	.L37
 117:FrontPanel.c  ****                 LEDsVal |= ReadExtSRAM((LEDsVal >> 8) & 0xffff);
 577              		.loc 1 117 0
 578 0070 24F0FF04 		bic	r4, r4, #255
 579              	.LVL88:
 118:FrontPanel.c  ****                 writeFrontPanelLEDs(LEDsVal);
 580              		.loc 1 118 0
 581 0074 C4F30F20 		ubfx	r0, r4, #8, #16
 582              	.LVL89:
 583 0078 FFF7FEFF 		bl	ReadExtSRAM
 584              	.LVL90:
 585 007c 0443     		orrs	r4, r4, r0
 586              	.LVL91:
 119:FrontPanel.c  ****             }
 587              		.loc 1 119 0
 588 007e 2046     		mov	r0, r4
 589 0080 FFF7FEFF 		bl	writeFrontPanelLEDs
 590              	.LVL92:
 591 0084 C7E7     		b	.L32
 592              	.LVL93:
 593              	.L37:
 121:FrontPanel.c  ****             {
 594              		.loc 1 121 0
 595 0086 10F0006F 		tst	r0, #134217728
 596 008a C4D0     		beq	.L32
 123:FrontPanel.c  ****                 return;
 597              		.loc 1 123 0
 598 008c 0022     		movs	r2, #0
 599 008e 044B     		ldr	r3, .L40
 600 0090 1A70     		strb	r2, [r3]
 124:FrontPanel.c  ****             }
 601              		.loc 1 124 0
 602 0092 10BD     		pop	{r4, pc}
 603              	.LVL94:
 604              	.L33:
 130:FrontPanel.c  ****             writeFrontPanelLEDs(LEDsVal);
 605              		.loc 1 130 0
 606 0094 4440     		eors	r4, r4, r0
 607              	.LVL95:
 131:FrontPanel.c  ****         }
 608              		.loc 1 131 0
 609 0096 2046     		mov	r0, r4
 610              	.LVL96:
 611 0098 FFF7FEFF 		bl	writeFrontPanelLEDs
 612              	.LVL97:
 613 009c BBE7     		b	.L32
 614              	.L41:
 615 009e 00BF     		.align	2
 616              	.L40:
 617 00a0 76650040 		.word	1073767798
 618              		.cfi_endproc
 619              	.LFE64:
ARM GAS  C:\Users\HPz420\AppData\Local\Temp\ccoUwBih.s 			page 18


 620              		.size	runFrontPanel, .-runFrontPanel
 621              		.comm	FPLong,4,4
 622              		.comm	FPCtrl,1,1
 623              		.comm	FPAddr,2,2
 624              		.comm	FPData,1,1
 625              		.text
 626              	.Letext0:
 627              		.file 2 "c:\\program files (x86)\\cypress\\psoc creator\\4.2\\psoc creator\\import\\gnu\\arm\\5.4.
 628              		.file 3 "c:\\program files (x86)\\cypress\\psoc creator\\4.2\\psoc creator\\import\\gnu\\arm\\5.4.
 629              		.file 4 "Generated_Source\\PSoC5/cytypes.h"
 630              		.file 5 "Generated_Source\\PSoC5/core_cm3.h"
 631              		.file 6 "Generated_Source\\PSoC5/I2C.h"
 632              		.file 7 "Generated_Source\\PSoC5/CyLib.h"
 633              		.file 8 "ExtSRAM.h"