    1             / RK05 READ CHECK
    2             / Do a read check on all sectors.  Header words should be checked in all
    3             / sectors except 0.  0 probably missed since won't be first after seek
    4             / To run start at 0200 with SR9-11 with drive number to test
    5             / Program will halt on error, hit continue to go on to next sector.
    6             / If the switch register is not zero at the end of a pass the program
    7             / will halt
    8       6741          DSKP=6741
    9       6742          DCLR=6742
   10       6743          DLAG=6743
   11       6744          DLCA=6744
   12       6745          DRST=6745
   13       6746          DLDC=6746
   14             
   15       0020          *20
   16 00020 0000  DRIVE,  0
   17 00021 0200  K0200,  0200
   18 00022 4000  K4000,  4000
   19 00023 0000  FLD,    0
   20 00024 0000  SECT,   0
   21 00025 0000  CYL,    0
   22 00026 4520  MAXCYL, 4520
   23 00027 0000  EXBIT,  0
   24 00030 0000  REDDAT, 0000
   25 00031 3000  CURENT, 3000
   26 00032 0017  K17,    17
   27             
   28       0200          *200
   29 00200 7704          CLA CLL OSR
   30 00201 7004          RAL
   31 00202 3020          DCA DRIVE
   32 00203 7200  RESTRT, CLA
   33 00204 3024          DCA SECT
   34 00205 3025          DCA CYL
   35 00206 3027          DCA EXBIT
   36 00207 7301  RECAL,  CLA CLL IAC
   37 00210 6742          DCLR
   38 00211 1020          TAD DRIVE
   39 00212 6746          DLDC
   40 00213 7326          CLA CLL CML RTL
   41 00214 6742          DCLR
   42 00215 6741          DSKP
   43 00216 5215          JMP .-1
   44 00217 1021          TAD K0200
   45 00220 1020          TAD DRIVE
   46 00221 6746          DLDC
   47 00222 6741          DSKP
   48 00223 5222          JMP .-1
   49 00224 6745          DRST
   50 00225 7041          CIA
   51 00226 1022          TAD K4000
   52 00227 7640          SZA CLA
   53 00230 5232          JMP BADSTA
   54 00231 5233          JMP READ
   55 00232 7402  BADSTA, HLT



                                                                          Page 1


   56             
   57 00233 7301  READ,   CLA CLL IAC
   58 00234 6742          DCLR
   59 00235 1031          TAD CURENT
   60 00236 6744          DLCA
   61 00237 1020          TAD DRIVE
   62 00240 1030          TAD REDDAT
   63 00241 1023          TAD FLD
   64 00242 1027          TAD EXBIT
   65 00243 6746          DLDC
   66 00244 1025          TAD CYL
   67 00245 1024          TAD SECT
   68 00246 6743          DLAG
   69 00247 1027          TAD EXBIT
   70 00250 7010          RAR
   71 00251 1025          TAD CYL
   72 00252 1024          TAD SECT
   73 00253 7010          RAR
   74 00254 6741          DSKP
   75 00255 5254          JMP .-1
   76 00256 6745          DRST
   77 00257 7041          CIA
   78 00260 1022          TAD K4000
   79 00261 7640          SZA CLA
   80 00262 5332          JMP ERROR
   81 00263 7305  NEXT,   CLA CLL IAC RAL
   82 00264 1024          TAD SECT
   83 00265 0032          AND K17
   84 00266 3024          DCA SECT
   85 00267 7240          CLA CMA
   86 00270 1024          TAD SECT
   87 00271 7440          SZA
   88 00272 5276          JMP CHK0
   89 00273 7200          CLA
   90 00274 3024          DCA SECT
   91 00275 5302          JMP INCCYL
   92 00276 7001  CHK0,   IAC
   93 00277 7450          SNA
   94 00300 2024          ISZ SECT
   95 00301 5233          JMP READ
   96             
   97 00302 1027  INCCYL, TAD EXBIT
   98 00303 7440          SZA
   99 00304 5320          JMP CHKCYL
  100 00305 7200  INCTRK, CLA
  101 00306 1032          TAD K17
  102 00307 7001          IAC
  103 00310 1025          TAD CYL
  104 00311 3025          DCA CYL
  105 00312 1025          TAD CYL



                                                                          Page 2


  106 00313 7440          SZA
  107 00314 5233          JMP READ
  108 00315 2027          ISZ EXBIT
  109 00316 5233          JMP READ
  110 00317 7402          HLT
  111 00320 7200  CHKCYL, CLA
  112 00321 1025          TAD CYL
  113 00322 7041          CIA
  114 00323 1026          TAD MAXCYL
  115 00324 7440          SZA
  116 00325 5305          JMP INCTRK
  117 00326 7604  DONE,   CLA OSR
  118 00327 7440          SZA
  119 00330 7402          HLT
  120 00331 5203          JMP RESTRT
  121 00332 7200  ERROR,  CLA
  122 00333 6745          DRST
  123 00334 7402          HLT
  124 00335 5263          JMP NEXT
  125                     $

      No detected errors
