ARM GAS  C:\Users\HPz420\AppData\Local\Temp\cczsTqzr.s 			page 1


   1              		.syntax unified
   2              		.cpu cortex-m3
   3              		.fpu softvfp
   4              		.eabi_attribute 20, 1
   5              		.eabi_attribute 21, 1
   6              		.eabi_attribute 23, 3
   7              		.eabi_attribute 24, 1
   8              		.eabi_attribute 25, 1
   9              		.eabi_attribute 26, 1
  10              		.eabi_attribute 30, 1
  11              		.eabi_attribute 34, 1
  12              		.eabi_attribute 18, 4
  13              		.thumb
  14              		.syntax unified
  15              		.file	"cyfitter_cfg.c"
  16              		.text
  17              	.Ltext0:
  18              		.cfi_sections	.debug_frame
  19              		.section	.text.CyClockStartupError,"ax",%progbits
  20              		.align	2
  21              		.thumb
  22              		.thumb_func
  23              		.type	CyClockStartupError, %function
  24              	CyClockStartupError:
  25              	.LFB3:
  26              		.file 1 "Generated_Source\\PSoC5\\cyfitter_cfg.c"
   1:Generated_Source\PSoC5/cyfitter_cfg.c **** 
   2:Generated_Source\PSoC5/cyfitter_cfg.c **** /*******************************************************************************
   3:Generated_Source\PSoC5/cyfitter_cfg.c **** * File Name: cyfitter_cfg.c
   4:Generated_Source\PSoC5/cyfitter_cfg.c **** * 
   5:Generated_Source\PSoC5/cyfitter_cfg.c **** * PSoC Creator  4.2
   6:Generated_Source\PSoC5/cyfitter_cfg.c **** *
   7:Generated_Source\PSoC5/cyfitter_cfg.c **** * Description:
   8:Generated_Source\PSoC5/cyfitter_cfg.c **** * This file contains device initialization code.
   9:Generated_Source\PSoC5/cyfitter_cfg.c **** * Except for the user defined sections in CyClockStartupError(), this file should not be modified.
  10:Generated_Source\PSoC5/cyfitter_cfg.c **** * This file is automatically generated by PSoC Creator.
  11:Generated_Source\PSoC5/cyfitter_cfg.c **** *
  12:Generated_Source\PSoC5/cyfitter_cfg.c **** ********************************************************************************
  13:Generated_Source\PSoC5/cyfitter_cfg.c **** * Copyright (c) 2007-2018 Cypress Semiconductor.  All rights reserved.
  14:Generated_Source\PSoC5/cyfitter_cfg.c **** * You may use this file only in accordance with the license, terms, conditions, 
  15:Generated_Source\PSoC5/cyfitter_cfg.c **** * disclaimers, and limitations in the end user license agreement accompanying 
  16:Generated_Source\PSoC5/cyfitter_cfg.c **** * the software package with which this file was provided.
  17:Generated_Source\PSoC5/cyfitter_cfg.c **** ********************************************************************************/
  18:Generated_Source\PSoC5/cyfitter_cfg.c **** 
  19:Generated_Source\PSoC5/cyfitter_cfg.c **** #include <string.h>
  20:Generated_Source\PSoC5/cyfitter_cfg.c **** #include "cytypes.h"
  21:Generated_Source\PSoC5/cyfitter_cfg.c **** #include "cydevice_trm.h"
  22:Generated_Source\PSoC5/cyfitter_cfg.c **** #include "cyfitter.h"
  23:Generated_Source\PSoC5/cyfitter_cfg.c **** #include "CyLib.h"
  24:Generated_Source\PSoC5/cyfitter_cfg.c **** #include "cyfitter_cfg.h"
  25:Generated_Source\PSoC5/cyfitter_cfg.c **** #include "cyapicallbacks.h"
  26:Generated_Source\PSoC5/cyfitter_cfg.c **** 
  27:Generated_Source\PSoC5/cyfitter_cfg.c **** #define CY_NEED_CYCLOCKSTARTUPERROR 1
  28:Generated_Source\PSoC5/cyfitter_cfg.c **** 
  29:Generated_Source\PSoC5/cyfitter_cfg.c **** 
  30:Generated_Source\PSoC5/cyfitter_cfg.c **** #if defined(__GNUC__) || defined(__ARMCC_VERSION)
  31:Generated_Source\PSoC5/cyfitter_cfg.c ****     #define CYPACKED 
ARM GAS  C:\Users\HPz420\AppData\Local\Temp\cczsTqzr.s 			page 2


  32:Generated_Source\PSoC5/cyfitter_cfg.c ****     #define CYPACKED_ATTR __attribute__ ((packed))
  33:Generated_Source\PSoC5/cyfitter_cfg.c ****     #define CYALIGNED __attribute__ ((aligned))
  34:Generated_Source\PSoC5/cyfitter_cfg.c ****     #define CY_CFG_UNUSED __attribute__ ((unused))
  35:Generated_Source\PSoC5/cyfitter_cfg.c ****     #ifndef CY_CFG_SECTION
  36:Generated_Source\PSoC5/cyfitter_cfg.c ****         #define CY_CFG_SECTION __attribute__ ((section(".psocinit")))
  37:Generated_Source\PSoC5/cyfitter_cfg.c ****     #endif
  38:Generated_Source\PSoC5/cyfitter_cfg.c ****     
  39:Generated_Source\PSoC5/cyfitter_cfg.c ****     #if defined(__ARMCC_VERSION)
  40:Generated_Source\PSoC5/cyfitter_cfg.c ****         #define CY_CFG_MEMORY_BARRIER() __memory_changed()
  41:Generated_Source\PSoC5/cyfitter_cfg.c ****     #else
  42:Generated_Source\PSoC5/cyfitter_cfg.c ****         #define CY_CFG_MEMORY_BARRIER() __sync_synchronize()
  43:Generated_Source\PSoC5/cyfitter_cfg.c ****     #endif
  44:Generated_Source\PSoC5/cyfitter_cfg.c ****     
  45:Generated_Source\PSoC5/cyfitter_cfg.c **** #elif defined(__ICCARM__)
  46:Generated_Source\PSoC5/cyfitter_cfg.c ****     #include <intrinsics.h>
  47:Generated_Source\PSoC5/cyfitter_cfg.c **** 
  48:Generated_Source\PSoC5/cyfitter_cfg.c ****     #define CYPACKED __packed
  49:Generated_Source\PSoC5/cyfitter_cfg.c ****     #define CYPACKED_ATTR 
  50:Generated_Source\PSoC5/cyfitter_cfg.c ****     #define CYALIGNED _Pragma("data_alignment=4")
  51:Generated_Source\PSoC5/cyfitter_cfg.c ****     #define CY_CFG_UNUSED _Pragma("diag_suppress=Pe177")
  52:Generated_Source\PSoC5/cyfitter_cfg.c ****     #define CY_CFG_SECTION _Pragma("location=\".psocinit\"")
  53:Generated_Source\PSoC5/cyfitter_cfg.c ****     
  54:Generated_Source\PSoC5/cyfitter_cfg.c ****     #define CY_CFG_MEMORY_BARRIER() __DMB()
  55:Generated_Source\PSoC5/cyfitter_cfg.c ****     
  56:Generated_Source\PSoC5/cyfitter_cfg.c **** #else
  57:Generated_Source\PSoC5/cyfitter_cfg.c ****     #error Unsupported toolchain
  58:Generated_Source\PSoC5/cyfitter_cfg.c **** #endif
  59:Generated_Source\PSoC5/cyfitter_cfg.c **** 
  60:Generated_Source\PSoC5/cyfitter_cfg.c **** #ifndef CYCODE
  61:Generated_Source\PSoC5/cyfitter_cfg.c ****     #define CYCODE
  62:Generated_Source\PSoC5/cyfitter_cfg.c **** #endif
  63:Generated_Source\PSoC5/cyfitter_cfg.c **** #ifndef CYDATA
  64:Generated_Source\PSoC5/cyfitter_cfg.c ****     #define CYDATA
  65:Generated_Source\PSoC5/cyfitter_cfg.c **** #endif
  66:Generated_Source\PSoC5/cyfitter_cfg.c **** #ifndef CYFAR
  67:Generated_Source\PSoC5/cyfitter_cfg.c ****     #define CYFAR
  68:Generated_Source\PSoC5/cyfitter_cfg.c **** #endif
  69:Generated_Source\PSoC5/cyfitter_cfg.c **** #ifndef CYXDATA
  70:Generated_Source\PSoC5/cyfitter_cfg.c ****     #define CYXDATA
  71:Generated_Source\PSoC5/cyfitter_cfg.c **** #endif
  72:Generated_Source\PSoC5/cyfitter_cfg.c **** 
  73:Generated_Source\PSoC5/cyfitter_cfg.c **** 
  74:Generated_Source\PSoC5/cyfitter_cfg.c **** CY_CFG_UNUSED
  75:Generated_Source\PSoC5/cyfitter_cfg.c **** static void CYMEMZERO(void *s, size_t n);
  76:Generated_Source\PSoC5/cyfitter_cfg.c **** CY_CFG_UNUSED
  77:Generated_Source\PSoC5/cyfitter_cfg.c **** static void CYMEMZERO(void *s, size_t n)
  78:Generated_Source\PSoC5/cyfitter_cfg.c **** {
  79:Generated_Source\PSoC5/cyfitter_cfg.c **** 	(void)memset(s, 0, n);
  80:Generated_Source\PSoC5/cyfitter_cfg.c **** }
  81:Generated_Source\PSoC5/cyfitter_cfg.c **** CY_CFG_UNUSED
  82:Generated_Source\PSoC5/cyfitter_cfg.c **** static void CYCONFIGCPY(void *dest, const void *src, size_t n);
  83:Generated_Source\PSoC5/cyfitter_cfg.c **** CY_CFG_UNUSED
  84:Generated_Source\PSoC5/cyfitter_cfg.c **** static void CYCONFIGCPY(void *dest, const void *src, size_t n)
  85:Generated_Source\PSoC5/cyfitter_cfg.c **** {
  86:Generated_Source\PSoC5/cyfitter_cfg.c **** 	(void)memcpy(dest, src, n);
  87:Generated_Source\PSoC5/cyfitter_cfg.c **** }
  88:Generated_Source\PSoC5/cyfitter_cfg.c **** CY_CFG_UNUSED
ARM GAS  C:\Users\HPz420\AppData\Local\Temp\cczsTqzr.s 			page 3


  89:Generated_Source\PSoC5/cyfitter_cfg.c **** static void CYCONFIGCPYCODE(void *dest, const void *src, size_t n);
  90:Generated_Source\PSoC5/cyfitter_cfg.c **** CY_CFG_UNUSED
  91:Generated_Source\PSoC5/cyfitter_cfg.c **** static void CYCONFIGCPYCODE(void *dest, const void *src, size_t n)
  92:Generated_Source\PSoC5/cyfitter_cfg.c **** {
  93:Generated_Source\PSoC5/cyfitter_cfg.c **** 	(void)memcpy(dest, src, n);
  94:Generated_Source\PSoC5/cyfitter_cfg.c **** }
  95:Generated_Source\PSoC5/cyfitter_cfg.c **** 
  96:Generated_Source\PSoC5/cyfitter_cfg.c **** 
  97:Generated_Source\PSoC5/cyfitter_cfg.c **** 
  98:Generated_Source\PSoC5/cyfitter_cfg.c **** 
  99:Generated_Source\PSoC5/cyfitter_cfg.c **** /* Clock startup error codes                                                   */
 100:Generated_Source\PSoC5/cyfitter_cfg.c **** #define CYCLOCKSTART_NO_ERROR    0u
 101:Generated_Source\PSoC5/cyfitter_cfg.c **** #define CYCLOCKSTART_XTAL_ERROR  1u
 102:Generated_Source\PSoC5/cyfitter_cfg.c **** #define CYCLOCKSTART_32KHZ_ERROR 2u
 103:Generated_Source\PSoC5/cyfitter_cfg.c **** #define CYCLOCKSTART_PLL_ERROR   3u
 104:Generated_Source\PSoC5/cyfitter_cfg.c **** #define CYCLOCKSTART_FLL_ERROR   4u
 105:Generated_Source\PSoC5/cyfitter_cfg.c **** #define CYCLOCKSTART_WCO_ERROR   5u
 106:Generated_Source\PSoC5/cyfitter_cfg.c **** 
 107:Generated_Source\PSoC5/cyfitter_cfg.c **** 
 108:Generated_Source\PSoC5/cyfitter_cfg.c **** #ifdef CY_NEED_CYCLOCKSTARTUPERROR
 109:Generated_Source\PSoC5/cyfitter_cfg.c **** /*******************************************************************************
 110:Generated_Source\PSoC5/cyfitter_cfg.c **** * Function Name: CyClockStartupError
 111:Generated_Source\PSoC5/cyfitter_cfg.c **** ********************************************************************************
 112:Generated_Source\PSoC5/cyfitter_cfg.c **** * Summary:
 113:Generated_Source\PSoC5/cyfitter_cfg.c **** *  If an error is encountered during clock configuration (crystal startup error,
 114:Generated_Source\PSoC5/cyfitter_cfg.c **** *  PLL lock error, etc.), the system will end up here.  Unless reimplemented by
 115:Generated_Source\PSoC5/cyfitter_cfg.c **** *  the customer, this function will stop in an infinite loop.
 116:Generated_Source\PSoC5/cyfitter_cfg.c **** *
 117:Generated_Source\PSoC5/cyfitter_cfg.c **** * Parameters:
 118:Generated_Source\PSoC5/cyfitter_cfg.c **** *   void
 119:Generated_Source\PSoC5/cyfitter_cfg.c **** *
 120:Generated_Source\PSoC5/cyfitter_cfg.c **** * Return:
 121:Generated_Source\PSoC5/cyfitter_cfg.c **** *   void
 122:Generated_Source\PSoC5/cyfitter_cfg.c **** *
 123:Generated_Source\PSoC5/cyfitter_cfg.c **** *******************************************************************************/
 124:Generated_Source\PSoC5/cyfitter_cfg.c **** CY_CFG_UNUSED
 125:Generated_Source\PSoC5/cyfitter_cfg.c **** static void CyClockStartupError(uint8 errorCode);
 126:Generated_Source\PSoC5/cyfitter_cfg.c **** CY_CFG_UNUSED
 127:Generated_Source\PSoC5/cyfitter_cfg.c **** static void CyClockStartupError(uint8 errorCode)
 128:Generated_Source\PSoC5/cyfitter_cfg.c **** {
  27              		.loc 1 128 0
  28              		.cfi_startproc
  29              		@ Volatile: function does not return.
  30              		@ args = 0, pretend = 0, frame = 0
  31              		@ frame_needed = 0, uses_anonymous_args = 0
  32              		@ link register save eliminated.
  33              	.LVL0:
  34              	.L2:
  35 0000 FEE7     		b	.L2
  36              		.cfi_endproc
  37              	.LFE3:
  38              		.size	CyClockStartupError, .-CyClockStartupError
  39 0002 00BF     		.section	.text.cfg_write_bytes32,"ax",%progbits
  40              		.align	2
  41              		.thumb
  42              		.thumb_func
  43              		.type	cfg_write_bytes32, %function
ARM GAS  C:\Users\HPz420\AppData\Local\Temp\cczsTqzr.s 			page 4


  44              	cfg_write_bytes32:
  45              	.LFB4:
 129:Generated_Source\PSoC5/cyfitter_cfg.c ****     /* To remove the compiler warning if errorCode not used.                */
 130:Generated_Source\PSoC5/cyfitter_cfg.c ****     errorCode = errorCode;
 131:Generated_Source\PSoC5/cyfitter_cfg.c **** 
 132:Generated_Source\PSoC5/cyfitter_cfg.c ****     /* If we have a clock startup error (bad MHz crystal, PLL lock, etc.),  */
 133:Generated_Source\PSoC5/cyfitter_cfg.c ****     /* we will end up here to allow the customer to implement something to  */
 134:Generated_Source\PSoC5/cyfitter_cfg.c ****     /* deal with the clock condition.                                       */
 135:Generated_Source\PSoC5/cyfitter_cfg.c **** 
 136:Generated_Source\PSoC5/cyfitter_cfg.c **** #ifdef CY_CFG_CLOCK_STARTUP_ERROR_CALLBACK
 137:Generated_Source\PSoC5/cyfitter_cfg.c ****     CY_CFG_Clock_Startup_ErrorCallback();
 138:Generated_Source\PSoC5/cyfitter_cfg.c **** #else
 139:Generated_Source\PSoC5/cyfitter_cfg.c ****     /*  If not using CY_CFG_CLOCK_STARTUP_ERROR_CALLBACK, place your clock startup code here. */
 140:Generated_Source\PSoC5/cyfitter_cfg.c ****     /* `#START CyClockStartupError` */
 141:Generated_Source\PSoC5/cyfitter_cfg.c **** 
 142:Generated_Source\PSoC5/cyfitter_cfg.c **** 
 143:Generated_Source\PSoC5/cyfitter_cfg.c **** 
 144:Generated_Source\PSoC5/cyfitter_cfg.c ****     /* `#END` */
 145:Generated_Source\PSoC5/cyfitter_cfg.c **** 
 146:Generated_Source\PSoC5/cyfitter_cfg.c ****     while(1) {}
 147:Generated_Source\PSoC5/cyfitter_cfg.c **** #endif /* CY_CFG_CLOCK_STARTUP_ERROR_CALLBACK */
 148:Generated_Source\PSoC5/cyfitter_cfg.c **** }
 149:Generated_Source\PSoC5/cyfitter_cfg.c **** #endif
 150:Generated_Source\PSoC5/cyfitter_cfg.c **** 
 151:Generated_Source\PSoC5/cyfitter_cfg.c **** #define CY_CFG_BASE_ADDR_COUNT 36u
 152:Generated_Source\PSoC5/cyfitter_cfg.c **** CYPACKED typedef struct
 153:Generated_Source\PSoC5/cyfitter_cfg.c **** {
 154:Generated_Source\PSoC5/cyfitter_cfg.c **** 	uint8 offset;
 155:Generated_Source\PSoC5/cyfitter_cfg.c **** 	uint8 value;
 156:Generated_Source\PSoC5/cyfitter_cfg.c **** } CYPACKED_ATTR cy_cfg_addrvalue_t;
 157:Generated_Source\PSoC5/cyfitter_cfg.c **** 
 158:Generated_Source\PSoC5/cyfitter_cfg.c **** #define cy_cfg_addr_table ((const uint32 CYFAR *)0x48000000u)
 159:Generated_Source\PSoC5/cyfitter_cfg.c **** #define cy_cfg_data_table ((const cy_cfg_addrvalue_t CYFAR *)0x48000090u)
 160:Generated_Source\PSoC5/cyfitter_cfg.c **** 
 161:Generated_Source\PSoC5/cyfitter_cfg.c **** /* IOPINS0_0 Address: CYREG_PRT0_DM0 Size (bytes): 8 */
 162:Generated_Source\PSoC5/cyfitter_cfg.c **** #define BS_IOPINS0_0_VAL ((const uint8 CYFAR *)0x480007B0u)
 163:Generated_Source\PSoC5/cyfitter_cfg.c **** 
 164:Generated_Source\PSoC5/cyfitter_cfg.c **** /* IOPINS0_7 Address: CYREG_PRT12_DR Size (bytes): 10 */
 165:Generated_Source\PSoC5/cyfitter_cfg.c **** #define BS_IOPINS0_7_VAL ((const uint8 CYFAR *)0x480007B8u)
 166:Generated_Source\PSoC5/cyfitter_cfg.c **** 
 167:Generated_Source\PSoC5/cyfitter_cfg.c **** /* IOPINS0_8 Address: CYREG_PRT15_DR Size (bytes): 10 */
 168:Generated_Source\PSoC5/cyfitter_cfg.c **** #define BS_IOPINS0_8_VAL ((const uint8 CYFAR *)0x480007C4u)
 169:Generated_Source\PSoC5/cyfitter_cfg.c **** 
 170:Generated_Source\PSoC5/cyfitter_cfg.c **** /* IOPINS0_1 Address: CYREG_PRT1_DM0 Size (bytes): 8 */
 171:Generated_Source\PSoC5/cyfitter_cfg.c **** #define BS_IOPINS0_1_VAL ((const uint8 CYFAR *)0x480007D0u)
 172:Generated_Source\PSoC5/cyfitter_cfg.c **** 
 173:Generated_Source\PSoC5/cyfitter_cfg.c **** /* IOPINS0_2 Address: CYREG_PRT2_DM0 Size (bytes): 8 */
 174:Generated_Source\PSoC5/cyfitter_cfg.c **** #define BS_IOPINS0_2_VAL ((const uint8 CYFAR *)0x480007D8u)
 175:Generated_Source\PSoC5/cyfitter_cfg.c **** 
 176:Generated_Source\PSoC5/cyfitter_cfg.c **** /* IOPINS0_3 Address: CYREG_PRT3_DR Size (bytes): 10 */
 177:Generated_Source\PSoC5/cyfitter_cfg.c **** #define BS_IOPINS0_3_VAL ((const uint8 CYFAR *)0x480007E0u)
 178:Generated_Source\PSoC5/cyfitter_cfg.c **** 
 179:Generated_Source\PSoC5/cyfitter_cfg.c **** /* IOPINS0_4 Address: CYREG_PRT4_DM0 Size (bytes): 8 */
 180:Generated_Source\PSoC5/cyfitter_cfg.c **** #define BS_IOPINS0_4_VAL ((const uint8 CYFAR *)0x480007ECu)
 181:Generated_Source\PSoC5/cyfitter_cfg.c **** 
 182:Generated_Source\PSoC5/cyfitter_cfg.c **** /* IOPINS0_5 Address: CYREG_PRT5_DR Size (bytes): 10 */
 183:Generated_Source\PSoC5/cyfitter_cfg.c **** #define BS_IOPINS0_5_VAL ((const uint8 CYFAR *)0x480007F4u)
ARM GAS  C:\Users\HPz420\AppData\Local\Temp\cczsTqzr.s 			page 5


 184:Generated_Source\PSoC5/cyfitter_cfg.c **** 
 185:Generated_Source\PSoC5/cyfitter_cfg.c **** /* IOPINS0_6 Address: CYREG_PRT6_DR Size (bytes): 10 */
 186:Generated_Source\PSoC5/cyfitter_cfg.c **** #define BS_IOPINS0_6_VAL ((const uint8 CYFAR *)0x48000800u)
 187:Generated_Source\PSoC5/cyfitter_cfg.c **** 
 188:Generated_Source\PSoC5/cyfitter_cfg.c **** 
 189:Generated_Source\PSoC5/cyfitter_cfg.c **** /*******************************************************************************
 190:Generated_Source\PSoC5/cyfitter_cfg.c **** * Function Name: cfg_write_bytes32
 191:Generated_Source\PSoC5/cyfitter_cfg.c **** ********************************************************************************
 192:Generated_Source\PSoC5/cyfitter_cfg.c **** * Summary:
 193:Generated_Source\PSoC5/cyfitter_cfg.c **** *  This function is used for setting up the chip configuration areas that
 194:Generated_Source\PSoC5/cyfitter_cfg.c **** *  contain relatively sparse data.
 195:Generated_Source\PSoC5/cyfitter_cfg.c **** *
 196:Generated_Source\PSoC5/cyfitter_cfg.c **** * Parameters:
 197:Generated_Source\PSoC5/cyfitter_cfg.c **** *   void
 198:Generated_Source\PSoC5/cyfitter_cfg.c **** *
 199:Generated_Source\PSoC5/cyfitter_cfg.c **** * Return:
 200:Generated_Source\PSoC5/cyfitter_cfg.c **** *   void
 201:Generated_Source\PSoC5/cyfitter_cfg.c **** *
 202:Generated_Source\PSoC5/cyfitter_cfg.c **** *******************************************************************************/
 203:Generated_Source\PSoC5/cyfitter_cfg.c **** static void cfg_write_bytes32(const uint32 addr_table[], const cy_cfg_addrvalue_t data_table[]);
 204:Generated_Source\PSoC5/cyfitter_cfg.c **** static void cfg_write_bytes32(const uint32 addr_table[], const cy_cfg_addrvalue_t data_table[])
 205:Generated_Source\PSoC5/cyfitter_cfg.c **** {
  46              		.loc 1 205 0
  47              		.cfi_startproc
  48              		@ args = 0, pretend = 0, frame = 0
  49              		@ frame_needed = 0, uses_anonymous_args = 0
  50              		@ link register save eliminated.
  51              	.LVL1:
  52              		.loc 1 205 0
  53 0000 F0B4     		push	{r4, r5, r6, r7}
  54              		.cfi_def_cfa_offset 16
  55              		.cfi_offset 4, -16
  56              		.cfi_offset 5, -12
  57              		.cfi_offset 6, -8
  58              		.cfi_offset 7, -4
  59              	.LVL2:
 206:Generated_Source\PSoC5/cyfitter_cfg.c **** 	/* For 32-bit little-endian architectures */
 207:Generated_Source\PSoC5/cyfitter_cfg.c **** 	uint32 i, j = 0u;
  60              		.loc 1 207 0
  61 0002 0022     		movs	r2, #0
 208:Generated_Source\PSoC5/cyfitter_cfg.c **** 	for (i = 0u; i < CY_CFG_BASE_ADDR_COUNT; i++)
  62              		.loc 1 208 0
  63 0004 1746     		mov	r7, r2
  64 0006 11E0     		b	.L4
  65              	.LVL3:
  66              	.L7:
  67              	.LBB2:
 209:Generated_Source\PSoC5/cyfitter_cfg.c **** 	{
 210:Generated_Source\PSoC5/cyfitter_cfg.c **** 		uint32 baseAddr = addr_table[i];
  68              		.loc 1 210 0
  69 0008 50F82760 		ldr	r6, [r0, r7, lsl #2]
  70              	.LVL4:
 211:Generated_Source\PSoC5/cyfitter_cfg.c **** 		uint8 count = (uint8)baseAddr;
  71              		.loc 1 211 0
  72 000c F3B2     		uxtb	r3, r6
  73              	.LVL5:
 212:Generated_Source\PSoC5/cyfitter_cfg.c **** 		baseAddr &= 0xFFFFFF00u;
ARM GAS  C:\Users\HPz420\AppData\Local\Temp\cczsTqzr.s 			page 6


  74              		.loc 1 212 0
  75 000e 26F0FF06 		bic	r6, r6, #255
  76              	.LVL6:
 213:Generated_Source\PSoC5/cyfitter_cfg.c **** 		while (count != 0u)
  77              		.loc 1 213 0
  78 0012 08E0     		b	.L5
  79              	.L6:
 214:Generated_Source\PSoC5/cyfitter_cfg.c **** 		{
 215:Generated_Source\PSoC5/cyfitter_cfg.c **** 			CY_SET_REG8((void *)(baseAddr + data_table[j].offset), data_table[j].value);
  80              		.loc 1 215 0
  81 0014 01EB4205 		add	r5, r1, r2, lsl #1
  82 0018 11F81240 		ldrb	r4, [r1, r2, lsl #1]	@ zero_extendqisi2
  83 001c 6D78     		ldrb	r5, [r5, #1]	@ zero_extendqisi2
  84 001e A555     		strb	r5, [r4, r6]
 216:Generated_Source\PSoC5/cyfitter_cfg.c **** 			j++;
  85              		.loc 1 216 0
  86 0020 0132     		adds	r2, r2, #1
  87              	.LVL7:
 217:Generated_Source\PSoC5/cyfitter_cfg.c **** 			count--;
  88              		.loc 1 217 0
  89 0022 013B     		subs	r3, r3, #1
  90              	.LVL8:
  91 0024 DBB2     		uxtb	r3, r3
  92              	.LVL9:
  93              	.L5:
 213:Generated_Source\PSoC5/cyfitter_cfg.c **** 		{
  94              		.loc 1 213 0
  95 0026 002B     		cmp	r3, #0
  96 0028 F4D1     		bne	.L6
  97              	.LBE2:
 208:Generated_Source\PSoC5/cyfitter_cfg.c **** 	{
  98              		.loc 1 208 0 discriminator 2
  99 002a 0137     		adds	r7, r7, #1
 100              	.LVL10:
 101              	.L4:
 208:Generated_Source\PSoC5/cyfitter_cfg.c **** 	{
 102              		.loc 1 208 0 is_stmt 0 discriminator 1
 103 002c 232F     		cmp	r7, #35
 104 002e EBD9     		bls	.L7
 218:Generated_Source\PSoC5/cyfitter_cfg.c **** 		}
 219:Generated_Source\PSoC5/cyfitter_cfg.c **** 	}
 220:Generated_Source\PSoC5/cyfitter_cfg.c **** }
 105              		.loc 1 220 0 is_stmt 1
 106 0030 F0BC     		pop	{r4, r5, r6, r7}
 107              		.cfi_restore 7
 108              		.cfi_restore 6
 109              		.cfi_restore 5
 110              		.cfi_restore 4
 111              		.cfi_def_cfa_offset 0
 112              	.LVL11:
 113 0032 7047     		bx	lr
 114              		.cfi_endproc
 115              	.LFE4:
 116              		.size	cfg_write_bytes32, .-cfg_write_bytes32
 117              		.section	.text.AnalogSetDefault,"ax",%progbits
 118              		.align	2
 119              		.thumb
ARM GAS  C:\Users\HPz420\AppData\Local\Temp\cczsTqzr.s 			page 7


 120              		.thumb_func
 121              		.type	AnalogSetDefault, %function
 122              	AnalogSetDefault:
 123              	.LFB6:
 221:Generated_Source\PSoC5/cyfitter_cfg.c **** 
 222:Generated_Source\PSoC5/cyfitter_cfg.c **** /*******************************************************************************
 223:Generated_Source\PSoC5/cyfitter_cfg.c **** * Function Name: ClockSetup
 224:Generated_Source\PSoC5/cyfitter_cfg.c **** ********************************************************************************
 225:Generated_Source\PSoC5/cyfitter_cfg.c **** *
 226:Generated_Source\PSoC5/cyfitter_cfg.c **** * Summary:
 227:Generated_Source\PSoC5/cyfitter_cfg.c **** *  Performs the initialization of all of the clocks in the device based on the
 228:Generated_Source\PSoC5/cyfitter_cfg.c **** *  settings in the Clock tab of the DWR.  This includes enabling the requested
 229:Generated_Source\PSoC5/cyfitter_cfg.c **** *  clocks and setting the necessary dividers to produce the desired frequency. 
 230:Generated_Source\PSoC5/cyfitter_cfg.c **** *
 231:Generated_Source\PSoC5/cyfitter_cfg.c **** * Parameters:
 232:Generated_Source\PSoC5/cyfitter_cfg.c **** *  void
 233:Generated_Source\PSoC5/cyfitter_cfg.c **** *
 234:Generated_Source\PSoC5/cyfitter_cfg.c **** * Return:
 235:Generated_Source\PSoC5/cyfitter_cfg.c **** *  void
 236:Generated_Source\PSoC5/cyfitter_cfg.c **** *
 237:Generated_Source\PSoC5/cyfitter_cfg.c **** *******************************************************************************/
 238:Generated_Source\PSoC5/cyfitter_cfg.c **** static void ClockSetup(void);
 239:Generated_Source\PSoC5/cyfitter_cfg.c **** static void ClockSetup(void)
 240:Generated_Source\PSoC5/cyfitter_cfg.c **** {
 241:Generated_Source\PSoC5/cyfitter_cfg.c **** 	uint32 timeout;
 242:Generated_Source\PSoC5/cyfitter_cfg.c **** 	uint8 pllLock;
 243:Generated_Source\PSoC5/cyfitter_cfg.c **** 
 244:Generated_Source\PSoC5/cyfitter_cfg.c **** 
 245:Generated_Source\PSoC5/cyfitter_cfg.c **** 	/* Configure Digital Clocks based on settings from Clock DWR */
 246:Generated_Source\PSoC5/cyfitter_cfg.c **** 	CY_SET_XTND_REG16((void CYFAR *)(CYREG_CLKDIST_DCFG0_CFG0), 0x0000u);
 247:Generated_Source\PSoC5/cyfitter_cfg.c **** 	CY_SET_XTND_REG8((void CYFAR *)(CYREG_CLKDIST_DCFG0_CFG0 + 0x2u), 0x58u);
 248:Generated_Source\PSoC5/cyfitter_cfg.c **** 	CY_SET_XTND_REG16((void CYFAR *)(CYREG_CLKDIST_DCFG1_CFG0), 0x0009u);
 249:Generated_Source\PSoC5/cyfitter_cfg.c **** 	CY_SET_XTND_REG8((void CYFAR *)(CYREG_CLKDIST_DCFG1_CFG0 + 0x2u), 0x18u);
 250:Generated_Source\PSoC5/cyfitter_cfg.c **** 	CY_SET_XTND_REG16((void CYFAR *)(CYREG_CLKDIST_DCFG2_CFG0), 0x0095u);
 251:Generated_Source\PSoC5/cyfitter_cfg.c **** 	CY_SET_XTND_REG8((void CYFAR *)(CYREG_CLKDIST_DCFG2_CFG0 + 0x2u), 0x18u);
 252:Generated_Source\PSoC5/cyfitter_cfg.c **** 
 253:Generated_Source\PSoC5/cyfitter_cfg.c **** 	/* Configure ILO based on settings from Clock DWR */
 254:Generated_Source\PSoC5/cyfitter_cfg.c **** 	CY_SET_XTND_REG8((void CYFAR *)(CYREG_SLOWCLK_ILO_CR0), 0x06u);
 255:Generated_Source\PSoC5/cyfitter_cfg.c **** 
 256:Generated_Source\PSoC5/cyfitter_cfg.c **** 	/* Configure IMO based on settings from Clock DWR */
 257:Generated_Source\PSoC5/cyfitter_cfg.c **** 	CY_SET_XTND_REG8((void CYFAR *)(CYREG_FASTCLK_IMO_CR), 0x52u);
 258:Generated_Source\PSoC5/cyfitter_cfg.c **** 	CY_SET_XTND_REG8((void CYFAR *)(CYREG_IMO_TR1), (CY_GET_XTND_REG8((void CYFAR *)CYREG_FLSHID_CUST_
 259:Generated_Source\PSoC5/cyfitter_cfg.c **** 
 260:Generated_Source\PSoC5/cyfitter_cfg.c **** 	/* Configure PLL based on settings from Clock DWR */
 261:Generated_Source\PSoC5/cyfitter_cfg.c **** 	CY_SET_XTND_REG16((void CYFAR *)(CYREG_FASTCLK_PLL_P), 0x0714u);
 262:Generated_Source\PSoC5/cyfitter_cfg.c **** 	CY_SET_XTND_REG16((void CYFAR *)(CYREG_FASTCLK_PLL_CFG0), 0x1251u);
 263:Generated_Source\PSoC5/cyfitter_cfg.c **** 	/* Wait up to 250us for the PLL to lock */
 264:Generated_Source\PSoC5/cyfitter_cfg.c **** 	pllLock = 0u;
 265:Generated_Source\PSoC5/cyfitter_cfg.c **** 	for (timeout = 250u / 10u; (timeout > 0u) && (pllLock != 0x03u); timeout--)
 266:Generated_Source\PSoC5/cyfitter_cfg.c **** 	{ 
 267:Generated_Source\PSoC5/cyfitter_cfg.c **** 		pllLock = 0x03u & ((uint8)((uint8)pllLock << 1) | ((CY_GET_XTND_REG8((void CYFAR *)CYREG_FASTCLK_
 268:Generated_Source\PSoC5/cyfitter_cfg.c **** 		CyDelayCycles(10u * 48u); /* Delay 10us based on 48MHz clock */
 269:Generated_Source\PSoC5/cyfitter_cfg.c **** 	}
 270:Generated_Source\PSoC5/cyfitter_cfg.c **** 	/* If we ran out of time the PLL didn't lock so go to the error function */
 271:Generated_Source\PSoC5/cyfitter_cfg.c **** 	if (timeout == 0u)
 272:Generated_Source\PSoC5/cyfitter_cfg.c **** 	{
 273:Generated_Source\PSoC5/cyfitter_cfg.c **** 		CyClockStartupError(CYCLOCKSTART_PLL_ERROR);
ARM GAS  C:\Users\HPz420\AppData\Local\Temp\cczsTqzr.s 			page 8


 274:Generated_Source\PSoC5/cyfitter_cfg.c **** 	}
 275:Generated_Source\PSoC5/cyfitter_cfg.c **** 
 276:Generated_Source\PSoC5/cyfitter_cfg.c **** 	/* Configure Bus/Master Clock based on settings from Clock DWR */
 277:Generated_Source\PSoC5/cyfitter_cfg.c **** 	CY_SET_XTND_REG16((void CYFAR *)(CYREG_CLKDIST_MSTR0), 0x0100u);
 278:Generated_Source\PSoC5/cyfitter_cfg.c **** 	CY_SET_XTND_REG8((void CYFAR *)(CYREG_CLKDIST_MSTR0), 0x07u);
 279:Generated_Source\PSoC5/cyfitter_cfg.c **** 	CY_SET_XTND_REG8((void CYFAR *)(CYREG_CLKDIST_BCFG0), 0x00u);
 280:Generated_Source\PSoC5/cyfitter_cfg.c **** 	CY_SET_XTND_REG8((void CYFAR *)(CYREG_CLKDIST_BCFG2), 0x48u);
 281:Generated_Source\PSoC5/cyfitter_cfg.c **** 	CY_SET_XTND_REG8((void CYFAR *)(CYREG_CLKDIST_MSTR0), 0x00u);
 282:Generated_Source\PSoC5/cyfitter_cfg.c **** 
 283:Generated_Source\PSoC5/cyfitter_cfg.c **** 	/* Configure USB Clock based on settings from Clock DWR */
 284:Generated_Source\PSoC5/cyfitter_cfg.c **** 	CY_SET_XTND_REG8((void CYFAR *)(CYREG_CLKDIST_UCFG), 0x00u);
 285:Generated_Source\PSoC5/cyfitter_cfg.c **** 	CY_SET_XTND_REG8((void CYFAR *)(CYREG_CLKDIST_LD), 0x02u);
 286:Generated_Source\PSoC5/cyfitter_cfg.c **** 
 287:Generated_Source\PSoC5/cyfitter_cfg.c **** 	CY_SET_XTND_REG8((void CYFAR *)(CYREG_PM_ACT_CFG2), ((CY_GET_XTND_REG8((void CYFAR *)CYREG_PM_ACT_
 288:Generated_Source\PSoC5/cyfitter_cfg.c **** }
 289:Generated_Source\PSoC5/cyfitter_cfg.c **** 
 290:Generated_Source\PSoC5/cyfitter_cfg.c **** 
 291:Generated_Source\PSoC5/cyfitter_cfg.c **** /* Analog API Functions */
 292:Generated_Source\PSoC5/cyfitter_cfg.c **** 
 293:Generated_Source\PSoC5/cyfitter_cfg.c **** 
 294:Generated_Source\PSoC5/cyfitter_cfg.c **** /*******************************************************************************
 295:Generated_Source\PSoC5/cyfitter_cfg.c **** * Function Name: AnalogSetDefault
 296:Generated_Source\PSoC5/cyfitter_cfg.c **** ********************************************************************************
 297:Generated_Source\PSoC5/cyfitter_cfg.c **** *
 298:Generated_Source\PSoC5/cyfitter_cfg.c **** * Summary:
 299:Generated_Source\PSoC5/cyfitter_cfg.c **** *  Sets up the analog portions of the chip to default values based on chip
 300:Generated_Source\PSoC5/cyfitter_cfg.c **** *  configuration options from the project.
 301:Generated_Source\PSoC5/cyfitter_cfg.c **** *
 302:Generated_Source\PSoC5/cyfitter_cfg.c **** * Parameters:
 303:Generated_Source\PSoC5/cyfitter_cfg.c **** *  void
 304:Generated_Source\PSoC5/cyfitter_cfg.c **** *
 305:Generated_Source\PSoC5/cyfitter_cfg.c **** * Return:
 306:Generated_Source\PSoC5/cyfitter_cfg.c **** *  void
 307:Generated_Source\PSoC5/cyfitter_cfg.c **** *
 308:Generated_Source\PSoC5/cyfitter_cfg.c **** *******************************************************************************/
 309:Generated_Source\PSoC5/cyfitter_cfg.c **** static void AnalogSetDefault(void);
 310:Generated_Source\PSoC5/cyfitter_cfg.c **** static void AnalogSetDefault(void)
 311:Generated_Source\PSoC5/cyfitter_cfg.c **** {
 124              		.loc 1 311 0
 125              		.cfi_startproc
 126              		@ args = 0, pretend = 0, frame = 0
 127              		@ frame_needed = 0, uses_anonymous_args = 0
 128              		@ link register save eliminated.
 312:Generated_Source\PSoC5/cyfitter_cfg.c **** 	uint8 bg_xover_inl_trim = CY_GET_XTND_REG8((void CYFAR *)(CYREG_FLSHID_MFG_CFG_BG_XOVER_INL_TRIM +
 129              		.loc 1 312 0
 130 0000 0A4B     		ldr	r3, .L10
 131 0002 1B78     		ldrb	r3, [r3]	@ zero_extendqisi2
 132 0004 DBB2     		uxtb	r3, r3
 133              	.LVL12:
 313:Generated_Source\PSoC5/cyfitter_cfg.c **** 	CY_SET_XTND_REG8((void CYFAR *)(CYREG_BG_DFT0), (bg_xover_inl_trim & 0x07u));
 134              		.loc 1 313 0
 135 0006 03F00701 		and	r1, r3, #7
 136 000a 094A     		ldr	r2, .L10+4
 137 000c 1170     		strb	r1, [r2]
 314:Generated_Source\PSoC5/cyfitter_cfg.c **** 	CY_SET_XTND_REG8((void CYFAR *)(CYREG_BG_DFT1), ((bg_xover_inl_trim >> 4) & 0x0Fu));
 138              		.loc 1 314 0
 139 000e 1B09     		lsrs	r3, r3, #4
ARM GAS  C:\Users\HPz420\AppData\Local\Temp\cczsTqzr.s 			page 9


 140              	.LVL13:
 141 0010 0132     		adds	r2, r2, #1
 142 0012 1370     		strb	r3, [r2]
 315:Generated_Source\PSoC5/cyfitter_cfg.c **** 	CY_SET_XTND_REG8((void CYFAR *)CYREG_PRT15_AG, 0x20u);
 143              		.loc 1 315 0
 144 0014 2022     		movs	r2, #32
 145 0016 074B     		ldr	r3, .L10+8
 146 0018 1A70     		strb	r2, [r3]
 316:Generated_Source\PSoC5/cyfitter_cfg.c **** 	CY_SET_XTND_REG8((void CYFAR *)CYREG_DAC0_SW0, 0x02u);
 147              		.loc 1 316 0
 148 001a 0222     		movs	r2, #2
 149 001c 03F68303 		addw	r3, r3, #2179
 150 0020 1A70     		strb	r2, [r3]
 317:Generated_Source\PSoC5/cyfitter_cfg.c **** 	CY_SET_XTND_REG8((void CYFAR *)CYREG_PUMP_CR0, 0x44u);
 151              		.loc 1 317 0
 152 0022 4422     		movs	r2, #68
 153 0024 A3F20A23 		subw	r3, r3, #522
 154 0028 1A70     		strb	r2, [r3]
 155 002a 7047     		bx	lr
 156              	.L11:
 157              		.align	2
 158              	.L10:
 159 002c CF010049 		.word	1224737231
 160 0030 6E580040 		.word	1073764462
 161 0034 FD510040 		.word	1073762813
 162              		.cfi_endproc
 163              	.LFE6:
 164              		.size	AnalogSetDefault, .-AnalogSetDefault
 165              		.section	.text.ClockSetup,"ax",%progbits
 166              		.align	2
 167              		.thumb
 168              		.thumb_func
 169              		.type	ClockSetup, %function
 170              	ClockSetup:
 171              	.LFB5:
 240:Generated_Source\PSoC5/cyfitter_cfg.c **** 	uint32 timeout;
 172              		.loc 1 240 0
 173              		.cfi_startproc
 174              		@ args = 0, pretend = 0, frame = 0
 175              		@ frame_needed = 0, uses_anonymous_args = 0
 176 0000 38B5     		push	{r3, r4, r5, lr}
 177              		.cfi_def_cfa_offset 16
 178              		.cfi_offset 3, -16
 179              		.cfi_offset 4, -12
 180              		.cfi_offset 5, -8
 181              		.cfi_offset 14, -4
 246:Generated_Source\PSoC5/cyfitter_cfg.c **** 	CY_SET_XTND_REG8((void CYFAR *)(CYREG_CLKDIST_DCFG0_CFG0 + 0x2u), 0x58u);
 182              		.loc 1 246 0
 183 0002 0024     		movs	r4, #0
 184 0004 284B     		ldr	r3, .L18
 185 0006 1C80     		strh	r4, [r3]	@ movhi
 247:Generated_Source\PSoC5/cyfitter_cfg.c **** 	CY_SET_XTND_REG16((void CYFAR *)(CYREG_CLKDIST_DCFG1_CFG0), 0x0009u);
 186              		.loc 1 247 0
 187 0008 5822     		movs	r2, #88
 188 000a 0233     		adds	r3, r3, #2
 189 000c 1A70     		strb	r2, [r3]
 248:Generated_Source\PSoC5/cyfitter_cfg.c **** 	CY_SET_XTND_REG8((void CYFAR *)(CYREG_CLKDIST_DCFG1_CFG0 + 0x2u), 0x18u);
ARM GAS  C:\Users\HPz420\AppData\Local\Temp\cczsTqzr.s 			page 10


 190              		.loc 1 248 0
 191 000e 0922     		movs	r2, #9
 192 0010 0233     		adds	r3, r3, #2
 193 0012 1A80     		strh	r2, [r3]	@ movhi
 249:Generated_Source\PSoC5/cyfitter_cfg.c **** 	CY_SET_XTND_REG16((void CYFAR *)(CYREG_CLKDIST_DCFG2_CFG0), 0x0095u);
 194              		.loc 1 249 0
 195 0014 1823     		movs	r3, #24
 196 0016 254A     		ldr	r2, .L18+4
 197 0018 1370     		strb	r3, [r2]
 250:Generated_Source\PSoC5/cyfitter_cfg.c **** 	CY_SET_XTND_REG8((void CYFAR *)(CYREG_CLKDIST_DCFG2_CFG0 + 0x2u), 0x18u);
 198              		.loc 1 250 0
 199 001a 9521     		movs	r1, #149
 200 001c 0232     		adds	r2, r2, #2
 201 001e 1180     		strh	r1, [r2]	@ movhi
 251:Generated_Source\PSoC5/cyfitter_cfg.c **** 
 202              		.loc 1 251 0
 203 0020 0232     		adds	r2, r2, #2
 204 0022 1370     		strb	r3, [r2]
 254:Generated_Source\PSoC5/cyfitter_cfg.c **** 
 205              		.loc 1 254 0
 206 0024 0622     		movs	r2, #6
 207 0026 224B     		ldr	r3, .L18+8
 208 0028 1A70     		strb	r2, [r3]
 257:Generated_Source\PSoC5/cyfitter_cfg.c **** 	CY_SET_XTND_REG8((void CYFAR *)(CYREG_IMO_TR1), (CY_GET_XTND_REG8((void CYFAR *)CYREG_FLSHID_CUST_
 209              		.loc 1 257 0
 210 002a 5222     		movs	r2, #82
 211 002c A3F58073 		sub	r3, r3, #256
 212 0030 1A70     		strb	r2, [r3]
 258:Generated_Source\PSoC5/cyfitter_cfg.c **** 
 213              		.loc 1 258 0
 214 0032 204B     		ldr	r3, .L18+12
 215 0034 1B78     		ldrb	r3, [r3]	@ zero_extendqisi2
 216 0036 DBB2     		uxtb	r3, r3
 217 0038 1F4A     		ldr	r2, .L18+16
 218 003a 1370     		strb	r3, [r2]
 261:Generated_Source\PSoC5/cyfitter_cfg.c **** 	CY_SET_XTND_REG16((void CYFAR *)(CYREG_FASTCLK_PLL_CFG0), 0x1251u);
 219              		.loc 1 261 0
 220 003c 40F21472 		movw	r2, #1812
 221 0040 1E4B     		ldr	r3, .L18+20
 222 0042 1A80     		strh	r2, [r3]	@ movhi
 262:Generated_Source\PSoC5/cyfitter_cfg.c **** 	/* Wait up to 250us for the PLL to lock */
 223              		.loc 1 262 0
 224 0044 41F25122 		movw	r2, #4689
 225 0048 023B     		subs	r3, r3, #2
 226 004a 1A80     		strh	r2, [r3]	@ movhi
 227              	.LVL14:
 265:Generated_Source\PSoC5/cyfitter_cfg.c **** 	{ 
 228              		.loc 1 265 0
 229 004c 1925     		movs	r5, #25
 230 004e 0CE0     		b	.L13
 231              	.LVL15:
 232              	.L15:
 267:Generated_Source\PSoC5/cyfitter_cfg.c **** 		CyDelayCycles(10u * 48u); /* Delay 10us based on 48MHz clock */
 233              		.loc 1 267 0 discriminator 4
 234 0050 1B4B     		ldr	r3, .L18+24
 235 0052 1B78     		ldrb	r3, [r3]	@ zero_extendqisi2
 236 0054 03F00103 		and	r3, r3, #1
ARM GAS  C:\Users\HPz420\AppData\Local\Temp\cczsTqzr.s 			page 11


 237 0058 43EA4404 		orr	r4, r3, r4, lsl #1
 238              	.LVL16:
 239 005c 04F00304 		and	r4, r4, #3
 240              	.LVL17:
 268:Generated_Source\PSoC5/cyfitter_cfg.c **** 	}
 241              		.loc 1 268 0 discriminator 4
 242 0060 4FF4F070 		mov	r0, #480
 243 0064 FFF7FEFF 		bl	CyDelayCycles
 244              	.LVL18:
 265:Generated_Source\PSoC5/cyfitter_cfg.c **** 	{ 
 245              		.loc 1 265 0 discriminator 4
 246 0068 013D     		subs	r5, r5, #1
 247              	.LVL19:
 248              	.L13:
 265:Generated_Source\PSoC5/cyfitter_cfg.c **** 	{ 
 249              		.loc 1 265 0 is_stmt 0 discriminator 1
 250 006a 0DB1     		cbz	r5, .L14
 265:Generated_Source\PSoC5/cyfitter_cfg.c **** 	{ 
 251              		.loc 1 265 0 discriminator 3
 252 006c 032C     		cmp	r4, #3
 253 006e EFD1     		bne	.L15
 254              	.L14:
 271:Generated_Source\PSoC5/cyfitter_cfg.c **** 	{
 255              		.loc 1 271 0 is_stmt 1
 256 0070 15B9     		cbnz	r5, .L16
 273:Generated_Source\PSoC5/cyfitter_cfg.c **** 	}
 257              		.loc 1 273 0
 258 0072 0320     		movs	r0, #3
 259 0074 FFF7FEFF 		bl	CyClockStartupError
 260              	.LVL20:
 261              	.L16:
 277:Generated_Source\PSoC5/cyfitter_cfg.c **** 	CY_SET_XTND_REG8((void CYFAR *)(CYREG_CLKDIST_MSTR0), 0x07u);
 262              		.loc 1 277 0
 263 0078 124A     		ldr	r2, .L18+28
 264 007a 4FF48073 		mov	r3, #256
 265 007e 1380     		strh	r3, [r2]	@ movhi
 278:Generated_Source\PSoC5/cyfitter_cfg.c **** 	CY_SET_XTND_REG8((void CYFAR *)(CYREG_CLKDIST_BCFG0), 0x00u);
 266              		.loc 1 278 0
 267 0080 0723     		movs	r3, #7
 268 0082 1370     		strb	r3, [r2]
 279:Generated_Source\PSoC5/cyfitter_cfg.c **** 	CY_SET_XTND_REG8((void CYFAR *)(CYREG_CLKDIST_BCFG2), 0x48u);
 269              		.loc 1 279 0
 270 0084 0023     		movs	r3, #0
 271 0086 1049     		ldr	r1, .L18+32
 272 0088 0B70     		strb	r3, [r1]
 280:Generated_Source\PSoC5/cyfitter_cfg.c **** 	CY_SET_XTND_REG8((void CYFAR *)(CYREG_CLKDIST_MSTR0), 0x00u);
 273              		.loc 1 280 0
 274 008a 4820     		movs	r0, #72
 275 008c 0231     		adds	r1, r1, #2
 276 008e 0870     		strb	r0, [r1]
 281:Generated_Source\PSoC5/cyfitter_cfg.c **** 
 277              		.loc 1 281 0
 278 0090 1370     		strb	r3, [r2]
 284:Generated_Source\PSoC5/cyfitter_cfg.c **** 	CY_SET_XTND_REG8((void CYFAR *)(CYREG_CLKDIST_LD), 0x02u);
 279              		.loc 1 284 0
 280 0092 0532     		adds	r2, r2, #5
 281 0094 1370     		strb	r3, [r2]
ARM GAS  C:\Users\HPz420\AppData\Local\Temp\cczsTqzr.s 			page 12


 285:Generated_Source\PSoC5/cyfitter_cfg.c **** 
 282              		.loc 1 285 0
 283 0096 0222     		movs	r2, #2
 284 0098 0C4B     		ldr	r3, .L18+36
 285 009a 1A70     		strb	r2, [r3]
 287:Generated_Source\PSoC5/cyfitter_cfg.c **** }
 286              		.loc 1 287 0
 287 009c 0C4A     		ldr	r2, .L18+40
 288 009e 1378     		ldrb	r3, [r2]	@ zero_extendqisi2
 289 00a0 43F00703 		orr	r3, r3, #7
 290 00a4 1370     		strb	r3, [r2]
 291 00a6 38BD     		pop	{r3, r4, r5, pc}
 292              	.LVL21:
 293              	.L19:
 294              		.align	2
 295              	.L18:
 296 00a8 80400040 		.word	1073758336
 297 00ac 86400040 		.word	1073758342
 298 00b0 00430040 		.word	1073758976
 299 00b4 0F010049 		.word	1224737039
 300 00b8 A1460040 		.word	1073759905
 301 00bc 22420040 		.word	1073758754
 302 00c0 25420040 		.word	1073758757
 303 00c4 04400040 		.word	1073758212
 304 00c8 06400040 		.word	1073758214
 305 00cc 01400040 		.word	1073758209
 306 00d0 A2430040 		.word	1073759138
 307              		.cfi_endproc
 308              	.LFE5:
 309              		.size	ClockSetup, .-ClockSetup
 310              		.section	.text.CYMEMZERO,"ax",%progbits
 311              		.align	2
 312              		.thumb
 313              		.thumb_func
 314              		.type	CYMEMZERO, %function
 315              	CYMEMZERO:
 316              	.LFB0:
  78:Generated_Source\PSoC5/cyfitter_cfg.c **** 	(void)memset(s, 0, n);
 317              		.loc 1 78 0
 318              		.cfi_startproc
 319              		@ args = 0, pretend = 0, frame = 0
 320              		@ frame_needed = 0, uses_anonymous_args = 0
 321              	.LVL22:
 322 0000 08B5     		push	{r3, lr}
 323              		.cfi_def_cfa_offset 8
 324              		.cfi_offset 3, -8
 325              		.cfi_offset 14, -4
  79:Generated_Source\PSoC5/cyfitter_cfg.c **** }
 326              		.loc 1 79 0
 327 0002 0A46     		mov	r2, r1
 328 0004 0021     		movs	r1, #0
 329              	.LVL23:
 330 0006 FFF7FEFF 		bl	memset
 331              	.LVL24:
 332 000a 08BD     		pop	{r3, pc}
 333              		.cfi_endproc
 334              	.LFE0:
ARM GAS  C:\Users\HPz420\AppData\Local\Temp\cczsTqzr.s 			page 13


 335              		.size	CYMEMZERO, .-CYMEMZERO
 336              		.section	.text.CYCONFIGCPY,"ax",%progbits
 337              		.align	2
 338              		.thumb
 339              		.thumb_func
 340              		.type	CYCONFIGCPY, %function
 341              	CYCONFIGCPY:
 342              	.LFB1:
  85:Generated_Source\PSoC5/cyfitter_cfg.c **** 	(void)memcpy(dest, src, n);
 343              		.loc 1 85 0
 344              		.cfi_startproc
 345              		@ args = 0, pretend = 0, frame = 0
 346              		@ frame_needed = 0, uses_anonymous_args = 0
 347              	.LVL25:
 348 0000 08B5     		push	{r3, lr}
 349              		.cfi_def_cfa_offset 8
 350              		.cfi_offset 3, -8
 351              		.cfi_offset 14, -4
  86:Generated_Source\PSoC5/cyfitter_cfg.c **** }
 352              		.loc 1 86 0
 353 0002 FFF7FEFF 		bl	memcpy
 354              	.LVL26:
 355 0006 08BD     		pop	{r3, pc}
 356              		.cfi_endproc
 357              	.LFE1:
 358              		.size	CYCONFIGCPY, .-CYCONFIGCPY
 359              		.section	.text.SetAnalogRoutingPumps,"ax",%progbits
 360              		.align	2
 361              		.global	SetAnalogRoutingPumps
 362              		.thumb
 363              		.thumb_func
 364              		.type	SetAnalogRoutingPumps, %function
 365              	SetAnalogRoutingPumps:
 366              	.LFB7:
 318:Generated_Source\PSoC5/cyfitter_cfg.c **** }
 319:Generated_Source\PSoC5/cyfitter_cfg.c **** 
 320:Generated_Source\PSoC5/cyfitter_cfg.c **** 
 321:Generated_Source\PSoC5/cyfitter_cfg.c **** /*******************************************************************************
 322:Generated_Source\PSoC5/cyfitter_cfg.c **** * Function Name: SetAnalogRoutingPumps
 323:Generated_Source\PSoC5/cyfitter_cfg.c **** ********************************************************************************
 324:Generated_Source\PSoC5/cyfitter_cfg.c **** *
 325:Generated_Source\PSoC5/cyfitter_cfg.c **** * Summary:
 326:Generated_Source\PSoC5/cyfitter_cfg.c **** * Enables or disables the analog pumps feeding analog routing switches.
 327:Generated_Source\PSoC5/cyfitter_cfg.c **** * Intended to be called at startup, based on the Vdda system configuration;
 328:Generated_Source\PSoC5/cyfitter_cfg.c **** * may be called during operation when the user informs us that the Vdda voltage
 329:Generated_Source\PSoC5/cyfitter_cfg.c **** * crossed the pump threshold.
 330:Generated_Source\PSoC5/cyfitter_cfg.c **** *
 331:Generated_Source\PSoC5/cyfitter_cfg.c **** * Parameters:
 332:Generated_Source\PSoC5/cyfitter_cfg.c **** *  enabled - 1 to enable the pumps, 0 to disable the pumps
 333:Generated_Source\PSoC5/cyfitter_cfg.c **** *
 334:Generated_Source\PSoC5/cyfitter_cfg.c **** * Return:
 335:Generated_Source\PSoC5/cyfitter_cfg.c **** *  void
 336:Generated_Source\PSoC5/cyfitter_cfg.c **** *
 337:Generated_Source\PSoC5/cyfitter_cfg.c **** *******************************************************************************/
 338:Generated_Source\PSoC5/cyfitter_cfg.c **** void SetAnalogRoutingPumps(uint8 enabled)
 339:Generated_Source\PSoC5/cyfitter_cfg.c **** {
 367              		.loc 1 339 0
ARM GAS  C:\Users\HPz420\AppData\Local\Temp\cczsTqzr.s 			page 14


 368              		.cfi_startproc
 369              		@ args = 0, pretend = 0, frame = 0
 370              		@ frame_needed = 0, uses_anonymous_args = 0
 371              		@ link register save eliminated.
 372              	.LVL27:
 340:Generated_Source\PSoC5/cyfitter_cfg.c **** 	uint8 regValue = CY_GET_XTND_REG8((void CYFAR *)CYREG_PUMP_CR0);
 373              		.loc 1 340 0
 374 0000 054B     		ldr	r3, .L27
 375 0002 1B78     		ldrb	r3, [r3]	@ zero_extendqisi2
 376 0004 DBB2     		uxtb	r3, r3
 377              	.LVL28:
 341:Generated_Source\PSoC5/cyfitter_cfg.c **** 	if (enabled != 0u)
 378              		.loc 1 341 0
 379 0006 10B1     		cbz	r0, .L25
 342:Generated_Source\PSoC5/cyfitter_cfg.c **** 	{
 343:Generated_Source\PSoC5/cyfitter_cfg.c **** 		regValue |= 0x22u;
 380              		.loc 1 343 0
 381 0008 43F02203 		orr	r3, r3, #34
 382              	.LVL29:
 383 000c 01E0     		b	.L26
 384              	.L25:
 344:Generated_Source\PSoC5/cyfitter_cfg.c **** 	}
 345:Generated_Source\PSoC5/cyfitter_cfg.c **** 	else
 346:Generated_Source\PSoC5/cyfitter_cfg.c **** 	{
 347:Generated_Source\PSoC5/cyfitter_cfg.c **** 		regValue &= (uint8)~0x22u;
 385              		.loc 1 347 0
 386 000e 03F0DD03 		and	r3, r3, #221
 387              	.LVL30:
 388              	.L26:
 348:Generated_Source\PSoC5/cyfitter_cfg.c **** 	}
 349:Generated_Source\PSoC5/cyfitter_cfg.c **** 	CY_SET_XTND_REG8((void CYFAR *)CYREG_PUMP_CR0, regValue);
 389              		.loc 1 349 0
 390 0012 014A     		ldr	r2, .L27
 391 0014 1370     		strb	r3, [r2]
 392 0016 7047     		bx	lr
 393              	.L28:
 394              		.align	2
 395              	.L27:
 396 0018 76580040 		.word	1073764470
 397              		.cfi_endproc
 398              	.LFE7:
 399              		.size	SetAnalogRoutingPumps, .-SetAnalogRoutingPumps
 400              		.section	.text.cyfitter_cfg,"ax",%progbits
 401              		.align	2
 402              		.global	cyfitter_cfg
 403              		.thumb
 404              		.thumb_func
 405              		.type	cyfitter_cfg, %function
 406              	cyfitter_cfg:
 407              	.LFB8:
 350:Generated_Source\PSoC5/cyfitter_cfg.c **** }
 351:Generated_Source\PSoC5/cyfitter_cfg.c **** 
 352:Generated_Source\PSoC5/cyfitter_cfg.c **** 
 353:Generated_Source\PSoC5/cyfitter_cfg.c **** 
 354:Generated_Source\PSoC5/cyfitter_cfg.c **** 
 355:Generated_Source\PSoC5/cyfitter_cfg.c **** /*******************************************************************************
 356:Generated_Source\PSoC5/cyfitter_cfg.c **** * Function Name: cyfitter_cfg
ARM GAS  C:\Users\HPz420\AppData\Local\Temp\cczsTqzr.s 			page 15


 357:Generated_Source\PSoC5/cyfitter_cfg.c **** ********************************************************************************
 358:Generated_Source\PSoC5/cyfitter_cfg.c **** * Summary:
 359:Generated_Source\PSoC5/cyfitter_cfg.c **** *  This function is called by the start-up code for the selected device. It
 360:Generated_Source\PSoC5/cyfitter_cfg.c **** *  performs all of the necessary device configuration based on the design
 361:Generated_Source\PSoC5/cyfitter_cfg.c **** *  settings.  This includes settings from the Design Wide Resources (DWR) such
 362:Generated_Source\PSoC5/cyfitter_cfg.c **** *  as Clocks and Pins as well as any component configuration that is necessary.
 363:Generated_Source\PSoC5/cyfitter_cfg.c **** *
 364:Generated_Source\PSoC5/cyfitter_cfg.c **** * Parameters:
 365:Generated_Source\PSoC5/cyfitter_cfg.c **** *   void
 366:Generated_Source\PSoC5/cyfitter_cfg.c **** *
 367:Generated_Source\PSoC5/cyfitter_cfg.c **** * Return:
 368:Generated_Source\PSoC5/cyfitter_cfg.c **** *   void
 369:Generated_Source\PSoC5/cyfitter_cfg.c **** *
 370:Generated_Source\PSoC5/cyfitter_cfg.c **** *******************************************************************************/
 371:Generated_Source\PSoC5/cyfitter_cfg.c **** 
 372:Generated_Source\PSoC5/cyfitter_cfg.c **** void cyfitter_cfg(void)
 373:Generated_Source\PSoC5/cyfitter_cfg.c **** {
 408              		.loc 1 373 0
 409              		.cfi_startproc
 410              		@ args = 0, pretend = 0, frame = 0
 411              		@ frame_needed = 0, uses_anonymous_args = 0
 412 0000 38B5     		push	{r3, r4, r5, lr}
 413              		.cfi_def_cfa_offset 16
 414              		.cfi_offset 3, -16
 415              		.cfi_offset 4, -12
 416              		.cfi_offset 5, -8
 417              		.cfi_offset 14, -4
 374:Generated_Source\PSoC5/cyfitter_cfg.c **** #ifdef CYGlobalIntDisable
 375:Generated_Source\PSoC5/cyfitter_cfg.c **** 	/* Disable interrupts by default. Let user enable if/when they want. */
 376:Generated_Source\PSoC5/cyfitter_cfg.c **** 	CYGlobalIntDisable
 418              		.loc 1 376 0
 419              		.syntax unified
 420              	@ 376 "Generated_Source\PSoC5\cyfitter_cfg.c" 1
 421 0002 72B6     		CPSID   i
 422              	@ 0 "" 2
 377:Generated_Source\PSoC5/cyfitter_cfg.c **** #endif
 378:Generated_Source\PSoC5/cyfitter_cfg.c **** 
 379:Generated_Source\PSoC5/cyfitter_cfg.c **** 
 380:Generated_Source\PSoC5/cyfitter_cfg.c **** 	/* Set Flash Cycles based on max possible frequency in case a glitch occurs during ClockSetup(). *
 381:Generated_Source\PSoC5/cyfitter_cfg.c **** 	CY_SET_XTND_REG8((void CYFAR *)(CYREG_CACHE_CC_CTL), (((CYDEV_INSTRUCT_CACHE_ENABLED) != 0) ? 0x61
 423              		.loc 1 381 0
 424              		.thumb
 425              		.syntax unified
 426 0004 384C     		ldr	r4, .L33
 427 0006 6123     		movs	r3, #97
 428 0008 2370     		strb	r3, [r4]
 382:Generated_Source\PSoC5/cyfitter_cfg.c **** 	/* Setup clocks based on selections from Clock DWR */
 383:Generated_Source\PSoC5/cyfitter_cfg.c **** 	ClockSetup();
 429              		.loc 1 383 0
 430 000a FFF7FEFF 		bl	ClockSetup
 431              	.LVL31:
 384:Generated_Source\PSoC5/cyfitter_cfg.c **** 	/* Set Flash Cycles based on newly configured 60.00MHz Bus Clock. */
 385:Generated_Source\PSoC5/cyfitter_cfg.c **** 	CY_SET_XTND_REG8((void CYFAR *)(CYREG_CACHE_CC_CTL), (((CYDEV_INSTRUCT_CACHE_ENABLED) != 0) ? 0x01
 432              		.loc 1 385 0
 433 000e 0123     		movs	r3, #1
 434 0010 2370     		strb	r3, [r4]
 386:Generated_Source\PSoC5/cyfitter_cfg.c **** 	/* Enable/Disable Debug functionality based on settings from System DWR */
ARM GAS  C:\Users\HPz420\AppData\Local\Temp\cczsTqzr.s 			page 16


 387:Generated_Source\PSoC5/cyfitter_cfg.c **** 	CY_SET_XTND_REG8((void CYFAR *)CYREG_MLOGIC_DEBUG, (CY_GET_XTND_REG8((void CYFAR *)CYREG_MLOGIC_DE
 435              		.loc 1 387 0
 436 0012 364A     		ldr	r2, .L33+4
 437 0014 1378     		ldrb	r3, [r2]	@ zero_extendqisi2
 438 0016 43F00403 		orr	r3, r3, #4
 439 001a 1370     		strb	r3, [r2]
 440              	.LVL32:
 441              	.LBB3:
 388:Generated_Source\PSoC5/cyfitter_cfg.c **** 
 389:Generated_Source\PSoC5/cyfitter_cfg.c **** 	{
 390:Generated_Source\PSoC5/cyfitter_cfg.c **** 
 391:Generated_Source\PSoC5/cyfitter_cfg.c **** 		CYPACKED typedef struct {
 392:Generated_Source\PSoC5/cyfitter_cfg.c **** 			void CYFAR *address;
 393:Generated_Source\PSoC5/cyfitter_cfg.c **** 			uint16 size;
 394:Generated_Source\PSoC5/cyfitter_cfg.c **** 		} CYPACKED_ATTR cfg_memset_t;
 395:Generated_Source\PSoC5/cyfitter_cfg.c **** 
 396:Generated_Source\PSoC5/cyfitter_cfg.c **** 		static const cfg_memset_t CYCODE cfg_memset_list[] = {
 397:Generated_Source\PSoC5/cyfitter_cfg.c **** 			/* address, size */
 398:Generated_Source\PSoC5/cyfitter_cfg.c **** 			{(void CYFAR *)(CYREG_I2C_XCFG), 25u},
 399:Generated_Source\PSoC5/cyfitter_cfg.c **** 			{(void CYFAR *)(CYDEV_UCFG_B0_P0_U0_BASE), 4096u},
 400:Generated_Source\PSoC5/cyfitter_cfg.c **** 			{(void CYFAR *)(CYDEV_UCFG_B1_P2_U0_BASE), 2048u},
 401:Generated_Source\PSoC5/cyfitter_cfg.c **** 			{(void CYFAR *)(CYDEV_UCFG_DSI0_BASE), 2560u},
 402:Generated_Source\PSoC5/cyfitter_cfg.c **** 			{(void CYFAR *)(CYDEV_UCFG_DSI12_BASE), 512u},
 403:Generated_Source\PSoC5/cyfitter_cfg.c **** 			{(void CYFAR *)(CYREG_BCTL0_MDCLK_EN), 32u},
 404:Generated_Source\PSoC5/cyfitter_cfg.c **** 		};
 405:Generated_Source\PSoC5/cyfitter_cfg.c **** 
 406:Generated_Source\PSoC5/cyfitter_cfg.c **** 		uint8 CYDATA i;
 407:Generated_Source\PSoC5/cyfitter_cfg.c **** 
 408:Generated_Source\PSoC5/cyfitter_cfg.c **** 		/* Zero out critical memory blocks before beginning configuration */
 409:Generated_Source\PSoC5/cyfitter_cfg.c **** 		for (i = 0u; i < (sizeof(cfg_memset_list)/sizeof(cfg_memset_list[0])); i++)
 442              		.loc 1 409 0
 443 001c 0024     		movs	r4, #0
 444 001e 0CE0     		b	.L30
 445              	.LVL33:
 446              	.L31:
 447              	.LBB4:
 410:Generated_Source\PSoC5/cyfitter_cfg.c **** 		{
 411:Generated_Source\PSoC5/cyfitter_cfg.c **** 			const cfg_memset_t CYCODE * CYDATA ms = &cfg_memset_list[i];
 412:Generated_Source\PSoC5/cyfitter_cfg.c **** 			CYMEMZERO(ms->address, (size_t)(uint32)(ms->size));
 448              		.loc 1 412 0 discriminator 3
 449 0020 334D     		ldr	r5, .L33+8
 450 0022 6300     		lsls	r3, r4, #1
 451 0024 1919     		adds	r1, r3, r4
 452 0026 4A00     		lsls	r2, r1, #1
 453 0028 1146     		mov	r1, r2
 454 002a 2A44     		add	r2, r2, r5
 455 002c 0846     		mov	r0, r1
 456 002e 9188     		ldrh	r1, [r2, #4]
 457 0030 2858     		ldr	r0, [r5, r0]	@ unaligned
 458 0032 FFF7FEFF 		bl	CYMEMZERO
 459              	.LVL34:
 460              	.LBE4:
 409:Generated_Source\PSoC5/cyfitter_cfg.c **** 		{
 461              		.loc 1 409 0 discriminator 3
 462 0036 0134     		adds	r4, r4, #1
 463              	.LVL35:
 464 0038 E4B2     		uxtb	r4, r4
ARM GAS  C:\Users\HPz420\AppData\Local\Temp\cczsTqzr.s 			page 17


 465              	.LVL36:
 466              	.L30:
 409:Generated_Source\PSoC5/cyfitter_cfg.c **** 		{
 467              		.loc 1 409 0 is_stmt 0 discriminator 1
 468 003a 052C     		cmp	r4, #5
 469 003c F0D9     		bls	.L31
 413:Generated_Source\PSoC5/cyfitter_cfg.c **** 		}
 414:Generated_Source\PSoC5/cyfitter_cfg.c **** 
 415:Generated_Source\PSoC5/cyfitter_cfg.c **** 		cfg_write_bytes32(cy_cfg_addr_table, cy_cfg_data_table);
 470              		.loc 1 415 0 is_stmt 1
 471 003e 2D49     		ldr	r1, .L33+12
 472 0040 4FF09040 		mov	r0, #1207959552
 473 0044 FFF7FEFF 		bl	cfg_write_bytes32
 474              	.LVL37:
 416:Generated_Source\PSoC5/cyfitter_cfg.c **** 
 417:Generated_Source\PSoC5/cyfitter_cfg.c **** 		/* Enable digital routing */
 418:Generated_Source\PSoC5/cyfitter_cfg.c **** 		CY_SET_XTND_REG8((void CYFAR *)CYREG_BCTL0_BANK_CTL, CY_GET_XTND_REG8((void CYFAR *)CYREG_BCTL0_B
 475              		.loc 1 418 0
 476 0048 2B4A     		ldr	r2, .L33+16
 477 004a 1378     		ldrb	r3, [r2]	@ zero_extendqisi2
 478 004c 43F00203 		orr	r3, r3, #2
 479 0050 1370     		strb	r3, [r2]
 419:Generated_Source\PSoC5/cyfitter_cfg.c **** 		CY_SET_XTND_REG8((void CYFAR *)CYREG_BCTL1_BANK_CTL, CY_GET_XTND_REG8((void CYFAR *)CYREG_BCTL1_B
 480              		.loc 1 419 0
 481 0052 1032     		adds	r2, r2, #16
 482 0054 1378     		ldrb	r3, [r2]	@ zero_extendqisi2
 483 0056 43F00203 		orr	r3, r3, #2
 484 005a 1370     		strb	r3, [r2]
 420:Generated_Source\PSoC5/cyfitter_cfg.c **** 
 421:Generated_Source\PSoC5/cyfitter_cfg.c **** 		/* Enable UDB array */
 422:Generated_Source\PSoC5/cyfitter_cfg.c **** 		CY_SET_XTND_REG8((void CYFAR *)CYREG_PM_ACT_CFG0, CY_GET_XTND_REG8((void CYFAR *)CYREG_PM_ACT_CFG
 485              		.loc 1 422 0
 486 005c 274C     		ldr	r4, .L33+20
 487              	.LVL38:
 488 005e 2378     		ldrb	r3, [r4]	@ zero_extendqisi2
 489 0060 43F04003 		orr	r3, r3, #64
 490 0064 2370     		strb	r3, [r4]
 423:Generated_Source\PSoC5/cyfitter_cfg.c **** 		CY_SET_XTND_REG8((void CYFAR *)CYREG_PM_AVAIL_CR2, CY_GET_XTND_REG8((void CYFAR *)CYREG_PM_AVAIL_
 491              		.loc 1 423 0
 492 0066 A2F58632 		sub	r2, r2, #68608
 493 006a 513A     		subs	r2, r2, #81
 494 006c 1378     		ldrb	r3, [r2]	@ zero_extendqisi2
 495 006e 43F01003 		orr	r3, r3, #16
 496 0072 1370     		strb	r3, [r2]
 497              	.LBE3:
 424:Generated_Source\PSoC5/cyfitter_cfg.c **** 	}
 425:Generated_Source\PSoC5/cyfitter_cfg.c **** 
 426:Generated_Source\PSoC5/cyfitter_cfg.c **** 
 427:Generated_Source\PSoC5/cyfitter_cfg.c **** 	/* Perform second pass device configuration. These items must be configured in specific order afte
 428:Generated_Source\PSoC5/cyfitter_cfg.c **** 	CYCONFIGCPY((void CYFAR *)(CYREG_PRT0_DM0), (const void CYFAR *)(BS_IOPINS0_0_VAL), 8u);
 498              		.loc 1 428 0
 499 0074 0822     		movs	r2, #8
 500 0076 2249     		ldr	r1, .L33+24
 501 0078 2248     		ldr	r0, .L33+28
 502 007a FFF7FEFF 		bl	CYCONFIGCPY
 503              	.LVL39:
 429:Generated_Source\PSoC5/cyfitter_cfg.c **** 	CYCONFIGCPY((void CYFAR *)(CYREG_PRT12_DR), (const void CYFAR *)(BS_IOPINS0_7_VAL), 10u);
ARM GAS  C:\Users\HPz420\AppData\Local\Temp\cczsTqzr.s 			page 18


 504              		.loc 1 429 0
 505 007e 0A22     		movs	r2, #10
 506 0080 2149     		ldr	r1, .L33+32
 507 0082 2248     		ldr	r0, .L33+36
 508 0084 FFF7FEFF 		bl	CYCONFIGCPY
 509              	.LVL40:
 430:Generated_Source\PSoC5/cyfitter_cfg.c **** 	CYCONFIGCPY((void CYFAR *)(CYREG_PRT15_DR), (const void CYFAR *)(BS_IOPINS0_8_VAL), 10u);
 510              		.loc 1 430 0
 511 0088 0A22     		movs	r2, #10
 512 008a 2149     		ldr	r1, .L33+40
 513 008c 2148     		ldr	r0, .L33+44
 514 008e FFF7FEFF 		bl	CYCONFIGCPY
 515              	.LVL41:
 431:Generated_Source\PSoC5/cyfitter_cfg.c **** 	CYCONFIGCPY((void CYFAR *)(CYREG_PRT1_DM0), (const void CYFAR *)(BS_IOPINS0_1_VAL), 8u);
 516              		.loc 1 431 0
 517 0092 0822     		movs	r2, #8
 518 0094 2049     		ldr	r1, .L33+48
 519 0096 2148     		ldr	r0, .L33+52
 520 0098 FFF7FEFF 		bl	CYCONFIGCPY
 521              	.LVL42:
 432:Generated_Source\PSoC5/cyfitter_cfg.c **** 	CYCONFIGCPY((void CYFAR *)(CYREG_PRT2_DM0), (const void CYFAR *)(BS_IOPINS0_2_VAL), 8u);
 522              		.loc 1 432 0
 523 009c 0822     		movs	r2, #8
 524 009e 2049     		ldr	r1, .L33+56
 525 00a0 2048     		ldr	r0, .L33+60
 526 00a2 FFF7FEFF 		bl	CYCONFIGCPY
 527              	.LVL43:
 433:Generated_Source\PSoC5/cyfitter_cfg.c **** 	CYCONFIGCPY((void CYFAR *)(CYREG_PRT3_DR), (const void CYFAR *)(BS_IOPINS0_3_VAL), 10u);
 528              		.loc 1 433 0
 529 00a6 0A22     		movs	r2, #10
 530 00a8 1F49     		ldr	r1, .L33+64
 531 00aa 2048     		ldr	r0, .L33+68
 532 00ac FFF7FEFF 		bl	CYCONFIGCPY
 533              	.LVL44:
 434:Generated_Source\PSoC5/cyfitter_cfg.c **** 	CYCONFIGCPY((void CYFAR *)(CYREG_PRT4_DM0), (const void CYFAR *)(BS_IOPINS0_4_VAL), 8u);
 534              		.loc 1 434 0
 535 00b0 0822     		movs	r2, #8
 536 00b2 1F49     		ldr	r1, .L33+72
 537 00b4 1F48     		ldr	r0, .L33+76
 538 00b6 FFF7FEFF 		bl	CYCONFIGCPY
 539              	.LVL45:
 435:Generated_Source\PSoC5/cyfitter_cfg.c **** 	CYCONFIGCPY((void CYFAR *)(CYREG_PRT5_DR), (const void CYFAR *)(BS_IOPINS0_5_VAL), 10u);
 540              		.loc 1 435 0
 541 00ba 0A22     		movs	r2, #10
 542 00bc 1E49     		ldr	r1, .L33+80
 543 00be 1F48     		ldr	r0, .L33+84
 544 00c0 FFF7FEFF 		bl	CYCONFIGCPY
 545              	.LVL46:
 436:Generated_Source\PSoC5/cyfitter_cfg.c **** 	CYCONFIGCPY((void CYFAR *)(CYREG_PRT6_DR), (const void CYFAR *)(BS_IOPINS0_6_VAL), 10u);
 546              		.loc 1 436 0
 547 00c4 0A22     		movs	r2, #10
 548 00c6 1E49     		ldr	r1, .L33+88
 549 00c8 1E48     		ldr	r0, .L33+92
 550 00ca FFF7FEFF 		bl	CYCONFIGCPY
 551              	.LVL47:
 437:Generated_Source\PSoC5/cyfitter_cfg.c **** 	/* Switch Boost to the precision bandgap reference from its internal reference */
 438:Generated_Source\PSoC5/cyfitter_cfg.c **** 	CY_SET_REG8((void CYXDATA *)CYREG_BOOST_CR2, (CY_GET_REG8((void CYXDATA *)CYREG_BOOST_CR2) | 0x08u
ARM GAS  C:\Users\HPz420\AppData\Local\Temp\cczsTqzr.s 			page 19


 552              		.loc 1 438 0
 553 00ce 1E4A     		ldr	r2, .L33+96
 554 00d0 1378     		ldrb	r3, [r2]	@ zero_extendqisi2
 555 00d2 43F00803 		orr	r3, r3, #8
 556 00d6 1370     		strb	r3, [r2]
 439:Generated_Source\PSoC5/cyfitter_cfg.c **** 
 440:Generated_Source\PSoC5/cyfitter_cfg.c **** 	/* Perform basic analog initialization to defaults */
 441:Generated_Source\PSoC5/cyfitter_cfg.c **** 	AnalogSetDefault();
 557              		.loc 1 441 0
 558 00d8 FFF7FEFF 		bl	AnalogSetDefault
 559              	.LVL48:
 442:Generated_Source\PSoC5/cyfitter_cfg.c **** 
 443:Generated_Source\PSoC5/cyfitter_cfg.c **** 	/* Configure alternate active mode */
 444:Generated_Source\PSoC5/cyfitter_cfg.c **** 	CYCONFIGCPY((void CYFAR *)CYDEV_PM_STBY_BASE, (const void CYFAR *)CYDEV_PM_ACT_BASE, 14u);
 560              		.loc 1 444 0
 561 00dc 0E22     		movs	r2, #14
 562 00de 2146     		mov	r1, r4
 563 00e0 1A48     		ldr	r0, .L33+100
 564 00e2 FFF7FEFF 		bl	CYCONFIGCPY
 565              	.LVL49:
 566 00e6 38BD     		pop	{r3, r4, r5, pc}
 567              	.L34:
 568              		.align	2
 569              	.L33:
 570 00e8 00480040 		.word	1073760256
 571 00ec E8460040 		.word	1073759976
 572 00f0 00000000 		.word	.LANCHOR0
 573 00f4 90000048 		.word	1207959696
 574 00f8 03500140 		.word	1073827843
 575 00fc A0430040 		.word	1073759136
 576 0100 B0070048 		.word	1207961520
 577 0104 02510040 		.word	1073762562
 578 0108 B8070048 		.word	1207961528
 579 010c C0510040 		.word	1073762752
 580 0110 C4070048 		.word	1207961540
 581 0114 F0510040 		.word	1073762800
 582 0118 D0070048 		.word	1207961552
 583 011c 12510040 		.word	1073762578
 584 0120 D8070048 		.word	1207961560
 585 0124 22510040 		.word	1073762594
 586 0128 E0070048 		.word	1207961568
 587 012c 30510040 		.word	1073762608
 588 0130 EC070048 		.word	1207961580
 589 0134 42510040 		.word	1073762626
 590 0138 F4070048 		.word	1207961588
 591 013c 50510040 		.word	1073762640
 592 0140 00080048 		.word	1207961600
 593 0144 60510040 		.word	1073762656
 594 0148 22430040 		.word	1073759010
 595 014c B0430040 		.word	1073759152
 596              		.cfi_endproc
 597              	.LFE8:
 598              		.size	cyfitter_cfg, .-cyfitter_cfg
 599              		.section	.rodata
 600              		.align	2
 601              		.set	.LANCHOR0,. + 0
 602              		.type	cfg_memset_list.5013, %object
ARM GAS  C:\Users\HPz420\AppData\Local\Temp\cczsTqzr.s 			page 20


 603              		.size	cfg_memset_list.5013, 36
 604              	cfg_memset_list.5013:
 605 0000 C8490040 		.word	1073760712
 606 0004 1900     		.short	25
 607 0006 00000140 		.4byte	1073807360
 608 000a 0010     		.short	4096
 609 000c 00140140 		.word	1073812480
 610 0010 0008     		.short	2048
 611 0012 00400140 		.4byte	1073823744
 612 0016 000A     		.short	2560
 613 0018 004C0140 		.word	1073826816
 614 001c 0002     		.short	512
 615 001e 00500140 		.4byte	1073827840
 616 0022 2000     		.short	32
 617              		.text
 618              	.Letext0:
 619              		.file 2 "c:\\program files (x86)\\cypress\\psoc creator\\4.2\\psoc creator\\import\\gnu\\arm\\5.4.
 620              		.file 3 "Generated_Source\\PSoC5\\cytypes.h"
 621              		.file 4 "Generated_Source\\PSoC5\\CyLib.h"