ARM GAS  C:\Users\HPz420\AppData\Local\Temp\ccfpX2du.s 			page 1


   1              		.syntax unified
   2              		.cpu cortex-m3
   3              		.fpu softvfp
   4              		.eabi_attribute 20, 1
   5              		.eabi_attribute 21, 1
   6              		.eabi_attribute 23, 3
   7              		.eabi_attribute 24, 1
   8              		.eabi_attribute 25, 1
   9              		.eabi_attribute 26, 1
  10              		.eabi_attribute 30, 1
  11              		.eabi_attribute 34, 1
  12              		.eabi_attribute 18, 4
  13              		.thumb
  14              		.syntax unified
  15              		.file	"ExtSRAM.c"
  16              		.text
  17              	.Ltext0:
  18              		.cfi_sections	.debug_frame
  19              		.section	.text.SetExtSRAMAddr,"ax",%progbits
  20              		.align	2
  21              		.global	SetExtSRAMAddr
  22              		.thumb
  23              		.thumb_func
  24              		.type	SetExtSRAMAddr, %function
  25              	SetExtSRAMAddr:
  26              	.LFB63:
  27              		.file 1 "ExtSRAM.c"
   1:ExtSRAM.c     **** /* ========================================
   2:ExtSRAM.c     ****  *
   3:ExtSRAM.c     ****  * Copyright LAND BOARDS, LLC, 2019
   4:ExtSRAM.c     ****  * All Rights Reserved
   5:ExtSRAM.c     ****  * UNPUBLISHED, LICENSED SOFTWARE.
   6:ExtSRAM.c     ****  *
   7:ExtSRAM.c     ****  * CONFIDENTIAL AND PROPRIETARY INFORMATION
   8:ExtSRAM.c     ****  * WHICH IS THE PROPERTY OF LAND BOARDS, LLC.
   9:ExtSRAM.c     ****  *
  10:ExtSRAM.c     ****  * ========================================
  11:ExtSRAM.c     **** */
  12:ExtSRAM.c     **** 
  13:ExtSRAM.c     **** ////////////////////////////////////////////////////////////////////////////
  14:ExtSRAM.c     **** // External SRAM is controlled by ExtSRAMCtl register
  15:ExtSRAM.c     **** //  d0 = SRAM_R1_W0
  16:ExtSRAM.c     **** //  d1 = DRV_RAM
  17:ExtSRAM.c     **** //      0 = Don't drive the SRAM address/controls
  18:ExtSRAM.c     **** //      1 = Drive the SRAM address/controls
  19:ExtSRAM.c     **** //  d2 = SRAMCSn
  20:ExtSRAM.c     **** //      0 = Chip Select enabled
  21:ExtSRAM.c     **** //      1 = Chip Select disabled (default at power up)
  22:ExtSRAM.c     **** //  d3 = CPU_RESETn
  23:ExtSRAM.c     **** //      0 = Reset the Z80 (default at power up)
  24:ExtSRAM.c     **** //      1 = Remove reset from the Z80
  25:ExtSRAM.c     **** ////////////////////////////////////////////////////////////////////////////
  26:ExtSRAM.c     **** 
  27:ExtSRAM.c     **** #include <project.h>
  28:ExtSRAM.c     **** #include "ExtSRAMCtl.h"
  29:ExtSRAM.c     **** #include "AdrLowOut.h"
  30:ExtSRAM.c     **** #include "AdrMidOut.h"
ARM GAS  C:\Users\HPz420\AppData\Local\Temp\ccfpX2du.s 			page 2


  31:ExtSRAM.c     **** #include "AdrHighOut.h"
  32:ExtSRAM.c     **** #include "Z80_Data_In.h"
  33:ExtSRAM.c     **** #include "Z80_Data_Out.h"
  34:ExtSRAM.c     **** #include "ExtSRAM.h"
  35:ExtSRAM.c     **** 
  36:ExtSRAM.c     **** #define SRAMRW_MASK     0x01
  37:ExtSRAM.c     **** #define SRAM_WRITE      0x00
  38:ExtSRAM.c     **** #define SRAM_READ       0x01
  39:ExtSRAM.c     **** #define DRVRAM_MASK     0x02
  40:ExtSRAM.c     **** #define DRV_RAM_NO      0x00
  41:ExtSRAM.c     **** #define DRV_RAM_YES     0x02
  42:ExtSRAM.c     **** #define SRAMCS_MASK     0x04
  43:ExtSRAM.c     **** #define SRAM_ACT        0x00
  44:ExtSRAM.c     **** #define SRAM_UNACT      0x04
  45:ExtSRAM.c     **** #define CPU_RST_MASK    0x08
  46:ExtSRAM.c     **** #define CPU_RST_ON      0x00
  47:ExtSRAM.c     **** #define CPU_RST_OFF     0x08
  48:ExtSRAM.c     **** 
  49:ExtSRAM.c     **** #define DRVRAM_BIT      0x01    // 1 = Drive SRAM bus from PSoC
  50:ExtSRAM.c     **** #define SRAMCS_BIT      0x02    // 1 = Drive SRAMCS
  51:ExtSRAM.c     **** #define SRAMRD_BIT      0x04    // 1 = SRAM read
  52:ExtSRAM.c     **** #define SRAMWR_BIT      0x08    // 1 = SRAM write
  53:ExtSRAM.c     **** #define CPURESET_BIT    0x10    // 1 = Z80 held in reset
  54:ExtSRAM.c     **** 
  55:ExtSRAM.c     **** ////////////////////////////////////////////////////////////////////////////
  56:ExtSRAM.c     **** // SetExtSRAMAddr(addr) - Set the address registers for the SRAM
  57:ExtSRAM.c     **** 
  58:ExtSRAM.c     **** void SetExtSRAMAddr(uint32 addr)
  59:ExtSRAM.c     **** {
  28              		.loc 1 59 0
  29              		.cfi_startproc
  30              		@ args = 0, pretend = 0, frame = 0
  31              		@ frame_needed = 0, uses_anonymous_args = 0
  32              		@ link register save eliminated.
  33              	.LVL0:
  60:ExtSRAM.c     ****     AdrLowOut_Control = addr & 0xff;        // bottom 8-bits of the address A0..A7
  34              		.loc 1 60 0
  35 0000 C2B2     		uxtb	r2, r0
  36 0002 054B     		ldr	r3, .L2
  37 0004 1A70     		strb	r2, [r3]
  61:ExtSRAM.c     ****     AdrMidOut_Control = (addr>>8) & 0x7;
  38              		.loc 1 61 0
  39 0006 C0F30222 		ubfx	r2, r0, #8, #3
  40 000a 0A33     		adds	r3, r3, #10
  41 000c 1A70     		strb	r2, [r3]
  62:ExtSRAM.c     ****     AdrHighOut_Control = (addr>>11) & 0xFF;
  42              		.loc 1 62 0
  43 000e C0F3C720 		ubfx	r0, r0, #11, #8
  44              	.LVL1:
  45 0012 0133     		adds	r3, r3, #1
  46 0014 1870     		strb	r0, [r3]
  47 0016 7047     		bx	lr
  48              	.L3:
  49              		.align	2
  50              	.L2:
  51 0018 72640040 		.word	1073767538
  52              		.cfi_endproc
ARM GAS  C:\Users\HPz420\AppData\Local\Temp\ccfpX2du.s 			page 3


  53              	.LFE63:
  54              		.size	SetExtSRAMAddr, .-SetExtSRAMAddr
  55              		.section	.text.ReadExtSRAM,"ax",%progbits
  56              		.align	2
  57              		.global	ReadExtSRAM
  58              		.thumb
  59              		.thumb_func
  60              		.type	ReadExtSRAM, %function
  61              	ReadExtSRAM:
  62              	.LFB64:
  63:ExtSRAM.c     **** }
  64:ExtSRAM.c     **** 
  65:ExtSRAM.c     **** ////////////////////////////////////////////////////////////////////////////
  66:ExtSRAM.c     **** // ReadExtSRAM(addr) - Read the external SRAM at address = addr
  67:ExtSRAM.c     **** //  Z80 is held in CPU_RESET during this action
  68:ExtSRAM.c     **** 
  69:ExtSRAM.c     **** uint8 ReadExtSRAM(uint32 addr)
  70:ExtSRAM.c     **** {
  63              		.loc 1 70 0
  64              		.cfi_startproc
  65              		@ args = 0, pretend = 0, frame = 0
  66              		@ frame_needed = 0, uses_anonymous_args = 0
  67              	.LVL2:
  68 0000 08B5     		push	{r3, lr}
  69              		.cfi_def_cfa_offset 8
  70              		.cfi_offset 3, -8
  71              		.cfi_offset 14, -4
  71:ExtSRAM.c     ****     uint8 rdVal;
  72:ExtSRAM.c     ****     SetExtSRAMAddr(addr);
  72              		.loc 1 72 0
  73 0002 FFF7FEFF 		bl	SetExtSRAMAddr
  74              	.LVL3:
  73:ExtSRAM.c     ****     ExtSRAMCtl_Control = (CPURESET_BIT | DRVRAM_BIT | SRAMRD_BIT);               // Set R/W* to Rea
  75              		.loc 1 73 0
  76 0006 054B     		ldr	r3, .L6
  77 0008 1522     		movs	r2, #21
  78 000a 1A70     		strb	r2, [r3]
  74:ExtSRAM.c     ****     ExtSRAMCtl_Control = (CPURESET_BIT | DRVRAM_BIT | SRAMRD_BIT | SRAMCS_BIT);  // Assert SRAMCS
  79              		.loc 1 74 0
  80 000c 1722     		movs	r2, #23
  81 000e 1A70     		strb	r2, [r3]
  75:ExtSRAM.c     ****     rdVal = Z80_Data_Out_Status;
  82              		.loc 1 75 0
  83 0010 034A     		ldr	r2, .L6+4
  84 0012 1078     		ldrb	r0, [r2]	@ zero_extendqisi2
  85              	.LVL4:
  76:ExtSRAM.c     ****     ExtSRAMCtl_Control = (CPURESET_BIT | DRVRAM_BIT);                            // Remove SRAMCS
  86              		.loc 1 76 0
  87 0014 1122     		movs	r2, #17
  88 0016 1A70     		strb	r2, [r3]
  77:ExtSRAM.c     ****     return(rdVal);
  78:ExtSRAM.c     **** }
  89              		.loc 1 78 0
  90 0018 08BD     		pop	{r3, pc}
  91              	.L7:
  92 001a 00BF     		.align	2
  93              	.L6:
ARM GAS  C:\Users\HPz420\AppData\Local\Temp\ccfpX2du.s 			page 4


  94 001c 76650040 		.word	1073767798
  95 0020 60640040 		.word	1073767520
  96              		.cfi_endproc
  97              	.LFE64:
  98              		.size	ReadExtSRAM, .-ReadExtSRAM
  99              		.section	.text.WriteExtSRAM,"ax",%progbits
 100              		.align	2
 101              		.global	WriteExtSRAM
 102              		.thumb
 103              		.thumb_func
 104              		.type	WriteExtSRAM, %function
 105              	WriteExtSRAM:
 106              	.LFB65:
  79:ExtSRAM.c     **** 
  80:ExtSRAM.c     **** ////////////////////////////////////////////////////////////////////////////
  81:ExtSRAM.c     **** // WriteExtSRAM(addr,data) - Write to the external SRAM at address = addr
  82:ExtSRAM.c     **** //  Z80 is held in CPU_RESET during this action
  83:ExtSRAM.c     **** 
  84:ExtSRAM.c     **** void WriteExtSRAM(uint32 addr, uint8 data)
  85:ExtSRAM.c     **** {
 107              		.loc 1 85 0
 108              		.cfi_startproc
 109              		@ args = 0, pretend = 0, frame = 0
 110              		@ frame_needed = 0, uses_anonymous_args = 0
 111              	.LVL5:
 112 0000 10B5     		push	{r4, lr}
 113              		.cfi_def_cfa_offset 8
 114              		.cfi_offset 4, -8
 115              		.cfi_offset 14, -4
 116 0002 0C46     		mov	r4, r1
  86:ExtSRAM.c     ****     SetExtSRAMAddr(addr);
 117              		.loc 1 86 0
 118 0004 FFF7FEFF 		bl	SetExtSRAMAddr
 119              	.LVL6:
  87:ExtSRAM.c     ****     ExtSRAMCtl_Control = (CPURESET_BIT | DRVRAM_BIT | SRAMWR_BIT);               // Set R/W* to Wri
 120              		.loc 1 87 0
 121 0008 044B     		ldr	r3, .L10
 122 000a 1922     		movs	r2, #25
 123 000c 1A70     		strb	r2, [r3]
  88:ExtSRAM.c     ****     Z80_Data_In_Control = data;                                                // Provide value to 
 124              		.loc 1 88 0
 125 000e 044A     		ldr	r2, .L10+4
 126 0010 1470     		strb	r4, [r2]
  89:ExtSRAM.c     ****     ExtSRAMCtl_Control = (CPURESET_BIT | DRVRAM_BIT | SRAMWR_BIT | SRAMCS_BIT);  // Assert SRAMCSn
 127              		.loc 1 89 0
 128 0012 1B22     		movs	r2, #27
 129 0014 1A70     		strb	r2, [r3]
  90:ExtSRAM.c     ****     ExtSRAMCtl_Control = (CPURESET_BIT | DRVRAM_BIT);                            // De-assert SRAMC
 130              		.loc 1 90 0
 131 0016 1122     		movs	r2, #17
 132 0018 1A70     		strb	r2, [r3]
 133 001a 10BD     		pop	{r4, pc}
 134              	.L11:
 135              		.align	2
 136              	.L10:
 137 001c 76650040 		.word	1073767798
 138 0020 77650040 		.word	1073767799
ARM GAS  C:\Users\HPz420\AppData\Local\Temp\ccfpX2du.s 			page 5


 139              		.cfi_endproc
 140              	.LFE65:
 141              		.size	WriteExtSRAM, .-WriteExtSRAM
 142              		.section	.text.TestSRAM,"ax",%progbits
 143              		.align	2
 144              		.global	TestSRAM
 145              		.thumb
 146              		.thumb_func
 147              		.type	TestSRAM, %function
 148              	TestSRAM:
 149              	.LFB66:
  91:ExtSRAM.c     **** }
  92:ExtSRAM.c     **** 
  93:ExtSRAM.c     **** ////////////////////////////////////////////////////////////////////////////
  94:ExtSRAM.c     **** // TestSRAM() - Test the 512KB External SRAM
  95:ExtSRAM.c     **** //  Z80 is held in CPU_RESET during this action
  96:ExtSRAM.c     **** // Returns 
  97:ExtSRAM.c     **** //  0 if POST passed
  98:ExtSRAM.c     **** //  1 if POST Failed single location test
  99:ExtSRAM.c     **** //  2 if POST failed test of first 256 locations
 100:ExtSRAM.c     **** //  3 if POST failed address ramp test
 101:ExtSRAM.c     **** 
 102:ExtSRAM.c     **** #define POST_PASSED                         0
 103:ExtSRAM.c     **** #define POST_FAILED_SINGLE_LOCATION_TEST    1
 104:ExtSRAM.c     **** #define POST_FAILED_ADDRESS_RAMP            2
 105:ExtSRAM.c     **** #define POST_FAILED_TEST_ALL_RAM            3
 106:ExtSRAM.c     **** 
 107:ExtSRAM.c     **** uint32 TestSRAM(void)
 108:ExtSRAM.c     **** {
 150              		.loc 1 108 0
 151              		.cfi_startproc
 152              		@ args = 0, pretend = 0, frame = 0
 153              		@ frame_needed = 0, uses_anonymous_args = 0
 154 0000 38B5     		push	{r3, r4, r5, lr}
 155              		.cfi_def_cfa_offset 16
 156              		.cfi_offset 3, -16
 157              		.cfi_offset 4, -12
 158              		.cfi_offset 5, -8
 159              		.cfi_offset 14, -4
 109:ExtSRAM.c     ****     uint32 sramAddr;
 110:ExtSRAM.c     ****     uint8 sramData;
 111:ExtSRAM.c     ****     uint8 sramReadData;
 112:ExtSRAM.c     ****     ExtSRAMCtl_Control = (CPURESET_BIT | DRVRAM_BIT);              // Z80 in reset, SRAM deselected
 160              		.loc 1 112 0
 161 0002 1122     		movs	r2, #17
 162 0004 254B     		ldr	r3, .L26
 163 0006 1A70     		strb	r2, [r3]
 113:ExtSRAM.c     ****     // Do a single write/read of the first location as a quick test
 114:ExtSRAM.c     ****     WriteExtSRAM(0x0,0x55);             // Write 0x55 to the SRAM
 164              		.loc 1 114 0
 165 0008 5521     		movs	r1, #85
 166 000a 0020     		movs	r0, #0
 167 000c FFF7FEFF 		bl	WriteExtSRAM
 168              	.LVL7:
 115:ExtSRAM.c     ****     if (ReadExtSRAM(0x0) != 0x55)       // Read the SRAM
 169              		.loc 1 115 0
 170 0010 0020     		movs	r0, #0
ARM GAS  C:\Users\HPz420\AppData\Local\Temp\ccfpX2du.s 			page 6


 171 0012 FFF7FEFF 		bl	ReadExtSRAM
 172              	.LVL8:
 173 0016 5528     		cmp	r0, #85
 174 0018 3AD1     		bne	.L22
 175 001a 0124     		movs	r4, #1
 176 001c 2546     		mov	r5, r4
 177 001e 06E0     		b	.L14
 178              	.LVL9:
 179              	.L15:
 116:ExtSRAM.c     ****         return(POST_FAILED_SINGLE_LOCATION_TEST);   // Post failed
 117:ExtSRAM.c     ****     // Write/read a data ramp to exercise address lines (step in address bits)
 118:ExtSRAM.c     ****     sramData = 1;
 119:ExtSRAM.c     ****     for (sramAddr = 1; sramAddr < 0x80000; sramAddr <<= 1)
 120:ExtSRAM.c     ****     {
 121:ExtSRAM.c     ****         WriteExtSRAM(sramAddr,sramData);
 180              		.loc 1 121 0 discriminator 3
 181 0020 2146     		mov	r1, r4
 182 0022 2846     		mov	r0, r5
 183 0024 FFF7FEFF 		bl	WriteExtSRAM
 184              	.LVL10:
 122:ExtSRAM.c     ****         sramData++;
 185              		.loc 1 122 0 discriminator 3
 186 0028 0134     		adds	r4, r4, #1
 187              	.LVL11:
 188 002a E4B2     		uxtb	r4, r4
 189              	.LVL12:
 119:ExtSRAM.c     ****     {
 190              		.loc 1 119 0 discriminator 3
 191 002c 6D00     		lsls	r5, r5, #1
 192              	.LVL13:
 193              	.L14:
 119:ExtSRAM.c     ****     {
 194              		.loc 1 119 0 is_stmt 0 discriminator 1
 195 002e B5F5002F 		cmp	r5, #524288
 196 0032 F5D3     		bcc	.L15
 197 0034 0124     		movs	r4, #1
 198              	.LVL14:
 199 0036 2546     		mov	r5, r4
 200              	.LVL15:
 201 0038 07E0     		b	.L16
 202              	.LVL16:
 203              	.L17:
 123:ExtSRAM.c     ****     }
 124:ExtSRAM.c     ****     // Bounce a one across the address lines to test all 512KB
 125:ExtSRAM.c     ****     sramData = 1;
 126:ExtSRAM.c     ****     for (sramAddr = 1; sramAddr < 0x80000; sramAddr <<= 1)
 127:ExtSRAM.c     ****     {
 128:ExtSRAM.c     ****         sramReadData = ReadExtSRAM(sramAddr);
 204              		.loc 1 128 0 is_stmt 1
 205 003a 2846     		mov	r0, r5
 206 003c FFF7FEFF 		bl	ReadExtSRAM
 207              	.LVL17:
 129:ExtSRAM.c     ****         if (sramReadData != sramData)
 208              		.loc 1 129 0
 209 0040 8442     		cmp	r4, r0
 210 0042 27D1     		bne	.L23
 130:ExtSRAM.c     ****             return(POST_FAILED_ADDRESS_RAMP);
ARM GAS  C:\Users\HPz420\AppData\Local\Temp\ccfpX2du.s 			page 7


 131:ExtSRAM.c     ****         sramData++;
 211              		.loc 1 131 0 discriminator 2
 212 0044 0134     		adds	r4, r4, #1
 213              	.LVL18:
 214 0046 E4B2     		uxtb	r4, r4
 215              	.LVL19:
 126:ExtSRAM.c     ****     {
 216              		.loc 1 126 0 discriminator 2
 217 0048 6D00     		lsls	r5, r5, #1
 218              	.LVL20:
 219              	.L16:
 126:ExtSRAM.c     ****     {
 220              		.loc 1 126 0 is_stmt 0 discriminator 1
 221 004a B5F5002F 		cmp	r5, #524288
 222 004e F4D3     		bcc	.L17
 223 0050 0024     		movs	r4, #0
 224              	.LVL21:
 225 0052 2546     		mov	r5, r4
 226              	.LVL22:
 227 0054 06E0     		b	.L18
 228              	.LVL23:
 229              	.L19:
 132:ExtSRAM.c     ****     }
 133:ExtSRAM.c     ****     // Fill all of the SRAM with data = bottom of 8 bits of address
 134:ExtSRAM.c     ****     sramData = 0;
 135:ExtSRAM.c     ****     for (sramAddr = 0; sramAddr < 0x80000; sramAddr++)
 136:ExtSRAM.c     ****     {
 137:ExtSRAM.c     ****         WriteExtSRAM(sramAddr,sramData);
 230              		.loc 1 137 0 is_stmt 1 discriminator 3
 231 0056 2146     		mov	r1, r4
 232 0058 2846     		mov	r0, r5
 233 005a FFF7FEFF 		bl	WriteExtSRAM
 234              	.LVL24:
 138:ExtSRAM.c     ****         sramData++;
 235              		.loc 1 138 0 discriminator 3
 236 005e 0134     		adds	r4, r4, #1
 237              	.LVL25:
 238 0060 E4B2     		uxtb	r4, r4
 239              	.LVL26:
 135:ExtSRAM.c     ****     {
 240              		.loc 1 135 0 discriminator 3
 241 0062 0135     		adds	r5, r5, #1
 242              	.LVL27:
 243              	.L18:
 135:ExtSRAM.c     ****     {
 244              		.loc 1 135 0 is_stmt 0 discriminator 1
 245 0064 B5F5002F 		cmp	r5, #524288
 246 0068 F5D3     		bcc	.L19
 247 006a 0024     		movs	r4, #0
 248              	.LVL28:
 249 006c 2546     		mov	r5, r4
 250              	.LVL29:
 251 006e 07E0     		b	.L20
 252              	.LVL30:
 253              	.L21:
 139:ExtSRAM.c     ****     }
 140:ExtSRAM.c     ****     // Verify the SRAM has data=address
ARM GAS  C:\Users\HPz420\AppData\Local\Temp\ccfpX2du.s 			page 8


 141:ExtSRAM.c     ****     sramData = 0;
 142:ExtSRAM.c     ****     for (sramAddr = 0; sramAddr < 0x80000; sramAddr++)
 143:ExtSRAM.c     ****     {
 144:ExtSRAM.c     ****         sramReadData = ReadExtSRAM(sramAddr);
 254              		.loc 1 144 0 is_stmt 1
 255 0070 2846     		mov	r0, r5
 256 0072 FFF7FEFF 		bl	ReadExtSRAM
 257              	.LVL31:
 145:ExtSRAM.c     ****         if (sramReadData != sramData)
 258              		.loc 1 145 0
 259 0076 8442     		cmp	r4, r0
 260 0078 0ED1     		bne	.L24
 146:ExtSRAM.c     ****             return(POST_FAILED_TEST_ALL_RAM);
 147:ExtSRAM.c     ****         sramData++;
 261              		.loc 1 147 0 discriminator 2
 262 007a 0134     		adds	r4, r4, #1
 263              	.LVL32:
 264 007c E4B2     		uxtb	r4, r4
 265              	.LVL33:
 142:ExtSRAM.c     ****     {
 266              		.loc 1 142 0 discriminator 2
 267 007e 0135     		adds	r5, r5, #1
 268              	.LVL34:
 269              	.L20:
 142:ExtSRAM.c     ****     {
 270              		.loc 1 142 0 is_stmt 0 discriminator 1
 271 0080 B5F5002F 		cmp	r5, #524288
 272 0084 F4D3     		bcc	.L21
 148:ExtSRAM.c     ****     }
 149:ExtSRAM.c     ****     ExtSRAMCtl_Control = (CPURESET_BIT);              // Leave Z80 in reset
 273              		.loc 1 149 0 is_stmt 1
 274 0086 1022     		movs	r2, #16
 275 0088 044B     		ldr	r3, .L26
 276 008a 1A70     		strb	r2, [r3]
 150:ExtSRAM.c     ****     return(POST_PASSED);
 277              		.loc 1 150 0
 278 008c 0020     		movs	r0, #0
 279 008e 38BD     		pop	{r3, r4, r5, pc}
 280              	.LVL35:
 281              	.L22:
 116:ExtSRAM.c     ****     // Write/read a data ramp to exercise address lines (step in address bits)
 282              		.loc 1 116 0
 283 0090 0120     		movs	r0, #1
 284 0092 38BD     		pop	{r3, r4, r5, pc}
 285              	.LVL36:
 286              	.L23:
 130:ExtSRAM.c     ****         sramData++;
 287              		.loc 1 130 0
 288 0094 0220     		movs	r0, #2
 289              	.LVL37:
 290 0096 38BD     		pop	{r3, r4, r5, pc}
 291              	.LVL38:
 292              	.L24:
 146:ExtSRAM.c     ****         sramData++;
 293              		.loc 1 146 0
 294 0098 0320     		movs	r0, #3
 295              	.LVL39:
ARM GAS  C:\Users\HPz420\AppData\Local\Temp\ccfpX2du.s 			page 9


 151:ExtSRAM.c     **** }
 296              		.loc 1 151 0
 297 009a 38BD     		pop	{r3, r4, r5, pc}
 298              	.LVL40:
 299              	.L27:
 300              		.align	2
 301              	.L26:
 302 009c 76650040 		.word	1073767798
 303              		.cfi_endproc
 304              	.LFE66:
 305              		.size	TestSRAM, .-TestSRAM
 306              		.text
 307              	.Letext0:
 308              		.file 2 "c:\\program files (x86)\\cypress\\psoc creator\\4.2\\psoc creator\\import\\gnu\\arm\\5.4.
 309              		.file 3 "c:\\program files (x86)\\cypress\\psoc creator\\4.2\\psoc creator\\import\\gnu\\arm\\5.4.
 310              		.file 4 "Generated_Source\\PSoC5/cytypes.h"
 311              		.file 5 "Generated_Source\\PSoC5/core_cm3.h"