ARM GAS  C:\Users\HPz420\AppData\Local\Temp\cclQED6T.s 			page 1


   1              		.syntax unified
   2              		.cpu cortex-m3
   3              		.fpu softvfp
   4              		.eabi_attribute 20, 1
   5              		.eabi_attribute 21, 1
   6              		.eabi_attribute 23, 3
   7              		.eabi_attribute 24, 1
   8              		.eabi_attribute 25, 1
   9              		.eabi_attribute 26, 1
  10              		.eabi_attribute 30, 1
  11              		.eabi_attribute 34, 1
  12              		.eabi_attribute 18, 4
  13              		.thumb
  14              		.syntax unified
  15              		.file	"FrontPanel.c"
  16              		.text
  17              	.Ltext0:
  18              		.cfi_sections	.debug_frame
  19              		.section	.text.readRegister_MCP23017,"ax",%progbits
  20              		.align	2
  21              		.global	readRegister_MCP23017
  22              		.thumb
  23              		.thumb_func
  24              		.type	readRegister_MCP23017, %function
  25              	readRegister_MCP23017:
  26              	.LFB69:
  27              		.file 1 "FrontPanel.c"
   1:FrontPanel.c  **** /* ========================================
   2:FrontPanel.c  ****  *
   3:FrontPanel.c  ****  * Copyright Land Boards, LLC, 2019.
   4:FrontPanel.c  ****  * All Rights Reserved
   5:FrontPanel.c  ****  * UNPUBLISHED, LICENSED SOFTWARE.
   6:FrontPanel.c  ****  *
   7:FrontPanel.c  ****  * CONFIDENTIAL AND PROPRIETARY INFORMATION
   8:FrontPanel.c  ****  * WHICH IS THE PROPERTY OF LAND BOARDS. LLC.
   9:FrontPanel.c  ****  *
  10:FrontPanel.c  ****  * ========================================
  11:FrontPanel.c  **** */
  12:FrontPanel.c  **** 
  13:FrontPanel.c  **** #include <project.h>
  14:FrontPanel.c  **** #include "FrontPanel.h"
  15:FrontPanel.c  **** #include "ExtSRAM.h"
  16:FrontPanel.c  **** 
  17:FrontPanel.c  **** #define MCP23017_IODIR_DEFVAL    0xff       // Initially set all channels to inputs
  18:FrontPanel.c  **** #define MCP23017_IODIR_ALL_INS   0xff
  19:FrontPanel.c  **** #define MCP23017_IODIR_ALL_OUTS  0x00
  20:FrontPanel.c  **** 
  21:FrontPanel.c  **** #define MCP23017_IPOL_INVERT     0xFF       // Input polarity = invert jumpers
  22:FrontPanel.c  **** #define MCP23017_GPINTEN_DISABLE 0x00       // Disable GPIO for interrupt on change
  23:FrontPanel.c  **** #define MCP23017_GPINTEN_ENABLE  0xFF       // Enable GPIO for interrupt on change
  24:FrontPanel.c  **** #define MCP23017_INTCON_DEFVAL   0x00       // Int for change from previous pin
  25:FrontPanel.c  **** #define MCP23017_IOCON_DEFVAL    0x04       // Disable sequential,  active-low
  26:FrontPanel.c  **** #define MCP23017_GPPU_DISABLE    0x00       // Disable pull-ups
  27:FrontPanel.c  **** #define MCP23017_GPPU_ENABLE     0xFF       // Enable pull-ups
  28:FrontPanel.c  **** 
  29:FrontPanel.c  **** //////////////////////////////////////////////////////////////////////////////
  30:FrontPanel.c  **** // Front Panel Handler
ARM GAS  C:\Users\HPz420\AppData\Local\Temp\cclQED6T.s 			page 2


  31:FrontPanel.c  **** // Starts at CPU address = 0
  32:FrontPanel.c  **** //////////////////////////////////////////////////////////////////////////////
  33:FrontPanel.c  **** 
  34:FrontPanel.c  **** // Global variables
  35:FrontPanel.c  **** uint8 FPData;       // Data that is on the Front Panel (bottom 8 LEDs)
  36:FrontPanel.c  **** uint16 FPAddr;      // Address that is on the Front Panel (middle 16 lEDs)
  37:FrontPanel.c  **** uint8 FPCtrl;       // Control that is on the Front Panel (top 8 LEDs)
  38:FrontPanel.c  **** uint32 FPLong;      // Long value of the Front Panel
  39:FrontPanel.c  **** 
  40:FrontPanel.c  **** // Bits of FPCtrl
  41:FrontPanel.c  **** #define INC_ADDR    0x01    // Increment address and read memory value at next address
  42:FrontPanel.c  **** #define ST_INC      0x02    // Store data value, increment address and read next memory 
  43:FrontPanel.c  **** #define LD_ADDR     0x04    // Load address bits and read memory
  44:FrontPanel.c  **** #define RUN_SW      0x80    // Run Switch
  45:FrontPanel.c  **** 
  46:FrontPanel.c  **** //////////////////////////////////////////////////////////////////////////////
  47:FrontPanel.c  **** // Function prototypes
  48:FrontPanel.c  **** 
  49:FrontPanel.c  **** 
  50:FrontPanel.c  **** //////////////////////////////////////////////////////////////////////////////
  51:FrontPanel.c  **** // init_FrontPanel() - Switches are on Port A, LEDs are on Port B
  52:FrontPanel.c  **** 
  53:FrontPanel.c  **** void init_FrontPanel(void)
  54:FrontPanel.c  **** {
  55:FrontPanel.c  ****     uint8 chipAddr;
  56:FrontPanel.c  ****     for (chipAddr = 0x24; chipAddr < 0x28; chipAddr++)
  57:FrontPanel.c  ****     {
  58:FrontPanel.c  ****         writeRegister_MCP23017(chipAddr,MCP23017_IODIRA_REGADR,MCP23017_IODIR_ALL_INS);     // IO: 
  59:FrontPanel.c  ****         writeRegister_MCP23017(chipAddr,MCP23017_IODIRB_REGADR,MCP23017_IODIR_ALL_OUTS);    // IO: 
  60:FrontPanel.c  ****         writeRegister_MCP23017(chipAddr,MCP23017_IPOLA_REGADR,MCP23017_IPOL_INVERT);        // IP: 
  61:FrontPanel.c  ****         writeRegister_MCP23017(chipAddr,MCP23017_GPINTENA_REGADR,MCP23017_GPINTEN_ENABLE);  // GPIN
  62:FrontPanel.c  ****         writeRegister_MCP23017(chipAddr,MCP23017_GPINTENB_REGADR,MCP23017_GPINTEN_DISABLE); // GPIN
  63:FrontPanel.c  ****         writeRegister_MCP23017(chipAddr,MCP23017_DEFVALA_REGADR,0xFF);                      // Defa
  64:FrontPanel.c  ****         writeRegister_MCP23017(chipAddr,MCP23017_INTCONA_REGADR,MCP23017_INTCON_DEFVAL);    // Int 
  65:FrontPanel.c  ****         writeRegister_MCP23017(chipAddr,MCP23017_IOCONA_REGADR,MCP23017_IOCON_DEFVAL);      // BANK
  66:FrontPanel.c  ****                                                                                             // MIRR
  67:FrontPanel.c  ****                                                                                             // SEQO
  68:FrontPanel.c  ****                                                                                             // HAEN
  69:FrontPanel.c  ****                                                                                             // ODR:
  70:FrontPanel.c  ****                                                                                             // INTP
  71:FrontPanel.c  ****         writeRegister_MCP23017(chipAddr,MCP23017_IOCONB_REGADR,MCP23017_IOCON_DEFVAL);      // Int 
  72:FrontPanel.c  ****         writeRegister_MCP23017(chipAddr,MCP23017_GPPUA_REGADR,MCP23017_GPPU_ENABLE);        // Pull
  73:FrontPanel.c  ****         readRegister_MCP23017(chipAddr,MCP23017_INTCAPA_REGADR);                            // Clea
  74:FrontPanel.c  ****     }
  75:FrontPanel.c  ****     FPData = 0;
  76:FrontPanel.c  ****     FPAddr = 0;
  77:FrontPanel.c  ****     FPCtrl = 0;
  78:FrontPanel.c  ****     FPLong = 0;
  79:FrontPanel.c  **** }
  80:FrontPanel.c  **** 
  81:FrontPanel.c  **** //////////////////////////////////////////////////////////////////////////////////////
  82:FrontPanel.c  **** // runFrontPanel()
  83:FrontPanel.c  **** // Returns when run button is pressed on front panel
  84:FrontPanel.c  **** 
  85:FrontPanel.c  **** void runFrontPanel(void)
  86:FrontPanel.c  **** {
  87:FrontPanel.c  ****     uint32 switchesVal = 0;
ARM GAS  C:\Users\HPz420\AppData\Local\Temp\cclQED6T.s 			page 3


  88:FrontPanel.c  ****     uint32 LEDsVal = 0;
  89:FrontPanel.c  ****     
  90:FrontPanel.c  ****     I2C_Start();
  91:FrontPanel.c  ****     init_FrontPanel();
  92:FrontPanel.c  ****     // Bounce LEDs
  93:FrontPanel.c  ****     for (LEDsVal = 1; LEDsVal != 0; LEDsVal <<= 1)
  94:FrontPanel.c  ****     {
  95:FrontPanel.c  ****         writeFrontPanelLEDs(LEDsVal);
  96:FrontPanel.c  ****         CyDelay(100);
  97:FrontPanel.c  ****     }
  98:FrontPanel.c  ****     LEDsVal |= ReadExtSRAM(0);
  99:FrontPanel.c  ****     writeFrontPanelLEDs(LEDsVal);       // clears LEDs
 100:FrontPanel.c  ****     for(;;)                     // Loop forever
 101:FrontPanel.c  ****     {
 102:FrontPanel.c  ****         switchesVal = waitFrontPanelSwitchesPressed();
 103:FrontPanel.c  ****         if ((switchesVal & 0xff000000) != 0)    // Control switch on top row was pressed
 104:FrontPanel.c  ****         {
 105:FrontPanel.c  ****             if ((switchesVal & 0x01000000) == 0x01000000)       // Incr address and read memory
 106:FrontPanel.c  ****             {
 107:FrontPanel.c  ****                 LEDsVal |= 0x01000000;          // Flicker INCAD LED
 108:FrontPanel.c  ****                 writeFrontPanelLEDs(LEDsVal);
 109:FrontPanel.c  ****                 LEDsVal += 0x00000100;
 110:FrontPanel.c  ****                 LEDsVal &= 0x00ffff00;
 111:FrontPanel.c  ****                 LEDsVal |= ReadExtSRAM((LEDsVal >> 8) & 0xffff);
 112:FrontPanel.c  ****                 writeFrontPanelLEDs(LEDsVal);
 113:FrontPanel.c  ****             }
 114:FrontPanel.c  ****             else if ((switchesVal & 0x02000000) == 0x02000000)  // Store to addr, incr address and 
 115:FrontPanel.c  ****             {
 116:FrontPanel.c  ****                 LEDsVal |= 0x02000000;          // Flicker STINC LED
 117:FrontPanel.c  ****                 writeFrontPanelLEDs(LEDsVal);
 118:FrontPanel.c  ****                 WriteExtSRAM((LEDsVal >> 8) & 0xffff,LEDsVal&0xff);
 119:FrontPanel.c  ****                 LEDsVal += 0x00000100;
 120:FrontPanel.c  ****                 LEDsVal &= 0x00ffff00;
 121:FrontPanel.c  ****                 LEDsVal |= ReadExtSRAM((LEDsVal >> 8) & 0xffff);
 122:FrontPanel.c  ****                 writeFrontPanelLEDs(LEDsVal);
 123:FrontPanel.c  ****             }
 124:FrontPanel.c  ****             else if ((switchesVal & 0x04000000) == 0x04000000)  //Load address and read memory
 125:FrontPanel.c  ****             {
 126:FrontPanel.c  ****                 LEDsVal |= 0x04000000;          // Flicker LDADR LED
 127:FrontPanel.c  ****                 writeFrontPanelLEDs(LEDsVal);
 128:FrontPanel.c  ****                 LEDsVal &= 0x00ffff00;
 129:FrontPanel.c  ****                 LEDsVal |= ReadExtSRAM((LEDsVal >> 8) & 0xffff);
 130:FrontPanel.c  ****                 writeFrontPanelLEDs(LEDsVal);
 131:FrontPanel.c  ****             }
 132:FrontPanel.c  ****             else if ((switchesVal & 0x08000000) == 0x08000000)  // Run program
 133:FrontPanel.c  ****             {
 134:FrontPanel.c  ****                 ExtSRAMCtl_Control = 0;
 135:FrontPanel.c  ****                 LEDsVal = 0x08000000;
 136:FrontPanel.c  ****                 writeFrontPanelLEDs(LEDsVal);       // Leave Run LED on
 137:FrontPanel.c  ****                 return;
 138:FrontPanel.c  ****             }
 139:FrontPanel.c  ****             else if ((switchesVal & 0x10000000) == 0x10000000)  // TBD
 140:FrontPanel.c  ****             {
 141:FrontPanel.c  ****                 LEDsVal = 0x10000000;
 142:FrontPanel.c  ****                 writeFrontPanelLEDs(LEDsVal);       // Leave LED on
 143:FrontPanel.c  ****                 CyDelay(250);
 144:FrontPanel.c  ****                 LEDsVal &= 0x00ffffff;
ARM GAS  C:\Users\HPz420\AppData\Local\Temp\cclQED6T.s 			page 4


 145:FrontPanel.c  ****                 writeFrontPanelLEDs(LEDsVal);       // Turn off LED
 146:FrontPanel.c  ****             }
 147:FrontPanel.c  ****             else if ((switchesVal & 0x20000000) == 0x20000000)  // TBD
 148:FrontPanel.c  ****             {
 149:FrontPanel.c  ****                 LEDsVal = 0x20000000;
 150:FrontPanel.c  ****                 writeFrontPanelLEDs(LEDsVal);       // Leave LED on
 151:FrontPanel.c  ****                 CyDelay(250);
 152:FrontPanel.c  ****                 LEDsVal &= 0x00ffffff;
 153:FrontPanel.c  ****                 writeFrontPanelLEDs(LEDsVal);       // Turn off LED
 154:FrontPanel.c  ****             }
 155:FrontPanel.c  ****             else if ((switchesVal & 0x40000000) == 0x40000000)  // TBD
 156:FrontPanel.c  ****             {
 157:FrontPanel.c  ****                 LEDsVal = 0x40000000;
 158:FrontPanel.c  ****                 writeFrontPanelLEDs(LEDsVal);       // Leave LED on
 159:FrontPanel.c  ****                 CyDelay(250);
 160:FrontPanel.c  ****                 LEDsVal &= 0x00ffffff;
 161:FrontPanel.c  ****                 writeFrontPanelLEDs(LEDsVal);       // Turn off LED
 162:FrontPanel.c  ****             }
 163:FrontPanel.c  ****             else if ((switchesVal & 0x80000000) == 0x80000000)  // Exit front panel without releasi
 164:FrontPanel.c  ****             {
 165:FrontPanel.c  ****                 LEDsVal = 0x80000000;
 166:FrontPanel.c  ****                 writeFrontPanelLEDs(LEDsVal);       // Leave LED on
 167:FrontPanel.c  ****                 return;
 168:FrontPanel.c  ****             }
 169:FrontPanel.c  ****         }
 170:FrontPanel.c  ****         else    // Non-control switch was pressed
 171:FrontPanel.c  ****         {
 172:FrontPanel.c  ****             LEDsVal ^= switchesVal;
 173:FrontPanel.c  ****             writeFrontPanelLEDs(LEDsVal);
 174:FrontPanel.c  ****         }
 175:FrontPanel.c  ****     }
 176:FrontPanel.c  **** }
 177:FrontPanel.c  **** 
 178:FrontPanel.c  **** //////////////////////////////////////////////////////////////////////////////////////
 179:FrontPanel.c  **** // readFrontPanelSwitchesRegistered
 180:FrontPanel.c  **** //  Handler for the Pushbuttons and LEDs
 181:FrontPanel.c  **** //  Toggles the LED
 182:FrontPanel.c  **** //  Reads all four MCP23017 Port A's to make a 32-bit result
 183:FrontPanel.c  **** //  Looks for the switch to be pressed for 3 samples in a row
 184:FrontPanel.c  **** // Returns: 0 if there was no key pressed
 185:FrontPanel.c  **** //          1 if there was a key pressed
 186:FrontPanel.c  **** 
 187:FrontPanel.c  **** uint32 readFrontPanelSwitchesRegistered(void)
 188:FrontPanel.c  **** {
 189:FrontPanel.c  ****     uint32 rdVal;
 190:FrontPanel.c  ****     uint32 retVal = 0;
 191:FrontPanel.c  ****     uint32 valMin1 = 0;
 192:FrontPanel.c  ****     uint32 valMin2 = 0;
 193:FrontPanel.c  ****     uint32 valMin3 = 0;
 194:FrontPanel.c  ****     uint8 keyPressed = 0;
 195:FrontPanel.c  ****     rdVal = readFrontPanelSwitchesStatic();
 196:FrontPanel.c  ****     if (rdVal  == 0x00)     // No key is pressed at this polling
 197:FrontPanel.c  ****     {
 198:FrontPanel.c  ****         valMin1 = 0;
 199:FrontPanel.c  ****         valMin2 = 0;
 200:FrontPanel.c  ****         valMin3 = 0;
 201:FrontPanel.c  ****         return(0);
ARM GAS  C:\Users\HPz420\AppData\Local\Temp\cclQED6T.s 			page 5


 202:FrontPanel.c  ****     }
 203:FrontPanel.c  ****     else    // key is now pressed
 204:FrontPanel.c  ****     {
 205:FrontPanel.c  ****         keyPressed = 1;
 206:FrontPanel.c  ****         while (keyPressed)  // stick around until key is no longer pressed
 207:FrontPanel.c  ****         {
 208:FrontPanel.c  ****             rdVal = readFrontPanelSwitchesStatic();
 209:FrontPanel.c  ****             if (rdVal == 0)
 210:FrontPanel.c  ****             {
 211:FrontPanel.c  ****                 keyPressed = 0;
 212:FrontPanel.c  ****                 valMin1 = 0;
 213:FrontPanel.c  ****                 valMin2 = 0;
 214:FrontPanel.c  ****                 valMin3 = 0;
 215:FrontPanel.c  ****                 return(retVal);
 216:FrontPanel.c  ****             }
 217:FrontPanel.c  ****             valMin3 = valMin2;
 218:FrontPanel.c  ****             valMin2 = valMin1;
 219:FrontPanel.c  ****             valMin1 = rdVal;
 220:FrontPanel.c  ****             if ((valMin3 == 0) && (valMin2 != 0) && (valMin1 != 0) && (rdVal != 0))
 221:FrontPanel.c  ****             {
 222:FrontPanel.c  ****                 return(valMin2);
 223:FrontPanel.c  ****             }
 224:FrontPanel.c  ****             CyDelay(10);    // 10 mS sampling for debouncing
 225:FrontPanel.c  ****         }
 226:FrontPanel.c  ****     }
 227:FrontPanel.c  ****     return (retVal);
 228:FrontPanel.c  **** }
 229:FrontPanel.c  **** 
 230:FrontPanel.c  **** //////////////////////////////////////////////////////////////////////////////////////
 231:FrontPanel.c  **** // waitFrontPanelSwitchesPressed() - Wait for switch to be pressed and return value
 232:FrontPanel.c  **** 
 233:FrontPanel.c  **** uint32 waitFrontPanelSwitchesPressed(void)
 234:FrontPanel.c  **** {
 235:FrontPanel.c  ****     uint32 switchVals = 0;
 236:FrontPanel.c  ****     while (readFrontPanelSwitchesRegistered() != 0);    // wait for previous key release
 237:FrontPanel.c  ****     while (switchVals == 0)
 238:FrontPanel.c  ****     {   
 239:FrontPanel.c  ****         switchVals = readFrontPanelSwitchesRegistered();
 240:FrontPanel.c  ****         if (switchVals != 0x0)
 241:FrontPanel.c  ****             return (switchVals);
 242:FrontPanel.c  ****     }
 243:FrontPanel.c  ****     return (0);
 244:FrontPanel.c  **** }
 245:FrontPanel.c  **** 
 246:FrontPanel.c  **** //////////////////////////////////////////////////////////////////////////////////////
 247:FrontPanel.c  **** // readFrontPanelSwitchesStatic() - Reads the current value of the actual switches
 248:FrontPanel.c  **** //  Reads all four MCP23017 Port A's to make a 32-bit result
 249:FrontPanel.c  **** 
 250:FrontPanel.c  **** uint32 readFrontPanelSwitchesStatic(void)
 251:FrontPanel.c  **** {
 252:FrontPanel.c  ****     uint32 switchVals = 0;
 253:FrontPanel.c  ****     switchVals = readRegister_MCP23017(MCP23017_0,MCP23017_GPIOA_REGADR);
 254:FrontPanel.c  ****     switchVals = switchVals<<8;
 255:FrontPanel.c  ****     switchVals |= readRegister_MCP23017(MCP23017_1,MCP23017_GPIOA_REGADR);
 256:FrontPanel.c  ****     switchVals = switchVals<<8;
 257:FrontPanel.c  ****     switchVals |= readRegister_MCP23017(MCP23017_2,MCP23017_GPIOA_REGADR);
 258:FrontPanel.c  ****     switchVals = switchVals<<8;
ARM GAS  C:\Users\HPz420\AppData\Local\Temp\cclQED6T.s 			page 6


 259:FrontPanel.c  ****     switchVals |= readRegister_MCP23017(MCP23017_3,MCP23017_GPIOA_REGADR);
 260:FrontPanel.c  ****     return (switchVals);
 261:FrontPanel.c  **** }
 262:FrontPanel.c  **** 
 263:FrontPanel.c  **** //////////////////////////////////////////////////////////////////////////////////////
 264:FrontPanel.c  **** // writeFrontPanelLEDs(uint32) - Write a 32-bit value to the Front Panel LEDs
 265:FrontPanel.c  **** 
 266:FrontPanel.c  **** void writeFrontPanelLEDs(uint32 ledsVal)
 267:FrontPanel.c  **** {
 268:FrontPanel.c  ****     writeRegister_MCP23017(MCP23017_0,MCP23017_OLATB_REGADR,((ledsVal>>24) & 0xff));
 269:FrontPanel.c  ****     writeRegister_MCP23017(MCP23017_1,MCP23017_OLATB_REGADR,((ledsVal>>16) & 0xff));
 270:FrontPanel.c  ****     writeRegister_MCP23017(MCP23017_2,MCP23017_OLATB_REGADR,((ledsVal>>8) & 0xff));
 271:FrontPanel.c  ****     writeRegister_MCP23017(MCP23017_3,MCP23017_OLATB_REGADR,ledsVal&0xff);
 272:FrontPanel.c  **** }
 273:FrontPanel.c  **** 
 274:FrontPanel.c  **** //////////////////////////////////////////////////////////////////////////////////////
 275:FrontPanel.c  **** // I2C Low Level Hardware access functions
 276:FrontPanel.c  **** 
 277:FrontPanel.c  **** //////////////////////////////////////////////////////////////////////////////////////
 278:FrontPanel.c  **** //
 279:FrontPanel.c  **** //////////////////////////////////////////////////////////////////////////////////////
 280:FrontPanel.c  **** 
 281:FrontPanel.c  **** uint8 readRegister_MCP23017(uint8 chipAddr, uint8 ctrlAdr)
 282:FrontPanel.c  **** {
  28              		.loc 1 282 0
  29              		.cfi_startproc
  30              		@ args = 0, pretend = 0, frame = 0
  31              		@ frame_needed = 0, uses_anonymous_args = 0
  32              	.LVL0:
  33 0000 38B5     		push	{r3, r4, r5, lr}
  34              		.cfi_def_cfa_offset 16
  35              		.cfi_offset 3, -16
  36              		.cfi_offset 4, -12
  37              		.cfi_offset 5, -8
  38              		.cfi_offset 14, -4
  39 0002 0446     		mov	r4, r0
  40 0004 0D46     		mov	r5, r1
 283:FrontPanel.c  ****     uint8 rdBuff;
 284:FrontPanel.c  **** 
 285:FrontPanel.c  ****     I2C_MasterClearStatus();
  41              		.loc 1 285 0
  42 0006 FFF7FEFF 		bl	I2C_MasterClearStatus
  43              	.LVL1:
 286:FrontPanel.c  ****     I2C_MasterSendStart(chipAddr,I2C_WRITE_XFER_MODE);
  44              		.loc 1 286 0
  45 000a 0021     		movs	r1, #0
  46 000c 2046     		mov	r0, r4
  47 000e FFF7FEFF 		bl	I2C_MasterSendStart
  48              	.LVL2:
 287:FrontPanel.c  ****     I2C_MasterWriteByte(ctrlAdr);
  49              		.loc 1 287 0
  50 0012 2846     		mov	r0, r5
  51 0014 FFF7FEFF 		bl	I2C_MasterWriteByte
  52              	.LVL3:
 288:FrontPanel.c  ****     I2C_MasterSendStop();
  53              		.loc 1 288 0
  54 0018 FFF7FEFF 		bl	I2C_MasterSendStop
ARM GAS  C:\Users\HPz420\AppData\Local\Temp\cclQED6T.s 			page 7


  55              	.LVL4:
 289:FrontPanel.c  ****     I2C_MasterSendStart(chipAddr,I2C_READ_XFER_MODE);
  56              		.loc 1 289 0
  57 001c 0121     		movs	r1, #1
  58 001e 2046     		mov	r0, r4
  59 0020 FFF7FEFF 		bl	I2C_MasterSendStart
  60              	.LVL5:
 290:FrontPanel.c  ****     rdBuff = I2C_MasterReadByte(I2C_NAK_DATA);
  61              		.loc 1 290 0
  62 0024 0020     		movs	r0, #0
  63 0026 FFF7FEFF 		bl	I2C_MasterReadByte
  64              	.LVL6:
  65 002a 0446     		mov	r4, r0
  66              	.LVL7:
 291:FrontPanel.c  ****     I2C_MasterSendStop();
  67              		.loc 1 291 0
  68 002c FFF7FEFF 		bl	I2C_MasterSendStop
  69              	.LVL8:
 292:FrontPanel.c  ****     I2C_MasterClearStatus();
  70              		.loc 1 292 0
  71 0030 FFF7FEFF 		bl	I2C_MasterClearStatus
  72              	.LVL9:
 293:FrontPanel.c  ****     return rdBuff;
 294:FrontPanel.c  **** 
 295:FrontPanel.c  **** }
  73              		.loc 1 295 0
  74 0034 2046     		mov	r0, r4
  75 0036 38BD     		pop	{r3, r4, r5, pc}
  76              		.cfi_endproc
  77              	.LFE69:
  78              		.size	readRegister_MCP23017, .-readRegister_MCP23017
  79              		.section	.text.readFrontPanelSwitchesStatic,"ax",%progbits
  80              		.align	2
  81              		.global	readFrontPanelSwitchesStatic
  82              		.thumb
  83              		.thumb_func
  84              		.type	readFrontPanelSwitchesStatic, %function
  85              	readFrontPanelSwitchesStatic:
  86              	.LFB67:
 251:FrontPanel.c  ****     uint32 switchVals = 0;
  87              		.loc 1 251 0
  88              		.cfi_startproc
  89              		@ args = 0, pretend = 0, frame = 0
  90              		@ frame_needed = 0, uses_anonymous_args = 0
  91 0000 10B5     		push	{r4, lr}
  92              		.cfi_def_cfa_offset 8
  93              		.cfi_offset 4, -8
  94              		.cfi_offset 14, -4
  95              	.LVL10:
 253:FrontPanel.c  ****     switchVals = switchVals<<8;
  96              		.loc 1 253 0
  97 0002 1221     		movs	r1, #18
  98 0004 2420     		movs	r0, #36
  99 0006 FFF7FEFF 		bl	readRegister_MCP23017
 100              	.LVL11:
 254:FrontPanel.c  ****     switchVals |= readRegister_MCP23017(MCP23017_1,MCP23017_GPIOA_REGADR);
 101              		.loc 1 254 0
ARM GAS  C:\Users\HPz420\AppData\Local\Temp\cclQED6T.s 			page 8


 102 000a 0402     		lsls	r4, r0, #8
 103              	.LVL12:
 255:FrontPanel.c  ****     switchVals = switchVals<<8;
 104              		.loc 1 255 0
 105 000c 1221     		movs	r1, #18
 106 000e 2520     		movs	r0, #37
 107 0010 FFF7FEFF 		bl	readRegister_MCP23017
 108              	.LVL13:
 109 0014 2043     		orrs	r0, r0, r4
 110              	.LVL14:
 256:FrontPanel.c  ****     switchVals |= readRegister_MCP23017(MCP23017_2,MCP23017_GPIOA_REGADR);
 111              		.loc 1 256 0
 112 0016 0402     		lsls	r4, r0, #8
 113              	.LVL15:
 257:FrontPanel.c  ****     switchVals = switchVals<<8;
 114              		.loc 1 257 0
 115 0018 1221     		movs	r1, #18
 116 001a 2620     		movs	r0, #38
 117 001c FFF7FEFF 		bl	readRegister_MCP23017
 118              	.LVL16:
 119 0020 2043     		orrs	r0, r0, r4
 120              	.LVL17:
 258:FrontPanel.c  ****     switchVals |= readRegister_MCP23017(MCP23017_3,MCP23017_GPIOA_REGADR);
 121              		.loc 1 258 0
 122 0022 0402     		lsls	r4, r0, #8
 123              	.LVL18:
 259:FrontPanel.c  ****     return (switchVals);
 124              		.loc 1 259 0
 125 0024 1221     		movs	r1, #18
 126 0026 2720     		movs	r0, #39
 127 0028 FFF7FEFF 		bl	readRegister_MCP23017
 128              	.LVL19:
 261:FrontPanel.c  **** 
 129              		.loc 1 261 0
 130 002c 2043     		orrs	r0, r0, r4
 131              	.LVL20:
 132 002e 10BD     		pop	{r4, pc}
 133              		.cfi_endproc
 134              	.LFE67:
 135              		.size	readFrontPanelSwitchesStatic, .-readFrontPanelSwitchesStatic
 136              		.section	.text.readFrontPanelSwitchesRegistered,"ax",%progbits
 137              		.align	2
 138              		.global	readFrontPanelSwitchesRegistered
 139              		.thumb
 140              		.thumb_func
 141              		.type	readFrontPanelSwitchesRegistered, %function
 142              	readFrontPanelSwitchesRegistered:
 143              	.LFB65:
 188:FrontPanel.c  ****     uint32 rdVal;
 144              		.loc 1 188 0
 145              		.cfi_startproc
 146              		@ args = 0, pretend = 0, frame = 0
 147              		@ frame_needed = 0, uses_anonymous_args = 0
 148 0000 70B5     		push	{r4, r5, r6, lr}
 149              		.cfi_def_cfa_offset 16
 150              		.cfi_offset 4, -16
 151              		.cfi_offset 5, -12
ARM GAS  C:\Users\HPz420\AppData\Local\Temp\cclQED6T.s 			page 9


 152              		.cfi_offset 6, -8
 153              		.cfi_offset 14, -4
 154              	.LVL21:
 195:FrontPanel.c  ****     if (rdVal  == 0x00)     // No key is pressed at this polling
 155              		.loc 1 195 0
 156 0002 FFF7FEFF 		bl	readFrontPanelSwitchesStatic
 157              	.LVL22:
 196:FrontPanel.c  ****     {
 158              		.loc 1 196 0
 159 0006 88B1     		cbz	r0, .L10
 160 0008 0026     		movs	r6, #0
 161 000a 3446     		mov	r4, r6
 162 000c 08E0     		b	.L7
 163              	.LVL23:
 164              	.L9:
 220:FrontPanel.c  ****             {
 165              		.loc 1 220 0
 166 000e 16B9     		cbnz	r6, .L8
 220:FrontPanel.c  ****             {
 167              		.loc 1 220 0 is_stmt 0 discriminator 1
 168 0010 0CB1     		cbz	r4, .L8
 220:FrontPanel.c  ****             {
 169              		.loc 1 220 0 discriminator 2
 170 0012 05B1     		cbz	r5, .L8
 220:FrontPanel.c  ****             {
 171              		.loc 1 220 0 discriminator 3
 172 0014 65B9     		cbnz	r5, .L11
 173              	.L8:
 224:FrontPanel.c  ****         }
 174              		.loc 1 224 0 is_stmt 1
 175 0016 0A20     		movs	r0, #10
 176              	.LVL24:
 177 0018 FFF7FEFF 		bl	CyDelay
 178              	.LVL25:
 218:FrontPanel.c  ****             valMin1 = rdVal;
 179              		.loc 1 218 0
 180 001c 2646     		mov	r6, r4
 181              	.LVL26:
 219:FrontPanel.c  ****             if ((valMin3 == 0) && (valMin2 != 0) && (valMin1 != 0) && (rdVal != 0))
 182              		.loc 1 219 0
 183 001e 2C46     		mov	r4, r5
 184              	.LVL27:
 185              	.L7:
 208:FrontPanel.c  ****             if (rdVal == 0)
 186              		.loc 1 208 0
 187 0020 FFF7FEFF 		bl	readFrontPanelSwitchesStatic
 188              	.LVL28:
 209:FrontPanel.c  ****             {
 189              		.loc 1 209 0
 190 0024 0546     		mov	r5, r0
 191 0026 0028     		cmp	r0, #0
 192 0028 F1D1     		bne	.L9
 193 002a 70BD     		pop	{r4, r5, r6, pc}
 194              	.LVL29:
 195              	.L10:
 201:FrontPanel.c  ****     }
 196              		.loc 1 201 0
ARM GAS  C:\Users\HPz420\AppData\Local\Temp\cclQED6T.s 			page 10


 197 002c 0020     		movs	r0, #0
 198              	.LVL30:
 199 002e 70BD     		pop	{r4, r5, r6, pc}
 200              	.LVL31:
 201              	.L11:
 222:FrontPanel.c  ****             }
 202              		.loc 1 222 0
 203 0030 2046     		mov	r0, r4
 204              	.LVL32:
 228:FrontPanel.c  **** 
 205              		.loc 1 228 0
 206 0032 70BD     		pop	{r4, r5, r6, pc}
 207              		.cfi_endproc
 208              	.LFE65:
 209              		.size	readFrontPanelSwitchesRegistered, .-readFrontPanelSwitchesRegistered
 210              		.section	.text.waitFrontPanelSwitchesPressed,"ax",%progbits
 211              		.align	2
 212              		.global	waitFrontPanelSwitchesPressed
 213              		.thumb
 214              		.thumb_func
 215              		.type	waitFrontPanelSwitchesPressed, %function
 216              	waitFrontPanelSwitchesPressed:
 217              	.LFB66:
 234:FrontPanel.c  ****     uint32 switchVals = 0;
 218              		.loc 1 234 0
 219              		.cfi_startproc
 220              		@ args = 0, pretend = 0, frame = 0
 221              		@ frame_needed = 0, uses_anonymous_args = 0
 222 0000 10B5     		push	{r4, lr}
 223              		.cfi_def_cfa_offset 8
 224              		.cfi_offset 4, -8
 225              		.cfi_offset 14, -4
 226              	.L14:
 236:FrontPanel.c  ****     while (switchVals == 0)
 227              		.loc 1 236 0 discriminator 1
 228 0002 FFF7FEFF 		bl	readFrontPanelSwitchesRegistered
 229              	.LVL33:
 230 0006 0028     		cmp	r0, #0
 231 0008 FBD1     		bne	.L14
 232 000a 0446     		mov	r4, r0
 233 000c 0023     		movs	r3, #0
 234 000e 03E0     		b	.L15
 235              	.LVL34:
 236              	.L17:
 239:FrontPanel.c  ****         if (switchVals != 0x0)
 237              		.loc 1 239 0
 238 0010 FFF7FEFF 		bl	readFrontPanelSwitchesRegistered
 239              	.LVL35:
 240:FrontPanel.c  ****             return (switchVals);
 240              		.loc 1 240 0
 241 0014 0346     		mov	r3, r0
 242 0016 10B9     		cbnz	r0, .L18
 243              	.LVL36:
 244              	.L15:
 237:FrontPanel.c  ****     {   
 245              		.loc 1 237 0
 246 0018 002B     		cmp	r3, #0
ARM GAS  C:\Users\HPz420\AppData\Local\Temp\cclQED6T.s 			page 11


 247 001a F9D0     		beq	.L17
 248 001c 00E0     		b	.L16
 249              	.LVL37:
 250              	.L18:
 241:FrontPanel.c  ****     }
 251              		.loc 1 241 0
 252 001e 0446     		mov	r4, r0
 253              	.LVL38:
 254              	.L16:
 244:FrontPanel.c  **** 
 255              		.loc 1 244 0
 256 0020 2046     		mov	r0, r4
 257 0022 10BD     		pop	{r4, pc}
 258              		.cfi_endproc
 259              	.LFE66:
 260              		.size	waitFrontPanelSwitchesPressed, .-waitFrontPanelSwitchesPressed
 261              		.section	.text.writeRegister_MCP23017,"ax",%progbits
 262              		.align	2
 263              		.global	writeRegister_MCP23017
 264              		.thumb
 265              		.thumb_func
 266              		.type	writeRegister_MCP23017, %function
 267              	writeRegister_MCP23017:
 268              	.LFB70:
 296:FrontPanel.c  **** 
 297:FrontPanel.c  **** //////////////////////////////////////////////////////////////////////////////////////
 298:FrontPanel.c  **** //
 299:FrontPanel.c  **** //////////////////////////////////////////////////////////////////////////////////////
 300:FrontPanel.c  **** 
 301:FrontPanel.c  **** void writeRegister_MCP23017(uint8 chipAddr, uint8 ctrlAdr, uint8 ctrlVal)
 302:FrontPanel.c  **** {
 269              		.loc 1 302 0
 270              		.cfi_startproc
 271              		@ args = 0, pretend = 0, frame = 8
 272              		@ frame_needed = 0, uses_anonymous_args = 0
 273              	.LVL39:
 274 0000 70B5     		push	{r4, r5, r6, lr}
 275              		.cfi_def_cfa_offset 16
 276              		.cfi_offset 4, -16
 277              		.cfi_offset 5, -12
 278              		.cfi_offset 6, -8
 279              		.cfi_offset 14, -4
 280 0002 82B0     		sub	sp, sp, #8
 281              		.cfi_def_cfa_offset 24
 282 0004 0446     		mov	r4, r0
 283 0006 0E46     		mov	r6, r1
 284 0008 1546     		mov	r5, r2
 303:FrontPanel.c  **** uint8 MCP23017_WrBuffer[2];
 304:FrontPanel.c  ****     I2C_MasterClearStatus();
 285              		.loc 1 304 0
 286 000a FFF7FEFF 		bl	I2C_MasterClearStatus
 287              	.LVL40:
 305:FrontPanel.c  ****     MCP23017_WrBuffer[0] = ctrlAdr;
 288              		.loc 1 305 0
 289 000e 8DF80460 		strb	r6, [sp, #4]
 306:FrontPanel.c  ****     MCP23017_WrBuffer[1] = ctrlVal;
 290              		.loc 1 306 0
ARM GAS  C:\Users\HPz420\AppData\Local\Temp\cclQED6T.s 			page 12


 291 0012 8DF80550 		strb	r5, [sp, #5]
 307:FrontPanel.c  ****     I2C_MasterWriteBuf(chipAddr, MCP23017_WrBuffer, 2, I2C_MODE_COMPLETE_XFER);
 292              		.loc 1 307 0
 293 0016 0023     		movs	r3, #0
 294 0018 0222     		movs	r2, #2
 295 001a 01A9     		add	r1, sp, #4
 296 001c 2046     		mov	r0, r4
 297 001e FFF7FEFF 		bl	I2C_MasterWriteBuf
 298              	.LVL41:
 299              	.L21:
 308:FrontPanel.c  ****     while (0u == (I2C_MasterStatus() & I2C_MSTAT_WR_CMPLT));
 300              		.loc 1 308 0 discriminator 1
 301 0022 FFF7FEFF 		bl	I2C_MasterStatus
 302              	.LVL42:
 303 0026 10F0020F 		tst	r0, #2
 304 002a FAD0     		beq	.L21
 309:FrontPanel.c  ****     I2C_MasterClearStatus();
 305              		.loc 1 309 0
 306 002c FFF7FEFF 		bl	I2C_MasterClearStatus
 307              	.LVL43:
 310:FrontPanel.c  **** }
 308              		.loc 1 310 0
 309 0030 02B0     		add	sp, sp, #8
 310              		.cfi_def_cfa_offset 16
 311              		@ sp needed
 312 0032 70BD     		pop	{r4, r5, r6, pc}
 313              		.cfi_endproc
 314              	.LFE70:
 315              		.size	writeRegister_MCP23017, .-writeRegister_MCP23017
 316              		.section	.text.init_FrontPanel,"ax",%progbits
 317              		.align	2
 318              		.global	init_FrontPanel
 319              		.thumb
 320              		.thumb_func
 321              		.type	init_FrontPanel, %function
 322              	init_FrontPanel:
 323              	.LFB63:
  54:FrontPanel.c  ****     uint8 chipAddr;
 324              		.loc 1 54 0
 325              		.cfi_startproc
 326              		@ args = 0, pretend = 0, frame = 0
 327              		@ frame_needed = 0, uses_anonymous_args = 0
 328 0000 10B5     		push	{r4, lr}
 329              		.cfi_def_cfa_offset 8
 330              		.cfi_offset 4, -8
 331              		.cfi_offset 14, -4
 332              	.LVL44:
  56:FrontPanel.c  ****     {
 333              		.loc 1 56 0
 334 0002 2424     		movs	r4, #36
 335 0004 37E0     		b	.L24
 336              	.LVL45:
 337              	.L25:
  58:FrontPanel.c  ****         writeRegister_MCP23017(chipAddr,MCP23017_IODIRB_REGADR,MCP23017_IODIR_ALL_OUTS);    // IO: 
 338              		.loc 1 58 0 discriminator 3
 339 0006 FF22     		movs	r2, #255
 340 0008 0021     		movs	r1, #0
ARM GAS  C:\Users\HPz420\AppData\Local\Temp\cclQED6T.s 			page 13


 341 000a 2046     		mov	r0, r4
 342 000c FFF7FEFF 		bl	writeRegister_MCP23017
 343              	.LVL46:
  59:FrontPanel.c  ****         writeRegister_MCP23017(chipAddr,MCP23017_IPOLA_REGADR,MCP23017_IPOL_INVERT);        // IP: 
 344              		.loc 1 59 0 discriminator 3
 345 0010 0022     		movs	r2, #0
 346 0012 0121     		movs	r1, #1
 347 0014 2046     		mov	r0, r4
 348 0016 FFF7FEFF 		bl	writeRegister_MCP23017
 349              	.LVL47:
  60:FrontPanel.c  ****         writeRegister_MCP23017(chipAddr,MCP23017_GPINTENA_REGADR,MCP23017_GPINTEN_ENABLE);  // GPIN
 350              		.loc 1 60 0 discriminator 3
 351 001a FF22     		movs	r2, #255
 352 001c 0221     		movs	r1, #2
 353 001e 2046     		mov	r0, r4
 354 0020 FFF7FEFF 		bl	writeRegister_MCP23017
 355              	.LVL48:
  61:FrontPanel.c  ****         writeRegister_MCP23017(chipAddr,MCP23017_GPINTENB_REGADR,MCP23017_GPINTEN_DISABLE); // GPIN
 356              		.loc 1 61 0 discriminator 3
 357 0024 FF22     		movs	r2, #255
 358 0026 0421     		movs	r1, #4
 359 0028 2046     		mov	r0, r4
 360 002a FFF7FEFF 		bl	writeRegister_MCP23017
 361              	.LVL49:
  62:FrontPanel.c  ****         writeRegister_MCP23017(chipAddr,MCP23017_DEFVALA_REGADR,0xFF);                      // Defa
 362              		.loc 1 62 0 discriminator 3
 363 002e 0022     		movs	r2, #0
 364 0030 0521     		movs	r1, #5
 365 0032 2046     		mov	r0, r4
 366 0034 FFF7FEFF 		bl	writeRegister_MCP23017
 367              	.LVL50:
  63:FrontPanel.c  ****         writeRegister_MCP23017(chipAddr,MCP23017_INTCONA_REGADR,MCP23017_INTCON_DEFVAL);    // Int 
 368              		.loc 1 63 0 discriminator 3
 369 0038 FF22     		movs	r2, #255
 370 003a 0621     		movs	r1, #6
 371 003c 2046     		mov	r0, r4
 372 003e FFF7FEFF 		bl	writeRegister_MCP23017
 373              	.LVL51:
  64:FrontPanel.c  ****         writeRegister_MCP23017(chipAddr,MCP23017_IOCONA_REGADR,MCP23017_IOCON_DEFVAL);      // BANK
 374              		.loc 1 64 0 discriminator 3
 375 0042 0022     		movs	r2, #0
 376 0044 0821     		movs	r1, #8
 377 0046 2046     		mov	r0, r4
 378 0048 FFF7FEFF 		bl	writeRegister_MCP23017
 379              	.LVL52:
  65:FrontPanel.c  ****                                                                                             // MIRR
 380              		.loc 1 65 0 discriminator 3
 381 004c 0422     		movs	r2, #4
 382 004e 0A21     		movs	r1, #10
 383 0050 2046     		mov	r0, r4
 384 0052 FFF7FEFF 		bl	writeRegister_MCP23017
 385              	.LVL53:
  71:FrontPanel.c  ****         writeRegister_MCP23017(chipAddr,MCP23017_GPPUA_REGADR,MCP23017_GPPU_ENABLE);        // Pull
 386              		.loc 1 71 0 discriminator 3
 387 0056 0422     		movs	r2, #4
 388 0058 0B21     		movs	r1, #11
 389 005a 2046     		mov	r0, r4
ARM GAS  C:\Users\HPz420\AppData\Local\Temp\cclQED6T.s 			page 14


 390 005c FFF7FEFF 		bl	writeRegister_MCP23017
 391              	.LVL54:
  72:FrontPanel.c  ****         readRegister_MCP23017(chipAddr,MCP23017_INTCAPA_REGADR);                            // Clea
 392              		.loc 1 72 0 discriminator 3
 393 0060 FF22     		movs	r2, #255
 394 0062 0C21     		movs	r1, #12
 395 0064 2046     		mov	r0, r4
 396 0066 FFF7FEFF 		bl	writeRegister_MCP23017
 397              	.LVL55:
  73:FrontPanel.c  ****     }
 398              		.loc 1 73 0 discriminator 3
 399 006a 1021     		movs	r1, #16
 400 006c 2046     		mov	r0, r4
 401 006e FFF7FEFF 		bl	readRegister_MCP23017
 402              	.LVL56:
  56:FrontPanel.c  ****     {
 403              		.loc 1 56 0 discriminator 3
 404 0072 0134     		adds	r4, r4, #1
 405              	.LVL57:
 406 0074 E4B2     		uxtb	r4, r4
 407              	.LVL58:
 408              	.L24:
  56:FrontPanel.c  ****     {
 409              		.loc 1 56 0 is_stmt 0 discriminator 1
 410 0076 272C     		cmp	r4, #39
 411 0078 C5D9     		bls	.L25
  75:FrontPanel.c  ****     FPAddr = 0;
 412              		.loc 1 75 0 is_stmt 1
 413 007a 0023     		movs	r3, #0
 414 007c 044A     		ldr	r2, .L27
 415 007e 1370     		strb	r3, [r2]
  76:FrontPanel.c  ****     FPCtrl = 0;
 416              		.loc 1 76 0
 417 0080 044A     		ldr	r2, .L27+4
 418 0082 1380     		strh	r3, [r2]	@ movhi
  77:FrontPanel.c  ****     FPLong = 0;
 419              		.loc 1 77 0
 420 0084 044A     		ldr	r2, .L27+8
 421 0086 1370     		strb	r3, [r2]
  78:FrontPanel.c  **** }
 422              		.loc 1 78 0
 423 0088 044A     		ldr	r2, .L27+12
 424 008a 1360     		str	r3, [r2]
 425 008c 10BD     		pop	{r4, pc}
 426              	.LVL59:
 427              	.L28:
 428 008e 00BF     		.align	2
 429              	.L27:
 430 0090 00000000 		.word	FPData
 431 0094 00000000 		.word	FPAddr
 432 0098 00000000 		.word	FPCtrl
 433 009c 00000000 		.word	FPLong
 434              		.cfi_endproc
 435              	.LFE63:
 436              		.size	init_FrontPanel, .-init_FrontPanel
 437              		.section	.text.writeFrontPanelLEDs,"ax",%progbits
 438              		.align	2
ARM GAS  C:\Users\HPz420\AppData\Local\Temp\cclQED6T.s 			page 15


 439              		.global	writeFrontPanelLEDs
 440              		.thumb
 441              		.thumb_func
 442              		.type	writeFrontPanelLEDs, %function
 443              	writeFrontPanelLEDs:
 444              	.LFB68:
 267:FrontPanel.c  ****     writeRegister_MCP23017(MCP23017_0,MCP23017_OLATB_REGADR,((ledsVal>>24) & 0xff));
 445              		.loc 1 267 0
 446              		.cfi_startproc
 447              		@ args = 0, pretend = 0, frame = 0
 448              		@ frame_needed = 0, uses_anonymous_args = 0
 449              	.LVL60:
 450 0000 10B5     		push	{r4, lr}
 451              		.cfi_def_cfa_offset 8
 452              		.cfi_offset 4, -8
 453              		.cfi_offset 14, -4
 454 0002 0446     		mov	r4, r0
 268:FrontPanel.c  ****     writeRegister_MCP23017(MCP23017_1,MCP23017_OLATB_REGADR,((ledsVal>>16) & 0xff));
 455              		.loc 1 268 0
 456 0004 020E     		lsrs	r2, r0, #24
 457 0006 1521     		movs	r1, #21
 458 0008 2420     		movs	r0, #36
 459              	.LVL61:
 460 000a FFF7FEFF 		bl	writeRegister_MCP23017
 461              	.LVL62:
 269:FrontPanel.c  ****     writeRegister_MCP23017(MCP23017_2,MCP23017_OLATB_REGADR,((ledsVal>>8) & 0xff));
 462              		.loc 1 269 0
 463 000e C4F30742 		ubfx	r2, r4, #16, #8
 464 0012 1521     		movs	r1, #21
 465 0014 2520     		movs	r0, #37
 466 0016 FFF7FEFF 		bl	writeRegister_MCP23017
 467              	.LVL63:
 270:FrontPanel.c  ****     writeRegister_MCP23017(MCP23017_3,MCP23017_OLATB_REGADR,ledsVal&0xff);
 468              		.loc 1 270 0
 469 001a C4F30722 		ubfx	r2, r4, #8, #8
 470 001e 1521     		movs	r1, #21
 471 0020 2620     		movs	r0, #38
 472 0022 FFF7FEFF 		bl	writeRegister_MCP23017
 473              	.LVL64:
 271:FrontPanel.c  **** }
 474              		.loc 1 271 0
 475 0026 E2B2     		uxtb	r2, r4
 476 0028 1521     		movs	r1, #21
 477 002a 2720     		movs	r0, #39
 478 002c FFF7FEFF 		bl	writeRegister_MCP23017
 479              	.LVL65:
 480 0030 10BD     		pop	{r4, pc}
 481              		.cfi_endproc
 482              	.LFE68:
 483              		.size	writeFrontPanelLEDs, .-writeFrontPanelLEDs
 484 0032 00BF     		.section	.text.runFrontPanel,"ax",%progbits
 485              		.align	2
 486              		.global	runFrontPanel
 487              		.thumb
 488              		.thumb_func
 489              		.type	runFrontPanel, %function
 490              	runFrontPanel:
ARM GAS  C:\Users\HPz420\AppData\Local\Temp\cclQED6T.s 			page 16


 491              	.LFB64:
  86:FrontPanel.c  ****     uint32 switchesVal = 0;
 492              		.loc 1 86 0
 493              		.cfi_startproc
 494              		@ args = 0, pretend = 0, frame = 0
 495              		@ frame_needed = 0, uses_anonymous_args = 0
 496 0000 70B5     		push	{r4, r5, r6, lr}
 497              		.cfi_def_cfa_offset 16
 498              		.cfi_offset 4, -16
 499              		.cfi_offset 5, -12
 500              		.cfi_offset 6, -8
 501              		.cfi_offset 14, -4
 502              	.LVL66:
  90:FrontPanel.c  ****     init_FrontPanel();
 503              		.loc 1 90 0
 504 0002 FFF7FEFF 		bl	I2C_Start
 505              	.LVL67:
  91:FrontPanel.c  ****     // Bounce LEDs
 506              		.loc 1 91 0
 507 0006 FFF7FEFF 		bl	init_FrontPanel
 508              	.LVL68:
  93:FrontPanel.c  ****     {
 509              		.loc 1 93 0
 510 000a 0125     		movs	r5, #1
 511 000c 06E0     		b	.L32
 512              	.LVL69:
 513              	.L33:
  95:FrontPanel.c  ****         CyDelay(100);
 514              		.loc 1 95 0 discriminator 3
 515 000e 2846     		mov	r0, r5
 516 0010 FFF7FEFF 		bl	writeFrontPanelLEDs
 517              	.LVL70:
  96:FrontPanel.c  ****     }
 518              		.loc 1 96 0 discriminator 3
 519 0014 6420     		movs	r0, #100
 520 0016 FFF7FEFF 		bl	CyDelay
 521              	.LVL71:
  93:FrontPanel.c  ****     {
 522              		.loc 1 93 0 discriminator 3
 523 001a 6D00     		lsls	r5, r5, #1
 524              	.LVL72:
 525              	.L32:
  93:FrontPanel.c  ****     {
 526              		.loc 1 93 0 is_stmt 0 discriminator 1
 527 001c 002D     		cmp	r5, #0
 528 001e F6D1     		bne	.L33
  98:FrontPanel.c  ****     writeFrontPanelLEDs(LEDsVal);       // clears LEDs
 529              		.loc 1 98 0 is_stmt 1
 530 0020 0020     		movs	r0, #0
 531 0022 FFF7FEFF 		bl	ReadExtSRAM
 532              	.LVL73:
 533 0026 40EA0504 		orr	r4, r0, r5
 534              	.LVL74:
  99:FrontPanel.c  ****     for(;;)                     // Loop forever
 535              		.loc 1 99 0
 536 002a 2046     		mov	r0, r4
 537 002c FFF7FEFF 		bl	writeFrontPanelLEDs
ARM GAS  C:\Users\HPz420\AppData\Local\Temp\cclQED6T.s 			page 17


 538              	.LVL75:
 539              	.L34:
 102:FrontPanel.c  ****         if ((switchesVal & 0xff000000) != 0)    // Control switch on top row was pressed
 540              		.loc 1 102 0
 541 0030 FFF7FEFF 		bl	waitFrontPanelSwitchesPressed
 542              	.LVL76:
 103:FrontPanel.c  ****         {
 543              		.loc 1 103 0
 544 0034 10F07F4F 		tst	r0, #-16777216
 545 0038 00F08680 		beq	.L35
 105:FrontPanel.c  ****             {
 546              		.loc 1 105 0
 547 003c 10F0807F 		tst	r0, #16777216
 548 0040 12D0     		beq	.L36
 107:FrontPanel.c  ****                 writeFrontPanelLEDs(LEDsVal);
 549              		.loc 1 107 0
 550 0042 44F08074 		orr	r4, r4, #16777216
 551              	.LVL77:
 108:FrontPanel.c  ****                 LEDsVal += 0x00000100;
 552              		.loc 1 108 0
 553 0046 2046     		mov	r0, r4
 554              	.LVL78:
 555 0048 FFF7FEFF 		bl	writeFrontPanelLEDs
 556              	.LVL79:
 109:FrontPanel.c  ****                 LEDsVal &= 0x00ffff00;
 557              		.loc 1 109 0
 558 004c 04F58074 		add	r4, r4, #256
 559              	.LVL80:
 110:FrontPanel.c  ****                 LEDsVal |= ReadExtSRAM((LEDsVal >> 8) & 0xffff);
 560              		.loc 1 110 0
 561 0050 24F07F44 		bic	r4, r4, #-16777216
 562              	.LVL81:
 563 0054 24F0FF04 		bic	r4, r4, #255
 564              	.LVL82:
 111:FrontPanel.c  ****                 writeFrontPanelLEDs(LEDsVal);
 565              		.loc 1 111 0
 566 0058 200A     		lsrs	r0, r4, #8
 567 005a FFF7FEFF 		bl	ReadExtSRAM
 568              	.LVL83:
 569 005e 0443     		orrs	r4, r4, r0
 570              	.LVL84:
 112:FrontPanel.c  ****             }
 571              		.loc 1 112 0
 572 0060 2046     		mov	r0, r4
 573 0062 FFF7FEFF 		bl	writeFrontPanelLEDs
 574              	.LVL85:
 575 0066 E3E7     		b	.L34
 576              	.LVL86:
 577              	.L36:
 114:FrontPanel.c  ****             {
 578              		.loc 1 114 0
 579 0068 10F0007F 		tst	r0, #33554432
 580 006c 17D0     		beq	.L38
 116:FrontPanel.c  ****                 writeFrontPanelLEDs(LEDsVal);
 581              		.loc 1 116 0
 582 006e 44F00074 		orr	r4, r4, #33554432
 583              	.LVL87:
ARM GAS  C:\Users\HPz420\AppData\Local\Temp\cclQED6T.s 			page 18


 117:FrontPanel.c  ****                 WriteExtSRAM((LEDsVal >> 8) & 0xffff,LEDsVal&0xff);
 584              		.loc 1 117 0
 585 0072 2046     		mov	r0, r4
 586              	.LVL88:
 587 0074 FFF7FEFF 		bl	writeFrontPanelLEDs
 588              	.LVL89:
 118:FrontPanel.c  ****                 LEDsVal += 0x00000100;
 589              		.loc 1 118 0
 590 0078 E1B2     		uxtb	r1, r4
 591 007a C4F30F20 		ubfx	r0, r4, #8, #16
 592 007e FFF7FEFF 		bl	WriteExtSRAM
 593              	.LVL90:
 119:FrontPanel.c  ****                 LEDsVal &= 0x00ffff00;
 594              		.loc 1 119 0
 595 0082 04F58074 		add	r4, r4, #256
 596              	.LVL91:
 120:FrontPanel.c  ****                 LEDsVal |= ReadExtSRAM((LEDsVal >> 8) & 0xffff);
 597              		.loc 1 120 0
 598 0086 24F07F44 		bic	r4, r4, #-16777216
 599              	.LVL92:
 600 008a 24F0FF04 		bic	r4, r4, #255
 601              	.LVL93:
 121:FrontPanel.c  ****                 writeFrontPanelLEDs(LEDsVal);
 602              		.loc 1 121 0
 603 008e 200A     		lsrs	r0, r4, #8
 604 0090 FFF7FEFF 		bl	ReadExtSRAM
 605              	.LVL94:
 606 0094 0443     		orrs	r4, r4, r0
 607              	.LVL95:
 122:FrontPanel.c  ****             }
 608              		.loc 1 122 0
 609 0096 2046     		mov	r0, r4
 610 0098 FFF7FEFF 		bl	writeFrontPanelLEDs
 611              	.LVL96:
 612 009c C8E7     		b	.L34
 613              	.LVL97:
 614              	.L38:
 124:FrontPanel.c  ****             {
 615              		.loc 1 124 0
 616 009e 10F0806F 		tst	r0, #67108864
 617 00a2 11D0     		beq	.L39
 618              	.LVL98:
 127:FrontPanel.c  ****                 LEDsVal &= 0x00ffff00;
 619              		.loc 1 127 0
 620 00a4 44F08060 		orr	r0, r4, #67108864
 621              	.LVL99:
 622 00a8 FFF7FEFF 		bl	writeFrontPanelLEDs
 623              	.LVL100:
 624 00ac 24F07F46 		bic	r6, r4, #-16777216
 625 00b0 26F0FF06 		bic	r6, r6, #255
 626              	.LVL101:
 129:FrontPanel.c  ****                 writeFrontPanelLEDs(LEDsVal);
 627              		.loc 1 129 0
 628 00b4 C4F30F20 		ubfx	r0, r4, #8, #16
 629 00b8 FFF7FEFF 		bl	ReadExtSRAM
 630              	.LVL102:
 631 00bc 40EA0604 		orr	r4, r0, r6
ARM GAS  C:\Users\HPz420\AppData\Local\Temp\cclQED6T.s 			page 19


 632              	.LVL103:
 130:FrontPanel.c  ****             }
 633              		.loc 1 130 0
 634 00c0 2046     		mov	r0, r4
 635 00c2 FFF7FEFF 		bl	writeFrontPanelLEDs
 636              	.LVL104:
 637 00c6 B3E7     		b	.L34
 638              	.LVL105:
 639              	.L39:
 132:FrontPanel.c  ****             {
 640              		.loc 1 132 0
 641 00c8 10F0006F 		tst	r0, #134217728
 642 00cc 07D0     		beq	.L40
 134:FrontPanel.c  ****                 LEDsVal = 0x08000000;
 643              		.loc 1 134 0
 644 00ce 0022     		movs	r2, #0
 645 00d0 204B     		ldr	r3, .L46
 646 00d2 1A70     		strb	r2, [r3]
 647              	.LVL106:
 136:FrontPanel.c  ****                 return;
 648              		.loc 1 136 0
 649 00d4 4FF00060 		mov	r0, #134217728
 650              	.LVL107:
 651 00d8 FFF7FEFF 		bl	writeFrontPanelLEDs
 652              	.LVL108:
 137:FrontPanel.c  ****             }
 653              		.loc 1 137 0
 654 00dc 70BD     		pop	{r4, r5, r6, pc}
 655              	.LVL109:
 656              	.L40:
 139:FrontPanel.c  ****             {
 657              		.loc 1 139 0
 658 00de 10F0805F 		tst	r0, #268435456
 659 00e2 0BD0     		beq	.L42
 660              	.LVL110:
 142:FrontPanel.c  ****                 CyDelay(250);
 661              		.loc 1 142 0
 662 00e4 4FF08050 		mov	r0, #268435456
 663              	.LVL111:
 664 00e8 FFF7FEFF 		bl	writeFrontPanelLEDs
 665              	.LVL112:
 143:FrontPanel.c  ****                 LEDsVal &= 0x00ffffff;
 666              		.loc 1 143 0
 667 00ec FA20     		movs	r0, #250
 668 00ee FFF7FEFF 		bl	CyDelay
 669              	.LVL113:
 145:FrontPanel.c  ****             }
 670              		.loc 1 145 0
 671 00f2 0020     		movs	r0, #0
 672 00f4 FFF7FEFF 		bl	writeFrontPanelLEDs
 673              	.LVL114:
 144:FrontPanel.c  ****                 writeFrontPanelLEDs(LEDsVal);       // Turn off LED
 674              		.loc 1 144 0
 675 00f8 2C46     		mov	r4, r5
 676 00fa 99E7     		b	.L34
 677              	.LVL115:
 678              	.L42:
ARM GAS  C:\Users\HPz420\AppData\Local\Temp\cclQED6T.s 			page 20


 147:FrontPanel.c  ****             {
 679              		.loc 1 147 0
 680 00fc 10F0005F 		tst	r0, #536870912
 681 0100 0BD0     		beq	.L43
 682              	.LVL116:
 150:FrontPanel.c  ****                 CyDelay(250);
 683              		.loc 1 150 0
 684 0102 4FF00050 		mov	r0, #536870912
 685              	.LVL117:
 686 0106 FFF7FEFF 		bl	writeFrontPanelLEDs
 687              	.LVL118:
 151:FrontPanel.c  ****                 LEDsVal &= 0x00ffffff;
 688              		.loc 1 151 0
 689 010a FA20     		movs	r0, #250
 690 010c FFF7FEFF 		bl	CyDelay
 691              	.LVL119:
 153:FrontPanel.c  ****             }
 692              		.loc 1 153 0
 693 0110 0020     		movs	r0, #0
 694 0112 FFF7FEFF 		bl	writeFrontPanelLEDs
 695              	.LVL120:
 152:FrontPanel.c  ****                 writeFrontPanelLEDs(LEDsVal);       // Turn off LED
 696              		.loc 1 152 0
 697 0116 2C46     		mov	r4, r5
 698 0118 8AE7     		b	.L34
 699              	.LVL121:
 700              	.L43:
 155:FrontPanel.c  ****             {
 701              		.loc 1 155 0
 702 011a 10F0804F 		tst	r0, #1073741824
 703 011e 0BD0     		beq	.L44
 704              	.LVL122:
 158:FrontPanel.c  ****                 CyDelay(250);
 705              		.loc 1 158 0
 706 0120 4FF08040 		mov	r0, #1073741824
 707              	.LVL123:
 708 0124 FFF7FEFF 		bl	writeFrontPanelLEDs
 709              	.LVL124:
 159:FrontPanel.c  ****                 LEDsVal &= 0x00ffffff;
 710              		.loc 1 159 0
 711 0128 FA20     		movs	r0, #250
 712 012a FFF7FEFF 		bl	CyDelay
 713              	.LVL125:
 161:FrontPanel.c  ****             }
 714              		.loc 1 161 0
 715 012e 0020     		movs	r0, #0
 716 0130 FFF7FEFF 		bl	writeFrontPanelLEDs
 717              	.LVL126:
 160:FrontPanel.c  ****                 writeFrontPanelLEDs(LEDsVal);       // Turn off LED
 718              		.loc 1 160 0
 719 0134 2C46     		mov	r4, r5
 720 0136 7BE7     		b	.L34
 721              	.LVL127:
 722              	.L44:
 163:FrontPanel.c  ****             {
 723              		.loc 1 163 0
 724 0138 0028     		cmp	r0, #0
ARM GAS  C:\Users\HPz420\AppData\Local\Temp\cclQED6T.s 			page 21


 725 013a BFF679AF 		bge	.L34
 726              	.LVL128:
 166:FrontPanel.c  ****                 return;
 727              		.loc 1 166 0
 728 013e 4FF00040 		mov	r0, #-2147483648
 729              	.LVL129:
 730 0142 FFF7FEFF 		bl	writeFrontPanelLEDs
 731              	.LVL130:
 167:FrontPanel.c  ****             }
 732              		.loc 1 167 0
 733 0146 70BD     		pop	{r4, r5, r6, pc}
 734              	.LVL131:
 735              	.L35:
 172:FrontPanel.c  ****             writeFrontPanelLEDs(LEDsVal);
 736              		.loc 1 172 0
 737 0148 4440     		eors	r4, r4, r0
 738              	.LVL132:
 173:FrontPanel.c  ****         }
 739              		.loc 1 173 0
 740 014a 2046     		mov	r0, r4
 741              	.LVL133:
 742 014c FFF7FEFF 		bl	writeFrontPanelLEDs
 743              	.LVL134:
 744 0150 6EE7     		b	.L34
 745              	.L47:
 746 0152 00BF     		.align	2
 747              	.L46:
 748 0154 73640040 		.word	1073767539
 749              		.cfi_endproc
 750              	.LFE64:
 751              		.size	runFrontPanel, .-runFrontPanel
 752              		.comm	FPLong,4,4
 753              		.comm	FPCtrl,1,1
 754              		.comm	FPAddr,2,2
 755              		.comm	FPData,1,1
 756              		.text
 757              	.Letext0:
 758              		.file 2 "c:\\program files (x86)\\cypress\\psoc creator\\4.2\\psoc creator\\import\\gnu\\arm\\5.4.
 759              		.file 3 "c:\\program files (x86)\\cypress\\psoc creator\\4.2\\psoc creator\\import\\gnu\\arm\\5.4.
 760              		.file 4 "Generated_Source\\PSoC5/cytypes.h"
 761              		.file 5 "Generated_Source\\PSoC5/core_cm3.h"
 762              		.file 6 "Generated_Source\\PSoC5/I2C.h"
 763              		.file 7 "Generated_Source\\PSoC5/CyLib.h"
 764              		.file 8 "ExtSRAM.h"