ARM GAS  C:\Users\HPz420\AppData\Local\Temp\ccf4Kchg.s 			page 1


   1              		.syntax unified
   2              		.cpu cortex-m3
   3              		.fpu softvfp
   4              		.eabi_attribute 20, 1
   5              		.eabi_attribute 21, 1
   6              		.eabi_attribute 23, 3
   7              		.eabi_attribute 24, 1
   8              		.eabi_attribute 25, 1
   9              		.eabi_attribute 26, 1
  10              		.eabi_attribute 30, 1
  11              		.eabi_attribute 34, 1
  12              		.eabi_attribute 18, 4
  13              		.thumb
  14              		.syntax unified
  15              		.file	"LoadSRAM.c"
  16              		.text
  17              	.Ltext0:
  18              		.cfi_sections	.debug_frame
  19              		.section	.text.loadSRAM,"ax",%progbits
  20              		.align	2
  21              		.global	loadSRAM
  22              		.thumb
  23              		.thumb_func
  24              		.type	loadSRAM, %function
  25              	loadSRAM:
  26              	.LFB63:
  27              		.file 1 "LoadSRAM.c"
   1:LoadSRAM.c    **** /* ========================================
   2:LoadSRAM.c    ****  *
   3:LoadSRAM.c    ****  * Copyright LAND BOARDS, LLC, 2019
   4:LoadSRAM.c    ****  * All Rights Reserved
   5:LoadSRAM.c    ****  * UNPUBLISHED, LICENSED SOFTWARE.
   6:LoadSRAM.c    ****  *
   7:LoadSRAM.c    ****  * CONFIDENTIAL AND PROPRIETARY INFORMATION
   8:LoadSRAM.c    ****  * WHICH IS THE PROPERTY OF Land Boards, LLC.
   9:LoadSRAM.c    ****  *
  10:LoadSRAM.c    ****  * ========================================
  11:LoadSRAM.c    **** */
  12:LoadSRAM.c    **** /* http://srecord.sourceforge.net/ */
  13:LoadSRAM.c    **** 
  14:LoadSRAM.c    **** #include "project.h"
  15:LoadSRAM.c    **** #include "ExtSRAM.h"
  16:LoadSRAM.c    **** 
  17:LoadSRAM.c    **** const unsigned char eprom[] =
  18:LoadSRAM.c    **** {
  19:LoadSRAM.c    **** 0x5A, 0x38, 0x30, 0x52, 0x4D, 0x46, 0x31, 0x32, 0x52, 0x00, 0x00, 0x00,
  20:LoadSRAM.c    **** 0x1C, 0x00, 0x00, 0x00, 0x38, 0x00, 0x00, 0x00, 0xFF, 0xFF, 0xFF, 0xFF,
  21:LoadSRAM.c    **** 0x57, 0x00, 0x00, 0x00, 0x43, 0x08, 0x00, 0x6C, 0x6F, 0x6F, 0x70, 0x2E,
  22:LoadSRAM.c    **** 0x61, 0x73, 0x6D, 0x03, 0x00, 0x00, 0x00, 0x00, 0x00, 0x00, 0x01, 0x00,
  23:LoadSRAM.c    **** 0x00, 0x04, 0x00, 0x6C, 0x6F, 0x6F, 0x70, 0x00, 0x4C, 0x41, 0x00, 0x00,
  24:LoadSRAM.c    **** 0x00, 0x00, 0x00, 0x04, 0x6C, 0x6F, 0x6F, 0x70, 0x08, 0x6C, 0x6F, 0x6F,
  25:LoadSRAM.c    **** 0x70, 0x2E, 0x61, 0x73, 0x6D, 0x02, 0x00, 0x00, 0x00, 0x00, 0x04, 0x6C,
  26:LoadSRAM.c    **** 0x6F, 0x6F, 0x70, 0x03, 0x00, 0x00, 0x00, 0x00, 0xFF, 0xFF, 0xFF, 0xFF,
  27:LoadSRAM.c    **** 0x01, 0x00, 0x00, 0x00, 0xC3, 0x00, 0x00, 0xFF, 0xFF, 0xFF, 0xFF,
  28:LoadSRAM.c    **** };
  29:LoadSRAM.c    **** const unsigned long eprom_termination = 0x00000000;
  30:LoadSRAM.c    **** const unsigned long eprom_start       = 0x00000000;
ARM GAS  C:\Users\HPz420\AppData\Local\Temp\ccf4Kchg.s 			page 2


  31:LoadSRAM.c    **** const unsigned long eprom_finish      = 0x0000006B;
  32:LoadSRAM.c    **** const unsigned long eprom_length      = 0x0000006B;
  33:LoadSRAM.c    **** 
  34:LoadSRAM.c    **** #define EPROM_TERMINATION 0x00000000
  35:LoadSRAM.c    **** #define EPROM_START       0x00000000
  36:LoadSRAM.c    **** #define EPROM_FINISH      0x0000006B
  37:LoadSRAM.c    **** #define EPROM_LENGTH      0x0000006B
  38:LoadSRAM.c    **** 
  39:LoadSRAM.c    **** void loadSRAM(void)
  40:LoadSRAM.c    **** {
  28              		.loc 1 40 0
  29              		.cfi_startproc
  30              		@ args = 0, pretend = 0, frame = 0
  31              		@ frame_needed = 0, uses_anonymous_args = 0
  32 0000 70B5     		push	{r4, r5, r6, lr}
  33              		.cfi_def_cfa_offset 16
  34              		.cfi_offset 4, -16
  35              		.cfi_offset 5, -12
  36              		.cfi_offset 6, -8
  37              		.cfi_offset 14, -4
  38              	.LVL0:
  41:LoadSRAM.c    ****     uint32 charCount = EPROM_LENGTH;
  42:LoadSRAM.c    ****     uint32 SRAMAddr = EPROM_START;
  43:LoadSRAM.c    ****     uint32 epromListOffset = 0;
  39              		.loc 1 43 0
  40 0002 0024     		movs	r4, #0
  42:LoadSRAM.c    ****     uint32 epromListOffset = 0;
  41              		.loc 1 42 0
  42 0004 2646     		mov	r6, r4
  44:LoadSRAM.c    ****     
  45:LoadSRAM.c    ****     for (charCount = 0; charCount < EPROM_LENGTH; charCount++)
  43              		.loc 1 45 0
  44 0006 2546     		mov	r5, r4
  45 0008 07E0     		b	.L2
  46              	.LVL1:
  47              	.L3:
  46:LoadSRAM.c    ****     {
  47:LoadSRAM.c    ****         WriteExtSRAM(SRAMAddr,eprom[epromListOffset]);
  48              		.loc 1 47 0 discriminator 3
  49 000a 054B     		ldr	r3, .L5
  50 000c 195D     		ldrb	r1, [r3, r4]	@ zero_extendqisi2
  51 000e 3046     		mov	r0, r6
  52 0010 FFF7FEFF 		bl	WriteExtSRAM
  53              	.LVL2:
  48:LoadSRAM.c    ****         SRAMAddr++;
  54              		.loc 1 48 0 discriminator 3
  55 0014 0136     		adds	r6, r6, #1
  56              	.LVL3:
  49:LoadSRAM.c    ****         epromListOffset++;
  57              		.loc 1 49 0 discriminator 3
  58 0016 0134     		adds	r4, r4, #1
  59              	.LVL4:
  45:LoadSRAM.c    ****     {
  60              		.loc 1 45 0 discriminator 3
  61 0018 0135     		adds	r5, r5, #1
  62              	.LVL5:
  63              	.L2:
ARM GAS  C:\Users\HPz420\AppData\Local\Temp\ccf4Kchg.s 			page 3


  45:LoadSRAM.c    ****     {
  64              		.loc 1 45 0 is_stmt 0 discriminator 1
  65 001a 6A2D     		cmp	r5, #106
  66 001c F5D9     		bls	.L3
  50:LoadSRAM.c    ****     }
  51:LoadSRAM.c    ****     
  52:LoadSRAM.c    **** }
  67              		.loc 1 52 0 is_stmt 1
  68 001e 70BD     		pop	{r4, r5, r6, pc}
  69              	.LVL6:
  70              	.L6:
  71              		.align	2
  72              	.L5:
  73 0020 00000000 		.word	.LANCHOR0
  74              		.cfi_endproc
  75              	.LFE63:
  76              		.size	loadSRAM, .-loadSRAM
  77              		.global	eprom_length
  78              		.global	eprom_finish
  79              		.global	eprom_start
  80              		.global	eprom_termination
  81              		.global	eprom
  82              		.section	.rodata
  83              		.align	2
  84              		.set	.LANCHOR0,. + 0
  85              		.type	eprom, %object
  86              		.size	eprom, 107
  87              	eprom:
  88 0000 5A       		.byte	90
  89 0001 38       		.byte	56
  90 0002 30       		.byte	48
  91 0003 52       		.byte	82
  92 0004 4D       		.byte	77
  93 0005 46       		.byte	70
  94 0006 31       		.byte	49
  95 0007 32       		.byte	50
  96 0008 52       		.byte	82
  97 0009 00       		.byte	0
  98 000a 00       		.byte	0
  99 000b 00       		.byte	0
 100 000c 1C       		.byte	28
 101 000d 00       		.byte	0
 102 000e 00       		.byte	0
 103 000f 00       		.byte	0
 104 0010 38       		.byte	56
 105 0011 00       		.byte	0
 106 0012 00       		.byte	0
 107 0013 00       		.byte	0
 108 0014 FF       		.byte	-1
 109 0015 FF       		.byte	-1
 110 0016 FF       		.byte	-1
 111 0017 FF       		.byte	-1
 112 0018 57       		.byte	87
 113 0019 00       		.byte	0
 114 001a 00       		.byte	0
 115 001b 00       		.byte	0
 116 001c 43       		.byte	67
ARM GAS  C:\Users\HPz420\AppData\Local\Temp\ccf4Kchg.s 			page 4


 117 001d 08       		.byte	8
 118 001e 00       		.byte	0
 119 001f 6C       		.byte	108
 120 0020 6F       		.byte	111
 121 0021 6F       		.byte	111
 122 0022 70       		.byte	112
 123 0023 2E       		.byte	46
 124 0024 61       		.byte	97
 125 0025 73       		.byte	115
 126 0026 6D       		.byte	109
 127 0027 03       		.byte	3
 128 0028 00       		.byte	0
 129 0029 00       		.byte	0
 130 002a 00       		.byte	0
 131 002b 00       		.byte	0
 132 002c 00       		.byte	0
 133 002d 00       		.byte	0
 134 002e 01       		.byte	1
 135 002f 00       		.byte	0
 136 0030 00       		.byte	0
 137 0031 04       		.byte	4
 138 0032 00       		.byte	0
 139 0033 6C       		.byte	108
 140 0034 6F       		.byte	111
 141 0035 6F       		.byte	111
 142 0036 70       		.byte	112
 143 0037 00       		.byte	0
 144 0038 4C       		.byte	76
 145 0039 41       		.byte	65
 146 003a 00       		.byte	0
 147 003b 00       		.byte	0
 148 003c 00       		.byte	0
 149 003d 00       		.byte	0
 150 003e 00       		.byte	0
 151 003f 04       		.byte	4
 152 0040 6C       		.byte	108
 153 0041 6F       		.byte	111
 154 0042 6F       		.byte	111
 155 0043 70       		.byte	112
 156 0044 08       		.byte	8
 157 0045 6C       		.byte	108
 158 0046 6F       		.byte	111
 159 0047 6F       		.byte	111
 160 0048 70       		.byte	112
 161 0049 2E       		.byte	46
 162 004a 61       		.byte	97
 163 004b 73       		.byte	115
 164 004c 6D       		.byte	109
 165 004d 02       		.byte	2
 166 004e 00       		.byte	0
 167 004f 00       		.byte	0
 168 0050 00       		.byte	0
 169 0051 00       		.byte	0
 170 0052 04       		.byte	4
 171 0053 6C       		.byte	108
 172 0054 6F       		.byte	111
 173 0055 6F       		.byte	111
ARM GAS  C:\Users\HPz420\AppData\Local\Temp\ccf4Kchg.s 			page 5


 174 0056 70       		.byte	112
 175 0057 03       		.byte	3
 176 0058 00       		.byte	0
 177 0059 00       		.byte	0
 178 005a 00       		.byte	0
 179 005b 00       		.byte	0
 180 005c FF       		.byte	-1
 181 005d FF       		.byte	-1
 182 005e FF       		.byte	-1
 183 005f FF       		.byte	-1
 184 0060 01       		.byte	1
 185 0061 00       		.byte	0
 186 0062 00       		.byte	0
 187 0063 00       		.byte	0
 188 0064 C3       		.byte	-61
 189 0065 00       		.byte	0
 190 0066 00       		.byte	0
 191 0067 FF       		.byte	-1
 192 0068 FF       		.byte	-1
 193 0069 FF       		.byte	-1
 194 006a FF       		.byte	-1
 195 006b 00       		.space	1
 196              		.type	eprom_length, %object
 197              		.size	eprom_length, 4
 198              	eprom_length:
 199 006c 6B000000 		.word	107
 200              		.type	eprom_finish, %object
 201              		.size	eprom_finish, 4
 202              	eprom_finish:
 203 0070 6B000000 		.word	107
 204              		.type	eprom_start, %object
 205              		.size	eprom_start, 4
 206              	eprom_start:
 207 0074 00000000 		.space	4
 208              		.type	eprom_termination, %object
 209              		.size	eprom_termination, 4
 210              	eprom_termination:
 211 0078 00000000 		.space	4
 212              		.text
 213              	.Letext0:
 214              		.file 2 "c:\\program files (x86)\\cypress\\psoc creator\\4.2\\psoc creator\\import\\gnu\\arm\\5.4.
 215              		.file 3 "c:\\program files (x86)\\cypress\\psoc creator\\4.2\\psoc creator\\import\\gnu\\arm\\5.4.
 216              		.file 4 "Generated_Source\\PSoC5/cytypes.h"
 217              		.file 5 "Generated_Source\\PSoC5/core_cm3.h"
 218              		.file 6 "ExtSRAM.h"