ARM GAS  C:\Users\HPz420\AppData\Local\Temp\ccHN57tY.s 			page 1


   1              		.syntax unified
   2              		.cpu cortex-m3
   3              		.fpu softvfp
   4              		.eabi_attribute 20, 1
   5              		.eabi_attribute 21, 1
   6              		.eabi_attribute 23, 3
   7              		.eabi_attribute 24, 1
   8              		.eabi_attribute 25, 1
   9              		.eabi_attribute 26, 1
  10              		.eabi_attribute 30, 1
  11              		.eabi_attribute 34, 1
  12              		.eabi_attribute 18, 4
  13              		.thumb
  14              		.syntax unified
  15              		.file	"main.c"
  16              		.text
  17              	.Ltext0:
  18              		.cfi_sections	.debug_frame
  19              		.section	.text.PostLed,"ax",%progbits
  20              		.align	2
  21              		.global	PostLed
  22              		.thumb
  23              		.thumb_func
  24              		.type	PostLed, %function
  25              	PostLed:
  26              	.LFB64:
  27              		.file 1 "main.c"
   1:main.c        **** /* ========================================
   2:main.c        ****  *
   3:main.c        ****  * Copyright LAND BOARDS, LLC, 2019
   4:main.c        ****  * All Rights Reserved
   5:main.c        ****  * UNPUBLISHED, LICENSED SOFTWARE.
   6:main.c        ****  *
   7:main.c        ****  * CONFIDENTIAL AND PROPRIETARY INFORMATION
   8:main.c        ****  * WHICH IS THE PROPERTY OF your company.
   9:main.c        ****  *
  10:main.c        ****  * ========================================
  11:main.c        **** */
  12:main.c        **** #include "project.h"
  13:main.c        **** #include "stdio.h"
  14:main.c        **** #include "FrontPanel.h"
  15:main.c        **** #include "ExtSRAM.h"
  16:main.c        **** 
  17:main.c        **** extern void loadSRAM(void);
  18:main.c        **** 
  19:main.c        **** #define USBFS_DEVICE    (0u)
  20:main.c        **** 
  21:main.c        **** /* The buffer size is equal to the maximum packet size of the IN and OUT bulk
  22:main.c        **** * endpoints.
  23:main.c        **** */
  24:main.c        **** #define USBUART_BUFFER_SIZE (64u)
  25:main.c        **** #define LINE_STR_LENGTH     (20u)
  26:main.c        **** 
  27:main.c        **** #define IORQ_BIT    1
  28:main.c        **** 
  29:main.c        **** ////////////////////////////////////////////////////////////////////////////
  30:main.c        **** // Function prototypes
ARM GAS  C:\Users\HPz420\AppData\Local\Temp\ccHN57tY.s 			page 2


  31:main.c        **** 
  32:main.c        **** uint32 TestSRAM(void);
  33:main.c        **** void HandleZ80IO(void);
  34:main.c        **** 
  35:main.c        **** ////////////////////////////////////////////////////////////////////////////
  36:main.c        **** // PostLed(postVal) - Blink the LED the number of times (postVal)
  37:main.c        **** 
  38:main.c        **** void PostLed(uint32 postVal)
  39:main.c        **** {
  28              		.loc 1 39 0
  29              		.cfi_startproc
  30              		@ args = 0, pretend = 0, frame = 0
  31              		@ frame_needed = 0, uses_anonymous_args = 0
  32              	.LVL0:
  33 0000 10B5     		push	{r4, lr}
  34              		.cfi_def_cfa_offset 8
  35              		.cfi_offset 4, -8
  36              		.cfi_offset 14, -4
  37 0002 0446     		mov	r4, r0
  38              	.LVL1:
  40:main.c        ****     uint32 blinkCount = postVal;
  41:main.c        ****     while(blinkCount > 0)
  39              		.loc 1 41 0
  40 0004 0DE0     		b	.L2
  41              	.LVL2:
  42              	.L3:
  42:main.c        ****     {
  43:main.c        ****         IO_Ctrl_Reg_Write(2);   // Turn on the LED
  43              		.loc 1 43 0
  44 0006 0220     		movs	r0, #2
  45 0008 FFF7FEFF 		bl	IO_Ctrl_Reg_Write
  46              	.LVL3:
  44:main.c        ****         CyDelay(500);
  47              		.loc 1 44 0
  48 000c 4FF4FA70 		mov	r0, #500
  49 0010 FFF7FEFF 		bl	CyDelay
  50              	.LVL4:
  45:main.c        ****         IO_Ctrl_Reg_Write(0);   // Turn off the LED
  51              		.loc 1 45 0
  52 0014 0020     		movs	r0, #0
  53 0016 FFF7FEFF 		bl	IO_Ctrl_Reg_Write
  54              	.LVL5:
  46:main.c        ****         CyDelay(250);
  55              		.loc 1 46 0
  56 001a FA20     		movs	r0, #250
  57 001c FFF7FEFF 		bl	CyDelay
  58              	.LVL6:
  47:main.c        ****         blinkCount--;   // loop as many times as the POST code
  59              		.loc 1 47 0
  60 0020 013C     		subs	r4, r4, #1
  61              	.LVL7:
  62              	.L2:
  41:main.c        ****     {
  63              		.loc 1 41 0
  64 0022 002C     		cmp	r4, #0
  65 0024 EFD1     		bne	.L3
  48:main.c        ****     }
ARM GAS  C:\Users\HPz420\AppData\Local\Temp\ccHN57tY.s 			page 3


  49:main.c        **** }
  66              		.loc 1 49 0
  67 0026 10BD     		pop	{r4, pc}
  68              		.cfi_endproc
  69              	.LFE64:
  70              		.size	PostLed, .-PostLed
  71              		.section	.text.main,"ax",%progbits
  72              		.align	2
  73              		.global	main
  74              		.thumb
  75              		.thumb_func
  76              		.type	main, %function
  77              	main:
  78              	.LFB65:
  50:main.c        **** ////////////////////////////////////////////////////////////////////////////
  51:main.c        **** // main() - Setup and Loop code goes in here
  52:main.c        **** 
  53:main.c        **** int main(void)
  54:main.c        **** {
  79              		.loc 1 54 0
  80              		.cfi_startproc
  81              		@ args = 0, pretend = 0, frame = 64
  82              		@ frame_needed = 0, uses_anonymous_args = 0
  83 0000 10B5     		push	{r4, lr}
  84              		.cfi_def_cfa_offset 8
  85              		.cfi_offset 4, -8
  86              		.cfi_offset 14, -4
  87 0002 90B0     		sub	sp, sp, #64
  88              		.cfi_def_cfa_offset 72
  55:main.c        ****     uint16 count;
  56:main.c        ****     
  57:main.c        ****     uint8 buffer[USBUART_BUFFER_SIZE];
  58:main.c        ****     uint32 postVal;
  59:main.c        ****     
  60:main.c        ****     /* Start USBFS operation with 5-V operation. */
  61:main.c        ****     USBUART_Start(USBFS_DEVICE, USBUART_5V_OPERATION);
  89              		.loc 1 61 0
  90 0004 0121     		movs	r1, #1
  91 0006 0020     		movs	r0, #0
  92 0008 FFF7FEFF 		bl	USBUART_Start
  93              	.LVL8:
  62:main.c        ****     I2C_Start();
  94              		.loc 1 62 0
  95 000c FFF7FEFF 		bl	I2C_Start
  96              	.LVL9:
  63:main.c        ****     
  64:main.c        ****     CyGlobalIntEnable;          /* Enable global interrupts. */
  97              		.loc 1 64 0
  98              		.syntax unified
  99              	@ 64 "main.c" 1
 100 0010 62B6     		CPSIE   i
 101              	@ 0 "" 2
  65:main.c        ****     
  66:main.c        ****     // Do Power On Self Tests (POST)
  67:main.c        ****     // SRAM POST
  68:main.c        ****     postVal = TestSRAM();       // Run External SRAM POST
 102              		.loc 1 68 0
ARM GAS  C:\Users\HPz420\AppData\Local\Temp\ccHN57tY.s 			page 4


 103              		.thumb
 104              		.syntax unified
 105 0012 FFF7FEFF 		bl	TestSRAM
 106              	.LVL10:
 107 0016 0446     		mov	r4, r0
 108              	.LVL11:
  69:main.c        ****     PostLed(postVal+1);         // 1 blink = pass, more than 1 = fail
 109              		.loc 1 69 0
 110 0018 0130     		adds	r0, r0, #1
 111              	.LVL12:
 112 001a FFF7FEFF 		bl	PostLed
 113              	.LVL13:
  70:main.c        ****     if (postVal != 0)
 114              		.loc 1 70 0
 115 001e 04B1     		cbz	r4, .L6
 116              	.L7:
 117 0020 FEE7     		b	.L7
 118              	.L6:
  71:main.c        ****         while(1);
  72:main.c        ****     loadSRAM();
 119              		.loc 1 72 0
 120 0022 FFF7FEFF 		bl	loadSRAM
 121              	.LVL14:
  73:main.c        ****     runFrontPanel();            // Exits either by pressing EXitFrontPanel or RUN button on front p
 122              		.loc 1 73 0
 123 0026 FFF7FEFF 		bl	runFrontPanel
 124              	.LVL15:
 125              	.L10:
  74:main.c        **** 
  75:main.c        ****     for(;;)
  76:main.c        ****     {
  77:main.c        ****         /* Host can send double SET_INTERFACE request. */
  78:main.c        ****         if (0u != USBUART_IsConfigurationChanged())
 126              		.loc 1 78 0
 127 002a FFF7FEFF 		bl	USBUART_IsConfigurationChanged
 128              	.LVL16:
 129 002e 20B1     		cbz	r0, .L8
  79:main.c        ****         {
  80:main.c        ****             /* Initialize IN endpoints when device is configured. */
  81:main.c        ****             if (0u != USBUART_GetConfiguration())
 130              		.loc 1 81 0
 131 0030 FFF7FEFF 		bl	USBUART_GetConfiguration
 132              	.LVL17:
 133 0034 08B1     		cbz	r0, .L8
  82:main.c        ****             {
  83:main.c        ****                 /* Enumeration is done, enable OUT endpoint to receive data 
  84:main.c        ****                  * from host. */
  85:main.c        ****                 USBUART_CDC_Init();
 134              		.loc 1 85 0
 135 0036 FFF7FEFF 		bl	USBUART_CDC_Init
 136              	.LVL18:
 137              	.L8:
  86:main.c        ****             }
  87:main.c        ****         }
  88:main.c        **** 
  89:main.c        ****         /* Service USB CDC when device is configured. */
  90:main.c        ****         if (0u != USBUART_GetConfiguration())
ARM GAS  C:\Users\HPz420\AppData\Local\Temp\ccHN57tY.s 			page 5


 138              		.loc 1 90 0
 139 003a FFF7FEFF 		bl	USBUART_GetConfiguration
 140              	.LVL19:
 141 003e 48B1     		cbz	r0, .L9
  91:main.c        ****         {
  92:main.c        ****             /* Check for input data from host. */
  93:main.c        ****             if (0u != USBUART_DataIsReady())
 142              		.loc 1 93 0
 143 0040 FFF7FEFF 		bl	USBUART_DataIsReady
 144              	.LVL20:
 145 0044 30B1     		cbz	r0, .L9
 146              	.LBB2:
  94:main.c        ****             {
  95:main.c        ****                 /* Read received data and re-enable OUT endpoint. */
  96:main.c        ****                 count = USBUART_GetAll(buffer);
 147              		.loc 1 96 0
 148 0046 6846     		mov	r0, sp
 149 0048 FFF7FEFF 		bl	USBUART_GetAll
 150              	.LVL21:
  97:main.c        ****                 sendCharToZ80(buffer[0]);
 151              		.loc 1 97 0
 152 004c 9DF80000 		ldrb	r0, [sp]	@ zero_extendqisi2
 153 0050 FFF7FEFF 		bl	sendCharToZ80
 154              	.LVL22:
 155              	.L9:
 156              	.LBE2:
  98:main.c        **** 
  99:main.c        **** //                if (0u != count)
 100:main.c        **** //                {
 101:main.c        **** //                    /* Wait until component is ready to send data to host. */
 102:main.c        **** //                    while (0u == USBUART_CDCIsReady())
 103:main.c        **** //                    {
 104:main.c        **** //                    }
 105:main.c        **** //
 106:main.c        **** //                    /* Send data back to host. */
 107:main.c        **** //                    USBUART_PutData(buffer, count);
 108:main.c        **** //
 109:main.c        **** //                    /* If the last sent packet is exactly the maximum packet 
 110:main.c        **** //                    *  size, it is followed by a zero-length packet to assure
 111:main.c        **** //                    *  that the end of the segment is properly identified by 
 112:main.c        **** //                    *  the terminal.
 113:main.c        **** //                    */
 114:main.c        **** //                    if (USBUART_BUFFER_SIZE == count)
 115:main.c        **** //                    {
 116:main.c        **** //                        /* Wait until component is ready to send data to PC. */
 117:main.c        **** //                        while (0u == USBUART_CDCIsReady())
 118:main.c        **** //                        {
 119:main.c        **** //                        }
 120:main.c        **** //
 121:main.c        **** //                        /* Send zero-length packet to PC. */
 122:main.c        **** //                        USBUART_PutData(NULL, 0u);
 123:main.c        **** //                    }
 124:main.c        **** //                }
 125:main.c        ****             }
 126:main.c        ****         }
 127:main.c        **** 
 128:main.c        ****         if ((IO_Stat_Reg_Read() & IORQ_BIT) == 0x0)
ARM GAS  C:\Users\HPz420\AppData\Local\Temp\ccHN57tY.s 			page 6


 157              		.loc 1 128 0
 158 0054 FFF7FEFF 		bl	IO_Stat_Reg_Read
 159              	.LVL23:
 160 0058 10F0010F 		tst	r0, #1
 161 005c E5D1     		bne	.L10
 129:main.c        ****         {
 130:main.c        ****             HandleZ80IO();
 162              		.loc 1 130 0
 163 005e FFF7FEFF 		bl	HandleZ80IO
 164              	.LVL24:
 165 0062 E2E7     		b	.L10
 166              		.cfi_endproc
 167              	.LFE65:
 168              		.size	main, .-main
 169              		.text
 170              	.Letext0:
 171              		.file 2 "c:\\program files (x86)\\cypress\\psoc creator\\4.2\\psoc creator\\import\\gnu\\arm\\5.4.
 172              		.file 3 "c:\\program files (x86)\\cypress\\psoc creator\\4.2\\psoc creator\\import\\gnu\\arm\\5.4.
 173              		.file 4 "Generated_Source\\PSoC5/cytypes.h"
 174              		.file 5 "Generated_Source\\PSoC5/IO_Ctrl_Reg.h"
 175              		.file 6 "Generated_Source\\PSoC5/CyLib.h"
 176              		.file 7 "Generated_Source\\PSoC5/USBUART_cdc.h"
 177              		.file 8 "Generated_Source\\PSoC5/USBUART.h"
 178              		.file 9 "Generated_Source\\PSoC5/I2C.h"
 179              		.file 10 "FrontPanel.h"
 180              		.file 11 "Generated_Source\\PSoC5/IO_Stat_Reg.h"
 181              		.file 12 "Generated_Source\\PSoC5/core_cm3.h"