ARM GAS  C:\Users\HPz420\AppData\Local\Temp\cclmyDoQ.s 			page 1


   1              		.syntax unified
   2              		.cpu cortex-m3
   3              		.fpu softvfp
   4              		.eabi_attribute 20, 1
   5              		.eabi_attribute 21, 1
   6              		.eabi_attribute 23, 3
   7              		.eabi_attribute 24, 1
   8              		.eabi_attribute 25, 1
   9              		.eabi_attribute 26, 1
  10              		.eabi_attribute 30, 1
  11              		.eabi_attribute 34, 1
  12              		.eabi_attribute 18, 4
  13              		.thumb
  14              		.syntax unified
  15              		.file	"Z80_SIO_emul.c"
  16              		.text
  17              	.Ltext0:
  18              		.cfi_sections	.debug_frame
  19              		.section	.text.ackIO,"ax",%progbits
  20              		.align	2
  21              		.global	ackIO
  22              		.thumb
  23              		.thumb_func
  24              		.type	ackIO, %function
  25              	ackIO:
  26              	.LFB63:
  27              		.file 1 "Z80_SIO_emul.c"
   1:Z80_SIO_emul.c **** /* ========================================
   2:Z80_SIO_emul.c ****  *
   3:Z80_SIO_emul.c ****  * Copyright YOUR COMPANY, THE YEAR
   4:Z80_SIO_emul.c ****  * All Rights Reserved
   5:Z80_SIO_emul.c ****  * UNPUBLISHED, LICENSED SOFTWARE.
   6:Z80_SIO_emul.c ****  *
   7:Z80_SIO_emul.c ****  * CONFIDENTIAL AND PROPRIETARY INFORMATION
   8:Z80_SIO_emul.c ****  * WHICH IS THE PROPERTY OF your company.
   9:Z80_SIO_emul.c ****  *
  10:Z80_SIO_emul.c ****  * ========================================
  11:Z80_SIO_emul.c **** */
  12:Z80_SIO_emul.c **** 
  13:Z80_SIO_emul.c **** #include <project.h>
  14:Z80_SIO_emul.c **** #include "Z80_SIO_emul.h"
  15:Z80_SIO_emul.c **** 
  16:Z80_SIO_emul.c **** volatile uint8 SIO_A_Ctrl1;
  17:Z80_SIO_emul.c **** volatile uint8 SIO_A_Ctrl2;
  18:Z80_SIO_emul.c **** volatile uint8 SIO_A_Status;
  19:Z80_SIO_emul.c **** volatile uint8 SIO_A_DataOut;
  20:Z80_SIO_emul.c **** volatile uint8 SIO_A_DataIn;
  21:Z80_SIO_emul.c **** volatile uint8 SIO_A_Ctrl_Count;
  22:Z80_SIO_emul.c **** volatile uint8 SIO_A_WR0;
  23:Z80_SIO_emul.c **** volatile uint8 SIO_A_WR1;
  24:Z80_SIO_emul.c **** volatile uint8 SIO_A_WR2;
  25:Z80_SIO_emul.c **** volatile uint8 SIO_A_WR3;
  26:Z80_SIO_emul.c **** volatile uint8 SIO_A_WR4;
  27:Z80_SIO_emul.c **** volatile uint8 SIO_A_WR5;
  28:Z80_SIO_emul.c **** volatile uint8 SIO_A_WR6;
  29:Z80_SIO_emul.c **** volatile uint8 SIO_A_WR7;
  30:Z80_SIO_emul.c **** volatile uint8 SIO_A_RD0;
ARM GAS  C:\Users\HPz420\AppData\Local\Temp\cclmyDoQ.s 			page 2


  31:Z80_SIO_emul.c **** volatile uint8 SIO_A_RD1;
  32:Z80_SIO_emul.c **** volatile uint8 SIO_A_RD2;
  33:Z80_SIO_emul.c **** volatile uint8 UART_A_TXD;
  34:Z80_SIO_emul.c **** volatile uint8 UART_A_TXD_BUSY;
  35:Z80_SIO_emul.c **** 
  36:Z80_SIO_emul.c **** volatile uint8 SIO_B_Ctrl1;
  37:Z80_SIO_emul.c **** volatile uint8 SIO_B_Ctrl2;
  38:Z80_SIO_emul.c **** volatile uint8 SIO_B_Status;
  39:Z80_SIO_emul.c **** volatile uint8 SIO_B_DataOut;
  40:Z80_SIO_emul.c **** volatile uint8 SIO_B_DataIn;
  41:Z80_SIO_emul.c **** volatile uint8 SIO_B_Ctrl_Count;
  42:Z80_SIO_emul.c **** volatile uint8 SIO_B_WR0;
  43:Z80_SIO_emul.c **** volatile uint8 SIO_B_WR1;
  44:Z80_SIO_emul.c **** volatile uint8 SIO_B_WR2;
  45:Z80_SIO_emul.c **** volatile uint8 SIO_B_WR3;
  46:Z80_SIO_emul.c **** volatile uint8 SIO_B_WR4;
  47:Z80_SIO_emul.c **** volatile uint8 SIO_B_WR5;
  48:Z80_SIO_emul.c **** volatile uint8 SIO_B_WR6;
  49:Z80_SIO_emul.c **** volatile uint8 SIO_B_WR7;
  50:Z80_SIO_emul.c **** volatile uint8 SIO_B_RD0;
  51:Z80_SIO_emul.c **** volatile uint8 SIO_B_RD1;
  52:Z80_SIO_emul.c **** volatile uint8 SIO_B_RD2;
  53:Z80_SIO_emul.c **** volatile uint8 UART_B_TXD;
  54:Z80_SIO_emul.c **** volatile uint8 UART_B_TXD_BUSY;
  55:Z80_SIO_emul.c **** 
  56:Z80_SIO_emul.c **** void ackIO(void)
  57:Z80_SIO_emul.c **** {
  28              		.loc 1 57 0
  29              		.cfi_startproc
  30              		@ args = 0, pretend = 0, frame = 0
  31              		@ frame_needed = 0, uses_anonymous_args = 0
  32 0000 08B5     		push	{r3, lr}
  33              		.cfi_def_cfa_offset 8
  34              		.cfi_offset 3, -8
  35              		.cfi_offset 14, -4
  58:Z80_SIO_emul.c ****     IO_Ctrl_Reg_Write(IO_Ctrl_Reg_Read() | CLR_IO_INT_BIT);
  36              		.loc 1 58 0
  37 0002 FFF7FEFF 		bl	IO_Ctrl_Reg_Read
  38              	.LVL0:
  39 0006 40F00100 		orr	r0, r0, #1
  40 000a C0B2     		uxtb	r0, r0
  41 000c FFF7FEFF 		bl	IO_Ctrl_Reg_Write
  42              	.LVL1:
  43 0010 08BD     		pop	{r3, pc}
  44              		.cfi_endproc
  45              	.LFE63:
  46              		.size	ackIO, .-ackIO
  47 0012 00BF     		.section	.text.waitNextIORq,"ax",%progbits
  48              		.align	2
  49              		.global	waitNextIORq
  50              		.thumb
  51              		.thumb_func
  52              		.type	waitNextIORq, %function
  53              	waitNextIORq:
  54              	.LFB64:
  59:Z80_SIO_emul.c **** }
  60:Z80_SIO_emul.c **** 
ARM GAS  C:\Users\HPz420\AppData\Local\Temp\cclmyDoQ.s 			page 3


  61:Z80_SIO_emul.c **** void waitNextIORq(void)
  62:Z80_SIO_emul.c **** {
  55              		.loc 1 62 0
  56              		.cfi_startproc
  57              		@ args = 0, pretend = 0, frame = 0
  58              		@ frame_needed = 0, uses_anonymous_args = 0
  59 0000 08B5     		push	{r3, lr}
  60              		.cfi_def_cfa_offset 8
  61              		.cfi_offset 3, -8
  62              		.cfi_offset 14, -4
  63              	.L4:
  63:Z80_SIO_emul.c ****     while ((IO_Stat_Reg_Read() & IOBUSY) == 0x00);
  64              		.loc 1 63 0 discriminator 1
  65 0002 FFF7FEFF 		bl	IO_Stat_Reg_Read
  66              	.LVL2:
  67 0006 10F0100F 		tst	r0, #16
  68 000a FAD0     		beq	.L4
  64:Z80_SIO_emul.c **** }
  69              		.loc 1 64 0
  70 000c 08BD     		pop	{r3, pc}
  71              		.cfi_endproc
  72              	.LFE64:
  73              		.size	waitNextIORq, .-waitNextIORq
  74 000e 00BF     		.section	.text.sendCharToZ80,"ax",%progbits
  75              		.align	2
  76              		.global	sendCharToZ80
  77              		.thumb
  78              		.thumb_func
  79              		.type	sendCharToZ80, %function
  80              	sendCharToZ80:
  81              	.LFB65:
  65:Z80_SIO_emul.c **** 
  66:Z80_SIO_emul.c **** void sendCharToZ80(uint8 rxChar)
  67:Z80_SIO_emul.c **** {
  82              		.loc 1 67 0
  83              		.cfi_startproc
  84              		@ args = 0, pretend = 0, frame = 0
  85              		@ frame_needed = 0, uses_anonymous_args = 0
  86              	.LVL3:
  87 0000 08B5     		push	{r3, lr}
  88              		.cfi_def_cfa_offset 8
  89              		.cfi_offset 3, -8
  90              		.cfi_offset 14, -4
  68:Z80_SIO_emul.c ****     SIO_A_DataIn = rxChar;                          // Put the char into the buffer
  91              		.loc 1 68 0
  92 0002 074B     		ldr	r3, .L8
  93 0004 1870     		strb	r0, [r3]
  69:Z80_SIO_emul.c ****     SIO_A_RD0 |= 0x1;                               // Rx Character Available
  94              		.loc 1 69 0
  95 0006 074A     		ldr	r2, .L8+4
  96 0008 1378     		ldrb	r3, [r2]	@ zero_extendqisi2
  97 000a 43F00103 		orr	r3, r3, #1
  98 000e 1370     		strb	r3, [r2]
  70:Z80_SIO_emul.c ****     IO_Ctrl_Reg_Write(IO_Ctrl_Reg_Read() | 0x04);   // Set IRQ* line
  99              		.loc 1 70 0
 100 0010 FFF7FEFF 		bl	IO_Ctrl_Reg_Read
 101              	.LVL4:
ARM GAS  C:\Users\HPz420\AppData\Local\Temp\cclmyDoQ.s 			page 4


 102 0014 40F00400 		orr	r0, r0, #4
 103 0018 C0B2     		uxtb	r0, r0
 104 001a FFF7FEFF 		bl	IO_Ctrl_Reg_Write
 105              	.LVL5:
 106 001e 08BD     		pop	{r3, pc}
 107              	.L9:
 108              		.align	2
 109              	.L8:
 110 0020 00000000 		.word	SIO_A_DataIn
 111 0024 00000000 		.word	SIO_A_RD0
 112              		.cfi_endproc
 113              	.LFE65:
 114              		.size	sendCharToZ80, .-sendCharToZ80
 115              		.section	.text.SioReadDataA,"ax",%progbits
 116              		.align	2
 117              		.global	SioReadDataA
 118              		.thumb
 119              		.thumb_func
 120              		.type	SioReadDataA, %function
 121              	SioReadDataA:
 122              	.LFB66:
  71:Z80_SIO_emul.c **** }
  72:Z80_SIO_emul.c **** 
  73:Z80_SIO_emul.c **** void SioReadDataA(void)
  74:Z80_SIO_emul.c **** {
 123              		.loc 1 74 0
 124              		.cfi_startproc
 125              		@ args = 0, pretend = 0, frame = 0
 126              		@ frame_needed = 0, uses_anonymous_args = 0
 127 0000 08B5     		push	{r3, lr}
 128              		.cfi_def_cfa_offset 8
 129              		.cfi_offset 3, -8
 130              		.cfi_offset 14, -4
  75:Z80_SIO_emul.c ****     Z80_Data_In_Write(SIO_A_DataIn);
 131              		.loc 1 75 0
 132 0002 064B     		ldr	r3, .L12
 133 0004 1878     		ldrb	r0, [r3]	@ zero_extendqisi2
 134 0006 FFF7FEFF 		bl	Z80_Data_In_Write
 135              	.LVL6:
  76:Z80_SIO_emul.c ****     SIO_A_RD0 &= 0xFE;                              // No Rx Character Available
 136              		.loc 1 76 0
 137 000a 054A     		ldr	r2, .L12+4
 138 000c 1378     		ldrb	r3, [r2]	@ zero_extendqisi2
 139 000e 03F0FE03 		and	r3, r3, #254
 140 0012 1370     		strb	r3, [r2]
  77:Z80_SIO_emul.c ****     ackIO();
 141              		.loc 1 77 0
 142 0014 FFF7FEFF 		bl	ackIO
 143              	.LVL7:
 144 0018 08BD     		pop	{r3, pc}
 145              	.L13:
 146 001a 00BF     		.align	2
 147              	.L12:
 148 001c 00000000 		.word	SIO_A_DataIn
 149 0020 00000000 		.word	SIO_A_RD0
 150              		.cfi_endproc
 151              	.LFE66:
ARM GAS  C:\Users\HPz420\AppData\Local\Temp\cclmyDoQ.s 			page 5


 152              		.size	SioReadDataA, .-SioReadDataA
 153              		.section	.text.SioWriteDataA,"ax",%progbits
 154              		.align	2
 155              		.global	SioWriteDataA
 156              		.thumb
 157              		.thumb_func
 158              		.type	SioWriteDataA, %function
 159              	SioWriteDataA:
 160              	.LFB67:
  78:Z80_SIO_emul.c **** }
  79:Z80_SIO_emul.c **** 
  80:Z80_SIO_emul.c **** void SioWriteDataA(void)
  81:Z80_SIO_emul.c **** {
 161              		.loc 1 81 0
 162              		.cfi_startproc
 163              		@ args = 0, pretend = 0, frame = 64
 164              		@ frame_needed = 0, uses_anonymous_args = 0
 165 0000 00B5     		push	{lr}
 166              		.cfi_def_cfa_offset 4
 167              		.cfi_offset 14, -4
 168 0002 91B0     		sub	sp, sp, #68
 169              		.cfi_def_cfa_offset 72
 170              	.L15:
  82:Z80_SIO_emul.c ****     uint8 buffer[64];
  83:Z80_SIO_emul.c ****     uint16 count = 1;
  84:Z80_SIO_emul.c ****     while (0u == USBUART_CDCIsReady());
 171              		.loc 1 84 0 discriminator 1
 172 0004 FFF7FEFF 		bl	USBUART_CDCIsReady
 173              	.LVL8:
 174 0008 0028     		cmp	r0, #0
 175 000a FBD0     		beq	.L15
  85:Z80_SIO_emul.c ****     buffer[0] = Z80_Data_Out_Read();
 176              		.loc 1 85 0
 177 000c FFF7FEFF 		bl	Z80_Data_Out_Read
 178              	.LVL9:
 179 0010 10AB     		add	r3, sp, #64
 180 0012 03F8400D 		strb	r0, [r3, #-64]!
  86:Z80_SIO_emul.c ****     USBUART_PutData(buffer, count);
 181              		.loc 1 86 0
 182 0016 0121     		movs	r1, #1
 183 0018 1846     		mov	r0, r3
 184 001a FFF7FEFF 		bl	USBUART_PutData
 185              	.LVL10:
  87:Z80_SIO_emul.c ****     ackIO();
 186              		.loc 1 87 0
 187 001e FFF7FEFF 		bl	ackIO
 188              	.LVL11:
  88:Z80_SIO_emul.c ****     UART_A_TXD_BUSY = 1;
 189              		.loc 1 88 0
 190 0022 0122     		movs	r2, #1
 191 0024 024B     		ldr	r3, .L17
 192 0026 1A70     		strb	r2, [r3]
  89:Z80_SIO_emul.c **** }
 193              		.loc 1 89 0
 194 0028 11B0     		add	sp, sp, #68
 195              		.cfi_def_cfa_offset 4
 196              		@ sp needed
ARM GAS  C:\Users\HPz420\AppData\Local\Temp\cclmyDoQ.s 			page 6


 197 002a 5DF804FB 		ldr	pc, [sp], #4
 198              	.L18:
 199 002e 00BF     		.align	2
 200              	.L17:
 201 0030 00000000 		.word	UART_A_TXD_BUSY
 202              		.cfi_endproc
 203              	.LFE67:
 204              		.size	SioWriteDataA, .-SioWriteDataA
 205              		.section	.text.SioReadStatusA,"ax",%progbits
 206              		.align	2
 207              		.global	SioReadStatusA
 208              		.thumb
 209              		.thumb_func
 210              		.type	SioReadStatusA, %function
 211              	SioReadStatusA:
 212              	.LFB68:
  90:Z80_SIO_emul.c **** 
  91:Z80_SIO_emul.c **** void SioReadStatusA(uint8 regNum)
  92:Z80_SIO_emul.c **** {
 213              		.loc 1 92 0
 214              		.cfi_startproc
 215              		@ args = 0, pretend = 0, frame = 0
 216              		@ frame_needed = 0, uses_anonymous_args = 0
 217              	.LVL12:
 218 0000 08B5     		push	{r3, lr}
 219              		.cfi_def_cfa_offset 8
 220              		.cfi_offset 3, -8
 221              		.cfi_offset 14, -4
  93:Z80_SIO_emul.c ****     switch (regNum)
 222              		.loc 1 93 0
 223 0002 0128     		cmp	r0, #1
 224 0004 0AD0     		beq	.L21
 225 0006 10B1     		cbz	r0, .L22
 226 0008 0228     		cmp	r0, #2
 227 000a 0ED0     		beq	.L23
 228 000c 08BD     		pop	{r3, pc}
 229              	.L22:
  94:Z80_SIO_emul.c ****     {
  95:Z80_SIO_emul.c ****         // SIO_A_WR0 bottom bits determine which read register is read
  96:Z80_SIO_emul.c ****         case 0x00:
  97:Z80_SIO_emul.c ****         {
  98:Z80_SIO_emul.c ****             // p 292 of um0081
  99:Z80_SIO_emul.c ****             // D0 - Receive character ready - 1 at least one char in receiver
 100:Z80_SIO_emul.c ****             // D1 - Interrupt Pending (Channel A register only) 
 101:Z80_SIO_emul.c ****             // D2 - Transmit Buffer Empty - 1 = Tx Buffer is empty
 102:Z80_SIO_emul.c ****             // D3 - DCD - not used
 103:Z80_SIO_emul.c ****             // D4 - Sync/Hunt - ignored
 104:Z80_SIO_emul.c ****             // D5 - CTS - 
 105:Z80_SIO_emul.c ****             // D6 - Tx Underrun
 106:Z80_SIO_emul.c ****             // D7 - Break/Abort
 107:Z80_SIO_emul.c ****             Z80_Data_In_Write(SIO_A_RD0);
 230              		.loc 1 107 0
 231 000e 0A4B     		ldr	r3, .L25
 232 0010 1878     		ldrb	r0, [r3]	@ zero_extendqisi2
 233              	.LVL13:
 234 0012 FFF7FEFF 		bl	Z80_Data_In_Write
 235              	.LVL14:
ARM GAS  C:\Users\HPz420\AppData\Local\Temp\cclmyDoQ.s 			page 7


 108:Z80_SIO_emul.c ****             ackIO();
 236              		.loc 1 108 0
 237 0016 FFF7FEFF 		bl	ackIO
 238              	.LVL15:
 109:Z80_SIO_emul.c ****             return;
 239              		.loc 1 109 0
 240 001a 08BD     		pop	{r3, pc}
 241              	.LVL16:
 242              	.L21:
 110:Z80_SIO_emul.c ****             break;
 111:Z80_SIO_emul.c ****         }
 112:Z80_SIO_emul.c ****         case 0x01:
 113:Z80_SIO_emul.c ****         {
 114:Z80_SIO_emul.c ****             // p 297 of um0081
 115:Z80_SIO_emul.c ****             // SIO_RD1
 116:Z80_SIO_emul.c ****             //  D0 - All tx chars have been sent
 117:Z80_SIO_emul.c ****             // Special Rx condition status - not used
 118:Z80_SIO_emul.c ****             Z80_Data_In_Write(SIO_A_RD1);
 243              		.loc 1 118 0
 244 001c 074B     		ldr	r3, .L25+4
 245 001e 1878     		ldrb	r0, [r3]	@ zero_extendqisi2
 246              	.LVL17:
 247 0020 FFF7FEFF 		bl	Z80_Data_In_Write
 248              	.LVL18:
 119:Z80_SIO_emul.c ****             ackIO();
 249              		.loc 1 119 0
 250 0024 FFF7FEFF 		bl	ackIO
 251              	.LVL19:
 120:Z80_SIO_emul.c ****             return;
 252              		.loc 1 120 0
 253 0028 08BD     		pop	{r3, pc}
 254              	.LVL20:
 255              	.L23:
 121:Z80_SIO_emul.c ****             break;
 122:Z80_SIO_emul.c ****         }
 123:Z80_SIO_emul.c ****         case 0x02:
 124:Z80_SIO_emul.c ****         {
 125:Z80_SIO_emul.c ****             // p 300 of um0081
 126:Z80_SIO_emul.c ****             // Only used in status register B
 127:Z80_SIO_emul.c ****             Z80_Data_In_Write(SIO_A_RD2);
 256              		.loc 1 127 0
 257 002a 054B     		ldr	r3, .L25+8
 258 002c 1878     		ldrb	r0, [r3]	@ zero_extendqisi2
 259              	.LVL21:
 260 002e FFF7FEFF 		bl	Z80_Data_In_Write
 261              	.LVL22:
 128:Z80_SIO_emul.c ****             ackIO();
 262              		.loc 1 128 0
 263 0032 FFF7FEFF 		bl	ackIO
 264              	.LVL23:
 265 0036 08BD     		pop	{r3, pc}
 266              	.L26:
 267              		.align	2
 268              	.L25:
 269 0038 00000000 		.word	SIO_A_RD0
 270 003c 00000000 		.word	SIO_A_RD1
 271 0040 00000000 		.word	SIO_A_RD2
ARM GAS  C:\Users\HPz420\AppData\Local\Temp\cclmyDoQ.s 			page 8


 272              		.cfi_endproc
 273              	.LFE68:
 274              		.size	SioReadStatusA, .-SioReadStatusA
 275              		.section	.text.SioReadIntRegA,"ax",%progbits
 276              		.align	2
 277              		.global	SioReadIntRegA
 278              		.thumb
 279              		.thumb_func
 280              		.type	SioReadIntRegA, %function
 281              	SioReadIntRegA:
 282              	.LFB69:
 129:Z80_SIO_emul.c ****             return;
 130:Z80_SIO_emul.c ****             break;
 131:Z80_SIO_emul.c ****         }
 132:Z80_SIO_emul.c ****     }
 133:Z80_SIO_emul.c **** }
 134:Z80_SIO_emul.c **** 
 135:Z80_SIO_emul.c **** void SioReadIntRegA()
 136:Z80_SIO_emul.c **** {
 283              		.loc 1 136 0
 284              		.cfi_startproc
 285              		@ args = 0, pretend = 0, frame = 0
 286              		@ frame_needed = 0, uses_anonymous_args = 0
 287 0000 08B5     		push	{r3, lr}
 288              		.cfi_def_cfa_offset 8
 289              		.cfi_offset 3, -8
 290              		.cfi_offset 14, -4
 137:Z80_SIO_emul.c ****     Z80_Data_In_Write(SIO_B_WR2);
 291              		.loc 1 137 0
 292 0002 064B     		ldr	r3, .L29
 293 0004 1878     		ldrb	r0, [r3]	@ zero_extendqisi2
 294 0006 FFF7FEFF 		bl	Z80_Data_In_Write
 295              	.LVL24:
 138:Z80_SIO_emul.c ****     IO_Ctrl_Reg_Write(IO_Ctrl_Reg_Read() & 0xFB);   // Clear IRQ* line
 296              		.loc 1 138 0
 297 000a FFF7FEFF 		bl	IO_Ctrl_Reg_Read
 298              	.LVL25:
 299 000e 00F0FB00 		and	r0, r0, #251
 300 0012 FFF7FEFF 		bl	IO_Ctrl_Reg_Write
 301              	.LVL26:
 139:Z80_SIO_emul.c ****     ackIO();
 302              		.loc 1 139 0
 303 0016 FFF7FEFF 		bl	ackIO
 304              	.LVL27:
 305 001a 08BD     		pop	{r3, pc}
 306              	.L30:
 307              		.align	2
 308              	.L29:
 309 001c 00000000 		.word	SIO_B_WR2
 310              		.cfi_endproc
 311              	.LFE69:
 312              		.size	SioReadIntRegA, .-SioReadIntRegA
 313              		.section	.text.SioWriteCtrlA,"ax",%progbits
 314              		.align	2
 315              		.global	SioWriteCtrlA
 316              		.thumb
 317              		.thumb_func
ARM GAS  C:\Users\HPz420\AppData\Local\Temp\cclmyDoQ.s 			page 9


 318              		.type	SioWriteCtrlA, %function
 319              	SioWriteCtrlA:
 320              	.LFB70:
 140:Z80_SIO_emul.c **** }
 141:Z80_SIO_emul.c **** 
 142:Z80_SIO_emul.c **** void SioWriteCtrlA(void)
 143:Z80_SIO_emul.c **** {
 321              		.loc 1 143 0
 322              		.cfi_startproc
 323              		@ args = 0, pretend = 0, frame = 0
 324              		@ frame_needed = 0, uses_anonymous_args = 0
 325 0000 10B5     		push	{r4, lr}
 326              		.cfi_def_cfa_offset 8
 327              		.cfi_offset 4, -8
 328              		.cfi_offset 14, -4
 144:Z80_SIO_emul.c ****     uint8 regNum;
 145:Z80_SIO_emul.c ****     SIO_A_Ctrl1 = Z80_Data_Out_Read();   // Get the first command which selects register of second 
 329              		.loc 1 145 0
 330 0002 FFF7FEFF 		bl	Z80_Data_Out_Read
 331              	.LVL28:
 332 0006 3C4C     		ldr	r4, .L45
 333 0008 2070     		strb	r0, [r4]
 146:Z80_SIO_emul.c ****     ackIO();
 334              		.loc 1 146 0
 335 000a FFF7FEFF 		bl	ackIO
 336              	.LVL29:
 147:Z80_SIO_emul.c ****     regNum = SIO_A_Ctrl1 & 0x7;          // bottom 3 bits are the address of the next access
 337              		.loc 1 147 0
 338 000e 2478     		ldrb	r4, [r4]	@ zero_extendqisi2
 339 0010 04F00704 		and	r4, r4, #7
 340              	.LVL30:
 148:Z80_SIO_emul.c ****     waitNextIORq();                       // wait for next IO cycle since it's the contents
 341              		.loc 1 148 0
 342 0014 FFF7FEFF 		bl	waitNextIORq
 343              	.LVL31:
 149:Z80_SIO_emul.c ****     if (IO_Stat_Reg_Status == REGULAR_READ_CYCLE)
 344              		.loc 1 149 0
 345 0018 384B     		ldr	r3, .L45+4
 346 001a 1B78     		ldrb	r3, [r3]	@ zero_extendqisi2
 347 001c DBB2     		uxtb	r3, r3
 348 001e 1C2B     		cmp	r3, #28
 349 0020 03D1     		bne	.L32
 150:Z80_SIO_emul.c ****     {
 151:Z80_SIO_emul.c ****         SioReadStatusA(regNum);
 350              		.loc 1 151 0
 351 0022 2046     		mov	r0, r4
 352 0024 FFF7FEFF 		bl	SioReadStatusA
 353              	.LVL32:
 152:Z80_SIO_emul.c ****         return;
 354              		.loc 1 152 0
 355 0028 10BD     		pop	{r4, pc}
 356              	.LVL33:
 357              	.L32:
 153:Z80_SIO_emul.c ****     }
 154:Z80_SIO_emul.c ****     else if (IO_Stat_Reg_Status == INTR_READ_CYCLE)
 358              		.loc 1 154 0
 359 002a 344B     		ldr	r3, .L45+4
ARM GAS  C:\Users\HPz420\AppData\Local\Temp\cclmyDoQ.s 			page 10


 360 002c 1B78     		ldrb	r3, [r3]	@ zero_extendqisi2
 361 002e DBB2     		uxtb	r3, r3
 362 0030 142B     		cmp	r3, #20
 363 0032 03D1     		bne	.L34
 155:Z80_SIO_emul.c ****     {
 156:Z80_SIO_emul.c ****         SioReadIntRegA(regNum);
 364              		.loc 1 156 0
 365 0034 2046     		mov	r0, r4
 366 0036 FFF7FEFF 		bl	SioReadIntRegA
 367              	.LVL34:
 157:Z80_SIO_emul.c ****         return;
 368              		.loc 1 157 0
 369 003a 10BD     		pop	{r4, pc}
 370              	.LVL35:
 371              	.L34:
 158:Z80_SIO_emul.c ****     }
 159:Z80_SIO_emul.c ****     // Not a read cycle, therefore a write cycle
 160:Z80_SIO_emul.c ****     SIO_A_Ctrl2 = Z80_Data_Out_Read();
 372              		.loc 1 160 0
 373 003c FFF7FEFF 		bl	Z80_Data_Out_Read
 374              	.LVL36:
 375 0040 2F4B     		ldr	r3, .L45+8
 376 0042 1870     		strb	r0, [r3]
 161:Z80_SIO_emul.c ****     ackIO();
 377              		.loc 1 161 0
 378 0044 FFF7FEFF 		bl	ackIO
 379              	.LVL37:
 162:Z80_SIO_emul.c ****     switch(regNum)
 380              		.loc 1 162 0
 381 0048 072C     		cmp	r4, #7
 382 004a 53D8     		bhi	.L31
 383 004c DFE804F0 		tbb	[pc, r4]
 384              	.L36:
 385 0050 04       		.byte	(.L35-.L36)/2
 386 0051 29       		.byte	(.L37-.L36)/2
 387 0052 2F       		.byte	(.L38-.L36)/2
 388 0053 35       		.byte	(.L39-.L36)/2
 389 0054 3B       		.byte	(.L40-.L36)/2
 390 0055 41       		.byte	(.L41-.L36)/2
 391 0056 47       		.byte	(.L42-.L36)/2
 392 0057 4D       		.byte	(.L43-.L36)/2
 393              		.p2align 1
 394              	.L35:
 163:Z80_SIO_emul.c ****     {
 164:Z80_SIO_emul.c ****         case 0x0:
 165:Z80_SIO_emul.c ****             SIO_A_WR0 = SIO_A_Ctrl2;
 395              		.loc 1 165 0
 396 0058 294B     		ldr	r3, .L45+8
 397 005a 1B78     		ldrb	r3, [r3]	@ zero_extendqisi2
 398 005c DBB2     		uxtb	r3, r3
 399 005e 294A     		ldr	r2, .L45+12
 400 0060 1370     		strb	r3, [r2]
 166:Z80_SIO_emul.c ****             // Only implementing the reset command
 167:Z80_SIO_emul.c ****             // p 275 of um0081 - All control registers for the channel must be rewritten after a Ch
 168:Z80_SIO_emul.c ****             if ((SIO_A_WR0 & 0x18) == 0x18)     // Channel reset clears registers 
 401              		.loc 1 168 0
 402 0062 1378     		ldrb	r3, [r2]	@ zero_extendqisi2
ARM GAS  C:\Users\HPz420\AppData\Local\Temp\cclmyDoQ.s 			page 11


 403 0064 03F01803 		and	r3, r3, #24
 404 0068 182B     		cmp	r3, #24
 405 006a 43D1     		bne	.L31
 169:Z80_SIO_emul.c ****             {
 170:Z80_SIO_emul.c ****                 SIO_A_WR0 = 0x0;
 406              		.loc 1 170 0
 407 006c 0023     		movs	r3, #0
 408 006e 1370     		strb	r3, [r2]
 171:Z80_SIO_emul.c ****                 SIO_A_WR1 = 0x0;
 409              		.loc 1 171 0
 410 0070 254A     		ldr	r2, .L45+16
 411 0072 1370     		strb	r3, [r2]
 172:Z80_SIO_emul.c ****                 SIO_A_WR2 = 0x0;
 412              		.loc 1 172 0
 413 0074 254A     		ldr	r2, .L45+20
 414 0076 1370     		strb	r3, [r2]
 173:Z80_SIO_emul.c ****                 SIO_A_WR3 = 0x0;
 415              		.loc 1 173 0
 416 0078 254A     		ldr	r2, .L45+24
 417 007a 1370     		strb	r3, [r2]
 174:Z80_SIO_emul.c ****                 SIO_A_WR4 = 0x0;
 418              		.loc 1 174 0
 419 007c 254A     		ldr	r2, .L45+28
 420 007e 1370     		strb	r3, [r2]
 175:Z80_SIO_emul.c ****                 SIO_A_WR5 = 0x0;
 421              		.loc 1 175 0
 422 0080 254A     		ldr	r2, .L45+32
 423 0082 1370     		strb	r3, [r2]
 176:Z80_SIO_emul.c ****                 SIO_A_WR6 = 0x0;
 424              		.loc 1 176 0
 425 0084 254A     		ldr	r2, .L45+36
 426 0086 1370     		strb	r3, [r2]
 177:Z80_SIO_emul.c ****                 SIO_A_WR7 = 0x0;
 427              		.loc 1 177 0
 428 0088 254A     		ldr	r2, .L45+40
 429 008a 1370     		strb	r3, [r2]
 178:Z80_SIO_emul.c ****                 SIO_A_RD0 = 0x44;
 430              		.loc 1 178 0
 431 008c 4421     		movs	r1, #68
 432 008e 254A     		ldr	r2, .L45+44
 433 0090 1170     		strb	r1, [r2]
 179:Z80_SIO_emul.c ****                 SIO_A_RD1 = 0x01;
 434              		.loc 1 179 0
 435 0092 0121     		movs	r1, #1
 436 0094 244A     		ldr	r2, .L45+48
 437 0096 1170     		strb	r1, [r2]
 180:Z80_SIO_emul.c ****                 SIO_A_RD2 = 0x00;
 438              		.loc 1 180 0
 439 0098 244A     		ldr	r2, .L45+52
 440 009a 1370     		strb	r3, [r2]
 181:Z80_SIO_emul.c ****                 UART_A_TXD_BUSY = 0;
 441              		.loc 1 181 0
 442 009c 244A     		ldr	r2, .L45+56
 443 009e 1370     		strb	r3, [r2]
 444 00a0 10BD     		pop	{r4, pc}
 445              	.LVL38:
 446              	.L37:
ARM GAS  C:\Users\HPz420\AppData\Local\Temp\cclmyDoQ.s 			page 12


 182:Z80_SIO_emul.c ****             }
 183:Z80_SIO_emul.c ****             break;
 184:Z80_SIO_emul.c ****         case 0x1:               
 185:Z80_SIO_emul.c ****             // p 277 of um0081
 186:Z80_SIO_emul.c ****             /// D0 - Ext int enable - not using interrupt on CTS
 187:Z80_SIO_emul.c ****             // D1 - Tx Int Enable - Not using
 188:Z80_SIO_emul.c ****             // D2 - Status affect vector is only active on Channel B
 189:Z80_SIO_emul.c ****             // D3, D4 - 00 = Rx Int disabled, 01 = Rx Int on first char, 10 = Rx Int on all chars (
 190:Z80_SIO_emul.c ****             // D5, D6 - Wait/RDY function select - ignoring
 191:Z80_SIO_emul.c ****             // D7 - Use Wait/RDY function - ignoring
 192:Z80_SIO_emul.c ****             SIO_A_WR1 = SIO_A_Ctrl2;
 447              		.loc 1 192 0
 448 00a2 174B     		ldr	r3, .L45+8
 449 00a4 1B78     		ldrb	r3, [r3]	@ zero_extendqisi2
 450 00a6 DBB2     		uxtb	r3, r3
 451 00a8 174A     		ldr	r2, .L45+16
 452 00aa 1370     		strb	r3, [r2]
 193:Z80_SIO_emul.c ****             break;
 453              		.loc 1 193 0
 454 00ac 10BD     		pop	{r4, pc}
 455              	.LVL39:
 456              	.L38:
 194:Z80_SIO_emul.c ****         case 0x2:
 195:Z80_SIO_emul.c ****             // p 281 of um0081
 196:Z80_SIO_emul.c ****             // Interrupt vector - only used in channel B
 197:Z80_SIO_emul.c ****             SIO_A_WR2 = SIO_A_Ctrl2;
 457              		.loc 1 197 0
 458 00ae 144B     		ldr	r3, .L45+8
 459 00b0 1B78     		ldrb	r3, [r3]	@ zero_extendqisi2
 460 00b2 DBB2     		uxtb	r3, r3
 461 00b4 154A     		ldr	r2, .L45+20
 462 00b6 1370     		strb	r3, [r2]
 198:Z80_SIO_emul.c ****             break;
 463              		.loc 1 198 0
 464 00b8 10BD     		pop	{r4, pc}
 465              	.LVL40:
 466              	.L39:
 199:Z80_SIO_emul.c ****         case 0x3:
 200:Z80_SIO_emul.c ****             // p 282 
 201:Z80_SIO_emul.c ****             // D0 - Receiver enable - always used
 202:Z80_SIO_emul.c ****             // D1 - Sync char load inhibit - not used
 203:Z80_SIO_emul.c ****             // D2 - Address Search Mode SDLC mode - not used
 204:Z80_SIO_emul.c ****             // D3 - Receiver CRC enable - not used
 205:Z80_SIO_emul.c ****             // D4 - Enter hunt phase Synch or SDLC - not used
 206:Z80_SIO_emul.c ****             // D5 - Auto enables - polled vs automatic use of CTS - not needed for USB-Serial for p
 207:Z80_SIO_emul.c ****             // D6, D7 - Rx Bits/char - 11 = 8 bits/char - normal value expected
 208:Z80_SIO_emul.c ****             SIO_A_WR3 = SIO_A_Ctrl2;
 467              		.loc 1 208 0
 468 00ba 114B     		ldr	r3, .L45+8
 469 00bc 1B78     		ldrb	r3, [r3]	@ zero_extendqisi2
 470 00be DBB2     		uxtb	r3, r3
 471 00c0 134A     		ldr	r2, .L45+24
 472 00c2 1370     		strb	r3, [r2]
 209:Z80_SIO_emul.c ****             break;
 473              		.loc 1 209 0
 474 00c4 10BD     		pop	{r4, pc}
 475              	.LVL41:
ARM GAS  C:\Users\HPz420\AppData\Local\Temp\cclmyDoQ.s 			page 13


 476              	.L40:
 210:Z80_SIO_emul.c ****         case 0x4:
 211:Z80_SIO_emul.c ****             // p 284 D0 = Parity - Not used
 212:Z80_SIO_emul.c ****             // D1 = Parity odd/even - Not used
 213:Z80_SIO_emul.c ****             // D2,D3 - 01 = 1 stop bit per character
 214:Z80_SIO_emul.c ****             // D4, D5 - Sync modes - Ignored
 215:Z80_SIO_emul.c ****             // D6, D7 - Clock rate - set by USB-Serial interface automatically so ignored for Port 
 216:Z80_SIO_emul.c ****             // Grant has 7.2738 MHz - divided by 64 = 115,200 baud
 217:Z80_SIO_emul.c ****             SIO_A_WR4 = SIO_A_Ctrl2;
 477              		.loc 1 217 0
 478 00c6 0E4B     		ldr	r3, .L45+8
 479 00c8 1B78     		ldrb	r3, [r3]	@ zero_extendqisi2
 480 00ca DBB2     		uxtb	r3, r3
 481 00cc 114A     		ldr	r2, .L45+28
 482 00ce 1370     		strb	r3, [r2]
 218:Z80_SIO_emul.c ****             break;
 483              		.loc 1 218 0
 484 00d0 10BD     		pop	{r4, pc}
 485              	.LVL42:
 486              	.L41:
 219:Z80_SIO_emul.c ****         case 0x5:
 220:Z80_SIO_emul.c ****             // p 287
 221:Z80_SIO_emul.c ****             // Grant's code sets this to 0xEA
 222:Z80_SIO_emul.c ****             // D0 - Tx CRC enable
 223:Z80_SIO_emul.c ****             // D1 - RTS - allows RTS to be manually set
 224:Z80_SIO_emul.c ****             // D2 - CRC-16/SDLC - Not used
 225:Z80_SIO_emul.c ****             // D3 - Transmit Enable
 226:Z80_SIO_emul.c ****             // D4 - Send break - not used
 227:Z80_SIO_emul.c ****             // D5, D6 - SYNC mode - Not used
 228:Z80_SIO_emul.c ****             // D7 - DTR - allows DTR to be manually set
 229:Z80_SIO_emul.c ****             SIO_A_WR5 = SIO_A_Ctrl2;
 487              		.loc 1 229 0
 488 00d2 0B4B     		ldr	r3, .L45+8
 489 00d4 1B78     		ldrb	r3, [r3]	@ zero_extendqisi2
 490 00d6 DBB2     		uxtb	r3, r3
 491 00d8 0F4A     		ldr	r2, .L45+32
 492 00da 1370     		strb	r3, [r2]
 230:Z80_SIO_emul.c ****             break;
 493              		.loc 1 230 0
 494 00dc 10BD     		pop	{r4, pc}
 495              	.LVL43:
 496              	.L42:
 231:Z80_SIO_emul.c ****         case 0x6:
 232:Z80_SIO_emul.c ****             // D90D7 - SYNC bits - not used
 233:Z80_SIO_emul.c ****             SIO_A_WR6 = SIO_A_Ctrl2;
 497              		.loc 1 233 0
 498 00de 084B     		ldr	r3, .L45+8
 499 00e0 1B78     		ldrb	r3, [r3]	@ zero_extendqisi2
 500 00e2 DBB2     		uxtb	r3, r3
 501 00e4 0D4A     		ldr	r2, .L45+36
 502 00e6 1370     		strb	r3, [r2]
 234:Z80_SIO_emul.c ****             break;
 503              		.loc 1 234 0
 504 00e8 10BD     		pop	{r4, pc}
 505              	.LVL44:
 506              	.L43:
 235:Z80_SIO_emul.c ****         case 0x7:
ARM GAS  C:\Users\HPz420\AppData\Local\Temp\cclmyDoQ.s 			page 14


 236:Z80_SIO_emul.c ****             // D0-D7 - receive sync character - not used
 237:Z80_SIO_emul.c ****             SIO_A_WR7 = SIO_A_Ctrl2;
 507              		.loc 1 237 0
 508 00ea 054B     		ldr	r3, .L45+8
 509 00ec 1B78     		ldrb	r3, [r3]	@ zero_extendqisi2
 510 00ee DBB2     		uxtb	r3, r3
 511 00f0 0B4A     		ldr	r2, .L45+40
 512 00f2 1370     		strb	r3, [r2]
 513              	.L31:
 514 00f4 10BD     		pop	{r4, pc}
 515              	.LVL45:
 516              	.L46:
 517 00f6 00BF     		.align	2
 518              	.L45:
 519 00f8 00000000 		.word	SIO_A_Ctrl1
 520 00fc 67640040 		.word	1073767527
 521 0100 00000000 		.word	SIO_A_Ctrl2
 522 0104 00000000 		.word	SIO_A_WR0
 523 0108 00000000 		.word	SIO_A_WR1
 524 010c 00000000 		.word	SIO_A_WR2
 525 0110 00000000 		.word	SIO_A_WR3
 526 0114 00000000 		.word	SIO_A_WR4
 527 0118 00000000 		.word	SIO_A_WR5
 528 011c 00000000 		.word	SIO_A_WR6
 529 0120 00000000 		.word	SIO_A_WR7
 530 0124 00000000 		.word	SIO_A_RD0
 531 0128 00000000 		.word	SIO_A_RD1
 532 012c 00000000 		.word	SIO_A_RD2
 533 0130 00000000 		.word	UART_A_TXD_BUSY
 534              		.cfi_endproc
 535              	.LFE70:
 536              		.size	SioWriteCtrlA, .-SioWriteCtrlA
 537              		.section	.text.SioReadDataB,"ax",%progbits
 538              		.align	2
 539              		.global	SioReadDataB
 540              		.thumb
 541              		.thumb_func
 542              		.type	SioReadDataB, %function
 543              	SioReadDataB:
 544              	.LFB71:
 238:Z80_SIO_emul.c ****             break;
 239:Z80_SIO_emul.c ****     }
 240:Z80_SIO_emul.c **** }
 241:Z80_SIO_emul.c **** 
 242:Z80_SIO_emul.c **** void SioReadDataB(void)
 243:Z80_SIO_emul.c **** {
 545              		.loc 1 243 0
 546              		.cfi_startproc
 547              		@ args = 0, pretend = 0, frame = 0
 548              		@ frame_needed = 0, uses_anonymous_args = 0
 549              		@ link register save eliminated.
 550 0000 7047     		bx	lr
 551              		.cfi_endproc
 552              	.LFE71:
 553              		.size	SioReadDataB, .-SioReadDataB
 554 0002 00BF     		.section	.text.SioWriteDataB,"ax",%progbits
 555              		.align	2
ARM GAS  C:\Users\HPz420\AppData\Local\Temp\cclmyDoQ.s 			page 15


 556              		.global	SioWriteDataB
 557              		.thumb
 558              		.thumb_func
 559              		.type	SioWriteDataB, %function
 560              	SioWriteDataB:
 561              	.LFB72:
 244:Z80_SIO_emul.c ****     
 245:Z80_SIO_emul.c **** }
 246:Z80_SIO_emul.c **** 
 247:Z80_SIO_emul.c **** void SioWriteDataB(void)
 248:Z80_SIO_emul.c **** {
 562              		.loc 1 248 0
 563              		.cfi_startproc
 564              		@ args = 0, pretend = 0, frame = 0
 565              		@ frame_needed = 0, uses_anonymous_args = 0
 566              		@ link register save eliminated.
 249:Z80_SIO_emul.c ****     UART_B_TXD = 0;
 567              		.loc 1 249 0
 568 0000 0022     		movs	r2, #0
 569 0002 014B     		ldr	r3, .L49
 570 0004 1A70     		strb	r2, [r3]
 571 0006 7047     		bx	lr
 572              	.L50:
 573              		.align	2
 574              	.L49:
 575 0008 00000000 		.word	UART_B_TXD
 576              		.cfi_endproc
 577              	.LFE72:
 578              		.size	SioWriteDataB, .-SioWriteDataB
 579              		.section	.text.SioReadStatusB,"ax",%progbits
 580              		.align	2
 581              		.global	SioReadStatusB
 582              		.thumb
 583              		.thumb_func
 584              		.type	SioReadStatusB, %function
 585              	SioReadStatusB:
 586              	.LFB73:
 250:Z80_SIO_emul.c **** }
 251:Z80_SIO_emul.c **** 
 252:Z80_SIO_emul.c **** void SioReadStatusB(uint8 regNum)
 253:Z80_SIO_emul.c **** {
 587              		.loc 1 253 0
 588              		.cfi_startproc
 589              		@ args = 0, pretend = 0, frame = 0
 590              		@ frame_needed = 0, uses_anonymous_args = 0
 591              	.LVL46:
 592 0000 08B5     		push	{r3, lr}
 593              		.cfi_def_cfa_offset 8
 594              		.cfi_offset 3, -8
 595              		.cfi_offset 14, -4
 254:Z80_SIO_emul.c ****     switch (regNum)
 596              		.loc 1 254 0
 597 0002 0128     		cmp	r0, #1
 598 0004 07D0     		beq	.L53
 599 0006 10B1     		cbz	r0, .L54
 600 0008 0228     		cmp	r0, #2
 601 000a 08D0     		beq	.L55
ARM GAS  C:\Users\HPz420\AppData\Local\Temp\cclmyDoQ.s 			page 16


 602 000c 0BE0     		b	.L52
 603              	.L54:
 255:Z80_SIO_emul.c ****     {
 256:Z80_SIO_emul.c ****         // SIO_B_WR0 bottom bits determine which read register is read
 257:Z80_SIO_emul.c ****         case 0x00:
 258:Z80_SIO_emul.c ****         {
 259:Z80_SIO_emul.c ****             // D0 - Receive character ready - 1 at least one char in receiver
 260:Z80_SIO_emul.c ****             // D1 - Interrupt Pending (Channel A register only) 
 261:Z80_SIO_emul.c ****             // D2 - Transmit Buffer Empty - 1 = Tx Buffer is empty
 262:Z80_SIO_emul.c ****             // D3 - DCD - not used
 263:Z80_SIO_emul.c ****             // D4 - Sync/Hunt - ignored
 264:Z80_SIO_emul.c ****             // D5 - CTS - 
 265:Z80_SIO_emul.c ****             // D6 - Tx Underrun
 266:Z80_SIO_emul.c ****             // D7 - Break/Abort
 267:Z80_SIO_emul.c ****             Z80_Data_In_Write(SIO_B_RD0);
 604              		.loc 1 267 0
 605 000e 074B     		ldr	r3, .L57
 606 0010 1878     		ldrb	r0, [r3]	@ zero_extendqisi2
 607              	.LVL47:
 608 0012 FFF7FEFF 		bl	Z80_Data_In_Write
 609              	.LVL48:
 610              	.L53:
 268:Z80_SIO_emul.c ****         }
 269:Z80_SIO_emul.c ****         case 0x01:
 270:Z80_SIO_emul.c ****         {
 271:Z80_SIO_emul.c ****             // Special Rx condition status - not used
 272:Z80_SIO_emul.c ****             Z80_Data_In_Write(SIO_B_RD1);
 611              		.loc 1 272 0
 612 0016 064B     		ldr	r3, .L57+4
 613 0018 1878     		ldrb	r0, [r3]	@ zero_extendqisi2
 614 001a FFF7FEFF 		bl	Z80_Data_In_Write
 615              	.LVL49:
 616              	.L55:
 273:Z80_SIO_emul.c ****         }
 274:Z80_SIO_emul.c ****         case 0x02:
 275:Z80_SIO_emul.c ****         {
 276:Z80_SIO_emul.c ****             // Only used in status register B
 277:Z80_SIO_emul.c ****             Z80_Data_In_Write(SIO_B_RD2);
 617              		.loc 1 277 0
 618 001e 054B     		ldr	r3, .L57+8
 619 0020 1878     		ldrb	r0, [r3]	@ zero_extendqisi2
 620 0022 FFF7FEFF 		bl	Z80_Data_In_Write
 621              	.LVL50:
 622              	.L52:
 278:Z80_SIO_emul.c ****         }
 279:Z80_SIO_emul.c ****     }
 280:Z80_SIO_emul.c ****     ackIO();    
 623              		.loc 1 280 0
 624 0026 FFF7FEFF 		bl	ackIO
 625              	.LVL51:
 626 002a 08BD     		pop	{r3, pc}
 627              	.L58:
 628              		.align	2
 629              	.L57:
 630 002c 00000000 		.word	SIO_B_RD0
 631 0030 00000000 		.word	SIO_B_RD1
 632 0034 00000000 		.word	SIO_B_RD2
ARM GAS  C:\Users\HPz420\AppData\Local\Temp\cclmyDoQ.s 			page 17


 633              		.cfi_endproc
 634              	.LFE73:
 635              		.size	SioReadStatusB, .-SioReadStatusB
 636              		.section	.text.SioReadIntRegB,"ax",%progbits
 637              		.align	2
 638              		.global	SioReadIntRegB
 639              		.thumb
 640              		.thumb_func
 641              		.type	SioReadIntRegB, %function
 642              	SioReadIntRegB:
 643              	.LFB74:
 281:Z80_SIO_emul.c **** }
 282:Z80_SIO_emul.c **** 
 283:Z80_SIO_emul.c **** void SioReadIntRegB(void)
 284:Z80_SIO_emul.c **** {
 644              		.loc 1 284 0
 645              		.cfi_startproc
 646              		@ args = 0, pretend = 0, frame = 0
 647              		@ frame_needed = 0, uses_anonymous_args = 0
 648 0000 08B5     		push	{r3, lr}
 649              		.cfi_def_cfa_offset 8
 650              		.cfi_offset 3, -8
 651              		.cfi_offset 14, -4
 285:Z80_SIO_emul.c ****     Z80_Data_In_Write(SIO_B_WR2);
 652              		.loc 1 285 0
 653 0002 064B     		ldr	r3, .L61
 654 0004 1878     		ldrb	r0, [r3]	@ zero_extendqisi2
 655 0006 FFF7FEFF 		bl	Z80_Data_In_Write
 656              	.LVL52:
 286:Z80_SIO_emul.c ****     IO_Ctrl_Reg_Write(IO_Ctrl_Reg_Read() & 0xFB);   // Clear IRQ* line
 657              		.loc 1 286 0
 658 000a FFF7FEFF 		bl	IO_Ctrl_Reg_Read
 659              	.LVL53:
 660 000e 00F0FB00 		and	r0, r0, #251
 661 0012 FFF7FEFF 		bl	IO_Ctrl_Reg_Write
 662              	.LVL54:
 287:Z80_SIO_emul.c ****     ackIO();
 663              		.loc 1 287 0
 664 0016 FFF7FEFF 		bl	ackIO
 665              	.LVL55:
 666 001a 08BD     		pop	{r3, pc}
 667              	.L62:
 668              		.align	2
 669              	.L61:
 670 001c 00000000 		.word	SIO_B_WR2
 671              		.cfi_endproc
 672              	.LFE74:
 673              		.size	SioReadIntRegB, .-SioReadIntRegB
 674              		.section	.text.SioWriteCtrlB,"ax",%progbits
 675              		.align	2
 676              		.global	SioWriteCtrlB
 677              		.thumb
 678              		.thumb_func
 679              		.type	SioWriteCtrlB, %function
 680              	SioWriteCtrlB:
 681              	.LFB75:
 288:Z80_SIO_emul.c **** }
ARM GAS  C:\Users\HPz420\AppData\Local\Temp\cclmyDoQ.s 			page 18


 289:Z80_SIO_emul.c **** 
 290:Z80_SIO_emul.c **** void SioWriteCtrlB(void)
 291:Z80_SIO_emul.c **** {
 682              		.loc 1 291 0
 683              		.cfi_startproc
 684              		@ args = 0, pretend = 0, frame = 0
 685              		@ frame_needed = 0, uses_anonymous_args = 0
 686 0000 10B5     		push	{r4, lr}
 687              		.cfi_def_cfa_offset 8
 688              		.cfi_offset 4, -8
 689              		.cfi_offset 14, -4
 292:Z80_SIO_emul.c ****     uint8 regNum;
 293:Z80_SIO_emul.c ****     SIO_B_Ctrl1 = Z80_Data_Out_Read();   // Get the first command which selects register of second 
 690              		.loc 1 293 0
 691 0002 FFF7FEFF 		bl	Z80_Data_Out_Read
 692              	.LVL56:
 693 0006 384C     		ldr	r4, .L77
 694 0008 2070     		strb	r0, [r4]
 294:Z80_SIO_emul.c ****     ackIO();
 695              		.loc 1 294 0
 696 000a FFF7FEFF 		bl	ackIO
 697              	.LVL57:
 295:Z80_SIO_emul.c ****     regNum = SIO_B_Ctrl1 & 0x7;          // bottom 3 bits are the address of the next access
 698              		.loc 1 295 0
 699 000e 2478     		ldrb	r4, [r4]	@ zero_extendqisi2
 700 0010 04F00704 		and	r4, r4, #7
 701              	.LVL58:
 296:Z80_SIO_emul.c ****     waitNextIORq();                     // wait for next IO cycle since it's the contents
 702              		.loc 1 296 0
 703 0014 FFF7FEFF 		bl	waitNextIORq
 704              	.LVL59:
 297:Z80_SIO_emul.c ****     if (IO_Stat_Reg_Status == REGULAR_READ_CYCLE)
 705              		.loc 1 297 0
 706 0018 344B     		ldr	r3, .L77+4
 707 001a 1B78     		ldrb	r3, [r3]	@ zero_extendqisi2
 708 001c DBB2     		uxtb	r3, r3
 709 001e 1C2B     		cmp	r3, #28
 710 0020 03D1     		bne	.L64
 298:Z80_SIO_emul.c ****     {
 299:Z80_SIO_emul.c ****         SioReadStatusB(regNum);
 711              		.loc 1 299 0
 712 0022 2046     		mov	r0, r4
 713 0024 FFF7FEFF 		bl	SioReadStatusB
 714              	.LVL60:
 300:Z80_SIO_emul.c ****         return;
 715              		.loc 1 300 0
 716 0028 10BD     		pop	{r4, pc}
 717              	.LVL61:
 718              	.L64:
 301:Z80_SIO_emul.c ****     }
 302:Z80_SIO_emul.c ****     else if (IO_Stat_Reg_Status == INTR_READ_CYCLE)
 719              		.loc 1 302 0
 720 002a 304B     		ldr	r3, .L77+4
 721 002c 1B78     		ldrb	r3, [r3]	@ zero_extendqisi2
 722 002e DBB2     		uxtb	r3, r3
 723 0030 142B     		cmp	r3, #20
 724 0032 02D1     		bne	.L66
ARM GAS  C:\Users\HPz420\AppData\Local\Temp\cclmyDoQ.s 			page 19


 303:Z80_SIO_emul.c ****     {
 304:Z80_SIO_emul.c ****         SioReadIntRegB();
 725              		.loc 1 304 0
 726 0034 FFF7FEFF 		bl	SioReadIntRegB
 727              	.LVL62:
 305:Z80_SIO_emul.c ****         return;
 728              		.loc 1 305 0
 729 0038 10BD     		pop	{r4, pc}
 730              	.LVL63:
 731              	.L66:
 306:Z80_SIO_emul.c ****     }
 307:Z80_SIO_emul.c ****     // Not a read cycle, therefore a write cycle
 308:Z80_SIO_emul.c ****     SIO_B_Ctrl2 = Z80_Data_Out_Read();
 732              		.loc 1 308 0
 733 003a FFF7FEFF 		bl	Z80_Data_Out_Read
 734              	.LVL64:
 735 003e 2C4B     		ldr	r3, .L77+8
 736 0040 1870     		strb	r0, [r3]
 309:Z80_SIO_emul.c ****     ackIO();
 737              		.loc 1 309 0
 738 0042 FFF7FEFF 		bl	ackIO
 739              	.LVL65:
 310:Z80_SIO_emul.c ****     switch(regNum)
 740              		.loc 1 310 0
 741 0046 072C     		cmp	r4, #7
 742 0048 4CD8     		bhi	.L63
 743 004a DFE804F0 		tbb	[pc, r4]
 744              	.L68:
 745 004e 04       		.byte	(.L67-.L68)/2
 746 004f 22       		.byte	(.L69-.L68)/2
 747 0050 28       		.byte	(.L70-.L68)/2
 748 0051 2E       		.byte	(.L71-.L68)/2
 749 0052 34       		.byte	(.L72-.L68)/2
 750 0053 3A       		.byte	(.L73-.L68)/2
 751 0054 40       		.byte	(.L74-.L68)/2
 752 0055 46       		.byte	(.L75-.L68)/2
 753              		.p2align 1
 754              	.L67:
 311:Z80_SIO_emul.c ****     {
 312:Z80_SIO_emul.c ****         case 0x0:
 313:Z80_SIO_emul.c ****             SIO_B_WR0 = SIO_B_Ctrl2;
 755              		.loc 1 313 0
 756 0056 264B     		ldr	r3, .L77+8
 757 0058 1B78     		ldrb	r3, [r3]	@ zero_extendqisi2
 758 005a DBB2     		uxtb	r3, r3
 759 005c 254A     		ldr	r2, .L77+12
 760 005e 1370     		strb	r3, [r2]
 314:Z80_SIO_emul.c ****             // Only implementing the reset command
 315:Z80_SIO_emul.c ****             // p 275 of um0081 - All control registers for the channel must be rewritten after a Ch
 316:Z80_SIO_emul.c ****             if ((SIO_B_WR0 & 0x18) == 0x18)     // Channel reset clears registers 
 761              		.loc 1 316 0
 762 0060 1378     		ldrb	r3, [r2]	@ zero_extendqisi2
 763 0062 03F01803 		and	r3, r3, #24
 764 0066 182B     		cmp	r3, #24
 765 0068 3CD1     		bne	.L63
 317:Z80_SIO_emul.c ****             {
 318:Z80_SIO_emul.c ****                 SIO_B_WR0 = 0x0;
ARM GAS  C:\Users\HPz420\AppData\Local\Temp\cclmyDoQ.s 			page 20


 766              		.loc 1 318 0
 767 006a 0023     		movs	r3, #0
 768 006c 1370     		strb	r3, [r2]
 319:Z80_SIO_emul.c ****                 SIO_B_WR1 = 0x0;
 769              		.loc 1 319 0
 770 006e 224A     		ldr	r2, .L77+16
 771 0070 1370     		strb	r3, [r2]
 320:Z80_SIO_emul.c ****                 SIO_B_WR2 = 0x0;
 772              		.loc 1 320 0
 773 0072 224A     		ldr	r2, .L77+20
 774 0074 1370     		strb	r3, [r2]
 321:Z80_SIO_emul.c ****                 SIO_B_WR3 = 0x0;
 775              		.loc 1 321 0
 776 0076 224A     		ldr	r2, .L77+24
 777 0078 1370     		strb	r3, [r2]
 322:Z80_SIO_emul.c ****                 SIO_B_WR4 = 0x0;
 778              		.loc 1 322 0
 779 007a 224A     		ldr	r2, .L77+28
 780 007c 1370     		strb	r3, [r2]
 323:Z80_SIO_emul.c ****                 SIO_B_WR5 = 0x0;
 781              		.loc 1 323 0
 782 007e 224A     		ldr	r2, .L77+32
 783 0080 1370     		strb	r3, [r2]
 324:Z80_SIO_emul.c ****                 SIO_B_WR6 = 0x0;
 784              		.loc 1 324 0
 785 0082 224A     		ldr	r2, .L77+36
 786 0084 1370     		strb	r3, [r2]
 325:Z80_SIO_emul.c ****                 SIO_B_WR7 = 0x0;
 787              		.loc 1 325 0
 788 0086 224A     		ldr	r2, .L77+40
 789 0088 1370     		strb	r3, [r2]
 326:Z80_SIO_emul.c ****                 SIO_B_RD0 = 0x44;
 790              		.loc 1 326 0
 791 008a 4422     		movs	r2, #68
 792 008c 214B     		ldr	r3, .L77+44
 793 008e 1A70     		strb	r2, [r3]
 794 0090 10BD     		pop	{r4, pc}
 795              	.LVL66:
 796              	.L69:
 327:Z80_SIO_emul.c ****             }
 328:Z80_SIO_emul.c ****             break;
 329:Z80_SIO_emul.c ****         case 0x1:               
 330:Z80_SIO_emul.c ****             // p 277 of um0081
 331:Z80_SIO_emul.c ****             /// D0 - Ext int enable - not using interrupt on CTS
 332:Z80_SIO_emul.c ****             // D1 - Tx Int Enable - Not using
 333:Z80_SIO_emul.c ****             // D2 - Status affect vector is only active on Channel B
 334:Z80_SIO_emul.c ****             // D3, D4 - 00 = Rx Int disabled, 01 = Rx Int on first char, 10 = Rx Int on all chars (
 335:Z80_SIO_emul.c ****             // D5, D6 - Wait/RDY function select - ignoring
 336:Z80_SIO_emul.c ****             // D7 - Use Wait/RDY function - ignoring
 337:Z80_SIO_emul.c ****             SIO_B_WR1 = SIO_B_Ctrl2;
 797              		.loc 1 337 0
 798 0092 174B     		ldr	r3, .L77+8
 799 0094 1B78     		ldrb	r3, [r3]	@ zero_extendqisi2
 800 0096 DBB2     		uxtb	r3, r3
 801 0098 174A     		ldr	r2, .L77+16
 802 009a 1370     		strb	r3, [r2]
 338:Z80_SIO_emul.c ****             break;
ARM GAS  C:\Users\HPz420\AppData\Local\Temp\cclmyDoQ.s 			page 21


 803              		.loc 1 338 0
 804 009c 10BD     		pop	{r4, pc}
 805              	.LVL67:
 806              	.L70:
 339:Z80_SIO_emul.c ****         case 0x2:
 340:Z80_SIO_emul.c ****             // p 281 of um0081
 341:Z80_SIO_emul.c ****             // Interrupt vector - only used in channel B
 342:Z80_SIO_emul.c ****             SIO_B_WR2 = SIO_B_Ctrl2;
 807              		.loc 1 342 0
 808 009e 144B     		ldr	r3, .L77+8
 809 00a0 1B78     		ldrb	r3, [r3]	@ zero_extendqisi2
 810 00a2 DBB2     		uxtb	r3, r3
 811 00a4 154A     		ldr	r2, .L77+20
 812 00a6 1370     		strb	r3, [r2]
 343:Z80_SIO_emul.c ****             break;
 813              		.loc 1 343 0
 814 00a8 10BD     		pop	{r4, pc}
 815              	.LVL68:
 816              	.L71:
 344:Z80_SIO_emul.c ****         case 0x3:
 345:Z80_SIO_emul.c ****             // D0 - Receiver enable - always used
 346:Z80_SIO_emul.c ****             // D1 - Sync char load inhibit - not used
 347:Z80_SIO_emul.c ****             // D2 - Address Search Mode SDLC mode - not used
 348:Z80_SIO_emul.c ****             // D3 - Receiver CRC enable - not used
 349:Z80_SIO_emul.c ****             // D4 - Enter hunt phase Synch or SDLC - not used
 350:Z80_SIO_emul.c ****             // D5 - Auto enables - polled vs automatic use of CTS - not used for port A (maybe B?)
 351:Z80_SIO_emul.c ****             // D6, D7 - Rx Bits/char - 11 = 8 bits/char - normal value expected
 352:Z80_SIO_emul.c ****             SIO_B_WR3 = SIO_B_Ctrl2;
 817              		.loc 1 352 0
 818 00aa 114B     		ldr	r3, .L77+8
 819 00ac 1B78     		ldrb	r3, [r3]	@ zero_extendqisi2
 820 00ae DBB2     		uxtb	r3, r3
 821 00b0 134A     		ldr	r2, .L77+24
 822 00b2 1370     		strb	r3, [r2]
 353:Z80_SIO_emul.c ****             break;
 823              		.loc 1 353 0
 824 00b4 10BD     		pop	{r4, pc}
 825              	.LVL69:
 826              	.L72:
 354:Z80_SIO_emul.c ****         case 0x4:
 355:Z80_SIO_emul.c ****             // D0 = Parity - Not used
 356:Z80_SIO_emul.c ****             // D1 = Parity odd/even - Not used
 357:Z80_SIO_emul.c ****             // D2,D3 - 01 = 1 stop bit per character
 358:Z80_SIO_emul.c ****             // D4, D5 - Sync modes - Ignored
 359:Z80_SIO_emul.c ****             // D6, D7 - Clock rate - set by USB-Serial interface automatically so ignored for Port 
 360:Z80_SIO_emul.c ****             // Grant has 7.2738 MHz - divided by 64 = 115,200 baud
 361:Z80_SIO_emul.c ****             SIO_B_WR4 = SIO_B_Ctrl2;
 827              		.loc 1 361 0
 828 00b6 0E4B     		ldr	r3, .L77+8
 829 00b8 1B78     		ldrb	r3, [r3]	@ zero_extendqisi2
 830 00ba DBB2     		uxtb	r3, r3
 831 00bc 114A     		ldr	r2, .L77+28
 832 00be 1370     		strb	r3, [r2]
 362:Z80_SIO_emul.c ****             break;
 833              		.loc 1 362 0
 834 00c0 10BD     		pop	{r4, pc}
 835              	.LVL70:
ARM GAS  C:\Users\HPz420\AppData\Local\Temp\cclmyDoQ.s 			page 22


 836              	.L73:
 363:Z80_SIO_emul.c ****         case 0x5:
 364:Z80_SIO_emul.c ****             // D0 - Tx CRC enable
 365:Z80_SIO_emul.c ****             // D1 - RTS - allows RTS to be manually set
 366:Z80_SIO_emul.c ****             // D2 - CRC-16/SDLC - Not used
 367:Z80_SIO_emul.c ****             // D3 - Transmit Enable
 368:Z80_SIO_emul.c ****             // D4 - Send break - not used
 369:Z80_SIO_emul.c ****             // D5, D6 - SYNC mode - Not used
 370:Z80_SIO_emul.c ****             // D7 - DTR - allows DTR to be manually set
 371:Z80_SIO_emul.c ****             SIO_B_WR5 = SIO_B_Ctrl2;
 837              		.loc 1 371 0
 838 00c2 0B4B     		ldr	r3, .L77+8
 839 00c4 1B78     		ldrb	r3, [r3]	@ zero_extendqisi2
 840 00c6 DBB2     		uxtb	r3, r3
 841 00c8 0F4A     		ldr	r2, .L77+32
 842 00ca 1370     		strb	r3, [r2]
 372:Z80_SIO_emul.c ****             break;
 843              		.loc 1 372 0
 844 00cc 10BD     		pop	{r4, pc}
 845              	.LVL71:
 846              	.L74:
 373:Z80_SIO_emul.c ****         case 0x6:
 374:Z80_SIO_emul.c ****             // D90D7 - SYNC bits - not used
 375:Z80_SIO_emul.c ****             SIO_B_WR6 = SIO_B_Ctrl2;
 847              		.loc 1 375 0
 848 00ce 084B     		ldr	r3, .L77+8
 849 00d0 1B78     		ldrb	r3, [r3]	@ zero_extendqisi2
 850 00d2 DBB2     		uxtb	r3, r3
 851 00d4 0D4A     		ldr	r2, .L77+36
 852 00d6 1370     		strb	r3, [r2]
 376:Z80_SIO_emul.c ****             break;
 853              		.loc 1 376 0
 854 00d8 10BD     		pop	{r4, pc}
 855              	.LVL72:
 856              	.L75:
 377:Z80_SIO_emul.c ****         case 0x7:
 378:Z80_SIO_emul.c ****             // D0-D7 - receive sync character - not used
 379:Z80_SIO_emul.c ****             SIO_B_WR7 = SIO_B_Ctrl2;
 857              		.loc 1 379 0
 858 00da 054B     		ldr	r3, .L77+8
 859 00dc 1B78     		ldrb	r3, [r3]	@ zero_extendqisi2
 860 00de DBB2     		uxtb	r3, r3
 861 00e0 0B4A     		ldr	r2, .L77+40
 862 00e2 1370     		strb	r3, [r2]
 863              	.L63:
 864 00e4 10BD     		pop	{r4, pc}
 865              	.LVL73:
 866              	.L78:
 867 00e6 00BF     		.align	2
 868              	.L77:
 869 00e8 00000000 		.word	SIO_B_Ctrl1
 870 00ec 67640040 		.word	1073767527
 871 00f0 00000000 		.word	SIO_B_Ctrl2
 872 00f4 00000000 		.word	SIO_B_WR0
 873 00f8 00000000 		.word	SIO_B_WR1
 874 00fc 00000000 		.word	SIO_B_WR2
 875 0100 00000000 		.word	SIO_B_WR3
ARM GAS  C:\Users\HPz420\AppData\Local\Temp\cclmyDoQ.s 			page 23


 876 0104 00000000 		.word	SIO_B_WR4
 877 0108 00000000 		.word	SIO_B_WR5
 878 010c 00000000 		.word	SIO_B_WR6
 879 0110 00000000 		.word	SIO_B_WR7
 880 0114 00000000 		.word	SIO_B_RD0
 881              		.cfi_endproc
 882              	.LFE75:
 883              		.size	SioWriteCtrlB, .-SioWriteCtrlB
 884              		.comm	UART_B_TXD_BUSY,1,1
 885              		.comm	UART_B_TXD,1,1
 886              		.comm	SIO_B_RD2,1,1
 887              		.comm	SIO_B_RD1,1,1
 888              		.comm	SIO_B_RD0,1,1
 889              		.comm	SIO_B_WR7,1,1
 890              		.comm	SIO_B_WR6,1,1
 891              		.comm	SIO_B_WR5,1,1
 892              		.comm	SIO_B_WR4,1,1
 893              		.comm	SIO_B_WR3,1,1
 894              		.comm	SIO_B_WR2,1,1
 895              		.comm	SIO_B_WR1,1,1
 896              		.comm	SIO_B_WR0,1,1
 897              		.comm	SIO_B_Ctrl_Count,1,1
 898              		.comm	SIO_B_DataIn,1,1
 899              		.comm	SIO_B_DataOut,1,1
 900              		.comm	SIO_B_Status,1,1
 901              		.comm	SIO_B_Ctrl2,1,1
 902              		.comm	SIO_B_Ctrl1,1,1
 903              		.comm	UART_A_TXD_BUSY,1,1
 904              		.comm	UART_A_TXD,1,1
 905              		.comm	SIO_A_RD2,1,1
 906              		.comm	SIO_A_RD1,1,1
 907              		.comm	SIO_A_RD0,1,1
 908              		.comm	SIO_A_WR7,1,1
 909              		.comm	SIO_A_WR6,1,1
 910              		.comm	SIO_A_WR5,1,1
 911              		.comm	SIO_A_WR4,1,1
 912              		.comm	SIO_A_WR3,1,1
 913              		.comm	SIO_A_WR2,1,1
 914              		.comm	SIO_A_WR1,1,1
 915              		.comm	SIO_A_WR0,1,1
 916              		.comm	SIO_A_Ctrl_Count,1,1
 917              		.comm	SIO_A_DataIn,1,1
 918              		.comm	SIO_A_DataOut,1,1
 919              		.comm	SIO_A_Status,1,1
 920              		.comm	SIO_A_Ctrl2,1,1
 921              		.comm	SIO_A_Ctrl1,1,1
 922              		.text
 923              	.Letext0:
 924              		.file 2 "c:\\program files (x86)\\cypress\\psoc creator\\4.2\\psoc creator\\import\\gnu\\arm\\5.4.
 925              		.file 3 "c:\\program files (x86)\\cypress\\psoc creator\\4.2\\psoc creator\\import\\gnu\\arm\\5.4.
 926              		.file 4 "Generated_Source\\PSoC5/cytypes.h"
 927              		.file 5 "Generated_Source\\PSoC5/core_cm3.h"
 928              		.file 6 "Generated_Source\\PSoC5/IO_Ctrl_Reg.h"
 929              		.file 7 "Generated_Source\\PSoC5/IO_Stat_Reg.h"
 930              		.file 8 "Generated_Source\\PSoC5/Z80_Data_In.h"
 931              		.file 9 "Generated_Source\\PSoC5/USBUART_cdc.h"
 932              		.file 10 "Generated_Source\\PSoC5/Z80_Data_Out.h"
ARM GAS  C:\Users\HPz420\AppData\Local\Temp\cclmyDoQ.s 			page 24

