ARM GAS  C:\Users\DGILLI~1\AppData\Local\Temp\cclVnNvy.s 			page 1


   1              		.syntax unified
   2              		.cpu cortex-m0plus
   3              		.fpu softvfp
   4              		.eabi_attribute 20, 1
   5              		.eabi_attribute 21, 1
   6              		.eabi_attribute 23, 3
   7              		.eabi_attribute 24, 1
   8              		.eabi_attribute 25, 1
   9              		.eabi_attribute 26, 1
  10              		.eabi_attribute 30, 1
  11              		.eabi_attribute 34, 0
  12              		.eabi_attribute 18, 4
  13              		.thumb
  14              		.syntax unified
  15              		.file	"I2CS_I2C.c"
  16              		.text
  17              	.Ltext0:
  18              		.cfi_sections	.debug_frame
  19              		.section	.text.I2CS_I2CInit,"ax",%progbits
  20              		.align	2
  21              		.global	I2CS_I2CInit
  22              		.code	16
  23              		.thumb_func
  24              		.type	I2CS_I2CInit, %function
  25              	I2CS_I2CInit:
  26              	.LFB1:
  27              		.file 1 "Generated_Source\\PSoC4\\I2CS_I2C.c"
   1:Generated_Source\PSoC4/I2CS_I2C.c **** /***************************************************************************//**
   2:Generated_Source\PSoC4/I2CS_I2C.c **** * \file I2CS_I2C.c
   3:Generated_Source\PSoC4/I2CS_I2C.c **** * \version 4.0
   4:Generated_Source\PSoC4/I2CS_I2C.c **** *
   5:Generated_Source\PSoC4/I2CS_I2C.c **** * \brief
   6:Generated_Source\PSoC4/I2CS_I2C.c **** *  This file provides the source code to the API for the SCB Component in
   7:Generated_Source\PSoC4/I2CS_I2C.c **** *  I2C mode.
   8:Generated_Source\PSoC4/I2CS_I2C.c **** *
   9:Generated_Source\PSoC4/I2CS_I2C.c **** * Note:
  10:Generated_Source\PSoC4/I2CS_I2C.c **** *
  11:Generated_Source\PSoC4/I2CS_I2C.c **** *******************************************************************************
  12:Generated_Source\PSoC4/I2CS_I2C.c **** * \copyright
  13:Generated_Source\PSoC4/I2CS_I2C.c **** * Copyright 2013-2017, Cypress Semiconductor Corporation.  All rights reserved.
  14:Generated_Source\PSoC4/I2CS_I2C.c **** * You may use this file only in accordance with the license, terms, conditions,
  15:Generated_Source\PSoC4/I2CS_I2C.c **** * disclaimers, and limitations in the end user license agreement accompanying
  16:Generated_Source\PSoC4/I2CS_I2C.c **** * the software package with which this file was provided.
  17:Generated_Source\PSoC4/I2CS_I2C.c **** *******************************************************************************/
  18:Generated_Source\PSoC4/I2CS_I2C.c **** 
  19:Generated_Source\PSoC4/I2CS_I2C.c **** #include "I2CS_PVT.h"
  20:Generated_Source\PSoC4/I2CS_I2C.c **** #include "I2CS_I2C_PVT.h"
  21:Generated_Source\PSoC4/I2CS_I2C.c **** 
  22:Generated_Source\PSoC4/I2CS_I2C.c **** 
  23:Generated_Source\PSoC4/I2CS_I2C.c **** /***************************************
  24:Generated_Source\PSoC4/I2CS_I2C.c **** *      I2C Private Vars
  25:Generated_Source\PSoC4/I2CS_I2C.c **** ***************************************/
  26:Generated_Source\PSoC4/I2CS_I2C.c **** 
  27:Generated_Source\PSoC4/I2CS_I2C.c **** volatile uint8 I2CS_state;  /* Current state of I2C FSM */
  28:Generated_Source\PSoC4/I2CS_I2C.c **** 
  29:Generated_Source\PSoC4/I2CS_I2C.c **** #if(I2CS_SCB_MODE_UNCONFIG_CONST_CFG)
  30:Generated_Source\PSoC4/I2CS_I2C.c **** 
ARM GAS  C:\Users\DGILLI~1\AppData\Local\Temp\cclVnNvy.s 			page 2


  31:Generated_Source\PSoC4/I2CS_I2C.c ****     /***************************************
  32:Generated_Source\PSoC4/I2CS_I2C.c ****     *  Configuration Structure Initialization
  33:Generated_Source\PSoC4/I2CS_I2C.c ****     ***************************************/
  34:Generated_Source\PSoC4/I2CS_I2C.c **** 
  35:Generated_Source\PSoC4/I2CS_I2C.c ****     /* Constant configuration of I2C */
  36:Generated_Source\PSoC4/I2CS_I2C.c ****     const I2CS_I2C_INIT_STRUCT I2CS_configI2C =
  37:Generated_Source\PSoC4/I2CS_I2C.c ****     {
  38:Generated_Source\PSoC4/I2CS_I2C.c ****         I2CS_I2C_MODE,
  39:Generated_Source\PSoC4/I2CS_I2C.c ****         I2CS_I2C_OVS_FACTOR_LOW,
  40:Generated_Source\PSoC4/I2CS_I2C.c ****         I2CS_I2C_OVS_FACTOR_HIGH,
  41:Generated_Source\PSoC4/I2CS_I2C.c ****         I2CS_I2C_MEDIAN_FILTER_ENABLE,
  42:Generated_Source\PSoC4/I2CS_I2C.c ****         I2CS_I2C_SLAVE_ADDRESS,
  43:Generated_Source\PSoC4/I2CS_I2C.c ****         I2CS_I2C_SLAVE_ADDRESS_MASK,
  44:Generated_Source\PSoC4/I2CS_I2C.c ****         I2CS_I2C_ACCEPT_ADDRESS,
  45:Generated_Source\PSoC4/I2CS_I2C.c ****         I2CS_I2C_WAKE_ENABLE,
  46:Generated_Source\PSoC4/I2CS_I2C.c ****         I2CS_I2C_BYTE_MODE_ENABLE,
  47:Generated_Source\PSoC4/I2CS_I2C.c ****         I2CS_I2C_DATA_RATE,
  48:Generated_Source\PSoC4/I2CS_I2C.c ****         I2CS_I2C_ACCEPT_GENERAL_CALL,
  49:Generated_Source\PSoC4/I2CS_I2C.c ****     };
  50:Generated_Source\PSoC4/I2CS_I2C.c **** 
  51:Generated_Source\PSoC4/I2CS_I2C.c ****     /*******************************************************************************
  52:Generated_Source\PSoC4/I2CS_I2C.c ****     * Function Name: I2CS_I2CInit
  53:Generated_Source\PSoC4/I2CS_I2C.c ****     ****************************************************************************//**
  54:Generated_Source\PSoC4/I2CS_I2C.c ****     *
  55:Generated_Source\PSoC4/I2CS_I2C.c ****     *
  56:Generated_Source\PSoC4/I2CS_I2C.c ****     *  Configures the I2CS for I2C operation.
  57:Generated_Source\PSoC4/I2CS_I2C.c ****     *
  58:Generated_Source\PSoC4/I2CS_I2C.c ****     *  This function is intended specifically to be used when the I2CS 
  59:Generated_Source\PSoC4/I2CS_I2C.c ****     *  configuration is set to “Unconfigured I2CS” in the customizer. 
  60:Generated_Source\PSoC4/I2CS_I2C.c ****     *  After initializing the I2CS in I2C mode using this function, 
  61:Generated_Source\PSoC4/I2CS_I2C.c ****     *  the component can be enabled using the I2CS_Start() or 
  62:Generated_Source\PSoC4/I2CS_I2C.c ****     * I2CS_Enable() function.
  63:Generated_Source\PSoC4/I2CS_I2C.c ****     *  This function uses a pointer to a structure that provides the configuration 
  64:Generated_Source\PSoC4/I2CS_I2C.c ****     *  settings. This structure contains the same information that would otherwise 
  65:Generated_Source\PSoC4/I2CS_I2C.c ****     *  be provided by the customizer settings.
  66:Generated_Source\PSoC4/I2CS_I2C.c ****     *
  67:Generated_Source\PSoC4/I2CS_I2C.c ****     *  \param config: pointer to a structure that contains the following list of 
  68:Generated_Source\PSoC4/I2CS_I2C.c ****     *   fields. These fields match the selections available in the customizer. 
  69:Generated_Source\PSoC4/I2CS_I2C.c ****     *   Refer to the customizer for further description of the settings.
  70:Generated_Source\PSoC4/I2CS_I2C.c ****     *
  71:Generated_Source\PSoC4/I2CS_I2C.c ****     *******************************************************************************/
  72:Generated_Source\PSoC4/I2CS_I2C.c ****     void I2CS_I2CInit(const I2CS_I2C_INIT_STRUCT *config)
  73:Generated_Source\PSoC4/I2CS_I2C.c ****     {
  74:Generated_Source\PSoC4/I2CS_I2C.c ****         uint32 medianFilter;
  75:Generated_Source\PSoC4/I2CS_I2C.c ****         uint32 locEnableWake;
  76:Generated_Source\PSoC4/I2CS_I2C.c **** 
  77:Generated_Source\PSoC4/I2CS_I2C.c ****         if(NULL == config)
  78:Generated_Source\PSoC4/I2CS_I2C.c ****         {
  79:Generated_Source\PSoC4/I2CS_I2C.c ****             CYASSERT(0u != 0u); /* Halt execution due to bad function parameter */
  80:Generated_Source\PSoC4/I2CS_I2C.c ****         }
  81:Generated_Source\PSoC4/I2CS_I2C.c ****         else
  82:Generated_Source\PSoC4/I2CS_I2C.c ****         {
  83:Generated_Source\PSoC4/I2CS_I2C.c ****             /* Configure pins */
  84:Generated_Source\PSoC4/I2CS_I2C.c ****             I2CS_SetPins(I2CS_SCB_MODE_I2C, I2CS_DUMMY_PARAM,
  85:Generated_Source\PSoC4/I2CS_I2C.c ****                                      I2CS_DUMMY_PARAM);
  86:Generated_Source\PSoC4/I2CS_I2C.c **** 
  87:Generated_Source\PSoC4/I2CS_I2C.c ****             /* Store internal configuration */
ARM GAS  C:\Users\DGILLI~1\AppData\Local\Temp\cclVnNvy.s 			page 3


  88:Generated_Source\PSoC4/I2CS_I2C.c ****             I2CS_scbMode       = (uint8) I2CS_SCB_MODE_I2C;
  89:Generated_Source\PSoC4/I2CS_I2C.c ****             I2CS_scbEnableWake = (uint8) config->enableWake;
  90:Generated_Source\PSoC4/I2CS_I2C.c ****             I2CS_scbEnableIntr = (uint8) I2CS_SCB_IRQ_INTERNAL;
  91:Generated_Source\PSoC4/I2CS_I2C.c **** 
  92:Generated_Source\PSoC4/I2CS_I2C.c ****             I2CS_mode          = (uint8) config->mode;
  93:Generated_Source\PSoC4/I2CS_I2C.c ****             I2CS_acceptAddr    = (uint8) config->acceptAddr;
  94:Generated_Source\PSoC4/I2CS_I2C.c **** 
  95:Generated_Source\PSoC4/I2CS_I2C.c ****         #if (I2CS_CY_SCBIP_V0)
  96:Generated_Source\PSoC4/I2CS_I2C.c ****             /* Adjust SDA filter settings. Ticket ID#150521 */
  97:Generated_Source\PSoC4/I2CS_I2C.c ****             I2CS_SET_I2C_CFG_SDA_FILT_TRIM(I2CS_EC_AM_I2C_CFG_SDA_FILT_TRIM);
  98:Generated_Source\PSoC4/I2CS_I2C.c ****         #endif /* (I2CS_CY_SCBIP_V0) */
  99:Generated_Source\PSoC4/I2CS_I2C.c **** 
 100:Generated_Source\PSoC4/I2CS_I2C.c ****             /* Adjust AF and DF filter settings. Ticket ID#176179 */
 101:Generated_Source\PSoC4/I2CS_I2C.c ****             if (((I2CS_I2C_MODE_SLAVE != config->mode) &&
 102:Generated_Source\PSoC4/I2CS_I2C.c ****                  (config->dataRate <= I2CS_I2C_DATA_RATE_FS_MODE_MAX)) ||
 103:Generated_Source\PSoC4/I2CS_I2C.c ****                  (I2CS_I2C_MODE_SLAVE == config->mode))
 104:Generated_Source\PSoC4/I2CS_I2C.c ****             {
 105:Generated_Source\PSoC4/I2CS_I2C.c ****                 /* AF = 1, DF = 0 */
 106:Generated_Source\PSoC4/I2CS_I2C.c ****                 I2CS_I2C_CFG_ANALOG_FITER_ENABLE;
 107:Generated_Source\PSoC4/I2CS_I2C.c ****                 medianFilter = I2CS_DIGITAL_FILTER_DISABLE;
 108:Generated_Source\PSoC4/I2CS_I2C.c ****             }
 109:Generated_Source\PSoC4/I2CS_I2C.c ****             else
 110:Generated_Source\PSoC4/I2CS_I2C.c ****             {
 111:Generated_Source\PSoC4/I2CS_I2C.c ****                 /* AF = 0, DF = 1 */
 112:Generated_Source\PSoC4/I2CS_I2C.c ****                 I2CS_I2C_CFG_ANALOG_FITER_DISABLE;
 113:Generated_Source\PSoC4/I2CS_I2C.c ****                 medianFilter = I2CS_DIGITAL_FILTER_ENABLE;
 114:Generated_Source\PSoC4/I2CS_I2C.c ****             }
 115:Generated_Source\PSoC4/I2CS_I2C.c **** 
 116:Generated_Source\PSoC4/I2CS_I2C.c ****         #if (!I2CS_CY_SCBIP_V0)
 117:Generated_Source\PSoC4/I2CS_I2C.c ****             locEnableWake = (I2CS_I2C_MULTI_MASTER_SLAVE) ? (0u) : (config->enableWake);
 118:Generated_Source\PSoC4/I2CS_I2C.c ****         #else
 119:Generated_Source\PSoC4/I2CS_I2C.c ****             locEnableWake = config->enableWake;
 120:Generated_Source\PSoC4/I2CS_I2C.c ****         #endif /* (!I2CS_CY_SCBIP_V0) */
 121:Generated_Source\PSoC4/I2CS_I2C.c **** 
 122:Generated_Source\PSoC4/I2CS_I2C.c ****             /* Configure I2C interface */
 123:Generated_Source\PSoC4/I2CS_I2C.c ****             I2CS_CTRL_REG     = I2CS_GET_CTRL_BYTE_MODE  (config->enableByteMode) |
 124:Generated_Source\PSoC4/I2CS_I2C.c ****                                             I2CS_GET_CTRL_ADDR_ACCEPT(config->acceptAddr)     |
 125:Generated_Source\PSoC4/I2CS_I2C.c ****                                             I2CS_GET_CTRL_EC_AM_MODE (locEnableWake);
 126:Generated_Source\PSoC4/I2CS_I2C.c **** 
 127:Generated_Source\PSoC4/I2CS_I2C.c ****             I2CS_I2C_CTRL_REG = I2CS_GET_I2C_CTRL_HIGH_PHASE_OVS(config->oversampleHigh) |
 128:Generated_Source\PSoC4/I2CS_I2C.c ****                     I2CS_GET_I2C_CTRL_LOW_PHASE_OVS (config->oversampleLow)                        
 129:Generated_Source\PSoC4/I2CS_I2C.c ****                     I2CS_GET_I2C_CTRL_S_GENERAL_IGNORE((uint32)(0u == config->acceptGeneralAddr))  
 130:Generated_Source\PSoC4/I2CS_I2C.c ****                     I2CS_GET_I2C_CTRL_SL_MSTR_MODE  (config->mode);
 131:Generated_Source\PSoC4/I2CS_I2C.c **** 
 132:Generated_Source\PSoC4/I2CS_I2C.c ****             /* Configure RX direction */
 133:Generated_Source\PSoC4/I2CS_I2C.c ****             I2CS_RX_CTRL_REG      = I2CS_GET_RX_CTRL_MEDIAN(medianFilter) |
 134:Generated_Source\PSoC4/I2CS_I2C.c ****                                                 I2CS_I2C_RX_CTRL;
 135:Generated_Source\PSoC4/I2CS_I2C.c ****             I2CS_RX_FIFO_CTRL_REG = I2CS_CLEAR_REG;
 136:Generated_Source\PSoC4/I2CS_I2C.c **** 
 137:Generated_Source\PSoC4/I2CS_I2C.c ****             /* Set default address and mask */
 138:Generated_Source\PSoC4/I2CS_I2C.c ****             I2CS_RX_MATCH_REG    = ((I2CS_I2C_SLAVE) ?
 139:Generated_Source\PSoC4/I2CS_I2C.c ****                                                 (I2CS_GET_I2C_8BIT_ADDRESS(config->slaveAddr) |
 140:Generated_Source\PSoC4/I2CS_I2C.c ****                                                  I2CS_GET_RX_MATCH_MASK(config->slaveAddrMask)) :
 141:Generated_Source\PSoC4/I2CS_I2C.c ****                                                 (I2CS_CLEAR_REG));
 142:Generated_Source\PSoC4/I2CS_I2C.c **** 
 143:Generated_Source\PSoC4/I2CS_I2C.c **** 
 144:Generated_Source\PSoC4/I2CS_I2C.c ****             /* Configure TX direction */
ARM GAS  C:\Users\DGILLI~1\AppData\Local\Temp\cclVnNvy.s 			page 4


 145:Generated_Source\PSoC4/I2CS_I2C.c ****             I2CS_TX_CTRL_REG      = I2CS_I2C_TX_CTRL;
 146:Generated_Source\PSoC4/I2CS_I2C.c ****             I2CS_TX_FIFO_CTRL_REG = I2CS_CLEAR_REG;
 147:Generated_Source\PSoC4/I2CS_I2C.c **** 
 148:Generated_Source\PSoC4/I2CS_I2C.c ****             /* Configure interrupt with I2C handler but do not enable it */
 149:Generated_Source\PSoC4/I2CS_I2C.c ****             CyIntDisable    (I2CS_ISR_NUMBER);
 150:Generated_Source\PSoC4/I2CS_I2C.c ****             CyIntSetPriority(I2CS_ISR_NUMBER, I2CS_ISR_PRIORITY);
 151:Generated_Source\PSoC4/I2CS_I2C.c ****             (void) CyIntSetVector(I2CS_ISR_NUMBER, &I2CS_I2C_ISR);
 152:Generated_Source\PSoC4/I2CS_I2C.c **** 
 153:Generated_Source\PSoC4/I2CS_I2C.c ****             /* Configure interrupt sources */
 154:Generated_Source\PSoC4/I2CS_I2C.c ****         #if(!I2CS_CY_SCBIP_V1)
 155:Generated_Source\PSoC4/I2CS_I2C.c ****             I2CS_INTR_SPI_EC_MASK_REG = I2CS_NO_INTR_SOURCES;
 156:Generated_Source\PSoC4/I2CS_I2C.c ****         #endif /* (!I2CS_CY_SCBIP_V1) */
 157:Generated_Source\PSoC4/I2CS_I2C.c **** 
 158:Generated_Source\PSoC4/I2CS_I2C.c ****             I2CS_INTR_I2C_EC_MASK_REG = I2CS_NO_INTR_SOURCES;
 159:Generated_Source\PSoC4/I2CS_I2C.c ****             I2CS_INTR_RX_MASK_REG     = I2CS_NO_INTR_SOURCES;
 160:Generated_Source\PSoC4/I2CS_I2C.c ****             I2CS_INTR_TX_MASK_REG     = I2CS_NO_INTR_SOURCES;
 161:Generated_Source\PSoC4/I2CS_I2C.c **** 
 162:Generated_Source\PSoC4/I2CS_I2C.c ****             I2CS_INTR_SLAVE_MASK_REG  = ((I2CS_I2C_SLAVE) ?
 163:Generated_Source\PSoC4/I2CS_I2C.c ****                             (I2CS_GET_INTR_SLAVE_I2C_GENERAL(config->acceptGeneralAddr) |
 164:Generated_Source\PSoC4/I2CS_I2C.c ****                              I2CS_I2C_INTR_SLAVE_MASK) : (I2CS_CLEAR_REG));
 165:Generated_Source\PSoC4/I2CS_I2C.c **** 
 166:Generated_Source\PSoC4/I2CS_I2C.c ****             I2CS_INTR_MASTER_MASK_REG = I2CS_NO_INTR_SOURCES;
 167:Generated_Source\PSoC4/I2CS_I2C.c **** 
 168:Generated_Source\PSoC4/I2CS_I2C.c ****             /* Configure global variables */
 169:Generated_Source\PSoC4/I2CS_I2C.c ****             I2CS_state = I2CS_I2C_FSM_IDLE;
 170:Generated_Source\PSoC4/I2CS_I2C.c **** 
 171:Generated_Source\PSoC4/I2CS_I2C.c ****             /* Internal slave variables */
 172:Generated_Source\PSoC4/I2CS_I2C.c ****             I2CS_slStatus        = 0u;
 173:Generated_Source\PSoC4/I2CS_I2C.c ****             I2CS_slRdBufIndex    = 0u;
 174:Generated_Source\PSoC4/I2CS_I2C.c ****             I2CS_slWrBufIndex    = 0u;
 175:Generated_Source\PSoC4/I2CS_I2C.c ****             I2CS_slOverFlowCount = 0u;
 176:Generated_Source\PSoC4/I2CS_I2C.c **** 
 177:Generated_Source\PSoC4/I2CS_I2C.c ****             /* Internal master variables */
 178:Generated_Source\PSoC4/I2CS_I2C.c ****             I2CS_mstrStatus     = 0u;
 179:Generated_Source\PSoC4/I2CS_I2C.c ****             I2CS_mstrRdBufIndex = 0u;
 180:Generated_Source\PSoC4/I2CS_I2C.c ****             I2CS_mstrWrBufIndex = 0u;
 181:Generated_Source\PSoC4/I2CS_I2C.c ****         }
 182:Generated_Source\PSoC4/I2CS_I2C.c ****     }
 183:Generated_Source\PSoC4/I2CS_I2C.c **** 
 184:Generated_Source\PSoC4/I2CS_I2C.c **** #else
 185:Generated_Source\PSoC4/I2CS_I2C.c **** 
 186:Generated_Source\PSoC4/I2CS_I2C.c ****     /*******************************************************************************
 187:Generated_Source\PSoC4/I2CS_I2C.c ****     * Function Name: I2CS_I2CInit
 188:Generated_Source\PSoC4/I2CS_I2C.c ****     ****************************************************************************//**
 189:Generated_Source\PSoC4/I2CS_I2C.c ****     *
 190:Generated_Source\PSoC4/I2CS_I2C.c ****     *  Configures the SCB for the I2C operation.
 191:Generated_Source\PSoC4/I2CS_I2C.c ****     *
 192:Generated_Source\PSoC4/I2CS_I2C.c ****     *******************************************************************************/
 193:Generated_Source\PSoC4/I2CS_I2C.c ****     void I2CS_I2CInit(void)
 194:Generated_Source\PSoC4/I2CS_I2C.c ****     {
  28              		.loc 1 194 0
  29              		.cfi_startproc
  30              		@ args = 0, pretend = 0, frame = 0
  31              		@ frame_needed = 0, uses_anonymous_args = 0
  32 0000 10B5     		push	{r4, lr}
  33              		.cfi_def_cfa_offset 8
  34              		.cfi_offset 4, -8
ARM GAS  C:\Users\DGILLI~1\AppData\Local\Temp\cclVnNvy.s 			page 5


  35              		.cfi_offset 14, -4
 195:Generated_Source\PSoC4/I2CS_I2C.c ****     #if(I2CS_CY_SCBIP_V0)
 196:Generated_Source\PSoC4/I2CS_I2C.c ****         /* Adjust SDA filter settings. Ticket ID#150521 */
 197:Generated_Source\PSoC4/I2CS_I2C.c ****         I2CS_SET_I2C_CFG_SDA_FILT_TRIM(I2CS_EC_AM_I2C_CFG_SDA_FILT_TRIM);
 198:Generated_Source\PSoC4/I2CS_I2C.c ****     #endif /* (I2CS_CY_SCBIP_V0) */
 199:Generated_Source\PSoC4/I2CS_I2C.c **** 
 200:Generated_Source\PSoC4/I2CS_I2C.c ****         /* Adjust AF and DF filter settings. Ticket ID#176179 */
 201:Generated_Source\PSoC4/I2CS_I2C.c ****         I2CS_I2C_CFG_ANALOG_FITER_ENABLE_ADJ;
 202:Generated_Source\PSoC4/I2CS_I2C.c **** 
 203:Generated_Source\PSoC4/I2CS_I2C.c ****         /* Configure I2C interface */
 204:Generated_Source\PSoC4/I2CS_I2C.c ****         I2CS_CTRL_REG     = I2CS_I2C_DEFAULT_CTRL;
  36              		.loc 1 204 0
  37 0002 8022     		movs	r2, #128
  38 0004 5200     		lsls	r2, r2, #1
  39 0006 1C4B     		ldr	r3, .L2
  40 0008 1A60     		str	r2, [r3]
 205:Generated_Source\PSoC4/I2CS_I2C.c ****         I2CS_I2C_CTRL_REG = I2CS_I2C_DEFAULT_I2C_CTRL;
  41              		.loc 1 205 0
  42 000a 1C4A     		ldr	r2, .L2+4
  43 000c 1C4B     		ldr	r3, .L2+8
  44 000e 1A60     		str	r2, [r3]
 206:Generated_Source\PSoC4/I2CS_I2C.c **** 
 207:Generated_Source\PSoC4/I2CS_I2C.c ****         /* Configure RX direction */
 208:Generated_Source\PSoC4/I2CS_I2C.c ****         I2CS_RX_CTRL_REG      = I2CS_I2C_DEFAULT_RX_CTRL;
  45              		.loc 1 208 0
  46 0010 1C4B     		ldr	r3, .L2+12
  47 0012 1D4A     		ldr	r2, .L2+16
  48 0014 1360     		str	r3, [r2]
 209:Generated_Source\PSoC4/I2CS_I2C.c ****         I2CS_RX_FIFO_CTRL_REG = I2CS_I2C_DEFAULT_RX_FIFO_CTRL;
  49              		.loc 1 209 0
  50 0016 0024     		movs	r4, #0
  51 0018 1C4A     		ldr	r2, .L2+20
  52 001a 1460     		str	r4, [r2]
 210:Generated_Source\PSoC4/I2CS_I2C.c **** 
 211:Generated_Source\PSoC4/I2CS_I2C.c ****         /* Set default address and mask */
 212:Generated_Source\PSoC4/I2CS_I2C.c ****         I2CS_RX_MATCH_REG     = I2CS_I2C_DEFAULT_RX_MATCH;
  53              		.loc 1 212 0
  54 001c 1C49     		ldr	r1, .L2+24
  55 001e 1D4A     		ldr	r2, .L2+28
  56 0020 1160     		str	r1, [r2]
 213:Generated_Source\PSoC4/I2CS_I2C.c **** 
 214:Generated_Source\PSoC4/I2CS_I2C.c ****         /* Configure TX direction */
 215:Generated_Source\PSoC4/I2CS_I2C.c ****         I2CS_TX_CTRL_REG      = I2CS_I2C_DEFAULT_TX_CTRL;
  57              		.loc 1 215 0
  58 0022 1D4A     		ldr	r2, .L2+32
  59 0024 1360     		str	r3, [r2]
 216:Generated_Source\PSoC4/I2CS_I2C.c ****         I2CS_TX_FIFO_CTRL_REG = I2CS_I2C_DEFAULT_TX_FIFO_CTRL;
  60              		.loc 1 216 0
  61 0026 1D4B     		ldr	r3, .L2+36
  62 0028 1C60     		str	r4, [r3]
 217:Generated_Source\PSoC4/I2CS_I2C.c **** 
 218:Generated_Source\PSoC4/I2CS_I2C.c ****         /* Configure interrupt with I2C handler but do not enable it */
 219:Generated_Source\PSoC4/I2CS_I2C.c ****         CyIntDisable    (I2CS_ISR_NUMBER);
  63              		.loc 1 219 0
  64 002a 0720     		movs	r0, #7
  65 002c FFF7FEFF 		bl	CyIntDisable
  66              	.LVL0:
ARM GAS  C:\Users\DGILLI~1\AppData\Local\Temp\cclVnNvy.s 			page 6


 220:Generated_Source\PSoC4/I2CS_I2C.c ****         CyIntSetPriority(I2CS_ISR_NUMBER, I2CS_ISR_PRIORITY);
  67              		.loc 1 220 0
  68 0030 0321     		movs	r1, #3
  69 0032 0720     		movs	r0, #7
  70 0034 FFF7FEFF 		bl	CyIntSetPriority
  71              	.LVL1:
 221:Generated_Source\PSoC4/I2CS_I2C.c ****     #if(!I2CS_I2C_EXTERN_INTR_HANDLER)
 222:Generated_Source\PSoC4/I2CS_I2C.c ****         (void) CyIntSetVector(I2CS_ISR_NUMBER, &I2CS_I2C_ISR);
  72              		.loc 1 222 0
  73 0038 1949     		ldr	r1, .L2+40
  74 003a 0720     		movs	r0, #7
  75 003c FFF7FEFF 		bl	CyIntSetVector
  76              	.LVL2:
 223:Generated_Source\PSoC4/I2CS_I2C.c ****     #endif /* (I2CS_I2C_EXTERN_INTR_HANDLER) */
 224:Generated_Source\PSoC4/I2CS_I2C.c **** 
 225:Generated_Source\PSoC4/I2CS_I2C.c ****         /* Configure interrupt sources */
 226:Generated_Source\PSoC4/I2CS_I2C.c ****     #if(!I2CS_CY_SCBIP_V1)
 227:Generated_Source\PSoC4/I2CS_I2C.c ****         I2CS_INTR_SPI_EC_MASK_REG = I2CS_I2C_DEFAULT_INTR_SPI_EC_MASK;
  77              		.loc 1 227 0
  78 0040 184B     		ldr	r3, .L2+44
  79 0042 1C60     		str	r4, [r3]
 228:Generated_Source\PSoC4/I2CS_I2C.c ****     #endif /* (!I2CS_CY_SCBIP_V1) */
 229:Generated_Source\PSoC4/I2CS_I2C.c **** 
 230:Generated_Source\PSoC4/I2CS_I2C.c ****         I2CS_INTR_I2C_EC_MASK_REG = I2CS_I2C_DEFAULT_INTR_I2C_EC_MASK;
  80              		.loc 1 230 0
  81 0044 184B     		ldr	r3, .L2+48
  82 0046 1C60     		str	r4, [r3]
 231:Generated_Source\PSoC4/I2CS_I2C.c ****         I2CS_INTR_SLAVE_MASK_REG  = I2CS_I2C_DEFAULT_INTR_SLAVE_MASK;
  83              		.loc 1 231 0
  84 0048 4C22     		movs	r2, #76
  85 004a FF32     		adds	r2, r2, #255
  86 004c 174B     		ldr	r3, .L2+52
  87 004e 1A60     		str	r2, [r3]
 232:Generated_Source\PSoC4/I2CS_I2C.c ****         I2CS_INTR_MASTER_MASK_REG = I2CS_I2C_DEFAULT_INTR_MASTER_MASK;
  88              		.loc 1 232 0
  89 0050 174B     		ldr	r3, .L2+56
  90 0052 1C60     		str	r4, [r3]
 233:Generated_Source\PSoC4/I2CS_I2C.c ****         I2CS_INTR_RX_MASK_REG     = I2CS_I2C_DEFAULT_INTR_RX_MASK;
  91              		.loc 1 233 0
  92 0054 174B     		ldr	r3, .L2+60
  93 0056 1C60     		str	r4, [r3]
 234:Generated_Source\PSoC4/I2CS_I2C.c ****         I2CS_INTR_TX_MASK_REG     = I2CS_I2C_DEFAULT_INTR_TX_MASK;
  94              		.loc 1 234 0
  95 0058 174B     		ldr	r3, .L2+64
  96 005a 1C60     		str	r4, [r3]
 235:Generated_Source\PSoC4/I2CS_I2C.c **** 
 236:Generated_Source\PSoC4/I2CS_I2C.c ****         /* Configure global variables */
 237:Generated_Source\PSoC4/I2CS_I2C.c ****         I2CS_state = I2CS_I2C_FSM_IDLE;
  97              		.loc 1 237 0
  98 005c 3C3A     		subs	r2, r2, #60
  99 005e FF3A     		subs	r2, r2, #255
 100 0060 164B     		ldr	r3, .L2+68
 101 0062 1A70     		strb	r2, [r3]
 238:Generated_Source\PSoC4/I2CS_I2C.c **** 
 239:Generated_Source\PSoC4/I2CS_I2C.c ****     #if(I2CS_I2C_SLAVE)
 240:Generated_Source\PSoC4/I2CS_I2C.c ****         /* Internal slave variable */
 241:Generated_Source\PSoC4/I2CS_I2C.c ****         I2CS_slStatus        = 0u;
ARM GAS  C:\Users\DGILLI~1\AppData\Local\Temp\cclVnNvy.s 			page 7


 102              		.loc 1 241 0
 103 0064 164B     		ldr	r3, .L2+72
 104 0066 1C70     		strb	r4, [r3]
 242:Generated_Source\PSoC4/I2CS_I2C.c ****         I2CS_slRdBufIndex    = 0u;
 105              		.loc 1 242 0
 106 0068 164B     		ldr	r3, .L2+76
 107 006a 1C60     		str	r4, [r3]
 243:Generated_Source\PSoC4/I2CS_I2C.c ****         I2CS_slWrBufIndex    = 0u;
 108              		.loc 1 243 0
 109 006c 164B     		ldr	r3, .L2+80
 110 006e 1C60     		str	r4, [r3]
 244:Generated_Source\PSoC4/I2CS_I2C.c ****         I2CS_slOverFlowCount = 0u;
 111              		.loc 1 244 0
 112 0070 164B     		ldr	r3, .L2+84
 113 0072 1C70     		strb	r4, [r3]
 245:Generated_Source\PSoC4/I2CS_I2C.c ****     #endif /* (I2CS_I2C_SLAVE) */
 246:Generated_Source\PSoC4/I2CS_I2C.c **** 
 247:Generated_Source\PSoC4/I2CS_I2C.c ****     #if(I2CS_I2C_MASTER)
 248:Generated_Source\PSoC4/I2CS_I2C.c ****     /* Internal master variable */
 249:Generated_Source\PSoC4/I2CS_I2C.c ****         I2CS_mstrStatus     = 0u;
 250:Generated_Source\PSoC4/I2CS_I2C.c ****         I2CS_mstrRdBufIndex = 0u;
 251:Generated_Source\PSoC4/I2CS_I2C.c ****         I2CS_mstrWrBufIndex = 0u;
 252:Generated_Source\PSoC4/I2CS_I2C.c ****     #endif /* (I2CS_I2C_MASTER) */
 253:Generated_Source\PSoC4/I2CS_I2C.c ****     }
 114              		.loc 1 253 0
 115              		@ sp needed
 116 0074 10BD     		pop	{r4, pc}
 117              	.L3:
 118 0076 C046     		.align	2
 119              	.L2:
 120 0078 00000840 		.word	1074266112
 121 007c 77080040 		.word	1073743991
 122 0080 60000840 		.word	1074266208
 123 0084 07010080 		.word	-2147483385
 124 0088 00030840 		.word	1074266880
 125 008c 04030840 		.word	1074266884
 126 0090 3000FE00 		.word	16646192
 127 0094 10030840 		.word	1074266896
 128 0098 00020840 		.word	1074266624
 129 009c 04020840 		.word	1074266628
 130 00a0 00000000 		.word	I2CS_I2C_ISR
 131 00a4 C80E0840 		.word	1074269896
 132 00a8 880E0840 		.word	1074269832
 133 00ac 480F0840 		.word	1074270024
 134 00b0 080F0840 		.word	1074269960
 135 00b4 C80F0840 		.word	1074270152
 136 00b8 880F0840 		.word	1074270088
 137 00bc 00000000 		.word	I2CS_state
 138 00c0 00000000 		.word	I2CS_slStatus
 139 00c4 00000000 		.word	I2CS_slRdBufIndex
 140 00c8 00000000 		.word	I2CS_slWrBufIndex
 141 00cc 00000000 		.word	I2CS_slOverFlowCount
 142              		.cfi_endproc
 143              	.LFE1:
 144              		.size	I2CS_I2CInit, .-I2CS_I2CInit
 145              		.section	.text.I2CS_I2CStop,"ax",%progbits
 146              		.align	2
ARM GAS  C:\Users\DGILLI~1\AppData\Local\Temp\cclVnNvy.s 			page 8


 147              		.global	I2CS_I2CStop
 148              		.code	16
 149              		.thumb_func
 150              		.type	I2CS_I2CStop, %function
 151              	I2CS_I2CStop:
 152              	.LFB2:
 254:Generated_Source\PSoC4/I2CS_I2C.c **** #endif /* (I2CS_SCB_MODE_UNCONFIG_CONST_CFG) */
 255:Generated_Source\PSoC4/I2CS_I2C.c **** 
 256:Generated_Source\PSoC4/I2CS_I2C.c **** 
 257:Generated_Source\PSoC4/I2CS_I2C.c **** /*******************************************************************************
 258:Generated_Source\PSoC4/I2CS_I2C.c **** * Function Name: I2CS_I2CStop
 259:Generated_Source\PSoC4/I2CS_I2C.c **** ****************************************************************************//**
 260:Generated_Source\PSoC4/I2CS_I2C.c **** *
 261:Generated_Source\PSoC4/I2CS_I2C.c **** *  Resets the I2C FSM into the default state.
 262:Generated_Source\PSoC4/I2CS_I2C.c **** *
 263:Generated_Source\PSoC4/I2CS_I2C.c **** *******************************************************************************/
 264:Generated_Source\PSoC4/I2CS_I2C.c **** void I2CS_I2CStop(void)
 265:Generated_Source\PSoC4/I2CS_I2C.c **** {
 153              		.loc 1 265 0
 154              		.cfi_startproc
 155              		@ args = 0, pretend = 0, frame = 0
 156              		@ frame_needed = 0, uses_anonymous_args = 0
 157              		@ link register save eliminated.
 266:Generated_Source\PSoC4/I2CS_I2C.c ****     /* Clear command registers because they keep assigned value after IP block was disabled */
 267:Generated_Source\PSoC4/I2CS_I2C.c ****     I2CS_I2C_MASTER_CMD_REG = 0u;
 158              		.loc 1 267 0
 159 0000 0023     		movs	r3, #0
 160 0002 044A     		ldr	r2, .L5
 161 0004 1360     		str	r3, [r2]
 268:Generated_Source\PSoC4/I2CS_I2C.c ****     I2CS_I2C_SLAVE_CMD_REG  = 0u;
 162              		.loc 1 268 0
 163 0006 044A     		ldr	r2, .L5+4
 164 0008 1360     		str	r3, [r2]
 269:Generated_Source\PSoC4/I2CS_I2C.c ****     
 270:Generated_Source\PSoC4/I2CS_I2C.c ****     I2CS_state = I2CS_I2C_FSM_IDLE;
 165              		.loc 1 270 0
 166 000a 1022     		movs	r2, #16
 167 000c 034B     		ldr	r3, .L5+8
 168 000e 1A70     		strb	r2, [r3]
 271:Generated_Source\PSoC4/I2CS_I2C.c **** }
 169              		.loc 1 271 0
 170              		@ sp needed
 171 0010 7047     		bx	lr
 172              	.L6:
 173 0012 C046     		.align	2
 174              	.L5:
 175 0014 68000840 		.word	1074266216
 176 0018 6C000840 		.word	1074266220
 177 001c 00000000 		.word	I2CS_state
 178              		.cfi_endproc
 179              	.LFE2:
 180              		.size	I2CS_I2CStop, .-I2CS_I2CStop
 181              		.section	.text.I2CS_I2CFwBlockReset,"ax",%progbits
 182              		.align	2
 183              		.global	I2CS_I2CFwBlockReset
 184              		.code	16
 185              		.thumb_func
ARM GAS  C:\Users\DGILLI~1\AppData\Local\Temp\cclVnNvy.s 			page 9


 186              		.type	I2CS_I2CFwBlockReset, %function
 187              	I2CS_I2CFwBlockReset:
 188              	.LFB3:
 272:Generated_Source\PSoC4/I2CS_I2C.c **** 
 273:Generated_Source\PSoC4/I2CS_I2C.c **** 
 274:Generated_Source\PSoC4/I2CS_I2C.c **** /*******************************************************************************
 275:Generated_Source\PSoC4/I2CS_I2C.c **** * Function Name: I2CS_I2CFwBlockReset
 276:Generated_Source\PSoC4/I2CS_I2C.c **** ****************************************************************************//**
 277:Generated_Source\PSoC4/I2CS_I2C.c **** *
 278:Generated_Source\PSoC4/I2CS_I2C.c **** * Resets the scb IP block and I2C into the known state.
 279:Generated_Source\PSoC4/I2CS_I2C.c **** *
 280:Generated_Source\PSoC4/I2CS_I2C.c **** *******************************************************************************/
 281:Generated_Source\PSoC4/I2CS_I2C.c **** void I2CS_I2CFwBlockReset(void)
 282:Generated_Source\PSoC4/I2CS_I2C.c **** {
 189              		.loc 1 282 0
 190              		.cfi_startproc
 191              		@ args = 0, pretend = 0, frame = 0
 192              		@ frame_needed = 0, uses_anonymous_args = 0
 193 0000 10B5     		push	{r4, lr}
 194              		.cfi_def_cfa_offset 8
 195              		.cfi_offset 4, -8
 196              		.cfi_offset 14, -4
 283:Generated_Source\PSoC4/I2CS_I2C.c ****     /* Disable scb IP: stop respond to I2C traffic */
 284:Generated_Source\PSoC4/I2CS_I2C.c ****     I2CS_CTRL_REG &= (uint32) ~I2CS_CTRL_ENABLED;
 197              		.loc 1 284 0
 198 0002 0E4A     		ldr	r2, .L8
 199 0004 1368     		ldr	r3, [r2]
 200 0006 5B00     		lsls	r3, r3, #1
 201 0008 5B08     		lsrs	r3, r3, #1
 202 000a 1360     		str	r3, [r2]
 285:Generated_Source\PSoC4/I2CS_I2C.c **** 
 286:Generated_Source\PSoC4/I2CS_I2C.c ****     /* Clear command registers they are not cleared after scb IP is disabled */
 287:Generated_Source\PSoC4/I2CS_I2C.c ****     I2CS_I2C_MASTER_CMD_REG = 0u;
 203              		.loc 1 287 0
 204 000c 0023     		movs	r3, #0
 205 000e 0C49     		ldr	r1, .L8+4
 206 0010 0B60     		str	r3, [r1]
 288:Generated_Source\PSoC4/I2CS_I2C.c ****     I2CS_I2C_SLAVE_CMD_REG  = 0u;
 207              		.loc 1 288 0
 208 0012 0C49     		ldr	r1, .L8+8
 209 0014 0B60     		str	r3, [r1]
 289:Generated_Source\PSoC4/I2CS_I2C.c **** 
 290:Generated_Source\PSoC4/I2CS_I2C.c ****     I2CS_DISABLE_AUTO_DATA;
 210              		.loc 1 290 0
 211 0016 0C48     		ldr	r0, .L8+12
 212 0018 0468     		ldr	r4, [r0]
 213 001a 0C49     		ldr	r1, .L8+16
 214 001c 2140     		ands	r1, r4
 215 001e 0160     		str	r1, [r0]
 291:Generated_Source\PSoC4/I2CS_I2C.c **** 
 292:Generated_Source\PSoC4/I2CS_I2C.c ****     I2CS_SetTxInterruptMode(I2CS_NO_INTR_SOURCES);
 216              		.loc 1 292 0
 217 0020 0B49     		ldr	r1, .L8+20
 218 0022 0B60     		str	r3, [r1]
 293:Generated_Source\PSoC4/I2CS_I2C.c ****     I2CS_SetRxInterruptMode(I2CS_NO_INTR_SOURCES);
 219              		.loc 1 293 0
 220 0024 0B49     		ldr	r1, .L8+24
ARM GAS  C:\Users\DGILLI~1\AppData\Local\Temp\cclVnNvy.s 			page 10


 221 0026 0B60     		str	r3, [r1]
 294:Generated_Source\PSoC4/I2CS_I2C.c ****     
 295:Generated_Source\PSoC4/I2CS_I2C.c **** #if(I2CS_CY_SCBIP_V0)
 296:Generated_Source\PSoC4/I2CS_I2C.c ****     /* Clear interrupt sources as they are not cleared after scb IP is disabled */
 297:Generated_Source\PSoC4/I2CS_I2C.c ****     I2CS_ClearTxInterruptSource    (I2CS_INTR_TX_ALL);
 298:Generated_Source\PSoC4/I2CS_I2C.c ****     I2CS_ClearRxInterruptSource    (I2CS_INTR_RX_ALL);
 299:Generated_Source\PSoC4/I2CS_I2C.c ****     I2CS_ClearSlaveInterruptSource (I2CS_INTR_SLAVE_ALL);
 300:Generated_Source\PSoC4/I2CS_I2C.c ****     I2CS_ClearMasterInterruptSource(I2CS_INTR_MASTER_ALL);
 301:Generated_Source\PSoC4/I2CS_I2C.c **** #endif /* (I2CS_CY_SCBIP_V0) */
 302:Generated_Source\PSoC4/I2CS_I2C.c **** 
 303:Generated_Source\PSoC4/I2CS_I2C.c ****     I2CS_state = I2CS_I2C_FSM_IDLE;
 222              		.loc 1 303 0
 223 0028 1021     		movs	r1, #16
 224 002a 0B4B     		ldr	r3, .L8+28
 225 002c 1970     		strb	r1, [r3]
 304:Generated_Source\PSoC4/I2CS_I2C.c **** 
 305:Generated_Source\PSoC4/I2CS_I2C.c ****     /* Enable scb IP: start respond to I2C traffic */
 306:Generated_Source\PSoC4/I2CS_I2C.c ****     I2CS_CTRL_REG |= (uint32) I2CS_CTRL_ENABLED;
 226              		.loc 1 306 0
 227 002e 1368     		ldr	r3, [r2]
 228 0030 8021     		movs	r1, #128
 229 0032 0906     		lsls	r1, r1, #24
 230 0034 0B43     		orrs	r3, r1
 231 0036 1360     		str	r3, [r2]
 307:Generated_Source\PSoC4/I2CS_I2C.c **** }
 232              		.loc 1 307 0
 233              		@ sp needed
 234 0038 10BD     		pop	{r4, pc}
 235              	.L9:
 236 003a C046     		.align	2
 237              	.L8:
 238 003c 00000840 		.word	1074266112
 239 0040 68000840 		.word	1074266216
 240 0044 6C000840 		.word	1074266220
 241 0048 60000840 		.word	1074266208
 242 004c FF5CFFFF 		.word	-41729
 243 0050 880F0840 		.word	1074270088
 244 0054 C80F0840 		.word	1074270152
 245 0058 00000000 		.word	I2CS_state
 246              		.cfi_endproc
 247              	.LFE3:
 248              		.size	I2CS_I2CFwBlockReset, .-I2CS_I2CFwBlockReset
 249              		.section	.text.I2CS_I2CSaveConfig,"ax",%progbits
 250              		.align	2
 251              		.global	I2CS_I2CSaveConfig
 252              		.code	16
 253              		.thumb_func
 254              		.type	I2CS_I2CSaveConfig, %function
 255              	I2CS_I2CSaveConfig:
 256              	.LFB4:
 308:Generated_Source\PSoC4/I2CS_I2C.c **** 
 309:Generated_Source\PSoC4/I2CS_I2C.c **** 
 310:Generated_Source\PSoC4/I2CS_I2C.c **** #if(I2CS_I2C_WAKE_ENABLE_CONST)
 311:Generated_Source\PSoC4/I2CS_I2C.c ****     /*******************************************************************************
 312:Generated_Source\PSoC4/I2CS_I2C.c ****     * Function Name: I2CS_I2CSaveConfig
 313:Generated_Source\PSoC4/I2CS_I2C.c ****     ****************************************************************************//**
 314:Generated_Source\PSoC4/I2CS_I2C.c ****     *
ARM GAS  C:\Users\DGILLI~1\AppData\Local\Temp\cclVnNvy.s 			page 11


 315:Generated_Source\PSoC4/I2CS_I2C.c ****     *  Enables I2CS_INTR_I2C_EC_WAKE_UP interrupt source. This interrupt
 316:Generated_Source\PSoC4/I2CS_I2C.c ****     *  triggers on address match and wakes up device.
 317:Generated_Source\PSoC4/I2CS_I2C.c ****     *
 318:Generated_Source\PSoC4/I2CS_I2C.c ****     *******************************************************************************/
 319:Generated_Source\PSoC4/I2CS_I2C.c ****     void I2CS_I2CSaveConfig(void)
 320:Generated_Source\PSoC4/I2CS_I2C.c ****     {
 257              		.loc 1 320 0
 258              		.cfi_startproc
 259              		@ args = 0, pretend = 0, frame = 0
 260              		@ frame_needed = 0, uses_anonymous_args = 0
 261 0000 10B5     		push	{r4, lr}
 262              		.cfi_def_cfa_offset 8
 263              		.cfi_offset 4, -8
 264              		.cfi_offset 14, -4
 321:Generated_Source\PSoC4/I2CS_I2C.c ****     #if (!I2CS_CY_SCBIP_V0)
 322:Generated_Source\PSoC4/I2CS_I2C.c ****         #if (I2CS_I2C_MULTI_MASTER_SLAVE_CONST && I2CS_I2C_WAKE_ENABLE_CONST)
 323:Generated_Source\PSoC4/I2CS_I2C.c ****             /* Enable externally clocked address match if it was not enabled before.
 324:Generated_Source\PSoC4/I2CS_I2C.c ****             * This applicable only for Multi-Master-Slave. Ticket ID#192742 */
 325:Generated_Source\PSoC4/I2CS_I2C.c ****             if (0u == (I2CS_CTRL_REG & I2CS_CTRL_EC_AM_MODE))
 326:Generated_Source\PSoC4/I2CS_I2C.c ****             {
 327:Generated_Source\PSoC4/I2CS_I2C.c ****                 /* Enable external address match logic */
 328:Generated_Source\PSoC4/I2CS_I2C.c ****                 I2CS_Stop();
 329:Generated_Source\PSoC4/I2CS_I2C.c ****                 I2CS_CTRL_REG |= I2CS_CTRL_EC_AM_MODE;
 330:Generated_Source\PSoC4/I2CS_I2C.c ****                 I2CS_Enable();
 331:Generated_Source\PSoC4/I2CS_I2C.c ****             }
 332:Generated_Source\PSoC4/I2CS_I2C.c ****         #endif /* (I2CS_I2C_MULTI_MASTER_SLAVE_CONST) */
 333:Generated_Source\PSoC4/I2CS_I2C.c **** 
 334:Generated_Source\PSoC4/I2CS_I2C.c ****         #if (I2CS_SCB_CLK_INTERNAL)
 335:Generated_Source\PSoC4/I2CS_I2C.c ****             /* Disable clock to internal address match logic. Ticket ID#187931 */
 336:Generated_Source\PSoC4/I2CS_I2C.c ****             I2CS_SCBCLK_Stop();
 265              		.loc 1 336 0
 266 0002 FFF7FEFF 		bl	I2CS_SCBCLK_Stop
 267              	.LVL3:
 337:Generated_Source\PSoC4/I2CS_I2C.c ****         #endif /* (I2CS_SCB_CLK_INTERNAL) */
 338:Generated_Source\PSoC4/I2CS_I2C.c ****     #endif /* (!I2CS_CY_SCBIP_V0) */
 339:Generated_Source\PSoC4/I2CS_I2C.c **** 
 340:Generated_Source\PSoC4/I2CS_I2C.c ****         I2CS_SetI2CExtClkInterruptMode(I2CS_INTR_I2C_EC_WAKE_UP);
 268              		.loc 1 340 0
 269 0006 0122     		movs	r2, #1
 270 0008 014B     		ldr	r3, .L11
 271 000a 1A60     		str	r2, [r3]
 341:Generated_Source\PSoC4/I2CS_I2C.c ****     }
 272              		.loc 1 341 0
 273              		@ sp needed
 274 000c 10BD     		pop	{r4, pc}
 275              	.L12:
 276 000e C046     		.align	2
 277              	.L11:
 278 0010 880E0840 		.word	1074269832
 279              		.cfi_endproc
 280              	.LFE4:
 281              		.size	I2CS_I2CSaveConfig, .-I2CS_I2CSaveConfig
 282              		.section	.text.I2CS_I2CRestoreConfig,"ax",%progbits
 283              		.align	2
 284              		.global	I2CS_I2CRestoreConfig
 285              		.code	16
 286              		.thumb_func
ARM GAS  C:\Users\DGILLI~1\AppData\Local\Temp\cclVnNvy.s 			page 12


 287              		.type	I2CS_I2CRestoreConfig, %function
 288              	I2CS_I2CRestoreConfig:
 289              	.LFB5:
 342:Generated_Source\PSoC4/I2CS_I2C.c **** 
 343:Generated_Source\PSoC4/I2CS_I2C.c **** 
 344:Generated_Source\PSoC4/I2CS_I2C.c ****     /*******************************************************************************
 345:Generated_Source\PSoC4/I2CS_I2C.c ****     * Function Name: I2CS_I2CRestoreConfig
 346:Generated_Source\PSoC4/I2CS_I2C.c ****     ****************************************************************************//**
 347:Generated_Source\PSoC4/I2CS_I2C.c ****     *
 348:Generated_Source\PSoC4/I2CS_I2C.c ****     *  Disables I2CS_INTR_I2C_EC_WAKE_UP interrupt source. This interrupt
 349:Generated_Source\PSoC4/I2CS_I2C.c ****     *  triggers on address match and wakes up device.
 350:Generated_Source\PSoC4/I2CS_I2C.c ****     *
 351:Generated_Source\PSoC4/I2CS_I2C.c ****     *******************************************************************************/
 352:Generated_Source\PSoC4/I2CS_I2C.c ****     void I2CS_I2CRestoreConfig(void)
 353:Generated_Source\PSoC4/I2CS_I2C.c ****     {
 290              		.loc 1 353 0
 291              		.cfi_startproc
 292              		@ args = 0, pretend = 0, frame = 0
 293              		@ frame_needed = 0, uses_anonymous_args = 0
 294 0000 10B5     		push	{r4, lr}
 295              		.cfi_def_cfa_offset 8
 296              		.cfi_offset 4, -8
 297              		.cfi_offset 14, -4
 354:Generated_Source\PSoC4/I2CS_I2C.c ****         /* Disable wakeup interrupt on address match */
 355:Generated_Source\PSoC4/I2CS_I2C.c ****         I2CS_SetI2CExtClkInterruptMode(I2CS_NO_INTR_SOURCES);
 298              		.loc 1 355 0
 299 0002 0022     		movs	r2, #0
 300 0004 024B     		ldr	r3, .L14
 301 0006 1A60     		str	r2, [r3]
 356:Generated_Source\PSoC4/I2CS_I2C.c **** 
 357:Generated_Source\PSoC4/I2CS_I2C.c ****     #if (!I2CS_CY_SCBIP_V0)
 358:Generated_Source\PSoC4/I2CS_I2C.c ****         #if (I2CS_SCB_CLK_INTERNAL)
 359:Generated_Source\PSoC4/I2CS_I2C.c ****             /* Enable clock to internal address match logic. Ticket ID#187931 */
 360:Generated_Source\PSoC4/I2CS_I2C.c ****             I2CS_SCBCLK_Start();
 302              		.loc 1 360 0
 303 0008 FF20     		movs	r0, #255
 304 000a FFF7FEFF 		bl	I2CS_SCBCLK_StartEx
 305              	.LVL4:
 361:Generated_Source\PSoC4/I2CS_I2C.c ****         #endif /* (I2CS_SCB_CLK_INTERNAL) */
 362:Generated_Source\PSoC4/I2CS_I2C.c ****     #endif /* (!I2CS_CY_SCBIP_V0) */
 363:Generated_Source\PSoC4/I2CS_I2C.c ****     }
 306              		.loc 1 363 0
 307              		@ sp needed
 308 000e 10BD     		pop	{r4, pc}
 309              	.L15:
 310              		.align	2
 311              	.L14:
 312 0010 880E0840 		.word	1074269832
 313              		.cfi_endproc
 314              	.LFE5:
 315              		.size	I2CS_I2CRestoreConfig, .-I2CS_I2CRestoreConfig
 316              		.comm	I2CS_state,1,1
 317              		.text
 318              	.Letext0:
 319              		.file 2 "Generated_Source\\PSoC4/cytypes.h"
 320              		.file 3 "Generated_Source\\PSoC4\\I2CS_I2C_PVT.h"
 321              		.file 4 "Generated_Source\\PSoC4/CyLib.h"
ARM GAS  C:\Users\DGILLI~1\AppData\Local\Temp\cclVnNvy.s 			page 13


 322              		.file 5 "Generated_Source\\PSoC4\\I2CS_SCBCLK.h"