ARM GAS  C:\Users\DGILLI~1\AppData\Local\Temp\cch7Ztz4.s 			page 1


   1              		.syntax unified
   2              		.cpu cortex-m0plus
   3              		.fpu softvfp
   4              		.eabi_attribute 20, 1
   5              		.eabi_attribute 21, 1
   6              		.eabi_attribute 23, 3
   7              		.eabi_attribute 24, 1
   8              		.eabi_attribute 25, 1
   9              		.eabi_attribute 26, 1
  10              		.eabi_attribute 30, 1
  11              		.eabi_attribute 34, 0
  12              		.eabi_attribute 18, 4
  13              		.thumb
  14              		.syntax unified
  15              		.file	"I2CS_PM.c"
  16              		.text
  17              	.Ltext0:
  18              		.cfi_sections	.debug_frame
  19              		.section	.text.I2CS_Sleep,"ax",%progbits
  20              		.align	2
  21              		.global	I2CS_Sleep
  22              		.code	16
  23              		.thumb_func
  24              		.type	I2CS_Sleep, %function
  25              	I2CS_Sleep:
  26              	.LFB1:
  27              		.file 1 "Generated_Source\\PSoC4\\I2CS_PM.c"
   1:Generated_Source\PSoC4/I2CS_PM.c **** /***************************************************************************//**
   2:Generated_Source\PSoC4/I2CS_PM.c **** * \file I2CS_PM.c
   3:Generated_Source\PSoC4/I2CS_PM.c **** * \version 4.0
   4:Generated_Source\PSoC4/I2CS_PM.c **** *
   5:Generated_Source\PSoC4/I2CS_PM.c **** * \brief
   6:Generated_Source\PSoC4/I2CS_PM.c **** *  This file provides the source code to the Power Management support for
   7:Generated_Source\PSoC4/I2CS_PM.c **** *  the SCB Component.
   8:Generated_Source\PSoC4/I2CS_PM.c **** *
   9:Generated_Source\PSoC4/I2CS_PM.c **** * Note:
  10:Generated_Source\PSoC4/I2CS_PM.c **** *
  11:Generated_Source\PSoC4/I2CS_PM.c **** ********************************************************************************
  12:Generated_Source\PSoC4/I2CS_PM.c **** * \copyright
  13:Generated_Source\PSoC4/I2CS_PM.c **** * Copyright 2013-2017, Cypress Semiconductor Corporation.  All rights reserved.
  14:Generated_Source\PSoC4/I2CS_PM.c **** * You may use this file only in accordance with the license, terms, conditions,
  15:Generated_Source\PSoC4/I2CS_PM.c **** * disclaimers, and limitations in the end user license agreement accompanying
  16:Generated_Source\PSoC4/I2CS_PM.c **** * the software package with which this file was provided.
  17:Generated_Source\PSoC4/I2CS_PM.c **** *******************************************************************************/
  18:Generated_Source\PSoC4/I2CS_PM.c **** 
  19:Generated_Source\PSoC4/I2CS_PM.c **** #include "I2CS.h"
  20:Generated_Source\PSoC4/I2CS_PM.c **** #include "I2CS_PVT.h"
  21:Generated_Source\PSoC4/I2CS_PM.c **** 
  22:Generated_Source\PSoC4/I2CS_PM.c **** #if(I2CS_SCB_MODE_I2C_INC)
  23:Generated_Source\PSoC4/I2CS_PM.c ****     #include "I2CS_I2C_PVT.h"
  24:Generated_Source\PSoC4/I2CS_PM.c **** #endif /* (I2CS_SCB_MODE_I2C_INC) */
  25:Generated_Source\PSoC4/I2CS_PM.c **** 
  26:Generated_Source\PSoC4/I2CS_PM.c **** #if(I2CS_SCB_MODE_EZI2C_INC)
  27:Generated_Source\PSoC4/I2CS_PM.c ****     #include "I2CS_EZI2C_PVT.h"
  28:Generated_Source\PSoC4/I2CS_PM.c **** #endif /* (I2CS_SCB_MODE_EZI2C_INC) */
  29:Generated_Source\PSoC4/I2CS_PM.c **** 
  30:Generated_Source\PSoC4/I2CS_PM.c **** #if(I2CS_SCB_MODE_SPI_INC || I2CS_SCB_MODE_UART_INC)
ARM GAS  C:\Users\DGILLI~1\AppData\Local\Temp\cch7Ztz4.s 			page 2


  31:Generated_Source\PSoC4/I2CS_PM.c ****     #include "I2CS_SPI_UART_PVT.h"
  32:Generated_Source\PSoC4/I2CS_PM.c **** #endif /* (I2CS_SCB_MODE_SPI_INC || I2CS_SCB_MODE_UART_INC) */
  33:Generated_Source\PSoC4/I2CS_PM.c **** 
  34:Generated_Source\PSoC4/I2CS_PM.c **** 
  35:Generated_Source\PSoC4/I2CS_PM.c **** /***************************************
  36:Generated_Source\PSoC4/I2CS_PM.c **** *   Backup Structure declaration
  37:Generated_Source\PSoC4/I2CS_PM.c **** ***************************************/
  38:Generated_Source\PSoC4/I2CS_PM.c **** 
  39:Generated_Source\PSoC4/I2CS_PM.c **** #if(I2CS_SCB_MODE_UNCONFIG_CONST_CFG || \
  40:Generated_Source\PSoC4/I2CS_PM.c ****    (I2CS_SCB_MODE_I2C_CONST_CFG   && (!I2CS_I2C_WAKE_ENABLE_CONST))   || \
  41:Generated_Source\PSoC4/I2CS_PM.c ****    (I2CS_SCB_MODE_EZI2C_CONST_CFG && (!I2CS_EZI2C_WAKE_ENABLE_CONST)) || \
  42:Generated_Source\PSoC4/I2CS_PM.c ****    (I2CS_SCB_MODE_SPI_CONST_CFG   && (!I2CS_SPI_WAKE_ENABLE_CONST))   || \
  43:Generated_Source\PSoC4/I2CS_PM.c ****    (I2CS_SCB_MODE_UART_CONST_CFG  && (!I2CS_UART_WAKE_ENABLE_CONST)))
  44:Generated_Source\PSoC4/I2CS_PM.c **** 
  45:Generated_Source\PSoC4/I2CS_PM.c ****     I2CS_BACKUP_STRUCT I2CS_backup =
  46:Generated_Source\PSoC4/I2CS_PM.c ****     {
  47:Generated_Source\PSoC4/I2CS_PM.c ****         0u, /* enableState */
  48:Generated_Source\PSoC4/I2CS_PM.c ****     };
  49:Generated_Source\PSoC4/I2CS_PM.c **** #endif
  50:Generated_Source\PSoC4/I2CS_PM.c **** 
  51:Generated_Source\PSoC4/I2CS_PM.c **** 
  52:Generated_Source\PSoC4/I2CS_PM.c **** /*******************************************************************************
  53:Generated_Source\PSoC4/I2CS_PM.c **** * Function Name: I2CS_Sleep
  54:Generated_Source\PSoC4/I2CS_PM.c **** ****************************************************************************//**
  55:Generated_Source\PSoC4/I2CS_PM.c **** *
  56:Generated_Source\PSoC4/I2CS_PM.c **** *  Prepares the I2CS component to enter Deep Sleep.
  57:Generated_Source\PSoC4/I2CS_PM.c **** *  The “Enable wakeup from Deep Sleep Mode” selection has an influence on this 
  58:Generated_Source\PSoC4/I2CS_PM.c **** *  function implementation:
  59:Generated_Source\PSoC4/I2CS_PM.c **** *  - Checked: configures the component to be wakeup source from Deep Sleep.
  60:Generated_Source\PSoC4/I2CS_PM.c **** *  - Unchecked: stores the current component state (enabled or disabled) and 
  61:Generated_Source\PSoC4/I2CS_PM.c **** *    disables the component. See SCB_Stop() function for details about component 
  62:Generated_Source\PSoC4/I2CS_PM.c **** *    disabling.
  63:Generated_Source\PSoC4/I2CS_PM.c **** *
  64:Generated_Source\PSoC4/I2CS_PM.c **** *  Call the I2CS_Sleep() function before calling the 
  65:Generated_Source\PSoC4/I2CS_PM.c **** *  CyPmSysDeepSleep() function. 
  66:Generated_Source\PSoC4/I2CS_PM.c **** *  Refer to the PSoC Creator System Reference Guide for more information about 
  67:Generated_Source\PSoC4/I2CS_PM.c **** *  power management functions and Low power section of this document for the 
  68:Generated_Source\PSoC4/I2CS_PM.c **** *  selected mode.
  69:Generated_Source\PSoC4/I2CS_PM.c **** *
  70:Generated_Source\PSoC4/I2CS_PM.c **** *  This function should not be called before entering Sleep.
  71:Generated_Source\PSoC4/I2CS_PM.c **** *
  72:Generated_Source\PSoC4/I2CS_PM.c **** *******************************************************************************/
  73:Generated_Source\PSoC4/I2CS_PM.c **** void I2CS_Sleep(void)
  74:Generated_Source\PSoC4/I2CS_PM.c **** {
  28              		.loc 1 74 0
  29              		.cfi_startproc
  30              		@ args = 0, pretend = 0, frame = 0
  31              		@ frame_needed = 0, uses_anonymous_args = 0
  32 0000 10B5     		push	{r4, lr}
  33              		.cfi_def_cfa_offset 8
  34              		.cfi_offset 4, -8
  35              		.cfi_offset 14, -4
  75:Generated_Source\PSoC4/I2CS_PM.c **** #if(I2CS_SCB_MODE_UNCONFIG_CONST_CFG)
  76:Generated_Source\PSoC4/I2CS_PM.c **** 
  77:Generated_Source\PSoC4/I2CS_PM.c ****     if(I2CS_SCB_WAKE_ENABLE_CHECK)
  78:Generated_Source\PSoC4/I2CS_PM.c ****     {
  79:Generated_Source\PSoC4/I2CS_PM.c ****         if(I2CS_SCB_MODE_I2C_RUNTM_CFG)
ARM GAS  C:\Users\DGILLI~1\AppData\Local\Temp\cch7Ztz4.s 			page 3


  80:Generated_Source\PSoC4/I2CS_PM.c ****         {
  81:Generated_Source\PSoC4/I2CS_PM.c ****             I2CS_I2CSaveConfig();
  82:Generated_Source\PSoC4/I2CS_PM.c ****         }
  83:Generated_Source\PSoC4/I2CS_PM.c ****         else if(I2CS_SCB_MODE_EZI2C_RUNTM_CFG)
  84:Generated_Source\PSoC4/I2CS_PM.c ****         {
  85:Generated_Source\PSoC4/I2CS_PM.c ****             I2CS_EzI2CSaveConfig();
  86:Generated_Source\PSoC4/I2CS_PM.c ****         }
  87:Generated_Source\PSoC4/I2CS_PM.c ****     #if(!I2CS_CY_SCBIP_V1)
  88:Generated_Source\PSoC4/I2CS_PM.c ****         else if(I2CS_SCB_MODE_SPI_RUNTM_CFG)
  89:Generated_Source\PSoC4/I2CS_PM.c ****         {
  90:Generated_Source\PSoC4/I2CS_PM.c ****             I2CS_SpiSaveConfig();
  91:Generated_Source\PSoC4/I2CS_PM.c ****         }
  92:Generated_Source\PSoC4/I2CS_PM.c ****         else if(I2CS_SCB_MODE_UART_RUNTM_CFG)
  93:Generated_Source\PSoC4/I2CS_PM.c ****         {
  94:Generated_Source\PSoC4/I2CS_PM.c ****             I2CS_UartSaveConfig();
  95:Generated_Source\PSoC4/I2CS_PM.c ****         }
  96:Generated_Source\PSoC4/I2CS_PM.c ****     #endif /* (!I2CS_CY_SCBIP_V1) */
  97:Generated_Source\PSoC4/I2CS_PM.c ****         else
  98:Generated_Source\PSoC4/I2CS_PM.c ****         {
  99:Generated_Source\PSoC4/I2CS_PM.c ****             /* Unknown mode */
 100:Generated_Source\PSoC4/I2CS_PM.c ****         }
 101:Generated_Source\PSoC4/I2CS_PM.c ****     }
 102:Generated_Source\PSoC4/I2CS_PM.c ****     else
 103:Generated_Source\PSoC4/I2CS_PM.c ****     {
 104:Generated_Source\PSoC4/I2CS_PM.c ****         I2CS_backup.enableState = (uint8) I2CS_GET_CTRL_ENABLED;
 105:Generated_Source\PSoC4/I2CS_PM.c **** 
 106:Generated_Source\PSoC4/I2CS_PM.c ****         if(0u != I2CS_backup.enableState)
 107:Generated_Source\PSoC4/I2CS_PM.c ****         {
 108:Generated_Source\PSoC4/I2CS_PM.c ****             I2CS_Stop();
 109:Generated_Source\PSoC4/I2CS_PM.c ****         }
 110:Generated_Source\PSoC4/I2CS_PM.c ****     }
 111:Generated_Source\PSoC4/I2CS_PM.c **** 
 112:Generated_Source\PSoC4/I2CS_PM.c **** #else
 113:Generated_Source\PSoC4/I2CS_PM.c **** 
 114:Generated_Source\PSoC4/I2CS_PM.c ****     #if (I2CS_SCB_MODE_I2C_CONST_CFG && I2CS_I2C_WAKE_ENABLE_CONST)
 115:Generated_Source\PSoC4/I2CS_PM.c ****         I2CS_I2CSaveConfig();
  36              		.loc 1 115 0
  37 0002 FFF7FEFF 		bl	I2CS_I2CSaveConfig
  38              	.LVL0:
 116:Generated_Source\PSoC4/I2CS_PM.c **** 
 117:Generated_Source\PSoC4/I2CS_PM.c ****     #elif (I2CS_SCB_MODE_EZI2C_CONST_CFG && I2CS_EZI2C_WAKE_ENABLE_CONST)
 118:Generated_Source\PSoC4/I2CS_PM.c ****         I2CS_EzI2CSaveConfig();
 119:Generated_Source\PSoC4/I2CS_PM.c **** 
 120:Generated_Source\PSoC4/I2CS_PM.c ****     #elif (I2CS_SCB_MODE_SPI_CONST_CFG && I2CS_SPI_WAKE_ENABLE_CONST)
 121:Generated_Source\PSoC4/I2CS_PM.c ****         I2CS_SpiSaveConfig();
 122:Generated_Source\PSoC4/I2CS_PM.c **** 
 123:Generated_Source\PSoC4/I2CS_PM.c ****     #elif (I2CS_SCB_MODE_UART_CONST_CFG && I2CS_UART_WAKE_ENABLE_CONST)
 124:Generated_Source\PSoC4/I2CS_PM.c ****         I2CS_UartSaveConfig();
 125:Generated_Source\PSoC4/I2CS_PM.c **** 
 126:Generated_Source\PSoC4/I2CS_PM.c ****     #else
 127:Generated_Source\PSoC4/I2CS_PM.c **** 
 128:Generated_Source\PSoC4/I2CS_PM.c ****         I2CS_backup.enableState = (uint8) I2CS_GET_CTRL_ENABLED;
 129:Generated_Source\PSoC4/I2CS_PM.c **** 
 130:Generated_Source\PSoC4/I2CS_PM.c ****         if(0u != I2CS_backup.enableState)
 131:Generated_Source\PSoC4/I2CS_PM.c ****         {
 132:Generated_Source\PSoC4/I2CS_PM.c ****             I2CS_Stop();
 133:Generated_Source\PSoC4/I2CS_PM.c ****         }
ARM GAS  C:\Users\DGILLI~1\AppData\Local\Temp\cch7Ztz4.s 			page 4


 134:Generated_Source\PSoC4/I2CS_PM.c **** 
 135:Generated_Source\PSoC4/I2CS_PM.c ****     #endif /* defined (I2CS_SCB_MODE_I2C_CONST_CFG) && (I2CS_I2C_WAKE_ENABLE_CONST) */
 136:Generated_Source\PSoC4/I2CS_PM.c **** 
 137:Generated_Source\PSoC4/I2CS_PM.c **** #endif /* (I2CS_SCB_MODE_UNCONFIG_CONST_CFG) */
 138:Generated_Source\PSoC4/I2CS_PM.c **** }
  39              		.loc 1 138 0
  40              		@ sp needed
  41 0006 10BD     		pop	{r4, pc}
  42              		.cfi_endproc
  43              	.LFE1:
  44              		.size	I2CS_Sleep, .-I2CS_Sleep
  45              		.section	.text.I2CS_Wakeup,"ax",%progbits
  46              		.align	2
  47              		.global	I2CS_Wakeup
  48              		.code	16
  49              		.thumb_func
  50              		.type	I2CS_Wakeup, %function
  51              	I2CS_Wakeup:
  52              	.LFB2:
 139:Generated_Source\PSoC4/I2CS_PM.c **** 
 140:Generated_Source\PSoC4/I2CS_PM.c **** 
 141:Generated_Source\PSoC4/I2CS_PM.c **** /*******************************************************************************
 142:Generated_Source\PSoC4/I2CS_PM.c **** * Function Name: I2CS_Wakeup
 143:Generated_Source\PSoC4/I2CS_PM.c **** ****************************************************************************//**
 144:Generated_Source\PSoC4/I2CS_PM.c **** *
 145:Generated_Source\PSoC4/I2CS_PM.c **** *  Prepares the I2CS component for Active mode operation after 
 146:Generated_Source\PSoC4/I2CS_PM.c **** *  Deep Sleep.
 147:Generated_Source\PSoC4/I2CS_PM.c **** *  The “Enable wakeup from Deep Sleep Mode” selection has influence on this 
 148:Generated_Source\PSoC4/I2CS_PM.c **** *  function implementation:
 149:Generated_Source\PSoC4/I2CS_PM.c **** *  - Checked: restores the component Active mode configuration.
 150:Generated_Source\PSoC4/I2CS_PM.c **** *  - Unchecked: enables the component if it was enabled before enter Deep Sleep.
 151:Generated_Source\PSoC4/I2CS_PM.c **** *
 152:Generated_Source\PSoC4/I2CS_PM.c **** *  This function should not be called after exiting Sleep.
 153:Generated_Source\PSoC4/I2CS_PM.c **** *
 154:Generated_Source\PSoC4/I2CS_PM.c **** *  \sideeffect
 155:Generated_Source\PSoC4/I2CS_PM.c **** *   Calling the I2CS_Wakeup() function without first calling the 
 156:Generated_Source\PSoC4/I2CS_PM.c **** *   I2CS_Sleep() function may produce unexpected behavior.
 157:Generated_Source\PSoC4/I2CS_PM.c **** *
 158:Generated_Source\PSoC4/I2CS_PM.c **** *******************************************************************************/
 159:Generated_Source\PSoC4/I2CS_PM.c **** void I2CS_Wakeup(void)
 160:Generated_Source\PSoC4/I2CS_PM.c **** {
  53              		.loc 1 160 0
  54              		.cfi_startproc
  55              		@ args = 0, pretend = 0, frame = 0
  56              		@ frame_needed = 0, uses_anonymous_args = 0
  57 0000 10B5     		push	{r4, lr}
  58              		.cfi_def_cfa_offset 8
  59              		.cfi_offset 4, -8
  60              		.cfi_offset 14, -4
 161:Generated_Source\PSoC4/I2CS_PM.c **** #if(I2CS_SCB_MODE_UNCONFIG_CONST_CFG)
 162:Generated_Source\PSoC4/I2CS_PM.c **** 
 163:Generated_Source\PSoC4/I2CS_PM.c ****     if(I2CS_SCB_WAKE_ENABLE_CHECK)
 164:Generated_Source\PSoC4/I2CS_PM.c ****     {
 165:Generated_Source\PSoC4/I2CS_PM.c ****         if(I2CS_SCB_MODE_I2C_RUNTM_CFG)
 166:Generated_Source\PSoC4/I2CS_PM.c ****         {
 167:Generated_Source\PSoC4/I2CS_PM.c ****             I2CS_I2CRestoreConfig();
 168:Generated_Source\PSoC4/I2CS_PM.c ****         }
ARM GAS  C:\Users\DGILLI~1\AppData\Local\Temp\cch7Ztz4.s 			page 5


 169:Generated_Source\PSoC4/I2CS_PM.c ****         else if(I2CS_SCB_MODE_EZI2C_RUNTM_CFG)
 170:Generated_Source\PSoC4/I2CS_PM.c ****         {
 171:Generated_Source\PSoC4/I2CS_PM.c ****             I2CS_EzI2CRestoreConfig();
 172:Generated_Source\PSoC4/I2CS_PM.c ****         }
 173:Generated_Source\PSoC4/I2CS_PM.c ****     #if(!I2CS_CY_SCBIP_V1)
 174:Generated_Source\PSoC4/I2CS_PM.c ****         else if(I2CS_SCB_MODE_SPI_RUNTM_CFG)
 175:Generated_Source\PSoC4/I2CS_PM.c ****         {
 176:Generated_Source\PSoC4/I2CS_PM.c ****             I2CS_SpiRestoreConfig();
 177:Generated_Source\PSoC4/I2CS_PM.c ****         }
 178:Generated_Source\PSoC4/I2CS_PM.c ****         else if(I2CS_SCB_MODE_UART_RUNTM_CFG)
 179:Generated_Source\PSoC4/I2CS_PM.c ****         {
 180:Generated_Source\PSoC4/I2CS_PM.c ****             I2CS_UartRestoreConfig();
 181:Generated_Source\PSoC4/I2CS_PM.c ****         }
 182:Generated_Source\PSoC4/I2CS_PM.c ****     #endif /* (!I2CS_CY_SCBIP_V1) */
 183:Generated_Source\PSoC4/I2CS_PM.c ****         else
 184:Generated_Source\PSoC4/I2CS_PM.c ****         {
 185:Generated_Source\PSoC4/I2CS_PM.c ****             /* Unknown mode */
 186:Generated_Source\PSoC4/I2CS_PM.c ****         }
 187:Generated_Source\PSoC4/I2CS_PM.c ****     }
 188:Generated_Source\PSoC4/I2CS_PM.c ****     else
 189:Generated_Source\PSoC4/I2CS_PM.c ****     {
 190:Generated_Source\PSoC4/I2CS_PM.c ****         if(0u != I2CS_backup.enableState)
 191:Generated_Source\PSoC4/I2CS_PM.c ****         {
 192:Generated_Source\PSoC4/I2CS_PM.c ****             I2CS_Enable();
 193:Generated_Source\PSoC4/I2CS_PM.c ****         }
 194:Generated_Source\PSoC4/I2CS_PM.c ****     }
 195:Generated_Source\PSoC4/I2CS_PM.c **** 
 196:Generated_Source\PSoC4/I2CS_PM.c **** #else
 197:Generated_Source\PSoC4/I2CS_PM.c **** 
 198:Generated_Source\PSoC4/I2CS_PM.c ****     #if (I2CS_SCB_MODE_I2C_CONST_CFG  && I2CS_I2C_WAKE_ENABLE_CONST)
 199:Generated_Source\PSoC4/I2CS_PM.c ****         I2CS_I2CRestoreConfig();
  61              		.loc 1 199 0
  62 0002 FFF7FEFF 		bl	I2CS_I2CRestoreConfig
  63              	.LVL1:
 200:Generated_Source\PSoC4/I2CS_PM.c **** 
 201:Generated_Source\PSoC4/I2CS_PM.c ****     #elif (I2CS_SCB_MODE_EZI2C_CONST_CFG && I2CS_EZI2C_WAKE_ENABLE_CONST)
 202:Generated_Source\PSoC4/I2CS_PM.c ****         I2CS_EzI2CRestoreConfig();
 203:Generated_Source\PSoC4/I2CS_PM.c **** 
 204:Generated_Source\PSoC4/I2CS_PM.c ****     #elif (I2CS_SCB_MODE_SPI_CONST_CFG && I2CS_SPI_WAKE_ENABLE_CONST)
 205:Generated_Source\PSoC4/I2CS_PM.c ****         I2CS_SpiRestoreConfig();
 206:Generated_Source\PSoC4/I2CS_PM.c **** 
 207:Generated_Source\PSoC4/I2CS_PM.c ****     #elif (I2CS_SCB_MODE_UART_CONST_CFG && I2CS_UART_WAKE_ENABLE_CONST)
 208:Generated_Source\PSoC4/I2CS_PM.c ****         I2CS_UartRestoreConfig();
 209:Generated_Source\PSoC4/I2CS_PM.c **** 
 210:Generated_Source\PSoC4/I2CS_PM.c ****     #else
 211:Generated_Source\PSoC4/I2CS_PM.c **** 
 212:Generated_Source\PSoC4/I2CS_PM.c ****         if(0u != I2CS_backup.enableState)
 213:Generated_Source\PSoC4/I2CS_PM.c ****         {
 214:Generated_Source\PSoC4/I2CS_PM.c ****             I2CS_Enable();
 215:Generated_Source\PSoC4/I2CS_PM.c ****         }
 216:Generated_Source\PSoC4/I2CS_PM.c **** 
 217:Generated_Source\PSoC4/I2CS_PM.c ****     #endif /* (I2CS_I2C_WAKE_ENABLE_CONST) */
 218:Generated_Source\PSoC4/I2CS_PM.c **** 
 219:Generated_Source\PSoC4/I2CS_PM.c **** #endif /* (I2CS_SCB_MODE_UNCONFIG_CONST_CFG) */
 220:Generated_Source\PSoC4/I2CS_PM.c **** }
  64              		.loc 1 220 0
  65              		@ sp needed
ARM GAS  C:\Users\DGILLI~1\AppData\Local\Temp\cch7Ztz4.s 			page 6


  66 0006 10BD     		pop	{r4, pc}
  67              		.cfi_endproc
  68              	.LFE2:
  69              		.size	I2CS_Wakeup, .-I2CS_Wakeup
  70              		.text
  71              	.Letext0:
  72              		.file 2 "Generated_Source\\PSoC4\\I2CS_I2C_PVT.h"