ARM GAS  C:\Users\DGILLI~1\AppData\Local\Temp\ccZRJMyT.s 			page 1


   1              		.syntax unified
   2              		.cpu cortex-m0plus
   3              		.fpu softvfp
   4              		.eabi_attribute 20, 1
   5              		.eabi_attribute 21, 1
   6              		.eabi_attribute 23, 3
   7              		.eabi_attribute 24, 1
   8              		.eabi_attribute 25, 1
   9              		.eabi_attribute 26, 1
  10              		.eabi_attribute 30, 1
  11              		.eabi_attribute 34, 0
  12              		.eabi_attribute 18, 4
  13              		.thumb
  14              		.syntax unified
  15              		.file	"I2CS_I2C_SLAVE.c"
  16              		.text
  17              	.Ltext0:
  18              		.cfi_sections	.debug_frame
  19              		.section	.text.I2CS_I2CSlaveStatus,"ax",%progbits
  20              		.align	2
  21              		.global	I2CS_I2CSlaveStatus
  22              		.code	16
  23              		.thumb_func
  24              		.type	I2CS_I2CSlaveStatus, %function
  25              	I2CS_I2CSlaveStatus:
  26              	.LFB1:
  27              		.file 1 "Generated_Source\\PSoC4\\I2CS_I2C_SLAVE.c"
   1:Generated_Source\PSoC4/I2CS_I2C_SLAVE.c **** /***************************************************************************//**
   2:Generated_Source\PSoC4/I2CS_I2C_SLAVE.c **** * \file I2CS_I2C_SLAVE.c
   3:Generated_Source\PSoC4/I2CS_I2C_SLAVE.c **** * \version 4.0
   4:Generated_Source\PSoC4/I2CS_I2C_SLAVE.c **** *
   5:Generated_Source\PSoC4/I2CS_I2C_SLAVE.c **** * \brief
   6:Generated_Source\PSoC4/I2CS_I2C_SLAVE.c **** *  This file provides the source code to the API for the SCB Component in
   7:Generated_Source\PSoC4/I2CS_I2C_SLAVE.c **** *  I2C Slave mode.
   8:Generated_Source\PSoC4/I2CS_I2C_SLAVE.c **** *
   9:Generated_Source\PSoC4/I2CS_I2C_SLAVE.c **** * Note:
  10:Generated_Source\PSoC4/I2CS_I2C_SLAVE.c **** *
  11:Generated_Source\PSoC4/I2CS_I2C_SLAVE.c **** *******************************************************************************
  12:Generated_Source\PSoC4/I2CS_I2C_SLAVE.c **** * \copyright
  13:Generated_Source\PSoC4/I2CS_I2C_SLAVE.c **** * Copyright 2013-2017, Cypress Semiconductor Corporation.  All rights reserved.
  14:Generated_Source\PSoC4/I2CS_I2C_SLAVE.c **** * You may use this file only in accordance with the license, terms, conditions,
  15:Generated_Source\PSoC4/I2CS_I2C_SLAVE.c **** * disclaimers, and limitations in the end user license agreement accompanying
  16:Generated_Source\PSoC4/I2CS_I2C_SLAVE.c **** * the software package with which this file was provided.
  17:Generated_Source\PSoC4/I2CS_I2C_SLAVE.c **** *******************************************************************************/
  18:Generated_Source\PSoC4/I2CS_I2C_SLAVE.c **** 
  19:Generated_Source\PSoC4/I2CS_I2C_SLAVE.c **** #include "I2CS_I2C_PVT.h"
  20:Generated_Source\PSoC4/I2CS_I2C_SLAVE.c **** 
  21:Generated_Source\PSoC4/I2CS_I2C_SLAVE.c **** #if(I2CS_I2C_SLAVE_CONST)
  22:Generated_Source\PSoC4/I2CS_I2C_SLAVE.c **** 
  23:Generated_Source\PSoC4/I2CS_I2C_SLAVE.c **** /***************************************
  24:Generated_Source\PSoC4/I2CS_I2C_SLAVE.c **** *      I2C Slave Private Vars
  25:Generated_Source\PSoC4/I2CS_I2C_SLAVE.c **** ***************************************/
  26:Generated_Source\PSoC4/I2CS_I2C_SLAVE.c **** 
  27:Generated_Source\PSoC4/I2CS_I2C_SLAVE.c **** volatile uint8 I2CS_slStatus;          /* Slave Status */
  28:Generated_Source\PSoC4/I2CS_I2C_SLAVE.c **** 
  29:Generated_Source\PSoC4/I2CS_I2C_SLAVE.c **** /* Receive buffer variables */
  30:Generated_Source\PSoC4/I2CS_I2C_SLAVE.c **** volatile uint8 * I2CS_slWrBufPtr;      /* Pointer to Receive buffer  */
ARM GAS  C:\Users\DGILLI~1\AppData\Local\Temp\ccZRJMyT.s 			page 2


  31:Generated_Source\PSoC4/I2CS_I2C_SLAVE.c **** volatile uint32  I2CS_slWrBufSize;     /* Slave Receive buffer size  */
  32:Generated_Source\PSoC4/I2CS_I2C_SLAVE.c **** volatile uint32  I2CS_slWrBufIndex;    /* Slave Receive buffer Index */
  33:Generated_Source\PSoC4/I2CS_I2C_SLAVE.c **** 
  34:Generated_Source\PSoC4/I2CS_I2C_SLAVE.c **** /* Transmit buffer variables */
  35:Generated_Source\PSoC4/I2CS_I2C_SLAVE.c **** volatile uint8 * I2CS_slRdBufPtr;      /* Pointer to Transmit buffer  */
  36:Generated_Source\PSoC4/I2CS_I2C_SLAVE.c **** volatile uint32  I2CS_slRdBufSize;     /* Slave Transmit buffer size  */
  37:Generated_Source\PSoC4/I2CS_I2C_SLAVE.c **** volatile uint32  I2CS_slRdBufIndex;    /* Slave Transmit buffer Index */
  38:Generated_Source\PSoC4/I2CS_I2C_SLAVE.c **** volatile uint32  I2CS_slRdBufIndexTmp; /* Slave Transmit buffer Index Tmp */
  39:Generated_Source\PSoC4/I2CS_I2C_SLAVE.c **** volatile uint8   I2CS_slOverFlowCount; /* Slave Transmit Overflow counter */
  40:Generated_Source\PSoC4/I2CS_I2C_SLAVE.c **** 
  41:Generated_Source\PSoC4/I2CS_I2C_SLAVE.c **** #if (I2CS_I2C_CUSTOM_ADDRESS_HANDLER_CONST)
  42:Generated_Source\PSoC4/I2CS_I2C_SLAVE.c **** 
  43:Generated_Source\PSoC4/I2CS_I2C_SLAVE.c ****     uint32 (*I2CS_customAddressHandler)(void) = NULL;
  44:Generated_Source\PSoC4/I2CS_I2C_SLAVE.c **** 
  45:Generated_Source\PSoC4/I2CS_I2C_SLAVE.c ****     /*******************************************************************************
  46:Generated_Source\PSoC4/I2CS_I2C_SLAVE.c ****     * Function Name: I2CS_SetI2cAddressCustomInterruptHandler
  47:Generated_Source\PSoC4/I2CS_I2C_SLAVE.c ****     ****************************************************************************//**
  48:Generated_Source\PSoC4/I2CS_I2C_SLAVE.c ****     *
  49:Generated_Source\PSoC4/I2CS_I2C_SLAVE.c ****     *  Registers a function to be called by the I2C slave interrupt handler during
  50:Generated_Source\PSoC4/I2CS_I2C_SLAVE.c ****     *  the I2C interrupt address processing. This function should be used when
  51:Generated_Source\PSoC4/I2CS_I2C_SLAVE.c ****     *  multiple I2C addresses need to be decoded or general call address supported.
  52:Generated_Source\PSoC4/I2CS_I2C_SLAVE.c ****     *  The registered function must return decision whether to ACK or NACK address.
  53:Generated_Source\PSoC4/I2CS_I2C_SLAVE.c ****     *  Only one I2C address handler is supported, which is the function provided
  54:Generated_Source\PSoC4/I2CS_I2C_SLAVE.c ****     *  by the most recent call.
  55:Generated_Source\PSoC4/I2CS_I2C_SLAVE.c ****     *  At initialization time no I2C address handler is registered.
  56:Generated_Source\PSoC4/I2CS_I2C_SLAVE.c ****     *
  57:Generated_Source\PSoC4/I2CS_I2C_SLAVE.c ****     *  \param func: Pointer to the function to register.
  58:Generated_Source\PSoC4/I2CS_I2C_SLAVE.c ****     *   The value NULL indicates to remove the current custom interrupt
  59:Generated_Source\PSoC4/I2CS_I2C_SLAVE.c ****     *   handler.
  60:Generated_Source\PSoC4/I2CS_I2C_SLAVE.c ****     *   The registered function must return decision whether to ACK or NACK 
  61:Generated_Source\PSoC4/I2CS_I2C_SLAVE.c ****     *   accepted address: 0 – ACK, other values – NACK. The registered 
  62:Generated_Source\PSoC4/I2CS_I2C_SLAVE.c ****     *   callback function does not perform the ACK/NACK, this operation is 
  63:Generated_Source\PSoC4/I2CS_I2C_SLAVE.c ****     *   performed in the I2C ISR.
  64:Generated_Source\PSoC4/I2CS_I2C_SLAVE.c ****     *
  65:Generated_Source\PSoC4/I2CS_I2C_SLAVE.c ****     *******************************************************************************/
  66:Generated_Source\PSoC4/I2CS_I2C_SLAVE.c ****     void I2CS_SetI2cAddressCustomInterruptHandler(uint32 (*func) (void))
  67:Generated_Source\PSoC4/I2CS_I2C_SLAVE.c ****     {
  68:Generated_Source\PSoC4/I2CS_I2C_SLAVE.c ****         /* Register custom address handler */
  69:Generated_Source\PSoC4/I2CS_I2C_SLAVE.c ****         I2CS_customAddressHandler = func;
  70:Generated_Source\PSoC4/I2CS_I2C_SLAVE.c ****     }
  71:Generated_Source\PSoC4/I2CS_I2C_SLAVE.c **** #endif /* (I2CS_I2C_CUSTOM_ADDRESS_HANDLER_CONST) */
  72:Generated_Source\PSoC4/I2CS_I2C_SLAVE.c **** 
  73:Generated_Source\PSoC4/I2CS_I2C_SLAVE.c **** 
  74:Generated_Source\PSoC4/I2CS_I2C_SLAVE.c **** /*******************************************************************************
  75:Generated_Source\PSoC4/I2CS_I2C_SLAVE.c **** * Function Name: I2CS_I2CSlaveStatus
  76:Generated_Source\PSoC4/I2CS_I2C_SLAVE.c **** ****************************************************************************//**
  77:Generated_Source\PSoC4/I2CS_I2C_SLAVE.c **** *
  78:Generated_Source\PSoC4/I2CS_I2C_SLAVE.c **** *  Returns the I2C slave's communication status.
  79:Generated_Source\PSoC4/I2CS_I2C_SLAVE.c **** *
  80:Generated_Source\PSoC4/I2CS_I2C_SLAVE.c **** * \return
  81:Generated_Source\PSoC4/I2CS_I2C_SLAVE.c **** *  Current status of I2C slave.
  82:Generated_Source\PSoC4/I2CS_I2C_SLAVE.c **** *  This status incorporates read and write status constants. 
  83:Generated_Source\PSoC4/I2CS_I2C_SLAVE.c **** *  Each constant is a bit field value. The value returned may have multiple 
  84:Generated_Source\PSoC4/I2CS_I2C_SLAVE.c **** *  bits set to indicate the status of the read or write transfer.
  85:Generated_Source\PSoC4/I2CS_I2C_SLAVE.c **** *   - I2CS_I2C_SSTAT_RD_CMPLT - Slave read transfer complete. 
  86:Generated_Source\PSoC4/I2CS_I2C_SLAVE.c **** *     Set when master indicates it is done reading by sending a NAK.
  87:Generated_Source\PSoC4/I2CS_I2C_SLAVE.c **** *     The read error condition status bit must be checked to ensure that 
ARM GAS  C:\Users\DGILLI~1\AppData\Local\Temp\ccZRJMyT.s 			page 3


  88:Generated_Source\PSoC4/I2CS_I2C_SLAVE.c **** *     the read transfer was completed successfully.
  89:Generated_Source\PSoC4/I2CS_I2C_SLAVE.c **** *   - I2CS_I2C_SSTAT_RD_BUSY - Slave read transfer is in progress. 
  90:Generated_Source\PSoC4/I2CS_I2C_SLAVE.c **** *     Set when master addresses slave with a read, cleared when 
  91:Generated_Source\PSoC4/I2CS_I2C_SLAVE.c **** *    I2CS_I2C_SSTAT_RD_CMPLT is set.
  92:Generated_Source\PSoC4/I2CS_I2C_SLAVE.c **** *   - I2CS_I2C_SSTAT_RD_OVFL - Master attempted to read more bytes
  93:Generated_Source\PSoC4/I2CS_I2C_SLAVE.c **** *     than are in buffer. Slave continually returns 0xFF byte in this case.
  94:Generated_Source\PSoC4/I2CS_I2C_SLAVE.c **** *   - I2CS_I2C_SSTAT_RD_ERR - Slave captured error on the bus during 
  95:Generated_Source\PSoC4/I2CS_I2C_SLAVE.c **** *     a read transfer. The sources of error are: misplaced Start or Stop 
  96:Generated_Source\PSoC4/I2CS_I2C_SLAVE.c **** *     condition or lost arbitration while slave drives SDA.
  97:Generated_Source\PSoC4/I2CS_I2C_SLAVE.c **** *   - I2CS_I2C_SSTAT_WR_CMPLT - Slave write transfer complete. 
  98:Generated_Source\PSoC4/I2CS_I2C_SLAVE.c **** *     Set at reception of a Stop or ReStart condition. The write error condition
  99:Generated_Source\PSoC4/I2CS_I2C_SLAVE.c **** *     status bit must be checked to ensure that write transfer was completed
 100:Generated_Source\PSoC4/I2CS_I2C_SLAVE.c **** *     successfully.
 101:Generated_Source\PSoC4/I2CS_I2C_SLAVE.c **** *   - I2CS_I2C_SSTAT_WR_BUSY - Slave write transfer is in progress. 
 102:Generated_Source\PSoC4/I2CS_I2C_SLAVE.c **** *     Set when the master addresses the slave with a write, cleared when 
 103:Generated_Source\PSoC4/I2CS_I2C_SLAVE.c **** *    I2CS_I2C_SSTAT_WR_CMPLT is set.
 104:Generated_Source\PSoC4/I2CS_I2C_SLAVE.c **** *   - I2CS_I2C_SSTAT_WR_OVFL - Master attempted to write past end of 
 105:Generated_Source\PSoC4/I2CS_I2C_SLAVE.c **** *     buffer. Further bytes are ignored.
 106:Generated_Source\PSoC4/I2CS_I2C_SLAVE.c **** *   - I2CS_I2C_SSTAT_WR_ERR - Slave captured error on the bus during
 107:Generated_Source\PSoC4/I2CS_I2C_SLAVE.c **** *     write transfer. The sources of error are: misplaced Start or Stop condition
 108:Generated_Source\PSoC4/I2CS_I2C_SLAVE.c **** *     or lost arbitration while slave drives SDA.
 109:Generated_Source\PSoC4/I2CS_I2C_SLAVE.c **** *     The write buffer may contain invalid bytes or part of the data transfer when 
 110:Generated_Source\PSoC4/I2CS_I2C_SLAVE.c **** *     I2CS_I2C_SSTAT_WR_ERR is set. It is recommended to discard write 
 111:Generated_Source\PSoC4/I2CS_I2C_SLAVE.c **** *     buffer content in this case.
 112:Generated_Source\PSoC4/I2CS_I2C_SLAVE.c **** *
 113:Generated_Source\PSoC4/I2CS_I2C_SLAVE.c **** * \globalvars
 114:Generated_Source\PSoC4/I2CS_I2C_SLAVE.c **** *  I2CS_slStatus  - used to store current status of I2C slave.
 115:Generated_Source\PSoC4/I2CS_I2C_SLAVE.c **** *
 116:Generated_Source\PSoC4/I2CS_I2C_SLAVE.c **** *******************************************************************************/
 117:Generated_Source\PSoC4/I2CS_I2C_SLAVE.c **** uint32 I2CS_I2CSlaveStatus(void)
 118:Generated_Source\PSoC4/I2CS_I2C_SLAVE.c **** {
  28              		.loc 1 118 0
  29              		.cfi_startproc
  30              		@ args = 0, pretend = 0, frame = 0
  31              		@ frame_needed = 0, uses_anonymous_args = 0
  32              		@ link register save eliminated.
 119:Generated_Source\PSoC4/I2CS_I2C_SLAVE.c ****     return((uint32) I2CS_slStatus);
  33              		.loc 1 119 0
  34 0000 014B     		ldr	r3, .L2
  35 0002 1878     		ldrb	r0, [r3]
  36 0004 C0B2     		uxtb	r0, r0
 120:Generated_Source\PSoC4/I2CS_I2C_SLAVE.c **** }
  37              		.loc 1 120 0
  38              		@ sp needed
  39 0006 7047     		bx	lr
  40              	.L3:
  41              		.align	2
  42              	.L2:
  43 0008 00000000 		.word	I2CS_slStatus
  44              		.cfi_endproc
  45              	.LFE1:
  46              		.size	I2CS_I2CSlaveStatus, .-I2CS_I2CSlaveStatus
  47              		.section	.text.I2CS_I2CSlaveClearReadStatus,"ax",%progbits
  48              		.align	2
  49              		.global	I2CS_I2CSlaveClearReadStatus
  50              		.code	16
  51              		.thumb_func
ARM GAS  C:\Users\DGILLI~1\AppData\Local\Temp\ccZRJMyT.s 			page 4


  52              		.type	I2CS_I2CSlaveClearReadStatus, %function
  53              	I2CS_I2CSlaveClearReadStatus:
  54              	.LFB2:
 121:Generated_Source\PSoC4/I2CS_I2C_SLAVE.c **** 
 122:Generated_Source\PSoC4/I2CS_I2C_SLAVE.c **** 
 123:Generated_Source\PSoC4/I2CS_I2C_SLAVE.c **** /*******************************************************************************
 124:Generated_Source\PSoC4/I2CS_I2C_SLAVE.c **** * Function Name: I2CS_I2CSlaveClearReadStatus
 125:Generated_Source\PSoC4/I2CS_I2C_SLAVE.c **** ****************************************************************************//**
 126:Generated_Source\PSoC4/I2CS_I2C_SLAVE.c **** *
 127:Generated_Source\PSoC4/I2CS_I2C_SLAVE.c **** *  Clears the read status flags and returns their values. No other status flags
 128:Generated_Source\PSoC4/I2CS_I2C_SLAVE.c **** *  are affected.
 129:Generated_Source\PSoC4/I2CS_I2C_SLAVE.c **** *
 130:Generated_Source\PSoC4/I2CS_I2C_SLAVE.c **** * \return
 131:Generated_Source\PSoC4/I2CS_I2C_SLAVE.c **** *  Current read status of slave. See the SCB_I2CSlaveStatus() function for 
 132:Generated_Source\PSoC4/I2CS_I2C_SLAVE.c **** *  constants.
 133:Generated_Source\PSoC4/I2CS_I2C_SLAVE.c **** *
 134:Generated_Source\PSoC4/I2CS_I2C_SLAVE.c **** * \sideeffect
 135:Generated_Source\PSoC4/I2CS_I2C_SLAVE.c **** *  This function does not clear I2CS_I2C_SSTAT_RD_BUSY.
 136:Generated_Source\PSoC4/I2CS_I2C_SLAVE.c **** *
 137:Generated_Source\PSoC4/I2CS_I2C_SLAVE.c **** * \globalvars
 138:Generated_Source\PSoC4/I2CS_I2C_SLAVE.c **** *  I2CS_slStatus  - used to store current status of I2C slave.
 139:Generated_Source\PSoC4/I2CS_I2C_SLAVE.c **** *
 140:Generated_Source\PSoC4/I2CS_I2C_SLAVE.c **** *******************************************************************************/
 141:Generated_Source\PSoC4/I2CS_I2C_SLAVE.c **** uint32 I2CS_I2CSlaveClearReadStatus(void)
 142:Generated_Source\PSoC4/I2CS_I2C_SLAVE.c **** {
  55              		.loc 1 142 0
  56              		.cfi_startproc
  57              		@ args = 0, pretend = 0, frame = 0
  58              		@ frame_needed = 0, uses_anonymous_args = 0
  59 0000 10B5     		push	{r4, lr}
  60              		.cfi_def_cfa_offset 8
  61              		.cfi_offset 4, -8
  62              		.cfi_offset 14, -4
 143:Generated_Source\PSoC4/I2CS_I2C_SLAVE.c ****     uint32 status;
 144:Generated_Source\PSoC4/I2CS_I2C_SLAVE.c **** 
 145:Generated_Source\PSoC4/I2CS_I2C_SLAVE.c ****     I2CS_DisableInt();  /* Lock from interruption */
  63              		.loc 1 145 0
  64 0002 0720     		movs	r0, #7
  65 0004 FFF7FEFF 		bl	CyIntDisable
  66              	.LVL0:
 146:Generated_Source\PSoC4/I2CS_I2C_SLAVE.c **** 
 147:Generated_Source\PSoC4/I2CS_I2C_SLAVE.c ****     /* Mask of transfer complete flag and error status */
 148:Generated_Source\PSoC4/I2CS_I2C_SLAVE.c ****     status = ((uint32) I2CS_slStatus & I2CS_I2C_SSTAT_RD_MASK);
  67              		.loc 1 148 0
  68 0008 064A     		ldr	r2, .L5
  69 000a 1478     		ldrb	r4, [r2]
  70 000c 0F23     		movs	r3, #15
  71 000e 1C40     		ands	r4, r3
  72              	.LVL1:
 149:Generated_Source\PSoC4/I2CS_I2C_SLAVE.c ****     I2CS_slStatus &= (uint8) ~I2CS_I2C_SSTAT_RD_CLEAR;
  73              		.loc 1 149 0
  74 0010 1378     		ldrb	r3, [r2]
  75 0012 0D21     		movs	r1, #13
  76 0014 8B43     		bics	r3, r1
  77 0016 1370     		strb	r3, [r2]
 150:Generated_Source\PSoC4/I2CS_I2C_SLAVE.c **** 
 151:Generated_Source\PSoC4/I2CS_I2C_SLAVE.c ****     I2CS_EnableInt();   /* Release lock */
ARM GAS  C:\Users\DGILLI~1\AppData\Local\Temp\ccZRJMyT.s 			page 5


  78              		.loc 1 151 0
  79 0018 0720     		movs	r0, #7
  80 001a FFF7FEFF 		bl	CyIntEnable
  81              	.LVL2:
 152:Generated_Source\PSoC4/I2CS_I2C_SLAVE.c **** 
 153:Generated_Source\PSoC4/I2CS_I2C_SLAVE.c ****     return(status);
 154:Generated_Source\PSoC4/I2CS_I2C_SLAVE.c **** }
  82              		.loc 1 154 0
  83 001e 2000     		movs	r0, r4
  84              		@ sp needed
  85              	.LVL3:
  86 0020 10BD     		pop	{r4, pc}
  87              	.L6:
  88 0022 C046     		.align	2
  89              	.L5:
  90 0024 00000000 		.word	I2CS_slStatus
  91              		.cfi_endproc
  92              	.LFE2:
  93              		.size	I2CS_I2CSlaveClearReadStatus, .-I2CS_I2CSlaveClearReadStatus
  94              		.section	.text.I2CS_I2CSlaveClearWriteStatus,"ax",%progbits
  95              		.align	2
  96              		.global	I2CS_I2CSlaveClearWriteStatus
  97              		.code	16
  98              		.thumb_func
  99              		.type	I2CS_I2CSlaveClearWriteStatus, %function
 100              	I2CS_I2CSlaveClearWriteStatus:
 101              	.LFB3:
 155:Generated_Source\PSoC4/I2CS_I2C_SLAVE.c **** 
 156:Generated_Source\PSoC4/I2CS_I2C_SLAVE.c **** 
 157:Generated_Source\PSoC4/I2CS_I2C_SLAVE.c **** /*******************************************************************************
 158:Generated_Source\PSoC4/I2CS_I2C_SLAVE.c **** * Function Name: I2CS_I2CSlaveClearWriteStatus
 159:Generated_Source\PSoC4/I2CS_I2C_SLAVE.c **** ****************************************************************************//**
 160:Generated_Source\PSoC4/I2CS_I2C_SLAVE.c **** *
 161:Generated_Source\PSoC4/I2CS_I2C_SLAVE.c **** *  Clears the write status flags and returns their values. No other status flags
 162:Generated_Source\PSoC4/I2CS_I2C_SLAVE.c **** *  are affected.
 163:Generated_Source\PSoC4/I2CS_I2C_SLAVE.c **** *
 164:Generated_Source\PSoC4/I2CS_I2C_SLAVE.c **** * \return
 165:Generated_Source\PSoC4/I2CS_I2C_SLAVE.c **** *  Current write status of slave. See the SCB_I2CSlaveStatus() function 
 166:Generated_Source\PSoC4/I2CS_I2C_SLAVE.c **** *  for constants.
 167:Generated_Source\PSoC4/I2CS_I2C_SLAVE.c **** *
 168:Generated_Source\PSoC4/I2CS_I2C_SLAVE.c **** * \sideeffect
 169:Generated_Source\PSoC4/I2CS_I2C_SLAVE.c **** *  This function does not clear I2CS_I2C_SSTAT_WR_BUSY.*
 170:Generated_Source\PSoC4/I2CS_I2C_SLAVE.c **** *
 171:Generated_Source\PSoC4/I2CS_I2C_SLAVE.c **** * \globalvars
 172:Generated_Source\PSoC4/I2CS_I2C_SLAVE.c **** *  I2CS_slStatus  - used to store current status of I2C slave.
 173:Generated_Source\PSoC4/I2CS_I2C_SLAVE.c **** *
 174:Generated_Source\PSoC4/I2CS_I2C_SLAVE.c **** *******************************************************************************/
 175:Generated_Source\PSoC4/I2CS_I2C_SLAVE.c **** uint32 I2CS_I2CSlaveClearWriteStatus(void)
 176:Generated_Source\PSoC4/I2CS_I2C_SLAVE.c **** {
 102              		.loc 1 176 0
 103              		.cfi_startproc
 104              		@ args = 0, pretend = 0, frame = 0
 105              		@ frame_needed = 0, uses_anonymous_args = 0
 106 0000 10B5     		push	{r4, lr}
 107              		.cfi_def_cfa_offset 8
 108              		.cfi_offset 4, -8
 109              		.cfi_offset 14, -4
ARM GAS  C:\Users\DGILLI~1\AppData\Local\Temp\ccZRJMyT.s 			page 6


 177:Generated_Source\PSoC4/I2CS_I2C_SLAVE.c ****     uint32 status;
 178:Generated_Source\PSoC4/I2CS_I2C_SLAVE.c **** 
 179:Generated_Source\PSoC4/I2CS_I2C_SLAVE.c ****     I2CS_DisableInt();  /* Lock from interruption */
 110              		.loc 1 179 0
 111 0002 0720     		movs	r0, #7
 112 0004 FFF7FEFF 		bl	CyIntDisable
 113              	.LVL4:
 180:Generated_Source\PSoC4/I2CS_I2C_SLAVE.c **** 
 181:Generated_Source\PSoC4/I2CS_I2C_SLAVE.c ****     /* Mask of transfer complete flag and Error status */
 182:Generated_Source\PSoC4/I2CS_I2C_SLAVE.c ****     status = ((uint32) I2CS_slStatus & I2CS_I2C_SSTAT_WR_MASK);
 114              		.loc 1 182 0
 115 0008 064B     		ldr	r3, .L8
 116 000a 1C78     		ldrb	r4, [r3]
 117 000c 0F22     		movs	r2, #15
 118 000e 9443     		bics	r4, r2
 119              	.LVL5:
 183:Generated_Source\PSoC4/I2CS_I2C_SLAVE.c ****     I2CS_slStatus &= (uint8) ~I2CS_I2C_SSTAT_WR_CLEAR;
 120              		.loc 1 183 0
 121 0010 1978     		ldrb	r1, [r3]
 122 0012 2032     		adds	r2, r2, #32
 123 0014 0A40     		ands	r2, r1
 124 0016 1A70     		strb	r2, [r3]
 184:Generated_Source\PSoC4/I2CS_I2C_SLAVE.c **** 
 185:Generated_Source\PSoC4/I2CS_I2C_SLAVE.c ****     I2CS_EnableInt();   /* Release lock */
 125              		.loc 1 185 0
 126 0018 0720     		movs	r0, #7
 127 001a FFF7FEFF 		bl	CyIntEnable
 128              	.LVL6:
 186:Generated_Source\PSoC4/I2CS_I2C_SLAVE.c **** 
 187:Generated_Source\PSoC4/I2CS_I2C_SLAVE.c ****     return(status);
 188:Generated_Source\PSoC4/I2CS_I2C_SLAVE.c **** }
 129              		.loc 1 188 0
 130 001e 2000     		movs	r0, r4
 131              		@ sp needed
 132              	.LVL7:
 133 0020 10BD     		pop	{r4, pc}
 134              	.L9:
 135 0022 C046     		.align	2
 136              	.L8:
 137 0024 00000000 		.word	I2CS_slStatus
 138              		.cfi_endproc
 139              	.LFE3:
 140              		.size	I2CS_I2CSlaveClearWriteStatus, .-I2CS_I2CSlaveClearWriteStatus
 141              		.section	.text.I2CS_I2CSlaveSetAddress,"ax",%progbits
 142              		.align	2
 143              		.global	I2CS_I2CSlaveSetAddress
 144              		.code	16
 145              		.thumb_func
 146              		.type	I2CS_I2CSlaveSetAddress, %function
 147              	I2CS_I2CSlaveSetAddress:
 148              	.LFB4:
 189:Generated_Source\PSoC4/I2CS_I2C_SLAVE.c **** 
 190:Generated_Source\PSoC4/I2CS_I2C_SLAVE.c **** 
 191:Generated_Source\PSoC4/I2CS_I2C_SLAVE.c **** /*******************************************************************************
 192:Generated_Source\PSoC4/I2CS_I2C_SLAVE.c **** * Function Name: I2CS_I2CSlaveSetAddress
 193:Generated_Source\PSoC4/I2CS_I2C_SLAVE.c **** ****************************************************************************//**
 194:Generated_Source\PSoC4/I2CS_I2C_SLAVE.c **** *
ARM GAS  C:\Users\DGILLI~1\AppData\Local\Temp\ccZRJMyT.s 			page 7


 195:Generated_Source\PSoC4/I2CS_I2C_SLAVE.c **** * Sets the I2C slave address.
 196:Generated_Source\PSoC4/I2CS_I2C_SLAVE.c **** *
 197:Generated_Source\PSoC4/I2CS_I2C_SLAVE.c **** * \param address: I2C slave address for the primary device.
 198:Generated_Source\PSoC4/I2CS_I2C_SLAVE.c **** *  This address is the 7-bit right-justified slave address and does not 
 199:Generated_Source\PSoC4/I2CS_I2C_SLAVE.c **** *  include the R/W bit.
 200:Generated_Source\PSoC4/I2CS_I2C_SLAVE.c **** *  The address value is not checked to see if it violates the I2C spec. 
 201:Generated_Source\PSoC4/I2CS_I2C_SLAVE.c **** *  The preferred addresses are between 8 and 120 (0x08 to 0x78).
 202:Generated_Source\PSoC4/I2CS_I2C_SLAVE.c **** *
 203:Generated_Source\PSoC4/I2CS_I2C_SLAVE.c **** *******************************************************************************/
 204:Generated_Source\PSoC4/I2CS_I2C_SLAVE.c **** void I2CS_I2CSlaveSetAddress(uint32 address)
 205:Generated_Source\PSoC4/I2CS_I2C_SLAVE.c **** {
 149              		.loc 1 205 0
 150              		.cfi_startproc
 151              		@ args = 0, pretend = 0, frame = 0
 152              		@ frame_needed = 0, uses_anonymous_args = 0
 153              		@ link register save eliminated.
 154              	.LVL8:
 155 0000 0300     		movs	r3, r0
 206:Generated_Source\PSoC4/I2CS_I2C_SLAVE.c ****     uint32 matchReg;
 207:Generated_Source\PSoC4/I2CS_I2C_SLAVE.c **** 
 208:Generated_Source\PSoC4/I2CS_I2C_SLAVE.c ****     matchReg = I2CS_RX_MATCH_REG;
 156              		.loc 1 208 0
 157 0002 0449     		ldr	r1, .L11
 158 0004 0A68     		ldr	r2, [r1]
 159              	.LVL9:
 209:Generated_Source\PSoC4/I2CS_I2C_SLAVE.c **** 
 210:Generated_Source\PSoC4/I2CS_I2C_SLAVE.c ****     matchReg &= ((uint32) ~I2CS_RX_MATCH_ADDR_MASK); /* Clear address bits */
 160              		.loc 1 210 0
 161 0006 FF20     		movs	r0, #255
 162              	.LVL10:
 163 0008 8243     		bics	r2, r0
 164              	.LVL11:
 211:Generated_Source\PSoC4/I2CS_I2C_SLAVE.c ****     matchReg |= ((uint32)  I2CS_GET_I2C_8BIT_ADDRESS(address));
 165              		.loc 1 211 0
 166 000a 5B00     		lsls	r3, r3, #1
 167              	.LVL12:
 168 000c 1840     		ands	r0, r3
 169 000e 1043     		orrs	r0, r2
 170              	.LVL13:
 212:Generated_Source\PSoC4/I2CS_I2C_SLAVE.c **** 
 213:Generated_Source\PSoC4/I2CS_I2C_SLAVE.c ****     I2CS_RX_MATCH_REG = matchReg;
 171              		.loc 1 213 0
 172 0010 0860     		str	r0, [r1]
 214:Generated_Source\PSoC4/I2CS_I2C_SLAVE.c **** }
 173              		.loc 1 214 0
 174              		@ sp needed
 175 0012 7047     		bx	lr
 176              	.L12:
 177              		.align	2
 178              	.L11:
 179 0014 10030840 		.word	1074266896
 180              		.cfi_endproc
 181              	.LFE4:
 182              		.size	I2CS_I2CSlaveSetAddress, .-I2CS_I2CSlaveSetAddress
 183              		.section	.text.I2CS_I2CSlaveSetAddressMask,"ax",%progbits
 184              		.align	2
 185              		.global	I2CS_I2CSlaveSetAddressMask
ARM GAS  C:\Users\DGILLI~1\AppData\Local\Temp\ccZRJMyT.s 			page 8


 186              		.code	16
 187              		.thumb_func
 188              		.type	I2CS_I2CSlaveSetAddressMask, %function
 189              	I2CS_I2CSlaveSetAddressMask:
 190              	.LFB5:
 215:Generated_Source\PSoC4/I2CS_I2C_SLAVE.c **** 
 216:Generated_Source\PSoC4/I2CS_I2C_SLAVE.c **** 
 217:Generated_Source\PSoC4/I2CS_I2C_SLAVE.c **** /*******************************************************************************
 218:Generated_Source\PSoC4/I2CS_I2C_SLAVE.c **** * Function Name: I2CS_I2CSlaveSetAddressMask
 219:Generated_Source\PSoC4/I2CS_I2C_SLAVE.c **** ****************************************************************************//**
 220:Generated_Source\PSoC4/I2CS_I2C_SLAVE.c **** *
 221:Generated_Source\PSoC4/I2CS_I2C_SLAVE.c **** *  Sets the I2C slave address mask.
 222:Generated_Source\PSoC4/I2CS_I2C_SLAVE.c **** *
 223:Generated_Source\PSoC4/I2CS_I2C_SLAVE.c **** * \param addressMask: I2C slave address mask.
 224:Generated_Source\PSoC4/I2CS_I2C_SLAVE.c **** *  - Bit value 0 – excludes bit from address comparison.
 225:Generated_Source\PSoC4/I2CS_I2C_SLAVE.c **** *  - Bit value 1 – the bit needs to match with the corresponding bit of the 
 226:Generated_Source\PSoC4/I2CS_I2C_SLAVE.c **** *  I2C slave address.
 227:Generated_Source\PSoC4/I2CS_I2C_SLAVE.c **** *
 228:Generated_Source\PSoC4/I2CS_I2C_SLAVE.c **** *  The range of valid values is between 0 and 254 (0x00 to 0xFE). 
 229:Generated_Source\PSoC4/I2CS_I2C_SLAVE.c **** *  The LSB of the address mask must be 0 because it corresponds to R/W bit 
 230:Generated_Source\PSoC4/I2CS_I2C_SLAVE.c **** *  within I2C slave address byte.
 231:Generated_Source\PSoC4/I2CS_I2C_SLAVE.c **** *
 232:Generated_Source\PSoC4/I2CS_I2C_SLAVE.c **** *******************************************************************************/
 233:Generated_Source\PSoC4/I2CS_I2C_SLAVE.c **** void I2CS_I2CSlaveSetAddressMask(uint32 addressMask)
 234:Generated_Source\PSoC4/I2CS_I2C_SLAVE.c **** {
 191              		.loc 1 234 0
 192              		.cfi_startproc
 193              		@ args = 0, pretend = 0, frame = 0
 194              		@ frame_needed = 0, uses_anonymous_args = 0
 195              		@ link register save eliminated.
 196              	.LVL14:
 235:Generated_Source\PSoC4/I2CS_I2C_SLAVE.c ****     uint32 matchReg;
 236:Generated_Source\PSoC4/I2CS_I2C_SLAVE.c **** 
 237:Generated_Source\PSoC4/I2CS_I2C_SLAVE.c ****     matchReg = I2CS_RX_MATCH_REG;
 197              		.loc 1 237 0
 198 0000 034A     		ldr	r2, .L14
 199 0002 1168     		ldr	r1, [r2]
 200              	.LVL15:
 238:Generated_Source\PSoC4/I2CS_I2C_SLAVE.c **** 
 239:Generated_Source\PSoC4/I2CS_I2C_SLAVE.c ****     matchReg &= ((uint32) ~I2CS_RX_MATCH_MASK_MASK);
 201              		.loc 1 239 0
 202 0004 034B     		ldr	r3, .L14+4
 203 0006 0B40     		ands	r3, r1
 204              	.LVL16:
 240:Generated_Source\PSoC4/I2CS_I2C_SLAVE.c ****     matchReg |= ((uint32) (addressMask << I2CS_RX_MATCH_MASK_POS));
 205              		.loc 1 240 0
 206 0008 0004     		lsls	r0, r0, #16
 207              	.LVL17:
 208 000a 1843     		orrs	r0, r3
 209              	.LVL18:
 241:Generated_Source\PSoC4/I2CS_I2C_SLAVE.c **** 
 242:Generated_Source\PSoC4/I2CS_I2C_SLAVE.c ****     I2CS_RX_MATCH_REG = matchReg;
 210              		.loc 1 242 0
 211 000c 1060     		str	r0, [r2]
 243:Generated_Source\PSoC4/I2CS_I2C_SLAVE.c **** }
 212              		.loc 1 243 0
 213              		@ sp needed
ARM GAS  C:\Users\DGILLI~1\AppData\Local\Temp\ccZRJMyT.s 			page 9


 214 000e 7047     		bx	lr
 215              	.L15:
 216              		.align	2
 217              	.L14:
 218 0010 10030840 		.word	1074266896
 219 0014 FFFF00FF 		.word	-16711681
 220              		.cfi_endproc
 221              	.LFE5:
 222              		.size	I2CS_I2CSlaveSetAddressMask, .-I2CS_I2CSlaveSetAddressMask
 223              		.section	.text.I2CS_I2CSlaveInitReadBuf,"ax",%progbits
 224              		.align	2
 225              		.global	I2CS_I2CSlaveInitReadBuf
 226              		.code	16
 227              		.thumb_func
 228              		.type	I2CS_I2CSlaveInitReadBuf, %function
 229              	I2CS_I2CSlaveInitReadBuf:
 230              	.LFB6:
 244:Generated_Source\PSoC4/I2CS_I2C_SLAVE.c **** 
 245:Generated_Source\PSoC4/I2CS_I2C_SLAVE.c **** 
 246:Generated_Source\PSoC4/I2CS_I2C_SLAVE.c **** /*******************************************************************************
 247:Generated_Source\PSoC4/I2CS_I2C_SLAVE.c **** * Function Name: I2CS_I2CSlaveInitReadBuf
 248:Generated_Source\PSoC4/I2CS_I2C_SLAVE.c **** ****************************************************************************//**
 249:Generated_Source\PSoC4/I2CS_I2C_SLAVE.c **** *
 250:Generated_Source\PSoC4/I2CS_I2C_SLAVE.c **** *  Sets the buffer pointer and size of the read buffer. This function also
 251:Generated_Source\PSoC4/I2CS_I2C_SLAVE.c **** *  resets the transfer count returned with the 
 252:Generated_Source\PSoC4/I2CS_I2C_SLAVE.c **** *  I2CS_SlaveGetReadBufSize() function.
 253:Generated_Source\PSoC4/I2CS_I2C_SLAVE.c **** *
 254:Generated_Source\PSoC4/I2CS_I2C_SLAVE.c **** * \param readBuf: Pointer to the data buffer to be read by the master.
 255:Generated_Source\PSoC4/I2CS_I2C_SLAVE.c **** * \param bufSize: Size of the read buffer exposed to the I2C master.
 256:Generated_Source\PSoC4/I2CS_I2C_SLAVE.c **** *
 257:Generated_Source\PSoC4/I2CS_I2C_SLAVE.c **** * \sideeffect
 258:Generated_Source\PSoC4/I2CS_I2C_SLAVE.c **** *  If this function is called during a bus transaction, data from the previous
 259:Generated_Source\PSoC4/I2CS_I2C_SLAVE.c **** *  buffer location and the beginning of current buffer may be transmitted.
 260:Generated_Source\PSoC4/I2CS_I2C_SLAVE.c **** *
 261:Generated_Source\PSoC4/I2CS_I2C_SLAVE.c **** * \globalvars
 262:Generated_Source\PSoC4/I2CS_I2C_SLAVE.c **** *  I2CS_slRdBufPtr   - used to store pointer to slave read buffer.
 263:Generated_Source\PSoC4/I2CS_I2C_SLAVE.c **** *  I2CS_slRdBufSize  - used to store salve read buffer size.
 264:Generated_Source\PSoC4/I2CS_I2C_SLAVE.c **** *  I2CS_slRdBufIndex - used to store current index within slave
 265:Generated_Source\PSoC4/I2CS_I2C_SLAVE.c **** *  read buffer.
 266:Generated_Source\PSoC4/I2CS_I2C_SLAVE.c **** *
 267:Generated_Source\PSoC4/I2CS_I2C_SLAVE.c **** *******************************************************************************/
 268:Generated_Source\PSoC4/I2CS_I2C_SLAVE.c **** void I2CS_I2CSlaveInitReadBuf(uint8 * rdBuf, uint32 bufSize)
 269:Generated_Source\PSoC4/I2CS_I2C_SLAVE.c **** {
 231              		.loc 1 269 0
 232              		.cfi_startproc
 233              		@ args = 0, pretend = 0, frame = 0
 234              		@ frame_needed = 0, uses_anonymous_args = 0
 235              	.LVL19:
 236 0000 70B5     		push	{r4, r5, r6, lr}
 237              		.cfi_def_cfa_offset 16
 238              		.cfi_offset 4, -16
 239              		.cfi_offset 5, -12
 240              		.cfi_offset 6, -8
 241              		.cfi_offset 14, -4
 242 0002 0400     		movs	r4, r0
 243 0004 0D00     		movs	r5, r1
 270:Generated_Source\PSoC4/I2CS_I2C_SLAVE.c ****     /* Check for proper buffer */
ARM GAS  C:\Users\DGILLI~1\AppData\Local\Temp\ccZRJMyT.s 			page 10


 271:Generated_Source\PSoC4/I2CS_I2C_SLAVE.c ****     if(NULL != rdBuf)
 244              		.loc 1 271 0
 245 0006 0028     		cmp	r0, #0
 246 0008 0ED0     		beq	.L16
 272:Generated_Source\PSoC4/I2CS_I2C_SLAVE.c ****     {
 273:Generated_Source\PSoC4/I2CS_I2C_SLAVE.c ****         I2CS_DisableInt();  /* Lock from interruption */
 247              		.loc 1 273 0
 248 000a 0720     		movs	r0, #7
 249              	.LVL20:
 250 000c FFF7FEFF 		bl	CyIntDisable
 251              	.LVL21:
 274:Generated_Source\PSoC4/I2CS_I2C_SLAVE.c **** 
 275:Generated_Source\PSoC4/I2CS_I2C_SLAVE.c ****         I2CS_slRdBufPtr      = (volatile uint8 *) rdBuf; /* Set buffer pointer  */
 252              		.loc 1 275 0
 253 0010 064B     		ldr	r3, .L18
 254 0012 1C60     		str	r4, [r3]
 276:Generated_Source\PSoC4/I2CS_I2C_SLAVE.c ****         I2CS_slRdBufSize     = bufSize;                  /* Set buffer size     */
 255              		.loc 1 276 0
 256 0014 064B     		ldr	r3, .L18+4
 257 0016 1D60     		str	r5, [r3]
 277:Generated_Source\PSoC4/I2CS_I2C_SLAVE.c ****         I2CS_slRdBufIndex    = 0u;                       /* Clear buffer index  */
 258              		.loc 1 277 0
 259 0018 0023     		movs	r3, #0
 260 001a 064A     		ldr	r2, .L18+8
 261 001c 1360     		str	r3, [r2]
 278:Generated_Source\PSoC4/I2CS_I2C_SLAVE.c ****         I2CS_slRdBufIndexTmp = 0u;                       /* Clear buffer index  */
 262              		.loc 1 278 0
 263 001e 064A     		ldr	r2, .L18+12
 264 0020 1360     		str	r3, [r2]
 279:Generated_Source\PSoC4/I2CS_I2C_SLAVE.c **** 
 280:Generated_Source\PSoC4/I2CS_I2C_SLAVE.c ****         I2CS_EnableInt();   /* Release lock */
 265              		.loc 1 280 0
 266 0022 0720     		movs	r0, #7
 267 0024 FFF7FEFF 		bl	CyIntEnable
 268              	.LVL22:
 269              	.L16:
 281:Generated_Source\PSoC4/I2CS_I2C_SLAVE.c ****     }
 282:Generated_Source\PSoC4/I2CS_I2C_SLAVE.c **** }
 270              		.loc 1 282 0
 271              		@ sp needed
 272              	.LVL23:
 273              	.LVL24:
 274 0028 70BD     		pop	{r4, r5, r6, pc}
 275              	.L19:
 276 002a C046     		.align	2
 277              	.L18:
 278 002c 00000000 		.word	I2CS_slRdBufPtr
 279 0030 00000000 		.word	I2CS_slRdBufSize
 280 0034 00000000 		.word	I2CS_slRdBufIndex
 281 0038 00000000 		.word	I2CS_slRdBufIndexTmp
 282              		.cfi_endproc
 283              	.LFE6:
 284              		.size	I2CS_I2CSlaveInitReadBuf, .-I2CS_I2CSlaveInitReadBuf
 285              		.section	.text.I2CS_I2CSlaveInitWriteBuf,"ax",%progbits
 286              		.align	2
 287              		.global	I2CS_I2CSlaveInitWriteBuf
 288              		.code	16
ARM GAS  C:\Users\DGILLI~1\AppData\Local\Temp\ccZRJMyT.s 			page 11


 289              		.thumb_func
 290              		.type	I2CS_I2CSlaveInitWriteBuf, %function
 291              	I2CS_I2CSlaveInitWriteBuf:
 292              	.LFB7:
 283:Generated_Source\PSoC4/I2CS_I2C_SLAVE.c **** 
 284:Generated_Source\PSoC4/I2CS_I2C_SLAVE.c **** 
 285:Generated_Source\PSoC4/I2CS_I2C_SLAVE.c **** /*******************************************************************************
 286:Generated_Source\PSoC4/I2CS_I2C_SLAVE.c **** * Function Name: I2CS_I2CSlaveInitWriteBuf
 287:Generated_Source\PSoC4/I2CS_I2C_SLAVE.c **** ****************************************************************************//**
 288:Generated_Source\PSoC4/I2CS_I2C_SLAVE.c **** *
 289:Generated_Source\PSoC4/I2CS_I2C_SLAVE.c **** *  Sets the buffer pointer and size of the write buffer. This function also 
 290:Generated_Source\PSoC4/I2CS_I2C_SLAVE.c **** *  resets the transfer count returned with the 
 291:Generated_Source\PSoC4/I2CS_I2C_SLAVE.c **** *  I2CS_I2CSlaveGetWriteBufSize() function.
 292:Generated_Source\PSoC4/I2CS_I2C_SLAVE.c **** *
 293:Generated_Source\PSoC4/I2CS_I2C_SLAVE.c **** * \param writeBuf: Pointer to the data buffer to be written by the master.
 294:Generated_Source\PSoC4/I2CS_I2C_SLAVE.c **** * \param bufSize:  Size of the write buffer exposed to the I2C master.
 295:Generated_Source\PSoC4/I2CS_I2C_SLAVE.c **** *
 296:Generated_Source\PSoC4/I2CS_I2C_SLAVE.c **** * \sideeffect
 297:Generated_Source\PSoC4/I2CS_I2C_SLAVE.c **** *  If this function is called during a bus transaction, data may be received in 
 298:Generated_Source\PSoC4/I2CS_I2C_SLAVE.c **** *  the previous buffer and the current buffer location.
 299:Generated_Source\PSoC4/I2CS_I2C_SLAVE.c **** *
 300:Generated_Source\PSoC4/I2CS_I2C_SLAVE.c **** * \globalvars
 301:Generated_Source\PSoC4/I2CS_I2C_SLAVE.c **** *  I2CS_slWrBufPtr   - used to store pointer to slave write buffer.
 302:Generated_Source\PSoC4/I2CS_I2C_SLAVE.c **** *  I2CS_slWrBufSize  - used to store salve write buffer size.
 303:Generated_Source\PSoC4/I2CS_I2C_SLAVE.c **** *  I2CS_slWrBufIndex - used to store current index within slave
 304:Generated_Source\PSoC4/I2CS_I2C_SLAVE.c **** *   write buffer.
 305:Generated_Source\PSoC4/I2CS_I2C_SLAVE.c **** *
 306:Generated_Source\PSoC4/I2CS_I2C_SLAVE.c **** *******************************************************************************/
 307:Generated_Source\PSoC4/I2CS_I2C_SLAVE.c **** void I2CS_I2CSlaveInitWriteBuf(uint8 * wrBuf, uint32 bufSize)
 308:Generated_Source\PSoC4/I2CS_I2C_SLAVE.c **** {
 293              		.loc 1 308 0
 294              		.cfi_startproc
 295              		@ args = 0, pretend = 0, frame = 0
 296              		@ frame_needed = 0, uses_anonymous_args = 0
 297              	.LVL25:
 298 0000 70B5     		push	{r4, r5, r6, lr}
 299              		.cfi_def_cfa_offset 16
 300              		.cfi_offset 4, -16
 301              		.cfi_offset 5, -12
 302              		.cfi_offset 6, -8
 303              		.cfi_offset 14, -4
 304 0002 0400     		movs	r4, r0
 305 0004 0D00     		movs	r5, r1
 309:Generated_Source\PSoC4/I2CS_I2C_SLAVE.c ****     /* Check buffer pointer */
 310:Generated_Source\PSoC4/I2CS_I2C_SLAVE.c ****     if(NULL != wrBuf)
 306              		.loc 1 310 0
 307 0006 0028     		cmp	r0, #0
 308 0008 0CD0     		beq	.L20
 311:Generated_Source\PSoC4/I2CS_I2C_SLAVE.c ****     {
 312:Generated_Source\PSoC4/I2CS_I2C_SLAVE.c ****         I2CS_DisableInt();  /* Lock from interruption */
 309              		.loc 1 312 0
 310 000a 0720     		movs	r0, #7
 311              	.LVL26:
 312 000c FFF7FEFF 		bl	CyIntDisable
 313              	.LVL27:
 313:Generated_Source\PSoC4/I2CS_I2C_SLAVE.c **** 
 314:Generated_Source\PSoC4/I2CS_I2C_SLAVE.c ****         I2CS_slWrBufPtr   = (volatile uint8 *) wrBuf; /* Set buffer pointer  */
ARM GAS  C:\Users\DGILLI~1\AppData\Local\Temp\ccZRJMyT.s 			page 12


 314              		.loc 1 314 0
 315 0010 054B     		ldr	r3, .L22
 316 0012 1C60     		str	r4, [r3]
 315:Generated_Source\PSoC4/I2CS_I2C_SLAVE.c ****         I2CS_slWrBufSize  = bufSize;                  /* Set buffer size     */
 317              		.loc 1 315 0
 318 0014 054B     		ldr	r3, .L22+4
 319 0016 1D60     		str	r5, [r3]
 316:Generated_Source\PSoC4/I2CS_I2C_SLAVE.c ****         I2CS_slWrBufIndex = 0u;                       /* Clear buffer index  */
 320              		.loc 1 316 0
 321 0018 0022     		movs	r2, #0
 322 001a 054B     		ldr	r3, .L22+8
 323 001c 1A60     		str	r2, [r3]
 317:Generated_Source\PSoC4/I2CS_I2C_SLAVE.c **** 
 318:Generated_Source\PSoC4/I2CS_I2C_SLAVE.c ****         I2CS_EnableInt();   /* Release lock */
 324              		.loc 1 318 0
 325 001e 0720     		movs	r0, #7
 326 0020 FFF7FEFF 		bl	CyIntEnable
 327              	.LVL28:
 328              	.L20:
 319:Generated_Source\PSoC4/I2CS_I2C_SLAVE.c ****     }
 320:Generated_Source\PSoC4/I2CS_I2C_SLAVE.c **** }
 329              		.loc 1 320 0
 330              		@ sp needed
 331              	.LVL29:
 332              	.LVL30:
 333 0024 70BD     		pop	{r4, r5, r6, pc}
 334              	.L23:
 335 0026 C046     		.align	2
 336              	.L22:
 337 0028 00000000 		.word	I2CS_slWrBufPtr
 338 002c 00000000 		.word	I2CS_slWrBufSize
 339 0030 00000000 		.word	I2CS_slWrBufIndex
 340              		.cfi_endproc
 341              	.LFE7:
 342              		.size	I2CS_I2CSlaveInitWriteBuf, .-I2CS_I2CSlaveInitWriteBuf
 343              		.section	.text.I2CS_I2CSlaveGetReadBufSize,"ax",%progbits
 344              		.align	2
 345              		.global	I2CS_I2CSlaveGetReadBufSize
 346              		.code	16
 347              		.thumb_func
 348              		.type	I2CS_I2CSlaveGetReadBufSize, %function
 349              	I2CS_I2CSlaveGetReadBufSize:
 350              	.LFB8:
 321:Generated_Source\PSoC4/I2CS_I2C_SLAVE.c **** 
 322:Generated_Source\PSoC4/I2CS_I2C_SLAVE.c **** 
 323:Generated_Source\PSoC4/I2CS_I2C_SLAVE.c **** /*******************************************************************************
 324:Generated_Source\PSoC4/I2CS_I2C_SLAVE.c **** * Function Name: I2CS_I2CSlaveGetReadBufSize
 325:Generated_Source\PSoC4/I2CS_I2C_SLAVE.c **** ****************************************************************************//**
 326:Generated_Source\PSoC4/I2CS_I2C_SLAVE.c **** *
 327:Generated_Source\PSoC4/I2CS_I2C_SLAVE.c **** *  Returns the number of bytes read by the I2C master since an
 328:Generated_Source\PSoC4/I2CS_I2C_SLAVE.c **** *  I2CS_I2CSlaveInitReadBuf() or 
 329:Generated_Source\PSoC4/I2CS_I2C_SLAVE.c **** *  I2CS_I2CSlaveClearReadBuf() function was executed.
 330:Generated_Source\PSoC4/I2CS_I2C_SLAVE.c **** *  The maximum return value is the size of the read buffer.
 331:Generated_Source\PSoC4/I2CS_I2C_SLAVE.c **** *
 332:Generated_Source\PSoC4/I2CS_I2C_SLAVE.c **** * \return
 333:Generated_Source\PSoC4/I2CS_I2C_SLAVE.c **** *  Bytes read by master. If the transfer is not yet complete, it returns 
 334:Generated_Source\PSoC4/I2CS_I2C_SLAVE.c **** *  zero until transfer completion.
ARM GAS  C:\Users\DGILLI~1\AppData\Local\Temp\ccZRJMyT.s 			page 13


 335:Generated_Source\PSoC4/I2CS_I2C_SLAVE.c **** *
 336:Generated_Source\PSoC4/I2CS_I2C_SLAVE.c **** * \sideeffect
 337:Generated_Source\PSoC4/I2CS_I2C_SLAVE.c **** *  The returned value is not valid if I2CS_I2C_SSTAT_RD_ERR was 
 338:Generated_Source\PSoC4/I2CS_I2C_SLAVE.c **** *  captured by the slave.
 339:Generated_Source\PSoC4/I2CS_I2C_SLAVE.c **** *
 340:Generated_Source\PSoC4/I2CS_I2C_SLAVE.c **** * \globalvars
 341:Generated_Source\PSoC4/I2CS_I2C_SLAVE.c **** *  I2CS_slRdBufIndex - used to store current index within slave
 342:Generated_Source\PSoC4/I2CS_I2C_SLAVE.c **** *  read buffer.
 343:Generated_Source\PSoC4/I2CS_I2C_SLAVE.c **** *
 344:Generated_Source\PSoC4/I2CS_I2C_SLAVE.c **** *******************************************************************************/
 345:Generated_Source\PSoC4/I2CS_I2C_SLAVE.c **** uint32 I2CS_I2CSlaveGetReadBufSize(void)
 346:Generated_Source\PSoC4/I2CS_I2C_SLAVE.c **** {
 351              		.loc 1 346 0
 352              		.cfi_startproc
 353              		@ args = 0, pretend = 0, frame = 0
 354              		@ frame_needed = 0, uses_anonymous_args = 0
 355              		@ link register save eliminated.
 347:Generated_Source\PSoC4/I2CS_I2C_SLAVE.c ****     return(I2CS_slRdBufIndex);
 356              		.loc 1 347 0
 357 0000 014B     		ldr	r3, .L25
 358 0002 1868     		ldr	r0, [r3]
 348:Generated_Source\PSoC4/I2CS_I2C_SLAVE.c **** }
 359              		.loc 1 348 0
 360              		@ sp needed
 361 0004 7047     		bx	lr
 362              	.L26:
 363 0006 C046     		.align	2
 364              	.L25:
 365 0008 00000000 		.word	I2CS_slRdBufIndex
 366              		.cfi_endproc
 367              	.LFE8:
 368              		.size	I2CS_I2CSlaveGetReadBufSize, .-I2CS_I2CSlaveGetReadBufSize
 369              		.section	.text.I2CS_I2CSlaveGetWriteBufSize,"ax",%progbits
 370              		.align	2
 371              		.global	I2CS_I2CSlaveGetWriteBufSize
 372              		.code	16
 373              		.thumb_func
 374              		.type	I2CS_I2CSlaveGetWriteBufSize, %function
 375              	I2CS_I2CSlaveGetWriteBufSize:
 376              	.LFB9:
 349:Generated_Source\PSoC4/I2CS_I2C_SLAVE.c **** 
 350:Generated_Source\PSoC4/I2CS_I2C_SLAVE.c **** 
 351:Generated_Source\PSoC4/I2CS_I2C_SLAVE.c **** /*******************************************************************************
 352:Generated_Source\PSoC4/I2CS_I2C_SLAVE.c **** * Function Name: I2CS_I2CSlaveGetWriteBufSize
 353:Generated_Source\PSoC4/I2CS_I2C_SLAVE.c **** ****************************************************************************//**
 354:Generated_Source\PSoC4/I2CS_I2C_SLAVE.c **** *
 355:Generated_Source\PSoC4/I2CS_I2C_SLAVE.c **** *  Returns the number of bytes written by the I2C master since an
 356:Generated_Source\PSoC4/I2CS_I2C_SLAVE.c **** *  I2CS_I2CSlaveInitWriteBuf() or 
 357:Generated_Source\PSoC4/I2CS_I2C_SLAVE.c **** *  I2CS_I2CSlaveClearWriteBuf() function was executed.
 358:Generated_Source\PSoC4/I2CS_I2C_SLAVE.c **** *  The maximum return value is the size of the write buffer.
 359:Generated_Source\PSoC4/I2CS_I2C_SLAVE.c **** *
 360:Generated_Source\PSoC4/I2CS_I2C_SLAVE.c **** * \return
 361:Generated_Source\PSoC4/I2CS_I2C_SLAVE.c **** *  Bytes written by master.
 362:Generated_Source\PSoC4/I2CS_I2C_SLAVE.c **** *
 363:Generated_Source\PSoC4/I2CS_I2C_SLAVE.c **** * \sideeffect
 364:Generated_Source\PSoC4/I2CS_I2C_SLAVE.c **** *  The returned value is not valid if I2CS_I2C_SSTAT_WR_ERR was 
 365:Generated_Source\PSoC4/I2CS_I2C_SLAVE.c **** *  captured by the slave.
ARM GAS  C:\Users\DGILLI~1\AppData\Local\Temp\ccZRJMyT.s 			page 14


 366:Generated_Source\PSoC4/I2CS_I2C_SLAVE.c **** *
 367:Generated_Source\PSoC4/I2CS_I2C_SLAVE.c **** * \globalvars
 368:Generated_Source\PSoC4/I2CS_I2C_SLAVE.c **** *  I2CS_slWrBufIndex - used to store current index within slave
 369:Generated_Source\PSoC4/I2CS_I2C_SLAVE.c **** *   write buffer.
 370:Generated_Source\PSoC4/I2CS_I2C_SLAVE.c **** *
 371:Generated_Source\PSoC4/I2CS_I2C_SLAVE.c **** *******************************************************************************/
 372:Generated_Source\PSoC4/I2CS_I2C_SLAVE.c **** uint32 I2CS_I2CSlaveGetWriteBufSize(void)
 373:Generated_Source\PSoC4/I2CS_I2C_SLAVE.c **** {
 377              		.loc 1 373 0
 378              		.cfi_startproc
 379              		@ args = 0, pretend = 0, frame = 0
 380              		@ frame_needed = 0, uses_anonymous_args = 0
 381              		@ link register save eliminated.
 374:Generated_Source\PSoC4/I2CS_I2C_SLAVE.c ****     return(I2CS_slWrBufIndex);
 382              		.loc 1 374 0
 383 0000 014B     		ldr	r3, .L28
 384 0002 1868     		ldr	r0, [r3]
 375:Generated_Source\PSoC4/I2CS_I2C_SLAVE.c **** }
 385              		.loc 1 375 0
 386              		@ sp needed
 387 0004 7047     		bx	lr
 388              	.L29:
 389 0006 C046     		.align	2
 390              	.L28:
 391 0008 00000000 		.word	I2CS_slWrBufIndex
 392              		.cfi_endproc
 393              	.LFE9:
 394              		.size	I2CS_I2CSlaveGetWriteBufSize, .-I2CS_I2CSlaveGetWriteBufSize
 395              		.section	.text.I2CS_I2CSlaveClearReadBuf,"ax",%progbits
 396              		.align	2
 397              		.global	I2CS_I2CSlaveClearReadBuf
 398              		.code	16
 399              		.thumb_func
 400              		.type	I2CS_I2CSlaveClearReadBuf, %function
 401              	I2CS_I2CSlaveClearReadBuf:
 402              	.LFB10:
 376:Generated_Source\PSoC4/I2CS_I2C_SLAVE.c **** 
 377:Generated_Source\PSoC4/I2CS_I2C_SLAVE.c **** 
 378:Generated_Source\PSoC4/I2CS_I2C_SLAVE.c **** /*******************************************************************************
 379:Generated_Source\PSoC4/I2CS_I2C_SLAVE.c **** * Function Name: I2CS_I2CSlaveClearReadBuf
 380:Generated_Source\PSoC4/I2CS_I2C_SLAVE.c **** ****************************************************************************//**
 381:Generated_Source\PSoC4/I2CS_I2C_SLAVE.c **** *
 382:Generated_Source\PSoC4/I2CS_I2C_SLAVE.c **** *  Resets the read pointer to the first byte in the read buffer. The next byte
 383:Generated_Source\PSoC4/I2CS_I2C_SLAVE.c **** *  read by the master will be the first byte in the read buffer.
 384:Generated_Source\PSoC4/I2CS_I2C_SLAVE.c **** *
 385:Generated_Source\PSoC4/I2CS_I2C_SLAVE.c **** * \globalvars
 386:Generated_Source\PSoC4/I2CS_I2C_SLAVE.c **** *  I2CS_slRdBufIndex - used to store current index within slave
 387:Generated_Source\PSoC4/I2CS_I2C_SLAVE.c **** *  read buffer.
 388:Generated_Source\PSoC4/I2CS_I2C_SLAVE.c **** *
 389:Generated_Source\PSoC4/I2CS_I2C_SLAVE.c **** *******************************************************************************/
 390:Generated_Source\PSoC4/I2CS_I2C_SLAVE.c **** void I2CS_I2CSlaveClearReadBuf(void)
 391:Generated_Source\PSoC4/I2CS_I2C_SLAVE.c **** {
 403              		.loc 1 391 0
 404              		.cfi_startproc
 405              		@ args = 0, pretend = 0, frame = 0
 406              		@ frame_needed = 0, uses_anonymous_args = 0
 407              		@ link register save eliminated.
ARM GAS  C:\Users\DGILLI~1\AppData\Local\Temp\ccZRJMyT.s 			page 15


 392:Generated_Source\PSoC4/I2CS_I2C_SLAVE.c ****     I2CS_slRdBufIndex = 0u;
 408              		.loc 1 392 0
 409 0000 0022     		movs	r2, #0
 410 0002 014B     		ldr	r3, .L31
 411 0004 1A60     		str	r2, [r3]
 393:Generated_Source\PSoC4/I2CS_I2C_SLAVE.c **** }
 412              		.loc 1 393 0
 413              		@ sp needed
 414 0006 7047     		bx	lr
 415              	.L32:
 416              		.align	2
 417              	.L31:
 418 0008 00000000 		.word	I2CS_slRdBufIndex
 419              		.cfi_endproc
 420              	.LFE10:
 421              		.size	I2CS_I2CSlaveClearReadBuf, .-I2CS_I2CSlaveClearReadBuf
 422              		.section	.text.I2CS_I2CSlaveClearWriteBuf,"ax",%progbits
 423              		.align	2
 424              		.global	I2CS_I2CSlaveClearWriteBuf
 425              		.code	16
 426              		.thumb_func
 427              		.type	I2CS_I2CSlaveClearWriteBuf, %function
 428              	I2CS_I2CSlaveClearWriteBuf:
 429              	.LFB11:
 394:Generated_Source\PSoC4/I2CS_I2C_SLAVE.c **** 
 395:Generated_Source\PSoC4/I2CS_I2C_SLAVE.c **** 
 396:Generated_Source\PSoC4/I2CS_I2C_SLAVE.c **** /*******************************************************************************
 397:Generated_Source\PSoC4/I2CS_I2C_SLAVE.c **** * Function Name: I2CS_I2CSlaveClearWriteBuf
 398:Generated_Source\PSoC4/I2CS_I2C_SLAVE.c **** ****************************************************************************//**
 399:Generated_Source\PSoC4/I2CS_I2C_SLAVE.c **** *
 400:Generated_Source\PSoC4/I2CS_I2C_SLAVE.c **** *  Resets the write pointer to the first byte in the write buffer. The next byte
 401:Generated_Source\PSoC4/I2CS_I2C_SLAVE.c **** *  written by the master will be the first byte in the write buffer.
 402:Generated_Source\PSoC4/I2CS_I2C_SLAVE.c **** *
 403:Generated_Source\PSoC4/I2CS_I2C_SLAVE.c **** * \globalvars
 404:Generated_Source\PSoC4/I2CS_I2C_SLAVE.c **** *  I2CS_slWrBufIndex - used to store current index within slave
 405:Generated_Source\PSoC4/I2CS_I2C_SLAVE.c **** *  write buffer.
 406:Generated_Source\PSoC4/I2CS_I2C_SLAVE.c **** *
 407:Generated_Source\PSoC4/I2CS_I2C_SLAVE.c **** *******************************************************************************/
 408:Generated_Source\PSoC4/I2CS_I2C_SLAVE.c **** void I2CS_I2CSlaveClearWriteBuf(void)
 409:Generated_Source\PSoC4/I2CS_I2C_SLAVE.c **** {
 430              		.loc 1 409 0
 431              		.cfi_startproc
 432              		@ args = 0, pretend = 0, frame = 0
 433              		@ frame_needed = 0, uses_anonymous_args = 0
 434              		@ link register save eliminated.
 410:Generated_Source\PSoC4/I2CS_I2C_SLAVE.c ****     I2CS_slWrBufIndex = 0u;
 435              		.loc 1 410 0
 436 0000 0022     		movs	r2, #0
 437 0002 014B     		ldr	r3, .L34
 438 0004 1A60     		str	r2, [r3]
 411:Generated_Source\PSoC4/I2CS_I2C_SLAVE.c **** }
 439              		.loc 1 411 0
 440              		@ sp needed
 441 0006 7047     		bx	lr
 442              	.L35:
 443              		.align	2
 444              	.L34:
ARM GAS  C:\Users\DGILLI~1\AppData\Local\Temp\ccZRJMyT.s 			page 16


 445 0008 00000000 		.word	I2CS_slWrBufIndex
 446              		.cfi_endproc
 447              	.LFE11:
 448              		.size	I2CS_I2CSlaveClearWriteBuf, .-I2CS_I2CSlaveClearWriteBuf
 449              		.comm	I2CS_slOverFlowCount,1,1
 450              		.comm	I2CS_slRdBufIndexTmp,4,4
 451              		.comm	I2CS_slRdBufIndex,4,4
 452              		.comm	I2CS_slRdBufSize,4,4
 453              		.comm	I2CS_slRdBufPtr,4,4
 454              		.comm	I2CS_slWrBufIndex,4,4
 455              		.comm	I2CS_slWrBufSize,4,4
 456              		.comm	I2CS_slWrBufPtr,4,4
 457              		.comm	I2CS_slStatus,1,1
 458              		.text
 459              	.Letext0:
 460              		.file 2 "Generated_Source\\PSoC4/cytypes.h"
 461              		.file 3 "Generated_Source\\PSoC4/CyLib.h"