ARM GAS  C:\Users\DGILLI~1\AppData\Local\Temp\ccLDsTqs.s 			page 1


   1              		.syntax unified
   2              		.cpu cortex-m3
   3              		.fpu softvfp
   4              		.eabi_attribute 20, 1
   5              		.eabi_attribute 21, 1
   6              		.eabi_attribute 23, 3
   7              		.eabi_attribute 24, 1
   8              		.eabi_attribute 25, 1
   9              		.eabi_attribute 26, 1
  10              		.eabi_attribute 30, 1
  11              		.eabi_attribute 34, 1
  12              		.eabi_attribute 18, 4
  13              		.thumb
  14              		.syntax unified
  15              		.file	"ExtSRAM.c"
  16              		.text
  17              	.Ltext0:
  18              		.cfi_sections	.debug_frame
  19              		.section	.text.SetExtSRAMAddr,"ax",%progbits
  20              		.align	2
  21              		.global	SetExtSRAMAddr
  22              		.thumb
  23              		.thumb_func
  24              		.type	SetExtSRAMAddr, %function
  25              	SetExtSRAMAddr:
  26              	.LFB63:
  27              		.file 1 "ExtSRAM.c"
   1:ExtSRAM.c     **** /* ========================================
   2:ExtSRAM.c     **** *
   3:ExtSRAM.c     **** * Copyright LAND BOARDS, LLC, 2019
   4:ExtSRAM.c     **** * All Rights Reserved
   5:ExtSRAM.c     **** * UNPUBLISHED, LICENSED SOFTWARE.
   6:ExtSRAM.c     **** *
   7:ExtSRAM.c     **** * CONFIDENTIAL AND PROPRIETARY INFORMATION
   8:ExtSRAM.c     **** * WHICH IS THE PROPERTY OF LAND BOARDS, LLC.
   9:ExtSRAM.c     **** *
  10:ExtSRAM.c     **** * ========================================
  11:ExtSRAM.c     **** */
  12:ExtSRAM.c     **** 
  13:ExtSRAM.c     **** ////////////////////////////////////////////////////////////////////////////
  14:ExtSRAM.c     **** // Controls test and loading of the SRAM image from EPROM space of the PSoC.
  15:ExtSRAM.c     **** 
  16:ExtSRAM.c     **** #include <project.h>
  17:ExtSRAM.c     **** #include <Z80_PSoC_3Chips.h>
  18:ExtSRAM.c     **** 
  19:ExtSRAM.c     **** ////////////////////////////////////////////////////////////////////////////
  20:ExtSRAM.c     **** // Bits in the SRAM direct control register 
  21:ExtSRAM.c     **** 
  22:ExtSRAM.c     **** #define DRVRAM_BIT      0x01    // 1 = Drive SRAM bus from PSoC
  23:ExtSRAM.c     **** #define SRAMCS_BIT      0x02    // 1 = Drive SRAMCS
  24:ExtSRAM.c     **** #define SRAMRD_BIT      0x04    // 1 = SRAM read
  25:ExtSRAM.c     **** #define SRAMWR_BIT      0x08    // 1 = SRAM write
  26:ExtSRAM.c     **** #define CPURESET_BIT    0x10    // 1 = Z80 held in reset
  27:ExtSRAM.c     **** 
  28:ExtSRAM.c     **** ////////////////////////////////////////////////////////////////////////////
  29:ExtSRAM.c     **** // externs for the EPROM images
  30:ExtSRAM.c     **** 
ARM GAS  C:\Users\DGILLI~1\AppData\Local\Temp\ccLDsTqs.s 			page 2


  31:ExtSRAM.c     **** #ifdef GRANT_9_CHIP_Z80
  32:ExtSRAM.c     **** extern unsigned char monitor_basic_eprom[];
  33:ExtSRAM.c     **** #endif
  34:ExtSRAM.c     **** #ifdef GRANT_7_CHIP_Z80
  35:ExtSRAM.c     **** extern unsigned char gs7chip_basic_eeprom[];
  36:ExtSRAM.c     **** #endif
  37:ExtSRAM.c     **** #ifdef GRANT_FPGA_CPM
  38:ExtSRAM.c     **** extern const unsigned char gs_fpga_basic_eeprom[];
  39:ExtSRAM.c     **** #endif
  40:ExtSRAM.c     **** #ifdef MULTIBOOT_CPM
  41:ExtSRAM.c     **** extern const unsigned char multi_boot_eprom[];
  42:ExtSRAM.c     **** #endif
  43:ExtSRAM.c     **** 
  44:ExtSRAM.c     **** ////////////////////////////////////////////////////////////////////////////
  45:ExtSRAM.c     **** // SetExtSRAMAddr(addr) - Set the address registers for the SRAM
  46:ExtSRAM.c     **** 
  47:ExtSRAM.c     **** void SetExtSRAMAddr(uint32 addr)
  48:ExtSRAM.c     **** {
  28              		.loc 1 48 0
  29              		.cfi_startproc
  30              		@ args = 0, pretend = 0, frame = 0
  31              		@ frame_needed = 0, uses_anonymous_args = 0
  32              	.LVL0:
  33 0000 10B5     		push	{r4, lr}
  34              		.cfi_def_cfa_offset 8
  35              		.cfi_offset 4, -8
  36              		.cfi_offset 14, -4
  37 0002 0446     		mov	r4, r0
  49:ExtSRAM.c     **** 	AdrLowOut_Write(addr & 0xff);           // bottom 8-bits of the address A0..A7
  38              		.loc 1 49 0
  39 0004 C0B2     		uxtb	r0, r0
  40              	.LVL1:
  41 0006 FFF7FEFF 		bl	AdrLowOut_Write
  42              	.LVL2:
  50:ExtSRAM.c     **** 	AdrMidOut_Write((addr>>8) & 0x7);       // middle 3-bits of the address A8..A10
  43              		.loc 1 50 0
  44 000a C4F30220 		ubfx	r0, r4, #8, #3
  45 000e FFF7FEFF 		bl	AdrMidOut_Write
  46              	.LVL3:
  51:ExtSRAM.c     **** 	AdrHighOut_Write((addr>>11) & 0xFF);    // Upper bits of the address A11..A18
  47              		.loc 1 51 0
  48 0012 C4F3C720 		ubfx	r0, r4, #11, #8
  49 0016 FFF7FEFF 		bl	AdrHighOut_Write
  50              	.LVL4:
  51 001a 10BD     		pop	{r4, pc}
  52              		.cfi_endproc
  53              	.LFE63:
  54              		.size	SetExtSRAMAddr, .-SetExtSRAMAddr
  55              		.section	.text.ReadExtSRAM,"ax",%progbits
  56              		.align	2
  57              		.global	ReadExtSRAM
  58              		.thumb
  59              		.thumb_func
  60              		.type	ReadExtSRAM, %function
  61              	ReadExtSRAM:
  62              	.LFB64:
  52:ExtSRAM.c     **** }
ARM GAS  C:\Users\DGILLI~1\AppData\Local\Temp\ccLDsTqs.s 			page 3


  53:ExtSRAM.c     **** 
  54:ExtSRAM.c     **** ////////////////////////////////////////////////////////////////////////////
  55:ExtSRAM.c     **** // ReadExtSRAM(addr) - Read the external SRAM at address = addr
  56:ExtSRAM.c     **** //  Z80 is held in CPU_RESET during this action
  57:ExtSRAM.c     **** 
  58:ExtSRAM.c     **** uint8 ReadExtSRAM(uint32 addr)
  59:ExtSRAM.c     **** {
  63              		.loc 1 59 0
  64              		.cfi_startproc
  65              		@ args = 0, pretend = 0, frame = 0
  66              		@ frame_needed = 0, uses_anonymous_args = 0
  67              	.LVL5:
  68 0000 10B5     		push	{r4, lr}
  69              		.cfi_def_cfa_offset 8
  70              		.cfi_offset 4, -8
  71              		.cfi_offset 14, -4
  60:ExtSRAM.c     **** 	uint8 rdVal;
  61:ExtSRAM.c     **** 	SetExtSRAMAddr(addr);
  72              		.loc 1 61 0
  73 0002 FFF7FEFF 		bl	SetExtSRAMAddr
  74              	.LVL6:
  62:ExtSRAM.c     **** 	ExtSRAMCtl_Write(CPURESET_BIT | DRVRAM_BIT | SRAMRD_BIT);               // Set R/W* to Read
  75              		.loc 1 62 0
  76 0006 1520     		movs	r0, #21
  77 0008 FFF7FEFF 		bl	ExtSRAMCtl_Write
  78              	.LVL7:
  63:ExtSRAM.c     **** 	ExtSRAMCtl_Write(CPURESET_BIT | DRVRAM_BIT | SRAMRD_BIT | SRAMCS_BIT);  // Assert SRAMCS
  79              		.loc 1 63 0
  80 000c 1720     		movs	r0, #23
  81 000e FFF7FEFF 		bl	ExtSRAMCtl_Write
  82              	.LVL8:
  64:ExtSRAM.c     **** 	rdVal = Z80_Data_Out_Status;
  83              		.loc 1 64 0
  84 0012 044B     		ldr	r3, .L5
  85 0014 1C78     		ldrb	r4, [r3]	@ zero_extendqisi2
  86 0016 E4B2     		uxtb	r4, r4
  87              	.LVL9:
  65:ExtSRAM.c     **** 	ExtSRAMCtl_Write(CPURESET_BIT | DRVRAM_BIT);                        // Remove SRAMCS
  88              		.loc 1 65 0
  89 0018 1120     		movs	r0, #17
  90 001a FFF7FEFF 		bl	ExtSRAMCtl_Write
  91              	.LVL10:
  66:ExtSRAM.c     **** 	return(rdVal);
  67:ExtSRAM.c     **** }
  92              		.loc 1 67 0
  93 001e 2046     		mov	r0, r4
  94 0020 10BD     		pop	{r4, pc}
  95              	.LVL11:
  96              	.L6:
  97 0022 00BF     		.align	2
  98              	.L5:
  99 0024 6A640040 		.word	1073767530
 100              		.cfi_endproc
 101              	.LFE64:
 102              		.size	ReadExtSRAM, .-ReadExtSRAM
 103              		.section	.text.WriteExtSRAM,"ax",%progbits
 104              		.align	2
ARM GAS  C:\Users\DGILLI~1\AppData\Local\Temp\ccLDsTqs.s 			page 4


 105              		.global	WriteExtSRAM
 106              		.thumb
 107              		.thumb_func
 108              		.type	WriteExtSRAM, %function
 109              	WriteExtSRAM:
 110              	.LFB65:
  68:ExtSRAM.c     **** 
  69:ExtSRAM.c     **** ////////////////////////////////////////////////////////////////////////////
  70:ExtSRAM.c     **** // WriteExtSRAM(addr,data) - Write to the external SRAM at address = addr
  71:ExtSRAM.c     **** //  Z80 is held in CPU_RESET during this action
  72:ExtSRAM.c     **** 
  73:ExtSRAM.c     **** void WriteExtSRAM(uint32 addr, uint8 data)
  74:ExtSRAM.c     **** {
 111              		.loc 1 74 0
 112              		.cfi_startproc
 113              		@ args = 0, pretend = 0, frame = 0
 114              		@ frame_needed = 0, uses_anonymous_args = 0
 115              	.LVL12:
 116 0000 10B5     		push	{r4, lr}
 117              		.cfi_def_cfa_offset 8
 118              		.cfi_offset 4, -8
 119              		.cfi_offset 14, -4
 120 0002 0C46     		mov	r4, r1
  75:ExtSRAM.c     **** 	SetExtSRAMAddr(addr);
 121              		.loc 1 75 0
 122 0004 FFF7FEFF 		bl	SetExtSRAMAddr
 123              	.LVL13:
  76:ExtSRAM.c     **** 	ExtSRAMCtl_Write(CPURESET_BIT | DRVRAM_BIT | SRAMWR_BIT);               // Set R/W* to Write
 124              		.loc 1 76 0
 125 0008 1920     		movs	r0, #25
 126 000a FFF7FEFF 		bl	ExtSRAMCtl_Write
 127              	.LVL14:
  77:ExtSRAM.c     **** 	Z80_Data_In_Write(data);                                                // Provide value to SRAM d
 128              		.loc 1 77 0
 129 000e 2046     		mov	r0, r4
 130 0010 FFF7FEFF 		bl	Z80_Data_In_Write
 131              	.LVL15:
  78:ExtSRAM.c     **** 	ExtSRAMCtl_Write(CPURESET_BIT | DRVRAM_BIT | SRAMWR_BIT | SRAMCS_BIT);  // Assert SRAMCSn
 132              		.loc 1 78 0
 133 0014 1B20     		movs	r0, #27
 134 0016 FFF7FEFF 		bl	ExtSRAMCtl_Write
 135              	.LVL16:
  79:ExtSRAM.c     **** 	ExtSRAMCtl_Write(CPURESET_BIT | DRVRAM_BIT);                            // De-assert SRAMCSn, Set 
 136              		.loc 1 79 0
 137 001a 1120     		movs	r0, #17
 138 001c FFF7FEFF 		bl	ExtSRAMCtl_Write
 139              	.LVL17:
 140 0020 10BD     		pop	{r4, pc}
 141              		.cfi_endproc
 142              	.LFE65:
 143              		.size	WriteExtSRAM, .-WriteExtSRAM
 144 0022 00BF     		.section	.text.TestSRAM,"ax",%progbits
 145              		.align	2
 146              		.global	TestSRAM
 147              		.thumb
 148              		.thumb_func
 149              		.type	TestSRAM, %function
ARM GAS  C:\Users\DGILLI~1\AppData\Local\Temp\ccLDsTqs.s 			page 5


 150              	TestSRAM:
 151              	.LFB66:
  80:ExtSRAM.c     **** }
  81:ExtSRAM.c     **** 
  82:ExtSRAM.c     **** ////////////////////////////////////////////////////////////////////////////
  83:ExtSRAM.c     **** // TestSRAM() - Test the 512KB External SRAM
  84:ExtSRAM.c     **** //  Z80 is held in CPU_RESET during this action
  85:ExtSRAM.c     **** // Returns 
  86:ExtSRAM.c     **** //  0 if POST passed
  87:ExtSRAM.c     **** //  1 if POST Failed single location test
  88:ExtSRAM.c     **** //  2 if POST failed test of first 256 locations
  89:ExtSRAM.c     **** //  3 if POST failed address ramp test
  90:ExtSRAM.c     **** 
  91:ExtSRAM.c     **** #define POST_PASSED                         0
  92:ExtSRAM.c     **** #define POST_FAILED_SINGLE_LOCATION_TEST    1
  93:ExtSRAM.c     **** #define POST_FAILED_ADDRESS_RAMP            2
  94:ExtSRAM.c     **** #define POST_FAILED_TEST_ALL_RAM            3
  95:ExtSRAM.c     **** 
  96:ExtSRAM.c     **** uint32 TestSRAM(void)
  97:ExtSRAM.c     **** {
 152              		.loc 1 97 0
 153              		.cfi_startproc
 154              		@ args = 0, pretend = 0, frame = 8
 155              		@ frame_needed = 0, uses_anonymous_args = 0
 156 0000 00B5     		push	{lr}
 157              		.cfi_def_cfa_offset 4
 158              		.cfi_offset 14, -4
 159 0002 83B0     		sub	sp, sp, #12
 160              		.cfi_def_cfa_offset 16
  98:ExtSRAM.c     **** 	volatile uint32 sramAddr;
  99:ExtSRAM.c     **** 	volatile uint8 sramData;
 100:ExtSRAM.c     **** 	volatile uint8 sramReadData;
 101:ExtSRAM.c     **** 	ExtSRAMCtl_Control = (CPURESET_BIT | DRVRAM_BIT);              // Z80 in reset, SRAM deselected, D
 161              		.loc 1 101 0
 162 0004 1122     		movs	r2, #17
 163 0006 424B     		ldr	r3, .L23
 164 0008 1A70     		strb	r2, [r3]
 102:ExtSRAM.c     **** 	// Do a single write/read of the first location as a quick test
 103:ExtSRAM.c     **** 	WriteExtSRAM(0x0,0x55);             // Write 0x55 to the SRAM
 165              		.loc 1 103 0
 166 000a 5521     		movs	r1, #85
 167 000c 0020     		movs	r0, #0
 168 000e FFF7FEFF 		bl	WriteExtSRAM
 169              	.LVL18:
 104:ExtSRAM.c     **** 	if (ReadExtSRAM(0x0) != 0x55)       // Read the SRAM
 170              		.loc 1 104 0
 171 0012 0020     		movs	r0, #0
 172 0014 FFF7FEFF 		bl	ReadExtSRAM
 173              	.LVL19:
 174 0018 5528     		cmp	r0, #85
 175 001a 70D1     		bne	.L19
 105:ExtSRAM.c     **** 	return(POST_FAILED_SINGLE_LOCATION_TEST);   // Post failed
 106:ExtSRAM.c     **** 	// Write/read a data ramp to exercise address lines (step in address bits)
 107:ExtSRAM.c     **** 	sramData = 1;
 176              		.loc 1 107 0
 177 001c 0123     		movs	r3, #1
 178 001e 8DF80330 		strb	r3, [sp, #3]
ARM GAS  C:\Users\DGILLI~1\AppData\Local\Temp\ccLDsTqs.s 			page 6


 108:ExtSRAM.c     **** 	for (sramAddr = 1; sramAddr < 0x80000; sramAddr <<= 1)
 179              		.loc 1 108 0
 180 0022 0193     		str	r3, [sp, #4]
 181 0024 0DE0     		b	.L11
 182              	.L12:
 109:ExtSRAM.c     **** 	{
 110:ExtSRAM.c     **** 		WriteExtSRAM(sramAddr,sramData);
 183              		.loc 1 110 0 discriminator 3
 184 0026 0198     		ldr	r0, [sp, #4]
 185 0028 9DF80310 		ldrb	r1, [sp, #3]	@ zero_extendqisi2
 186 002c FFF7FEFF 		bl	WriteExtSRAM
 187              	.LVL20:
 111:ExtSRAM.c     **** 		sramData++;
 188              		.loc 1 111 0 discriminator 3
 189 0030 9DF80330 		ldrb	r3, [sp, #3]	@ zero_extendqisi2
 190 0034 0133     		adds	r3, r3, #1
 191 0036 DBB2     		uxtb	r3, r3
 192 0038 8DF80330 		strb	r3, [sp, #3]
 108:ExtSRAM.c     **** 	for (sramAddr = 1; sramAddr < 0x80000; sramAddr <<= 1)
 193              		.loc 1 108 0 discriminator 3
 194 003c 019B     		ldr	r3, [sp, #4]
 195 003e 5B00     		lsls	r3, r3, #1
 196 0040 0193     		str	r3, [sp, #4]
 197              	.L11:
 108:ExtSRAM.c     **** 	for (sramAddr = 1; sramAddr < 0x80000; sramAddr <<= 1)
 198              		.loc 1 108 0 is_stmt 0 discriminator 1
 199 0042 019B     		ldr	r3, [sp, #4]
 200 0044 B3F5002F 		cmp	r3, #524288
 201 0048 EDD3     		bcc	.L12
 112:ExtSRAM.c     **** 	}
 113:ExtSRAM.c     **** 	// Bounce a one across the address lines to test all 512KB
 114:ExtSRAM.c     **** 	sramData = 1;
 202              		.loc 1 114 0 is_stmt 1
 203 004a 0123     		movs	r3, #1
 204 004c 8DF80330 		strb	r3, [sp, #3]
 115:ExtSRAM.c     **** 	for (sramAddr = 1; sramAddr < 0x80000; sramAddr <<= 1)
 205              		.loc 1 115 0
 206 0050 0193     		str	r3, [sp, #4]
 207 0052 15E0     		b	.L13
 208              	.L14:
 116:ExtSRAM.c     **** 	{
 117:ExtSRAM.c     **** 		sramReadData = ReadExtSRAM(sramAddr);
 209              		.loc 1 117 0
 210 0054 0198     		ldr	r0, [sp, #4]
 211 0056 FFF7FEFF 		bl	ReadExtSRAM
 212              	.LVL21:
 213 005a 8DF80200 		strb	r0, [sp, #2]
 118:ExtSRAM.c     **** 		if (sramReadData != sramData)
 214              		.loc 1 118 0
 215 005e 9DF80220 		ldrb	r2, [sp, #2]	@ zero_extendqisi2
 216 0062 D2B2     		uxtb	r2, r2
 217 0064 9DF80330 		ldrb	r3, [sp, #3]	@ zero_extendqisi2
 218 0068 DBB2     		uxtb	r3, r3
 219 006a 9A42     		cmp	r2, r3
 220 006c 49D1     		bne	.L20
 119:ExtSRAM.c     **** 		return(POST_FAILED_ADDRESS_RAMP);
 120:ExtSRAM.c     **** 		sramData++;
ARM GAS  C:\Users\DGILLI~1\AppData\Local\Temp\ccLDsTqs.s 			page 7


 221              		.loc 1 120 0 discriminator 2
 222 006e 9DF80330 		ldrb	r3, [sp, #3]	@ zero_extendqisi2
 223 0072 0133     		adds	r3, r3, #1
 224 0074 DBB2     		uxtb	r3, r3
 225 0076 8DF80330 		strb	r3, [sp, #3]
 115:ExtSRAM.c     **** 	{
 226              		.loc 1 115 0 discriminator 2
 227 007a 019B     		ldr	r3, [sp, #4]
 228 007c 5B00     		lsls	r3, r3, #1
 229 007e 0193     		str	r3, [sp, #4]
 230              	.L13:
 115:ExtSRAM.c     **** 	{
 231              		.loc 1 115 0 is_stmt 0 discriminator 1
 232 0080 019B     		ldr	r3, [sp, #4]
 233 0082 B3F5002F 		cmp	r3, #524288
 234 0086 E5D3     		bcc	.L14
 121:ExtSRAM.c     **** 	}
 122:ExtSRAM.c     **** 	// Fill all of the SRAM with data = bottom of 8 bits of address
 123:ExtSRAM.c     **** 	sramData = 0;
 235              		.loc 1 123 0 is_stmt 1
 236 0088 0023     		movs	r3, #0
 237 008a 8DF80330 		strb	r3, [sp, #3]
 124:ExtSRAM.c     **** 	for (sramAddr = 0; sramAddr < 0x80000; sramAddr++)
 238              		.loc 1 124 0
 239 008e 0193     		str	r3, [sp, #4]
 240 0090 0DE0     		b	.L15
 241              	.L16:
 125:ExtSRAM.c     **** 	{
 126:ExtSRAM.c     **** 		WriteExtSRAM(sramAddr,sramData);
 242              		.loc 1 126 0 discriminator 3
 243 0092 0198     		ldr	r0, [sp, #4]
 244 0094 9DF80310 		ldrb	r1, [sp, #3]	@ zero_extendqisi2
 245 0098 FFF7FEFF 		bl	WriteExtSRAM
 246              	.LVL22:
 127:ExtSRAM.c     **** 		sramData++;
 247              		.loc 1 127 0 discriminator 3
 248 009c 9DF80330 		ldrb	r3, [sp, #3]	@ zero_extendqisi2
 249 00a0 0133     		adds	r3, r3, #1
 250 00a2 DBB2     		uxtb	r3, r3
 251 00a4 8DF80330 		strb	r3, [sp, #3]
 124:ExtSRAM.c     **** 	for (sramAddr = 0; sramAddr < 0x80000; sramAddr++)
 252              		.loc 1 124 0 discriminator 3
 253 00a8 019B     		ldr	r3, [sp, #4]
 254 00aa 0133     		adds	r3, r3, #1
 255 00ac 0193     		str	r3, [sp, #4]
 256              	.L15:
 124:ExtSRAM.c     **** 	for (sramAddr = 0; sramAddr < 0x80000; sramAddr++)
 257              		.loc 1 124 0 is_stmt 0 discriminator 1
 258 00ae 019B     		ldr	r3, [sp, #4]
 259 00b0 B3F5002F 		cmp	r3, #524288
 260 00b4 EDD3     		bcc	.L16
 128:ExtSRAM.c     **** 	}
 129:ExtSRAM.c     **** 	// Verify the SRAM has data=address
 130:ExtSRAM.c     **** 	sramData = 0;
 261              		.loc 1 130 0 is_stmt 1
 262 00b6 0023     		movs	r3, #0
 263 00b8 8DF80330 		strb	r3, [sp, #3]
ARM GAS  C:\Users\DGILLI~1\AppData\Local\Temp\ccLDsTqs.s 			page 8


 131:ExtSRAM.c     **** 	for (sramAddr = 0; sramAddr < 0x80000; sramAddr++)
 264              		.loc 1 131 0
 265 00bc 0193     		str	r3, [sp, #4]
 266 00be 15E0     		b	.L17
 267              	.L18:
 132:ExtSRAM.c     **** 	{
 133:ExtSRAM.c     **** 		sramReadData = ReadExtSRAM(sramAddr);
 268              		.loc 1 133 0
 269 00c0 0198     		ldr	r0, [sp, #4]
 270 00c2 FFF7FEFF 		bl	ReadExtSRAM
 271              	.LVL23:
 272 00c6 8DF80200 		strb	r0, [sp, #2]
 134:ExtSRAM.c     **** 		if (sramReadData != sramData)
 273              		.loc 1 134 0
 274 00ca 9DF80220 		ldrb	r2, [sp, #2]	@ zero_extendqisi2
 275 00ce D2B2     		uxtb	r2, r2
 276 00d0 9DF80330 		ldrb	r3, [sp, #3]	@ zero_extendqisi2
 277 00d4 DBB2     		uxtb	r3, r3
 278 00d6 9A42     		cmp	r2, r3
 279 00d8 15D1     		bne	.L21
 135:ExtSRAM.c     **** 		return(POST_FAILED_TEST_ALL_RAM);
 136:ExtSRAM.c     **** 		sramData++;
 280              		.loc 1 136 0 discriminator 2
 281 00da 9DF80330 		ldrb	r3, [sp, #3]	@ zero_extendqisi2
 282 00de 0133     		adds	r3, r3, #1
 283 00e0 DBB2     		uxtb	r3, r3
 284 00e2 8DF80330 		strb	r3, [sp, #3]
 131:ExtSRAM.c     **** 	{
 285              		.loc 1 131 0 discriminator 2
 286 00e6 019B     		ldr	r3, [sp, #4]
 287 00e8 0133     		adds	r3, r3, #1
 288 00ea 0193     		str	r3, [sp, #4]
 289              	.L17:
 131:ExtSRAM.c     **** 	{
 290              		.loc 1 131 0 is_stmt 0 discriminator 1
 291 00ec 019B     		ldr	r3, [sp, #4]
 292 00ee B3F5002F 		cmp	r3, #524288
 293 00f2 E5D3     		bcc	.L18
 137:ExtSRAM.c     **** 	}
 138:ExtSRAM.c     **** 	ExtSRAMCtl_Control = (CPURESET_BIT);              // Leave Z80 in reset
 294              		.loc 1 138 0 is_stmt 1
 295 00f4 1022     		movs	r2, #16
 296 00f6 064B     		ldr	r3, .L23
 297 00f8 1A70     		strb	r2, [r3]
 139:ExtSRAM.c     **** 	return(POST_PASSED);
 298              		.loc 1 139 0
 299 00fa 0020     		movs	r0, #0
 300 00fc 04E0     		b	.L10
 301              	.L19:
 105:ExtSRAM.c     **** 	// Write/read a data ramp to exercise address lines (step in address bits)
 302              		.loc 1 105 0
 303 00fe 0120     		movs	r0, #1
 304 0100 02E0     		b	.L10
 305              	.L20:
 119:ExtSRAM.c     **** 		sramData++;
 306              		.loc 1 119 0
 307 0102 0220     		movs	r0, #2
ARM GAS  C:\Users\DGILLI~1\AppData\Local\Temp\ccLDsTqs.s 			page 9


 308 0104 00E0     		b	.L10
 309              	.L21:
 135:ExtSRAM.c     **** 		sramData++;
 310              		.loc 1 135 0
 311 0106 0320     		movs	r0, #3
 312              	.L10:
 140:ExtSRAM.c     **** }
 313              		.loc 1 140 0
 314 0108 03B0     		add	sp, sp, #12
 315              		.cfi_def_cfa_offset 4
 316              		@ sp needed
 317 010a 5DF804FB 		ldr	pc, [sp], #4
 318              	.L24:
 319 010e 00BF     		.align	2
 320              	.L23:
 321 0110 75650040 		.word	1073767797
 322              		.cfi_endproc
 323              	.LFE66:
 324              		.size	TestSRAM, .-TestSRAM
 325              		.section	.text.loadSRAM,"ax",%progbits
 326              		.align	2
 327              		.global	loadSRAM
 328              		.thumb
 329              		.thumb_func
 330              		.type	loadSRAM, %function
 331              	loadSRAM:
 332              	.LFB67:
 141:ExtSRAM.c     **** 
 142:ExtSRAM.c     **** ////////////////////////////////////////////////////////////////////////////
 143:ExtSRAM.c     **** // void loadSRAM(void) - Load the SRAM on the card with the ROM code
 144:ExtSRAM.c     **** // Supports all builds
 145:ExtSRAM.c     **** // Create the C array using srec_cat and put into a .c file
 146:ExtSRAM.c     **** //  Hex files:      srec_cat.exe HexFile.hex -I -o cmon32.c -C-Array
 147:ExtSRAM.c     **** //  Object files:   srec_cat.exe ObjFile.o -binary -o CCode.c -C-Array
 148:ExtSRAM.c     **** 
 149:ExtSRAM.c     **** void loadSRAM(void)
 150:ExtSRAM.c     **** {
 333              		.loc 1 150 0
 334              		.cfi_startproc
 335              		@ args = 0, pretend = 0, frame = 0
 336              		@ frame_needed = 0, uses_anonymous_args = 0
 337 0000 38B5     		push	{r3, r4, r5, lr}
 338              		.cfi_def_cfa_offset 16
 339              		.cfi_offset 3, -16
 340              		.cfi_offset 4, -12
 341              		.cfi_offset 5, -8
 342              		.cfi_offset 14, -4
 343              	.LVL24:
 344              	.LBB2:
 151:ExtSRAM.c     **** 	uint32 SRAMAddr = MONITOR_START;    // Should all start at 0x0000 for Z80
 152:ExtSRAM.c     ****     uint8 dataVal;
 153:ExtSRAM.c     **** 	for (uint32 charCount = 0; charCount < MONITOR_LENGTH; charCount++)
 345              		.loc 1 153 0
 346 0002 0024     		movs	r4, #0
 347              	.LBE2:
 151:ExtSRAM.c     **** 	uint32 SRAMAddr = MONITOR_START;    // Should all start at 0x0000 for Z80
 348              		.loc 1 151 0
ARM GAS  C:\Users\DGILLI~1\AppData\Local\Temp\ccLDsTqs.s 			page 10


 349 0004 2546     		mov	r5, r4
 350              	.LBB3:
 351              		.loc 1 153 0
 352 0006 06E0     		b	.L26
 353              	.LVL25:
 354              	.L27:
 154:ExtSRAM.c     **** 	{
 155:ExtSRAM.c     **** #ifdef GRANT_9_CHIP_Z80
 156:ExtSRAM.c     **** 		dataVal = monitor_basic_eprom[charCount];
 157:ExtSRAM.c     **** #endif
 158:ExtSRAM.c     **** #ifdef GRANT_7_CHIP_Z80
 159:ExtSRAM.c     **** 		dataVal = gs7chip_basic_eeprom[charCount];
 160:ExtSRAM.c     **** #endif
 161:ExtSRAM.c     **** #ifdef GRANT_FPGA_CPM
 162:ExtSRAM.c     **** 		dataVal = gs_fpga_basic_eeprom[charCount];
 163:ExtSRAM.c     **** #endif
 164:ExtSRAM.c     **** #ifdef MULTIBOOT_CPM
 165:ExtSRAM.c     **** 		dataVal = multi_boot_eprom[charCount];
 166:ExtSRAM.c     **** #endif
 167:ExtSRAM.c     **** 		WriteExtSRAM(SRAMAddr,dataVal);
 355              		.loc 1 167 0 discriminator 3
 356 0008 054B     		ldr	r3, .L29
 357 000a 195D     		ldrb	r1, [r3, r4]	@ zero_extendqisi2
 358 000c 2846     		mov	r0, r5
 359 000e FFF7FEFF 		bl	WriteExtSRAM
 360              	.LVL26:
 168:ExtSRAM.c     **** 		SRAMAddr++;
 361              		.loc 1 168 0 discriminator 3
 362 0012 0135     		adds	r5, r5, #1
 363              	.LVL27:
 153:ExtSRAM.c     **** 	{
 364              		.loc 1 153 0 discriminator 3
 365 0014 0134     		adds	r4, r4, #1
 366              	.LVL28:
 367              	.L26:
 153:ExtSRAM.c     **** 	{
 368              		.loc 1 153 0 is_stmt 0 discriminator 1
 369 0016 B4F5005F 		cmp	r4, #8192
 370 001a F5D3     		bcc	.L27
 371              	.LBE3:
 169:ExtSRAM.c     **** 	}
 170:ExtSRAM.c     **** }
 372              		.loc 1 170 0 is_stmt 1
 373 001c 38BD     		pop	{r3, r4, r5, pc}
 374              	.LVL29:
 375              	.L30:
 376 001e 00BF     		.align	2
 377              	.L29:
 378 0020 00000000 		.word	multi_boot_eprom
 379              		.cfi_endproc
 380              	.LFE67:
 381              		.size	loadSRAM, .-loadSRAM
 382              		.text
 383              	.Letext0:
 384              		.file 2 "c:\\program files (x86)\\cypress\\psoc creator\\4.2\\psoc creator\\import\\gnu\\arm\\5.4.
 385              		.file 3 "c:\\program files (x86)\\cypress\\psoc creator\\4.2\\psoc creator\\import\\gnu\\arm\\5.4.
 386              		.file 4 "Generated_Source\\PSoC5/cytypes.h"
ARM GAS  C:\Users\DGILLI~1\AppData\Local\Temp\ccLDsTqs.s 			page 11


 387              		.file 5 "Generated_Source\\PSoC5/core_cm3.h"
 388              		.file 6 "Generated_Source\\PSoC5/AdrLowOut.h"
 389              		.file 7 "Generated_Source\\PSoC5/AdrMidOut.h"
 390              		.file 8 "Generated_Source\\PSoC5/AdrHighOut.h"
 391              		.file 9 "Generated_Source\\PSoC5/ExtSRAMCtl.h"
 392              		.file 10 "Generated_Source\\PSoC5/Z80_Data_In.h"