ARM GAS  C:\Users\HPz420\AppData\Local\Temp\ccRoL7rd.s 			page 1


   1              		.syntax unified
   2              		.cpu cortex-m3
   3              		.fpu softvfp
   4              		.eabi_attribute 20, 1
   5              		.eabi_attribute 21, 1
   6              		.eabi_attribute 23, 3
   7              		.eabi_attribute 24, 1
   8              		.eabi_attribute 25, 1
   9              		.eabi_attribute 26, 1
  10              		.eabi_attribute 30, 1
  11              		.eabi_attribute 34, 1
  12              		.eabi_attribute 18, 4
  13              		.thumb
  14              		.syntax unified
  15              		.file	"FrontPanel.c"
  16              		.text
  17              	.Ltext0:
  18              		.cfi_sections	.debug_frame
  19              		.section	.text.readRegister_MCP23017,"ax",%progbits
  20              		.align	2
  21              		.global	readRegister_MCP23017
  22              		.thumb
  23              		.thumb_func
  24              		.type	readRegister_MCP23017, %function
  25              	readRegister_MCP23017:
  26              	.LFB71:
  27              		.file 1 "FrontPanel.c"
   1:FrontPanel.c  **** /* ========================================
   2:FrontPanel.c  **** *
   3:FrontPanel.c  **** * Copyright Land Boards, LLC, 2019.
   4:FrontPanel.c  **** * All Rights Reserved
   5:FrontPanel.c  **** * UNPUBLISHED, LICENSED SOFTWARE.
   6:FrontPanel.c  **** *
   7:FrontPanel.c  **** * CONFIDENTIAL AND PROPRIETARY INFORMATION
   8:FrontPanel.c  **** * WHICH IS THE PROPERTY OF LAND BOARDS. LLC.
   9:FrontPanel.c  **** *
  10:FrontPanel.c  **** * ========================================
  11:FrontPanel.c  **** */
  12:FrontPanel.c  **** 
  13:FrontPanel.c  **** #include <project.h>
  14:FrontPanel.c  **** #include <Z80_PSoC_3Chips.h>
  15:FrontPanel.c  **** 
  16:FrontPanel.c  **** //////////////////////////////////////////////////////////////////////////////
  17:FrontPanel.c  **** // Front Panel Handler
  18:FrontPanel.c  **** // Starts at CPU address = 0
  19:FrontPanel.c  **** //////////////////////////////////////////////////////////////////////////////
  20:FrontPanel.c  **** 
  21:FrontPanel.c  **** // Global variables
  22:FrontPanel.c  **** uint8 FPData;       // Data that is on the Front Panel (bottom 8 LEDs)
  23:FrontPanel.c  **** uint16 FPAddr;      // Address that is on the Front Panel (middle 16 lEDs)
  24:FrontPanel.c  **** uint8 FPCtrl;       // Control that is on the Front Panel (top 8 LEDs)
  25:FrontPanel.c  **** uint32 FPLong;      // Long value of the Front Panel
  26:FrontPanel.c  **** uint32 LEDsVal;         // Front Panel LEDs - copy here
  27:FrontPanel.c  **** 
  28:FrontPanel.c  **** //////////////////////////////////////////////////////////////////////////////
  29:FrontPanel.c  **** // init_FrontPanel() - Switches are on Port A, LEDs are on Port B
  30:FrontPanel.c  **** 
ARM GAS  C:\Users\HPz420\AppData\Local\Temp\ccRoL7rd.s 			page 2


  31:FrontPanel.c  **** void init_FrontPanel(void)
  32:FrontPanel.c  **** {
  33:FrontPanel.c  **** 	uint8 chipAddr;
  34:FrontPanel.c  **** 	for (chipAddr = 0x24; chipAddr < 0x28; chipAddr++)
  35:FrontPanel.c  **** 	{
  36:FrontPanel.c  **** 		writeRegister_MCP23017(chipAddr,MCP23017_IODIRA_REGADR,MCP23017_IODIR_ALL_INS);     // IO: Port A
  37:FrontPanel.c  **** 		writeRegister_MCP23017(chipAddr,MCP23017_IODIRB_REGADR,MCP23017_IODIR_ALL_OUTS);    // IO: Port B
  38:FrontPanel.c  **** 		writeRegister_MCP23017(chipAddr,MCP23017_IPOLA_REGADR,MCP23017_IPOL_INVERT);        // IP: Invert
  39:FrontPanel.c  **** 		writeRegister_MCP23017(chipAddr,MCP23017_GPINTENA_REGADR,MCP23017_GPINTEN_ENABLE);  // GPINT: Ena
  40:FrontPanel.c  **** 		writeRegister_MCP23017(chipAddr,MCP23017_GPINTENB_REGADR,MCP23017_GPINTEN_DISABLE); // GPINT: Dis
  41:FrontPanel.c  **** 		writeRegister_MCP23017(chipAddr,MCP23017_DEFVALA_REGADR,MCP23017_DEFVALA_DEFVAL);   // Default va
  42:FrontPanel.c  **** 		writeRegister_MCP23017(chipAddr,MCP23017_INTCONA_REGADR,MCP23017_INTCON_DEFVAL);    // Int for ch
  43:FrontPanel.c  **** 		writeRegister_MCP23017(chipAddr,MCP23017_IOCONA_REGADR,MCP23017_IOCON_DEFVAL);      
  44:FrontPanel.c  ****         // BANK: Register addresses are in the same bank (addresses are sequential)
  45:FrontPanel.c  **** 		// MIRROR: Int pins not connected (they are externally connected together on the Front Panel boar
  46:FrontPanel.c  **** 		// SEQOP: Enable sequential operation (although the driver doesn't use it)
  47:FrontPanel.c  **** 		// HAEN: (Not used on MCP23017)
  48:FrontPanel.c  **** 		// ODR: Open Drain output (over-rides INTPOL)
  49:FrontPanel.c  **** 		// INTPOL: Over-ridden by ODR
  50:FrontPanel.c  **** 		writeRegister_MCP23017(chipAddr,MCP23017_IOCONB_REGADR,MCP23017_IOCON_DEFVAL);      // Int for ch
  51:FrontPanel.c  **** 		writeRegister_MCP23017(chipAddr,MCP23017_GPPUA_REGADR,MCP23017_GPPU_ENABLE);        // Pull-up to
  52:FrontPanel.c  **** 		readRegister_MCP23017(chipAddr,MCP23017_INTCAPA_REGADR);                            // Clears int
  53:FrontPanel.c  **** 	}
  54:FrontPanel.c  **** 	FPData = 0;
  55:FrontPanel.c  **** 	FPAddr = 0;
  56:FrontPanel.c  **** 	FPCtrl = 0;
  57:FrontPanel.c  **** 	FPLong = 0;
  58:FrontPanel.c  **** }
  59:FrontPanel.c  **** 
  60:FrontPanel.c  **** //////////////////////////////////////////////////////////////////////////////
  61:FrontPanel.c  **** // FrontPanelZ80Read() - Read the Front Panel switches to the Z80
  62:FrontPanel.c  **** 
  63:FrontPanel.c  **** void FrontPanelZ80Read(uint8 portSelect)
  64:FrontPanel.c  **** {
  65:FrontPanel.c  **** 	uint32 fpVal = readFrontPanelSwitchesStatic();
  66:FrontPanel.c  **** 	uint8 fpByte;
  67:FrontPanel.c  **** 	switch (portSelect & 0x3)
  68:FrontPanel.c  **** 	{
  69:FrontPanel.c  **** 	case 0:
  70:FrontPanel.c  **** 		fpByte = ((uint8) fpVal) & 0xff;
  71:FrontPanel.c  **** 		break;
  72:FrontPanel.c  **** 	case 1:
  73:FrontPanel.c  **** 		fpByte = ((uint8) (fpVal>>8)) & 0xff;
  74:FrontPanel.c  **** 		break;
  75:FrontPanel.c  **** 	case 2:
  76:FrontPanel.c  **** 		fpByte = ((uint8) (fpVal>>16)) & 0xff;
  77:FrontPanel.c  **** 		break;
  78:FrontPanel.c  **** 	case 3:
  79:FrontPanel.c  **** 		fpByte = ((uint8) (fpVal>>24)) & 0xff;
  80:FrontPanel.c  **** 		break;
  81:FrontPanel.c  **** 	default:
  82:FrontPanel.c  **** 		fpByte = 0;
  83:FrontPanel.c  **** 	}
  84:FrontPanel.c  **** 	Z80_Data_In_Write(fpByte);
  85:FrontPanel.c  **** 	ackIO();
  86:FrontPanel.c  **** }
  87:FrontPanel.c  **** 
ARM GAS  C:\Users\HPz420\AppData\Local\Temp\ccRoL7rd.s 			page 3


  88:FrontPanel.c  **** //////////////////////////////////////////////////////////////////////////////
  89:FrontPanel.c  **** // FrontPanelZ80Read() - Write to the Front Panel LEDs from the Z80
  90:FrontPanel.c  **** 
  91:FrontPanel.c  **** void FrontPanelZ80Write(uint8 portSelect)
  92:FrontPanel.c  **** {
  93:FrontPanel.c  **** 	uint32 outVal = Z80_Data_Out_Read();
  94:FrontPanel.c  **** 	switch (portSelect & 0x3)
  95:FrontPanel.c  **** 	{
  96:FrontPanel.c  **** 	case 0:
  97:FrontPanel.c  **** 		LEDsVal = ((LEDsVal & 0xffffff00) | outVal);
  98:FrontPanel.c  **** 		break;
  99:FrontPanel.c  **** 	case 1:
 100:FrontPanel.c  **** 		LEDsVal = ((LEDsVal & 0xffff00ff) | (outVal<<8));
 101:FrontPanel.c  **** 		break;
 102:FrontPanel.c  **** 	case 2:
 103:FrontPanel.c  **** 		LEDsVal = ((LEDsVal & 0xff00ffff) | (outVal<<16));
 104:FrontPanel.c  **** 		break;
 105:FrontPanel.c  **** 	case 3:
 106:FrontPanel.c  **** 		LEDsVal = ((LEDsVal & 0x00ffffff) | (outVal<<24));
 107:FrontPanel.c  **** 		break;
 108:FrontPanel.c  **** 	}
 109:FrontPanel.c  **** 	writeFrontPanelLEDs(LEDsVal);
 110:FrontPanel.c  **** 	ackIO();
 111:FrontPanel.c  **** }
 112:FrontPanel.c  **** 
 113:FrontPanel.c  **** //////////////////////////////////////////////////////////////////////////////////////
 114:FrontPanel.c  **** // runFrontPanel()
 115:FrontPanel.c  **** // Returns when run button is pressed on front panel
 116:FrontPanel.c  **** // Return value 0 = Z80 is left in reset
 117:FrontPanel.c  **** //              1 = Z80 is out of reset
 118:FrontPanel.c  **** 
 119:FrontPanel.c  **** uint8 runFrontPanel(void)
 120:FrontPanel.c  **** {
 121:FrontPanel.c  **** 	uint32 switchesVal = 0;
 122:FrontPanel.c  **** 
 123:FrontPanel.c  **** 	LEDsVal = 0;
 124:FrontPanel.c  **** 	
 125:FrontPanel.c  **** 	//    I2C_Start();
 126:FrontPanel.c  **** 	init_FrontPanel();
 127:FrontPanel.c  **** 	// Bounce LEDs
 128:FrontPanel.c  **** 	for (LEDsVal = 1; LEDsVal != 0; LEDsVal <<= 1)
 129:FrontPanel.c  **** 	{
 130:FrontPanel.c  **** 		writeFrontPanelLEDs(LEDsVal);
 131:FrontPanel.c  **** 		CyDelay(50);
 132:FrontPanel.c  **** 	}
 133:FrontPanel.c  **** 	LEDsVal |= ReadExtSRAM(0);
 134:FrontPanel.c  **** 	writeFrontPanelLEDs(LEDsVal);       // clears LEDs
 135:FrontPanel.c  **** 	for(;;)                     // Loop forever
 136:FrontPanel.c  **** 	{
 137:FrontPanel.c  **** 		switchesVal = waitFrontPanelSwitchesPressed();
 138:FrontPanel.c  **** 		if ((switchesVal & 0xff000000) != 0)    // Control switch on top row was pressed
 139:FrontPanel.c  **** 		{
 140:FrontPanel.c  **** 			if ((switchesVal & 0x01000000) == 0x01000000)       // Incr address and read memory
 141:FrontPanel.c  **** 			{
 142:FrontPanel.c  **** 				LEDsVal |= 0x01000000;          // Flicker INCAD LED
 143:FrontPanel.c  **** 				writeFrontPanelLEDs(LEDsVal);
 144:FrontPanel.c  **** 				LEDsVal += 0x00000100;
ARM GAS  C:\Users\HPz420\AppData\Local\Temp\ccRoL7rd.s 			page 4


 145:FrontPanel.c  **** 				LEDsVal &= 0x00ffff00;
 146:FrontPanel.c  **** 				LEDsVal |= ReadExtSRAM((LEDsVal >> 8) & 0xffff);
 147:FrontPanel.c  **** 				writeFrontPanelLEDs(LEDsVal);
 148:FrontPanel.c  **** 			}
 149:FrontPanel.c  **** 			else if ((switchesVal & 0x02000000) == 0x02000000)  // Store to addr, incr address and read memo
 150:FrontPanel.c  **** 			{
 151:FrontPanel.c  **** 				LEDsVal |= 0x02000000;          // Flicker STINC LED
 152:FrontPanel.c  **** 				writeFrontPanelLEDs(LEDsVal);
 153:FrontPanel.c  **** 				WriteExtSRAM((LEDsVal >> 8) & 0xffff,LEDsVal&0xff);
 154:FrontPanel.c  **** 				LEDsVal += 0x00000100;
 155:FrontPanel.c  **** 				LEDsVal &= 0x00ffff00;
 156:FrontPanel.c  **** 				LEDsVal |= ReadExtSRAM((LEDsVal >> 8) & 0xffff);
 157:FrontPanel.c  **** 				writeFrontPanelLEDs(LEDsVal);
 158:FrontPanel.c  **** 			}
 159:FrontPanel.c  **** 			else if ((switchesVal & 0x04000000) == 0x04000000)  //Load address and read memory
 160:FrontPanel.c  **** 			{
 161:FrontPanel.c  **** 				LEDsVal |= 0x04000000;          // Flicker LDADR LED
 162:FrontPanel.c  **** 				writeFrontPanelLEDs(LEDsVal);
 163:FrontPanel.c  **** 				LEDsVal &= 0x00ffff00;
 164:FrontPanel.c  **** 				LEDsVal |= ReadExtSRAM((LEDsVal >> 8) & 0xffff);
 165:FrontPanel.c  **** 				writeFrontPanelLEDs(LEDsVal);
 166:FrontPanel.c  **** 			}
 167:FrontPanel.c  **** 			else if ((switchesVal & 0x08000000) == 0x08000000)  // Run program
 168:FrontPanel.c  **** 			{
 169:FrontPanel.c  **** 				ExtSRAMCtl_Control = 0;
 170:FrontPanel.c  **** 				LEDsVal = 0x08000000;
 171:FrontPanel.c  **** 				writeFrontPanelLEDs(LEDsVal);       // Leave Run LED on
 172:FrontPanel.c  **** 				return (1);
 173:FrontPanel.c  **** 			}
 174:FrontPanel.c  **** 			else if ((switchesVal & 0x10000000) == 0x10000000)  // TBD
 175:FrontPanel.c  **** 			{
 176:FrontPanel.c  **** 				LEDsVal = 0x10000000;
 177:FrontPanel.c  **** 				writeFrontPanelLEDs(LEDsVal);       // Leave LED on
 178:FrontPanel.c  **** 				CyDelay(250);
 179:FrontPanel.c  **** 				LEDsVal &= 0x00ffffff;
 180:FrontPanel.c  **** 				writeFrontPanelLEDs(LEDsVal);       // Turn off LED
 181:FrontPanel.c  **** 			}
 182:FrontPanel.c  **** 			else if ((switchesVal & 0x20000000) == 0x20000000)  // TBD
 183:FrontPanel.c  **** 			{
 184:FrontPanel.c  **** 				LEDsVal = 0x20000000;
 185:FrontPanel.c  **** 				writeFrontPanelLEDs(LEDsVal);       // Leave LED on
 186:FrontPanel.c  **** 				CyDelay(250);
 187:FrontPanel.c  **** 				LEDsVal &= 0x00ffffff;
 188:FrontPanel.c  **** 				writeFrontPanelLEDs(LEDsVal);       // Turn off LED
 189:FrontPanel.c  **** 			}
 190:FrontPanel.c  **** 			else if ((switchesVal & 0x40000000) == 0x40000000)  // TBD
 191:FrontPanel.c  **** 			{
 192:FrontPanel.c  **** 				LEDsVal = 0x40000000;
 193:FrontPanel.c  **** 				writeFrontPanelLEDs(LEDsVal);       // Leave LED on
 194:FrontPanel.c  **** 				CyDelay(250);
 195:FrontPanel.c  **** 				LEDsVal &= 0x00ffffff;
 196:FrontPanel.c  **** 				writeFrontPanelLEDs(LEDsVal);       // Turn off LED
 197:FrontPanel.c  **** 			}
 198:FrontPanel.c  **** 			else if ((switchesVal & 0x80000000) == 0x80000000)  // Exit front panel without releasing reset 
 199:FrontPanel.c  **** 			{
 200:FrontPanel.c  **** 				LEDsVal = 0x80000000;
 201:FrontPanel.c  **** 				writeFrontPanelLEDs(LEDsVal);       // Leave LED on
ARM GAS  C:\Users\HPz420\AppData\Local\Temp\ccRoL7rd.s 			page 5


 202:FrontPanel.c  **** 				return(0);                          // Z80 still in reset
 203:FrontPanel.c  **** 			}
 204:FrontPanel.c  **** 		}
 205:FrontPanel.c  **** 		else    // Non-control switch was pressed
 206:FrontPanel.c  **** 		{
 207:FrontPanel.c  **** 			LEDsVal ^= switchesVal;
 208:FrontPanel.c  **** 			writeFrontPanelLEDs(LEDsVal);
 209:FrontPanel.c  **** 		}
 210:FrontPanel.c  **** 	}
 211:FrontPanel.c  **** }
 212:FrontPanel.c  **** 
 213:FrontPanel.c  **** //////////////////////////////////////////////////////////////////////////////////////
 214:FrontPanel.c  **** // readFrontPanelSwitchesRegistered
 215:FrontPanel.c  **** //  Handler for the Pushbuttons and LEDs
 216:FrontPanel.c  **** //  Toggles the LED
 217:FrontPanel.c  **** //  Reads all four MCP23017 Port A's to make a 32-bit result
 218:FrontPanel.c  **** //  Looks for the switch to be pressed for 3 samples in a row
 219:FrontPanel.c  **** // Returns: 0 if there was no key pressed
 220:FrontPanel.c  **** //          1 if there was a key pressed
 221:FrontPanel.c  **** 
 222:FrontPanel.c  **** uint32 readFrontPanelSwitchesRegistered(void)
 223:FrontPanel.c  **** {
 224:FrontPanel.c  **** 	uint32 rdVal;
 225:FrontPanel.c  **** 	uint32 retVal = 0;
 226:FrontPanel.c  **** 	uint32 valMin1 = 0;
 227:FrontPanel.c  **** 	uint32 valMin2 = 0;
 228:FrontPanel.c  **** 	uint32 valMin3 = 0;
 229:FrontPanel.c  **** 	uint8 keyPressed = 0;
 230:FrontPanel.c  **** 	rdVal = readFrontPanelSwitchesStatic();
 231:FrontPanel.c  **** 	if (rdVal  == 0x00)     // No key is pressed at this polling
 232:FrontPanel.c  **** 	{
 233:FrontPanel.c  **** 		valMin1 = 0;
 234:FrontPanel.c  **** 		valMin2 = 0;
 235:FrontPanel.c  **** 		valMin3 = 0;
 236:FrontPanel.c  **** 		return(0);
 237:FrontPanel.c  **** 	}
 238:FrontPanel.c  **** 	else    // key is now pressed
 239:FrontPanel.c  **** 	{
 240:FrontPanel.c  **** 		keyPressed = 1;
 241:FrontPanel.c  **** 		while (keyPressed)  // stick around until key is no longer pressed
 242:FrontPanel.c  **** 		{
 243:FrontPanel.c  **** 			rdVal = readFrontPanelSwitchesStatic();
 244:FrontPanel.c  **** 			if (rdVal == 0)
 245:FrontPanel.c  **** 			{
 246:FrontPanel.c  **** 				keyPressed = 0;
 247:FrontPanel.c  **** 				valMin1 = 0;
 248:FrontPanel.c  **** 				valMin2 = 0;
 249:FrontPanel.c  **** 				valMin3 = 0;
 250:FrontPanel.c  **** 				return(retVal);
 251:FrontPanel.c  **** 			}
 252:FrontPanel.c  **** 			valMin3 = valMin2;
 253:FrontPanel.c  **** 			valMin2 = valMin1;
 254:FrontPanel.c  **** 			valMin1 = rdVal;
 255:FrontPanel.c  **** 			if ((valMin3 == 0) && (valMin2 != 0) && (valMin1 != 0) && (rdVal != 0))
 256:FrontPanel.c  **** 			{
 257:FrontPanel.c  **** 				return(valMin2);
 258:FrontPanel.c  **** 			}
ARM GAS  C:\Users\HPz420\AppData\Local\Temp\ccRoL7rd.s 			page 6


 259:FrontPanel.c  **** 			CyDelay(10);    // 10 mS sampling for debouncing
 260:FrontPanel.c  **** 		}
 261:FrontPanel.c  **** 	}
 262:FrontPanel.c  **** 	return (retVal);
 263:FrontPanel.c  **** }
 264:FrontPanel.c  **** 
 265:FrontPanel.c  **** //////////////////////////////////////////////////////////////////////////////////////
 266:FrontPanel.c  **** // waitFrontPanelSwitchesPressed() - Wait for switch to be pressed and return value
 267:FrontPanel.c  **** 
 268:FrontPanel.c  **** uint32 waitFrontPanelSwitchesPressed(void)
 269:FrontPanel.c  **** {
 270:FrontPanel.c  **** 	uint32 switchVals = 0;
 271:FrontPanel.c  **** 	while (readFrontPanelSwitchesRegistered() != 0);    // wait for previous key release
 272:FrontPanel.c  **** 	while (switchVals == 0)
 273:FrontPanel.c  **** 	{   
 274:FrontPanel.c  **** 		switchVals = readFrontPanelSwitchesRegistered();
 275:FrontPanel.c  **** 		if (switchVals != 0x0)
 276:FrontPanel.c  **** 		return (switchVals);
 277:FrontPanel.c  **** 	}
 278:FrontPanel.c  **** 	return (0);
 279:FrontPanel.c  **** }
 280:FrontPanel.c  **** 
 281:FrontPanel.c  **** //////////////////////////////////////////////////////////////////////////////////////
 282:FrontPanel.c  **** // readFrontPanelSwitchesStatic() - Reads the current value of the actual switches
 283:FrontPanel.c  **** //  Reads all four MCP23017 Port A's to make a 32-bit result
 284:FrontPanel.c  **** 
 285:FrontPanel.c  **** uint32 readFrontPanelSwitchesStatic(void)
 286:FrontPanel.c  **** {
 287:FrontPanel.c  **** 	uint32 switchVals = 0;
 288:FrontPanel.c  **** 	switchVals = readRegister_MCP23017(MCP23017_0,MCP23017_GPIOA_REGADR);
 289:FrontPanel.c  **** 	readRegister_MCP23017(MCP23017_0,MCP23017_INTCAPA_REGADR);                            // Clears in
 290:FrontPanel.c  **** 	switchVals = switchVals<<8;
 291:FrontPanel.c  **** 	switchVals |= readRegister_MCP23017(MCP23017_1,MCP23017_GPIOA_REGADR);
 292:FrontPanel.c  **** 	readRegister_MCP23017(MCP23017_1,MCP23017_INTCAPA_REGADR);                            // Clears in
 293:FrontPanel.c  **** 	switchVals = switchVals<<8;
 294:FrontPanel.c  **** 	switchVals |= readRegister_MCP23017(MCP23017_2,MCP23017_GPIOA_REGADR);
 295:FrontPanel.c  ****   	readRegister_MCP23017(MCP23017_2,MCP23017_INTCAPA_REGADR);                            // Clears 
 296:FrontPanel.c  **** 	switchVals = switchVals<<8;
 297:FrontPanel.c  **** 	switchVals |= readRegister_MCP23017(MCP23017_3,MCP23017_GPIOA_REGADR);
 298:FrontPanel.c  ****     readRegister_MCP23017(MCP23017_3,MCP23017_INTCAPA_REGADR);                            // Clears
 299:FrontPanel.c  **** 
 300:FrontPanel.c  **** 	return (switchVals);
 301:FrontPanel.c  **** }
 302:FrontPanel.c  **** 
 303:FrontPanel.c  **** //////////////////////////////////////////////////////////////////////////////////////
 304:FrontPanel.c  **** // writeFrontPanelLEDs(uint32) - Write a 32-bit value to the Front Panel LEDs
 305:FrontPanel.c  **** 
 306:FrontPanel.c  **** void writeFrontPanelLEDs(uint32 ledsVal)
 307:FrontPanel.c  **** {
 308:FrontPanel.c  **** 	writeRegister_MCP23017(MCP23017_0,MCP23017_OLATB_REGADR,((ledsVal>>24) & 0xff));
 309:FrontPanel.c  **** 	writeRegister_MCP23017(MCP23017_1,MCP23017_OLATB_REGADR,((ledsVal>>16) & 0xff));
 310:FrontPanel.c  **** 	writeRegister_MCP23017(MCP23017_2,MCP23017_OLATB_REGADR,((ledsVal>>8) & 0xff));
 311:FrontPanel.c  **** 	writeRegister_MCP23017(MCP23017_3,MCP23017_OLATB_REGADR,ledsVal&0xff);
 312:FrontPanel.c  **** }
 313:FrontPanel.c  **** 
 314:FrontPanel.c  **** //////////////////////////////////////////////////////////////////////////////////////
 315:FrontPanel.c  **** // I2C Low Level Hardware access functions
ARM GAS  C:\Users\HPz420\AppData\Local\Temp\ccRoL7rd.s 			page 7


 316:FrontPanel.c  **** 
 317:FrontPanel.c  **** //////////////////////////////////////////////////////////////////////////////////////
 318:FrontPanel.c  **** //
 319:FrontPanel.c  **** //////////////////////////////////////////////////////////////////////////////////////
 320:FrontPanel.c  **** 
 321:FrontPanel.c  **** uint8 readRegister_MCP23017(uint8 chipAddr, uint8 ctrlAdr)
 322:FrontPanel.c  **** {
  28              		.loc 1 322 0
  29              		.cfi_startproc
  30              		@ args = 0, pretend = 0, frame = 0
  31              		@ frame_needed = 0, uses_anonymous_args = 0
  32              	.LVL0:
  33 0000 38B5     		push	{r3, r4, r5, lr}
  34              		.cfi_def_cfa_offset 16
  35              		.cfi_offset 3, -16
  36              		.cfi_offset 4, -12
  37              		.cfi_offset 5, -8
  38              		.cfi_offset 14, -4
  39 0002 0446     		mov	r4, r0
  40 0004 0D46     		mov	r5, r1
 323:FrontPanel.c  **** 	uint8 rdBuff;
 324:FrontPanel.c  **** 
 325:FrontPanel.c  **** 	I2C_MasterClearStatus();
  41              		.loc 1 325 0
  42 0006 FFF7FEFF 		bl	I2C_MasterClearStatus
  43              	.LVL1:
 326:FrontPanel.c  **** 	I2C_MasterSendStart(chipAddr,I2C_WRITE_XFER_MODE);
  44              		.loc 1 326 0
  45 000a 0021     		movs	r1, #0
  46 000c 2046     		mov	r0, r4
  47 000e FFF7FEFF 		bl	I2C_MasterSendStart
  48              	.LVL2:
 327:FrontPanel.c  **** 	I2C_MasterWriteByte(ctrlAdr);
  49              		.loc 1 327 0
  50 0012 2846     		mov	r0, r5
  51 0014 FFF7FEFF 		bl	I2C_MasterWriteByte
  52              	.LVL3:
 328:FrontPanel.c  **** 	I2C_MasterSendStop();
  53              		.loc 1 328 0
  54 0018 FFF7FEFF 		bl	I2C_MasterSendStop
  55              	.LVL4:
 329:FrontPanel.c  **** 	I2C_MasterSendStart(chipAddr,I2C_READ_XFER_MODE);
  56              		.loc 1 329 0
  57 001c 0121     		movs	r1, #1
  58 001e 2046     		mov	r0, r4
  59 0020 FFF7FEFF 		bl	I2C_MasterSendStart
  60              	.LVL5:
 330:FrontPanel.c  **** 	rdBuff = I2C_MasterReadByte(I2C_NAK_DATA);
  61              		.loc 1 330 0
  62 0024 0020     		movs	r0, #0
  63 0026 FFF7FEFF 		bl	I2C_MasterReadByte
  64              	.LVL6:
  65 002a 0446     		mov	r4, r0
  66              	.LVL7:
 331:FrontPanel.c  **** 	I2C_MasterSendStop();
  67              		.loc 1 331 0
  68 002c FFF7FEFF 		bl	I2C_MasterSendStop
ARM GAS  C:\Users\HPz420\AppData\Local\Temp\ccRoL7rd.s 			page 8


  69              	.LVL8:
 332:FrontPanel.c  **** 	I2C_MasterClearStatus();
  70              		.loc 1 332 0
  71 0030 FFF7FEFF 		bl	I2C_MasterClearStatus
  72              	.LVL9:
 333:FrontPanel.c  **** 	return rdBuff;
 334:FrontPanel.c  **** 
 335:FrontPanel.c  **** }
  73              		.loc 1 335 0
  74 0034 2046     		mov	r0, r4
  75 0036 38BD     		pop	{r3, r4, r5, pc}
  76              		.cfi_endproc
  77              	.LFE71:
  78              		.size	readRegister_MCP23017, .-readRegister_MCP23017
  79              		.section	.text.readFrontPanelSwitchesStatic,"ax",%progbits
  80              		.align	2
  81              		.global	readFrontPanelSwitchesStatic
  82              		.thumb
  83              		.thumb_func
  84              		.type	readFrontPanelSwitchesStatic, %function
  85              	readFrontPanelSwitchesStatic:
  86              	.LFB69:
 286:FrontPanel.c  **** 	uint32 switchVals = 0;
  87              		.loc 1 286 0
  88              		.cfi_startproc
  89              		@ args = 0, pretend = 0, frame = 0
  90              		@ frame_needed = 0, uses_anonymous_args = 0
  91 0000 10B5     		push	{r4, lr}
  92              		.cfi_def_cfa_offset 8
  93              		.cfi_offset 4, -8
  94              		.cfi_offset 14, -4
  95              	.LVL10:
 288:FrontPanel.c  **** 	readRegister_MCP23017(MCP23017_0,MCP23017_INTCAPA_REGADR);                            // Clears in
  96              		.loc 1 288 0
  97 0002 1221     		movs	r1, #18
  98 0004 2420     		movs	r0, #36
  99 0006 FFF7FEFF 		bl	readRegister_MCP23017
 100              	.LVL11:
 101 000a 0446     		mov	r4, r0
 102              	.LVL12:
 289:FrontPanel.c  **** 	switchVals = switchVals<<8;
 103              		.loc 1 289 0
 104 000c 1021     		movs	r1, #16
 105 000e 2420     		movs	r0, #36
 106              	.LVL13:
 107 0010 FFF7FEFF 		bl	readRegister_MCP23017
 108              	.LVL14:
 290:FrontPanel.c  **** 	switchVals |= readRegister_MCP23017(MCP23017_1,MCP23017_GPIOA_REGADR);
 109              		.loc 1 290 0
 110 0014 2402     		lsls	r4, r4, #8
 111              	.LVL15:
 291:FrontPanel.c  **** 	readRegister_MCP23017(MCP23017_1,MCP23017_INTCAPA_REGADR);                            // Clears in
 112              		.loc 1 291 0
 113 0016 1221     		movs	r1, #18
 114 0018 2520     		movs	r0, #37
 115 001a FFF7FEFF 		bl	readRegister_MCP23017
 116              	.LVL16:
ARM GAS  C:\Users\HPz420\AppData\Local\Temp\ccRoL7rd.s 			page 9


 117 001e 0443     		orrs	r4, r4, r0
 118              	.LVL17:
 292:FrontPanel.c  **** 	switchVals = switchVals<<8;
 119              		.loc 1 292 0
 120 0020 1021     		movs	r1, #16
 121 0022 2520     		movs	r0, #37
 122 0024 FFF7FEFF 		bl	readRegister_MCP23017
 123              	.LVL18:
 293:FrontPanel.c  **** 	switchVals |= readRegister_MCP23017(MCP23017_2,MCP23017_GPIOA_REGADR);
 124              		.loc 1 293 0
 125 0028 2402     		lsls	r4, r4, #8
 126              	.LVL19:
 294:FrontPanel.c  ****   	readRegister_MCP23017(MCP23017_2,MCP23017_INTCAPA_REGADR);                            // Clears 
 127              		.loc 1 294 0
 128 002a 1221     		movs	r1, #18
 129 002c 2620     		movs	r0, #38
 130 002e FFF7FEFF 		bl	readRegister_MCP23017
 131              	.LVL20:
 132 0032 0443     		orrs	r4, r4, r0
 133              	.LVL21:
 295:FrontPanel.c  **** 	switchVals = switchVals<<8;
 134              		.loc 1 295 0
 135 0034 1021     		movs	r1, #16
 136 0036 2620     		movs	r0, #38
 137 0038 FFF7FEFF 		bl	readRegister_MCP23017
 138              	.LVL22:
 296:FrontPanel.c  **** 	switchVals |= readRegister_MCP23017(MCP23017_3,MCP23017_GPIOA_REGADR);
 139              		.loc 1 296 0
 140 003c 2402     		lsls	r4, r4, #8
 141              	.LVL23:
 297:FrontPanel.c  ****     readRegister_MCP23017(MCP23017_3,MCP23017_INTCAPA_REGADR);                            // Clears
 142              		.loc 1 297 0
 143 003e 1221     		movs	r1, #18
 144 0040 2720     		movs	r0, #39
 145 0042 FFF7FEFF 		bl	readRegister_MCP23017
 146              	.LVL24:
 147 0046 0443     		orrs	r4, r4, r0
 148              	.LVL25:
 298:FrontPanel.c  **** 
 149              		.loc 1 298 0
 150 0048 1021     		movs	r1, #16
 151 004a 2720     		movs	r0, #39
 152 004c FFF7FEFF 		bl	readRegister_MCP23017
 153              	.LVL26:
 301:FrontPanel.c  **** 
 154              		.loc 1 301 0
 155 0050 2046     		mov	r0, r4
 156 0052 10BD     		pop	{r4, pc}
 157              		.cfi_endproc
 158              	.LFE69:
 159              		.size	readFrontPanelSwitchesStatic, .-readFrontPanelSwitchesStatic
 160              		.section	.text.FrontPanelZ80Read,"ax",%progbits
 161              		.align	2
 162              		.global	FrontPanelZ80Read
 163              		.thumb
 164              		.thumb_func
 165              		.type	FrontPanelZ80Read, %function
ARM GAS  C:\Users\HPz420\AppData\Local\Temp\ccRoL7rd.s 			page 10


 166              	FrontPanelZ80Read:
 167              	.LFB64:
  64:FrontPanel.c  **** 	uint32 fpVal = readFrontPanelSwitchesStatic();
 168              		.loc 1 64 0
 169              		.cfi_startproc
 170              		@ args = 0, pretend = 0, frame = 0
 171              		@ frame_needed = 0, uses_anonymous_args = 0
 172              	.LVL27:
 173 0000 10B5     		push	{r4, lr}
 174              		.cfi_def_cfa_offset 8
 175              		.cfi_offset 4, -8
 176              		.cfi_offset 14, -4
 177 0002 0446     		mov	r4, r0
  65:FrontPanel.c  **** 	uint8 fpByte;
 178              		.loc 1 65 0
 179 0004 FFF7FEFF 		bl	readFrontPanelSwitchesStatic
 180              	.LVL28:
  67:FrontPanel.c  **** 	{
 181              		.loc 1 67 0
 182 0008 04F00303 		and	r3, r4, #3
 183 000c 032B     		cmp	r3, #3
 184 000e 0DD8     		bhi	.L12
 185 0010 DFE803F0 		tbb	[pc, r3]
 186              	.L8:
 187 0014 02       		.byte	(.L7-.L8)/2
 188 0015 04       		.byte	(.L9-.L8)/2
 189 0016 07       		.byte	(.L10-.L8)/2
 190 0017 0A       		.byte	(.L11-.L8)/2
 191              		.p2align 1
 192              	.L7:
  70:FrontPanel.c  **** 		break;
 193              		.loc 1 70 0
 194 0018 C0B2     		uxtb	r0, r0
 195              	.LVL29:
  71:FrontPanel.c  **** 	case 1:
 196              		.loc 1 71 0
 197 001a 08E0     		b	.L6
 198              	.LVL30:
 199              	.L9:
  73:FrontPanel.c  **** 		break;
 200              		.loc 1 73 0
 201 001c C0F30720 		ubfx	r0, r0, #8, #8
 202              	.LVL31:
  74:FrontPanel.c  **** 	case 2:
 203              		.loc 1 74 0
 204 0020 05E0     		b	.L6
 205              	.LVL32:
 206              	.L10:
  76:FrontPanel.c  **** 		break;
 207              		.loc 1 76 0
 208 0022 C0F30740 		ubfx	r0, r0, #16, #8
 209              	.LVL33:
  77:FrontPanel.c  **** 	case 3:
 210              		.loc 1 77 0
 211 0026 02E0     		b	.L6
 212              	.LVL34:
 213              	.L11:
ARM GAS  C:\Users\HPz420\AppData\Local\Temp\ccRoL7rd.s 			page 11


  79:FrontPanel.c  **** 		break;
 214              		.loc 1 79 0
 215 0028 000E     		lsrs	r0, r0, #24
 216              	.LVL35:
  80:FrontPanel.c  **** 	default:
 217              		.loc 1 80 0
 218 002a 00E0     		b	.L6
 219              	.LVL36:
 220              	.L12:
  82:FrontPanel.c  **** 	}
 221              		.loc 1 82 0
 222 002c 0020     		movs	r0, #0
 223              	.LVL37:
 224              	.L6:
  84:FrontPanel.c  **** 	ackIO();
 225              		.loc 1 84 0
 226 002e FFF7FEFF 		bl	Z80_Data_In_Write
 227              	.LVL38:
  85:FrontPanel.c  **** }
 228              		.loc 1 85 0
 229 0032 FFF7FEFF 		bl	ackIO
 230              	.LVL39:
 231 0036 10BD     		pop	{r4, pc}
 232              		.cfi_endproc
 233              	.LFE64:
 234              		.size	FrontPanelZ80Read, .-FrontPanelZ80Read
 235              		.section	.text.readFrontPanelSwitchesRegistered,"ax",%progbits
 236              		.align	2
 237              		.global	readFrontPanelSwitchesRegistered
 238              		.thumb
 239              		.thumb_func
 240              		.type	readFrontPanelSwitchesRegistered, %function
 241              	readFrontPanelSwitchesRegistered:
 242              	.LFB67:
 223:FrontPanel.c  **** 	uint32 rdVal;
 243              		.loc 1 223 0
 244              		.cfi_startproc
 245              		@ args = 0, pretend = 0, frame = 0
 246              		@ frame_needed = 0, uses_anonymous_args = 0
 247 0000 70B5     		push	{r4, r5, r6, lr}
 248              		.cfi_def_cfa_offset 16
 249              		.cfi_offset 4, -16
 250              		.cfi_offset 5, -12
 251              		.cfi_offset 6, -8
 252              		.cfi_offset 14, -4
 253              	.LVL40:
 230:FrontPanel.c  **** 	if (rdVal  == 0x00)     // No key is pressed at this polling
 254              		.loc 1 230 0
 255 0002 FFF7FEFF 		bl	readFrontPanelSwitchesStatic
 256              	.LVL41:
 231:FrontPanel.c  **** 	{
 257              		.loc 1 231 0
 258 0006 88B1     		cbz	r0, .L19
 259 0008 0026     		movs	r6, #0
 260 000a 3446     		mov	r4, r6
 261 000c 08E0     		b	.L16
 262              	.LVL42:
ARM GAS  C:\Users\HPz420\AppData\Local\Temp\ccRoL7rd.s 			page 12


 263              	.L18:
 255:FrontPanel.c  **** 			{
 264              		.loc 1 255 0
 265 000e 16B9     		cbnz	r6, .L17
 255:FrontPanel.c  **** 			{
 266              		.loc 1 255 0 is_stmt 0 discriminator 1
 267 0010 0CB1     		cbz	r4, .L17
 255:FrontPanel.c  **** 			{
 268              		.loc 1 255 0 discriminator 2
 269 0012 05B1     		cbz	r5, .L17
 255:FrontPanel.c  **** 			{
 270              		.loc 1 255 0 discriminator 3
 271 0014 65B9     		cbnz	r5, .L20
 272              	.L17:
 259:FrontPanel.c  **** 		}
 273              		.loc 1 259 0 is_stmt 1
 274 0016 0A20     		movs	r0, #10
 275              	.LVL43:
 276 0018 FFF7FEFF 		bl	CyDelay
 277              	.LVL44:
 253:FrontPanel.c  **** 			valMin1 = rdVal;
 278              		.loc 1 253 0
 279 001c 2646     		mov	r6, r4
 280              	.LVL45:
 254:FrontPanel.c  **** 			if ((valMin3 == 0) && (valMin2 != 0) && (valMin1 != 0) && (rdVal != 0))
 281              		.loc 1 254 0
 282 001e 2C46     		mov	r4, r5
 283              	.LVL46:
 284              	.L16:
 243:FrontPanel.c  **** 			if (rdVal == 0)
 285              		.loc 1 243 0
 286 0020 FFF7FEFF 		bl	readFrontPanelSwitchesStatic
 287              	.LVL47:
 244:FrontPanel.c  **** 			{
 288              		.loc 1 244 0
 289 0024 0546     		mov	r5, r0
 290 0026 0028     		cmp	r0, #0
 291 0028 F1D1     		bne	.L18
 292 002a 70BD     		pop	{r4, r5, r6, pc}
 293              	.LVL48:
 294              	.L19:
 236:FrontPanel.c  **** 	}
 295              		.loc 1 236 0
 296 002c 0020     		movs	r0, #0
 297              	.LVL49:
 298 002e 70BD     		pop	{r4, r5, r6, pc}
 299              	.LVL50:
 300              	.L20:
 257:FrontPanel.c  **** 			}
 301              		.loc 1 257 0
 302 0030 2046     		mov	r0, r4
 303              	.LVL51:
 263:FrontPanel.c  **** 
 304              		.loc 1 263 0
 305 0032 70BD     		pop	{r4, r5, r6, pc}
 306              		.cfi_endproc
 307              	.LFE67:
ARM GAS  C:\Users\HPz420\AppData\Local\Temp\ccRoL7rd.s 			page 13


 308              		.size	readFrontPanelSwitchesRegistered, .-readFrontPanelSwitchesRegistered
 309              		.section	.text.waitFrontPanelSwitchesPressed,"ax",%progbits
 310              		.align	2
 311              		.global	waitFrontPanelSwitchesPressed
 312              		.thumb
 313              		.thumb_func
 314              		.type	waitFrontPanelSwitchesPressed, %function
 315              	waitFrontPanelSwitchesPressed:
 316              	.LFB68:
 269:FrontPanel.c  **** 	uint32 switchVals = 0;
 317              		.loc 1 269 0
 318              		.cfi_startproc
 319              		@ args = 0, pretend = 0, frame = 0
 320              		@ frame_needed = 0, uses_anonymous_args = 0
 321 0000 10B5     		push	{r4, lr}
 322              		.cfi_def_cfa_offset 8
 323              		.cfi_offset 4, -8
 324              		.cfi_offset 14, -4
 325              	.L23:
 271:FrontPanel.c  **** 	while (switchVals == 0)
 326              		.loc 1 271 0 discriminator 1
 327 0002 FFF7FEFF 		bl	readFrontPanelSwitchesRegistered
 328              	.LVL52:
 329 0006 0028     		cmp	r0, #0
 330 0008 FBD1     		bne	.L23
 331 000a 0446     		mov	r4, r0
 332 000c 0023     		movs	r3, #0
 333 000e 03E0     		b	.L24
 334              	.LVL53:
 335              	.L26:
 274:FrontPanel.c  **** 		if (switchVals != 0x0)
 336              		.loc 1 274 0
 337 0010 FFF7FEFF 		bl	readFrontPanelSwitchesRegistered
 338              	.LVL54:
 275:FrontPanel.c  **** 		return (switchVals);
 339              		.loc 1 275 0
 340 0014 0346     		mov	r3, r0
 341 0016 10B9     		cbnz	r0, .L27
 342              	.LVL55:
 343              	.L24:
 272:FrontPanel.c  **** 	{   
 344              		.loc 1 272 0
 345 0018 002B     		cmp	r3, #0
 346 001a F9D0     		beq	.L26
 347 001c 00E0     		b	.L25
 348              	.LVL56:
 349              	.L27:
 276:FrontPanel.c  **** 	}
 350              		.loc 1 276 0
 351 001e 0446     		mov	r4, r0
 352              	.LVL57:
 353              	.L25:
 279:FrontPanel.c  **** 
 354              		.loc 1 279 0
 355 0020 2046     		mov	r0, r4
 356 0022 10BD     		pop	{r4, pc}
 357              		.cfi_endproc
ARM GAS  C:\Users\HPz420\AppData\Local\Temp\ccRoL7rd.s 			page 14


 358              	.LFE68:
 359              		.size	waitFrontPanelSwitchesPressed, .-waitFrontPanelSwitchesPressed
 360              		.section	.text.writeRegister_MCP23017,"ax",%progbits
 361              		.align	2
 362              		.global	writeRegister_MCP23017
 363              		.thumb
 364              		.thumb_func
 365              		.type	writeRegister_MCP23017, %function
 366              	writeRegister_MCP23017:
 367              	.LFB72:
 336:FrontPanel.c  **** 
 337:FrontPanel.c  **** //////////////////////////////////////////////////////////////////////////////////////
 338:FrontPanel.c  **** //
 339:FrontPanel.c  **** //////////////////////////////////////////////////////////////////////////////////////
 340:FrontPanel.c  **** 
 341:FrontPanel.c  **** void writeRegister_MCP23017(uint8 chipAddr, uint8 ctrlAdr, uint8 ctrlVal)
 342:FrontPanel.c  **** {
 368              		.loc 1 342 0
 369              		.cfi_startproc
 370              		@ args = 0, pretend = 0, frame = 8
 371              		@ frame_needed = 0, uses_anonymous_args = 0
 372              	.LVL58:
 373 0000 70B5     		push	{r4, r5, r6, lr}
 374              		.cfi_def_cfa_offset 16
 375              		.cfi_offset 4, -16
 376              		.cfi_offset 5, -12
 377              		.cfi_offset 6, -8
 378              		.cfi_offset 14, -4
 379 0002 82B0     		sub	sp, sp, #8
 380              		.cfi_def_cfa_offset 24
 381 0004 0446     		mov	r4, r0
 382 0006 0E46     		mov	r6, r1
 383 0008 1546     		mov	r5, r2
 343:FrontPanel.c  **** 	uint8 MCP23017_WrBuffer[2];
 344:FrontPanel.c  **** 	I2C_MasterClearStatus();
 384              		.loc 1 344 0
 385 000a FFF7FEFF 		bl	I2C_MasterClearStatus
 386              	.LVL59:
 345:FrontPanel.c  **** 	MCP23017_WrBuffer[0] = ctrlAdr;
 387              		.loc 1 345 0
 388 000e 8DF80460 		strb	r6, [sp, #4]
 346:FrontPanel.c  **** 	MCP23017_WrBuffer[1] = ctrlVal;
 389              		.loc 1 346 0
 390 0012 8DF80550 		strb	r5, [sp, #5]
 347:FrontPanel.c  **** 	I2C_MasterWriteBuf(chipAddr, MCP23017_WrBuffer, 2, I2C_MODE_COMPLETE_XFER);
 391              		.loc 1 347 0
 392 0016 0023     		movs	r3, #0
 393 0018 0222     		movs	r2, #2
 394 001a 01A9     		add	r1, sp, #4
 395 001c 2046     		mov	r0, r4
 396 001e FFF7FEFF 		bl	I2C_MasterWriteBuf
 397              	.LVL60:
 398              	.L30:
 348:FrontPanel.c  **** 	while (0u == (I2C_MasterStatus() & I2C_MSTAT_WR_CMPLT));
 399              		.loc 1 348 0 discriminator 1
 400 0022 FFF7FEFF 		bl	I2C_MasterStatus
 401              	.LVL61:
ARM GAS  C:\Users\HPz420\AppData\Local\Temp\ccRoL7rd.s 			page 15


 402 0026 10F0020F 		tst	r0, #2
 403 002a FAD0     		beq	.L30
 349:FrontPanel.c  **** 	I2C_MasterClearStatus();
 404              		.loc 1 349 0
 405 002c FFF7FEFF 		bl	I2C_MasterClearStatus
 406              	.LVL62:
 350:FrontPanel.c  **** }
 407              		.loc 1 350 0
 408 0030 02B0     		add	sp, sp, #8
 409              		.cfi_def_cfa_offset 16
 410              		@ sp needed
 411 0032 70BD     		pop	{r4, r5, r6, pc}
 412              		.cfi_endproc
 413              	.LFE72:
 414              		.size	writeRegister_MCP23017, .-writeRegister_MCP23017
 415              		.section	.text.init_FrontPanel,"ax",%progbits
 416              		.align	2
 417              		.global	init_FrontPanel
 418              		.thumb
 419              		.thumb_func
 420              		.type	init_FrontPanel, %function
 421              	init_FrontPanel:
 422              	.LFB63:
  32:FrontPanel.c  **** 	uint8 chipAddr;
 423              		.loc 1 32 0
 424              		.cfi_startproc
 425              		@ args = 0, pretend = 0, frame = 0
 426              		@ frame_needed = 0, uses_anonymous_args = 0
 427 0000 10B5     		push	{r4, lr}
 428              		.cfi_def_cfa_offset 8
 429              		.cfi_offset 4, -8
 430              		.cfi_offset 14, -4
 431              	.LVL63:
  34:FrontPanel.c  **** 	{
 432              		.loc 1 34 0
 433 0002 2424     		movs	r4, #36
 434 0004 37E0     		b	.L33
 435              	.LVL64:
 436              	.L34:
  36:FrontPanel.c  **** 		writeRegister_MCP23017(chipAddr,MCP23017_IODIRB_REGADR,MCP23017_IODIR_ALL_OUTS);    // IO: Port B
 437              		.loc 1 36 0 discriminator 3
 438 0006 FF22     		movs	r2, #255
 439 0008 0021     		movs	r1, #0
 440 000a 2046     		mov	r0, r4
 441 000c FFF7FEFF 		bl	writeRegister_MCP23017
 442              	.LVL65:
  37:FrontPanel.c  **** 		writeRegister_MCP23017(chipAddr,MCP23017_IPOLA_REGADR,MCP23017_IPOL_INVERT);        // IP: Invert
 443              		.loc 1 37 0 discriminator 3
 444 0010 0022     		movs	r2, #0
 445 0012 0121     		movs	r1, #1
 446 0014 2046     		mov	r0, r4
 447 0016 FFF7FEFF 		bl	writeRegister_MCP23017
 448              	.LVL66:
  38:FrontPanel.c  **** 		writeRegister_MCP23017(chipAddr,MCP23017_GPINTENA_REGADR,MCP23017_GPINTEN_ENABLE);  // GPINT: Ena
 449              		.loc 1 38 0 discriminator 3
 450 001a FF22     		movs	r2, #255
 451 001c 0221     		movs	r1, #2
ARM GAS  C:\Users\HPz420\AppData\Local\Temp\ccRoL7rd.s 			page 16


 452 001e 2046     		mov	r0, r4
 453 0020 FFF7FEFF 		bl	writeRegister_MCP23017
 454              	.LVL67:
  39:FrontPanel.c  **** 		writeRegister_MCP23017(chipAddr,MCP23017_GPINTENB_REGADR,MCP23017_GPINTEN_DISABLE); // GPINT: Dis
 455              		.loc 1 39 0 discriminator 3
 456 0024 FF22     		movs	r2, #255
 457 0026 0421     		movs	r1, #4
 458 0028 2046     		mov	r0, r4
 459 002a FFF7FEFF 		bl	writeRegister_MCP23017
 460              	.LVL68:
  40:FrontPanel.c  **** 		writeRegister_MCP23017(chipAddr,MCP23017_DEFVALA_REGADR,MCP23017_DEFVALA_DEFVAL);   // Default va
 461              		.loc 1 40 0 discriminator 3
 462 002e 0022     		movs	r2, #0
 463 0030 0521     		movs	r1, #5
 464 0032 2046     		mov	r0, r4
 465 0034 FFF7FEFF 		bl	writeRegister_MCP23017
 466              	.LVL69:
  41:FrontPanel.c  **** 		writeRegister_MCP23017(chipAddr,MCP23017_INTCONA_REGADR,MCP23017_INTCON_DEFVAL);    // Int for ch
 467              		.loc 1 41 0 discriminator 3
 468 0038 0022     		movs	r2, #0
 469 003a 0621     		movs	r1, #6
 470 003c 2046     		mov	r0, r4
 471 003e FFF7FEFF 		bl	writeRegister_MCP23017
 472              	.LVL70:
  42:FrontPanel.c  **** 		writeRegister_MCP23017(chipAddr,MCP23017_IOCONA_REGADR,MCP23017_IOCON_DEFVAL);      
 473              		.loc 1 42 0 discriminator 3
 474 0042 FF22     		movs	r2, #255
 475 0044 0821     		movs	r1, #8
 476 0046 2046     		mov	r0, r4
 477 0048 FFF7FEFF 		bl	writeRegister_MCP23017
 478              	.LVL71:
  43:FrontPanel.c  ****         // BANK: Register addresses are in the same bank (addresses are sequential)
 479              		.loc 1 43 0 discriminator 3
 480 004c 0422     		movs	r2, #4
 481 004e 0A21     		movs	r1, #10
 482 0050 2046     		mov	r0, r4
 483 0052 FFF7FEFF 		bl	writeRegister_MCP23017
 484              	.LVL72:
  50:FrontPanel.c  **** 		writeRegister_MCP23017(chipAddr,MCP23017_GPPUA_REGADR,MCP23017_GPPU_ENABLE);        // Pull-up to
 485              		.loc 1 50 0 discriminator 3
 486 0056 0422     		movs	r2, #4
 487 0058 0B21     		movs	r1, #11
 488 005a 2046     		mov	r0, r4
 489 005c FFF7FEFF 		bl	writeRegister_MCP23017
 490              	.LVL73:
  51:FrontPanel.c  **** 		readRegister_MCP23017(chipAddr,MCP23017_INTCAPA_REGADR);                            // Clears int
 491              		.loc 1 51 0 discriminator 3
 492 0060 FF22     		movs	r2, #255
 493 0062 0C21     		movs	r1, #12
 494 0064 2046     		mov	r0, r4
 495 0066 FFF7FEFF 		bl	writeRegister_MCP23017
 496              	.LVL74:
  52:FrontPanel.c  **** 	}
 497              		.loc 1 52 0 discriminator 3
 498 006a 1021     		movs	r1, #16
 499 006c 2046     		mov	r0, r4
 500 006e FFF7FEFF 		bl	readRegister_MCP23017
ARM GAS  C:\Users\HPz420\AppData\Local\Temp\ccRoL7rd.s 			page 17


 501              	.LVL75:
  34:FrontPanel.c  **** 	{
 502              		.loc 1 34 0 discriminator 3
 503 0072 0134     		adds	r4, r4, #1
 504              	.LVL76:
 505 0074 E4B2     		uxtb	r4, r4
 506              	.LVL77:
 507              	.L33:
  34:FrontPanel.c  **** 	{
 508              		.loc 1 34 0 is_stmt 0 discriminator 1
 509 0076 272C     		cmp	r4, #39
 510 0078 C5D9     		bls	.L34
  54:FrontPanel.c  **** 	FPAddr = 0;
 511              		.loc 1 54 0 is_stmt 1
 512 007a 0023     		movs	r3, #0
 513 007c 044A     		ldr	r2, .L36
 514 007e 1370     		strb	r3, [r2]
  55:FrontPanel.c  **** 	FPCtrl = 0;
 515              		.loc 1 55 0
 516 0080 044A     		ldr	r2, .L36+4
 517 0082 1380     		strh	r3, [r2]	@ movhi
  56:FrontPanel.c  **** 	FPLong = 0;
 518              		.loc 1 56 0
 519 0084 044A     		ldr	r2, .L36+8
 520 0086 1370     		strb	r3, [r2]
  57:FrontPanel.c  **** }
 521              		.loc 1 57 0
 522 0088 044A     		ldr	r2, .L36+12
 523 008a 1360     		str	r3, [r2]
 524 008c 10BD     		pop	{r4, pc}
 525              	.LVL78:
 526              	.L37:
 527 008e 00BF     		.align	2
 528              	.L36:
 529 0090 00000000 		.word	FPData
 530 0094 00000000 		.word	FPAddr
 531 0098 00000000 		.word	FPCtrl
 532 009c 00000000 		.word	FPLong
 533              		.cfi_endproc
 534              	.LFE63:
 535              		.size	init_FrontPanel, .-init_FrontPanel
 536              		.section	.text.writeFrontPanelLEDs,"ax",%progbits
 537              		.align	2
 538              		.global	writeFrontPanelLEDs
 539              		.thumb
 540              		.thumb_func
 541              		.type	writeFrontPanelLEDs, %function
 542              	writeFrontPanelLEDs:
 543              	.LFB70:
 307:FrontPanel.c  **** 	writeRegister_MCP23017(MCP23017_0,MCP23017_OLATB_REGADR,((ledsVal>>24) & 0xff));
 544              		.loc 1 307 0
 545              		.cfi_startproc
 546              		@ args = 0, pretend = 0, frame = 0
 547              		@ frame_needed = 0, uses_anonymous_args = 0
 548              	.LVL79:
 549 0000 10B5     		push	{r4, lr}
 550              		.cfi_def_cfa_offset 8
ARM GAS  C:\Users\HPz420\AppData\Local\Temp\ccRoL7rd.s 			page 18


 551              		.cfi_offset 4, -8
 552              		.cfi_offset 14, -4
 553 0002 0446     		mov	r4, r0
 308:FrontPanel.c  **** 	writeRegister_MCP23017(MCP23017_1,MCP23017_OLATB_REGADR,((ledsVal>>16) & 0xff));
 554              		.loc 1 308 0
 555 0004 020E     		lsrs	r2, r0, #24
 556 0006 1521     		movs	r1, #21
 557 0008 2420     		movs	r0, #36
 558              	.LVL80:
 559 000a FFF7FEFF 		bl	writeRegister_MCP23017
 560              	.LVL81:
 309:FrontPanel.c  **** 	writeRegister_MCP23017(MCP23017_2,MCP23017_OLATB_REGADR,((ledsVal>>8) & 0xff));
 561              		.loc 1 309 0
 562 000e C4F30742 		ubfx	r2, r4, #16, #8
 563 0012 1521     		movs	r1, #21
 564 0014 2520     		movs	r0, #37
 565 0016 FFF7FEFF 		bl	writeRegister_MCP23017
 566              	.LVL82:
 310:FrontPanel.c  **** 	writeRegister_MCP23017(MCP23017_3,MCP23017_OLATB_REGADR,ledsVal&0xff);
 567              		.loc 1 310 0
 568 001a C4F30722 		ubfx	r2, r4, #8, #8
 569 001e 1521     		movs	r1, #21
 570 0020 2620     		movs	r0, #38
 571 0022 FFF7FEFF 		bl	writeRegister_MCP23017
 572              	.LVL83:
 311:FrontPanel.c  **** }
 573              		.loc 1 311 0
 574 0026 E2B2     		uxtb	r2, r4
 575 0028 1521     		movs	r1, #21
 576 002a 2720     		movs	r0, #39
 577 002c FFF7FEFF 		bl	writeRegister_MCP23017
 578              	.LVL84:
 579 0030 10BD     		pop	{r4, pc}
 580              		.cfi_endproc
 581              	.LFE70:
 582              		.size	writeFrontPanelLEDs, .-writeFrontPanelLEDs
 583 0032 00BF     		.section	.text.FrontPanelZ80Write,"ax",%progbits
 584              		.align	2
 585              		.global	FrontPanelZ80Write
 586              		.thumb
 587              		.thumb_func
 588              		.type	FrontPanelZ80Write, %function
 589              	FrontPanelZ80Write:
 590              	.LFB65:
  92:FrontPanel.c  **** 	uint32 outVal = Z80_Data_Out_Read();
 591              		.loc 1 92 0
 592              		.cfi_startproc
 593              		@ args = 0, pretend = 0, frame = 0
 594              		@ frame_needed = 0, uses_anonymous_args = 0
 595              	.LVL85:
 596 0000 10B5     		push	{r4, lr}
 597              		.cfi_def_cfa_offset 8
 598              		.cfi_offset 4, -8
 599              		.cfi_offset 14, -4
 600 0002 0446     		mov	r4, r0
  93:FrontPanel.c  **** 	switch (portSelect & 0x3)
 601              		.loc 1 93 0
ARM GAS  C:\Users\HPz420\AppData\Local\Temp\ccRoL7rd.s 			page 19


 602 0004 FFF7FEFF 		bl	Z80_Data_Out_Read
 603              	.LVL86:
  94:FrontPanel.c  **** 	{
 604              		.loc 1 94 0
 605 0008 04F00303 		and	r3, r4, #3
 606 000c 032B     		cmp	r3, #3
 607 000e 21D8     		bhi	.L41
 608 0010 DFE803F0 		tbb	[pc, r3]
 609              	.L43:
 610 0014 02       		.byte	(.L42-.L43)/2
 611 0015 09       		.byte	(.L44-.L43)/2
 612 0016 11       		.byte	(.L45-.L43)/2
 613 0017 19       		.byte	(.L46-.L43)/2
 614              		.p2align 1
 615              	.L42:
  97:FrontPanel.c  **** 		break;
 616              		.loc 1 97 0
 617 0018 124A     		ldr	r2, .L48
 618 001a 1368     		ldr	r3, [r2]
 619 001c 23F0FF03 		bic	r3, r3, #255
 620 0020 1843     		orrs	r0, r0, r3
 621              	.LVL87:
 622 0022 1060     		str	r0, [r2]
  98:FrontPanel.c  **** 	case 1:
 623              		.loc 1 98 0
 624 0024 16E0     		b	.L41
 625              	.LVL88:
 626              	.L44:
 100:FrontPanel.c  **** 		break;
 627              		.loc 1 100 0
 628 0026 0F4A     		ldr	r2, .L48
 629 0028 1368     		ldr	r3, [r2]
 630 002a 23F47F43 		bic	r3, r3, #65280
 631 002e 43EA0020 		orr	r0, r3, r0, lsl #8
 632              	.LVL89:
 633 0032 1060     		str	r0, [r2]
 101:FrontPanel.c  **** 	case 2:
 634              		.loc 1 101 0
 635 0034 0EE0     		b	.L41
 636              	.LVL90:
 637              	.L45:
 103:FrontPanel.c  **** 		break;
 638              		.loc 1 103 0
 639 0036 0B4A     		ldr	r2, .L48
 640 0038 1368     		ldr	r3, [r2]
 641 003a 23F47F03 		bic	r3, r3, #16711680
 642 003e 43EA0040 		orr	r0, r3, r0, lsl #16
 643              	.LVL91:
 644 0042 1060     		str	r0, [r2]
 104:FrontPanel.c  **** 	case 3:
 645              		.loc 1 104 0
 646 0044 06E0     		b	.L41
 647              	.LVL92:
 648              	.L46:
 106:FrontPanel.c  **** 		break;
 649              		.loc 1 106 0
 650 0046 074A     		ldr	r2, .L48
ARM GAS  C:\Users\HPz420\AppData\Local\Temp\ccRoL7rd.s 			page 20


 651 0048 1368     		ldr	r3, [r2]
 652 004a 23F07F43 		bic	r3, r3, #-16777216
 653 004e 43EA0060 		orr	r0, r3, r0, lsl #24
 654              	.LVL93:
 655 0052 1060     		str	r0, [r2]
 656              	.L41:
 109:FrontPanel.c  **** 	ackIO();
 657              		.loc 1 109 0
 658 0054 034B     		ldr	r3, .L48
 659 0056 1868     		ldr	r0, [r3]
 660 0058 FFF7FEFF 		bl	writeFrontPanelLEDs
 661              	.LVL94:
 110:FrontPanel.c  **** }
 662              		.loc 1 110 0
 663 005c FFF7FEFF 		bl	ackIO
 664              	.LVL95:
 665 0060 10BD     		pop	{r4, pc}
 666              	.L49:
 667 0062 00BF     		.align	2
 668              	.L48:
 669 0064 00000000 		.word	LEDsVal
 670              		.cfi_endproc
 671              	.LFE65:
 672              		.size	FrontPanelZ80Write, .-FrontPanelZ80Write
 673              		.section	.text.runFrontPanel,"ax",%progbits
 674              		.align	2
 675              		.global	runFrontPanel
 676              		.thumb
 677              		.thumb_func
 678              		.type	runFrontPanel, %function
 679              	runFrontPanel:
 680              	.LFB66:
 120:FrontPanel.c  **** 	uint32 switchesVal = 0;
 681              		.loc 1 120 0
 682              		.cfi_startproc
 683              		@ args = 0, pretend = 0, frame = 0
 684              		@ frame_needed = 0, uses_anonymous_args = 0
 685 0000 10B5     		push	{r4, lr}
 686              		.cfi_def_cfa_offset 8
 687              		.cfi_offset 4, -8
 688              		.cfi_offset 14, -4
 689              	.LVL96:
 123:FrontPanel.c  **** 	
 690              		.loc 1 123 0
 691 0002 684C     		ldr	r4, .L65
 692 0004 0023     		movs	r3, #0
 693 0006 2360     		str	r3, [r4]
 126:FrontPanel.c  **** 	// Bounce LEDs
 694              		.loc 1 126 0
 695 0008 FFF7FEFF 		bl	init_FrontPanel
 696              	.LVL97:
 128:FrontPanel.c  **** 	{
 697              		.loc 1 128 0
 698 000c 0123     		movs	r3, #1
 699 000e 2360     		str	r3, [r4]
 700 0010 08E0     		b	.L51
 701              	.L52:
ARM GAS  C:\Users\HPz420\AppData\Local\Temp\ccRoL7rd.s 			page 21


 130:FrontPanel.c  **** 		CyDelay(50);
 702              		.loc 1 130 0 discriminator 3
 703 0012 FFF7FEFF 		bl	writeFrontPanelLEDs
 704              	.LVL98:
 131:FrontPanel.c  **** 	}
 705              		.loc 1 131 0 discriminator 3
 706 0016 3220     		movs	r0, #50
 707 0018 FFF7FEFF 		bl	CyDelay
 708              	.LVL99:
 128:FrontPanel.c  **** 	{
 709              		.loc 1 128 0 discriminator 3
 710 001c 614A     		ldr	r2, .L65
 711 001e 1368     		ldr	r3, [r2]
 712 0020 5B00     		lsls	r3, r3, #1
 713 0022 1360     		str	r3, [r2]
 714              	.L51:
 128:FrontPanel.c  **** 	{
 715              		.loc 1 128 0 is_stmt 0 discriminator 1
 716 0024 5F4B     		ldr	r3, .L65
 717 0026 1868     		ldr	r0, [r3]
 718 0028 0028     		cmp	r0, #0
 719 002a F2D1     		bne	.L52
 133:FrontPanel.c  **** 	writeFrontPanelLEDs(LEDsVal);       // clears LEDs
 720              		.loc 1 133 0 is_stmt 1
 721 002c FFF7FEFF 		bl	ReadExtSRAM
 722              	.LVL100:
 723 0030 5C4A     		ldr	r2, .L65
 724 0032 1368     		ldr	r3, [r2]
 725 0034 1843     		orrs	r0, r0, r3
 726 0036 1060     		str	r0, [r2]
 134:FrontPanel.c  **** 	for(;;)                     // Loop forever
 727              		.loc 1 134 0
 728 0038 FFF7FEFF 		bl	writeFrontPanelLEDs
 729              	.LVL101:
 730              	.L53:
 137:FrontPanel.c  **** 		if ((switchesVal & 0xff000000) != 0)    // Control switch on top row was pressed
 731              		.loc 1 137 0
 732 003c FFF7FEFF 		bl	waitFrontPanelSwitchesPressed
 733              	.LVL102:
 138:FrontPanel.c  **** 		{
 734              		.loc 1 138 0
 735 0040 10F07F4F 		tst	r0, #-16777216
 736 0044 00F0A780 		beq	.L54
 140:FrontPanel.c  **** 			{
 737              		.loc 1 140 0
 738 0048 10F0807F 		tst	r0, #16777216
 739 004c 17D0     		beq	.L55
 142:FrontPanel.c  **** 				writeFrontPanelLEDs(LEDsVal);
 740              		.loc 1 142 0
 741 004e 554C     		ldr	r4, .L65
 742 0050 2068     		ldr	r0, [r4]
 743              	.LVL103:
 744 0052 40F08070 		orr	r0, r0, #16777216
 745 0056 2060     		str	r0, [r4]
 143:FrontPanel.c  **** 				LEDsVal += 0x00000100;
 746              		.loc 1 143 0
 747 0058 FFF7FEFF 		bl	writeFrontPanelLEDs
ARM GAS  C:\Users\HPz420\AppData\Local\Temp\ccRoL7rd.s 			page 22


 748              	.LVL104:
 144:FrontPanel.c  **** 				LEDsVal &= 0x00ffff00;
 749              		.loc 1 144 0
 750 005c 2068     		ldr	r0, [r4]
 751 005e 00F58070 		add	r0, r0, #256
 145:FrontPanel.c  **** 				LEDsVal |= ReadExtSRAM((LEDsVal >> 8) & 0xffff);
 752              		.loc 1 145 0
 753 0062 20F07F40 		bic	r0, r0, #-16777216
 754 0066 20F0FF00 		bic	r0, r0, #255
 755 006a 2060     		str	r0, [r4]
 146:FrontPanel.c  **** 				writeFrontPanelLEDs(LEDsVal);
 756              		.loc 1 146 0
 757 006c 000A     		lsrs	r0, r0, #8
 758 006e FFF7FEFF 		bl	ReadExtSRAM
 759              	.LVL105:
 760 0072 2368     		ldr	r3, [r4]
 761 0074 1843     		orrs	r0, r0, r3
 762 0076 2060     		str	r0, [r4]
 147:FrontPanel.c  **** 			}
 763              		.loc 1 147 0
 764 0078 FFF7FEFF 		bl	writeFrontPanelLEDs
 765              	.LVL106:
 766 007c DEE7     		b	.L53
 767              	.LVL107:
 768              	.L55:
 149:FrontPanel.c  **** 			{
 769              		.loc 1 149 0
 770 007e 10F0007F 		tst	r0, #33554432
 771 0082 1DD0     		beq	.L57
 151:FrontPanel.c  **** 				writeFrontPanelLEDs(LEDsVal);
 772              		.loc 1 151 0
 773 0084 474C     		ldr	r4, .L65
 774 0086 2068     		ldr	r0, [r4]
 775              	.LVL108:
 776 0088 40F00070 		orr	r0, r0, #33554432
 777 008c 2060     		str	r0, [r4]
 152:FrontPanel.c  **** 				WriteExtSRAM((LEDsVal >> 8) & 0xffff,LEDsVal&0xff);
 778              		.loc 1 152 0
 779 008e FFF7FEFF 		bl	writeFrontPanelLEDs
 780              	.LVL109:
 153:FrontPanel.c  **** 				LEDsVal += 0x00000100;
 781              		.loc 1 153 0
 782 0092 2068     		ldr	r0, [r4]
 783 0094 C1B2     		uxtb	r1, r0
 784 0096 C0F30F20 		ubfx	r0, r0, #8, #16
 785 009a FFF7FEFF 		bl	WriteExtSRAM
 786              	.LVL110:
 154:FrontPanel.c  **** 				LEDsVal &= 0x00ffff00;
 787              		.loc 1 154 0
 788 009e 2068     		ldr	r0, [r4]
 789 00a0 00F58070 		add	r0, r0, #256
 155:FrontPanel.c  **** 				LEDsVal |= ReadExtSRAM((LEDsVal >> 8) & 0xffff);
 790              		.loc 1 155 0
 791 00a4 20F07F40 		bic	r0, r0, #-16777216
 792 00a8 20F0FF00 		bic	r0, r0, #255
 793 00ac 2060     		str	r0, [r4]
 156:FrontPanel.c  **** 				writeFrontPanelLEDs(LEDsVal);
ARM GAS  C:\Users\HPz420\AppData\Local\Temp\ccRoL7rd.s 			page 23


 794              		.loc 1 156 0
 795 00ae 000A     		lsrs	r0, r0, #8
 796 00b0 FFF7FEFF 		bl	ReadExtSRAM
 797              	.LVL111:
 798 00b4 2368     		ldr	r3, [r4]
 799 00b6 1843     		orrs	r0, r0, r3
 800 00b8 2060     		str	r0, [r4]
 157:FrontPanel.c  **** 			}
 801              		.loc 1 157 0
 802 00ba FFF7FEFF 		bl	writeFrontPanelLEDs
 803              	.LVL112:
 804 00be BDE7     		b	.L53
 805              	.LVL113:
 806              	.L57:
 159:FrontPanel.c  **** 			{
 807              		.loc 1 159 0
 808 00c0 10F0806F 		tst	r0, #67108864
 809 00c4 15D0     		beq	.L58
 161:FrontPanel.c  **** 				writeFrontPanelLEDs(LEDsVal);
 810              		.loc 1 161 0
 811 00c6 374C     		ldr	r4, .L65
 812 00c8 2068     		ldr	r0, [r4]
 813              	.LVL114:
 814 00ca 40F08060 		orr	r0, r0, #67108864
 815 00ce 2060     		str	r0, [r4]
 162:FrontPanel.c  **** 				LEDsVal &= 0x00ffff00;
 816              		.loc 1 162 0
 817 00d0 FFF7FEFF 		bl	writeFrontPanelLEDs
 818              	.LVL115:
 163:FrontPanel.c  **** 				LEDsVal |= ReadExtSRAM((LEDsVal >> 8) & 0xffff);
 819              		.loc 1 163 0
 820 00d4 2068     		ldr	r0, [r4]
 821 00d6 20F07F40 		bic	r0, r0, #-16777216
 822 00da 20F0FF00 		bic	r0, r0, #255
 823 00de 2060     		str	r0, [r4]
 164:FrontPanel.c  **** 				writeFrontPanelLEDs(LEDsVal);
 824              		.loc 1 164 0
 825 00e0 000A     		lsrs	r0, r0, #8
 826 00e2 FFF7FEFF 		bl	ReadExtSRAM
 827              	.LVL116:
 828 00e6 2368     		ldr	r3, [r4]
 829 00e8 1843     		orrs	r0, r0, r3
 830 00ea 2060     		str	r0, [r4]
 165:FrontPanel.c  **** 			}
 831              		.loc 1 165 0
 832 00ec FFF7FEFF 		bl	writeFrontPanelLEDs
 833              	.LVL117:
 834 00f0 A4E7     		b	.L53
 835              	.LVL118:
 836              	.L58:
 167:FrontPanel.c  **** 			{
 837              		.loc 1 167 0
 838 00f2 10F0006F 		tst	r0, #134217728
 839 00f6 0AD0     		beq	.L59
 169:FrontPanel.c  **** 				LEDsVal = 0x08000000;
 840              		.loc 1 169 0
 841 00f8 0022     		movs	r2, #0
ARM GAS  C:\Users\HPz420\AppData\Local\Temp\ccRoL7rd.s 			page 24


 842 00fa 2B4B     		ldr	r3, .L65+4
 843 00fc 1A70     		strb	r2, [r3]
 170:FrontPanel.c  **** 				writeFrontPanelLEDs(LEDsVal);       // Leave Run LED on
 844              		.loc 1 170 0
 845 00fe 4FF00060 		mov	r0, #134217728
 846              	.LVL119:
 847 0102 284B     		ldr	r3, .L65
 848 0104 1860     		str	r0, [r3]
 171:FrontPanel.c  **** 				return (1);
 849              		.loc 1 171 0
 850 0106 FFF7FEFF 		bl	writeFrontPanelLEDs
 851              	.LVL120:
 172:FrontPanel.c  **** 			}
 852              		.loc 1 172 0
 853 010a 0120     		movs	r0, #1
 854 010c 10BD     		pop	{r4, pc}
 855              	.LVL121:
 856              	.L59:
 174:FrontPanel.c  **** 			{
 857              		.loc 1 174 0
 858 010e 10F0805F 		tst	r0, #268435456
 859 0112 0FD0     		beq	.L61
 176:FrontPanel.c  **** 				writeFrontPanelLEDs(LEDsVal);       // Leave LED on
 860              		.loc 1 176 0
 861 0114 234C     		ldr	r4, .L65
 862 0116 4FF08050 		mov	r0, #268435456
 863              	.LVL122:
 864 011a 2060     		str	r0, [r4]
 177:FrontPanel.c  **** 				CyDelay(250);
 865              		.loc 1 177 0
 866 011c FFF7FEFF 		bl	writeFrontPanelLEDs
 867              	.LVL123:
 178:FrontPanel.c  **** 				LEDsVal &= 0x00ffffff;
 868              		.loc 1 178 0
 869 0120 FA20     		movs	r0, #250
 870 0122 FFF7FEFF 		bl	CyDelay
 871              	.LVL124:
 179:FrontPanel.c  **** 				writeFrontPanelLEDs(LEDsVal);       // Turn off LED
 872              		.loc 1 179 0
 873 0126 2068     		ldr	r0, [r4]
 874 0128 20F07F40 		bic	r0, r0, #-16777216
 875 012c 2060     		str	r0, [r4]
 180:FrontPanel.c  **** 			}
 876              		.loc 1 180 0
 877 012e FFF7FEFF 		bl	writeFrontPanelLEDs
 878              	.LVL125:
 879 0132 83E7     		b	.L53
 880              	.LVL126:
 881              	.L61:
 182:FrontPanel.c  **** 			{
 882              		.loc 1 182 0
 883 0134 10F0005F 		tst	r0, #536870912
 884 0138 0FD0     		beq	.L62
 184:FrontPanel.c  **** 				writeFrontPanelLEDs(LEDsVal);       // Leave LED on
 885              		.loc 1 184 0
 886 013a 1A4C     		ldr	r4, .L65
 887 013c 4FF00050 		mov	r0, #536870912
ARM GAS  C:\Users\HPz420\AppData\Local\Temp\ccRoL7rd.s 			page 25


 888              	.LVL127:
 889 0140 2060     		str	r0, [r4]
 185:FrontPanel.c  **** 				CyDelay(250);
 890              		.loc 1 185 0
 891 0142 FFF7FEFF 		bl	writeFrontPanelLEDs
 892              	.LVL128:
 186:FrontPanel.c  **** 				LEDsVal &= 0x00ffffff;
 893              		.loc 1 186 0
 894 0146 FA20     		movs	r0, #250
 895 0148 FFF7FEFF 		bl	CyDelay
 896              	.LVL129:
 187:FrontPanel.c  **** 				writeFrontPanelLEDs(LEDsVal);       // Turn off LED
 897              		.loc 1 187 0
 898 014c 2068     		ldr	r0, [r4]
 899 014e 20F07F40 		bic	r0, r0, #-16777216
 900 0152 2060     		str	r0, [r4]
 188:FrontPanel.c  **** 			}
 901              		.loc 1 188 0
 902 0154 FFF7FEFF 		bl	writeFrontPanelLEDs
 903              	.LVL130:
 904 0158 70E7     		b	.L53
 905              	.LVL131:
 906              	.L62:
 190:FrontPanel.c  **** 			{
 907              		.loc 1 190 0
 908 015a 10F0804F 		tst	r0, #1073741824
 909 015e 0FD0     		beq	.L63
 192:FrontPanel.c  **** 				writeFrontPanelLEDs(LEDsVal);       // Leave LED on
 910              		.loc 1 192 0
 911 0160 104C     		ldr	r4, .L65
 912 0162 4FF08040 		mov	r0, #1073741824
 913              	.LVL132:
 914 0166 2060     		str	r0, [r4]
 193:FrontPanel.c  **** 				CyDelay(250);
 915              		.loc 1 193 0
 916 0168 FFF7FEFF 		bl	writeFrontPanelLEDs
 917              	.LVL133:
 194:FrontPanel.c  **** 				LEDsVal &= 0x00ffffff;
 918              		.loc 1 194 0
 919 016c FA20     		movs	r0, #250
 920 016e FFF7FEFF 		bl	CyDelay
 921              	.LVL134:
 195:FrontPanel.c  **** 				writeFrontPanelLEDs(LEDsVal);       // Turn off LED
 922              		.loc 1 195 0
 923 0172 2068     		ldr	r0, [r4]
 924 0174 20F07F40 		bic	r0, r0, #-16777216
 925 0178 2060     		str	r0, [r4]
 196:FrontPanel.c  **** 			}
 926              		.loc 1 196 0
 927 017a FFF7FEFF 		bl	writeFrontPanelLEDs
 928              	.LVL135:
 929 017e 5DE7     		b	.L53
 930              	.LVL136:
 931              	.L63:
 198:FrontPanel.c  **** 			{
 932              		.loc 1 198 0
 933 0180 0028     		cmp	r0, #0
ARM GAS  C:\Users\HPz420\AppData\Local\Temp\ccRoL7rd.s 			page 26


 934 0182 BFF65BAF 		bge	.L53
 200:FrontPanel.c  **** 				writeFrontPanelLEDs(LEDsVal);       // Leave LED on
 935              		.loc 1 200 0
 936 0186 4FF00040 		mov	r0, #-2147483648
 937              	.LVL137:
 938 018a 064B     		ldr	r3, .L65
 939 018c 1860     		str	r0, [r3]
 201:FrontPanel.c  **** 				return(0);                          // Z80 still in reset
 940              		.loc 1 201 0
 941 018e FFF7FEFF 		bl	writeFrontPanelLEDs
 942              	.LVL138:
 202:FrontPanel.c  **** 			}
 943              		.loc 1 202 0
 944 0192 0020     		movs	r0, #0
 945 0194 10BD     		pop	{r4, pc}
 946              	.LVL139:
 947              	.L54:
 207:FrontPanel.c  **** 			writeFrontPanelLEDs(LEDsVal);
 948              		.loc 1 207 0
 949 0196 034A     		ldr	r2, .L65
 950 0198 1368     		ldr	r3, [r2]
 951 019a 5840     		eors	r0, r0, r3
 952              	.LVL140:
 953 019c 1060     		str	r0, [r2]
 208:FrontPanel.c  **** 		}
 954              		.loc 1 208 0
 955 019e FFF7FEFF 		bl	writeFrontPanelLEDs
 956              	.LVL141:
 957 01a2 4BE7     		b	.L53
 958              	.L66:
 959              		.align	2
 960              	.L65:
 961 01a4 00000000 		.word	LEDsVal
 962 01a8 76650040 		.word	1073767798
 963              		.cfi_endproc
 964              	.LFE66:
 965              		.size	runFrontPanel, .-runFrontPanel
 966              		.comm	LEDsVal,4,4
 967              		.comm	FPLong,4,4
 968              		.comm	FPCtrl,1,1
 969              		.comm	FPAddr,2,2
 970              		.comm	FPData,1,1
 971              		.text
 972              	.Letext0:
 973              		.file 2 "c:\\program files (x86)\\cypress\\psoc creator\\4.2\\psoc creator\\import\\gnu\\arm\\5.4.
 974              		.file 3 "c:\\program files (x86)\\cypress\\psoc creator\\4.2\\psoc creator\\import\\gnu\\arm\\5.4.
 975              		.file 4 "Generated_Source\\PSoC5/cytypes.h"
 976              		.file 5 "Generated_Source\\PSoC5/core_cm3.h"
 977              		.file 6 "Generated_Source\\PSoC5/I2C.h"
 978              		.file 7 "Generated_Source\\PSoC5/Z80_Data_In.h"
 979              		.file 8 "./Z80_IO_Handle.h"
 980              		.file 9 "Generated_Source\\PSoC5/CyLib.h"
 981              		.file 10 "Generated_Source\\PSoC5/Z80_Data_Out.h"
 982              		.file 11 "./ExtSRAM.h"