ARM GAS  C:\Users\HPz420\AppData\Local\Temp\cczoATpL.s 			page 1


   1              		.syntax unified
   2              		.cpu cortex-m3
   3              		.fpu softvfp
   4              		.eabi_attribute 20, 1
   5              		.eabi_attribute 21, 1
   6              		.eabi_attribute 23, 3
   7              		.eabi_attribute 24, 1
   8              		.eabi_attribute 25, 1
   9              		.eabi_attribute 26, 1
  10              		.eabi_attribute 30, 1
  11              		.eabi_attribute 34, 1
  12              		.eabi_attribute 18, 4
  13              		.thumb
  14              		.syntax unified
  15              		.file	"I2CINT_ISR.c"
  16              		.text
  17              	.Ltext0:
  18              		.cfi_sections	.debug_frame
  19              		.section	.text.I2CINT_ISR_Interrupt,"ax",%progbits
  20              		.align	2
  21              		.global	I2CINT_ISR_Interrupt
  22              		.thumb
  23              		.thumb_func
  24              		.type	I2CINT_ISR_Interrupt, %function
  25              	I2CINT_ISR_Interrupt:
  26              	.LFB66:
  27              		.file 1 "Generated_Source\\PSoC5\\I2CINT_ISR.c"
   1:Generated_Source\PSoC5/I2CINT_ISR.c **** /*******************************************************************************
   2:Generated_Source\PSoC5/I2CINT_ISR.c **** * File Name: I2CINT_ISR.c  
   3:Generated_Source\PSoC5/I2CINT_ISR.c **** * Version 1.70
   4:Generated_Source\PSoC5/I2CINT_ISR.c **** *
   5:Generated_Source\PSoC5/I2CINT_ISR.c **** *  Description:
   6:Generated_Source\PSoC5/I2CINT_ISR.c **** *   API for controlling the state of an interrupt.
   7:Generated_Source\PSoC5/I2CINT_ISR.c **** *
   8:Generated_Source\PSoC5/I2CINT_ISR.c **** *
   9:Generated_Source\PSoC5/I2CINT_ISR.c **** *  Note:
  10:Generated_Source\PSoC5/I2CINT_ISR.c **** *
  11:Generated_Source\PSoC5/I2CINT_ISR.c **** ********************************************************************************
  12:Generated_Source\PSoC5/I2CINT_ISR.c **** * Copyright 2008-2015, Cypress Semiconductor Corporation.  All rights reserved.
  13:Generated_Source\PSoC5/I2CINT_ISR.c **** * You may use this file only in accordance with the license, terms, conditions, 
  14:Generated_Source\PSoC5/I2CINT_ISR.c **** * disclaimers, and limitations in the end user license agreement accompanying 
  15:Generated_Source\PSoC5/I2CINT_ISR.c **** * the software package with which this file was provided.
  16:Generated_Source\PSoC5/I2CINT_ISR.c **** *******************************************************************************/
  17:Generated_Source\PSoC5/I2CINT_ISR.c **** 
  18:Generated_Source\PSoC5/I2CINT_ISR.c **** 
  19:Generated_Source\PSoC5/I2CINT_ISR.c **** #include <cydevice_trm.h>
  20:Generated_Source\PSoC5/I2CINT_ISR.c **** #include <CyLib.h>
  21:Generated_Source\PSoC5/I2CINT_ISR.c **** #include <I2CINT_ISR.h>
  22:Generated_Source\PSoC5/I2CINT_ISR.c **** #include "cyapicallbacks.h"
  23:Generated_Source\PSoC5/I2CINT_ISR.c **** #include "Z80_PSoC_3Chips.h"
  24:Generated_Source\PSoC5/I2CINT_ISR.c **** 
  25:Generated_Source\PSoC5/I2CINT_ISR.c **** #if !defined(I2CINT_ISR__REMOVED) /* Check for removal by optimization */
  26:Generated_Source\PSoC5/I2CINT_ISR.c **** 
  27:Generated_Source\PSoC5/I2CINT_ISR.c **** /*******************************************************************************
  28:Generated_Source\PSoC5/I2CINT_ISR.c **** *  Place your includes, defines and code here 
  29:Generated_Source\PSoC5/I2CINT_ISR.c **** ********************************************************************************/
  30:Generated_Source\PSoC5/I2CINT_ISR.c **** /* `#START I2CINT_ISR_intc` */
ARM GAS  C:\Users\HPz420\AppData\Local\Temp\cczoATpL.s 			page 2


  31:Generated_Source\PSoC5/I2CINT_ISR.c **** 
  32:Generated_Source\PSoC5/I2CINT_ISR.c **** /* `#END` */
  33:Generated_Source\PSoC5/I2CINT_ISR.c **** 
  34:Generated_Source\PSoC5/I2CINT_ISR.c **** #ifndef CYINT_IRQ_BASE
  35:Generated_Source\PSoC5/I2CINT_ISR.c **** #define CYINT_IRQ_BASE      16
  36:Generated_Source\PSoC5/I2CINT_ISR.c **** #endif /* CYINT_IRQ_BASE */
  37:Generated_Source\PSoC5/I2CINT_ISR.c **** #ifndef CYINT_VECT_TABLE
  38:Generated_Source\PSoC5/I2CINT_ISR.c **** #define CYINT_VECT_TABLE    ((cyisraddress **) CYREG_NVIC_VECT_OFFSET)
  39:Generated_Source\PSoC5/I2CINT_ISR.c **** #endif /* CYINT_VECT_TABLE */
  40:Generated_Source\PSoC5/I2CINT_ISR.c **** 
  41:Generated_Source\PSoC5/I2CINT_ISR.c **** /* Declared in startup, used to set unused interrupts to. */
  42:Generated_Source\PSoC5/I2CINT_ISR.c **** CY_ISR_PROTO(IntDefaultHandler);
  43:Generated_Source\PSoC5/I2CINT_ISR.c **** 
  44:Generated_Source\PSoC5/I2CINT_ISR.c **** 
  45:Generated_Source\PSoC5/I2CINT_ISR.c **** /*******************************************************************************
  46:Generated_Source\PSoC5/I2CINT_ISR.c **** * Function Name: I2CINT_ISR_Start
  47:Generated_Source\PSoC5/I2CINT_ISR.c **** ********************************************************************************
  48:Generated_Source\PSoC5/I2CINT_ISR.c **** *
  49:Generated_Source\PSoC5/I2CINT_ISR.c **** * Summary:
  50:Generated_Source\PSoC5/I2CINT_ISR.c **** *  Set up the interrupt and enable it. This function disables the interrupt, 
  51:Generated_Source\PSoC5/I2CINT_ISR.c **** *  sets the default interrupt vector, sets the priority from the value in the
  52:Generated_Source\PSoC5/I2CINT_ISR.c **** *  Design Wide Resources Interrupt Editor, then enables the interrupt to the 
  53:Generated_Source\PSoC5/I2CINT_ISR.c **** *  interrupt controller.
  54:Generated_Source\PSoC5/I2CINT_ISR.c **** *
  55:Generated_Source\PSoC5/I2CINT_ISR.c **** * Parameters:  
  56:Generated_Source\PSoC5/I2CINT_ISR.c **** *   None
  57:Generated_Source\PSoC5/I2CINT_ISR.c **** *
  58:Generated_Source\PSoC5/I2CINT_ISR.c **** * Return:
  59:Generated_Source\PSoC5/I2CINT_ISR.c **** *   None
  60:Generated_Source\PSoC5/I2CINT_ISR.c **** *
  61:Generated_Source\PSoC5/I2CINT_ISR.c **** *******************************************************************************/
  62:Generated_Source\PSoC5/I2CINT_ISR.c **** void I2CINT_ISR_Start(void)
  63:Generated_Source\PSoC5/I2CINT_ISR.c **** {
  64:Generated_Source\PSoC5/I2CINT_ISR.c ****     /* For all we know the interrupt is active. */
  65:Generated_Source\PSoC5/I2CINT_ISR.c ****     I2CINT_ISR_Disable();
  66:Generated_Source\PSoC5/I2CINT_ISR.c **** 
  67:Generated_Source\PSoC5/I2CINT_ISR.c ****     /* Set the ISR to point to the I2CINT_ISR Interrupt. */
  68:Generated_Source\PSoC5/I2CINT_ISR.c ****     I2CINT_ISR_SetVector(&I2CINT_ISR_Interrupt);
  69:Generated_Source\PSoC5/I2CINT_ISR.c **** 
  70:Generated_Source\PSoC5/I2CINT_ISR.c ****     /* Set the priority. */
  71:Generated_Source\PSoC5/I2CINT_ISR.c ****     I2CINT_ISR_SetPriority((uint8)I2CINT_ISR_INTC_PRIOR_NUMBER);
  72:Generated_Source\PSoC5/I2CINT_ISR.c **** 
  73:Generated_Source\PSoC5/I2CINT_ISR.c ****     /* Enable it. */
  74:Generated_Source\PSoC5/I2CINT_ISR.c ****     I2CINT_ISR_Enable();
  75:Generated_Source\PSoC5/I2CINT_ISR.c **** }
  76:Generated_Source\PSoC5/I2CINT_ISR.c **** 
  77:Generated_Source\PSoC5/I2CINT_ISR.c **** 
  78:Generated_Source\PSoC5/I2CINT_ISR.c **** /*******************************************************************************
  79:Generated_Source\PSoC5/I2CINT_ISR.c **** * Function Name: I2CINT_ISR_StartEx
  80:Generated_Source\PSoC5/I2CINT_ISR.c **** ********************************************************************************
  81:Generated_Source\PSoC5/I2CINT_ISR.c **** *
  82:Generated_Source\PSoC5/I2CINT_ISR.c **** * Summary:
  83:Generated_Source\PSoC5/I2CINT_ISR.c **** *  Sets up the interrupt and enables it. This function disables the interrupt,
  84:Generated_Source\PSoC5/I2CINT_ISR.c **** *  sets the interrupt vector based on the address passed in, sets the priority 
  85:Generated_Source\PSoC5/I2CINT_ISR.c **** *  from the value in the Design Wide Resources Interrupt Editor, then enables 
  86:Generated_Source\PSoC5/I2CINT_ISR.c **** *  the interrupt to the interrupt controller.
  87:Generated_Source\PSoC5/I2CINT_ISR.c **** *  
ARM GAS  C:\Users\HPz420\AppData\Local\Temp\cczoATpL.s 			page 3


  88:Generated_Source\PSoC5/I2CINT_ISR.c **** *  When defining ISR functions, the CY_ISR and CY_ISR_PROTO macros should be 
  89:Generated_Source\PSoC5/I2CINT_ISR.c **** *  used to provide consistent definition across compilers:
  90:Generated_Source\PSoC5/I2CINT_ISR.c **** *  
  91:Generated_Source\PSoC5/I2CINT_ISR.c **** *  Function definition example:
  92:Generated_Source\PSoC5/I2CINT_ISR.c **** *   CY_ISR(MyISR)
  93:Generated_Source\PSoC5/I2CINT_ISR.c **** *   {
  94:Generated_Source\PSoC5/I2CINT_ISR.c **** *   }
  95:Generated_Source\PSoC5/I2CINT_ISR.c **** *   Function prototype example:
  96:Generated_Source\PSoC5/I2CINT_ISR.c **** *   CY_ISR_PROTO(MyISR);
  97:Generated_Source\PSoC5/I2CINT_ISR.c **** *
  98:Generated_Source\PSoC5/I2CINT_ISR.c **** * Parameters:  
  99:Generated_Source\PSoC5/I2CINT_ISR.c **** *   address: Address of the ISR to set in the interrupt vector table.
 100:Generated_Source\PSoC5/I2CINT_ISR.c **** *
 101:Generated_Source\PSoC5/I2CINT_ISR.c **** * Return:
 102:Generated_Source\PSoC5/I2CINT_ISR.c **** *   None
 103:Generated_Source\PSoC5/I2CINT_ISR.c **** *
 104:Generated_Source\PSoC5/I2CINT_ISR.c **** *******************************************************************************/
 105:Generated_Source\PSoC5/I2CINT_ISR.c **** void I2CINT_ISR_StartEx(cyisraddress address)
 106:Generated_Source\PSoC5/I2CINT_ISR.c **** {
 107:Generated_Source\PSoC5/I2CINT_ISR.c ****     /* For all we know the interrupt is active. */
 108:Generated_Source\PSoC5/I2CINT_ISR.c ****     I2CINT_ISR_Disable();
 109:Generated_Source\PSoC5/I2CINT_ISR.c **** 
 110:Generated_Source\PSoC5/I2CINT_ISR.c ****     /* Set the ISR to point to the I2CINT_ISR Interrupt. */
 111:Generated_Source\PSoC5/I2CINT_ISR.c ****     I2CINT_ISR_SetVector(address);
 112:Generated_Source\PSoC5/I2CINT_ISR.c **** 
 113:Generated_Source\PSoC5/I2CINT_ISR.c ****     /* Set the priority. */
 114:Generated_Source\PSoC5/I2CINT_ISR.c ****     I2CINT_ISR_SetPriority((uint8)I2CINT_ISR_INTC_PRIOR_NUMBER);
 115:Generated_Source\PSoC5/I2CINT_ISR.c **** 
 116:Generated_Source\PSoC5/I2CINT_ISR.c ****     /* Enable it. */
 117:Generated_Source\PSoC5/I2CINT_ISR.c ****     I2CINT_ISR_Enable();
 118:Generated_Source\PSoC5/I2CINT_ISR.c **** }
 119:Generated_Source\PSoC5/I2CINT_ISR.c **** 
 120:Generated_Source\PSoC5/I2CINT_ISR.c **** 
 121:Generated_Source\PSoC5/I2CINT_ISR.c **** /*******************************************************************************
 122:Generated_Source\PSoC5/I2CINT_ISR.c **** * Function Name: I2CINT_ISR_Stop
 123:Generated_Source\PSoC5/I2CINT_ISR.c **** ********************************************************************************
 124:Generated_Source\PSoC5/I2CINT_ISR.c **** *
 125:Generated_Source\PSoC5/I2CINT_ISR.c **** * Summary:
 126:Generated_Source\PSoC5/I2CINT_ISR.c **** *   Disables and removes the interrupt.
 127:Generated_Source\PSoC5/I2CINT_ISR.c **** *
 128:Generated_Source\PSoC5/I2CINT_ISR.c **** * Parameters:  
 129:Generated_Source\PSoC5/I2CINT_ISR.c **** *   None
 130:Generated_Source\PSoC5/I2CINT_ISR.c **** *
 131:Generated_Source\PSoC5/I2CINT_ISR.c **** * Return:
 132:Generated_Source\PSoC5/I2CINT_ISR.c **** *   None
 133:Generated_Source\PSoC5/I2CINT_ISR.c **** *
 134:Generated_Source\PSoC5/I2CINT_ISR.c **** *******************************************************************************/
 135:Generated_Source\PSoC5/I2CINT_ISR.c **** void I2CINT_ISR_Stop(void)
 136:Generated_Source\PSoC5/I2CINT_ISR.c **** {
 137:Generated_Source\PSoC5/I2CINT_ISR.c ****     /* Disable this interrupt. */
 138:Generated_Source\PSoC5/I2CINT_ISR.c ****     I2CINT_ISR_Disable();
 139:Generated_Source\PSoC5/I2CINT_ISR.c **** 
 140:Generated_Source\PSoC5/I2CINT_ISR.c ****     /* Set the ISR to point to the passive one. */
 141:Generated_Source\PSoC5/I2CINT_ISR.c ****     I2CINT_ISR_SetVector(&IntDefaultHandler);
 142:Generated_Source\PSoC5/I2CINT_ISR.c **** }
 143:Generated_Source\PSoC5/I2CINT_ISR.c **** 
 144:Generated_Source\PSoC5/I2CINT_ISR.c **** 
ARM GAS  C:\Users\HPz420\AppData\Local\Temp\cczoATpL.s 			page 4


 145:Generated_Source\PSoC5/I2CINT_ISR.c **** /*******************************************************************************
 146:Generated_Source\PSoC5/I2CINT_ISR.c **** * Function Name: I2CINT_ISR_Interrupt
 147:Generated_Source\PSoC5/I2CINT_ISR.c **** ********************************************************************************
 148:Generated_Source\PSoC5/I2CINT_ISR.c **** *
 149:Generated_Source\PSoC5/I2CINT_ISR.c **** * Summary:
 150:Generated_Source\PSoC5/I2CINT_ISR.c **** *   The default Interrupt Service Routine for I2CINT_ISR.
 151:Generated_Source\PSoC5/I2CINT_ISR.c **** *
 152:Generated_Source\PSoC5/I2CINT_ISR.c **** *   Add custom code between the coments to keep the next version of this file
 153:Generated_Source\PSoC5/I2CINT_ISR.c **** *   from over writting your code.
 154:Generated_Source\PSoC5/I2CINT_ISR.c **** *
 155:Generated_Source\PSoC5/I2CINT_ISR.c **** * Parameters:  
 156:Generated_Source\PSoC5/I2CINT_ISR.c **** *
 157:Generated_Source\PSoC5/I2CINT_ISR.c **** * Return:
 158:Generated_Source\PSoC5/I2CINT_ISR.c **** *   None
 159:Generated_Source\PSoC5/I2CINT_ISR.c **** *
 160:Generated_Source\PSoC5/I2CINT_ISR.c **** *******************************************************************************/
 161:Generated_Source\PSoC5/I2CINT_ISR.c **** CY_ISR(I2CINT_ISR_Interrupt)
 162:Generated_Source\PSoC5/I2CINT_ISR.c **** {
  28              		.loc 1 162 0
  29              		.cfi_startproc
  30              		@ args = 0, pretend = 0, frame = 0
  31              		@ frame_needed = 0, uses_anonymous_args = 0
  32 0000 08B5     		push	{r3, lr}
  33              		.cfi_def_cfa_offset 8
  34              		.cfi_offset 3, -8
  35              		.cfi_offset 14, -4
 163:Generated_Source\PSoC5/I2CINT_ISR.c ****     #ifdef I2CINT_ISR_INTERRUPT_INTERRUPT_CALLBACK
 164:Generated_Source\PSoC5/I2CINT_ISR.c ****         I2CINT_ISR_Interrupt_InterruptCallback();
 165:Generated_Source\PSoC5/I2CINT_ISR.c ****     #endif /* I2CINT_ISR_INTERRUPT_INTERRUPT_CALLBACK */ 
 166:Generated_Source\PSoC5/I2CINT_ISR.c **** 
 167:Generated_Source\PSoC5/I2CINT_ISR.c ****     /*  Place your Interrupt code here. */
 168:Generated_Source\PSoC5/I2CINT_ISR.c ****     /* `#START I2CINT_ISR_Interrupt` */
 169:Generated_Source\PSoC5/I2CINT_ISR.c **** 	#ifdef USING_FRONT_PANEL
 170:Generated_Source\PSoC5/I2CINT_ISR.c ****   		readRegister_MCP23017(0x24,MCP23017_INTCAPA_REGADR);                            // Clears inter
  36              		.loc 1 170 0
  37 0002 1021     		movs	r1, #16
  38 0004 2420     		movs	r0, #36
  39 0006 FFF7FEFF 		bl	readRegister_MCP23017
  40              	.LVL0:
 171:Generated_Source\PSoC5/I2CINT_ISR.c ****   		readRegister_MCP23017(0x25,MCP23017_INTCAPA_REGADR);                            // Clears inter
  41              		.loc 1 171 0
  42 000a 1021     		movs	r1, #16
  43 000c 2520     		movs	r0, #37
  44 000e FFF7FEFF 		bl	readRegister_MCP23017
  45              	.LVL1:
 172:Generated_Source\PSoC5/I2CINT_ISR.c ****   		readRegister_MCP23017(0x26,MCP23017_INTCAPA_REGADR);                            // Clears inter
  46              		.loc 1 172 0
  47 0012 1021     		movs	r1, #16
  48 0014 2620     		movs	r0, #38
  49 0016 FFF7FEFF 		bl	readRegister_MCP23017
  50              	.LVL2:
 173:Generated_Source\PSoC5/I2CINT_ISR.c ****   		readRegister_MCP23017(0x27,MCP23017_INTCAPA_REGADR);                            // Clears inter
  51              		.loc 1 173 0
  52 001a 1021     		movs	r1, #16
  53 001c 2720     		movs	r0, #39
  54 001e FFF7FEFF 		bl	readRegister_MCP23017
  55              	.LVL3:
ARM GAS  C:\Users\HPz420\AppData\Local\Temp\cczoATpL.s 			page 5


 174:Generated_Source\PSoC5/I2CINT_ISR.c **** 		I2C_Start();
  56              		.loc 1 174 0
  57 0022 FFF7FEFF 		bl	I2C_Start
  58              	.LVL4:
 175:Generated_Source\PSoC5/I2CINT_ISR.c **** 	#endif
 176:Generated_Source\PSoC5/I2CINT_ISR.c **** 	#ifdef USING_EXP_MCCP23017
 177:Generated_Source\PSoC5/I2CINT_ISR.c ****   		readRegister_MCP23017(0x20,MCP23017_INTCAPA_REGADR);                            // Clears inter
  59              		.loc 1 177 0
  60 0026 1021     		movs	r1, #16
  61 0028 2020     		movs	r0, #32
  62 002a FFF7FEFF 		bl	readRegister_MCP23017
  63              	.LVL5:
 178:Generated_Source\PSoC5/I2CINT_ISR.c ****   		readRegister_MCP23017(0x20,MCP23017_INTCAPB_REGADR);                            // Clears inter
  64              		.loc 1 178 0
  65 002e 1121     		movs	r1, #17
  66 0030 2020     		movs	r0, #32
  67 0032 FFF7FEFF 		bl	readRegister_MCP23017
  68              	.LVL6:
  69 0036 08BD     		pop	{r3, pc}
  70              		.cfi_endproc
  71              	.LFE66:
  72              		.size	I2CINT_ISR_Interrupt, .-I2CINT_ISR_Interrupt
  73              		.section	.text.I2CINT_ISR_SetVector,"ax",%progbits
  74              		.align	2
  75              		.global	I2CINT_ISR_SetVector
  76              		.thumb
  77              		.thumb_func
  78              		.type	I2CINT_ISR_SetVector, %function
  79              	I2CINT_ISR_SetVector:
  80              	.LFB67:
 179:Generated_Source\PSoC5/I2CINT_ISR.c **** 	#endif
 180:Generated_Source\PSoC5/I2CINT_ISR.c ****     /* `#END` */
 181:Generated_Source\PSoC5/I2CINT_ISR.c **** }
 182:Generated_Source\PSoC5/I2CINT_ISR.c **** 
 183:Generated_Source\PSoC5/I2CINT_ISR.c **** 
 184:Generated_Source\PSoC5/I2CINT_ISR.c **** /*******************************************************************************
 185:Generated_Source\PSoC5/I2CINT_ISR.c **** * Function Name: I2CINT_ISR_SetVector
 186:Generated_Source\PSoC5/I2CINT_ISR.c **** ********************************************************************************
 187:Generated_Source\PSoC5/I2CINT_ISR.c **** *
 188:Generated_Source\PSoC5/I2CINT_ISR.c **** * Summary:
 189:Generated_Source\PSoC5/I2CINT_ISR.c **** *   Change the ISR vector for the Interrupt. Note calling I2CINT_ISR_Start
 190:Generated_Source\PSoC5/I2CINT_ISR.c **** *   will override any effect this method would have had. To set the vector 
 191:Generated_Source\PSoC5/I2CINT_ISR.c **** *   before the component has been started use I2CINT_ISR_StartEx instead.
 192:Generated_Source\PSoC5/I2CINT_ISR.c **** * 
 193:Generated_Source\PSoC5/I2CINT_ISR.c **** *   When defining ISR functions, the CY_ISR and CY_ISR_PROTO macros should be 
 194:Generated_Source\PSoC5/I2CINT_ISR.c **** *   used to provide consistent definition across compilers:
 195:Generated_Source\PSoC5/I2CINT_ISR.c **** *
 196:Generated_Source\PSoC5/I2CINT_ISR.c **** *   Function definition example:
 197:Generated_Source\PSoC5/I2CINT_ISR.c **** *   CY_ISR(MyISR)
 198:Generated_Source\PSoC5/I2CINT_ISR.c **** *   {
 199:Generated_Source\PSoC5/I2CINT_ISR.c **** *   }
 200:Generated_Source\PSoC5/I2CINT_ISR.c **** *
 201:Generated_Source\PSoC5/I2CINT_ISR.c **** *   Function prototype example:
 202:Generated_Source\PSoC5/I2CINT_ISR.c **** *     CY_ISR_PROTO(MyISR);
 203:Generated_Source\PSoC5/I2CINT_ISR.c **** *
 204:Generated_Source\PSoC5/I2CINT_ISR.c **** * Parameters:
 205:Generated_Source\PSoC5/I2CINT_ISR.c **** *   address: Address of the ISR to set in the interrupt vector table.
ARM GAS  C:\Users\HPz420\AppData\Local\Temp\cczoATpL.s 			page 6


 206:Generated_Source\PSoC5/I2CINT_ISR.c **** *
 207:Generated_Source\PSoC5/I2CINT_ISR.c **** * Return:
 208:Generated_Source\PSoC5/I2CINT_ISR.c **** *   None
 209:Generated_Source\PSoC5/I2CINT_ISR.c **** *
 210:Generated_Source\PSoC5/I2CINT_ISR.c **** *******************************************************************************/
 211:Generated_Source\PSoC5/I2CINT_ISR.c **** void I2CINT_ISR_SetVector(cyisraddress address)
 212:Generated_Source\PSoC5/I2CINT_ISR.c **** {
  81              		.loc 1 212 0
  82              		.cfi_startproc
  83              		@ args = 0, pretend = 0, frame = 0
  84              		@ frame_needed = 0, uses_anonymous_args = 0
  85              		@ link register save eliminated.
  86              	.LVL7:
 213:Generated_Source\PSoC5/I2CINT_ISR.c ****     cyisraddress * ramVectorTable;
 214:Generated_Source\PSoC5/I2CINT_ISR.c **** 
 215:Generated_Source\PSoC5/I2CINT_ISR.c ****     ramVectorTable = (cyisraddress *) *CYINT_VECT_TABLE;
  87              		.loc 1 215 0
  88 0000 014B     		ldr	r3, .L4
  89 0002 1B68     		ldr	r3, [r3]
  90              	.LVL8:
 216:Generated_Source\PSoC5/I2CINT_ISR.c **** 
 217:Generated_Source\PSoC5/I2CINT_ISR.c ****     ramVectorTable[CYINT_IRQ_BASE + (uint32)I2CINT_ISR__INTC_NUMBER] = address;
  91              		.loc 1 217 0
  92 0004 1864     		str	r0, [r3, #64]
  93 0006 7047     		bx	lr
  94              	.L5:
  95              		.align	2
  96              	.L4:
  97 0008 08ED00E0 		.word	-536810232
  98              		.cfi_endproc
  99              	.LFE67:
 100              		.size	I2CINT_ISR_SetVector, .-I2CINT_ISR_SetVector
 101              		.section	.text.I2CINT_ISR_GetVector,"ax",%progbits
 102              		.align	2
 103              		.global	I2CINT_ISR_GetVector
 104              		.thumb
 105              		.thumb_func
 106              		.type	I2CINT_ISR_GetVector, %function
 107              	I2CINT_ISR_GetVector:
 108              	.LFB68:
 218:Generated_Source\PSoC5/I2CINT_ISR.c **** }
 219:Generated_Source\PSoC5/I2CINT_ISR.c **** 
 220:Generated_Source\PSoC5/I2CINT_ISR.c **** 
 221:Generated_Source\PSoC5/I2CINT_ISR.c **** /*******************************************************************************
 222:Generated_Source\PSoC5/I2CINT_ISR.c **** * Function Name: I2CINT_ISR_GetVector
 223:Generated_Source\PSoC5/I2CINT_ISR.c **** ********************************************************************************
 224:Generated_Source\PSoC5/I2CINT_ISR.c **** *
 225:Generated_Source\PSoC5/I2CINT_ISR.c **** * Summary:
 226:Generated_Source\PSoC5/I2CINT_ISR.c **** *   Gets the "address" of the current ISR vector for the Interrupt.
 227:Generated_Source\PSoC5/I2CINT_ISR.c **** *
 228:Generated_Source\PSoC5/I2CINT_ISR.c **** * Parameters:
 229:Generated_Source\PSoC5/I2CINT_ISR.c **** *   None
 230:Generated_Source\PSoC5/I2CINT_ISR.c **** *
 231:Generated_Source\PSoC5/I2CINT_ISR.c **** * Return:
 232:Generated_Source\PSoC5/I2CINT_ISR.c **** *   Address of the ISR in the interrupt vector table.
 233:Generated_Source\PSoC5/I2CINT_ISR.c **** *
 234:Generated_Source\PSoC5/I2CINT_ISR.c **** *******************************************************************************/
ARM GAS  C:\Users\HPz420\AppData\Local\Temp\cczoATpL.s 			page 7


 235:Generated_Source\PSoC5/I2CINT_ISR.c **** cyisraddress I2CINT_ISR_GetVector(void)
 236:Generated_Source\PSoC5/I2CINT_ISR.c **** {
 109              		.loc 1 236 0
 110              		.cfi_startproc
 111              		@ args = 0, pretend = 0, frame = 0
 112              		@ frame_needed = 0, uses_anonymous_args = 0
 113              		@ link register save eliminated.
 237:Generated_Source\PSoC5/I2CINT_ISR.c ****     cyisraddress * ramVectorTable;
 238:Generated_Source\PSoC5/I2CINT_ISR.c **** 
 239:Generated_Source\PSoC5/I2CINT_ISR.c ****     ramVectorTable = (cyisraddress *) *CYINT_VECT_TABLE;
 114              		.loc 1 239 0
 115 0000 014B     		ldr	r3, .L7
 116 0002 1B68     		ldr	r3, [r3]
 117              	.LVL9:
 240:Generated_Source\PSoC5/I2CINT_ISR.c **** 
 241:Generated_Source\PSoC5/I2CINT_ISR.c ****     return ramVectorTable[CYINT_IRQ_BASE + (uint32)I2CINT_ISR__INTC_NUMBER];
 242:Generated_Source\PSoC5/I2CINT_ISR.c **** }
 118              		.loc 1 242 0
 119 0004 186C     		ldr	r0, [r3, #64]
 120 0006 7047     		bx	lr
 121              	.L8:
 122              		.align	2
 123              	.L7:
 124 0008 08ED00E0 		.word	-536810232
 125              		.cfi_endproc
 126              	.LFE68:
 127              		.size	I2CINT_ISR_GetVector, .-I2CINT_ISR_GetVector
 128              		.section	.text.I2CINT_ISR_SetPriority,"ax",%progbits
 129              		.align	2
 130              		.global	I2CINT_ISR_SetPriority
 131              		.thumb
 132              		.thumb_func
 133              		.type	I2CINT_ISR_SetPriority, %function
 134              	I2CINT_ISR_SetPriority:
 135              	.LFB69:
 243:Generated_Source\PSoC5/I2CINT_ISR.c **** 
 244:Generated_Source\PSoC5/I2CINT_ISR.c **** 
 245:Generated_Source\PSoC5/I2CINT_ISR.c **** /*******************************************************************************
 246:Generated_Source\PSoC5/I2CINT_ISR.c **** * Function Name: I2CINT_ISR_SetPriority
 247:Generated_Source\PSoC5/I2CINT_ISR.c **** ********************************************************************************
 248:Generated_Source\PSoC5/I2CINT_ISR.c **** *
 249:Generated_Source\PSoC5/I2CINT_ISR.c **** * Summary:
 250:Generated_Source\PSoC5/I2CINT_ISR.c **** *   Sets the Priority of the Interrupt. 
 251:Generated_Source\PSoC5/I2CINT_ISR.c **** *
 252:Generated_Source\PSoC5/I2CINT_ISR.c **** *   Note calling I2CINT_ISR_Start or I2CINT_ISR_StartEx will 
 253:Generated_Source\PSoC5/I2CINT_ISR.c **** *   override any effect this API would have had. This API should only be called
 254:Generated_Source\PSoC5/I2CINT_ISR.c **** *   after I2CINT_ISR_Start or I2CINT_ISR_StartEx has been called. 
 255:Generated_Source\PSoC5/I2CINT_ISR.c **** *   To set the initial priority for the component, use the Design-Wide Resources
 256:Generated_Source\PSoC5/I2CINT_ISR.c **** *   Interrupt Editor.
 257:Generated_Source\PSoC5/I2CINT_ISR.c **** *
 258:Generated_Source\PSoC5/I2CINT_ISR.c **** *   Note This API has no effect on Non-maskable interrupt NMI).
 259:Generated_Source\PSoC5/I2CINT_ISR.c **** *
 260:Generated_Source\PSoC5/I2CINT_ISR.c **** * Parameters:
 261:Generated_Source\PSoC5/I2CINT_ISR.c **** *   priority: Priority of the interrupt, 0 being the highest priority
 262:Generated_Source\PSoC5/I2CINT_ISR.c **** *             PSoC 3 and PSoC 5LP: Priority is from 0 to 7.
 263:Generated_Source\PSoC5/I2CINT_ISR.c **** *             PSoC 4: Priority is from 0 to 3.
 264:Generated_Source\PSoC5/I2CINT_ISR.c **** *
ARM GAS  C:\Users\HPz420\AppData\Local\Temp\cczoATpL.s 			page 8


 265:Generated_Source\PSoC5/I2CINT_ISR.c **** * Return:
 266:Generated_Source\PSoC5/I2CINT_ISR.c **** *   None
 267:Generated_Source\PSoC5/I2CINT_ISR.c **** *
 268:Generated_Source\PSoC5/I2CINT_ISR.c **** *******************************************************************************/
 269:Generated_Source\PSoC5/I2CINT_ISR.c **** void I2CINT_ISR_SetPriority(uint8 priority)
 270:Generated_Source\PSoC5/I2CINT_ISR.c **** {
 136              		.loc 1 270 0
 137              		.cfi_startproc
 138              		@ args = 0, pretend = 0, frame = 0
 139              		@ frame_needed = 0, uses_anonymous_args = 0
 140              		@ link register save eliminated.
 141              	.LVL10:
 271:Generated_Source\PSoC5/I2CINT_ISR.c ****     *I2CINT_ISR_INTC_PRIOR = priority << 5;
 142              		.loc 1 271 0
 143 0000 4001     		lsls	r0, r0, #5
 144              	.LVL11:
 145 0002 C0B2     		uxtb	r0, r0
 146 0004 014B     		ldr	r3, .L10
 147 0006 1870     		strb	r0, [r3]
 148 0008 7047     		bx	lr
 149              	.L11:
 150 000a 00BF     		.align	2
 151              	.L10:
 152 000c 00E400E0 		.word	-536812544
 153              		.cfi_endproc
 154              	.LFE69:
 155              		.size	I2CINT_ISR_SetPriority, .-I2CINT_ISR_SetPriority
 156              		.section	.text.I2CINT_ISR_GetPriority,"ax",%progbits
 157              		.align	2
 158              		.global	I2CINT_ISR_GetPriority
 159              		.thumb
 160              		.thumb_func
 161              		.type	I2CINT_ISR_GetPriority, %function
 162              	I2CINT_ISR_GetPriority:
 163              	.LFB70:
 272:Generated_Source\PSoC5/I2CINT_ISR.c **** }
 273:Generated_Source\PSoC5/I2CINT_ISR.c **** 
 274:Generated_Source\PSoC5/I2CINT_ISR.c **** 
 275:Generated_Source\PSoC5/I2CINT_ISR.c **** /*******************************************************************************
 276:Generated_Source\PSoC5/I2CINT_ISR.c **** * Function Name: I2CINT_ISR_GetPriority
 277:Generated_Source\PSoC5/I2CINT_ISR.c **** ********************************************************************************
 278:Generated_Source\PSoC5/I2CINT_ISR.c **** *
 279:Generated_Source\PSoC5/I2CINT_ISR.c **** * Summary:
 280:Generated_Source\PSoC5/I2CINT_ISR.c **** *   Gets the Priority of the Interrupt.
 281:Generated_Source\PSoC5/I2CINT_ISR.c **** *
 282:Generated_Source\PSoC5/I2CINT_ISR.c **** * Parameters:
 283:Generated_Source\PSoC5/I2CINT_ISR.c **** *   None
 284:Generated_Source\PSoC5/I2CINT_ISR.c **** *
 285:Generated_Source\PSoC5/I2CINT_ISR.c **** * Return:
 286:Generated_Source\PSoC5/I2CINT_ISR.c **** *   Priority of the interrupt, 0 being the highest priority
 287:Generated_Source\PSoC5/I2CINT_ISR.c **** *    PSoC 3 and PSoC 5LP: Priority is from 0 to 7.
 288:Generated_Source\PSoC5/I2CINT_ISR.c **** *    PSoC 4: Priority is from 0 to 3.
 289:Generated_Source\PSoC5/I2CINT_ISR.c **** *
 290:Generated_Source\PSoC5/I2CINT_ISR.c **** *******************************************************************************/
 291:Generated_Source\PSoC5/I2CINT_ISR.c **** uint8 I2CINT_ISR_GetPriority(void)
 292:Generated_Source\PSoC5/I2CINT_ISR.c **** {
 164              		.loc 1 292 0
ARM GAS  C:\Users\HPz420\AppData\Local\Temp\cczoATpL.s 			page 9


 165              		.cfi_startproc
 166              		@ args = 0, pretend = 0, frame = 0
 167              		@ frame_needed = 0, uses_anonymous_args = 0
 168              		@ link register save eliminated.
 293:Generated_Source\PSoC5/I2CINT_ISR.c ****     uint8 priority;
 294:Generated_Source\PSoC5/I2CINT_ISR.c **** 
 295:Generated_Source\PSoC5/I2CINT_ISR.c **** 
 296:Generated_Source\PSoC5/I2CINT_ISR.c ****     priority = *I2CINT_ISR_INTC_PRIOR >> 5;
 169              		.loc 1 296 0
 170 0000 014B     		ldr	r3, .L13
 171 0002 1878     		ldrb	r0, [r3]	@ zero_extendqisi2
 172              	.LVL12:
 297:Generated_Source\PSoC5/I2CINT_ISR.c **** 
 298:Generated_Source\PSoC5/I2CINT_ISR.c ****     return priority;
 299:Generated_Source\PSoC5/I2CINT_ISR.c **** }
 173              		.loc 1 299 0
 174 0004 4009     		lsrs	r0, r0, #5
 175              	.LVL13:
 176 0006 7047     		bx	lr
 177              	.L14:
 178              		.align	2
 179              	.L13:
 180 0008 00E400E0 		.word	-536812544
 181              		.cfi_endproc
 182              	.LFE70:
 183              		.size	I2CINT_ISR_GetPriority, .-I2CINT_ISR_GetPriority
 184              		.section	.text.I2CINT_ISR_Enable,"ax",%progbits
 185              		.align	2
 186              		.global	I2CINT_ISR_Enable
 187              		.thumb
 188              		.thumb_func
 189              		.type	I2CINT_ISR_Enable, %function
 190              	I2CINT_ISR_Enable:
 191              	.LFB71:
 300:Generated_Source\PSoC5/I2CINT_ISR.c **** 
 301:Generated_Source\PSoC5/I2CINT_ISR.c **** 
 302:Generated_Source\PSoC5/I2CINT_ISR.c **** /*******************************************************************************
 303:Generated_Source\PSoC5/I2CINT_ISR.c **** * Function Name: I2CINT_ISR_Enable
 304:Generated_Source\PSoC5/I2CINT_ISR.c **** ********************************************************************************
 305:Generated_Source\PSoC5/I2CINT_ISR.c **** *
 306:Generated_Source\PSoC5/I2CINT_ISR.c **** * Summary:
 307:Generated_Source\PSoC5/I2CINT_ISR.c **** *   Enables the interrupt to the interrupt controller. Do not call this function
 308:Generated_Source\PSoC5/I2CINT_ISR.c **** *   unless ISR_Start() has been called or the functionality of the ISR_Start() 
 309:Generated_Source\PSoC5/I2CINT_ISR.c **** *   function, which sets the vector and the priority, has been called.
 310:Generated_Source\PSoC5/I2CINT_ISR.c **** *
 311:Generated_Source\PSoC5/I2CINT_ISR.c **** * Parameters:
 312:Generated_Source\PSoC5/I2CINT_ISR.c **** *   None
 313:Generated_Source\PSoC5/I2CINT_ISR.c **** *
 314:Generated_Source\PSoC5/I2CINT_ISR.c **** * Return:
 315:Generated_Source\PSoC5/I2CINT_ISR.c **** *   None
 316:Generated_Source\PSoC5/I2CINT_ISR.c **** *
 317:Generated_Source\PSoC5/I2CINT_ISR.c **** *******************************************************************************/
 318:Generated_Source\PSoC5/I2CINT_ISR.c **** void I2CINT_ISR_Enable(void)
 319:Generated_Source\PSoC5/I2CINT_ISR.c **** {
 192              		.loc 1 319 0
 193              		.cfi_startproc
 194              		@ args = 0, pretend = 0, frame = 0
ARM GAS  C:\Users\HPz420\AppData\Local\Temp\cczoATpL.s 			page 10


 195              		@ frame_needed = 0, uses_anonymous_args = 0
 196              		@ link register save eliminated.
 320:Generated_Source\PSoC5/I2CINT_ISR.c ****     /* Enable the general interrupt. */
 321:Generated_Source\PSoC5/I2CINT_ISR.c ****     *I2CINT_ISR_INTC_SET_EN = I2CINT_ISR__INTC_MASK;
 197              		.loc 1 321 0
 198 0000 0122     		movs	r2, #1
 199 0002 014B     		ldr	r3, .L16
 200 0004 1A60     		str	r2, [r3]
 201 0006 7047     		bx	lr
 202              	.L17:
 203              		.align	2
 204              	.L16:
 205 0008 00E100E0 		.word	-536813312
 206              		.cfi_endproc
 207              	.LFE71:
 208              		.size	I2CINT_ISR_Enable, .-I2CINT_ISR_Enable
 209              		.section	.text.I2CINT_ISR_GetState,"ax",%progbits
 210              		.align	2
 211              		.global	I2CINT_ISR_GetState
 212              		.thumb
 213              		.thumb_func
 214              		.type	I2CINT_ISR_GetState, %function
 215              	I2CINT_ISR_GetState:
 216              	.LFB72:
 322:Generated_Source\PSoC5/I2CINT_ISR.c **** }
 323:Generated_Source\PSoC5/I2CINT_ISR.c **** 
 324:Generated_Source\PSoC5/I2CINT_ISR.c **** 
 325:Generated_Source\PSoC5/I2CINT_ISR.c **** /*******************************************************************************
 326:Generated_Source\PSoC5/I2CINT_ISR.c **** * Function Name: I2CINT_ISR_GetState
 327:Generated_Source\PSoC5/I2CINT_ISR.c **** ********************************************************************************
 328:Generated_Source\PSoC5/I2CINT_ISR.c **** *
 329:Generated_Source\PSoC5/I2CINT_ISR.c **** * Summary:
 330:Generated_Source\PSoC5/I2CINT_ISR.c **** *   Gets the state (enabled, disabled) of the Interrupt.
 331:Generated_Source\PSoC5/I2CINT_ISR.c **** *
 332:Generated_Source\PSoC5/I2CINT_ISR.c **** * Parameters:
 333:Generated_Source\PSoC5/I2CINT_ISR.c **** *   None
 334:Generated_Source\PSoC5/I2CINT_ISR.c **** *
 335:Generated_Source\PSoC5/I2CINT_ISR.c **** * Return:
 336:Generated_Source\PSoC5/I2CINT_ISR.c **** *   1 if enabled, 0 if disabled.
 337:Generated_Source\PSoC5/I2CINT_ISR.c **** *
 338:Generated_Source\PSoC5/I2CINT_ISR.c **** *******************************************************************************/
 339:Generated_Source\PSoC5/I2CINT_ISR.c **** uint8 I2CINT_ISR_GetState(void)
 340:Generated_Source\PSoC5/I2CINT_ISR.c **** {
 217              		.loc 1 340 0
 218              		.cfi_startproc
 219              		@ args = 0, pretend = 0, frame = 0
 220              		@ frame_needed = 0, uses_anonymous_args = 0
 221              		@ link register save eliminated.
 341:Generated_Source\PSoC5/I2CINT_ISR.c ****     /* Get the state of the general interrupt. */
 342:Generated_Source\PSoC5/I2CINT_ISR.c ****     return ((*I2CINT_ISR_INTC_SET_EN & (uint32)I2CINT_ISR__INTC_MASK) != 0u) ? 1u:0u;
 222              		.loc 1 342 0
 223 0000 024B     		ldr	r3, .L19
 224 0002 1868     		ldr	r0, [r3]
 343:Generated_Source\PSoC5/I2CINT_ISR.c **** }
 225              		.loc 1 343 0
 226 0004 00F00100 		and	r0, r0, #1
 227 0008 7047     		bx	lr
ARM GAS  C:\Users\HPz420\AppData\Local\Temp\cczoATpL.s 			page 11


 228              	.L20:
 229 000a 00BF     		.align	2
 230              	.L19:
 231 000c 00E100E0 		.word	-536813312
 232              		.cfi_endproc
 233              	.LFE72:
 234              		.size	I2CINT_ISR_GetState, .-I2CINT_ISR_GetState
 235              		.section	.text.I2CINT_ISR_Disable,"ax",%progbits
 236              		.align	2
 237              		.global	I2CINT_ISR_Disable
 238              		.thumb
 239              		.thumb_func
 240              		.type	I2CINT_ISR_Disable, %function
 241              	I2CINT_ISR_Disable:
 242              	.LFB73:
 344:Generated_Source\PSoC5/I2CINT_ISR.c **** 
 345:Generated_Source\PSoC5/I2CINT_ISR.c **** 
 346:Generated_Source\PSoC5/I2CINT_ISR.c **** /*******************************************************************************
 347:Generated_Source\PSoC5/I2CINT_ISR.c **** * Function Name: I2CINT_ISR_Disable
 348:Generated_Source\PSoC5/I2CINT_ISR.c **** ********************************************************************************
 349:Generated_Source\PSoC5/I2CINT_ISR.c **** *
 350:Generated_Source\PSoC5/I2CINT_ISR.c **** * Summary:
 351:Generated_Source\PSoC5/I2CINT_ISR.c **** *   Disables the Interrupt in the interrupt controller.
 352:Generated_Source\PSoC5/I2CINT_ISR.c **** *
 353:Generated_Source\PSoC5/I2CINT_ISR.c **** * Parameters:
 354:Generated_Source\PSoC5/I2CINT_ISR.c **** *   None
 355:Generated_Source\PSoC5/I2CINT_ISR.c **** *
 356:Generated_Source\PSoC5/I2CINT_ISR.c **** * Return:
 357:Generated_Source\PSoC5/I2CINT_ISR.c **** *   None
 358:Generated_Source\PSoC5/I2CINT_ISR.c **** *
 359:Generated_Source\PSoC5/I2CINT_ISR.c **** *******************************************************************************/
 360:Generated_Source\PSoC5/I2CINT_ISR.c **** void I2CINT_ISR_Disable(void)
 361:Generated_Source\PSoC5/I2CINT_ISR.c **** {
 243              		.loc 1 361 0
 244              		.cfi_startproc
 245              		@ args = 0, pretend = 0, frame = 0
 246              		@ frame_needed = 0, uses_anonymous_args = 0
 247              		@ link register save eliminated.
 362:Generated_Source\PSoC5/I2CINT_ISR.c ****     /* Disable the general interrupt. */
 363:Generated_Source\PSoC5/I2CINT_ISR.c ****     *I2CINT_ISR_INTC_CLR_EN = I2CINT_ISR__INTC_MASK;
 248              		.loc 1 363 0
 249 0000 0122     		movs	r2, #1
 250 0002 014B     		ldr	r3, .L22
 251 0004 1A60     		str	r2, [r3]
 252 0006 7047     		bx	lr
 253              	.L23:
 254              		.align	2
 255              	.L22:
 256 0008 80E100E0 		.word	-536813184
 257              		.cfi_endproc
 258              	.LFE73:
 259              		.size	I2CINT_ISR_Disable, .-I2CINT_ISR_Disable
 260              		.section	.text.I2CINT_ISR_Start,"ax",%progbits
 261              		.align	2
 262              		.global	I2CINT_ISR_Start
 263              		.thumb
 264              		.thumb_func
ARM GAS  C:\Users\HPz420\AppData\Local\Temp\cczoATpL.s 			page 12


 265              		.type	I2CINT_ISR_Start, %function
 266              	I2CINT_ISR_Start:
 267              	.LFB63:
  63:Generated_Source\PSoC5/I2CINT_ISR.c ****     /* For all we know the interrupt is active. */
 268              		.loc 1 63 0
 269              		.cfi_startproc
 270              		@ args = 0, pretend = 0, frame = 0
 271              		@ frame_needed = 0, uses_anonymous_args = 0
 272 0000 08B5     		push	{r3, lr}
 273              		.cfi_def_cfa_offset 8
 274              		.cfi_offset 3, -8
 275              		.cfi_offset 14, -4
  65:Generated_Source\PSoC5/I2CINT_ISR.c **** 
 276              		.loc 1 65 0
 277 0002 FFF7FEFF 		bl	I2CINT_ISR_Disable
 278              	.LVL14:
  68:Generated_Source\PSoC5/I2CINT_ISR.c **** 
 279              		.loc 1 68 0
 280 0006 0448     		ldr	r0, .L26
 281 0008 FFF7FEFF 		bl	I2CINT_ISR_SetVector
 282              	.LVL15:
  71:Generated_Source\PSoC5/I2CINT_ISR.c **** 
 283              		.loc 1 71 0
 284 000c 0720     		movs	r0, #7
 285 000e FFF7FEFF 		bl	I2CINT_ISR_SetPriority
 286              	.LVL16:
  74:Generated_Source\PSoC5/I2CINT_ISR.c **** }
 287              		.loc 1 74 0
 288 0012 FFF7FEFF 		bl	I2CINT_ISR_Enable
 289              	.LVL17:
 290 0016 08BD     		pop	{r3, pc}
 291              	.L27:
 292              		.align	2
 293              	.L26:
 294 0018 00000000 		.word	I2CINT_ISR_Interrupt
 295              		.cfi_endproc
 296              	.LFE63:
 297              		.size	I2CINT_ISR_Start, .-I2CINT_ISR_Start
 298              		.section	.text.I2CINT_ISR_StartEx,"ax",%progbits
 299              		.align	2
 300              		.global	I2CINT_ISR_StartEx
 301              		.thumb
 302              		.thumb_func
 303              		.type	I2CINT_ISR_StartEx, %function
 304              	I2CINT_ISR_StartEx:
 305              	.LFB64:
 106:Generated_Source\PSoC5/I2CINT_ISR.c ****     /* For all we know the interrupt is active. */
 306              		.loc 1 106 0
 307              		.cfi_startproc
 308              		@ args = 0, pretend = 0, frame = 0
 309              		@ frame_needed = 0, uses_anonymous_args = 0
 310              	.LVL18:
 311 0000 10B5     		push	{r4, lr}
 312              		.cfi_def_cfa_offset 8
 313              		.cfi_offset 4, -8
 314              		.cfi_offset 14, -4
 315 0002 0446     		mov	r4, r0
ARM GAS  C:\Users\HPz420\AppData\Local\Temp\cczoATpL.s 			page 13


 108:Generated_Source\PSoC5/I2CINT_ISR.c **** 
 316              		.loc 1 108 0
 317 0004 FFF7FEFF 		bl	I2CINT_ISR_Disable
 318              	.LVL19:
 111:Generated_Source\PSoC5/I2CINT_ISR.c **** 
 319              		.loc 1 111 0
 320 0008 2046     		mov	r0, r4
 321 000a FFF7FEFF 		bl	I2CINT_ISR_SetVector
 322              	.LVL20:
 114:Generated_Source\PSoC5/I2CINT_ISR.c **** 
 323              		.loc 1 114 0
 324 000e 0720     		movs	r0, #7
 325 0010 FFF7FEFF 		bl	I2CINT_ISR_SetPriority
 326              	.LVL21:
 117:Generated_Source\PSoC5/I2CINT_ISR.c **** }
 327              		.loc 1 117 0
 328 0014 FFF7FEFF 		bl	I2CINT_ISR_Enable
 329              	.LVL22:
 330 0018 10BD     		pop	{r4, pc}
 331              		.cfi_endproc
 332              	.LFE64:
 333              		.size	I2CINT_ISR_StartEx, .-I2CINT_ISR_StartEx
 334 001a 00BF     		.section	.text.I2CINT_ISR_Stop,"ax",%progbits
 335              		.align	2
 336              		.global	I2CINT_ISR_Stop
 337              		.thumb
 338              		.thumb_func
 339              		.type	I2CINT_ISR_Stop, %function
 340              	I2CINT_ISR_Stop:
 341              	.LFB65:
 136:Generated_Source\PSoC5/I2CINT_ISR.c ****     /* Disable this interrupt. */
 342              		.loc 1 136 0
 343              		.cfi_startproc
 344              		@ args = 0, pretend = 0, frame = 0
 345              		@ frame_needed = 0, uses_anonymous_args = 0
 346 0000 08B5     		push	{r3, lr}
 347              		.cfi_def_cfa_offset 8
 348              		.cfi_offset 3, -8
 349              		.cfi_offset 14, -4
 138:Generated_Source\PSoC5/I2CINT_ISR.c **** 
 350              		.loc 1 138 0
 351 0002 FFF7FEFF 		bl	I2CINT_ISR_Disable
 352              	.LVL23:
 141:Generated_Source\PSoC5/I2CINT_ISR.c **** }
 353              		.loc 1 141 0
 354 0006 0248     		ldr	r0, .L32
 355 0008 FFF7FEFF 		bl	I2CINT_ISR_SetVector
 356              	.LVL24:
 357 000c 08BD     		pop	{r3, pc}
 358              	.L33:
 359 000e 00BF     		.align	2
 360              	.L32:
 361 0010 00000000 		.word	IntDefaultHandler
 362              		.cfi_endproc
 363              	.LFE65:
 364              		.size	I2CINT_ISR_Stop, .-I2CINT_ISR_Stop
 365              		.section	.text.I2CINT_ISR_SetPending,"ax",%progbits
ARM GAS  C:\Users\HPz420\AppData\Local\Temp\cczoATpL.s 			page 14


 366              		.align	2
 367              		.global	I2CINT_ISR_SetPending
 368              		.thumb
 369              		.thumb_func
 370              		.type	I2CINT_ISR_SetPending, %function
 371              	I2CINT_ISR_SetPending:
 372              	.LFB74:
 364:Generated_Source\PSoC5/I2CINT_ISR.c **** }
 365:Generated_Source\PSoC5/I2CINT_ISR.c **** 
 366:Generated_Source\PSoC5/I2CINT_ISR.c **** 
 367:Generated_Source\PSoC5/I2CINT_ISR.c **** /*******************************************************************************
 368:Generated_Source\PSoC5/I2CINT_ISR.c **** * Function Name: I2CINT_ISR_SetPending
 369:Generated_Source\PSoC5/I2CINT_ISR.c **** ********************************************************************************
 370:Generated_Source\PSoC5/I2CINT_ISR.c **** *
 371:Generated_Source\PSoC5/I2CINT_ISR.c **** * Summary:
 372:Generated_Source\PSoC5/I2CINT_ISR.c **** *   Causes the Interrupt to enter the pending state, a software method of
 373:Generated_Source\PSoC5/I2CINT_ISR.c **** *   generating the interrupt.
 374:Generated_Source\PSoC5/I2CINT_ISR.c **** *
 375:Generated_Source\PSoC5/I2CINT_ISR.c **** * Parameters:
 376:Generated_Source\PSoC5/I2CINT_ISR.c **** *   None
 377:Generated_Source\PSoC5/I2CINT_ISR.c **** *
 378:Generated_Source\PSoC5/I2CINT_ISR.c **** * Return:
 379:Generated_Source\PSoC5/I2CINT_ISR.c **** *   None
 380:Generated_Source\PSoC5/I2CINT_ISR.c **** *
 381:Generated_Source\PSoC5/I2CINT_ISR.c **** * Side Effects:
 382:Generated_Source\PSoC5/I2CINT_ISR.c **** *   If interrupts are enabled and the interrupt is set up properly, the ISR is
 383:Generated_Source\PSoC5/I2CINT_ISR.c **** *   entered (depending on the priority of this interrupt and other pending 
 384:Generated_Source\PSoC5/I2CINT_ISR.c **** *   interrupts).
 385:Generated_Source\PSoC5/I2CINT_ISR.c **** *
 386:Generated_Source\PSoC5/I2CINT_ISR.c **** *******************************************************************************/
 387:Generated_Source\PSoC5/I2CINT_ISR.c **** void I2CINT_ISR_SetPending(void)
 388:Generated_Source\PSoC5/I2CINT_ISR.c **** {
 373              		.loc 1 388 0
 374              		.cfi_startproc
 375              		@ args = 0, pretend = 0, frame = 0
 376              		@ frame_needed = 0, uses_anonymous_args = 0
 377              		@ link register save eliminated.
 389:Generated_Source\PSoC5/I2CINT_ISR.c ****     *I2CINT_ISR_INTC_SET_PD = I2CINT_ISR__INTC_MASK;
 378              		.loc 1 389 0
 379 0000 0122     		movs	r2, #1
 380 0002 014B     		ldr	r3, .L35
 381 0004 1A60     		str	r2, [r3]
 382 0006 7047     		bx	lr
 383              	.L36:
 384              		.align	2
 385              	.L35:
 386 0008 00E200E0 		.word	-536813056
 387              		.cfi_endproc
 388              	.LFE74:
 389              		.size	I2CINT_ISR_SetPending, .-I2CINT_ISR_SetPending
 390              		.section	.text.I2CINT_ISR_ClearPending,"ax",%progbits
 391              		.align	2
 392              		.global	I2CINT_ISR_ClearPending
 393              		.thumb
 394              		.thumb_func
 395              		.type	I2CINT_ISR_ClearPending, %function
 396              	I2CINT_ISR_ClearPending:
ARM GAS  C:\Users\HPz420\AppData\Local\Temp\cczoATpL.s 			page 15


 397              	.LFB75:
 390:Generated_Source\PSoC5/I2CINT_ISR.c **** }
 391:Generated_Source\PSoC5/I2CINT_ISR.c **** 
 392:Generated_Source\PSoC5/I2CINT_ISR.c **** 
 393:Generated_Source\PSoC5/I2CINT_ISR.c **** /*******************************************************************************
 394:Generated_Source\PSoC5/I2CINT_ISR.c **** * Function Name: I2CINT_ISR_ClearPending
 395:Generated_Source\PSoC5/I2CINT_ISR.c **** ********************************************************************************
 396:Generated_Source\PSoC5/I2CINT_ISR.c **** *
 397:Generated_Source\PSoC5/I2CINT_ISR.c **** * Summary:
 398:Generated_Source\PSoC5/I2CINT_ISR.c **** *   Clears a pending interrupt in the interrupt controller.
 399:Generated_Source\PSoC5/I2CINT_ISR.c **** *
 400:Generated_Source\PSoC5/I2CINT_ISR.c **** *   Note Some interrupt sources are clear-on-read and require the block 
 401:Generated_Source\PSoC5/I2CINT_ISR.c **** *   interrupt/status register to be read/cleared with the appropriate block API 
 402:Generated_Source\PSoC5/I2CINT_ISR.c **** *   (GPIO, UART, and so on). Otherwise the ISR will continue to remain in 
 403:Generated_Source\PSoC5/I2CINT_ISR.c **** *   pending state even though the interrupt itself is cleared using this API.
 404:Generated_Source\PSoC5/I2CINT_ISR.c **** *
 405:Generated_Source\PSoC5/I2CINT_ISR.c **** * Parameters:
 406:Generated_Source\PSoC5/I2CINT_ISR.c **** *   None
 407:Generated_Source\PSoC5/I2CINT_ISR.c **** *
 408:Generated_Source\PSoC5/I2CINT_ISR.c **** * Return:
 409:Generated_Source\PSoC5/I2CINT_ISR.c **** *   None
 410:Generated_Source\PSoC5/I2CINT_ISR.c **** *
 411:Generated_Source\PSoC5/I2CINT_ISR.c **** *******************************************************************************/
 412:Generated_Source\PSoC5/I2CINT_ISR.c **** void I2CINT_ISR_ClearPending(void)
 413:Generated_Source\PSoC5/I2CINT_ISR.c **** {
 398              		.loc 1 413 0
 399              		.cfi_startproc
 400              		@ args = 0, pretend = 0, frame = 0
 401              		@ frame_needed = 0, uses_anonymous_args = 0
 402              		@ link register save eliminated.
 414:Generated_Source\PSoC5/I2CINT_ISR.c ****     *I2CINT_ISR_INTC_CLR_PD = I2CINT_ISR__INTC_MASK;
 403              		.loc 1 414 0
 404 0000 0122     		movs	r2, #1
 405 0002 014B     		ldr	r3, .L38
 406 0004 1A60     		str	r2, [r3]
 407 0006 7047     		bx	lr
 408              	.L39:
 409              		.align	2
 410              	.L38:
 411 0008 80E200E0 		.word	-536812928
 412              		.cfi_endproc
 413              	.LFE75:
 414              		.size	I2CINT_ISR_ClearPending, .-I2CINT_ISR_ClearPending
 415              		.text
 416              	.Letext0:
 417              		.file 2 "c:\\program files (x86)\\cypress\\psoc creator\\4.2\\psoc creator\\import\\gnu\\arm\\5.4.
 418              		.file 3 "c:\\program files (x86)\\cypress\\psoc creator\\4.2\\psoc creator\\import\\gnu\\arm\\5.4.
 419              		.file 4 "Generated_Source\\PSoC5/cytypes.h"
 420              		.file 5 "./FrontPanel.h"
 421              		.file 6 "Generated_Source\\PSoC5/I2C.h"
 422              		.file 7 "Generated_Source\\PSoC5/core_cm3.h"