ARM GAS  C:\Users\HPz420\AppData\Local\Temp\ccYC8MpV.s 			page 1


   1              		.syntax unified
   2              		.cpu cortex-m3
   3              		.fpu softvfp
   4              		.eabi_attribute 20, 1
   5              		.eabi_attribute 21, 1
   6              		.eabi_attribute 23, 3
   7              		.eabi_attribute 24, 1
   8              		.eabi_attribute 25, 1
   9              		.eabi_attribute 26, 1
  10              		.eabi_attribute 30, 1
  11              		.eabi_attribute 34, 1
  12              		.eabi_attribute 18, 4
  13              		.thumb
  14              		.syntax unified
  15              		.file	"main.c"
  16              		.text
  17              	.Ltext0:
  18              		.cfi_sections	.debug_frame
  19              		.section	.text.initZ80PSOC,"ax",%progbits
  20              		.align	2
  21              		.global	initZ80PSOC
  22              		.thumb
  23              		.thumb_func
  24              		.type	initZ80PSOC, %function
  25              	initZ80PSOC:
  26              	.LFB64:
  27              		.file 1 "main.c"
   1:main.c        **** /* ========================================
   2:main.c        ****  *
   3:main.c        ****  * Copyright LAND BOARDS, LLC, 2019
   4:main.c        ****  * All Rights Reserved
   5:main.c        ****  * UNPUBLISHED, LICENSED SOFTWARE.
   6:main.c        ****  *
   7:main.c        ****  * CONFIDENTIAL AND PROPRIETARY INFORMATION
   8:main.c        ****  * WHICH IS THE PROPERTY OF your company.
   9:main.c        ****  *
  10:main.c        ****  * ========================================
  11:main.c        **** */
  12:main.c        **** 
  13:main.c        **** #include "project.h"            // All of the #includes from Cypress generated Hardware APIs
  14:main.c        **** #include "stdio.h"              // sprintf needs this
  15:main.c        **** #include <Z80_PSoC_3Chips.h>    // Combination of all of the .h Source file
  16:main.c        **** 
  17:main.c        **** #define USBFS_DEVICE            (0u)
  18:main.c        **** #define USBUART_uartBuffer_SIZE (64u)
  19:main.c        **** #define LINE_STR_LENGTH         (20u)
  20:main.c        **** #define USBUART_Buffer_SIZE     (64u)
  21:main.c        **** 
  22:main.c        **** #ifdef USING_FRONT_PANEL
  23:main.c        ****     uint32 fpIntVal;
  24:main.c        **** #endif
  25:main.c        **** #ifdef USING_EXP_MCCP23017
  26:main.c        ****     uint8 pioAIntVals;
  27:main.c        ****     uint8 pioBIntVals;
  28:main.c        **** #endif
  29:main.c        **** 
  30:main.c        **** ////////////////////////////////////////////////////////////////////////////
ARM GAS  C:\Users\HPz420\AppData\Local\Temp\ccYC8MpV.s 			page 2


  31:main.c        **** // initZ80PSOC() - Initialize the PSoC for Z80 operations
  32:main.c        **** 
  33:main.c        **** uint8 initZ80PSOC(void)
  34:main.c        **** {
  28              		.loc 1 34 0
  29              		.cfi_startproc
  30              		@ args = 0, pretend = 0, frame = 0
  31              		@ frame_needed = 0, uses_anonymous_args = 0
  32 0000 10B5     		push	{r4, lr}
  33              		.cfi_def_cfa_offset 8
  34              		.cfi_offset 4, -8
  35              		.cfi_offset 14, -4
  36              	.LVL0:
  35:main.c        **** 	uint32 postVal;
  36:main.c        **** 	uint8 Z80Running = 0;
  37:main.c        ****     
  38:main.c        **** #ifdef USING_FRONT_PANEL
  39:main.c        ****     fpIntVal = 0;
  37              		.loc 1 39 0
  38 0002 0020     		movs	r0, #0
  39 0004 184B     		ldr	r3, .L5
  40 0006 1860     		str	r0, [r3]
  40:main.c        **** #endif
  41:main.c        **** 
  42:main.c        **** #ifdef USING_EXP_MCCP23017
  43:main.c        ****     pioAIntVals = 0;
  41              		.loc 1 43 0
  42 0008 184B     		ldr	r3, .L5+4
  43 000a 1870     		strb	r0, [r3]
  44:main.c        ****     pioBIntVals = 0;
  44              		.loc 1 44 0
  45 000c 184B     		ldr	r3, .L5+8
  46 000e 1870     		strb	r0, [r3]
  45:main.c        **** #endif
  46:main.c        **** 	
  47:main.c        **** 	USBUART_Start(USBFS_DEVICE, USBUART_5V_OPERATION);  // Start USBFS operation with 5-V operation.
  47              		.loc 1 47 0
  48 0010 0121     		movs	r1, #1
  49 0012 FFF7FEFF 		bl	USBUART_Start
  50              	.LVL1:
  48:main.c        ****     clearReceiveBuffer();
  51              		.loc 1 48 0
  52 0016 FFF7FEFF 		bl	clearReceiveBuffer
  53              	.LVL2:
  49:main.c        **** 
  50:main.c        ****     // Memory Map/MMU initialization
  51:main.c        ****     #ifdef USING_MEM_MAP_1
  52:main.c        **** 	    init_mem_map_1();       // Set up the address mapper
  53:main.c        ****     #endif
  54:main.c        ****         
  55:main.c        **** 	CyGlobalIntEnable;          /* Enable global interrupts. */
  54              		.loc 1 55 0
  55              		.syntax unified
  56              	@ 55 "main.c" 1
  57 001a 62B6     		CPSIE   i
  58              	@ 0 "" 2
  56:main.c        ****     
ARM GAS  C:\Users\HPz420\AppData\Local\Temp\ccYC8MpV.s 			page 3


  57:main.c        ****     // I2C_Start() if either External MPC23017 or Front Panel or both are present
  58:main.c        ****     // I2C interrupts have to be enabled prior to starting up the PIO it uses interrupts
  59:main.c        **** 	#ifdef USING_MCP23017
  60:main.c        **** 		I2C_Start();                                // Start up the I2C interface
  59              		.loc 1 60 0
  60              		.thumb
  61              		.syntax unified
  62 001c FFF7FEFF 		bl	I2C_Start
  63              	.LVL3:
  61:main.c        ****     	I2CINT_n_SetDriveMode(I2CINT_n_DM_RES_UP);  // Pull-up the I2C interrupt line
  64              		.loc 1 61 0
  65 0020 0420     		movs	r0, #4
  66 0022 FFF7FEFF 		bl	I2CINT_n_SetDriveMode
  67              	.LVL4:
  62:main.c        ****         I2CINT_ISR_Start();                         // Start up I2C interface interrupts
  68              		.loc 1 62 0
  69 0026 FFF7FEFF 		bl	I2CINT_ISR_Start
  70              	.LVL5:
  63:main.c        ****         I2CINT_ISR_Disable();
  71              		.loc 1 63 0
  72 002a FFF7FEFF 		bl	I2CINT_ISR_Disable
  73              	.LVL6:
  64:main.c        ****     	init_PIO();
  74              		.loc 1 64 0
  75 002e FFF7FEFF 		bl	init_PIO
  76              	.LVL7:
  65:main.c        **** 	#endif  
  66:main.c        ****     
  67:main.c        **** 	#ifdef USING_FRONT_PANEL
  68:main.c        ****         init_FrontPanel();
  77              		.loc 1 68 0
  78 0032 FFF7FEFF 		bl	init_FrontPanel
  79              	.LVL8:
  69:main.c        ****     #endif
  70:main.c        ****   	
  71:main.c        **** 	#ifdef USING_SDCARD
  72:main.c        **** 		SDInit();
  80              		.loc 1 72 0
  81 0036 FFF7FEFF 		bl	SDInit
  82              	.LVL9:
  73:main.c        **** 	#endif
  74:main.c        ****     	
  75:main.c        ****     #ifdef USING_RTC
  76:main.c        ****         init_Z80_RTC();
  83              		.loc 1 76 0
  84 003a FFF7FEFF 		bl	init_Z80_RTC
  85              	.LVL10:
  77:main.c        ****     #endif
  78:main.c        ****     
  79:main.c        ****     #ifdef USING_DAC
  80:main.c        ****         init_DAC();
  86              		.loc 1 80 0
  87 003e FFF7FEFF 		bl	init_DAC
  88              	.LVL11:
  81:main.c        ****     #endif
  82:main.c        ****     
  83:main.c        ****     #ifdef USING_MMU4
ARM GAS  C:\Users\HPz420\AppData\Local\Temp\ccYC8MpV.s 			page 4


  84:main.c        **** 	    init_mem_map_4();       // Set up the address mapper - will be over-written by the BIOS
  89              		.loc 1 84 0
  90 0042 FFF7FEFF 		bl	init_mem_map_4
  91              	.LVL12:
  85:main.c        ****     #endif
  86:main.c        ****     
  87:main.c        **** 	#ifdef USING_6850
  88:main.c        **** 		initM6850StatusRegister();
  92              		.loc 1 88 0
  93 0046 FFF7FEFF 		bl	initM6850StatusRegister
  94              	.LVL13:
  89:main.c        **** 	#endif
  90:main.c        **** 	
  91:main.c        ****     #ifdef USING_6850_2
  92:main.c        **** 		initM6850_2_StatusRegister();
  95              		.loc 1 92 0
  96 004a FFF7FEFF 		bl	initM6850_2_StatusRegister
  97              	.LVL14:
  93:main.c        **** 	#endif
  94:main.c        ****     
  95:main.c        **** 	// Do Power On Self Tests (POST)
  96:main.c        **** 	// SRAM POST
  97:main.c        **** 	postVal = TestSRAM();       // Run External SRAM POST
  98              		.loc 1 97 0
  99 004e FFF7FEFF 		bl	TestSRAM
 100              	.LVL15:
 101 0052 0446     		mov	r4, r0
 102              	.LVL16:
  98:main.c        **** 	PostLed(postVal+1);         // 1 blink = pass, more than 1 = fail
 103              		.loc 1 98 0
 104 0054 0130     		adds	r0, r0, #1
 105              	.LVL17:
 106 0056 FFF7FEFF 		bl	PostLed
 107              	.LVL18:
  99:main.c        **** 	if (postVal != 0)           // Halt on POST failure (could do something better here)
 108              		.loc 1 99 0
 109 005a 04B1     		cbz	r4, .L2
 110              	.L3:
 111 005c FEE7     		b	.L3
 112              	.L2:
 100:main.c        **** 		while(1);
 101:main.c        ****         
 102:main.c        ****     // Load SRAM with BIOS and/or BASIC image
 103:main.c        **** 	loadSRAM();
 113              		.loc 1 103 0
 114 005e FFF7FEFF 		bl	loadSRAM
 115              	.LVL19:
 104:main.c        **** 	
 105:main.c        **** 	// Front Panel Initialization
 106:main.c        ****     #ifdef USING_FRONT_PANEL
 107:main.c        **** 		Z80Running = runFrontPanel();            // Exits either by pressing EXitFrontPanel or RUN button
 116              		.loc 1 107 0
 117 0062 FFF7FEFF 		bl	runFrontPanel
 118              	.LVL20:
 108:main.c        ****  	#else
 109:main.c        **** 		ExtSRAMCtl_Control = 0;     // Auto Run if there's no Front Panel
 110:main.c        **** 	#endif
ARM GAS  C:\Users\HPz420\AppData\Local\Temp\ccYC8MpV.s 			page 5


 111:main.c        ****     
 112:main.c        ****     return(Z80Running);
 113:main.c        **** }
 119              		.loc 1 113 0
 120 0066 10BD     		pop	{r4, pc}
 121              	.LVL21:
 122              	.L6:
 123              		.align	2
 124              	.L5:
 125 0068 00000000 		.word	fpIntVal
 126 006c 00000000 		.word	pioAIntVals
 127 0070 00000000 		.word	pioBIntVals
 128              		.cfi_endproc
 129              	.LFE64:
 130              		.size	initZ80PSOC, .-initZ80PSOC
 131              		.section	.text.main,"ax",%progbits
 132              		.align	2
 133              		.global	main
 134              		.thumb
 135              		.thumb_func
 136              		.type	main, %function
 137              	main:
 138              	.LFB65:
 114:main.c        **** 
 115:main.c        **** ////////////////////////////////////////////////////////////////////////////
 116:main.c        **** // main() - Setup and Loop code goes in here
 117:main.c        **** 
 118:main.c        **** int main(void)
 119:main.c        **** {
 139              		.loc 1 119 0
 140              		.cfi_startproc
 141              		@ args = 0, pretend = 0, frame = 144
 142              		@ frame_needed = 0, uses_anonymous_args = 0
 143 0000 30B5     		push	{r4, r5, lr}
 144              		.cfi_def_cfa_offset 12
 145              		.cfi_offset 4, -12
 146              		.cfi_offset 5, -8
 147              		.cfi_offset 14, -4
 148 0002 A5B0     		sub	sp, sp, #148
 149              		.cfi_def_cfa_offset 160
 150              	.LVL22:
 120:main.c        **** 	uint16 USB_To_Z80_RxBytes_count = 0;    
 121:main.c        **** 	uint8 inBuffer[USBUART_Buffer_SIZE];
 122:main.c        **** 	uint8 uartReadBuffer[USBUART_uartBuffer_SIZE];
 123:main.c        ****     uint16 uartReadBufferOff = 0;
 124:main.c        **** 	uint8 Z80Running;
 125:main.c        **** 	uint16 inCount;
 126:main.c        ****     uint32 sectorNumber = 0;
 127:main.c        ****     
 128:main.c        ****     Z80Running = initZ80PSOC();
 151              		.loc 1 128 0
 152 0004 FFF7FEFF 		bl	initZ80PSOC
 153              	.LVL23:
 129:main.c        ****     // Code has two loops - one for when Z80 is running with PSoC as Z80 I/O handler - other as PSo
 130:main.c        ****     if (Z80Running == 1)    // Z80 Running (RUN front panel switch pushed)
 154              		.loc 1 130 0
 155 0008 0128     		cmp	r0, #1
ARM GAS  C:\Users\HPz420\AppData\Local\Temp\ccYC8MpV.s 			page 6


 156 000a 40D1     		bne	.L30
 157 000c 0025     		movs	r5, #0
 158 000e 2C46     		mov	r4, r5
 159              	.LVL24:
 160              	.L13:
 131:main.c        **** 	{
 132:main.c        **** 		for(;;)
 133:main.c        **** 		{
 134:main.c        **** 			if (0u != USBUART_IsConfigurationChanged()) // Host can send double SET_INTERFACE request.
 161              		.loc 1 134 0
 162 0010 FFF7FEFF 		bl	USBUART_IsConfigurationChanged
 163              	.LVL25:
 164 0014 20B1     		cbz	r0, .L9
 135:main.c        **** 			{
 136:main.c        **** 				/* Initialize IN endpoints when device is configured. */
 137:main.c        **** 				if (0u != USBUART_GetConfiguration())
 165              		.loc 1 137 0
 166 0016 FFF7FEFF 		bl	USBUART_GetConfiguration
 167              	.LVL26:
 168 001a 08B1     		cbz	r0, .L9
 138:main.c        **** 				{
 139:main.c        **** 					/* Enumeration is done, enable OUT endpoint to receive data from host. */
 140:main.c        **** 					USBUART_CDC_Init();
 169              		.loc 1 140 0
 170 001c FFF7FEFF 		bl	USBUART_CDC_Init
 171              	.LVL27:
 172              	.L9:
 141:main.c        **** 				}
 142:main.c        **** 			}
 143:main.c        **** 			if (0u != USBUART_GetConfiguration())       // Service USB CDC when device is configured.
 173              		.loc 1 143 0
 174 0020 FFF7FEFF 		bl	USBUART_GetConfiguration
 175              	.LVL28:
 176 0024 B8B1     		cbz	r0, .L10
 144:main.c        **** 			{
 145:main.c        **** 				/* Check for input data from host. */
 146:main.c        **** 				/* Only do the check if the buffer is already empty */
 147:main.c        **** 				if ((0u != USBUART_DataIsReady()) & (USB_To_Z80_RxBytes_count == 0))
 177              		.loc 1 147 0
 178 0026 FFF7FEFF 		bl	USBUART_DataIsReady
 179              	.LVL29:
 180 002a 0030     		adds	r0, r0, #0
 181 002c 18BF     		it	ne
 182 002e 0120     		movne	r0, #1
 183 0030 002C     		cmp	r4, #0
 184 0032 18BF     		it	ne
 185 0034 0020     		movne	r0, #0
 186 0036 70B1     		cbz	r0, .L10
 148:main.c        **** 				{
 149:main.c        **** 					/* Read received data and re-enable OUT endpoint. */
 150:main.c        **** 					USB_To_Z80_RxBytes_count = USBUART_GetAll(uartReadBuffer);
 187              		.loc 1 150 0
 188 0038 04A8     		add	r0, sp, #16
 189 003a FFF7FEFF 		bl	USBUART_GetAll
 190              	.LVL30:
 191 003e 0446     		mov	r4, r0
 192              	.LVL31:
ARM GAS  C:\Users\HPz420\AppData\Local\Temp\ccYC8MpV.s 			page 7


 151:main.c        **** 					if ((USB_To_Z80_RxBytes_count == 1) & (checkSerialReceiverBusy() == 0))     // Input 1 charact
 193              		.loc 1 151 0
 194 0040 FFF7FEFF 		bl	checkSerialReceiverBusy
 195              	.LVL32:
 196 0044 012C     		cmp	r4, #1
 197 0046 08BF     		it	eq
 198 0048 0028     		cmpeq	r0, #0
 199 004a 04D1     		bne	.L10
 152:main.c        **** 					{
 153:main.c        **** 						sendCharToZ80(uartReadBuffer[0]);
 200              		.loc 1 153 0
 201 004c 9DF81000 		ldrb	r0, [sp, #16]	@ zero_extendqisi2
 202 0050 FFF7FEFF 		bl	sendCharToZ80
 203              	.LVL33:
 154:main.c        **** 						USB_To_Z80_RxBytes_count = 0;
 204              		.loc 1 154 0
 205 0054 0024     		movs	r4, #0
 206              	.LVL34:
 207              	.L10:
 155:main.c        **** 					}
 156:main.c        **** 				}
 157:main.c        **** 			}
 158:main.c        **** 			if (USB_To_Z80_RxBytes_count > 0)           // There are chars in the input uartReadBuffer (USB 
 208              		.loc 1 158 0
 209 0056 74B1     		cbz	r4, .L11
 159:main.c        **** 			{
 160:main.c        **** 				if (checkSerialReceiverBusy() == 0)        // Check if receive uartReadBuffer can take another 
 210              		.loc 1 160 0
 211 0058 FFF7FEFF 		bl	checkSerialReceiverBusy
 212              	.LVL35:
 213 005c 58B9     		cbnz	r0, .L11
 161:main.c        **** 				{
 162:main.c        **** 					sendCharToZ80(uartReadBuffer[uartReadBufferOff]);   // Send received character to Z80 SIO inte
 214              		.loc 1 162 0
 215 005e 24AB     		add	r3, sp, #144
 216 0060 2B44     		add	r3, r3, r5
 217 0062 13F8800C 		ldrb	r0, [r3, #-128]	@ zero_extendqisi2
 218 0066 FFF7FEFF 		bl	sendCharToZ80
 219              	.LVL36:
 163:main.c        **** 					uartReadBufferOff++;                                // ready for next character
 220              		.loc 1 163 0
 221 006a 0135     		adds	r5, r5, #1
 222              	.LVL37:
 223 006c ADB2     		uxth	r5, r5
 224              	.LVL38:
 164:main.c        **** 					USB_To_Z80_RxBytes_count--;                         // worked off one character
 225              		.loc 1 164 0
 226 006e 013C     		subs	r4, r4, #1
 227              	.LVL39:
 228 0070 A4B2     		uxth	r4, r4
 229              	.LVL40:
 165:main.c        **** 					if (USB_To_Z80_RxBytes_count == 0)                  // Sent last character to Z80
 230              		.loc 1 165 0
 231 0072 04B9     		cbnz	r4, .L11
 166:main.c        **** 					{
 167:main.c        **** 						uartReadBufferOff = 0;                          // point back to start of character in uartRe
 232              		.loc 1 167 0
ARM GAS  C:\Users\HPz420\AppData\Local\Temp\ccYC8MpV.s 			page 8


 233 0074 0025     		movs	r5, #0
 234              	.LVL41:
 235              	.L11:
 168:main.c        **** 					}
 169:main.c        **** 				}
 170:main.c        **** 			}
 171:main.c        **** 			if ((IO_Stat_Reg_Status & IOBUSY_BIT) == IOBUSY_BIT)
 236              		.loc 1 171 0
 237 0076 544B     		ldr	r3, .L33
 238 0078 1B78     		ldrb	r3, [r3]	@ zero_extendqisi2
 239 007a 13F0100F 		tst	r3, #16
 240 007e 01D0     		beq	.L12
 172:main.c        **** 			{
 173:main.c        **** 				HandleZ80IO();
 241              		.loc 1 173 0
 242 0080 FFF7FEFF 		bl	HandleZ80IO
 243              	.LVL42:
 244              	.L12:
 174:main.c        **** 			}
 175:main.c        ****             // Window for the I2C Interrupt
 176:main.c        ****             #ifdef USING_MCP23017
 177:main.c        ****                 I2CINT_ISR_Enable();
 245              		.loc 1 177 0
 246 0084 FFF7FEFF 		bl	I2CINT_ISR_Enable
 247              	.LVL43:
 178:main.c        ****                 I2CINT_ISR_Disable();
 248              		.loc 1 178 0
 249 0088 FFF7FEFF 		bl	I2CINT_ISR_Disable
 250              	.LVL44:
 179:main.c        **** 		    #endif
 180:main.c        **** 		}
 251              		.loc 1 180 0
 252 008c C0E7     		b	.L13
 253              	.LVL45:
 254              	.L30:
 255 008e 0025     		movs	r5, #0
 256              	.LVL46:
 257              	.L8:
 181:main.c        **** 	}
 182:main.c        **** 	else                    // Z80 is not running (EXFP front panel switch pushed)
 183:main.c        **** 	{
 184:main.c        **** 		while(1)
 185:main.c        **** 		{			
 186:main.c        **** 			if (0u != USBUART_IsConfigurationChanged()) // Host can send double SET_INTERFACE request
 258              		.loc 1 186 0
 259 0090 FFF7FEFF 		bl	USBUART_IsConfigurationChanged
 260              	.LVL47:
 261 0094 20B1     		cbz	r0, .L14
 187:main.c        **** 			{
 188:main.c        **** 				if (0u != USBUART_GetConfiguration())   // Initialize IN endpoints when device is configured
 262              		.loc 1 188 0
 263 0096 FFF7FEFF 		bl	USBUART_GetConfiguration
 264              	.LVL48:
 265 009a 08B1     		cbz	r0, .L14
 189:main.c        **** 				{
 190:main.c        **** 					USBUART_CDC_Init();                 // Enumeration is done, enable OUT endpoint to receive dat
 266              		.loc 1 190 0
ARM GAS  C:\Users\HPz420\AppData\Local\Temp\ccYC8MpV.s 			page 9


 267 009c FFF7FEFF 		bl	USBUART_CDC_Init
 268              	.LVL49:
 269              	.L14:
 191:main.c        **** 				}
 192:main.c        **** 			}
 193:main.c        **** 			
 194:main.c        **** 			if (0u != USBUART_GetConfiguration())       // Service USB CDC when device is configured
 270              		.loc 1 194 0
 271 00a0 FFF7FEFF 		bl	USBUART_GetConfiguration
 272              	.LVL50:
 273 00a4 0028     		cmp	r0, #0
 274 00a6 00F08980 		beq	.L15
 195:main.c        **** 			{
 196:main.c        **** 				if (0u != USBUART_DataIsReady())        // Check for input data from host
 275              		.loc 1 196 0
 276 00aa FFF7FEFF 		bl	USBUART_DataIsReady
 277              	.LVL51:
 278 00ae 0028     		cmp	r0, #0
 279 00b0 00F08480 		beq	.L15
 197:main.c        **** 				{
 198:main.c        ****     				inCount = USBUART_GetAll(inBuffer);     // Read received data and re-enable OUT endpoint
 280              		.loc 1 198 0
 281 00b4 14A8     		add	r0, sp, #80
 282 00b6 FFF7FEFF 		bl	USBUART_GetAll
 283              	.LVL52:
 284 00ba 0446     		mov	r4, r0
 285              	.LVL53:
 199:main.c        ****                     addToReceiveBuffer(inCount,inBuffer);
 286              		.loc 1 199 0
 287 00bc 14A9     		add	r1, sp, #80
 288 00be FFF7FEFF 		bl	addToReceiveBuffer
 289              	.LVL54:
 200:main.c        ****     				if (gotCRorLF == 1)
 290              		.loc 1 200 0
 291 00c2 424B     		ldr	r3, .L33+4
 292 00c4 1B78     		ldrb	r3, [r3]	@ zero_extendqisi2
 293 00c6 012B     		cmp	r3, #1
 294 00c8 78D1     		bne	.L15
 295              	.L16:
 201:main.c        ****     				{
 202:main.c        ****     					while (0u == USBUART_CDCIsReady()); // Wait until component is ready to send data to host
 296              		.loc 1 202 0 discriminator 1
 297 00ca FFF7FEFF 		bl	USBUART_CDCIsReady
 298              	.LVL55:
 299 00ce 0028     		cmp	r0, #0
 300 00d0 FBD0     		beq	.L16
 203:main.c        ****     					if ((receiveBuffer[0] == 'r') || (receiveBuffer[0] == 'R'))
 301              		.loc 1 203 0
 302 00d2 3F4B     		ldr	r3, .L33+8
 303 00d4 1B78     		ldrb	r3, [r3]	@ zero_extendqisi2
 304 00d6 722B     		cmp	r3, #114
 305 00d8 01D0     		beq	.L17
 306              		.loc 1 203 0 is_stmt 0 discriminator 1
 307 00da 522B     		cmp	r3, #82
 308 00dc 09D1     		bne	.L18
 309              	.L17:
 204:main.c        ****     					{
ARM GAS  C:\Users\HPz420\AppData\Local\Temp\ccYC8MpV.s 			page 10


 205:main.c        ****     						putStringToUSB("Read from the SD Card at 0x4000\n\r");
 310              		.loc 1 205 0 is_stmt 1
 311 00de 3D48     		ldr	r0, .L33+12
 312 00e0 FFF7FEFF 		bl	putStringToUSB
 313              	.LVL56:
 206:main.c        ****                             sectorNumber = 0x4000;
 207:main.c        ****                             readSDCard(sectorNumber);
 314              		.loc 1 207 0
 315 00e4 4FF48040 		mov	r0, #16384
 316 00e8 FFF7FEFF 		bl	readSDCard
 317              	.LVL57:
 206:main.c        ****                             sectorNumber = 0x4000;
 318              		.loc 1 206 0
 319 00ec 4FF48045 		mov	r5, #16384
 320              		.loc 1 207 0
 321 00f0 58E0     		b	.L19
 322              	.LVL58:
 323              	.L18:
 208:main.c        ****     					}
 209:main.c        ****     					else if (receiveBuffer[0] == '1')
 324              		.loc 1 209 0
 325 00f2 312B     		cmp	r3, #49
 326 00f4 07D1     		bne	.L20
 210:main.c        ****     					{
 211:main.c        ****     						putStringToUSB("Read first sector from the SD Card\n\r");
 327              		.loc 1 211 0
 328 00f6 3848     		ldr	r0, .L33+16
 329 00f8 FFF7FEFF 		bl	putStringToUSB
 330              	.LVL59:
 212:main.c        ****                             sectorNumber = 0x0;
 213:main.c        ****                             readSDCard(sectorNumber);
 331              		.loc 1 213 0
 332 00fc 0020     		movs	r0, #0
 333 00fe FFF7FEFF 		bl	readSDCard
 334              	.LVL60:
 212:main.c        ****                             sectorNumber = 0x0;
 335              		.loc 1 212 0
 336 0102 0025     		movs	r5, #0
 337 0104 4EE0     		b	.L19
 338              	.LVL61:
 339              	.L20:
 214:main.c        ****     					}
 215:main.c        ****     					else if ((receiveBuffer[0] == 'n') || (receiveBuffer[0] == 'N'))
 340              		.loc 1 215 0
 341 0106 6E2B     		cmp	r3, #110
 342 0108 01D0     		beq	.L21
 343              		.loc 1 215 0 is_stmt 0 discriminator 1
 344 010a 4E2B     		cmp	r3, #78
 345 010c 07D1     		bne	.L22
 346              	.L21:
 216:main.c        ****     					{
 217:main.c        ****     						putStringToUSB("Read next sector from the SD Card\n\r");
 347              		.loc 1 217 0 is_stmt 1
 348 010e 3348     		ldr	r0, .L33+20
 349 0110 FFF7FEFF 		bl	putStringToUSB
 350              	.LVL62:
 218:main.c        ****                             sectorNumber++;
ARM GAS  C:\Users\HPz420\AppData\Local\Temp\ccYC8MpV.s 			page 11


 351              		.loc 1 218 0
 352 0114 0135     		adds	r5, r5, #1
 353              	.LVL63:
 219:main.c        ****                             readSDCard(sectorNumber);
 354              		.loc 1 219 0
 355 0116 2846     		mov	r0, r5
 356 0118 FFF7FEFF 		bl	readSDCard
 357              	.LVL64:
 358 011c 42E0     		b	.L19
 359              	.L22:
 220:main.c        ****                             
 221:main.c        ****     					}
 222:main.c        ****     					else if ((receiveBuffer[0] == 'w') || (receiveBuffer[0] == 'W'))
 360              		.loc 1 222 0
 361 011e 772B     		cmp	r3, #119
 362 0120 01D0     		beq	.L23
 363              		.loc 1 222 0 is_stmt 0 discriminator 1
 364 0122 572B     		cmp	r3, #87
 365 0124 06D1     		bne	.L24
 366              	.L23:
 223:main.c        ****     					{
 224:main.c        ****     						putStringToUSB("Write to the SD Card at 2GB - 1 sector\n\r");
 367              		.loc 1 224 0 is_stmt 1
 368 0126 2E48     		ldr	r0, .L33+24
 369 0128 FFF7FEFF 		bl	putStringToUSB
 370              	.LVL65:
 225:main.c        ****                             writeSDCard(0x1FFFFF);
 371              		.loc 1 225 0
 372 012c 2D48     		ldr	r0, .L33+28
 373 012e FFF7FEFF 		bl	writeSDCard
 374              	.LVL66:
 375 0132 37E0     		b	.L19
 376              	.L24:
 226:main.c        ****     					}
 227:main.c        ****     					else if ((receiveBuffer[0] == 'i') || (receiveBuffer[0] == 'I'))
 377              		.loc 1 227 0
 378 0134 692B     		cmp	r3, #105
 379 0136 01D0     		beq	.L25
 380              		.loc 1 227 0 is_stmt 0 discriminator 1
 381 0138 492B     		cmp	r3, #73
 382 013a 05D1     		bne	.L26
 383              	.L25:
 228:main.c        ****     					{
 229:main.c        ****     						putStringToUSB("Initialize the SD Card\n\r");
 384              		.loc 1 229 0 is_stmt 1
 385 013c 2A48     		ldr	r0, .L33+32
 386 013e FFF7FEFF 		bl	putStringToUSB
 387              	.LVL67:
 230:main.c        ****                             SDInit();
 388              		.loc 1 230 0
 389 0142 FFF7FEFF 		bl	SDInit
 390              	.LVL68:
 391 0146 2DE0     		b	.L19
 392              	.L26:
 231:main.c        ****     					}
 232:main.c        ****     					else if ((receiveBuffer[0] == 'f') || (receiveBuffer[0] == 'F'))
 393              		.loc 1 232 0
ARM GAS  C:\Users\HPz420\AppData\Local\Temp\ccYC8MpV.s 			page 12


 394 0148 662B     		cmp	r3, #102
 395 014a 01D0     		beq	.L27
 396              		.loc 1 232 0 is_stmt 0 discriminator 1
 397 014c 462B     		cmp	r3, #70
 398 014e 11D1     		bne	.L28
 399              	.L27:
 400              	.LBB2:
 233:main.c        ****     					{
 234:main.c        ****                             char lineString[16];
 235:main.c        ****     						putStringToUSB("Front Panel Value - ");
 401              		.loc 1 235 0 is_stmt 1
 402 0150 2648     		ldr	r0, .L33+36
 403 0152 FFF7FEFF 		bl	putStringToUSB
 404              	.LVL69:
 236:main.c        ****                       		sprintf(lineString,"0x%08lx",fpIntVal);
 405              		.loc 1 236 0
 406 0156 264B     		ldr	r3, .L33+40
 407 0158 1A68     		ldr	r2, [r3]
 408 015a 2649     		ldr	r1, .L33+44
 409 015c 6846     		mov	r0, sp
 410 015e FFF7FEFF 		bl	sprintf
 411              	.LVL70:
 237:main.c        ****                             putStringToUSB(lineString);
 412              		.loc 1 237 0
 413 0162 6846     		mov	r0, sp
 414 0164 FFF7FEFF 		bl	putStringToUSB
 415              	.LVL71:
 238:main.c        ****                             putStringToUSB("\n\r");
 416              		.loc 1 238 0
 417 0168 2348     		ldr	r0, .L33+48
 418 016a FFF7FEFF 		bl	putStringToUSB
 419              	.LVL72:
 239:main.c        ****                             SDInit();
 420              		.loc 1 239 0
 421 016e FFF7FEFF 		bl	SDInit
 422              	.LVL73:
 423              	.LBE2:
 233:main.c        ****                             char lineString[16];
 424              		.loc 1 233 0
 425 0172 17E0     		b	.L19
 426              	.L28:
 240:main.c        ****     					}
 241:main.c        ****     					else
 242:main.c        ****     					{
 243:main.c        ****     						putStringToUSB("\n\rLand Boards, LLC - Z80_PSoC monitor\n\r");
 427              		.loc 1 243 0
 428 0174 2148     		ldr	r0, .L33+52
 429 0176 FFF7FEFF 		bl	putStringToUSB
 430              	.LVL74:
 244:main.c        ****     						putStringToUSB("1 - Read first sector from the SD Card\n\r");
 431              		.loc 1 244 0
 432 017a 2148     		ldr	r0, .L33+56
 433 017c FFF7FEFF 		bl	putStringToUSB
 434              	.LVL75:
 245:main.c        ****     						putStringToUSB("N - Read next sector from the SD Card\n\r");
 435              		.loc 1 245 0
 436 0180 2048     		ldr	r0, .L33+60
ARM GAS  C:\Users\HPz420\AppData\Local\Temp\ccYC8MpV.s 			page 13


 437 0182 FFF7FEFF 		bl	putStringToUSB
 438              	.LVL76:
 246:main.c        ****     						putStringToUSB("R - Read from the SD Card at 0x4000\n\r");
 439              		.loc 1 246 0
 440 0186 2048     		ldr	r0, .L33+64
 441 0188 FFF7FEFF 		bl	putStringToUSB
 442              	.LVL77:
 247:main.c        ****     						putStringToUSB("W - Write to the SD Card at 2GB - 1 sector\n\r");
 443              		.loc 1 247 0
 444 018c 1F48     		ldr	r0, .L33+68
 445 018e FFF7FEFF 		bl	putStringToUSB
 446              	.LVL78:
 248:main.c        ****     						putStringToUSB("I - Initialize SD Card\n\r");
 447              		.loc 1 248 0
 448 0192 1F48     		ldr	r0, .L33+72
 449 0194 FFF7FEFF 		bl	putStringToUSB
 450              	.LVL79:
 249:main.c        ****                             putStringToUSB("F - Read Front Panel\n\r");
 451              		.loc 1 249 0
 452 0198 1E48     		ldr	r0, .L33+76
 453 019a FFF7FEFF 		bl	putStringToUSB
 454              	.LVL80:
 250:main.c        ****     						putStringToUSB("? - Print this menu\n\r");
 455              		.loc 1 250 0
 456 019e 1E48     		ldr	r0, .L33+80
 457 01a0 FFF7FEFF 		bl	putStringToUSB
 458              	.LVL81:
 459              	.L19:
 251:main.c        ****     					}
 252:main.c        ****                         clearReceiveBuffer();
 460              		.loc 1 252 0
 461 01a4 FFF7FEFF 		bl	clearReceiveBuffer
 462              	.LVL82:
 253:main.c        ****     					/* If the last sent packet is exactly the maximum packet size, it is followed by a 
 254:main.c        ****                         zero-length packet to assure that the end of the segment is properly identi
 255:main.c        ****     					*  the terminal. */
 256:main.c        ****     					if (USBUART_Buffer_SIZE == inCount)
 463              		.loc 1 256 0
 464 01a8 402C     		cmp	r4, #64
 465 01aa 07D1     		bne	.L15
 466              	.L29:
 257:main.c        ****     					{
 258:main.c        ****     						while (0u == USBUART_CDCIsReady()); // Wait until component is ready to send data to PC		
 467              		.loc 1 258 0 discriminator 1
 468 01ac FFF7FEFF 		bl	USBUART_CDCIsReady
 469              	.LVL83:
 470 01b0 0028     		cmp	r0, #0
 471 01b2 FBD0     		beq	.L29
 259:main.c        ****     						USBUART_PutData(NULL, 0u);          // Send zero-length packet to PC
 472              		.loc 1 259 0
 473 01b4 0021     		movs	r1, #0
 474 01b6 0846     		mov	r0, r1
 475 01b8 FFF7FEFF 		bl	USBUART_PutData
 476              	.LVL84:
 477              	.L15:
 260:main.c        ****     					}
 261:main.c        ****     				}
ARM GAS  C:\Users\HPz420\AppData\Local\Temp\ccYC8MpV.s 			page 14


 262:main.c        ****     			}
 263:main.c        **** 			}
 264:main.c        ****             // Window for the I2C Interrupt
 265:main.c        ****             #ifdef USING_MCP23017
 266:main.c        ****                 I2CINT_ISR_Enable();
 478              		.loc 1 266 0
 479 01bc FFF7FEFF 		bl	I2CINT_ISR_Enable
 480              	.LVL85:
 267:main.c        ****                 I2CINT_ISR_Disable();
 481              		.loc 1 267 0
 482 01c0 FFF7FEFF 		bl	I2CINT_ISR_Disable
 483              	.LVL86:
 268:main.c        **** 		    #endif
 269:main.c        **** 		}
 484              		.loc 1 269 0
 485 01c4 64E7     		b	.L8
 486              	.L34:
 487 01c6 00BF     		.align	2
 488              	.L33:
 489 01c8 64650040 		.word	1073767780
 490 01cc 00000000 		.word	gotCRorLF
 491 01d0 00000000 		.word	receiveBuffer
 492 01d4 00000000 		.word	.LC0
 493 01d8 24000000 		.word	.LC1
 494 01dc 4C000000 		.word	.LC2
 495 01e0 70000000 		.word	.LC3
 496 01e4 FFFF1F00 		.word	2097151
 497 01e8 9C000000 		.word	.LC4
 498 01ec B8000000 		.word	.LC5
 499 01f0 00000000 		.word	fpIntVal
 500 01f4 D0000000 		.word	.LC6
 501 01f8 D8000000 		.word	.LC7
 502 01fc DC000000 		.word	.LC8
 503 0200 04010000 		.word	.LC9
 504 0204 30010000 		.word	.LC10
 505 0208 58010000 		.word	.LC11
 506 020c 80010000 		.word	.LC12
 507 0210 B0010000 		.word	.LC13
 508 0214 CC010000 		.word	.LC14
 509 0218 E4010000 		.word	.LC15
 510              		.cfi_endproc
 511              	.LFE65:
 512              		.size	main, .-main
 513              		.comm	pioBIntVals,1,1
 514              		.comm	pioAIntVals,1,1
 515              		.comm	fpIntVal,4,4
 516              		.section	.rodata.str1.4,"aMS",%progbits,1
 517              		.align	2
 518              	.LC0:
 519 0000 52656164 		.ascii	"Read from the SD Card at 0x4000\012\015\000"
 519      2066726F 
 519      6D207468 
 519      65205344 
 519      20436172 
 520 0022 0000     		.space	2
 521              	.LC1:
 522 0024 52656164 		.ascii	"Read first sector from the SD Card\012\015\000"
ARM GAS  C:\Users\HPz420\AppData\Local\Temp\ccYC8MpV.s 			page 15


 522      20666972 
 522      73742073 
 522      6563746F 
 522      72206672 
 523 0049 000000   		.space	3
 524              	.LC2:
 525 004c 52656164 		.ascii	"Read next sector from the SD Card\012\015\000"
 525      206E6578 
 525      74207365 
 525      63746F72 
 525      2066726F 
 526              	.LC3:
 527 0070 57726974 		.ascii	"Write to the SD Card at 2GB - 1 sector\012\015\000"
 527      6520746F 
 527      20746865 
 527      20534420 
 527      43617264 
 528 0099 000000   		.space	3
 529              	.LC4:
 530 009c 496E6974 		.ascii	"Initialize the SD Card\012\015\000"
 530      69616C69 
 530      7A652074 
 530      68652053 
 530      44204361 
 531 00b5 000000   		.space	3
 532              	.LC5:
 533 00b8 46726F6E 		.ascii	"Front Panel Value - \000"
 533      74205061 
 533      6E656C20 
 533      56616C75 
 533      65202D20 
 534 00cd 000000   		.space	3
 535              	.LC6:
 536 00d0 30782530 		.ascii	"0x%08lx\000"
 536      386C7800 
 537              	.LC7:
 538 00d8 0A0D00   		.ascii	"\012\015\000"
 539 00db 00       		.space	1
 540              	.LC8:
 541 00dc 0A0D4C61 		.ascii	"\012\015Land Boards, LLC - Z80_PSoC monitor\012\015"
 541      6E642042 
 541      6F617264 
 541      732C204C 
 541      4C43202D 
 542 0103 00       		.ascii	"\000"
 543              	.LC9:
 544 0104 31202D20 		.ascii	"1 - Read first sector from the SD Card\012\015\000"
 544      52656164 
 544      20666972 
 544      73742073 
 544      6563746F 
 545 012d 000000   		.space	3
 546              	.LC10:
 547 0130 4E202D20 		.ascii	"N - Read next sector from the SD Card\012\015\000"
 547      52656164 
 547      206E6578 
 547      74207365 
ARM GAS  C:\Users\HPz420\AppData\Local\Temp\ccYC8MpV.s 			page 16


 547      63746F72 
 548              	.LC11:
 549 0158 52202D20 		.ascii	"R - Read from the SD Card at 0x4000\012\015\000"
 549      52656164 
 549      2066726F 
 549      6D207468 
 549      65205344 
 550 017e 0000     		.space	2
 551              	.LC12:
 552 0180 57202D20 		.ascii	"W - Write to the SD Card at 2GB - 1 sector\012\015\000"
 552      57726974 
 552      6520746F 
 552      20746865 
 552      20534420 
 553 01ad 000000   		.space	3
 554              	.LC13:
 555 01b0 49202D20 		.ascii	"I - Initialize SD Card\012\015\000"
 555      496E6974 
 555      69616C69 
 555      7A652053 
 555      44204361 
 556 01c9 000000   		.space	3
 557              	.LC14:
 558 01cc 46202D20 		.ascii	"F - Read Front Panel\012\015\000"
 558      52656164 
 558      2046726F 
 558      6E742050 
 558      616E656C 
 559 01e3 00       		.space	1
 560              	.LC15:
 561 01e4 3F202D20 		.ascii	"? - Print this menu\012\015\000"
 561      5072696E 
 561      74207468 
 561      6973206D 
 561      656E750A 
 562              		.text
 563              	.Letext0:
 564              		.file 2 "c:\\program files (x86)\\cypress\\psoc creator\\4.2\\psoc creator\\import\\gnu\\arm\\5.4.
 565              		.file 3 "c:\\program files (x86)\\cypress\\psoc creator\\4.2\\psoc creator\\import\\gnu\\arm\\5.4.
 566              		.file 4 "Generated_Source\\PSoC5/cytypes.h"
 567              		.file 5 "Generated_Source\\PSoC5/core_cm3.h"
 568              		.file 6 "./Z80_PSoC_3Chips.h"
 569              		.file 7 "Generated_Source\\PSoC5/USBUART.h"
 570              		.file 8 "Generated_Source\\PSoC5/I2C.h"
 571              		.file 9 "Generated_Source\\PSoC5/I2CINT_n.h"
 572              		.file 10 "Generated_Source\\PSoC5/I2CINT_ISR.h"
 573              		.file 11 "./Z80_PIO_emul.h"
 574              		.file 12 "./FrontPanel.h"
 575              		.file 13 "./Z80_SDCard_Emul.h"
 576              		.file 14 "./Z80_RTC.h"
 577              		.file 15 "./Z80_DAC.h"
 578              		.file 16 "./Z80_Mem_Mappers.h"
 579              		.file 17 "./Z80_6850_Emul.h"
 580              		.file 18 "./Z80_6850_2_Emul.h"
 581              		.file 19 "./ExtSRAM.h"
 582              		.file 20 "c:\\program files (x86)\\cypress\\psoc creator\\4.2\\psoc creator\\import\\gnu\\arm\\5.4
 583              		.file 21 "Generated_Source\\PSoC5/USBUART_cdc.h"
ARM GAS  C:\Users\HPz420\AppData\Local\Temp\ccYC8MpV.s 			page 17


 584              		.file 22 "./Z80_IO_Handle.h"
 585              		.file 23 "./SDCard.h"