ARM GAS  C:\Users\HPz420\AppData\Local\Temp\ccbRsaMu.s 			page 1


   1              		.syntax unified
   2              		.cpu cortex-m3
   3              		.fpu softvfp
   4              		.eabi_attribute 20, 1
   5              		.eabi_attribute 21, 1
   6              		.eabi_attribute 23, 3
   7              		.eabi_attribute 24, 1
   8              		.eabi_attribute 25, 1
   9              		.eabi_attribute 26, 1
  10              		.eabi_attribute 30, 1
  11              		.eabi_attribute 34, 1
  12              		.eabi_attribute 18, 4
  13              		.thumb
  14              		.syntax unified
  15              		.file	"MCP23017.c"
  16              		.text
  17              	.Ltext0:
  18              		.cfi_sections	.debug_frame
  19              		.section	.text.readRegister_MCP23017,"ax",%progbits
  20              		.align	2
  21              		.global	readRegister_MCP23017
  22              		.thumb
  23              		.thumb_func
  24              		.type	readRegister_MCP23017, %function
  25              	readRegister_MCP23017:
  26              	.LFB63:
  27              		.file 1 "MCP23017.c"
   1:MCP23017.c    **** /* ========================================
   2:MCP23017.c    ****  *
   3:MCP23017.c    ****  * Copyright YOUR COMPANY, THE YEAR
   4:MCP23017.c    ****  * All Rights Reserved
   5:MCP23017.c    ****  * UNPUBLISHED, LICENSED SOFTWARE.
   6:MCP23017.c    ****  *
   7:MCP23017.c    ****  * CONFIDENTIAL AND PROPRIETARY INFORMATION
   8:MCP23017.c    ****  * WHICH IS THE PROPERTY OF your company.
   9:MCP23017.c    ****  *
  10:MCP23017.c    ****  * ========================================
  11:MCP23017.c    **** */
  12:MCP23017.c    **** 
  13:MCP23017.c    **** #include <project.h>
  14:MCP23017.c    **** #include <Z80_PSoC_3Chips.h>
  15:MCP23017.c    **** 
  16:MCP23017.c    **** 
  17:MCP23017.c    **** //////////////////////////////////////////////////////////////////////////////////////
  18:MCP23017.c    **** // I2C Low Level Hardware access functions
  19:MCP23017.c    **** 
  20:MCP23017.c    **** //////////////////////////////////////////////////////////////////////////////////////
  21:MCP23017.c    **** // uint8 readRegister_MCP23017(uint8 chipAddr, uint8 ctrlAdr) - Read MCP23017 register
  22:MCP23017.c    **** //////////////////////////////////////////////////////////////////////////////////////
  23:MCP23017.c    **** 
  24:MCP23017.c    **** uint8 readRegister_MCP23017(uint8 chipAddr, uint8 ctrlAdr)
  25:MCP23017.c    **** {
  28              		.loc 1 25 0
  29              		.cfi_startproc
  30              		@ args = 0, pretend = 0, frame = 0
  31              		@ frame_needed = 0, uses_anonymous_args = 0
  32              	.LVL0:
ARM GAS  C:\Users\HPz420\AppData\Local\Temp\ccbRsaMu.s 			page 2


  33 0000 38B5     		push	{r3, r4, r5, lr}
  34              		.cfi_def_cfa_offset 16
  35              		.cfi_offset 3, -16
  36              		.cfi_offset 4, -12
  37              		.cfi_offset 5, -8
  38              		.cfi_offset 14, -4
  39 0002 0446     		mov	r4, r0
  40 0004 0D46     		mov	r5, r1
  26:MCP23017.c    **** 	uint8 rdBuff;
  27:MCP23017.c    **** 
  28:MCP23017.c    **** 	I2C_MasterClearStatus();
  41              		.loc 1 28 0
  42 0006 FFF7FEFF 		bl	I2C_MasterClearStatus
  43              	.LVL1:
  29:MCP23017.c    **** 	I2C_MasterSendStart(chipAddr,I2C_WRITE_XFER_MODE);
  44              		.loc 1 29 0
  45 000a 0021     		movs	r1, #0
  46 000c 2046     		mov	r0, r4
  47 000e FFF7FEFF 		bl	I2C_MasterSendStart
  48              	.LVL2:
  30:MCP23017.c    **** 	I2C_MasterWriteByte(ctrlAdr);
  49              		.loc 1 30 0
  50 0012 2846     		mov	r0, r5
  51 0014 FFF7FEFF 		bl	I2C_MasterWriteByte
  52              	.LVL3:
  31:MCP23017.c    **** 	I2C_MasterSendStop();
  53              		.loc 1 31 0
  54 0018 FFF7FEFF 		bl	I2C_MasterSendStop
  55              	.LVL4:
  32:MCP23017.c    **** 	I2C_MasterSendStart(chipAddr,I2C_READ_XFER_MODE);
  56              		.loc 1 32 0
  57 001c 0121     		movs	r1, #1
  58 001e 2046     		mov	r0, r4
  59 0020 FFF7FEFF 		bl	I2C_MasterSendStart
  60              	.LVL5:
  33:MCP23017.c    **** 	rdBuff = I2C_MasterReadByte(I2C_NAK_DATA);
  61              		.loc 1 33 0
  62 0024 0020     		movs	r0, #0
  63 0026 FFF7FEFF 		bl	I2C_MasterReadByte
  64              	.LVL6:
  65 002a 0446     		mov	r4, r0
  66              	.LVL7:
  34:MCP23017.c    **** 	I2C_MasterSendStop();
  67              		.loc 1 34 0
  68 002c FFF7FEFF 		bl	I2C_MasterSendStop
  69              	.LVL8:
  35:MCP23017.c    **** 	I2C_MasterClearStatus();
  70              		.loc 1 35 0
  71 0030 FFF7FEFF 		bl	I2C_MasterClearStatus
  72              	.LVL9:
  36:MCP23017.c    **** 	return rdBuff;
  37:MCP23017.c    **** 
  38:MCP23017.c    **** }
  73              		.loc 1 38 0
  74 0034 2046     		mov	r0, r4
  75 0036 38BD     		pop	{r3, r4, r5, pc}
  76              		.cfi_endproc
ARM GAS  C:\Users\HPz420\AppData\Local\Temp\ccbRsaMu.s 			page 3


  77              	.LFE63:
  78              		.size	readRegister_MCP23017, .-readRegister_MCP23017
  79              		.section	.text.writeRegister_MCP23017,"ax",%progbits
  80              		.align	2
  81              		.global	writeRegister_MCP23017
  82              		.thumb
  83              		.thumb_func
  84              		.type	writeRegister_MCP23017, %function
  85              	writeRegister_MCP23017:
  86              	.LFB64:
  39:MCP23017.c    **** 
  40:MCP23017.c    **** //////////////////////////////////////////////////////////////////////////////////////
  41:MCP23017.c    **** //void writeRegister_MCP23017(uint8 chipAddr, uint8 ctrlAdr, uint8 ctrlVal) - Write
  42:MCP23017.c    **** // to an MCP23017 register
  43:MCP23017.c    **** //////////////////////////////////////////////////////////////////////////////////////
  44:MCP23017.c    **** 
  45:MCP23017.c    **** void writeRegister_MCP23017(uint8 chipAddr, uint8 ctrlAdr, uint8 ctrlVal)
  46:MCP23017.c    **** {
  87              		.loc 1 46 0
  88              		.cfi_startproc
  89              		@ args = 0, pretend = 0, frame = 8
  90              		@ frame_needed = 0, uses_anonymous_args = 0
  91              	.LVL10:
  92 0000 70B5     		push	{r4, r5, r6, lr}
  93              		.cfi_def_cfa_offset 16
  94              		.cfi_offset 4, -16
  95              		.cfi_offset 5, -12
  96              		.cfi_offset 6, -8
  97              		.cfi_offset 14, -4
  98 0002 82B0     		sub	sp, sp, #8
  99              		.cfi_def_cfa_offset 24
 100 0004 0446     		mov	r4, r0
 101 0006 0E46     		mov	r6, r1
 102 0008 1546     		mov	r5, r2
  47:MCP23017.c    **** 	uint8 MCP23017_WrBuffer[2];
  48:MCP23017.c    **** 	I2C_MasterClearStatus();
 103              		.loc 1 48 0
 104 000a FFF7FEFF 		bl	I2C_MasterClearStatus
 105              	.LVL11:
  49:MCP23017.c    **** 	MCP23017_WrBuffer[0] = ctrlAdr;
 106              		.loc 1 49 0
 107 000e 8DF80460 		strb	r6, [sp, #4]
  50:MCP23017.c    **** 	MCP23017_WrBuffer[1] = ctrlVal;
 108              		.loc 1 50 0
 109 0012 8DF80550 		strb	r5, [sp, #5]
  51:MCP23017.c    **** 	I2C_MasterWriteBuf(chipAddr, MCP23017_WrBuffer, 2, I2C_MODE_COMPLETE_XFER);
 110              		.loc 1 51 0
 111 0016 0023     		movs	r3, #0
 112 0018 0222     		movs	r2, #2
 113 001a 01A9     		add	r1, sp, #4
 114 001c 2046     		mov	r0, r4
 115 001e FFF7FEFF 		bl	I2C_MasterWriteBuf
 116              	.LVL12:
 117              	.L4:
  52:MCP23017.c    **** 	while (0u == (I2C_MasterStatus() & I2C_MSTAT_WR_CMPLT));
 118              		.loc 1 52 0 discriminator 1
 119 0022 FFF7FEFF 		bl	I2C_MasterStatus
ARM GAS  C:\Users\HPz420\AppData\Local\Temp\ccbRsaMu.s 			page 4


 120              	.LVL13:
 121 0026 10F0020F 		tst	r0, #2
 122 002a FAD0     		beq	.L4
  53:MCP23017.c    **** 	I2C_MasterClearStatus();
 123              		.loc 1 53 0
 124 002c FFF7FEFF 		bl	I2C_MasterClearStatus
 125              	.LVL14:
  54:MCP23017.c    **** }
 126              		.loc 1 54 0
 127 0030 02B0     		add	sp, sp, #8
 128              		.cfi_def_cfa_offset 16
 129              		@ sp needed
 130 0032 70BD     		pop	{r4, r5, r6, pc}
 131              		.cfi_endproc
 132              	.LFE64:
 133              		.size	writeRegister_MCP23017, .-writeRegister_MCP23017
 134              		.text
 135              	.Letext0:
 136              		.file 2 "c:\\program files (x86)\\cypress\\psoc creator\\4.4\\psoc creator\\import\\gnu\\arm\\5.4.
 137              		.file 3 "c:\\program files (x86)\\cypress\\psoc creator\\4.4\\psoc creator\\import\\gnu\\arm\\5.4.
 138              		.file 4 "Generated_Source\\PSoC5/cytypes.h"
 139              		.file 5 "Generated_Source\\PSoC5/I2C.h"
 140              		.file 6 "Generated_Source\\PSoC5/core_cm3.h"