ARM GAS  C:\Users\HPz420\AppData\Local\Temp\cce1Gm9q.s 			page 1


   1              		.syntax unified
   2              		.cpu cortex-m3
   3              		.fpu softvfp
   4              		.eabi_attribute 20, 1
   5              		.eabi_attribute 21, 1
   6              		.eabi_attribute 23, 3
   7              		.eabi_attribute 24, 1
   8              		.eabi_attribute 25, 1
   9              		.eabi_attribute 26, 1
  10              		.eabi_attribute 30, 1
  11              		.eabi_attribute 34, 1
  12              		.eabi_attribute 18, 4
  13              		.thumb
  14              		.syntax unified
  15              		.file	"RTC_1.c"
  16              		.text
  17              	.Ltext0:
  18              		.cfi_sections	.debug_frame
  19              		.section	.text.RTC_1_DayOfWeek,"ax",%progbits
  20              		.align	2
  21              		.thumb
  22              		.thumb_func
  23              		.type	RTC_1_DayOfWeek, %function
  24              	RTC_1_DayOfWeek:
  25              	.LFB39:
  26              		.file 1 "Generated_Source\\PSoC5\\RTC_1.c"
   1:Generated_Source\PSoC5/RTC_1.c **** /*******************************************************************************
   2:Generated_Source\PSoC5/RTC_1.c **** * File Name: RTC_1.c
   3:Generated_Source\PSoC5/RTC_1.c **** * Version 2.0
   4:Generated_Source\PSoC5/RTC_1.c **** *
   5:Generated_Source\PSoC5/RTC_1.c **** * Description:
   6:Generated_Source\PSoC5/RTC_1.c **** *  This file provides the source code to the API for the RTC Component.
   7:Generated_Source\PSoC5/RTC_1.c **** *
   8:Generated_Source\PSoC5/RTC_1.c **** ********************************************************************************
   9:Generated_Source\PSoC5/RTC_1.c **** * Copyright 2008-2013, Cypress Semiconductor Corporation.  All rights reserved.
  10:Generated_Source\PSoC5/RTC_1.c **** * You may use this file only in accordance with the license, terms, conditions,
  11:Generated_Source\PSoC5/RTC_1.c **** * disclaimers, and limitations in the end user license agreement accompanying
  12:Generated_Source\PSoC5/RTC_1.c **** * the software package with which this file was provided.
  13:Generated_Source\PSoC5/RTC_1.c **** *******************************************************************************/
  14:Generated_Source\PSoC5/RTC_1.c **** 
  15:Generated_Source\PSoC5/RTC_1.c **** #include "RTC_1.h"
  16:Generated_Source\PSoC5/RTC_1.c **** #include "CyLib.h"
  17:Generated_Source\PSoC5/RTC_1.c **** 
  18:Generated_Source\PSoC5/RTC_1.c **** /* Function Prototypes */
  19:Generated_Source\PSoC5/RTC_1.c **** static void  RTC_1_SetInitValues(void)     ;
  20:Generated_Source\PSoC5/RTC_1.c **** static uint8 RTC_1_DayOfWeek(uint8 dayOfMonth, uint8 month, uint16 year)
  21:Generated_Source\PSoC5/RTC_1.c ****                                                       ;
  22:Generated_Source\PSoC5/RTC_1.c **** #if (1u == RTC_1_DST_FUNC_ENABLE)
  23:Generated_Source\PSoC5/RTC_1.c ****     static void  RTC_1_DSTDateConversion(void) ;
  24:Generated_Source\PSoC5/RTC_1.c **** #endif /* 1u == RTC_1_DST_FUNC_ENABLE */
  25:Generated_Source\PSoC5/RTC_1.c **** 
  26:Generated_Source\PSoC5/RTC_1.c **** 
  27:Generated_Source\PSoC5/RTC_1.c **** /* Variables were not initialized */
  28:Generated_Source\PSoC5/RTC_1.c **** uint8 RTC_1_initVar = 0u;
  29:Generated_Source\PSoC5/RTC_1.c **** 
  30:Generated_Source\PSoC5/RTC_1.c **** /* Time and date variables
  31:Generated_Source\PSoC5/RTC_1.c **** * Initial value are: Second = 0-59, Minute = 0-59, Hour = 0-23, DayOfWeek = 1-7,
ARM GAS  C:\Users\HPz420\AppData\Local\Temp\cce1Gm9q.s 			page 2


  32:Generated_Source\PSoC5/RTC_1.c **** * DayOfMonth = 1-31, DayOfYear = 1-366, Month = 1-12, Year = 1900-2200.
  33:Generated_Source\PSoC5/RTC_1.c **** */
  34:Generated_Source\PSoC5/RTC_1.c **** RTC_1_TIME_DATE RTC_1_currentTimeDate = {0u, 0u, 0u, 1u, 1u, 1u, 1u, 1900u};
  35:Generated_Source\PSoC5/RTC_1.c **** 
  36:Generated_Source\PSoC5/RTC_1.c **** /* Alarm time and date variables
  37:Generated_Source\PSoC5/RTC_1.c **** * Initial value are: Second = 0-59, Minute = 0-59, Hour = 0-23, DayOfWeek = 1-7,
  38:Generated_Source\PSoC5/RTC_1.c **** * DayOfMonth = 1-31, DayOfYear = 1-366, Month = 1-12, Year = 1900-2200.
  39:Generated_Source\PSoC5/RTC_1.c **** */
  40:Generated_Source\PSoC5/RTC_1.c **** RTC_1_TIME_DATE RTC_1_alarmCfgTimeDate = {0u, 0u, 0u, 1u, 1u, 1u, 1u, 1900u};
  41:Generated_Source\PSoC5/RTC_1.c **** 
  42:Generated_Source\PSoC5/RTC_1.c **** #if (1u == RTC_1_DST_FUNC_ENABLE) /* DST enabled */
  43:Generated_Source\PSoC5/RTC_1.c **** 
  44:Generated_Source\PSoC5/RTC_1.c ****     /* Define DST format: '0' - fixed, '1' - relative */
  45:Generated_Source\PSoC5/RTC_1.c ****     volatile uint8 RTC_1_dstModeType = 0u;
  46:Generated_Source\PSoC5/RTC_1.c **** 
  47:Generated_Source\PSoC5/RTC_1.c ****     /* Hour 0-23, DayOfWeek 1-7, Week 1-5, DayOfMonth 1-31, Month 1-12 */
  48:Generated_Source\PSoC5/RTC_1.c ****     RTC_1_DSTIME RTC_1_dstTimeDateStart = {0u, 1u, 1u, 1u, 1u};
  49:Generated_Source\PSoC5/RTC_1.c ****     RTC_1_DSTIME RTC_1_dstTimeDateStop = {0u, 1u, 1u, 1u, 1u};
  50:Generated_Source\PSoC5/RTC_1.c **** 
  51:Generated_Source\PSoC5/RTC_1.c ****     /* Number of Hours to add/dec to time */
  52:Generated_Source\PSoC5/RTC_1.c ****     volatile uint8 RTC_1_dstOffsetMin = 0u;
  53:Generated_Source\PSoC5/RTC_1.c ****     volatile uint8 RTC_1_dstStartStatus = 0u;
  54:Generated_Source\PSoC5/RTC_1.c ****     volatile uint8 RTC_1_dstStopStatus = 0u;
  55:Generated_Source\PSoC5/RTC_1.c **** 
  56:Generated_Source\PSoC5/RTC_1.c **** #endif /* 1u == RTC_1_DST_FUNC_ENABLE*/
  57:Generated_Source\PSoC5/RTC_1.c **** 
  58:Generated_Source\PSoC5/RTC_1.c **** /* Mask Registers */
  59:Generated_Source\PSoC5/RTC_1.c **** volatile uint8 RTC_1_alarmCfgMask = 0u;
  60:Generated_Source\PSoC5/RTC_1.c **** volatile uint8 RTC_1_alarmCurStatus = 0u;
  61:Generated_Source\PSoC5/RTC_1.c **** volatile uint8 RTC_1_intervalCfgMask = 0u;
  62:Generated_Source\PSoC5/RTC_1.c **** 
  63:Generated_Source\PSoC5/RTC_1.c **** /* Status & Control Variables */
  64:Generated_Source\PSoC5/RTC_1.c **** volatile uint8 RTC_1_statusDateTime = 0u;
  65:Generated_Source\PSoC5/RTC_1.c **** 
  66:Generated_Source\PSoC5/RTC_1.c **** /* Month Day Array - number of days in the months */
  67:Generated_Source\PSoC5/RTC_1.c **** const uint8 CYCODE RTC_1_daysInMonths[RTC_1_MONTHS_IN_YEAR] = {
  68:Generated_Source\PSoC5/RTC_1.c ****     RTC_1_DAYS_IN_JANUARY,
  69:Generated_Source\PSoC5/RTC_1.c ****     RTC_1_DAYS_IN_FEBRUARY,
  70:Generated_Source\PSoC5/RTC_1.c ****     RTC_1_DAYS_IN_MARCH,
  71:Generated_Source\PSoC5/RTC_1.c ****     RTC_1_DAYS_IN_APRIL,
  72:Generated_Source\PSoC5/RTC_1.c ****     RTC_1_DAYS_IN_MAY,
  73:Generated_Source\PSoC5/RTC_1.c ****     RTC_1_DAYS_IN_JUNE,
  74:Generated_Source\PSoC5/RTC_1.c ****     RTC_1_DAYS_IN_JULY,
  75:Generated_Source\PSoC5/RTC_1.c ****     RTC_1_DAYS_IN_AUGUST,
  76:Generated_Source\PSoC5/RTC_1.c ****     RTC_1_DAYS_IN_SEPTEMBER,
  77:Generated_Source\PSoC5/RTC_1.c ****     RTC_1_DAYS_IN_OCTOBER,
  78:Generated_Source\PSoC5/RTC_1.c ****     RTC_1_DAYS_IN_NOVEMBER,
  79:Generated_Source\PSoC5/RTC_1.c ****     RTC_1_DAYS_IN_DECEMBER};
  80:Generated_Source\PSoC5/RTC_1.c **** 
  81:Generated_Source\PSoC5/RTC_1.c **** 
  82:Generated_Source\PSoC5/RTC_1.c **** /*******************************************************************************
  83:Generated_Source\PSoC5/RTC_1.c **** * Function Name:   RTC_1_Start
  84:Generated_Source\PSoC5/RTC_1.c **** ********************************************************************************
  85:Generated_Source\PSoC5/RTC_1.c **** *
  86:Generated_Source\PSoC5/RTC_1.c **** * Summary:
  87:Generated_Source\PSoC5/RTC_1.c **** *  Enables RTC component: configures counter, setup interrupts, done all
  88:Generated_Source\PSoC5/RTC_1.c **** *  required calculation and starts counter.
ARM GAS  C:\Users\HPz420\AppData\Local\Temp\cce1Gm9q.s 			page 3


  89:Generated_Source\PSoC5/RTC_1.c **** *
  90:Generated_Source\PSoC5/RTC_1.c **** * Parameters:
  91:Generated_Source\PSoC5/RTC_1.c **** *  None.
  92:Generated_Source\PSoC5/RTC_1.c **** *
  93:Generated_Source\PSoC5/RTC_1.c **** * Return:
  94:Generated_Source\PSoC5/RTC_1.c **** *  None.
  95:Generated_Source\PSoC5/RTC_1.c **** *
  96:Generated_Source\PSoC5/RTC_1.c **** * Global variables:
  97:Generated_Source\PSoC5/RTC_1.c **** *  RTC_1_initVar: global variable is used to indicate initial
  98:Generated_Source\PSoC5/RTC_1.c **** *  configuration of this component.  The variable is initialized to zero and set
  99:Generated_Source\PSoC5/RTC_1.c **** *  to 1 the first time RTC_1_Start() is called. This allows for
 100:Generated_Source\PSoC5/RTC_1.c **** *  component initialization without re-initialization in all subsequent calls
 101:Generated_Source\PSoC5/RTC_1.c **** *  to the RTC_1_Start() routine.
 102:Generated_Source\PSoC5/RTC_1.c **** *
 103:Generated_Source\PSoC5/RTC_1.c **** *  RTC_1_currentTimeDate, RTC_1_dstTimeDateStart,
 104:Generated_Source\PSoC5/RTC_1.c **** *  RTC_1_dstTimeDateStop, RTC_1_dstTimeDateStart,
 105:Generated_Source\PSoC5/RTC_1.c **** *  RTC_1_alarmCfgTimeDate, RTC_1_statusDateTime,
 106:Generated_Source\PSoC5/RTC_1.c **** *  RTC_1_dstStartStatus, RTC_1_dstStopStatus,
 107:Generated_Source\PSoC5/RTC_1.c **** *  RTC_1_alarmCurStatus: global variables are modified by the
 108:Generated_Source\PSoC5/RTC_1.c **** *  functions called from RTC_1_Init().
 109:Generated_Source\PSoC5/RTC_1.c **** *
 110:Generated_Source\PSoC5/RTC_1.c **** * Reentrant:
 111:Generated_Source\PSoC5/RTC_1.c **** *  No.
 112:Generated_Source\PSoC5/RTC_1.c **** *
 113:Generated_Source\PSoC5/RTC_1.c **** * Side Effects:
 114:Generated_Source\PSoC5/RTC_1.c **** *  Enables for the one pulse per second (for the RTC component) and
 115:Generated_Source\PSoC5/RTC_1.c **** *  Central Time Wheel (for the Sleep Timer component) signals to wake up device
 116:Generated_Source\PSoC5/RTC_1.c **** *  from the low power (Sleep and Alternate Active) modes and leaves them
 117:Generated_Source\PSoC5/RTC_1.c **** *  enabled.
 118:Generated_Source\PSoC5/RTC_1.c **** *
 119:Generated_Source\PSoC5/RTC_1.c **** *  The Power Manager API has the higher priority on resource usage: it is NOT
 120:Generated_Source\PSoC5/RTC_1.c **** *  guaranteed that the Sleep Timer's configuration will be the same on exit
 121:Generated_Source\PSoC5/RTC_1.c **** *  from the Power Manager APIs as on the entry. To prevent this use the Sleep
 122:Generated_Source\PSoC5/RTC_1.c **** *  Timer's Sleep() - to save configuration and stop the component and Wakeup()
 123:Generated_Source\PSoC5/RTC_1.c **** *  function to restore configuration and enable the component.
 124:Generated_Source\PSoC5/RTC_1.c **** *
 125:Generated_Source\PSoC5/RTC_1.c **** *  The Sleep Timer and Real Time Clock (RTC) components could be configured as
 126:Generated_Source\PSoC5/RTC_1.c **** *  a wake up source from the low power modes only both at once.
 127:Generated_Source\PSoC5/RTC_1.c **** *
 128:Generated_Source\PSoC5/RTC_1.c **** *******************************************************************************/
 129:Generated_Source\PSoC5/RTC_1.c **** void RTC_1_Start(void) 
 130:Generated_Source\PSoC5/RTC_1.c **** {
 131:Generated_Source\PSoC5/RTC_1.c ****     /* Execute once in normal flow */
 132:Generated_Source\PSoC5/RTC_1.c ****     if(0u == RTC_1_initVar)
 133:Generated_Source\PSoC5/RTC_1.c ****     {
 134:Generated_Source\PSoC5/RTC_1.c ****         RTC_1_Init();
 135:Generated_Source\PSoC5/RTC_1.c ****         RTC_1_initVar = 1u;
 136:Generated_Source\PSoC5/RTC_1.c ****     }
 137:Generated_Source\PSoC5/RTC_1.c **** 
 138:Generated_Source\PSoC5/RTC_1.c ****     /* Enable component's operation */
 139:Generated_Source\PSoC5/RTC_1.c ****     RTC_1_Enable();
 140:Generated_Source\PSoC5/RTC_1.c **** }
 141:Generated_Source\PSoC5/RTC_1.c **** 
 142:Generated_Source\PSoC5/RTC_1.c **** 
 143:Generated_Source\PSoC5/RTC_1.c **** /*******************************************************************************
 144:Generated_Source\PSoC5/RTC_1.c **** * Function Name: RTC_1_Stop
 145:Generated_Source\PSoC5/RTC_1.c **** ********************************************************************************
ARM GAS  C:\Users\HPz420\AppData\Local\Temp\cce1Gm9q.s 			page 4


 146:Generated_Source\PSoC5/RTC_1.c **** *
 147:Generated_Source\PSoC5/RTC_1.c **** * Summary:
 148:Generated_Source\PSoC5/RTC_1.c **** *  Stops the RTC component.
 149:Generated_Source\PSoC5/RTC_1.c **** *
 150:Generated_Source\PSoC5/RTC_1.c **** * Parameters:
 151:Generated_Source\PSoC5/RTC_1.c **** *  None.
 152:Generated_Source\PSoC5/RTC_1.c **** *
 153:Generated_Source\PSoC5/RTC_1.c **** * Return:
 154:Generated_Source\PSoC5/RTC_1.c **** *  None.
 155:Generated_Source\PSoC5/RTC_1.c **** *
 156:Generated_Source\PSoC5/RTC_1.c **** * Side Effects:
 157:Generated_Source\PSoC5/RTC_1.c **** *  Leaves the one pulse per second (for the RTC component) and the Central Time
 158:Generated_Source\PSoC5/RTC_1.c **** *  Wheel (for the Sleep Timer component) signals to wake up device from the low
 159:Generated_Source\PSoC5/RTC_1.c **** *  power (Sleep and Alternate Active) modes enabled after Sleep Time component
 160:Generated_Source\PSoC5/RTC_1.c **** *  is stopped.
 161:Generated_Source\PSoC5/RTC_1.c **** *
 162:Generated_Source\PSoC5/RTC_1.c **** *******************************************************************************/
 163:Generated_Source\PSoC5/RTC_1.c **** void RTC_1_Stop(void) 
 164:Generated_Source\PSoC5/RTC_1.c **** {
 165:Generated_Source\PSoC5/RTC_1.c ****     uint8 interruptState;
 166:Generated_Source\PSoC5/RTC_1.c **** 
 167:Generated_Source\PSoC5/RTC_1.c ****     /* Disable the interrupt. */
 168:Generated_Source\PSoC5/RTC_1.c ****     CyIntDisable(RTC_1_ISR_NUMBER);
 169:Generated_Source\PSoC5/RTC_1.c **** 
 170:Generated_Source\PSoC5/RTC_1.c ****     /* Enter critical section */
 171:Generated_Source\PSoC5/RTC_1.c ****     interruptState = CyEnterCriticalSection();
 172:Generated_Source\PSoC5/RTC_1.c **** 
 173:Generated_Source\PSoC5/RTC_1.c ****     /* Stop one pulse per second counter and interrupt */
 174:Generated_Source\PSoC5/RTC_1.c ****     RTC_1_OPPS_CFG_REG &= (uint8)(~(RTC_1_OPPSIE_EN_MASK | RTC_1_OPPS_EN_MASK));
 175:Generated_Source\PSoC5/RTC_1.c **** 
 176:Generated_Source\PSoC5/RTC_1.c ****     /* Exit critical section */
 177:Generated_Source\PSoC5/RTC_1.c ****     CyExitCriticalSection(interruptState);
 178:Generated_Source\PSoC5/RTC_1.c **** }
 179:Generated_Source\PSoC5/RTC_1.c **** 
 180:Generated_Source\PSoC5/RTC_1.c **** 
 181:Generated_Source\PSoC5/RTC_1.c **** /*******************************************************************************
 182:Generated_Source\PSoC5/RTC_1.c **** * Function Name:   RTC_1_EnableInt
 183:Generated_Source\PSoC5/RTC_1.c **** ********************************************************************************
 184:Generated_Source\PSoC5/RTC_1.c **** *
 185:Generated_Source\PSoC5/RTC_1.c **** * Summary:
 186:Generated_Source\PSoC5/RTC_1.c **** *  Enables interrupts of RTC Component.
 187:Generated_Source\PSoC5/RTC_1.c **** *
 188:Generated_Source\PSoC5/RTC_1.c **** * Parameters:
 189:Generated_Source\PSoC5/RTC_1.c **** *  None.
 190:Generated_Source\PSoC5/RTC_1.c **** *
 191:Generated_Source\PSoC5/RTC_1.c **** * Return:
 192:Generated_Source\PSoC5/RTC_1.c **** *  None.
 193:Generated_Source\PSoC5/RTC_1.c **** *
 194:Generated_Source\PSoC5/RTC_1.c **** *******************************************************************************/
 195:Generated_Source\PSoC5/RTC_1.c **** void RTC_1_EnableInt(void) 
 196:Generated_Source\PSoC5/RTC_1.c **** {
 197:Generated_Source\PSoC5/RTC_1.c ****     /* Enable the interrupt */
 198:Generated_Source\PSoC5/RTC_1.c ****     CyIntEnable(RTC_1_ISR_NUMBER);
 199:Generated_Source\PSoC5/RTC_1.c **** }
 200:Generated_Source\PSoC5/RTC_1.c **** 
 201:Generated_Source\PSoC5/RTC_1.c **** 
 202:Generated_Source\PSoC5/RTC_1.c **** /*******************************************************************************
ARM GAS  C:\Users\HPz420\AppData\Local\Temp\cce1Gm9q.s 			page 5


 203:Generated_Source\PSoC5/RTC_1.c **** * Function Name:   RTC_1_DisableInt
 204:Generated_Source\PSoC5/RTC_1.c **** ********************************************************************************
 205:Generated_Source\PSoC5/RTC_1.c **** *
 206:Generated_Source\PSoC5/RTC_1.c **** * Summary:
 207:Generated_Source\PSoC5/RTC_1.c **** *  Disables interrupts of RTC Component, time and date stop running.
 208:Generated_Source\PSoC5/RTC_1.c **** *
 209:Generated_Source\PSoC5/RTC_1.c **** * Parameters:
 210:Generated_Source\PSoC5/RTC_1.c **** *  None.
 211:Generated_Source\PSoC5/RTC_1.c **** *
 212:Generated_Source\PSoC5/RTC_1.c **** * Return:
 213:Generated_Source\PSoC5/RTC_1.c **** *  None.
 214:Generated_Source\PSoC5/RTC_1.c **** *
 215:Generated_Source\PSoC5/RTC_1.c **** *******************************************************************************/
 216:Generated_Source\PSoC5/RTC_1.c **** void RTC_1_DisableInt(void) 
 217:Generated_Source\PSoC5/RTC_1.c **** {
 218:Generated_Source\PSoC5/RTC_1.c ****     /* Disable the interrupt. */
 219:Generated_Source\PSoC5/RTC_1.c ****     CyIntDisable(RTC_1_ISR_NUMBER);
 220:Generated_Source\PSoC5/RTC_1.c **** }
 221:Generated_Source\PSoC5/RTC_1.c **** 
 222:Generated_Source\PSoC5/RTC_1.c **** 
 223:Generated_Source\PSoC5/RTC_1.c **** #if (1u == RTC_1_DST_FUNC_ENABLE)
 224:Generated_Source\PSoC5/RTC_1.c ****     /*******************************************************************************
 225:Generated_Source\PSoC5/RTC_1.c ****     * Function Name:   RTC_1_DSTDateConversion
 226:Generated_Source\PSoC5/RTC_1.c ****     ********************************************************************************
 227:Generated_Source\PSoC5/RTC_1.c ****     *
 228:Generated_Source\PSoC5/RTC_1.c ****     * Summary:
 229:Generated_Source\PSoC5/RTC_1.c ****     * Converts relative to absolute date.
 230:Generated_Source\PSoC5/RTC_1.c ****     *
 231:Generated_Source\PSoC5/RTC_1.c ****     * Parameters:
 232:Generated_Source\PSoC5/RTC_1.c ****     *  None.
 233:Generated_Source\PSoC5/RTC_1.c ****     *
 234:Generated_Source\PSoC5/RTC_1.c ****     * Return:
 235:Generated_Source\PSoC5/RTC_1.c ****     *  None.
 236:Generated_Source\PSoC5/RTC_1.c ****     *
 237:Generated_Source\PSoC5/RTC_1.c ****     * Global variables:
 238:Generated_Source\PSoC5/RTC_1.c ****     *  RTC_1_dstTimeDateStart.Month,
 239:Generated_Source\PSoC5/RTC_1.c ****     *  RTC_1_dstTimeDateStart.DayOfWeek,
 240:Generated_Source\PSoC5/RTC_1.c ****     *  RTC_1_dstTimeDateStart.Week,
 241:Generated_Source\PSoC5/RTC_1.c ****     *  RTC_1_dstTimeDateStop.Month,
 242:Generated_Source\PSoC5/RTC_1.c ****     *  RTC_1_dstTimeDateStop.DayOfWeek,
 243:Generated_Source\PSoC5/RTC_1.c ****     *  RTC_1_dstTimeDateStop.Week,
 244:Generated_Source\PSoC5/RTC_1.c ****     *  RTC_1_currentTimeDate.Year: these global variables are
 245:Generated_Source\PSoC5/RTC_1.c ****     *  used to correct day of week.
 246:Generated_Source\PSoC5/RTC_1.c ****     *
 247:Generated_Source\PSoC5/RTC_1.c ****     *  RTC_1_dstTimeDateStart.DayOfMonth,
 248:Generated_Source\PSoC5/RTC_1.c ****     *  RTC_1_dstTimeDateStop.DayOfMonth: these global variables are
 249:Generated_Source\PSoC5/RTC_1.c ****     *  modified after convertion.
 250:Generated_Source\PSoC5/RTC_1.c ****     *
 251:Generated_Source\PSoC5/RTC_1.c ****     * Reentrant:
 252:Generated_Source\PSoC5/RTC_1.c ****     *  No.
 253:Generated_Source\PSoC5/RTC_1.c ****     *
 254:Generated_Source\PSoC5/RTC_1.c ****     *******************************************************************************/
 255:Generated_Source\PSoC5/RTC_1.c ****     static void RTC_1_DSTDateConversion(void) 
 256:Generated_Source\PSoC5/RTC_1.c ****     {
 257:Generated_Source\PSoC5/RTC_1.c ****         uint8 week = 1u;
 258:Generated_Source\PSoC5/RTC_1.c ****         uint8 day = 1u;
 259:Generated_Source\PSoC5/RTC_1.c ****         uint8 dayOfWeek;
ARM GAS  C:\Users\HPz420\AppData\Local\Temp\cce1Gm9q.s 			page 6


 260:Generated_Source\PSoC5/RTC_1.c **** 
 261:Generated_Source\PSoC5/RTC_1.c ****         /* Get day of week */
 262:Generated_Source\PSoC5/RTC_1.c ****         dayOfWeek = RTC_1_DayOfWeek(day, RTC_1_dstTimeDateStart.Month,
 263:Generated_Source\PSoC5/RTC_1.c ****                                                     RTC_1_currentTimeDate.Year) + 1u;
 264:Generated_Source\PSoC5/RTC_1.c **** 
 265:Generated_Source\PSoC5/RTC_1.c ****         #if (0u != RTC_1_START_OF_WEEK)
 266:Generated_Source\PSoC5/RTC_1.c ****         /* Normalize day of week if Start of week is not Sunday */
 267:Generated_Source\PSoC5/RTC_1.c ****         if(dayOfWeek > RTC_1_START_OF_WEEK)
 268:Generated_Source\PSoC5/RTC_1.c ****         {
 269:Generated_Source\PSoC5/RTC_1.c ****             #if (6u != RTC_1_START_OF_WEEK)
 270:Generated_Source\PSoC5/RTC_1.c ****                 /* Start of week is not Saturday  */
 271:Generated_Source\PSoC5/RTC_1.c ****                 dayOfWeek -= RTC_1_START_OF_WEEK;
 272:Generated_Source\PSoC5/RTC_1.c ****             #else /* 6u == RTC_1_START_OF_WEEK */
 273:Generated_Source\PSoC5/RTC_1.c ****                 /* Start of week is Saturday  */
 274:Generated_Source\PSoC5/RTC_1.c ****                 dayOfWeek = 1u; /* Set day of week to Monday */
 275:Generated_Source\PSoC5/RTC_1.c ****             #endif /* 6u != RTC_1_START_OF_WEEK */
 276:Generated_Source\PSoC5/RTC_1.c ****         }
 277:Generated_Source\PSoC5/RTC_1.c ****         else
 278:Generated_Source\PSoC5/RTC_1.c ****         {
 279:Generated_Source\PSoC5/RTC_1.c ****             #if (1u != RTC_1_START_OF_WEEK)
 280:Generated_Source\PSoC5/RTC_1.c ****                 /* Start of week is not Monday  */
 281:Generated_Source\PSoC5/RTC_1.c ****                 dayOfWeek = (RTC_1_DAYS_IN_WEEK - RTC_1_START_OF_WEEK) - dayOfWeek;
 282:Generated_Source\PSoC5/RTC_1.c ****             #else /* 1u == RTC_1_START_OF_WEEK */
 283:Generated_Source\PSoC5/RTC_1.c ****                 /* Start of week is Monday  */
 284:Generated_Source\PSoC5/RTC_1.c ****                 dayOfWeek = 5u; /* Set day of week to Friday */
 285:Generated_Source\PSoC5/RTC_1.c ****             #endif /* 1u != RTC_1_START_OF_WEEK */
 286:Generated_Source\PSoC5/RTC_1.c ****         }
 287:Generated_Source\PSoC5/RTC_1.c ****         #endif /* 0u != RTC_1_START_OF_WEEK */
 288:Generated_Source\PSoC5/RTC_1.c **** 
 289:Generated_Source\PSoC5/RTC_1.c ****         /* Correct if out of DST range */
 290:Generated_Source\PSoC5/RTC_1.c ****         while(dayOfWeek != RTC_1_dstTimeDateStart.DayOfWeek)
 291:Generated_Source\PSoC5/RTC_1.c ****         {
 292:Generated_Source\PSoC5/RTC_1.c ****             day++;
 293:Generated_Source\PSoC5/RTC_1.c ****             dayOfWeek++;
 294:Generated_Source\PSoC5/RTC_1.c ****             if(dayOfWeek > RTC_1_WEEK_ELAPSED)
 295:Generated_Source\PSoC5/RTC_1.c ****             {
 296:Generated_Source\PSoC5/RTC_1.c ****                 dayOfWeek = 1u;
 297:Generated_Source\PSoC5/RTC_1.c ****                 week++;
 298:Generated_Source\PSoC5/RTC_1.c ****             }
 299:Generated_Source\PSoC5/RTC_1.c ****         }
 300:Generated_Source\PSoC5/RTC_1.c **** 
 301:Generated_Source\PSoC5/RTC_1.c ****         while(week != RTC_1_dstTimeDateStart.Week)
 302:Generated_Source\PSoC5/RTC_1.c ****         {
 303:Generated_Source\PSoC5/RTC_1.c ****             day += RTC_1_DAYS_IN_WEEK;
 304:Generated_Source\PSoC5/RTC_1.c ****             week++;
 305:Generated_Source\PSoC5/RTC_1.c ****         }
 306:Generated_Source\PSoC5/RTC_1.c ****         RTC_1_dstTimeDateStart.DayOfMonth = day;
 307:Generated_Source\PSoC5/RTC_1.c **** 
 308:Generated_Source\PSoC5/RTC_1.c ****         /* Stop of DST time */
 309:Generated_Source\PSoC5/RTC_1.c ****         week = 1u;
 310:Generated_Source\PSoC5/RTC_1.c ****         day = 1u;
 311:Generated_Source\PSoC5/RTC_1.c **** 
 312:Generated_Source\PSoC5/RTC_1.c ****         dayOfWeek = RTC_1_DayOfWeek(day, RTC_1_dstTimeDateStop.Month,
 313:Generated_Source\PSoC5/RTC_1.c ****                                                     RTC_1_currentTimeDate.Year) + 1u;
 314:Generated_Source\PSoC5/RTC_1.c ****         #if (0u != RTC_1_START_OF_WEEK)
 315:Generated_Source\PSoC5/RTC_1.c ****         /* Normalize day of week if Start of week is not Sunday */
 316:Generated_Source\PSoC5/RTC_1.c ****         if(dayOfWeek > RTC_1_START_OF_WEEK)
ARM GAS  C:\Users\HPz420\AppData\Local\Temp\cce1Gm9q.s 			page 7


 317:Generated_Source\PSoC5/RTC_1.c ****         {
 318:Generated_Source\PSoC5/RTC_1.c ****             #if (6u != RTC_1_START_OF_WEEK)
 319:Generated_Source\PSoC5/RTC_1.c ****                 /* Start of week is not Saturday  */
 320:Generated_Source\PSoC5/RTC_1.c ****                 dayOfWeek -= RTC_1_START_OF_WEEK;
 321:Generated_Source\PSoC5/RTC_1.c ****             #else /* 6u == RTC_1_START_OF_WEEK */
 322:Generated_Source\PSoC5/RTC_1.c ****                 /* Start of week is Saturday  */
 323:Generated_Source\PSoC5/RTC_1.c ****                 dayOfWeek = 1u; /* Set day of week to Monday */
 324:Generated_Source\PSoC5/RTC_1.c ****             #endif /* 6u != RTC_1_START_OF_WEEK */
 325:Generated_Source\PSoC5/RTC_1.c ****         }
 326:Generated_Source\PSoC5/RTC_1.c ****         else
 327:Generated_Source\PSoC5/RTC_1.c ****         {
 328:Generated_Source\PSoC5/RTC_1.c ****             #if (1u != RTC_1_START_OF_WEEK)
 329:Generated_Source\PSoC5/RTC_1.c ****                 /* Start of week is not Monday  */
 330:Generated_Source\PSoC5/RTC_1.c ****                 dayOfWeek = (RTC_1_DAYS_IN_WEEK - RTC_1_START_OF_WEEK) - dayOfWeek;
 331:Generated_Source\PSoC5/RTC_1.c ****             #else /* 1u == RTC_1_START_OF_WEEK */
 332:Generated_Source\PSoC5/RTC_1.c ****                 /* Start of week is Monday  */
 333:Generated_Source\PSoC5/RTC_1.c ****                 dayOfWeek = 5u; /* Set day of week to Friday */
 334:Generated_Source\PSoC5/RTC_1.c ****             #endif /* 1u != RTC_1_START_OF_WEEK */
 335:Generated_Source\PSoC5/RTC_1.c ****         }
 336:Generated_Source\PSoC5/RTC_1.c ****         #endif /* 0u != RTC_1_START_OF_WEEK */
 337:Generated_Source\PSoC5/RTC_1.c **** 
 338:Generated_Source\PSoC5/RTC_1.c ****         while(dayOfWeek != RTC_1_dstTimeDateStop.DayOfWeek)
 339:Generated_Source\PSoC5/RTC_1.c ****         {
 340:Generated_Source\PSoC5/RTC_1.c ****             day++;
 341:Generated_Source\PSoC5/RTC_1.c ****             dayOfWeek++;
 342:Generated_Source\PSoC5/RTC_1.c ****             if(dayOfWeek > RTC_1_WEEK_ELAPSED)
 343:Generated_Source\PSoC5/RTC_1.c ****             {
 344:Generated_Source\PSoC5/RTC_1.c ****                 dayOfWeek = 1u;
 345:Generated_Source\PSoC5/RTC_1.c ****                 week++;
 346:Generated_Source\PSoC5/RTC_1.c ****             }
 347:Generated_Source\PSoC5/RTC_1.c ****         }
 348:Generated_Source\PSoC5/RTC_1.c **** 
 349:Generated_Source\PSoC5/RTC_1.c ****         while(week != RTC_1_dstTimeDateStop.Week)
 350:Generated_Source\PSoC5/RTC_1.c ****         {
 351:Generated_Source\PSoC5/RTC_1.c ****             day += RTC_1_DAYS_IN_WEEK;
 352:Generated_Source\PSoC5/RTC_1.c ****             week++;
 353:Generated_Source\PSoC5/RTC_1.c ****         }
 354:Generated_Source\PSoC5/RTC_1.c **** 
 355:Generated_Source\PSoC5/RTC_1.c ****         RTC_1_dstTimeDateStop.DayOfMonth = day;
 356:Generated_Source\PSoC5/RTC_1.c ****     }
 357:Generated_Source\PSoC5/RTC_1.c **** #endif /* 1u == RTC_1_DST_FUNC_ENABLE */
 358:Generated_Source\PSoC5/RTC_1.c **** 
 359:Generated_Source\PSoC5/RTC_1.c **** 
 360:Generated_Source\PSoC5/RTC_1.c **** /*******************************************************************************
 361:Generated_Source\PSoC5/RTC_1.c **** * Function Name:   RTC_1_Init
 362:Generated_Source\PSoC5/RTC_1.c **** ********************************************************************************
 363:Generated_Source\PSoC5/RTC_1.c **** *
 364:Generated_Source\PSoC5/RTC_1.c **** * Summary:
 365:Generated_Source\PSoC5/RTC_1.c **** *  Calculates required date and flags, sets interrupt vector and priority.
 366:Generated_Source\PSoC5/RTC_1.c **** *
 367:Generated_Source\PSoC5/RTC_1.c **** * Parameters:
 368:Generated_Source\PSoC5/RTC_1.c **** *  None.
 369:Generated_Source\PSoC5/RTC_1.c **** *
 370:Generated_Source\PSoC5/RTC_1.c **** * Return:
 371:Generated_Source\PSoC5/RTC_1.c **** *  None.
 372:Generated_Source\PSoC5/RTC_1.c **** *
 373:Generated_Source\PSoC5/RTC_1.c **** * Global variables:
ARM GAS  C:\Users\HPz420\AppData\Local\Temp\cce1Gm9q.s 			page 8


 374:Generated_Source\PSoC5/RTC_1.c **** *  RTC_1_currentTimeDate, RTC_1_dstTimeDateStart,
 375:Generated_Source\PSoC5/RTC_1.c **** *  RTC_1_dstTimeDateStop, RTC_1_dstTimeDateStart,
 376:Generated_Source\PSoC5/RTC_1.c **** *  RTC_1_alarmCfgTimeDate, RTC_1_statusDateTime,
 377:Generated_Source\PSoC5/RTC_1.c **** *  RTC_1_dstStartStatus, RTC_1_dstStartStatus,
 378:Generated_Source\PSoC5/RTC_1.c **** *  RTC_1_dstStopStatus, RTC_1_alarmCurStatus:
 379:Generated_Source\PSoC5/RTC_1.c **** *  global variables are used by the RTC_1_SetInitValues().
 380:Generated_Source\PSoC5/RTC_1.c **** *
 381:Generated_Source\PSoC5/RTC_1.c **** *  RTC_1_dstTimeDateStart, RTC_1_currentTimeDate:
 382:Generated_Source\PSoC5/RTC_1.c **** *  RTC_1_statusDateTime, RTC_1_dstStartStatus,
 383:Generated_Source\PSoC5/RTC_1.c **** *  RTC_1_dstStartStatus, RTC_1_dstStopStatus,
 384:Generated_Source\PSoC5/RTC_1.c **** *  RTC_1_alarmCurStatus: are modified by the
 385:Generated_Source\PSoC5/RTC_1.c **** *  RTC_1_SetInitValues() function.
 386:Generated_Source\PSoC5/RTC_1.c **** *
 387:Generated_Source\PSoC5/RTC_1.c **** * Reentrant:
 388:Generated_Source\PSoC5/RTC_1.c **** *  No.
 389:Generated_Source\PSoC5/RTC_1.c **** *
 390:Generated_Source\PSoC5/RTC_1.c **** *******************************************************************************/
 391:Generated_Source\PSoC5/RTC_1.c **** void RTC_1_Init(void) 
 392:Generated_Source\PSoC5/RTC_1.c **** {
 393:Generated_Source\PSoC5/RTC_1.c ****     /* Start calculation of required date and flags */
 394:Generated_Source\PSoC5/RTC_1.c ****     RTC_1_SetInitValues();
 395:Generated_Source\PSoC5/RTC_1.c **** 
 396:Generated_Source\PSoC5/RTC_1.c ****     /* Disable Interrupt. */
 397:Generated_Source\PSoC5/RTC_1.c ****     CyIntDisable(RTC_1_ISR_NUMBER);
 398:Generated_Source\PSoC5/RTC_1.c **** 
 399:Generated_Source\PSoC5/RTC_1.c ****     /* Set the ISR to point to the RTC_SUT_isr Interrupt. */
 400:Generated_Source\PSoC5/RTC_1.c ****     (void) CyIntSetVector(RTC_1_ISR_NUMBER, & RTC_1_ISR);
 401:Generated_Source\PSoC5/RTC_1.c **** 
 402:Generated_Source\PSoC5/RTC_1.c ****     /* Set the priority. */
 403:Generated_Source\PSoC5/RTC_1.c ****     CyIntSetPriority(RTC_1_ISR_NUMBER, RTC_1_ISR_PRIORITY);
 404:Generated_Source\PSoC5/RTC_1.c **** }
 405:Generated_Source\PSoC5/RTC_1.c **** 
 406:Generated_Source\PSoC5/RTC_1.c **** 
 407:Generated_Source\PSoC5/RTC_1.c **** /*******************************************************************************
 408:Generated_Source\PSoC5/RTC_1.c **** * Function Name: RTC_1_Enable
 409:Generated_Source\PSoC5/RTC_1.c **** ********************************************************************************
 410:Generated_Source\PSoC5/RTC_1.c **** *
 411:Generated_Source\PSoC5/RTC_1.c **** * Summary:
 412:Generated_Source\PSoC5/RTC_1.c **** *  Enables the interrupts, one pulse per second and interrupt generation on OPPS
 413:Generated_Source\PSoC5/RTC_1.c **** *  event.
 414:Generated_Source\PSoC5/RTC_1.c **** *
 415:Generated_Source\PSoC5/RTC_1.c **** * Parameters:
 416:Generated_Source\PSoC5/RTC_1.c **** *  None.
 417:Generated_Source\PSoC5/RTC_1.c **** *
 418:Generated_Source\PSoC5/RTC_1.c **** * Return:
 419:Generated_Source\PSoC5/RTC_1.c **** *  None.
 420:Generated_Source\PSoC5/RTC_1.c **** *
 421:Generated_Source\PSoC5/RTC_1.c **** * Side Effects:
 422:Generated_Source\PSoC5/RTC_1.c **** *  Enables for the one pulse per second and central time wheel signals to wake
 423:Generated_Source\PSoC5/RTC_1.c **** *  up device from the low power (Sleep and Alternate Active) modes and leaves
 424:Generated_Source\PSoC5/RTC_1.c **** *  them enabled.
 425:Generated_Source\PSoC5/RTC_1.c **** *
 426:Generated_Source\PSoC5/RTC_1.c **** *******************************************************************************/
 427:Generated_Source\PSoC5/RTC_1.c **** void RTC_1_Enable(void) 
 428:Generated_Source\PSoC5/RTC_1.c **** {
 429:Generated_Source\PSoC5/RTC_1.c ****     uint8 interruptState;
 430:Generated_Source\PSoC5/RTC_1.c **** 
ARM GAS  C:\Users\HPz420\AppData\Local\Temp\cce1Gm9q.s 			page 9


 431:Generated_Source\PSoC5/RTC_1.c ****     /* Enter critical section */
 432:Generated_Source\PSoC5/RTC_1.c ****     interruptState = CyEnterCriticalSection();
 433:Generated_Source\PSoC5/RTC_1.c **** 
 434:Generated_Source\PSoC5/RTC_1.c ****     /* Enable one pulse per second event and interrupt */
 435:Generated_Source\PSoC5/RTC_1.c ****     RTC_1_OPPS_CFG_REG |= (RTC_1_OPPS_EN_MASK | RTC_1_OPPSIE_EN_MASK);
 436:Generated_Source\PSoC5/RTC_1.c **** 
 437:Generated_Source\PSoC5/RTC_1.c ****     /* Exit critical section */
 438:Generated_Source\PSoC5/RTC_1.c ****     CyExitCriticalSection(interruptState);
 439:Generated_Source\PSoC5/RTC_1.c **** 
 440:Generated_Source\PSoC5/RTC_1.c ****     /* Enable interrupt */
 441:Generated_Source\PSoC5/RTC_1.c ****     CyIntEnable(RTC_1_ISR_NUMBER);
 442:Generated_Source\PSoC5/RTC_1.c **** }
 443:Generated_Source\PSoC5/RTC_1.c **** 
 444:Generated_Source\PSoC5/RTC_1.c **** 
 445:Generated_Source\PSoC5/RTC_1.c **** /*******************************************************************************
 446:Generated_Source\PSoC5/RTC_1.c **** * Function Name:   RTC_1_ReadTime
 447:Generated_Source\PSoC5/RTC_1.c **** ********************************************************************************
 448:Generated_Source\PSoC5/RTC_1.c **** *
 449:Generated_Source\PSoC5/RTC_1.c **** * Summary:
 450:Generated_Source\PSoC5/RTC_1.c **** *  Returns a pointer to the current time and date structure.
 451:Generated_Source\PSoC5/RTC_1.c **** *
 452:Generated_Source\PSoC5/RTC_1.c **** * Parameters:
 453:Generated_Source\PSoC5/RTC_1.c **** *  None.
 454:Generated_Source\PSoC5/RTC_1.c **** *
 455:Generated_Source\PSoC5/RTC_1.c **** * Return:
 456:Generated_Source\PSoC5/RTC_1.c **** *  RTC_1_currentTimeDate: pointer to the global structure with the
 457:Generated_Source\PSoC5/RTC_1.c **** *  current date and time values.
 458:Generated_Source\PSoC5/RTC_1.c **** *
 459:Generated_Source\PSoC5/RTC_1.c **** * Global variables:
 460:Generated_Source\PSoC5/RTC_1.c **** *  RTC_1_currentTimeDate: global variable with current date and
 461:Generated_Source\PSoC5/RTC_1.c **** *   time is used.
 462:Generated_Source\PSoC5/RTC_1.c **** *
 463:Generated_Source\PSoC5/RTC_1.c **** * Side Effects:
 464:Generated_Source\PSoC5/RTC_1.c **** *  You should disable the interrupt for the RTC component before calling any
 465:Generated_Source\PSoC5/RTC_1.c **** *  read API to avoid an RTC Counter increment in the middle of a time or date
 466:Generated_Source\PSoC5/RTC_1.c **** *  read operation. Re-enable the interrupts after the data is read.
 467:Generated_Source\PSoC5/RTC_1.c **** *
 468:Generated_Source\PSoC5/RTC_1.c **** *******************************************************************************/
 469:Generated_Source\PSoC5/RTC_1.c **** RTC_1_TIME_DATE * RTC_1_ReadTime(void) 
 470:Generated_Source\PSoC5/RTC_1.c **** {
 471:Generated_Source\PSoC5/RTC_1.c ****     /* Returns a pointer to the current time and date structure */
 472:Generated_Source\PSoC5/RTC_1.c ****     return (&RTC_1_currentTimeDate);
 473:Generated_Source\PSoC5/RTC_1.c **** }
 474:Generated_Source\PSoC5/RTC_1.c **** 
 475:Generated_Source\PSoC5/RTC_1.c **** 
 476:Generated_Source\PSoC5/RTC_1.c **** /*******************************************************************************
 477:Generated_Source\PSoC5/RTC_1.c **** * Function Name:   RTC_1_WriteTime
 478:Generated_Source\PSoC5/RTC_1.c **** ********************************************************************************
 479:Generated_Source\PSoC5/RTC_1.c **** *
 480:Generated_Source\PSoC5/RTC_1.c **** * Summary:
 481:Generated_Source\PSoC5/RTC_1.c **** *  Writes time and date values as current time and date. Only
 482:Generated_Source\PSoC5/RTC_1.c **** *  passes Milliseconds(optionally), Seconds, Minutes, Hours, Month,
 483:Generated_Source\PSoC5/RTC_1.c **** *  Day Of Month and Year.
 484:Generated_Source\PSoC5/RTC_1.c **** *
 485:Generated_Source\PSoC5/RTC_1.c **** * Parameters:
 486:Generated_Source\PSoC5/RTC_1.c **** *  timeDate: Pointer to RTC_1_TIME_DATE global structure where new
 487:Generated_Source\PSoC5/RTC_1.c **** *  values of time and date are stored.
ARM GAS  C:\Users\HPz420\AppData\Local\Temp\cce1Gm9q.s 			page 10


 488:Generated_Source\PSoC5/RTC_1.c **** *
 489:Generated_Source\PSoC5/RTC_1.c **** * Return:
 490:Generated_Source\PSoC5/RTC_1.c **** *  None.
 491:Generated_Source\PSoC5/RTC_1.c **** *
 492:Generated_Source\PSoC5/RTC_1.c **** * Global variables:
 493:Generated_Source\PSoC5/RTC_1.c **** *  RTC_1_currentTimeDate: global structure is modified with the new
 494:Generated_Source\PSoC5/RTC_1.c **** *  values of current date and time.
 495:Generated_Source\PSoC5/RTC_1.c **** *
 496:Generated_Source\PSoC5/RTC_1.c **** * Reentrant:
 497:Generated_Source\PSoC5/RTC_1.c **** *  No.
 498:Generated_Source\PSoC5/RTC_1.c **** *
 499:Generated_Source\PSoC5/RTC_1.c **** *******************************************************************************/
 500:Generated_Source\PSoC5/RTC_1.c **** void RTC_1_WriteTime(const RTC_1_TIME_DATE * timeDate)
 501:Generated_Source\PSoC5/RTC_1.c ****      
 502:Generated_Source\PSoC5/RTC_1.c **** {
 503:Generated_Source\PSoC5/RTC_1.c ****     /* Disable Interrupt of RTC Component */
 504:Generated_Source\PSoC5/RTC_1.c ****     RTC_1_DisableInt();
 505:Generated_Source\PSoC5/RTC_1.c **** 
 506:Generated_Source\PSoC5/RTC_1.c ****     /* Write current time and date */
 507:Generated_Source\PSoC5/RTC_1.c ****     RTC_1_currentTimeDate.Sec = timeDate->Sec;
 508:Generated_Source\PSoC5/RTC_1.c ****     RTC_1_currentTimeDate.Min = timeDate->Min;
 509:Generated_Source\PSoC5/RTC_1.c ****     RTC_1_currentTimeDate.Hour = timeDate->Hour;
 510:Generated_Source\PSoC5/RTC_1.c ****     RTC_1_currentTimeDate.DayOfMonth = timeDate->DayOfMonth;
 511:Generated_Source\PSoC5/RTC_1.c ****     RTC_1_currentTimeDate.Month = timeDate->Month;
 512:Generated_Source\PSoC5/RTC_1.c ****     RTC_1_currentTimeDate.Year = timeDate->Year;
 513:Generated_Source\PSoC5/RTC_1.c **** 
 514:Generated_Source\PSoC5/RTC_1.c ****     /* Enable Interrupt of RTC Component */
 515:Generated_Source\PSoC5/RTC_1.c ****     RTC_1_EnableInt();
 516:Generated_Source\PSoC5/RTC_1.c **** }
 517:Generated_Source\PSoC5/RTC_1.c **** 
 518:Generated_Source\PSoC5/RTC_1.c **** 
 519:Generated_Source\PSoC5/RTC_1.c **** /*******************************************************************************
 520:Generated_Source\PSoC5/RTC_1.c **** * Function Name:   RTC_1_WriteSecond
 521:Generated_Source\PSoC5/RTC_1.c **** ********************************************************************************
 522:Generated_Source\PSoC5/RTC_1.c **** *
 523:Generated_Source\PSoC5/RTC_1.c **** * Summary:
 524:Generated_Source\PSoC5/RTC_1.c **** *  Writes Sec software register value.
 525:Generated_Source\PSoC5/RTC_1.c **** *
 526:Generated_Source\PSoC5/RTC_1.c **** * Parameters:
 527:Generated_Source\PSoC5/RTC_1.c **** *  second: Seconds value.
 528:Generated_Source\PSoC5/RTC_1.c **** *
 529:Generated_Source\PSoC5/RTC_1.c **** * Return:
 530:Generated_Source\PSoC5/RTC_1.c **** *  None.
 531:Generated_Source\PSoC5/RTC_1.c **** *
 532:Generated_Source\PSoC5/RTC_1.c **** * Global variables:
 533:Generated_Source\PSoC5/RTC_1.c **** *  RTC_1_currentTimeDate.Sec: global structure's field where current
 534:Generated_Source\PSoC5/RTC_1.c **** *  second's value is modified.
 535:Generated_Source\PSoC5/RTC_1.c **** *
 536:Generated_Source\PSoC5/RTC_1.c **** * Reentrant:
 537:Generated_Source\PSoC5/RTC_1.c **** *  No.
 538:Generated_Source\PSoC5/RTC_1.c **** *
 539:Generated_Source\PSoC5/RTC_1.c **** *******************************************************************************/
 540:Generated_Source\PSoC5/RTC_1.c **** void RTC_1_WriteSecond(uint8 second) 
 541:Generated_Source\PSoC5/RTC_1.c **** {
 542:Generated_Source\PSoC5/RTC_1.c ****     /* Save seconds to the current time and date structure */
 543:Generated_Source\PSoC5/RTC_1.c ****     RTC_1_currentTimeDate.Sec = second;
 544:Generated_Source\PSoC5/RTC_1.c **** }
ARM GAS  C:\Users\HPz420\AppData\Local\Temp\cce1Gm9q.s 			page 11


 545:Generated_Source\PSoC5/RTC_1.c **** 
 546:Generated_Source\PSoC5/RTC_1.c **** 
 547:Generated_Source\PSoC5/RTC_1.c **** /*******************************************************************************
 548:Generated_Source\PSoC5/RTC_1.c **** * Function Name:   RTC_1_WriteMinute
 549:Generated_Source\PSoC5/RTC_1.c **** ********************************************************************************
 550:Generated_Source\PSoC5/RTC_1.c **** *
 551:Generated_Source\PSoC5/RTC_1.c **** * Summary:
 552:Generated_Source\PSoC5/RTC_1.c **** *  Writes Minute value in minutes counter register.
 553:Generated_Source\PSoC5/RTC_1.c **** *
 554:Generated_Source\PSoC5/RTC_1.c **** * Parameters:
 555:Generated_Source\PSoC5/RTC_1.c **** *  minute: Minutes value.
 556:Generated_Source\PSoC5/RTC_1.c **** *
 557:Generated_Source\PSoC5/RTC_1.c **** * Return:
 558:Generated_Source\PSoC5/RTC_1.c **** *  None.
 559:Generated_Source\PSoC5/RTC_1.c **** *
 560:Generated_Source\PSoC5/RTC_1.c **** * Global variables:
 561:Generated_Source\PSoC5/RTC_1.c **** *  RTC_1_currentTimeDate.Min: global structure's field where
 562:Generated_Source\PSoC5/RTC_1.c **** *  current minute's value is modified.
 563:Generated_Source\PSoC5/RTC_1.c **** *
 564:Generated_Source\PSoC5/RTC_1.c **** * Reentrant:
 565:Generated_Source\PSoC5/RTC_1.c **** *  No.
 566:Generated_Source\PSoC5/RTC_1.c **** *
 567:Generated_Source\PSoC5/RTC_1.c **** *******************************************************************************/
 568:Generated_Source\PSoC5/RTC_1.c **** void RTC_1_WriteMinute(uint8 minute) 
 569:Generated_Source\PSoC5/RTC_1.c **** {
 570:Generated_Source\PSoC5/RTC_1.c ****     /* Save minutes to the current time and date structure */
 571:Generated_Source\PSoC5/RTC_1.c ****     RTC_1_currentTimeDate.Min = minute;
 572:Generated_Source\PSoC5/RTC_1.c **** }
 573:Generated_Source\PSoC5/RTC_1.c **** 
 574:Generated_Source\PSoC5/RTC_1.c **** 
 575:Generated_Source\PSoC5/RTC_1.c **** /*******************************************************************************
 576:Generated_Source\PSoC5/RTC_1.c **** * Function Name:   RTC_1_WriteHour
 577:Generated_Source\PSoC5/RTC_1.c **** ********************************************************************************
 578:Generated_Source\PSoC5/RTC_1.c **** *
 579:Generated_Source\PSoC5/RTC_1.c **** * Summary:
 580:Generated_Source\PSoC5/RTC_1.c **** *  Writes Hour software register value.
 581:Generated_Source\PSoC5/RTC_1.c **** *
 582:Generated_Source\PSoC5/RTC_1.c **** * Parameters:
 583:Generated_Source\PSoC5/RTC_1.c **** *  hour: Hours value.
 584:Generated_Source\PSoC5/RTC_1.c **** *
 585:Generated_Source\PSoC5/RTC_1.c **** * Return:
 586:Generated_Source\PSoC5/RTC_1.c **** *  None.
 587:Generated_Source\PSoC5/RTC_1.c **** *
 588:Generated_Source\PSoC5/RTC_1.c **** * Global variables:
 589:Generated_Source\PSoC5/RTC_1.c **** *  RTC_1_currentTimeDate.Hour: global structure's field where
 590:Generated_Source\PSoC5/RTC_1.c **** *  current hour's value is modified.
 591:Generated_Source\PSoC5/RTC_1.c **** *
 592:Generated_Source\PSoC5/RTC_1.c **** * Reentrant:
 593:Generated_Source\PSoC5/RTC_1.c **** *  No.
 594:Generated_Source\PSoC5/RTC_1.c **** *
 595:Generated_Source\PSoC5/RTC_1.c **** *******************************************************************************/
 596:Generated_Source\PSoC5/RTC_1.c **** void RTC_1_WriteHour(uint8 hour) 
 597:Generated_Source\PSoC5/RTC_1.c **** {
 598:Generated_Source\PSoC5/RTC_1.c ****     /* Save hours to the current time and date structure */
 599:Generated_Source\PSoC5/RTC_1.c ****     RTC_1_currentTimeDate.Hour = hour;
 600:Generated_Source\PSoC5/RTC_1.c **** }
 601:Generated_Source\PSoC5/RTC_1.c **** 
ARM GAS  C:\Users\HPz420\AppData\Local\Temp\cce1Gm9q.s 			page 12


 602:Generated_Source\PSoC5/RTC_1.c **** 
 603:Generated_Source\PSoC5/RTC_1.c **** /*******************************************************************************
 604:Generated_Source\PSoC5/RTC_1.c **** * Function Name:   RTC_1_WriteDayOfMonth
 605:Generated_Source\PSoC5/RTC_1.c **** ********************************************************************************
 606:Generated_Source\PSoC5/RTC_1.c **** *
 607:Generated_Source\PSoC5/RTC_1.c **** * Summary:
 608:Generated_Source\PSoC5/RTC_1.c **** *  Writes DayOfMonth software register value.
 609:Generated_Source\PSoC5/RTC_1.c **** *
 610:Generated_Source\PSoC5/RTC_1.c **** * Parameters:
 611:Generated_Source\PSoC5/RTC_1.c **** *  dayOfMonth: Day Of Month value.
 612:Generated_Source\PSoC5/RTC_1.c **** *
 613:Generated_Source\PSoC5/RTC_1.c **** * Return:
 614:Generated_Source\PSoC5/RTC_1.c **** *  None.
 615:Generated_Source\PSoC5/RTC_1.c **** *
 616:Generated_Source\PSoC5/RTC_1.c **** * Global variables:
 617:Generated_Source\PSoC5/RTC_1.c **** *  RTC_1_currentTimeDate.DayOfMonth: global structure's field where
 618:Generated_Source\PSoC5/RTC_1.c **** *  current day of month's value is modified.
 619:Generated_Source\PSoC5/RTC_1.c **** *
 620:Generated_Source\PSoC5/RTC_1.c **** * Reentrant:
 621:Generated_Source\PSoC5/RTC_1.c **** *  No.
 622:Generated_Source\PSoC5/RTC_1.c **** *
 623:Generated_Source\PSoC5/RTC_1.c **** *******************************************************************************/
 624:Generated_Source\PSoC5/RTC_1.c **** void RTC_1_WriteDayOfMonth(uint8 dayOfMonth) 
 625:Generated_Source\PSoC5/RTC_1.c **** {
 626:Generated_Source\PSoC5/RTC_1.c ****     /* Save day of month to the current time and date structure */
 627:Generated_Source\PSoC5/RTC_1.c ****     RTC_1_currentTimeDate.DayOfMonth = dayOfMonth;
 628:Generated_Source\PSoC5/RTC_1.c **** }
 629:Generated_Source\PSoC5/RTC_1.c **** 
 630:Generated_Source\PSoC5/RTC_1.c **** 
 631:Generated_Source\PSoC5/RTC_1.c **** /*******************************************************************************
 632:Generated_Source\PSoC5/RTC_1.c **** * Function Name:   RTC_1_WriteMonth
 633:Generated_Source\PSoC5/RTC_1.c **** ********************************************************************************
 634:Generated_Source\PSoC5/RTC_1.c **** *
 635:Generated_Source\PSoC5/RTC_1.c **** * Summary:
 636:Generated_Source\PSoC5/RTC_1.c **** *  Writes Month software register value.
 637:Generated_Source\PSoC5/RTC_1.c **** *
 638:Generated_Source\PSoC5/RTC_1.c **** * Parameters:
 639:Generated_Source\PSoC5/RTC_1.c **** *  month: Month value.
 640:Generated_Source\PSoC5/RTC_1.c **** *
 641:Generated_Source\PSoC5/RTC_1.c **** * Return:
 642:Generated_Source\PSoC5/RTC_1.c **** *  None.
 643:Generated_Source\PSoC5/RTC_1.c **** *
 644:Generated_Source\PSoC5/RTC_1.c **** * Global variables:
 645:Generated_Source\PSoC5/RTC_1.c **** *  RTC_1_currentTimeDate.Month: global structure's field where
 646:Generated_Source\PSoC5/RTC_1.c **** *  current day of month's value is modified.
 647:Generated_Source\PSoC5/RTC_1.c **** *
 648:Generated_Source\PSoC5/RTC_1.c **** * Reentrant:
 649:Generated_Source\PSoC5/RTC_1.c **** *  No.
 650:Generated_Source\PSoC5/RTC_1.c **** *
 651:Generated_Source\PSoC5/RTC_1.c **** *******************************************************************************/
 652:Generated_Source\PSoC5/RTC_1.c **** void RTC_1_WriteMonth(uint8 month) 
 653:Generated_Source\PSoC5/RTC_1.c **** {
 654:Generated_Source\PSoC5/RTC_1.c ****     /* Save months to the current time and date structure */
 655:Generated_Source\PSoC5/RTC_1.c ****     RTC_1_currentTimeDate.Month = month;
 656:Generated_Source\PSoC5/RTC_1.c **** }
 657:Generated_Source\PSoC5/RTC_1.c **** 
 658:Generated_Source\PSoC5/RTC_1.c **** 
ARM GAS  C:\Users\HPz420\AppData\Local\Temp\cce1Gm9q.s 			page 13


 659:Generated_Source\PSoC5/RTC_1.c **** /*******************************************************************************
 660:Generated_Source\PSoC5/RTC_1.c **** * Function Name:   RTC_1_WriteYear
 661:Generated_Source\PSoC5/RTC_1.c **** ********************************************************************************
 662:Generated_Source\PSoC5/RTC_1.c **** *
 663:Generated_Source\PSoC5/RTC_1.c **** * Summary:
 664:Generated_Source\PSoC5/RTC_1.c **** *  Writes Year software register value.
 665:Generated_Source\PSoC5/RTC_1.c **** *
 666:Generated_Source\PSoC5/RTC_1.c **** * Parameters:
 667:Generated_Source\PSoC5/RTC_1.c **** *  year: Years value.
 668:Generated_Source\PSoC5/RTC_1.c **** *
 669:Generated_Source\PSoC5/RTC_1.c **** * Return:
 670:Generated_Source\PSoC5/RTC_1.c **** *  None.
 671:Generated_Source\PSoC5/RTC_1.c **** *
 672:Generated_Source\PSoC5/RTC_1.c **** * Global variables:
 673:Generated_Source\PSoC5/RTC_1.c **** *  RTC_1_currentTimeDate.Year: global structure's field where
 674:Generated_Source\PSoC5/RTC_1.c **** *  current year's value is modified.
 675:Generated_Source\PSoC5/RTC_1.c **** *
 676:Generated_Source\PSoC5/RTC_1.c **** * Reentrant:
 677:Generated_Source\PSoC5/RTC_1.c **** *  No.
 678:Generated_Source\PSoC5/RTC_1.c **** *
 679:Generated_Source\PSoC5/RTC_1.c **** *******************************************************************************/
 680:Generated_Source\PSoC5/RTC_1.c **** void RTC_1_WriteYear(uint16 year) 
 681:Generated_Source\PSoC5/RTC_1.c **** {
 682:Generated_Source\PSoC5/RTC_1.c ****     /* Save years to the current time and date structure */
 683:Generated_Source\PSoC5/RTC_1.c ****     RTC_1_currentTimeDate.Year = year;
 684:Generated_Source\PSoC5/RTC_1.c **** }
 685:Generated_Source\PSoC5/RTC_1.c **** 
 686:Generated_Source\PSoC5/RTC_1.c **** 
 687:Generated_Source\PSoC5/RTC_1.c **** /*******************************************************************************
 688:Generated_Source\PSoC5/RTC_1.c **** * Function Name:   RTC_1_WriteAlarmSecond
 689:Generated_Source\PSoC5/RTC_1.c **** ********************************************************************************
 690:Generated_Source\PSoC5/RTC_1.c **** *
 691:Generated_Source\PSoC5/RTC_1.c **** * Summary:
 692:Generated_Source\PSoC5/RTC_1.c **** *  Writes Alarm Sec software register value.
 693:Generated_Source\PSoC5/RTC_1.c **** *
 694:Generated_Source\PSoC5/RTC_1.c **** * Parameters:
 695:Generated_Source\PSoC5/RTC_1.c **** *  second: Alarm Seconds value.
 696:Generated_Source\PSoC5/RTC_1.c **** *
 697:Generated_Source\PSoC5/RTC_1.c **** * Return:
 698:Generated_Source\PSoC5/RTC_1.c **** *  None.
 699:Generated_Source\PSoC5/RTC_1.c **** *
 700:Generated_Source\PSoC5/RTC_1.c **** * Global variables:
 701:Generated_Source\PSoC5/RTC_1.c **** *  RTC_1_currentTimeDate.Sec: this global variable is used for
 702:Generated_Source\PSoC5/RTC_1.c **** *  comparison while setting and clearing seconds alarm status variable.
 703:Generated_Source\PSoC5/RTC_1.c **** *
 704:Generated_Source\PSoC5/RTC_1.c **** *  RTC_1_alarmCfgTimeDate.Sec: this global variable is modified to
 705:Generated_Source\PSoC5/RTC_1.c **** *  store of the new seconds alarm.
 706:Generated_Source\PSoC5/RTC_1.c **** *
 707:Generated_Source\PSoC5/RTC_1.c **** *  RTC_1_alarmCurStatus: this global variable could be changed if
 708:Generated_Source\PSoC5/RTC_1.c **** *  second's alarm will be raised.
 709:Generated_Source\PSoC5/RTC_1.c **** *
 710:Generated_Source\PSoC5/RTC_1.c **** * Reentrant:
 711:Generated_Source\PSoC5/RTC_1.c **** *  No.
 712:Generated_Source\PSoC5/RTC_1.c **** *
 713:Generated_Source\PSoC5/RTC_1.c **** *******************************************************************************/
 714:Generated_Source\PSoC5/RTC_1.c **** void RTC_1_WriteAlarmSecond(uint8 second) 
 715:Generated_Source\PSoC5/RTC_1.c **** {
ARM GAS  C:\Users\HPz420\AppData\Local\Temp\cce1Gm9q.s 			page 14


 716:Generated_Source\PSoC5/RTC_1.c ****     RTC_1_alarmCfgTimeDate.Sec = second;
 717:Generated_Source\PSoC5/RTC_1.c **** 
 718:Generated_Source\PSoC5/RTC_1.c ****     /* Check second alarm */
 719:Generated_Source\PSoC5/RTC_1.c ****     if(RTC_1_alarmCfgTimeDate.Sec == RTC_1_currentTimeDate.Sec)
 720:Generated_Source\PSoC5/RTC_1.c ****     {
 721:Generated_Source\PSoC5/RTC_1.c ****         /* Set second alarm */
 722:Generated_Source\PSoC5/RTC_1.c ****         RTC_1_alarmCurStatus |= RTC_1_ALARM_SEC_MASK;
 723:Generated_Source\PSoC5/RTC_1.c ****     }
 724:Generated_Source\PSoC5/RTC_1.c ****     else /* no second alarm */
 725:Generated_Source\PSoC5/RTC_1.c ****     {
 726:Generated_Source\PSoC5/RTC_1.c ****         /* Clear second alarm */
 727:Generated_Source\PSoC5/RTC_1.c ****         RTC_1_alarmCurStatus &= (uint8)(~RTC_1_ALARM_SEC_MASK);
 728:Generated_Source\PSoC5/RTC_1.c ****     }
 729:Generated_Source\PSoC5/RTC_1.c **** }
 730:Generated_Source\PSoC5/RTC_1.c **** 
 731:Generated_Source\PSoC5/RTC_1.c **** 
 732:Generated_Source\PSoC5/RTC_1.c **** /*******************************************************************************
 733:Generated_Source\PSoC5/RTC_1.c **** * Function Name:   RTC_1_WriteAlarmMinute
 734:Generated_Source\PSoC5/RTC_1.c **** ********************************************************************************
 735:Generated_Source\PSoC5/RTC_1.c **** *
 736:Generated_Source\PSoC5/RTC_1.c **** * Summary:
 737:Generated_Source\PSoC5/RTC_1.c **** *  Writes Alarm Min software register value.
 738:Generated_Source\PSoC5/RTC_1.c **** *
 739:Generated_Source\PSoC5/RTC_1.c **** * Parameters:
 740:Generated_Source\PSoC5/RTC_1.c **** *  minute: Alarm minutes value.
 741:Generated_Source\PSoC5/RTC_1.c **** *
 742:Generated_Source\PSoC5/RTC_1.c **** * Return:
 743:Generated_Source\PSoC5/RTC_1.c **** *  None.
 744:Generated_Source\PSoC5/RTC_1.c **** *
 745:Generated_Source\PSoC5/RTC_1.c **** * Global variables:
 746:Generated_Source\PSoC5/RTC_1.c **** *  RTC_1_currentTimeDate.Min: this global variable is used for
 747:Generated_Source\PSoC5/RTC_1.c **** *  comparison while setting and clearing minutes alarm status variable.
 748:Generated_Source\PSoC5/RTC_1.c **** *
 749:Generated_Source\PSoC5/RTC_1.c **** *  RTC_1_alarmCfgTimeDate.Min: this global variable is modified to
 750:Generated_Source\PSoC5/RTC_1.c **** *  store of the new minutes alarm.
 751:Generated_Source\PSoC5/RTC_1.c **** *
 752:Generated_Source\PSoC5/RTC_1.c **** *  RTC_1_alarmCurStatus: this global variable could be changed if
 753:Generated_Source\PSoC5/RTC_1.c **** *  minute's alarm will be raised.
 754:Generated_Source\PSoC5/RTC_1.c **** *
 755:Generated_Source\PSoC5/RTC_1.c **** * Reentrant:
 756:Generated_Source\PSoC5/RTC_1.c **** *  No.
 757:Generated_Source\PSoC5/RTC_1.c **** *
 758:Generated_Source\PSoC5/RTC_1.c **** *******************************************************************************/
 759:Generated_Source\PSoC5/RTC_1.c **** void RTC_1_WriteAlarmMinute(uint8 minute) 
 760:Generated_Source\PSoC5/RTC_1.c **** {
 761:Generated_Source\PSoC5/RTC_1.c ****     RTC_1_alarmCfgTimeDate.Min = minute;
 762:Generated_Source\PSoC5/RTC_1.c **** 
 763:Generated_Source\PSoC5/RTC_1.c ****     /* Check minute alarm */
 764:Generated_Source\PSoC5/RTC_1.c ****     if(RTC_1_alarmCfgTimeDate.Min == RTC_1_currentTimeDate.Min)
 765:Generated_Source\PSoC5/RTC_1.c ****     {
 766:Generated_Source\PSoC5/RTC_1.c ****         /* Set minute alarm */
 767:Generated_Source\PSoC5/RTC_1.c ****         RTC_1_alarmCurStatus |= RTC_1_ALARM_MIN_MASK;
 768:Generated_Source\PSoC5/RTC_1.c ****     }
 769:Generated_Source\PSoC5/RTC_1.c ****     else /* no minute alarm */
 770:Generated_Source\PSoC5/RTC_1.c ****     {
 771:Generated_Source\PSoC5/RTC_1.c ****         /* Clear minute alarm */
 772:Generated_Source\PSoC5/RTC_1.c ****         RTC_1_alarmCurStatus &= (uint8)(~RTC_1_ALARM_MIN_MASK);
ARM GAS  C:\Users\HPz420\AppData\Local\Temp\cce1Gm9q.s 			page 15


 773:Generated_Source\PSoC5/RTC_1.c ****     }
 774:Generated_Source\PSoC5/RTC_1.c **** }
 775:Generated_Source\PSoC5/RTC_1.c **** 
 776:Generated_Source\PSoC5/RTC_1.c **** 
 777:Generated_Source\PSoC5/RTC_1.c **** /*******************************************************************************
 778:Generated_Source\PSoC5/RTC_1.c **** * Function Name:   RTC_1_WriteAlarmHour
 779:Generated_Source\PSoC5/RTC_1.c **** ********************************************************************************
 780:Generated_Source\PSoC5/RTC_1.c **** *
 781:Generated_Source\PSoC5/RTC_1.c **** * Summary:
 782:Generated_Source\PSoC5/RTC_1.c **** *  Writes Alarm Hour software register value.
 783:Generated_Source\PSoC5/RTC_1.c **** *
 784:Generated_Source\PSoC5/RTC_1.c **** * Parameters:
 785:Generated_Source\PSoC5/RTC_1.c **** *  hour: Alarm hours value.
 786:Generated_Source\PSoC5/RTC_1.c **** *
 787:Generated_Source\PSoC5/RTC_1.c **** * Return:
 788:Generated_Source\PSoC5/RTC_1.c **** *  None.
 789:Generated_Source\PSoC5/RTC_1.c **** *
 790:Generated_Source\PSoC5/RTC_1.c **** * Global variables:
 791:Generated_Source\PSoC5/RTC_1.c **** *  RTC_1_currentTimeDate.Hour: this global variable is used for
 792:Generated_Source\PSoC5/RTC_1.c **** *  comparison while setting and clearing hours alarm status variable.
 793:Generated_Source\PSoC5/RTC_1.c **** *
 794:Generated_Source\PSoC5/RTC_1.c **** *  RTC_1_alarmCfgTimeDate.Hour: this global variable is modified to
 795:Generated_Source\PSoC5/RTC_1.c **** *  store of the new hours alarm.
 796:Generated_Source\PSoC5/RTC_1.c **** *
 797:Generated_Source\PSoC5/RTC_1.c **** *  RTC_1_alarmCurStatus: this global variable could be changed if
 798:Generated_Source\PSoC5/RTC_1.c **** *  hours alarm will be raised.
 799:Generated_Source\PSoC5/RTC_1.c **** *
 800:Generated_Source\PSoC5/RTC_1.c **** * Reentrant:
 801:Generated_Source\PSoC5/RTC_1.c **** *  No.
 802:Generated_Source\PSoC5/RTC_1.c **** *
 803:Generated_Source\PSoC5/RTC_1.c **** *******************************************************************************/
 804:Generated_Source\PSoC5/RTC_1.c **** void RTC_1_WriteAlarmHour(uint8 hour) 
 805:Generated_Source\PSoC5/RTC_1.c **** {
 806:Generated_Source\PSoC5/RTC_1.c ****     RTC_1_alarmCfgTimeDate.Hour = hour;
 807:Generated_Source\PSoC5/RTC_1.c **** 
 808:Generated_Source\PSoC5/RTC_1.c ****     /* Check hour alarm */
 809:Generated_Source\PSoC5/RTC_1.c ****     if(RTC_1_alarmCfgTimeDate.Hour == RTC_1_currentTimeDate.Hour)
 810:Generated_Source\PSoC5/RTC_1.c ****     {
 811:Generated_Source\PSoC5/RTC_1.c ****         /* Set hour alarm */
 812:Generated_Source\PSoC5/RTC_1.c ****         RTC_1_alarmCurStatus |= RTC_1_ALARM_HOUR_MASK;
 813:Generated_Source\PSoC5/RTC_1.c ****     }
 814:Generated_Source\PSoC5/RTC_1.c ****     else /* no hour alarm */
 815:Generated_Source\PSoC5/RTC_1.c ****     {
 816:Generated_Source\PSoC5/RTC_1.c ****         /* Clear hour alarm */
 817:Generated_Source\PSoC5/RTC_1.c ****         RTC_1_alarmCurStatus &= (uint8)(~RTC_1_ALARM_HOUR_MASK);
 818:Generated_Source\PSoC5/RTC_1.c ****     }
 819:Generated_Source\PSoC5/RTC_1.c **** }
 820:Generated_Source\PSoC5/RTC_1.c **** 
 821:Generated_Source\PSoC5/RTC_1.c **** 
 822:Generated_Source\PSoC5/RTC_1.c **** /*******************************************************************************
 823:Generated_Source\PSoC5/RTC_1.c **** * Function Name:   RTC_1_WriteAlarmDayOfMonth
 824:Generated_Source\PSoC5/RTC_1.c **** ********************************************************************************
 825:Generated_Source\PSoC5/RTC_1.c **** *
 826:Generated_Source\PSoC5/RTC_1.c **** * Summary:
 827:Generated_Source\PSoC5/RTC_1.c **** *  Writes Alarm DayOfMonth software register value.
 828:Generated_Source\PSoC5/RTC_1.c **** *
 829:Generated_Source\PSoC5/RTC_1.c **** * Parameters:
ARM GAS  C:\Users\HPz420\AppData\Local\Temp\cce1Gm9q.s 			page 16


 830:Generated_Source\PSoC5/RTC_1.c **** *  dayOfMonth: Alarm day of month value.
 831:Generated_Source\PSoC5/RTC_1.c **** *
 832:Generated_Source\PSoC5/RTC_1.c **** * Return:
 833:Generated_Source\PSoC5/RTC_1.c **** *  None.
 834:Generated_Source\PSoC5/RTC_1.c **** *
 835:Generated_Source\PSoC5/RTC_1.c **** * Global variables:
 836:Generated_Source\PSoC5/RTC_1.c **** *  RTC_1_currentTimeDate.DayOfMonth: this global variable is used for
 837:Generated_Source\PSoC5/RTC_1.c **** *  comparison while setting and clearing day of month alarm status variable.
 838:Generated_Source\PSoC5/RTC_1.c **** *
 839:Generated_Source\PSoC5/RTC_1.c **** *  RTC_1_alarmCfgTimeDate.DayOfMonth: this global variable is
 840:Generated_Source\PSoC5/RTC_1.c **** *  modified to store of the new day of month alarm.
 841:Generated_Source\PSoC5/RTC_1.c **** *
 842:Generated_Source\PSoC5/RTC_1.c **** *  RTC_1_alarmCurStatus: this global variable could be changed if
 843:Generated_Source\PSoC5/RTC_1.c **** *  day of month alarm will be raised.
 844:Generated_Source\PSoC5/RTC_1.c **** *
 845:Generated_Source\PSoC5/RTC_1.c **** * Reentrant:
 846:Generated_Source\PSoC5/RTC_1.c **** *  No.
 847:Generated_Source\PSoC5/RTC_1.c **** *
 848:Generated_Source\PSoC5/RTC_1.c **** *******************************************************************************/
 849:Generated_Source\PSoC5/RTC_1.c **** void RTC_1_WriteAlarmDayOfMonth(uint8 dayOfMonth) 
 850:Generated_Source\PSoC5/RTC_1.c **** {
 851:Generated_Source\PSoC5/RTC_1.c ****     RTC_1_alarmCfgTimeDate.DayOfMonth = dayOfMonth;
 852:Generated_Source\PSoC5/RTC_1.c **** 
 853:Generated_Source\PSoC5/RTC_1.c ****     /* Check day of month alarm */
 854:Generated_Source\PSoC5/RTC_1.c ****     if(RTC_1_alarmCfgTimeDate.DayOfMonth == RTC_1_currentTimeDate.DayOfMonth)
 855:Generated_Source\PSoC5/RTC_1.c ****     {
 856:Generated_Source\PSoC5/RTC_1.c ****         /* Set day of month alarm */
 857:Generated_Source\PSoC5/RTC_1.c ****         RTC_1_alarmCurStatus |= RTC_1_ALARM_DAYOFMONTH_MASK;
 858:Generated_Source\PSoC5/RTC_1.c ****     }
 859:Generated_Source\PSoC5/RTC_1.c ****     else /* no day of month alarm */
 860:Generated_Source\PSoC5/RTC_1.c ****     {
 861:Generated_Source\PSoC5/RTC_1.c ****         /* Clear day of month alarm */
 862:Generated_Source\PSoC5/RTC_1.c ****         RTC_1_alarmCurStatus &= (uint8)(~RTC_1_ALARM_DAYOFMONTH_MASK);
 863:Generated_Source\PSoC5/RTC_1.c ****     }
 864:Generated_Source\PSoC5/RTC_1.c **** }
 865:Generated_Source\PSoC5/RTC_1.c **** 
 866:Generated_Source\PSoC5/RTC_1.c **** 
 867:Generated_Source\PSoC5/RTC_1.c **** /*******************************************************************************
 868:Generated_Source\PSoC5/RTC_1.c **** * Function Name:   RTC_1_WriteAlarmMonth
 869:Generated_Source\PSoC5/RTC_1.c **** ********************************************************************************
 870:Generated_Source\PSoC5/RTC_1.c **** *
 871:Generated_Source\PSoC5/RTC_1.c **** * Summary:
 872:Generated_Source\PSoC5/RTC_1.c **** *  Writes Alarm Month software register value.
 873:Generated_Source\PSoC5/RTC_1.c **** *
 874:Generated_Source\PSoC5/RTC_1.c **** * Parameters:
 875:Generated_Source\PSoC5/RTC_1.c **** *  month: Alarm month value.
 876:Generated_Source\PSoC5/RTC_1.c **** *
 877:Generated_Source\PSoC5/RTC_1.c **** * Return:
 878:Generated_Source\PSoC5/RTC_1.c **** *  None.
 879:Generated_Source\PSoC5/RTC_1.c **** *
 880:Generated_Source\PSoC5/RTC_1.c **** * Global variables:
 881:Generated_Source\PSoC5/RTC_1.c **** *  RTC_1_currentTimeDate.Month: this global variable is used for
 882:Generated_Source\PSoC5/RTC_1.c **** *  comparison while setting and clearing month alarm status variable.
 883:Generated_Source\PSoC5/RTC_1.c **** *
 884:Generated_Source\PSoC5/RTC_1.c **** *  RTC_1_alarmCfgTimeDate.Month: this global variable is modified
 885:Generated_Source\PSoC5/RTC_1.c **** *  to store of the new month alarm.
 886:Generated_Source\PSoC5/RTC_1.c **** *
ARM GAS  C:\Users\HPz420\AppData\Local\Temp\cce1Gm9q.s 			page 17


 887:Generated_Source\PSoC5/RTC_1.c **** *  RTC_1_alarmCurStatus: this global variable could be changed if
 888:Generated_Source\PSoC5/RTC_1.c **** *  month alarm will be raised.
 889:Generated_Source\PSoC5/RTC_1.c **** *
 890:Generated_Source\PSoC5/RTC_1.c **** * Reentrant:
 891:Generated_Source\PSoC5/RTC_1.c **** *  No.
 892:Generated_Source\PSoC5/RTC_1.c **** *
 893:Generated_Source\PSoC5/RTC_1.c **** *******************************************************************************/
 894:Generated_Source\PSoC5/RTC_1.c **** void RTC_1_WriteAlarmMonth(uint8 month) 
 895:Generated_Source\PSoC5/RTC_1.c **** {
 896:Generated_Source\PSoC5/RTC_1.c ****     RTC_1_alarmCfgTimeDate.Month = month;
 897:Generated_Source\PSoC5/RTC_1.c **** 
 898:Generated_Source\PSoC5/RTC_1.c ****     /* Check month alarm */
 899:Generated_Source\PSoC5/RTC_1.c ****     if(RTC_1_alarmCfgTimeDate.Month == RTC_1_currentTimeDate.Month)
 900:Generated_Source\PSoC5/RTC_1.c ****     {
 901:Generated_Source\PSoC5/RTC_1.c ****         /* Set month alarm */
 902:Generated_Source\PSoC5/RTC_1.c ****         RTC_1_alarmCurStatus |= RTC_1_ALARM_MONTH_MASK;
 903:Generated_Source\PSoC5/RTC_1.c ****     }
 904:Generated_Source\PSoC5/RTC_1.c ****     else /* no month alarm */
 905:Generated_Source\PSoC5/RTC_1.c ****     {
 906:Generated_Source\PSoC5/RTC_1.c ****         /* Clear month alarm */
 907:Generated_Source\PSoC5/RTC_1.c ****         RTC_1_alarmCurStatus &= (uint8)(~RTC_1_ALARM_MONTH_MASK);
 908:Generated_Source\PSoC5/RTC_1.c ****     }
 909:Generated_Source\PSoC5/RTC_1.c **** }
 910:Generated_Source\PSoC5/RTC_1.c **** 
 911:Generated_Source\PSoC5/RTC_1.c **** 
 912:Generated_Source\PSoC5/RTC_1.c **** /*******************************************************************************
 913:Generated_Source\PSoC5/RTC_1.c **** * Function Name:   RTC_1_WriteAlarmYear
 914:Generated_Source\PSoC5/RTC_1.c **** ********************************************************************************
 915:Generated_Source\PSoC5/RTC_1.c **** *
 916:Generated_Source\PSoC5/RTC_1.c **** * Summary:
 917:Generated_Source\PSoC5/RTC_1.c **** *  Writes Alarm Year software register value.
 918:Generated_Source\PSoC5/RTC_1.c **** *
 919:Generated_Source\PSoC5/RTC_1.c **** * Parameters:
 920:Generated_Source\PSoC5/RTC_1.c **** *  year: Alarm year value.
 921:Generated_Source\PSoC5/RTC_1.c **** *
 922:Generated_Source\PSoC5/RTC_1.c **** * Return:
 923:Generated_Source\PSoC5/RTC_1.c **** *  None.
 924:Generated_Source\PSoC5/RTC_1.c **** *
 925:Generated_Source\PSoC5/RTC_1.c **** * Global variables:
 926:Generated_Source\PSoC5/RTC_1.c **** *  RTC_1_currentTimeDate.Year: this global variable is used for
 927:Generated_Source\PSoC5/RTC_1.c **** *  comparison while setting and clearing year alarm status variable.
 928:Generated_Source\PSoC5/RTC_1.c **** *
 929:Generated_Source\PSoC5/RTC_1.c **** *  RTC_1_alarmCfgTimeDate.Year: this global variable is modified
 930:Generated_Source\PSoC5/RTC_1.c **** *  to store of the new year alarm.
 931:Generated_Source\PSoC5/RTC_1.c **** *
 932:Generated_Source\PSoC5/RTC_1.c **** *  RTC_1_alarmCurStatus: this global variable could be changed if
 933:Generated_Source\PSoC5/RTC_1.c **** *  year alarm will be raised.
 934:Generated_Source\PSoC5/RTC_1.c **** *
 935:Generated_Source\PSoC5/RTC_1.c **** * Reentrant:
 936:Generated_Source\PSoC5/RTC_1.c **** *  No.
 937:Generated_Source\PSoC5/RTC_1.c **** *
 938:Generated_Source\PSoC5/RTC_1.c **** *******************************************************************************/
 939:Generated_Source\PSoC5/RTC_1.c **** void RTC_1_WriteAlarmYear(uint16 year) 
 940:Generated_Source\PSoC5/RTC_1.c **** {
 941:Generated_Source\PSoC5/RTC_1.c ****    RTC_1_alarmCfgTimeDate.Year = year;
 942:Generated_Source\PSoC5/RTC_1.c **** 
 943:Generated_Source\PSoC5/RTC_1.c ****     /* Check year alarm */
ARM GAS  C:\Users\HPz420\AppData\Local\Temp\cce1Gm9q.s 			page 18


 944:Generated_Source\PSoC5/RTC_1.c ****     if(RTC_1_alarmCfgTimeDate.Year == RTC_1_currentTimeDate.Year)
 945:Generated_Source\PSoC5/RTC_1.c ****     {
 946:Generated_Source\PSoC5/RTC_1.c ****         /* Set year alarm */
 947:Generated_Source\PSoC5/RTC_1.c ****         RTC_1_alarmCurStatus |= RTC_1_ALARM_YEAR_MASK;
 948:Generated_Source\PSoC5/RTC_1.c ****     }
 949:Generated_Source\PSoC5/RTC_1.c ****     else /* no year alarm */
 950:Generated_Source\PSoC5/RTC_1.c ****     {
 951:Generated_Source\PSoC5/RTC_1.c ****         /* Set year alarm */
 952:Generated_Source\PSoC5/RTC_1.c ****         RTC_1_alarmCurStatus &= (uint8)(~RTC_1_ALARM_YEAR_MASK);
 953:Generated_Source\PSoC5/RTC_1.c ****     }
 954:Generated_Source\PSoC5/RTC_1.c **** }
 955:Generated_Source\PSoC5/RTC_1.c **** 
 956:Generated_Source\PSoC5/RTC_1.c **** 
 957:Generated_Source\PSoC5/RTC_1.c **** /*******************************************************************************
 958:Generated_Source\PSoC5/RTC_1.c **** * Function Name:   RTC_1_WriteAlarmDayOfWeek
 959:Generated_Source\PSoC5/RTC_1.c **** ********************************************************************************
 960:Generated_Source\PSoC5/RTC_1.c **** *
 961:Generated_Source\PSoC5/RTC_1.c **** * Summary:
 962:Generated_Source\PSoC5/RTC_1.c **** *   Writes Alarm DayOfWeek software register value.
 963:Generated_Source\PSoC5/RTC_1.c **** *   Days values {Sun = 1, Mon = 2, Tue = 3, Wen = 4, Thu = 5, Fri = 6, Sat = 7}
 964:Generated_Source\PSoC5/RTC_1.c **** *
 965:Generated_Source\PSoC5/RTC_1.c **** * Parameters:
 966:Generated_Source\PSoC5/RTC_1.c **** *  dayOfWeek: Alarm day of week value.
 967:Generated_Source\PSoC5/RTC_1.c **** *
 968:Generated_Source\PSoC5/RTC_1.c **** * Return:
 969:Generated_Source\PSoC5/RTC_1.c **** *  None.
 970:Generated_Source\PSoC5/RTC_1.c **** *
 971:Generated_Source\PSoC5/RTC_1.c **** * Global variables:
 972:Generated_Source\PSoC5/RTC_1.c **** *  RTC_1_currentTimeDate.DayOfWeek: this global variable is used for
 973:Generated_Source\PSoC5/RTC_1.c **** *  comparison while setting and clearing day of week alarm status variable.
 974:Generated_Source\PSoC5/RTC_1.c **** *
 975:Generated_Source\PSoC5/RTC_1.c **** *  RTC_1_alarmCfgTimeDate.DayOfWeek: this global variable is modified
 976:Generated_Source\PSoC5/RTC_1.c **** *  to store of the new day of week alarm.
 977:Generated_Source\PSoC5/RTC_1.c **** *
 978:Generated_Source\PSoC5/RTC_1.c **** *  RTC_1_alarmCurStatus: this global variable could be changed if
 979:Generated_Source\PSoC5/RTC_1.c **** *  day of week alarm will be raised.
 980:Generated_Source\PSoC5/RTC_1.c **** *
 981:Generated_Source\PSoC5/RTC_1.c **** * Reentrant:
 982:Generated_Source\PSoC5/RTC_1.c **** *  No.
 983:Generated_Source\PSoC5/RTC_1.c **** *
 984:Generated_Source\PSoC5/RTC_1.c **** *******************************************************************************/
 985:Generated_Source\PSoC5/RTC_1.c **** void RTC_1_WriteAlarmDayOfWeek(uint8 dayOfWeek) 
 986:Generated_Source\PSoC5/RTC_1.c **** {
 987:Generated_Source\PSoC5/RTC_1.c ****     RTC_1_alarmCfgTimeDate.DayOfWeek = dayOfWeek;
 988:Generated_Source\PSoC5/RTC_1.c **** 
 989:Generated_Source\PSoC5/RTC_1.c ****     /* Check day of week alarm */
 990:Generated_Source\PSoC5/RTC_1.c ****     if(RTC_1_alarmCfgTimeDate.DayOfWeek == RTC_1_currentTimeDate.DayOfWeek)
 991:Generated_Source\PSoC5/RTC_1.c ****     {
 992:Generated_Source\PSoC5/RTC_1.c ****         /* Set day of week alarm */
 993:Generated_Source\PSoC5/RTC_1.c ****         RTC_1_alarmCurStatus |= RTC_1_ALARM_DAYOFWEEK_MASK;
 994:Generated_Source\PSoC5/RTC_1.c ****     }
 995:Generated_Source\PSoC5/RTC_1.c ****     else /* no day of week alarm */
 996:Generated_Source\PSoC5/RTC_1.c ****     {
 997:Generated_Source\PSoC5/RTC_1.c ****         /* Set day of week alarm */
 998:Generated_Source\PSoC5/RTC_1.c ****         RTC_1_alarmCurStatus &= (uint8)(~RTC_1_ALARM_DAYOFWEEK_MASK);
 999:Generated_Source\PSoC5/RTC_1.c ****     }
1000:Generated_Source\PSoC5/RTC_1.c **** }
ARM GAS  C:\Users\HPz420\AppData\Local\Temp\cce1Gm9q.s 			page 19


1001:Generated_Source\PSoC5/RTC_1.c **** 
1002:Generated_Source\PSoC5/RTC_1.c **** 
1003:Generated_Source\PSoC5/RTC_1.c **** /*******************************************************************************
1004:Generated_Source\PSoC5/RTC_1.c **** * Function Name:   RTC_1_WriteAlarmDayOfYear
1005:Generated_Source\PSoC5/RTC_1.c **** ********************************************************************************
1006:Generated_Source\PSoC5/RTC_1.c **** *
1007:Generated_Source\PSoC5/RTC_1.c **** * Summary:
1008:Generated_Source\PSoC5/RTC_1.c **** *  Writes Alarm DayOfYear software register value.
1009:Generated_Source\PSoC5/RTC_1.c **** *
1010:Generated_Source\PSoC5/RTC_1.c **** * Parameters:
1011:Generated_Source\PSoC5/RTC_1.c **** *  dayOfYear: Alarm day of year value.
1012:Generated_Source\PSoC5/RTC_1.c **** *
1013:Generated_Source\PSoC5/RTC_1.c **** * Return:
1014:Generated_Source\PSoC5/RTC_1.c **** *  None.
1015:Generated_Source\PSoC5/RTC_1.c **** *
1016:Generated_Source\PSoC5/RTC_1.c **** * Global variables:
1017:Generated_Source\PSoC5/RTC_1.c **** *  RTC_1_currentTimeDate.DayOfYear: this global variable is used for
1018:Generated_Source\PSoC5/RTC_1.c **** *  comparison while setting and clearing day of year alarm status variable.
1019:Generated_Source\PSoC5/RTC_1.c **** *
1020:Generated_Source\PSoC5/RTC_1.c **** *  RTC_1_alarmCfgTimeDate.DayOfYear: this global variable is modified
1021:Generated_Source\PSoC5/RTC_1.c **** *  to store of the new day of year alarm.
1022:Generated_Source\PSoC5/RTC_1.c **** *
1023:Generated_Source\PSoC5/RTC_1.c **** *  RTC_1_alarmCurStatus: this global variable could be changed if
1024:Generated_Source\PSoC5/RTC_1.c **** *  day of year alarm will be raised.
1025:Generated_Source\PSoC5/RTC_1.c **** *
1026:Generated_Source\PSoC5/RTC_1.c **** * Reentrant:
1027:Generated_Source\PSoC5/RTC_1.c **** *  No.
1028:Generated_Source\PSoC5/RTC_1.c **** *
1029:Generated_Source\PSoC5/RTC_1.c **** *******************************************************************************/
1030:Generated_Source\PSoC5/RTC_1.c **** void RTC_1_WriteAlarmDayOfYear(uint16 dayOfYear) 
1031:Generated_Source\PSoC5/RTC_1.c **** {
1032:Generated_Source\PSoC5/RTC_1.c ****   RTC_1_alarmCfgTimeDate.DayOfYear = dayOfYear;
1033:Generated_Source\PSoC5/RTC_1.c **** 
1034:Generated_Source\PSoC5/RTC_1.c ****     /* Check day of year alarm */
1035:Generated_Source\PSoC5/RTC_1.c ****     if(RTC_1_alarmCfgTimeDate.DayOfYear == RTC_1_currentTimeDate.DayOfYear)
1036:Generated_Source\PSoC5/RTC_1.c ****     {
1037:Generated_Source\PSoC5/RTC_1.c ****         /* Set day of year alarm */
1038:Generated_Source\PSoC5/RTC_1.c ****         RTC_1_alarmCurStatus |= RTC_1_ALARM_DAYOFYEAR_MASK;
1039:Generated_Source\PSoC5/RTC_1.c ****     }
1040:Generated_Source\PSoC5/RTC_1.c ****     else /* no day of year alarm */
1041:Generated_Source\PSoC5/RTC_1.c ****     {
1042:Generated_Source\PSoC5/RTC_1.c ****         /* Set day of year alarm */
1043:Generated_Source\PSoC5/RTC_1.c ****         RTC_1_alarmCurStatus &= (uint8)(~RTC_1_ALARM_DAYOFYEAR_MASK);
1044:Generated_Source\PSoC5/RTC_1.c ****     }
1045:Generated_Source\PSoC5/RTC_1.c **** }
1046:Generated_Source\PSoC5/RTC_1.c **** 
1047:Generated_Source\PSoC5/RTC_1.c **** 
1048:Generated_Source\PSoC5/RTC_1.c **** /*******************************************************************************
1049:Generated_Source\PSoC5/RTC_1.c **** * Function Name:   RTC_1_ReadSecond
1050:Generated_Source\PSoC5/RTC_1.c **** ********************************************************************************
1051:Generated_Source\PSoC5/RTC_1.c **** *
1052:Generated_Source\PSoC5/RTC_1.c **** * Summary:
1053:Generated_Source\PSoC5/RTC_1.c **** *  Reads Sec software register value.
1054:Generated_Source\PSoC5/RTC_1.c **** *
1055:Generated_Source\PSoC5/RTC_1.c **** * Parameters:
1056:Generated_Source\PSoC5/RTC_1.c **** *  None.
1057:Generated_Source\PSoC5/RTC_1.c **** *
ARM GAS  C:\Users\HPz420\AppData\Local\Temp\cce1Gm9q.s 			page 20


1058:Generated_Source\PSoC5/RTC_1.c **** * Return:
1059:Generated_Source\PSoC5/RTC_1.c **** *  Current seconds value.
1060:Generated_Source\PSoC5/RTC_1.c **** *
1061:Generated_Source\PSoC5/RTC_1.c **** * Global variables:
1062:Generated_Source\PSoC5/RTC_1.c **** *  RTC_1_currentTimeDate.Sec: the current second's value is used.
1063:Generated_Source\PSoC5/RTC_1.c **** *
1064:Generated_Source\PSoC5/RTC_1.c **** *******************************************************************************/
1065:Generated_Source\PSoC5/RTC_1.c **** uint8 RTC_1_ReadSecond(void) 
1066:Generated_Source\PSoC5/RTC_1.c **** {
1067:Generated_Source\PSoC5/RTC_1.c ****     /* Return current second */
1068:Generated_Source\PSoC5/RTC_1.c ****     return (RTC_1_currentTimeDate.Sec);
1069:Generated_Source\PSoC5/RTC_1.c **** }
1070:Generated_Source\PSoC5/RTC_1.c **** 
1071:Generated_Source\PSoC5/RTC_1.c **** 
1072:Generated_Source\PSoC5/RTC_1.c **** /*******************************************************************************
1073:Generated_Source\PSoC5/RTC_1.c **** * Function Name:   RTC_1_ReadMinute
1074:Generated_Source\PSoC5/RTC_1.c **** ********************************************************************************
1075:Generated_Source\PSoC5/RTC_1.c **** *
1076:Generated_Source\PSoC5/RTC_1.c **** * Summary:
1077:Generated_Source\PSoC5/RTC_1.c **** *  Reads Min software register value.
1078:Generated_Source\PSoC5/RTC_1.c **** *
1079:Generated_Source\PSoC5/RTC_1.c **** * Parameters:
1080:Generated_Source\PSoC5/RTC_1.c **** *  None.
1081:Generated_Source\PSoC5/RTC_1.c **** *
1082:Generated_Source\PSoC5/RTC_1.c **** * Return:
1083:Generated_Source\PSoC5/RTC_1.c **** *  Current field's value is returned.
1084:Generated_Source\PSoC5/RTC_1.c **** *
1085:Generated_Source\PSoC5/RTC_1.c **** * Global variables:
1086:Generated_Source\PSoC5/RTC_1.c **** *  RTC_1_currentTimeDate.Min: the current field's value is used.
1087:Generated_Source\PSoC5/RTC_1.c **** *
1088:Generated_Source\PSoC5/RTC_1.c **** *******************************************************************************/
1089:Generated_Source\PSoC5/RTC_1.c **** uint8 RTC_1_ReadMinute(void) 
1090:Generated_Source\PSoC5/RTC_1.c **** {
1091:Generated_Source\PSoC5/RTC_1.c ****     /* Return current minute */
1092:Generated_Source\PSoC5/RTC_1.c ****     return (RTC_1_currentTimeDate.Min);
1093:Generated_Source\PSoC5/RTC_1.c **** }
1094:Generated_Source\PSoC5/RTC_1.c **** 
1095:Generated_Source\PSoC5/RTC_1.c **** 
1096:Generated_Source\PSoC5/RTC_1.c **** /*******************************************************************************
1097:Generated_Source\PSoC5/RTC_1.c **** * Function Name:   RTC_1_ReadHour
1098:Generated_Source\PSoC5/RTC_1.c **** ********************************************************************************
1099:Generated_Source\PSoC5/RTC_1.c **** *
1100:Generated_Source\PSoC5/RTC_1.c **** * Summary:
1101:Generated_Source\PSoC5/RTC_1.c **** *  Reads Hour software register value.
1102:Generated_Source\PSoC5/RTC_1.c **** *
1103:Generated_Source\PSoC5/RTC_1.c **** * Parameters:
1104:Generated_Source\PSoC5/RTC_1.c **** *  None.
1105:Generated_Source\PSoC5/RTC_1.c **** *
1106:Generated_Source\PSoC5/RTC_1.c **** * Return:
1107:Generated_Source\PSoC5/RTC_1.c **** *  Current hour's value.
1108:Generated_Source\PSoC5/RTC_1.c **** *
1109:Generated_Source\PSoC5/RTC_1.c **** * Global variables:
1110:Generated_Source\PSoC5/RTC_1.c **** *  RTC_1_currentTimeDate.Hour: the current field's value is used.
1111:Generated_Source\PSoC5/RTC_1.c **** *
1112:Generated_Source\PSoC5/RTC_1.c **** *******************************************************************************/
1113:Generated_Source\PSoC5/RTC_1.c **** uint8 RTC_1_ReadHour(void) 
1114:Generated_Source\PSoC5/RTC_1.c **** {
ARM GAS  C:\Users\HPz420\AppData\Local\Temp\cce1Gm9q.s 			page 21


1115:Generated_Source\PSoC5/RTC_1.c ****     /* Return current hour */
1116:Generated_Source\PSoC5/RTC_1.c ****     return (RTC_1_currentTimeDate.Hour);
1117:Generated_Source\PSoC5/RTC_1.c **** }
1118:Generated_Source\PSoC5/RTC_1.c **** 
1119:Generated_Source\PSoC5/RTC_1.c **** 
1120:Generated_Source\PSoC5/RTC_1.c **** /*******************************************************************************
1121:Generated_Source\PSoC5/RTC_1.c **** * Function Name:   RTC_1_ReadDayOfMonth
1122:Generated_Source\PSoC5/RTC_1.c **** ********************************************************************************
1123:Generated_Source\PSoC5/RTC_1.c **** *
1124:Generated_Source\PSoC5/RTC_1.c **** * Summary:
1125:Generated_Source\PSoC5/RTC_1.c **** *  Reads DayOfMonth software register value.
1126:Generated_Source\PSoC5/RTC_1.c **** *
1127:Generated_Source\PSoC5/RTC_1.c **** * Parameters:
1128:Generated_Source\PSoC5/RTC_1.c **** *  None.
1129:Generated_Source\PSoC5/RTC_1.c **** *
1130:Generated_Source\PSoC5/RTC_1.c **** * Return:
1131:Generated_Source\PSoC5/RTC_1.c **** *  Current value of the day of month.
1132:Generated_Source\PSoC5/RTC_1.c **** *  returned.
1133:Generated_Source\PSoC5/RTC_1.c **** *
1134:Generated_Source\PSoC5/RTC_1.c **** * Global variables:
1135:Generated_Source\PSoC5/RTC_1.c **** *  RTC_1_currentTimeDate.DayOfMonth: the current day of month's
1136:Generated_Source\PSoC5/RTC_1.c **** *  value is used.
1137:Generated_Source\PSoC5/RTC_1.c **** *
1138:Generated_Source\PSoC5/RTC_1.c **** *******************************************************************************/
1139:Generated_Source\PSoC5/RTC_1.c **** uint8 RTC_1_ReadDayOfMonth(void) 
1140:Generated_Source\PSoC5/RTC_1.c **** {
1141:Generated_Source\PSoC5/RTC_1.c ****     /* Return current day of the month */
1142:Generated_Source\PSoC5/RTC_1.c ****     return (RTC_1_currentTimeDate.DayOfMonth);
1143:Generated_Source\PSoC5/RTC_1.c **** }
1144:Generated_Source\PSoC5/RTC_1.c **** 
1145:Generated_Source\PSoC5/RTC_1.c **** 
1146:Generated_Source\PSoC5/RTC_1.c **** /*******************************************************************************
1147:Generated_Source\PSoC5/RTC_1.c **** * Function Name:   RTC_1_ReadMonth
1148:Generated_Source\PSoC5/RTC_1.c **** ********************************************************************************
1149:Generated_Source\PSoC5/RTC_1.c **** *
1150:Generated_Source\PSoC5/RTC_1.c **** * Summary:
1151:Generated_Source\PSoC5/RTC_1.c **** *  Reads Month software register value.
1152:Generated_Source\PSoC5/RTC_1.c **** *
1153:Generated_Source\PSoC5/RTC_1.c **** * Parameters:
1154:Generated_Source\PSoC5/RTC_1.c **** *  None.
1155:Generated_Source\PSoC5/RTC_1.c **** *
1156:Generated_Source\PSoC5/RTC_1.c **** * Return:
1157:Generated_Source\PSoC5/RTC_1.c **** *  Current value of the month.
1158:Generated_Source\PSoC5/RTC_1.c **** *
1159:Generated_Source\PSoC5/RTC_1.c **** * Global variables:
1160:Generated_Source\PSoC5/RTC_1.c **** *  RTC_1_currentTimeDate.Month: the current month's value is used.
1161:Generated_Source\PSoC5/RTC_1.c **** *
1162:Generated_Source\PSoC5/RTC_1.c **** *******************************************************************************/
1163:Generated_Source\PSoC5/RTC_1.c **** uint8 RTC_1_ReadMonth(void) 
1164:Generated_Source\PSoC5/RTC_1.c **** {
1165:Generated_Source\PSoC5/RTC_1.c ****     /* Return current month */
1166:Generated_Source\PSoC5/RTC_1.c ****     return (RTC_1_currentTimeDate.Month);
1167:Generated_Source\PSoC5/RTC_1.c **** }
1168:Generated_Source\PSoC5/RTC_1.c **** 
1169:Generated_Source\PSoC5/RTC_1.c **** 
1170:Generated_Source\PSoC5/RTC_1.c **** /*******************************************************************************
1171:Generated_Source\PSoC5/RTC_1.c **** * Function Name:   RTC_1_ReadYear
ARM GAS  C:\Users\HPz420\AppData\Local\Temp\cce1Gm9q.s 			page 22


1172:Generated_Source\PSoC5/RTC_1.c **** ********************************************************************************
1173:Generated_Source\PSoC5/RTC_1.c **** *
1174:Generated_Source\PSoC5/RTC_1.c **** * Summary:
1175:Generated_Source\PSoC5/RTC_1.c **** *  Reads Year software register value.
1176:Generated_Source\PSoC5/RTC_1.c **** *
1177:Generated_Source\PSoC5/RTC_1.c **** * Parameters:
1178:Generated_Source\PSoC5/RTC_1.c **** *  None.
1179:Generated_Source\PSoC5/RTC_1.c **** *
1180:Generated_Source\PSoC5/RTC_1.c **** * Return:
1181:Generated_Source\PSoC5/RTC_1.c **** *  Current value of the year.
1182:Generated_Source\PSoC5/RTC_1.c **** *
1183:Generated_Source\PSoC5/RTC_1.c **** * Global variables:
1184:Generated_Source\PSoC5/RTC_1.c **** *  RTC_1_currentTimeDate.Year: the current year's value is used.
1185:Generated_Source\PSoC5/RTC_1.c **** *
1186:Generated_Source\PSoC5/RTC_1.c **** *******************************************************************************/
1187:Generated_Source\PSoC5/RTC_1.c **** uint16 RTC_1_ReadYear(void) 
1188:Generated_Source\PSoC5/RTC_1.c **** {
1189:Generated_Source\PSoC5/RTC_1.c ****     /* Return current year */
1190:Generated_Source\PSoC5/RTC_1.c ****     return (RTC_1_currentTimeDate.Year);
1191:Generated_Source\PSoC5/RTC_1.c **** }
1192:Generated_Source\PSoC5/RTC_1.c **** 
1193:Generated_Source\PSoC5/RTC_1.c **** 
1194:Generated_Source\PSoC5/RTC_1.c **** /*******************************************************************************
1195:Generated_Source\PSoC5/RTC_1.c **** * Function Name:   RTC_1_ReadAlarmSecond
1196:Generated_Source\PSoC5/RTC_1.c **** ********************************************************************************
1197:Generated_Source\PSoC5/RTC_1.c **** *
1198:Generated_Source\PSoC5/RTC_1.c **** * Summary:
1199:Generated_Source\PSoC5/RTC_1.c **** *  Reads Alarm Sec software register value.
1200:Generated_Source\PSoC5/RTC_1.c **** *
1201:Generated_Source\PSoC5/RTC_1.c **** * Parameters:
1202:Generated_Source\PSoC5/RTC_1.c **** *  None.
1203:Generated_Source\PSoC5/RTC_1.c **** *
1204:Generated_Source\PSoC5/RTC_1.c **** * Return:
1205:Generated_Source\PSoC5/RTC_1.c **** *  Current alarm value of the seconds.
1206:Generated_Source\PSoC5/RTC_1.c **** *
1207:Generated_Source\PSoC5/RTC_1.c **** * Global variables:
1208:Generated_Source\PSoC5/RTC_1.c **** *  RTC_1_alarmCfgTimeDate.Sec: the current second alarm value is
1209:Generated_Source\PSoC5/RTC_1.c **** *  used.
1210:Generated_Source\PSoC5/RTC_1.c **** *
1211:Generated_Source\PSoC5/RTC_1.c **** ********************************************************************************/
1212:Generated_Source\PSoC5/RTC_1.c **** uint8 RTC_1_ReadAlarmSecond(void) 
1213:Generated_Source\PSoC5/RTC_1.c **** {
1214:Generated_Source\PSoC5/RTC_1.c ****     /* Return current alarm second */
1215:Generated_Source\PSoC5/RTC_1.c ****     return (RTC_1_alarmCfgTimeDate.Sec);
1216:Generated_Source\PSoC5/RTC_1.c **** }
1217:Generated_Source\PSoC5/RTC_1.c **** 
1218:Generated_Source\PSoC5/RTC_1.c **** 
1219:Generated_Source\PSoC5/RTC_1.c **** /*******************************************************************************
1220:Generated_Source\PSoC5/RTC_1.c **** * Function Name:   RTC_1_ReadAlarmMinute
1221:Generated_Source\PSoC5/RTC_1.c **** ********************************************************************************
1222:Generated_Source\PSoC5/RTC_1.c **** *
1223:Generated_Source\PSoC5/RTC_1.c **** * Summary:
1224:Generated_Source\PSoC5/RTC_1.c **** *  Reads Alarm Min software register value.
1225:Generated_Source\PSoC5/RTC_1.c **** *
1226:Generated_Source\PSoC5/RTC_1.c **** * Parameters:
1227:Generated_Source\PSoC5/RTC_1.c **** *  None.
1228:Generated_Source\PSoC5/RTC_1.c **** *
ARM GAS  C:\Users\HPz420\AppData\Local\Temp\cce1Gm9q.s 			page 23


1229:Generated_Source\PSoC5/RTC_1.c **** * Return:
1230:Generated_Source\PSoC5/RTC_1.c **** *  Current alarm value of the minutes.
1231:Generated_Source\PSoC5/RTC_1.c **** *
1232:Generated_Source\PSoC5/RTC_1.c **** * Global variables:
1233:Generated_Source\PSoC5/RTC_1.c **** *  RTC_1_alarmCfgTimeDate.Min: the current minute alarm is used.
1234:Generated_Source\PSoC5/RTC_1.c **** *
1235:Generated_Source\PSoC5/RTC_1.c **** *******************************************************************************/
1236:Generated_Source\PSoC5/RTC_1.c **** uint8 RTC_1_ReadAlarmMinute(void) 
1237:Generated_Source\PSoC5/RTC_1.c **** {
1238:Generated_Source\PSoC5/RTC_1.c ****     /* Return current alarm minute */
1239:Generated_Source\PSoC5/RTC_1.c ****     return (RTC_1_alarmCfgTimeDate.Min);
1240:Generated_Source\PSoC5/RTC_1.c **** }
1241:Generated_Source\PSoC5/RTC_1.c **** 
1242:Generated_Source\PSoC5/RTC_1.c **** 
1243:Generated_Source\PSoC5/RTC_1.c **** /*******************************************************************************
1244:Generated_Source\PSoC5/RTC_1.c **** * Function Name:   RTC_1_ReadAlarmHour
1245:Generated_Source\PSoC5/RTC_1.c **** ********************************************************************************
1246:Generated_Source\PSoC5/RTC_1.c **** *
1247:Generated_Source\PSoC5/RTC_1.c **** * Summary:
1248:Generated_Source\PSoC5/RTC_1.c **** *  Reads Alarm Hour software register value.
1249:Generated_Source\PSoC5/RTC_1.c **** *
1250:Generated_Source\PSoC5/RTC_1.c **** * Parameters:
1251:Generated_Source\PSoC5/RTC_1.c **** *  None.
1252:Generated_Source\PSoC5/RTC_1.c **** *
1253:Generated_Source\PSoC5/RTC_1.c **** * Return:
1254:Generated_Source\PSoC5/RTC_1.c **** *  Current alarm value of the hours.
1255:Generated_Source\PSoC5/RTC_1.c **** *
1256:Generated_Source\PSoC5/RTC_1.c **** * Global variables:
1257:Generated_Source\PSoC5/RTC_1.c **** *  RTC_1_alarmCfgTimeDate.Hour: the current hour alarm value is used.
1258:Generated_Source\PSoC5/RTC_1.c **** *
1259:Generated_Source\PSoC5/RTC_1.c **** *******************************************************************************/
1260:Generated_Source\PSoC5/RTC_1.c **** uint8 RTC_1_ReadAlarmHour(void) 
1261:Generated_Source\PSoC5/RTC_1.c **** {
1262:Generated_Source\PSoC5/RTC_1.c ****     /* Return current alarm hour */
1263:Generated_Source\PSoC5/RTC_1.c ****     return (RTC_1_alarmCfgTimeDate.Hour);
1264:Generated_Source\PSoC5/RTC_1.c **** }
1265:Generated_Source\PSoC5/RTC_1.c **** 
1266:Generated_Source\PSoC5/RTC_1.c **** 
1267:Generated_Source\PSoC5/RTC_1.c **** /*******************************************************************************
1268:Generated_Source\PSoC5/RTC_1.c **** * Function Name:   RTC_1_ReadAlarmDayOfMonth
1269:Generated_Source\PSoC5/RTC_1.c **** ********************************************************************************
1270:Generated_Source\PSoC5/RTC_1.c **** *
1271:Generated_Source\PSoC5/RTC_1.c **** * Summary:
1272:Generated_Source\PSoC5/RTC_1.c **** *  Reads Alarm DayOfMonth software register value.
1273:Generated_Source\PSoC5/RTC_1.c **** *
1274:Generated_Source\PSoC5/RTC_1.c **** * Parameters:
1275:Generated_Source\PSoC5/RTC_1.c **** *  None.
1276:Generated_Source\PSoC5/RTC_1.c **** *
1277:Generated_Source\PSoC5/RTC_1.c **** * Return:
1278:Generated_Source\PSoC5/RTC_1.c **** *  Current alarm value of the day of month.
1279:Generated_Source\PSoC5/RTC_1.c **** *
1280:Generated_Source\PSoC5/RTC_1.c **** * Global variables:
1281:Generated_Source\PSoC5/RTC_1.c **** *  RTC_1_alarmCfgTimeDate.DayOfMonth: the current day of month alarm
1282:Generated_Source\PSoC5/RTC_1.c **** *  value is used.
1283:Generated_Source\PSoC5/RTC_1.c **** *
1284:Generated_Source\PSoC5/RTC_1.c **** *******************************************************************************/
1285:Generated_Source\PSoC5/RTC_1.c **** uint8 RTC_1_ReadAlarmDayOfMonth(void) 
ARM GAS  C:\Users\HPz420\AppData\Local\Temp\cce1Gm9q.s 			page 24


1286:Generated_Source\PSoC5/RTC_1.c **** {
1287:Generated_Source\PSoC5/RTC_1.c ****     /* Return current alarm day of month */
1288:Generated_Source\PSoC5/RTC_1.c ****     return (RTC_1_alarmCfgTimeDate.DayOfMonth);
1289:Generated_Source\PSoC5/RTC_1.c **** }
1290:Generated_Source\PSoC5/RTC_1.c **** 
1291:Generated_Source\PSoC5/RTC_1.c **** 
1292:Generated_Source\PSoC5/RTC_1.c **** /*******************************************************************************
1293:Generated_Source\PSoC5/RTC_1.c **** * Function Name:   RTC_1_ReadAlarmMonth
1294:Generated_Source\PSoC5/RTC_1.c **** ********************************************************************************
1295:Generated_Source\PSoC5/RTC_1.c **** *
1296:Generated_Source\PSoC5/RTC_1.c **** * Summary:
1297:Generated_Source\PSoC5/RTC_1.c **** *  Reads Alarm Month software register value.
1298:Generated_Source\PSoC5/RTC_1.c **** *
1299:Generated_Source\PSoC5/RTC_1.c **** * Parameters:
1300:Generated_Source\PSoC5/RTC_1.c **** *  None.
1301:Generated_Source\PSoC5/RTC_1.c **** *
1302:Generated_Source\PSoC5/RTC_1.c **** * Return:
1303:Generated_Source\PSoC5/RTC_1.c **** *  Current alarm value of the month.
1304:Generated_Source\PSoC5/RTC_1.c **** *
1305:Generated_Source\PSoC5/RTC_1.c **** * Global variables:
1306:Generated_Source\PSoC5/RTC_1.c **** *  RTC_1_alarmCfgTimeDate.Month: the current month alarm value is
1307:Generated_Source\PSoC5/RTC_1.c **** *  used.
1308:Generated_Source\PSoC5/RTC_1.c **** *
1309:Generated_Source\PSoC5/RTC_1.c **** *******************************************************************************/
1310:Generated_Source\PSoC5/RTC_1.c **** uint8 RTC_1_ReadAlarmMonth(void) 
1311:Generated_Source\PSoC5/RTC_1.c **** {
1312:Generated_Source\PSoC5/RTC_1.c ****     /* Return current alarm month */
1313:Generated_Source\PSoC5/RTC_1.c ****     return (RTC_1_alarmCfgTimeDate.Month);
1314:Generated_Source\PSoC5/RTC_1.c **** }
1315:Generated_Source\PSoC5/RTC_1.c **** 
1316:Generated_Source\PSoC5/RTC_1.c **** 
1317:Generated_Source\PSoC5/RTC_1.c **** /*******************************************************************************
1318:Generated_Source\PSoC5/RTC_1.c **** * Function Name:   RTC_1_ReadAlarmYear
1319:Generated_Source\PSoC5/RTC_1.c **** ********************************************************************************
1320:Generated_Source\PSoC5/RTC_1.c **** *
1321:Generated_Source\PSoC5/RTC_1.c **** * Summary:
1322:Generated_Source\PSoC5/RTC_1.c **** *  Reads Alarm Year software register value.
1323:Generated_Source\PSoC5/RTC_1.c **** *
1324:Generated_Source\PSoC5/RTC_1.c **** * Parameters:
1325:Generated_Source\PSoC5/RTC_1.c **** *  None.
1326:Generated_Source\PSoC5/RTC_1.c **** *
1327:Generated_Source\PSoC5/RTC_1.c **** * Return:
1328:Generated_Source\PSoC5/RTC_1.c **** *  Current alarm value of the years.
1329:Generated_Source\PSoC5/RTC_1.c **** *
1330:Generated_Source\PSoC5/RTC_1.c **** * Global variables:
1331:Generated_Source\PSoC5/RTC_1.c **** *  RTC_1_alarmCfgTimeDate.Year: the current year alarm value is used.
1332:Generated_Source\PSoC5/RTC_1.c **** *
1333:Generated_Source\PSoC5/RTC_1.c **** *******************************************************************************/
1334:Generated_Source\PSoC5/RTC_1.c **** uint16 RTC_1_ReadAlarmYear(void) 
1335:Generated_Source\PSoC5/RTC_1.c **** {
1336:Generated_Source\PSoC5/RTC_1.c ****     /* Return current alarm year */
1337:Generated_Source\PSoC5/RTC_1.c ****     return (RTC_1_alarmCfgTimeDate.Year);
1338:Generated_Source\PSoC5/RTC_1.c **** }
1339:Generated_Source\PSoC5/RTC_1.c **** 
1340:Generated_Source\PSoC5/RTC_1.c **** 
1341:Generated_Source\PSoC5/RTC_1.c **** /*******************************************************************************
1342:Generated_Source\PSoC5/RTC_1.c **** * Function Name:   RTC_1_ReadAlarmDayOfWeek
ARM GAS  C:\Users\HPz420\AppData\Local\Temp\cce1Gm9q.s 			page 25


1343:Generated_Source\PSoC5/RTC_1.c **** ********************************************************************************
1344:Generated_Source\PSoC5/RTC_1.c **** *
1345:Generated_Source\PSoC5/RTC_1.c **** * Summary:
1346:Generated_Source\PSoC5/RTC_1.c **** *  Reads Alarm DayOfWeek software register value.
1347:Generated_Source\PSoC5/RTC_1.c **** *
1348:Generated_Source\PSoC5/RTC_1.c **** * Parameters:
1349:Generated_Source\PSoC5/RTC_1.c **** *  None.
1350:Generated_Source\PSoC5/RTC_1.c **** *
1351:Generated_Source\PSoC5/RTC_1.c **** * Return:
1352:Generated_Source\PSoC5/RTC_1.c **** *  Current alarm value of the day of week.
1353:Generated_Source\PSoC5/RTC_1.c **** *
1354:Generated_Source\PSoC5/RTC_1.c **** * Global variables:
1355:Generated_Source\PSoC5/RTC_1.c **** *  RTC_1_alarmCfgTimeDate.DayOfWeek: the current day of week alarm
1356:Generated_Source\PSoC5/RTC_1.c **** *  value is used.
1357:Generated_Source\PSoC5/RTC_1.c **** *
1358:Generated_Source\PSoC5/RTC_1.c **** *******************************************************************************/
1359:Generated_Source\PSoC5/RTC_1.c **** uint8 RTC_1_ReadAlarmDayOfWeek(void) 
1360:Generated_Source\PSoC5/RTC_1.c **** {
1361:Generated_Source\PSoC5/RTC_1.c ****     /* Return current alarm day of the week */
1362:Generated_Source\PSoC5/RTC_1.c ****     return (RTC_1_alarmCfgTimeDate.DayOfWeek);
1363:Generated_Source\PSoC5/RTC_1.c **** }
1364:Generated_Source\PSoC5/RTC_1.c **** 
1365:Generated_Source\PSoC5/RTC_1.c **** 
1366:Generated_Source\PSoC5/RTC_1.c **** /*******************************************************************************
1367:Generated_Source\PSoC5/RTC_1.c **** * Function Name:   RTC_1_ReadAlarmDayOfYear
1368:Generated_Source\PSoC5/RTC_1.c **** ********************************************************************************
1369:Generated_Source\PSoC5/RTC_1.c **** *
1370:Generated_Source\PSoC5/RTC_1.c **** * Summary:
1371:Generated_Source\PSoC5/RTC_1.c **** *  Reads Alarm DayOfYear software register value.
1372:Generated_Source\PSoC5/RTC_1.c **** *
1373:Generated_Source\PSoC5/RTC_1.c **** * Parameters:
1374:Generated_Source\PSoC5/RTC_1.c **** *  None.
1375:Generated_Source\PSoC5/RTC_1.c **** *
1376:Generated_Source\PSoC5/RTC_1.c **** * Return:
1377:Generated_Source\PSoC5/RTC_1.c **** *  Current alarm value of the day of year.
1378:Generated_Source\PSoC5/RTC_1.c **** *
1379:Generated_Source\PSoC5/RTC_1.c **** * Global variables:
1380:Generated_Source\PSoC5/RTC_1.c **** *  RTC_1_alarmCfgTimeDate.DayOfYear: the current day of year alarm
1381:Generated_Source\PSoC5/RTC_1.c **** *  value is used.
1382:Generated_Source\PSoC5/RTC_1.c **** *
1383:Generated_Source\PSoC5/RTC_1.c **** *******************************************************************************/
1384:Generated_Source\PSoC5/RTC_1.c **** uint16 RTC_1_ReadAlarmDayOfYear(void) 
1385:Generated_Source\PSoC5/RTC_1.c **** {
1386:Generated_Source\PSoC5/RTC_1.c ****     /* Return current alarm day of the year */
1387:Generated_Source\PSoC5/RTC_1.c ****     return  (RTC_1_alarmCfgTimeDate.DayOfYear);
1388:Generated_Source\PSoC5/RTC_1.c **** }
1389:Generated_Source\PSoC5/RTC_1.c **** 
1390:Generated_Source\PSoC5/RTC_1.c **** 
1391:Generated_Source\PSoC5/RTC_1.c **** /*******************************************************************************
1392:Generated_Source\PSoC5/RTC_1.c **** * Function Name:   RTC_1_WriteAlarmMask
1393:Generated_Source\PSoC5/RTC_1.c **** ********************************************************************************
1394:Generated_Source\PSoC5/RTC_1.c **** *
1395:Generated_Source\PSoC5/RTC_1.c **** * Summary:
1396:Generated_Source\PSoC5/RTC_1.c **** *  Writes the Alarm Mask software register with 1 bit per time/date entry. Alarm
1397:Generated_Source\PSoC5/RTC_1.c **** *  true when all masked time/date values match Alarm values.
1398:Generated_Source\PSoC5/RTC_1.c **** *
1399:Generated_Source\PSoC5/RTC_1.c **** * Parameters:
ARM GAS  C:\Users\HPz420\AppData\Local\Temp\cce1Gm9q.s 			page 26


1400:Generated_Source\PSoC5/RTC_1.c **** *  mask: Alarm Mask software register value.
1401:Generated_Source\PSoC5/RTC_1.c **** *
1402:Generated_Source\PSoC5/RTC_1.c **** * Return:
1403:Generated_Source\PSoC5/RTC_1.c **** *  None.
1404:Generated_Source\PSoC5/RTC_1.c **** *
1405:Generated_Source\PSoC5/RTC_1.c **** * Global variables:
1406:Generated_Source\PSoC5/RTC_1.c **** *  RTC_1_alarmCfgMask: global variable which stores masks for
1407:Generated_Source\PSoC5/RTC_1.c **** *  time/date alarm configuration is modified.
1408:Generated_Source\PSoC5/RTC_1.c **** *
1409:Generated_Source\PSoC5/RTC_1.c **** * Reentrant:
1410:Generated_Source\PSoC5/RTC_1.c **** *  No.
1411:Generated_Source\PSoC5/RTC_1.c **** *
1412:Generated_Source\PSoC5/RTC_1.c **** *******************************************************************************/
1413:Generated_Source\PSoC5/RTC_1.c **** void RTC_1_WriteAlarmMask(uint8 mask) 
1414:Generated_Source\PSoC5/RTC_1.c **** {
1415:Generated_Source\PSoC5/RTC_1.c ****     RTC_1_alarmCfgMask = mask;
1416:Generated_Source\PSoC5/RTC_1.c **** }
1417:Generated_Source\PSoC5/RTC_1.c **** 
1418:Generated_Source\PSoC5/RTC_1.c **** 
1419:Generated_Source\PSoC5/RTC_1.c **** /*******************************************************************************
1420:Generated_Source\PSoC5/RTC_1.c **** * Function Name:   RTC_1_WriteIntervalMask
1421:Generated_Source\PSoC5/RTC_1.c **** ********************************************************************************
1422:Generated_Source\PSoC5/RTC_1.c **** *
1423:Generated_Source\PSoC5/RTC_1.c **** * Summary:
1424:Generated_Source\PSoC5/RTC_1.c **** *  Writes the Interval Mask software register with 1 bit per time/date entry.
1425:Generated_Source\PSoC5/RTC_1.c **** *  Interrupt true when any masked time/date overflow occur.
1426:Generated_Source\PSoC5/RTC_1.c **** *
1427:Generated_Source\PSoC5/RTC_1.c **** * Parameters:
1428:Generated_Source\PSoC5/RTC_1.c **** *  mask: Alarm Mask software register value.
1429:Generated_Source\PSoC5/RTC_1.c **** *
1430:Generated_Source\PSoC5/RTC_1.c **** * Return:
1431:Generated_Source\PSoC5/RTC_1.c **** *  None.
1432:Generated_Source\PSoC5/RTC_1.c **** *
1433:Generated_Source\PSoC5/RTC_1.c **** * Global variables:
1434:Generated_Source\PSoC5/RTC_1.c **** *  RTC_1_intervalCfgMask: this global variable is modified - the new
1435:Generated_Source\PSoC5/RTC_1.c **** *  value of interval mask is stored here.
1436:Generated_Source\PSoC5/RTC_1.c **** *
1437:Generated_Source\PSoC5/RTC_1.c **** * Reentrant:
1438:Generated_Source\PSoC5/RTC_1.c **** *  No.
1439:Generated_Source\PSoC5/RTC_1.c **** *
1440:Generated_Source\PSoC5/RTC_1.c **** *******************************************************************************/
1441:Generated_Source\PSoC5/RTC_1.c **** void RTC_1_WriteIntervalMask(uint8 mask) 
1442:Generated_Source\PSoC5/RTC_1.c **** {
1443:Generated_Source\PSoC5/RTC_1.c ****     RTC_1_intervalCfgMask = mask;
1444:Generated_Source\PSoC5/RTC_1.c **** }
1445:Generated_Source\PSoC5/RTC_1.c **** 
1446:Generated_Source\PSoC5/RTC_1.c **** 
1447:Generated_Source\PSoC5/RTC_1.c **** /*******************************************************************************
1448:Generated_Source\PSoC5/RTC_1.c **** * Function Name:   RTC_1_ReadStatus
1449:Generated_Source\PSoC5/RTC_1.c **** ********************************************************************************
1450:Generated_Source\PSoC5/RTC_1.c **** *
1451:Generated_Source\PSoC5/RTC_1.c **** * Summary:
1452:Generated_Source\PSoC5/RTC_1.c **** *  Reads the Status software register which has flags for DST
1453:Generated_Source\PSoC5/RTC_1.c **** *  (DST), Leap Year (LY) and AM/PM (AM_PM), Alarm active (AA).
1454:Generated_Source\PSoC5/RTC_1.c **** *
1455:Generated_Source\PSoC5/RTC_1.c **** * Parameters:
1456:Generated_Source\PSoC5/RTC_1.c **** *  None.
ARM GAS  C:\Users\HPz420\AppData\Local\Temp\cce1Gm9q.s 			page 27


1457:Generated_Source\PSoC5/RTC_1.c **** *
1458:Generated_Source\PSoC5/RTC_1.c **** * Return:
1459:Generated_Source\PSoC5/RTC_1.c **** *  None.
1460:Generated_Source\PSoC5/RTC_1.c **** *
1461:Generated_Source\PSoC5/RTC_1.c **** * Global variables:
1462:Generated_Source\PSoC5/RTC_1.c **** *  RTC_1_statusDateTime: global variable is modified - active alarm
1463:Generated_Source\PSoC5/RTC_1.c **** *  status bit is cleared.
1464:Generated_Source\PSoC5/RTC_1.c **** *
1465:Generated_Source\PSoC5/RTC_1.c **** * Reentrant:
1466:Generated_Source\PSoC5/RTC_1.c **** *  No.
1467:Generated_Source\PSoC5/RTC_1.c **** *
1468:Generated_Source\PSoC5/RTC_1.c **** * Side Effects:
1469:Generated_Source\PSoC5/RTC_1.c **** *  Alarm active(AA) flag clear after read.
1470:Generated_Source\PSoC5/RTC_1.c **** *
1471:Generated_Source\PSoC5/RTC_1.c **** *******************************************************************************/
1472:Generated_Source\PSoC5/RTC_1.c **** uint8 RTC_1_ReadStatus(void) 
1473:Generated_Source\PSoC5/RTC_1.c **** {
1474:Generated_Source\PSoC5/RTC_1.c ****     uint8 status;
1475:Generated_Source\PSoC5/RTC_1.c **** 
1476:Generated_Source\PSoC5/RTC_1.c ****     /* Save status */
1477:Generated_Source\PSoC5/RTC_1.c ****     status = (uint8)RTC_1_statusDateTime;
1478:Generated_Source\PSoC5/RTC_1.c **** 
1479:Generated_Source\PSoC5/RTC_1.c ****     /* Clean AA flag after read of Status Register */
1480:Generated_Source\PSoC5/RTC_1.c ****     RTC_1_statusDateTime &= (uint8)(~RTC_1_STATUS_AA);
1481:Generated_Source\PSoC5/RTC_1.c **** 
1482:Generated_Source\PSoC5/RTC_1.c ****     return (status);
1483:Generated_Source\PSoC5/RTC_1.c **** }
1484:Generated_Source\PSoC5/RTC_1.c **** 
1485:Generated_Source\PSoC5/RTC_1.c **** 
1486:Generated_Source\PSoC5/RTC_1.c **** /*******************************************************************************
1487:Generated_Source\PSoC5/RTC_1.c **** * Function Name:   RTC_1_DayOfWeek
1488:Generated_Source\PSoC5/RTC_1.c **** ********************************************************************************
1489:Generated_Source\PSoC5/RTC_1.c **** *
1490:Generated_Source\PSoC5/RTC_1.c **** * Summary:
1491:Generated_Source\PSoC5/RTC_1.c **** *  Calculates Day Of Week value use Zeller's congruence.
1492:Generated_Source\PSoC5/RTC_1.c **** *
1493:Generated_Source\PSoC5/RTC_1.c **** * Parameters:
1494:Generated_Source\PSoC5/RTC_1.c **** *  dayOfMonth: Day Of Month value.
1495:Generated_Source\PSoC5/RTC_1.c **** *  month: Month value.
1496:Generated_Source\PSoC5/RTC_1.c **** *  year: Year value.
1497:Generated_Source\PSoC5/RTC_1.c **** *
1498:Generated_Source\PSoC5/RTC_1.c **** * Return:
1499:Generated_Source\PSoC5/RTC_1.c **** *  Day Of Week value.
1500:Generated_Source\PSoC5/RTC_1.c **** *
1501:Generated_Source\PSoC5/RTC_1.c **** *******************************************************************************/
1502:Generated_Source\PSoC5/RTC_1.c **** static uint8 RTC_1_DayOfWeek(uint8 dayOfMonth, uint8 month, uint16 year)
1503:Generated_Source\PSoC5/RTC_1.c **** 
1504:Generated_Source\PSoC5/RTC_1.c **** {
  27              		.loc 1 1504 0
  28              		.cfi_startproc
  29              		@ args = 0, pretend = 0, frame = 0
  30              		@ frame_needed = 0, uses_anonymous_args = 0
  31              		@ link register save eliminated.
  32              	.LVL0:
  33 0000 30B4     		push	{r4, r5}
  34              		.cfi_def_cfa_offset 8
  35              		.cfi_offset 4, -8
ARM GAS  C:\Users\HPz420\AppData\Local\Temp\cce1Gm9q.s 			page 28


  36              		.cfi_offset 5, -4
1505:Generated_Source\PSoC5/RTC_1.c ****     /* Calculated sequence ((31 * month) / 12) mod 7 from the Zeller's congruence */
1506:Generated_Source\PSoC5/RTC_1.c ****     static const uint8 CYCODE RTC_1_monthTemplate[RTC_1_MONTHS_IN_YEAR] =
1507:Generated_Source\PSoC5/RTC_1.c ****                                                             {0u, 3u, 2u, 5u, 0u, 3u, 5u, 1u, 4u, 6u
1508:Generated_Source\PSoC5/RTC_1.c **** 
1509:Generated_Source\PSoC5/RTC_1.c ****     /* It is simpler to handle the modified year, which is year - 1 during
1510:Generated_Source\PSoC5/RTC_1.c ****     * January and February
1511:Generated_Source\PSoC5/RTC_1.c ****     */
1512:Generated_Source\PSoC5/RTC_1.c ****     if(month < RTC_1_MARCH)
  37              		.loc 1 1512 0
  38 0002 0229     		cmp	r1, #2
  39 0004 01D8     		bhi	.L2
1513:Generated_Source\PSoC5/RTC_1.c ****     {
1514:Generated_Source\PSoC5/RTC_1.c ****         year = year - 1u;
  40              		.loc 1 1514 0
  41 0006 013A     		subs	r2, r2, #1
  42              	.LVL1:
  43 0008 92B2     		uxth	r2, r2
  44              	.LVL2:
  45              	.L2:
1515:Generated_Source\PSoC5/RTC_1.c ****     }
1516:Generated_Source\PSoC5/RTC_1.c **** 
1517:Generated_Source\PSoC5/RTC_1.c ****     /* For Gregorian calendar: d = (day + y + y/4 - y/100 + y/400 + (31*m)/12) mod 7 */
1518:Generated_Source\PSoC5/RTC_1.c ****     return ((uint8)(((year + (((year/4u) - (year/100u)) + (year/400u))) +
  46              		.loc 1 1518 0
  47 000a 0E4C     		ldr	r4, .L4
  48 000c A4FB0243 		umull	r4, r3, r4, r2
  49 0010 C3F34F15 		ubfx	r5, r3, #5, #16
  50 0014 C5EB9205 		rsb	r5, r5, r2, lsr #2
  51 0018 C3F3CF14 		ubfx	r4, r3, #7, #16
  52 001c 2B19     		adds	r3, r5, r4
  53 001e 1344     		add	r3, r3, r2
1519:Generated_Source\PSoC5/RTC_1.c ****     (((uint16)RTC_1_monthTemplate[month - 1u]) + ((uint16) dayOfMonth))) % RTC_1_DAYS_IN_WEEK));
  54              		.loc 1 1519 0
  55 0020 0139     		subs	r1, r1, #1
  56              	.LVL3:
  57 0022 094A     		ldr	r2, .L4+4
  58              	.LVL4:
  59 0024 525C     		ldrb	r2, [r2, r1]	@ zero_extendqisi2
  60 0026 0244     		add	r2, r2, r0
1518:Generated_Source\PSoC5/RTC_1.c ****     (((uint16)RTC_1_monthTemplate[month - 1u]) + ((uint16) dayOfMonth))) % RTC_1_DAYS_IN_WEEK));
  61              		.loc 1 1518 0
  62 0028 1A44     		add	r2, r2, r3
  63              		.loc 1 1519 0
  64 002a 0848     		ldr	r0, .L4+8
  65              	.LVL5:
  66 002c A2FB0001 		umull	r0, r1, r2, r0
  67 0030 501A     		subs	r0, r2, r1
  68 0032 01EB5000 		add	r0, r1, r0, lsr #1
  69 0036 8008     		lsrs	r0, r0, #2
  70 0038 C0EBC000 		rsb	r0, r0, r0, lsl #3
  71 003c 101A     		subs	r0, r2, r0
1520:Generated_Source\PSoC5/RTC_1.c **** }
  72              		.loc 1 1520 0
  73 003e C0B2     		uxtb	r0, r0
  74 0040 30BC     		pop	{r4, r5}
  75              		.cfi_restore 5
ARM GAS  C:\Users\HPz420\AppData\Local\Temp\cce1Gm9q.s 			page 29


  76              		.cfi_restore 4
  77              		.cfi_def_cfa_offset 0
  78 0042 7047     		bx	lr
  79              	.L5:
  80              		.align	2
  81              	.L4:
  82 0044 1F85EB51 		.word	1374389535
  83 0048 00000000 		.word	.LANCHOR0
  84 004c 25499224 		.word	613566757
  85              		.cfi_endproc
  86              	.LFE39:
  87              		.size	RTC_1_DayOfWeek, .-RTC_1_DayOfWeek
  88              		.section	.text.RTC_1_SetInitValues,"ax",%progbits
  89              		.align	2
  90              		.thumb
  91              		.thumb_func
  92              		.type	RTC_1_SetInitValues, %function
  93              	RTC_1_SetInitValues:
  94              	.LFB40:
1521:Generated_Source\PSoC5/RTC_1.c **** 
1522:Generated_Source\PSoC5/RTC_1.c **** 
1523:Generated_Source\PSoC5/RTC_1.c **** /*******************************************************************************
1524:Generated_Source\PSoC5/RTC_1.c **** * Function Name:   RTC_1_SetInitValues
1525:Generated_Source\PSoC5/RTC_1.c **** ********************************************************************************
1526:Generated_Source\PSoC5/RTC_1.c **** *
1527:Generated_Source\PSoC5/RTC_1.c **** * Summary:
1528:Generated_Source\PSoC5/RTC_1.c **** *    Does all initial calculation.
1529:Generated_Source\PSoC5/RTC_1.c **** *    - Set LP Year flag;
1530:Generated_Source\PSoC5/RTC_1.c **** *    - Set AM/PM flag;
1531:Generated_Source\PSoC5/RTC_1.c **** *    - DayOfWeek;
1532:Generated_Source\PSoC5/RTC_1.c **** *    - DayOfYear;
1533:Generated_Source\PSoC5/RTC_1.c **** *    - Set DST flag;
1534:Generated_Source\PSoC5/RTC_1.c **** *    - Convert relative to absolute date.
1535:Generated_Source\PSoC5/RTC_1.c **** *
1536:Generated_Source\PSoC5/RTC_1.c **** * Parameters:
1537:Generated_Source\PSoC5/RTC_1.c **** *  None.
1538:Generated_Source\PSoC5/RTC_1.c **** *
1539:Generated_Source\PSoC5/RTC_1.c **** * Return:
1540:Generated_Source\PSoC5/RTC_1.c **** *  None.
1541:Generated_Source\PSoC5/RTC_1.c **** *
1542:Generated_Source\PSoC5/RTC_1.c **** * Global variables:
1543:Generated_Source\PSoC5/RTC_1.c **** *  RTC_1_currentTimeDate, RTC_1_dstTimeDateStart,
1544:Generated_Source\PSoC5/RTC_1.c **** *  RTC_1_dstTimeDateStop, RTC_1_dstTimeDateStart,
1545:Generated_Source\PSoC5/RTC_1.c **** *  RTC_1_alarmCfgTimeDate, RTC_1_statusDateTime,
1546:Generated_Source\PSoC5/RTC_1.c **** *  RTC_1_dstStartStatus, RTC_1_dstStartStatus,
1547:Generated_Source\PSoC5/RTC_1.c **** *  RTC_1_dstStopStatus, RTC_1_alarmCurStatus:
1548:Generated_Source\PSoC5/RTC_1.c **** *  global variables are used while the initial calculation.
1549:Generated_Source\PSoC5/RTC_1.c **** *
1550:Generated_Source\PSoC5/RTC_1.c **** * RTC_1_dstTimeDateStart, RTC_1_currentTimeDate,
1551:Generated_Source\PSoC5/RTC_1.c **** *  RTC_1_statusDateTime, RTC_1_dstStartStatus,
1552:Generated_Source\PSoC5/RTC_1.c **** *  RTC_1_dstStartStatus, RTC_1_dstStopStatus,
1553:Generated_Source\PSoC5/RTC_1.c **** *  RTC_1_alarmCurStatus: global variables are modified with the
1554:Generated_Source\PSoC5/RTC_1.c **** *  initial calculated data.
1555:Generated_Source\PSoC5/RTC_1.c **** *
1556:Generated_Source\PSoC5/RTC_1.c **** * Reentrant:
1557:Generated_Source\PSoC5/RTC_1.c **** *  No.
1558:Generated_Source\PSoC5/RTC_1.c **** *
ARM GAS  C:\Users\HPz420\AppData\Local\Temp\cce1Gm9q.s 			page 30


1559:Generated_Source\PSoC5/RTC_1.c **** *******************************************************************************/
1560:Generated_Source\PSoC5/RTC_1.c **** static void RTC_1_SetInitValues(void) 
1561:Generated_Source\PSoC5/RTC_1.c **** {
  95              		.loc 1 1561 0
  96              		.cfi_startproc
  97              		@ args = 0, pretend = 0, frame = 0
  98              		@ frame_needed = 0, uses_anonymous_args = 0
1562:Generated_Source\PSoC5/RTC_1.c ****     uint8 i;
1563:Generated_Source\PSoC5/RTC_1.c ****     uint8 RTC_1_alarmCfgMaskTemp;
1564:Generated_Source\PSoC5/RTC_1.c **** 
1565:Generated_Source\PSoC5/RTC_1.c ****     /* Clears day of month counter */
1566:Generated_Source\PSoC5/RTC_1.c ****     RTC_1_currentTimeDate.DayOfYear = 0u;
  99              		.loc 1 1566 0
 100 0000 964A     		ldr	r2, .L35
 101 0002 0023     		movs	r3, #0
 102 0004 D380     		strh	r3, [r2, #6]	@ movhi
1567:Generated_Source\PSoC5/RTC_1.c **** 
1568:Generated_Source\PSoC5/RTC_1.c ****     /* Increments day of year value with day in current month */
1569:Generated_Source\PSoC5/RTC_1.c ****     RTC_1_currentTimeDate.DayOfYear += RTC_1_currentTimeDate.DayOfMonth;
 103              		.loc 1 1569 0
 104 0006 1179     		ldrb	r1, [r2, #4]	@ zero_extendqisi2
 105 0008 D388     		ldrh	r3, [r2, #6]
 106 000a 9BB2     		uxth	r3, r3
 107 000c 0B44     		add	r3, r3, r1
 108 000e 9BB2     		uxth	r3, r3
 109 0010 D380     		strh	r3, [r2, #6]	@ movhi
1570:Generated_Source\PSoC5/RTC_1.c **** 
1571:Generated_Source\PSoC5/RTC_1.c ****     /* Check leap year */
1572:Generated_Source\PSoC5/RTC_1.c ****     if(1u == RTC_1_LEAP_YEAR(RTC_1_currentTimeDate.Year))
 110              		.loc 1 1572 0
 111 0012 5389     		ldrh	r3, [r2, #10]
 112 0014 9BB2     		uxth	r3, r3
 113 0016 924A     		ldr	r2, .L35+4
 114 0018 A2FB0312 		umull	r1, r2, r2, r3
 115 001c D209     		lsrs	r2, r2, #7
 116 001e 4FF4C871 		mov	r1, #400
 117 0022 01FB1233 		mls	r3, r1, r2, r3
 118 0026 9BB2     		uxth	r3, r3
 119 0028 83B1     		cbz	r3, .L7
 120              		.loc 1 1572 0 is_stmt 0 discriminator 1
 121 002a 8C4B     		ldr	r3, .L35
 122 002c 5B89     		ldrh	r3, [r3, #10]
 123 002e 13F0030F 		tst	r3, #3
 124 0032 12D1     		bne	.L8
 125              		.loc 1 1572 0 discriminator 2
 126 0034 894B     		ldr	r3, .L35
 127 0036 5B89     		ldrh	r3, [r3, #10]
 128 0038 9BB2     		uxth	r3, r3
 129 003a 894A     		ldr	r2, .L35+4
 130 003c A2FB0312 		umull	r1, r2, r2, r3
 131 0040 5209     		lsrs	r2, r2, #5
 132 0042 6421     		movs	r1, #100
 133 0044 01FB1233 		mls	r3, r1, r2, r3
 134 0048 9BB2     		uxth	r3, r3
 135 004a 33B1     		cbz	r3, .L8
 136              	.L7:
1573:Generated_Source\PSoC5/RTC_1.c ****     {
ARM GAS  C:\Users\HPz420\AppData\Local\Temp\cce1Gm9q.s 			page 31


1574:Generated_Source\PSoC5/RTC_1.c ****         /* Set LP Year flag */
1575:Generated_Source\PSoC5/RTC_1.c ****         RTC_1_statusDateTime |= RTC_1_STATUS_LY;
 137              		.loc 1 1575 0 is_stmt 1
 138 004c 854A     		ldr	r2, .L35+8
 139 004e 1378     		ldrb	r3, [r2]	@ zero_extendqisi2
 140 0050 43F00203 		orr	r3, r3, #2
 141 0054 1370     		strb	r3, [r2]
 142              	.L10:
1561:Generated_Source\PSoC5/RTC_1.c ****     uint8 i;
 143              		.loc 1 1561 0 discriminator 1
 144 0056 0023     		movs	r3, #0
 145 0058 10E0     		b	.L9
 146              	.L8:
1576:Generated_Source\PSoC5/RTC_1.c ****     }   /* leap year flag was set */
1577:Generated_Source\PSoC5/RTC_1.c ****     else
1578:Generated_Source\PSoC5/RTC_1.c ****     {
1579:Generated_Source\PSoC5/RTC_1.c ****         /* Clear LP Year flag */
1580:Generated_Source\PSoC5/RTC_1.c ****         RTC_1_statusDateTime &= (uint8)(~RTC_1_STATUS_LY);
 147              		.loc 1 1580 0
 148 005a 824A     		ldr	r2, .L35+8
 149 005c 1378     		ldrb	r3, [r2]	@ zero_extendqisi2
 150 005e 03F0FD03 		and	r3, r3, #253
 151 0062 1370     		strb	r3, [r2]
 152 0064 F7E7     		b	.L10
 153              	.LVL6:
 154              	.L11:
1581:Generated_Source\PSoC5/RTC_1.c ****     }   /* leap year flag was cleared */
1582:Generated_Source\PSoC5/RTC_1.c **** 
1583:Generated_Source\PSoC5/RTC_1.c ****     /* Day of Year */
1584:Generated_Source\PSoC5/RTC_1.c ****     for(i = 0u; i < (RTC_1_currentTimeDate.Month - 1u); i++)
1585:Generated_Source\PSoC5/RTC_1.c ****     {
1586:Generated_Source\PSoC5/RTC_1.c ****         /* Increment on days in passed months */
1587:Generated_Source\PSoC5/RTC_1.c ****         RTC_1_currentTimeDate.DayOfYear += RTC_1_daysInMonths[i];
 155              		.loc 1 1587 0 discriminator 3
 156 0066 7D48     		ldr	r0, .L35
 157 0068 C288     		ldrh	r2, [r0, #6]
 158 006a 92B2     		uxth	r2, r2
 159 006c 7E49     		ldr	r1, .L35+12
 160 006e 1944     		add	r1, r1, r3
 161 0070 097B     		ldrb	r1, [r1, #12]	@ zero_extendqisi2
 162 0072 0A44     		add	r2, r2, r1
 163 0074 92B2     		uxth	r2, r2
 164 0076 C280     		strh	r2, [r0, #6]	@ movhi
1584:Generated_Source\PSoC5/RTC_1.c ****     {
 165              		.loc 1 1584 0 discriminator 3
 166 0078 0133     		adds	r3, r3, #1
 167              	.LVL7:
 168 007a DBB2     		uxtb	r3, r3
 169              	.LVL8:
 170              	.L9:
1584:Generated_Source\PSoC5/RTC_1.c ****     {
 171              		.loc 1 1584 0 is_stmt 0 discriminator 1
 172 007c 774A     		ldr	r2, .L35
 173 007e 127A     		ldrb	r2, [r2, #8]	@ zero_extendqisi2
 174 0080 013A     		subs	r2, r2, #1
 175 0082 9342     		cmp	r3, r2
 176 0084 EFD3     		bcc	.L11
ARM GAS  C:\Users\HPz420\AppData\Local\Temp\cce1Gm9q.s 			page 32


1561:Generated_Source\PSoC5/RTC_1.c ****     uint8 i;
 177              		.loc 1 1561 0 is_stmt 1
 178 0086 10B5     		push	{r4, lr}
 179              		.cfi_def_cfa_offset 8
 180              		.cfi_offset 4, -8
 181              		.cfi_offset 14, -4
1588:Generated_Source\PSoC5/RTC_1.c ****     }   /* day of year is calculated */
1589:Generated_Source\PSoC5/RTC_1.c **** 
1590:Generated_Source\PSoC5/RTC_1.c ****     /* Leap year check */
1591:Generated_Source\PSoC5/RTC_1.c ****     if(0u != RTC_1_IS_BIT_SET(RTC_1_statusDateTime, RTC_1_STATUS_LY))
 182              		.loc 1 1591 0
 183 0088 764B     		ldr	r3, .L35+8
 184              	.LVL9:
 185 008a 1B78     		ldrb	r3, [r3]	@ zero_extendqisi2
 186 008c 13F0020F 		tst	r3, #2
 187 0090 0AD0     		beq	.L12
1592:Generated_Source\PSoC5/RTC_1.c ****     {
1593:Generated_Source\PSoC5/RTC_1.c ****         /* Leap day check */
1594:Generated_Source\PSoC5/RTC_1.c ****         if(RTC_1_currentTimeDate.Month > RTC_1_FEBRUARY)
 188              		.loc 1 1594 0
 189 0092 724B     		ldr	r3, .L35
 190 0094 1B7A     		ldrb	r3, [r3, #8]	@ zero_extendqisi2
 191 0096 DBB2     		uxtb	r3, r3
 192 0098 022B     		cmp	r3, #2
 193 009a 05D9     		bls	.L12
1595:Generated_Source\PSoC5/RTC_1.c ****         {
1596:Generated_Source\PSoC5/RTC_1.c ****             /* Add leap day */
1597:Generated_Source\PSoC5/RTC_1.c ****             RTC_1_currentTimeDate.DayOfYear++;
 194              		.loc 1 1597 0
 195 009c 6F4A     		ldr	r2, .L35
 196 009e D388     		ldrh	r3, [r2, #6]
 197 00a0 9BB2     		uxth	r3, r3
 198 00a2 0133     		adds	r3, r3, #1
 199 00a4 9BB2     		uxth	r3, r3
 200 00a6 D380     		strh	r3, [r2, #6]	@ movhi
 201              	.L12:
1598:Generated_Source\PSoC5/RTC_1.c ****         }   /* Do nothing for non leap day */
1599:Generated_Source\PSoC5/RTC_1.c ****     }   /* Do nothing for not leap year */
1600:Generated_Source\PSoC5/RTC_1.c **** 
1601:Generated_Source\PSoC5/RTC_1.c ****     /* DayOfWeek */
1602:Generated_Source\PSoC5/RTC_1.c ****     RTC_1_currentTimeDate.DayOfWeek = RTC_1_DayOfWeek(
 202              		.loc 1 1602 0
 203 00a8 6C4C     		ldr	r4, .L35
 204 00aa 2079     		ldrb	r0, [r4, #4]	@ zero_extendqisi2
 205 00ac 217A     		ldrb	r1, [r4, #8]	@ zero_extendqisi2
 206 00ae 6289     		ldrh	r2, [r4, #10]
 207 00b0 92B2     		uxth	r2, r2
 208 00b2 FFF7FEFF 		bl	RTC_1_DayOfWeek
 209              	.LVL10:
 210 00b6 0130     		adds	r0, r0, #1
 211 00b8 C0B2     		uxtb	r0, r0
 212 00ba E070     		strb	r0, [r4, #3]
1603:Generated_Source\PSoC5/RTC_1.c ****                                                                         RTC_1_currentTimeDate.DayOf
1604:Generated_Source\PSoC5/RTC_1.c ****                                                                         RTC_1_currentTimeDate.Month
1605:Generated_Source\PSoC5/RTC_1.c ****                                                                         RTC_1_currentTimeDate.Year)
1606:Generated_Source\PSoC5/RTC_1.c **** 
1607:Generated_Source\PSoC5/RTC_1.c ****     if(RTC_1_currentTimeDate.DayOfWeek > RTC_1_START_OF_WEEK)
ARM GAS  C:\Users\HPz420\AppData\Local\Temp\cce1Gm9q.s 			page 33


 213              		.loc 1 1607 0
 214 00bc E378     		ldrb	r3, [r4, #3]	@ zero_extendqisi2
 215 00be 13F0FF0F 		tst	r3, #255
 216 00c2 03D0     		beq	.L13
1608:Generated_Source\PSoC5/RTC_1.c ****     {
1609:Generated_Source\PSoC5/RTC_1.c ****         RTC_1_currentTimeDate.DayOfWeek -= RTC_1_START_OF_WEEK;
 217              		.loc 1 1609 0
 218 00c4 E378     		ldrb	r3, [r4, #3]	@ zero_extendqisi2
 219 00c6 DBB2     		uxtb	r3, r3
 220 00c8 E370     		strb	r3, [r4, #3]
 221 00ca 04E0     		b	.L14
 222              	.L13:
1610:Generated_Source\PSoC5/RTC_1.c ****     }
1611:Generated_Source\PSoC5/RTC_1.c ****     else
1612:Generated_Source\PSoC5/RTC_1.c ****     {
1613:Generated_Source\PSoC5/RTC_1.c ****         RTC_1_currentTimeDate.DayOfWeek = RTC_1_DAYS_IN_WEEK -
1614:Generated_Source\PSoC5/RTC_1.c ****                                         (RTC_1_START_OF_WEEK - RTC_1_currentTimeDate.DayOfWeek);
 223              		.loc 1 1614 0
 224 00cc 634A     		ldr	r2, .L35
 225 00ce D378     		ldrb	r3, [r2, #3]	@ zero_extendqisi2
1613:Generated_Source\PSoC5/RTC_1.c ****                                         (RTC_1_START_OF_WEEK - RTC_1_currentTimeDate.DayOfWeek);
 226              		.loc 1 1613 0
 227 00d0 0733     		adds	r3, r3, #7
 228 00d2 DBB2     		uxtb	r3, r3
 229 00d4 D370     		strb	r3, [r2, #3]
 230              	.L14:
1615:Generated_Source\PSoC5/RTC_1.c ****     }
1616:Generated_Source\PSoC5/RTC_1.c **** 
1617:Generated_Source\PSoC5/RTC_1.c ****     #if (1u == RTC_1_DST_FUNC_ENABLE)
1618:Generated_Source\PSoC5/RTC_1.c **** 
1619:Generated_Source\PSoC5/RTC_1.c ****         /* If DST values is given in a relative manner, converts to the absolute values */
1620:Generated_Source\PSoC5/RTC_1.c ****         if(0u != RTC_1_IS_BIT_SET(RTC_1_dstModeType, RTC_1_DST_RELDATE))
1621:Generated_Source\PSoC5/RTC_1.c ****         {
1622:Generated_Source\PSoC5/RTC_1.c ****             RTC_1_DSTDateConversion();
1623:Generated_Source\PSoC5/RTC_1.c ****         }
1624:Generated_Source\PSoC5/RTC_1.c **** 
1625:Generated_Source\PSoC5/RTC_1.c ****         /* Sets DST status respect to the DST start date and time */
1626:Generated_Source\PSoC5/RTC_1.c ****         if(RTC_1_currentTimeDate.Month > RTC_1_dstTimeDateStart.Month)
1627:Generated_Source\PSoC5/RTC_1.c ****         {
1628:Generated_Source\PSoC5/RTC_1.c ****             RTC_1_statusDateTime |= RTC_1_STATUS_DST;
1629:Generated_Source\PSoC5/RTC_1.c ****         }
1630:Generated_Source\PSoC5/RTC_1.c ****         else if(RTC_1_currentTimeDate.Month == RTC_1_dstTimeDateStart.Month)
1631:Generated_Source\PSoC5/RTC_1.c ****         {
1632:Generated_Source\PSoC5/RTC_1.c ****             if(RTC_1_currentTimeDate.DayOfMonth > RTC_1_dstTimeDateStart.DayOfMonth)
1633:Generated_Source\PSoC5/RTC_1.c ****             {
1634:Generated_Source\PSoC5/RTC_1.c ****                 RTC_1_statusDateTime |= RTC_1_STATUS_DST;
1635:Generated_Source\PSoC5/RTC_1.c ****             }
1636:Generated_Source\PSoC5/RTC_1.c ****             else if(RTC_1_currentTimeDate.DayOfMonth == RTC_1_dstTimeDateStart.DayOfMonth)
1637:Generated_Source\PSoC5/RTC_1.c ****             {
1638:Generated_Source\PSoC5/RTC_1.c ****                 if(RTC_1_currentTimeDate.Hour > RTC_1_dstTimeDateStart.Hour)
1639:Generated_Source\PSoC5/RTC_1.c ****                 {
1640:Generated_Source\PSoC5/RTC_1.c ****                     RTC_1_statusDateTime |= RTC_1_STATUS_DST;
1641:Generated_Source\PSoC5/RTC_1.c ****                 }
1642:Generated_Source\PSoC5/RTC_1.c ****             }
1643:Generated_Source\PSoC5/RTC_1.c ****             else
1644:Generated_Source\PSoC5/RTC_1.c ****             {
1645:Generated_Source\PSoC5/RTC_1.c ****                 /* Do nothing if current day of month is less than DST stop day of month */
ARM GAS  C:\Users\HPz420\AppData\Local\Temp\cce1Gm9q.s 			page 34


1646:Generated_Source\PSoC5/RTC_1.c ****             }
1647:Generated_Source\PSoC5/RTC_1.c ****         }
1648:Generated_Source\PSoC5/RTC_1.c ****         else
1649:Generated_Source\PSoC5/RTC_1.c ****         {
1650:Generated_Source\PSoC5/RTC_1.c ****             /* Do nothing if current month is before than DST stop month */
1651:Generated_Source\PSoC5/RTC_1.c ****         }
1652:Generated_Source\PSoC5/RTC_1.c **** 
1653:Generated_Source\PSoC5/RTC_1.c ****         /* Clears DST status respect to the DST start date and time */
1654:Generated_Source\PSoC5/RTC_1.c ****         if(RTC_1_currentTimeDate.Month > RTC_1_dstTimeDateStop.Month)
1655:Generated_Source\PSoC5/RTC_1.c ****         {
1656:Generated_Source\PSoC5/RTC_1.c ****             RTC_1_statusDateTime &= (uint8)(~RTC_1_STATUS_DST);
1657:Generated_Source\PSoC5/RTC_1.c ****         }
1658:Generated_Source\PSoC5/RTC_1.c ****         else if(RTC_1_currentTimeDate.Month == RTC_1_dstTimeDateStop.Month)
1659:Generated_Source\PSoC5/RTC_1.c ****         {
1660:Generated_Source\PSoC5/RTC_1.c ****             if(RTC_1_currentTimeDate.DayOfMonth > RTC_1_dstTimeDateStop.DayOfMonth)
1661:Generated_Source\PSoC5/RTC_1.c ****             {
1662:Generated_Source\PSoC5/RTC_1.c ****                 RTC_1_statusDateTime &= (uint8)(~RTC_1_STATUS_DST);
1663:Generated_Source\PSoC5/RTC_1.c ****             }
1664:Generated_Source\PSoC5/RTC_1.c ****             else if(RTC_1_currentTimeDate.DayOfMonth == RTC_1_dstTimeDateStop.DayOfMonth)
1665:Generated_Source\PSoC5/RTC_1.c ****             {
1666:Generated_Source\PSoC5/RTC_1.c ****                 if(RTC_1_currentTimeDate.Hour > RTC_1_dstTimeDateStop.Hour)
1667:Generated_Source\PSoC5/RTC_1.c ****                 {
1668:Generated_Source\PSoC5/RTC_1.c ****                     RTC_1_statusDateTime &= (uint8)(~RTC_1_STATUS_DST);
1669:Generated_Source\PSoC5/RTC_1.c ****                 }
1670:Generated_Source\PSoC5/RTC_1.c ****             }
1671:Generated_Source\PSoC5/RTC_1.c ****             else
1672:Generated_Source\PSoC5/RTC_1.c ****             {
1673:Generated_Source\PSoC5/RTC_1.c ****                 /* Do nothing if current day of month is less than DST stop day of month */
1674:Generated_Source\PSoC5/RTC_1.c ****             }
1675:Generated_Source\PSoC5/RTC_1.c ****         }
1676:Generated_Source\PSoC5/RTC_1.c ****         else
1677:Generated_Source\PSoC5/RTC_1.c ****         {
1678:Generated_Source\PSoC5/RTC_1.c ****             /* Do nothing if current month is before than DST stop month */
1679:Generated_Source\PSoC5/RTC_1.c ****         }
1680:Generated_Source\PSoC5/RTC_1.c **** 
1681:Generated_Source\PSoC5/RTC_1.c ****         /* Clear DST start/stop statuses */
1682:Generated_Source\PSoC5/RTC_1.c ****         RTC_1_dstStartStatus = 0u;
1683:Generated_Source\PSoC5/RTC_1.c ****         RTC_1_dstStopStatus = 0u;
1684:Generated_Source\PSoC5/RTC_1.c **** 
1685:Generated_Source\PSoC5/RTC_1.c ****         /* Sets DST stop status month flag if DST stop month is equal to the
1686:Generated_Source\PSoC5/RTC_1.c ****         * current month, otherwise clears that flag.
1687:Generated_Source\PSoC5/RTC_1.c ****         */
1688:Generated_Source\PSoC5/RTC_1.c ****         if(RTC_1_dstTimeDateStop.Month == RTC_1_currentTimeDate.Month)
1689:Generated_Source\PSoC5/RTC_1.c ****         {
1690:Generated_Source\PSoC5/RTC_1.c ****             RTC_1_dstStopStatus |= RTC_1_DST_MONTH;
1691:Generated_Source\PSoC5/RTC_1.c ****         }
1692:Generated_Source\PSoC5/RTC_1.c ****         else
1693:Generated_Source\PSoC5/RTC_1.c ****         {
1694:Generated_Source\PSoC5/RTC_1.c ****             RTC_1_dstStopStatus &= (uint8)(~RTC_1_DST_MONTH);
1695:Generated_Source\PSoC5/RTC_1.c ****         }
1696:Generated_Source\PSoC5/RTC_1.c **** 
1697:Generated_Source\PSoC5/RTC_1.c ****         /* Sets DST start status month flag if DST start month is equal to the
1698:Generated_Source\PSoC5/RTC_1.c ****         * current month, otherwise clears that flag.
1699:Generated_Source\PSoC5/RTC_1.c ****         */
1700:Generated_Source\PSoC5/RTC_1.c ****         if(RTC_1_dstTimeDateStart.Month == RTC_1_currentTimeDate.Month)
1701:Generated_Source\PSoC5/RTC_1.c ****         {
1702:Generated_Source\PSoC5/RTC_1.c ****             RTC_1_dstStartStatus |= RTC_1_DST_MONTH;
ARM GAS  C:\Users\HPz420\AppData\Local\Temp\cce1Gm9q.s 			page 35


1703:Generated_Source\PSoC5/RTC_1.c ****         }
1704:Generated_Source\PSoC5/RTC_1.c ****         else
1705:Generated_Source\PSoC5/RTC_1.c ****         {
1706:Generated_Source\PSoC5/RTC_1.c ****             RTC_1_dstStartStatus &= (uint8)(~RTC_1_DST_MONTH);
1707:Generated_Source\PSoC5/RTC_1.c ****         }
1708:Generated_Source\PSoC5/RTC_1.c **** 
1709:Generated_Source\PSoC5/RTC_1.c ****         /* Sets DST stop status day of month flag if DST stop day of month is
1710:Generated_Source\PSoC5/RTC_1.c ****         * equal to the current day of month, otherwise clears that flag.
1711:Generated_Source\PSoC5/RTC_1.c ****         */
1712:Generated_Source\PSoC5/RTC_1.c ****         if(RTC_1_dstTimeDateStop.DayOfMonth == RTC_1_currentTimeDate.DayOfMonth)
1713:Generated_Source\PSoC5/RTC_1.c ****         {
1714:Generated_Source\PSoC5/RTC_1.c ****             RTC_1_dstStopStatus |= RTC_1_DST_DAYOFMONTH;
1715:Generated_Source\PSoC5/RTC_1.c ****         }
1716:Generated_Source\PSoC5/RTC_1.c ****         else
1717:Generated_Source\PSoC5/RTC_1.c ****         {
1718:Generated_Source\PSoC5/RTC_1.c ****             RTC_1_dstStopStatus &= (uint8)(~RTC_1_DST_DAYOFMONTH);
1719:Generated_Source\PSoC5/RTC_1.c ****         }
1720:Generated_Source\PSoC5/RTC_1.c **** 
1721:Generated_Source\PSoC5/RTC_1.c ****         /* Sets DST start status day of month flag if DST start day of month is
1722:Generated_Source\PSoC5/RTC_1.c ****         * equal to the current day of month, otherwise clears that flag.
1723:Generated_Source\PSoC5/RTC_1.c ****         */
1724:Generated_Source\PSoC5/RTC_1.c ****         if(RTC_1_dstTimeDateStart.DayOfMonth == RTC_1_currentTimeDate.DayOfMonth)
1725:Generated_Source\PSoC5/RTC_1.c ****         {
1726:Generated_Source\PSoC5/RTC_1.c ****             RTC_1_dstStartStatus |= RTC_1_DST_DAYOFMONTH;
1727:Generated_Source\PSoC5/RTC_1.c ****         }
1728:Generated_Source\PSoC5/RTC_1.c ****         else
1729:Generated_Source\PSoC5/RTC_1.c ****         {
1730:Generated_Source\PSoC5/RTC_1.c ****             RTC_1_dstStartStatus &= (uint8)(~RTC_1_DST_DAYOFMONTH);
1731:Generated_Source\PSoC5/RTC_1.c ****         }
1732:Generated_Source\PSoC5/RTC_1.c **** 
1733:Generated_Source\PSoC5/RTC_1.c ****         /* Sets DST stop status hour flag if DST stop hour is equal to the
1734:Generated_Source\PSoC5/RTC_1.c ****         * current hour, otherwise clears that flag.
1735:Generated_Source\PSoC5/RTC_1.c ****         */
1736:Generated_Source\PSoC5/RTC_1.c ****         if(RTC_1_dstTimeDateStop.Hour == RTC_1_currentTimeDate.Hour)
1737:Generated_Source\PSoC5/RTC_1.c ****         {
1738:Generated_Source\PSoC5/RTC_1.c ****             RTC_1_dstStopStatus |= RTC_1_DST_HOUR;
1739:Generated_Source\PSoC5/RTC_1.c ****         }
1740:Generated_Source\PSoC5/RTC_1.c ****         else
1741:Generated_Source\PSoC5/RTC_1.c ****         {
1742:Generated_Source\PSoC5/RTC_1.c ****             RTC_1_dstStopStatus &= (uint8)(~RTC_1_DST_HOUR);
1743:Generated_Source\PSoC5/RTC_1.c ****         }
1744:Generated_Source\PSoC5/RTC_1.c **** 
1745:Generated_Source\PSoC5/RTC_1.c ****         /* Sets DST start status hour flag if DST start hour is equal to the
1746:Generated_Source\PSoC5/RTC_1.c ****         * current hour, otherwise clears that flag.
1747:Generated_Source\PSoC5/RTC_1.c ****         */
1748:Generated_Source\PSoC5/RTC_1.c ****         if(RTC_1_dstTimeDateStart.Hour == RTC_1_currentTimeDate.Hour)
1749:Generated_Source\PSoC5/RTC_1.c ****         {
1750:Generated_Source\PSoC5/RTC_1.c ****             RTC_1_dstStartStatus |= RTC_1_DST_HOUR;
1751:Generated_Source\PSoC5/RTC_1.c ****         }
1752:Generated_Source\PSoC5/RTC_1.c ****         else
1753:Generated_Source\PSoC5/RTC_1.c ****         {
1754:Generated_Source\PSoC5/RTC_1.c ****             RTC_1_dstStartStatus &= (uint8)(~RTC_1_DST_HOUR);
1755:Generated_Source\PSoC5/RTC_1.c ****         }
1756:Generated_Source\PSoC5/RTC_1.c **** 
1757:Generated_Source\PSoC5/RTC_1.c ****         /* DST Enable ? */
1758:Generated_Source\PSoC5/RTC_1.c ****         if(0u != RTC_1_IS_BIT_SET(RTC_1_dstModeType, RTC_1_DST_ENABLE))
1759:Generated_Source\PSoC5/RTC_1.c ****         {
ARM GAS  C:\Users\HPz420\AppData\Local\Temp\cce1Gm9q.s 			page 36


1760:Generated_Source\PSoC5/RTC_1.c ****             if(0u != RTC_1_IS_BIT_SET(RTC_1_statusDateTime, RTC_1_STATUS_DST))
1761:Generated_Source\PSoC5/RTC_1.c ****             {
1762:Generated_Source\PSoC5/RTC_1.c ****                 if(0u != RTC_1_IS_BIT_SET(RTC_1_dstStartStatus,
1763:Generated_Source\PSoC5/RTC_1.c ****                         (RTC_1_DST_HOUR | RTC_1_DST_DAYOFMONTH | RTC_1_DST_MONTH)))
1764:Generated_Source\PSoC5/RTC_1.c ****                 {
1765:Generated_Source\PSoC5/RTC_1.c ****                     /* Subtract current minutes value with minutes value, what
1766:Generated_Source\PSoC5/RTC_1.c ****                     *  are out of full hour in DST offset.
1767:Generated_Source\PSoC5/RTC_1.c ****                     */
1768:Generated_Source\PSoC5/RTC_1.c ****                     RTC_1_currentTimeDate.Min -= RTC_1_dstOffsetMin %
1769:Generated_Source\PSoC5/RTC_1.c ****                                                             (RTC_1_HOUR_ELAPSED + 1u);
1770:Generated_Source\PSoC5/RTC_1.c **** 
1771:Generated_Source\PSoC5/RTC_1.c ****                     /* If current minutes value is greater than number of
1772:Generated_Source\PSoC5/RTC_1.c ****                     * minutes in hour - could be only if hour's value is negative
1773:Generated_Source\PSoC5/RTC_1.c ****                     */
1774:Generated_Source\PSoC5/RTC_1.c ****                     if(RTC_1_currentTimeDate.Min > RTC_1_HOUR_ELAPSED)
1775:Generated_Source\PSoC5/RTC_1.c ****                     {
1776:Generated_Source\PSoC5/RTC_1.c ****                         /* Adjust current minutes value. Convert to the positive. */
1777:Generated_Source\PSoC5/RTC_1.c ****                         RTC_1_currentTimeDate.Min = RTC_1_HOUR_ELAPSED -
1778:Generated_Source\PSoC5/RTC_1.c ****                                                                ((uint8)(~RTC_1_currentTimeDate.Min)
1779:Generated_Source\PSoC5/RTC_1.c **** 
1780:Generated_Source\PSoC5/RTC_1.c ****                         /* Decrement current hours value. */
1781:Generated_Source\PSoC5/RTC_1.c ****                         RTC_1_currentTimeDate.Hour--;
1782:Generated_Source\PSoC5/RTC_1.c ****                     }
1783:Generated_Source\PSoC5/RTC_1.c **** 
1784:Generated_Source\PSoC5/RTC_1.c ****                     /* Subtract current hours value with hours value, what
1785:Generated_Source\PSoC5/RTC_1.c ****                     *  are full part of hours in DST offset.
1786:Generated_Source\PSoC5/RTC_1.c ****                     */
1787:Generated_Source\PSoC5/RTC_1.c ****                     RTC_1_currentTimeDate.Hour -= RTC_1_dstOffsetMin /
1788:Generated_Source\PSoC5/RTC_1.c ****                                                              (RTC_1_HOUR_ELAPSED + 1u);
1789:Generated_Source\PSoC5/RTC_1.c **** 
1790:Generated_Source\PSoC5/RTC_1.c ****                     /* Check if current hour's value is negative */
1791:Generated_Source\PSoC5/RTC_1.c ****                     if(RTC_1_currentTimeDate.Hour > RTC_1_DAY_ELAPSED)
1792:Generated_Source\PSoC5/RTC_1.c ****                     {
1793:Generated_Source\PSoC5/RTC_1.c ****                         /* Adjust hour */
1794:Generated_Source\PSoC5/RTC_1.c ****                         RTC_1_currentTimeDate.Hour = RTC_1_DAY_ELAPSED -
1795:Generated_Source\PSoC5/RTC_1.c ****                                                                 ((uint8)(~RTC_1_currentTimeDate.Hou
1796:Generated_Source\PSoC5/RTC_1.c **** 
1797:Generated_Source\PSoC5/RTC_1.c ****                         /* Decrement day of month, year and week */
1798:Generated_Source\PSoC5/RTC_1.c ****                         RTC_1_currentTimeDate.DayOfMonth--;
1799:Generated_Source\PSoC5/RTC_1.c ****                         RTC_1_currentTimeDate.DayOfYear--;
1800:Generated_Source\PSoC5/RTC_1.c ****                         RTC_1_currentTimeDate.DayOfWeek--;
1801:Generated_Source\PSoC5/RTC_1.c **** 
1802:Generated_Source\PSoC5/RTC_1.c ****                         if(0u == RTC_1_currentTimeDate.DayOfWeek)
1803:Generated_Source\PSoC5/RTC_1.c ****                         {
1804:Generated_Source\PSoC5/RTC_1.c ****                             RTC_1_currentTimeDate.DayOfWeek = RTC_1_DAYS_IN_WEEK;
1805:Generated_Source\PSoC5/RTC_1.c ****                         }
1806:Generated_Source\PSoC5/RTC_1.c **** 
1807:Generated_Source\PSoC5/RTC_1.c ****                         if(0u == RTC_1_currentTimeDate.DayOfMonth)
1808:Generated_Source\PSoC5/RTC_1.c ****                         {
1809:Generated_Source\PSoC5/RTC_1.c ****                             /* Decrement months value */
1810:Generated_Source\PSoC5/RTC_1.c ****                             RTC_1_currentTimeDate.Month--;
1811:Generated_Source\PSoC5/RTC_1.c **** 
1812:Generated_Source\PSoC5/RTC_1.c ****                             /* The current month is month before 1st one. */
1813:Generated_Source\PSoC5/RTC_1.c ****                             if(0u == RTC_1_currentTimeDate.Month)
1814:Generated_Source\PSoC5/RTC_1.c ****                             {
1815:Generated_Source\PSoC5/RTC_1.c ****                                 /* December is the month before January */
1816:Generated_Source\PSoC5/RTC_1.c ****                                 RTC_1_currentTimeDate.Month = RTC_1_DECEMBER;
ARM GAS  C:\Users\HPz420\AppData\Local\Temp\cce1Gm9q.s 			page 37


1817:Generated_Source\PSoC5/RTC_1.c ****                                 RTC_1_currentTimeDate.DayOfMonth =
1818:Generated_Source\PSoC5/RTC_1.c ****                                             RTC_1_daysInMonths[RTC_1_currentTimeDate.Month - 1u];
1819:Generated_Source\PSoC5/RTC_1.c **** 
1820:Generated_Source\PSoC5/RTC_1.c ****                                 /* Decrement years value */
1821:Generated_Source\PSoC5/RTC_1.c ****                                 RTC_1_currentTimeDate.Year--;
1822:Generated_Source\PSoC5/RTC_1.c ****                                 if(1u == RTC_1_LEAP_YEAR(RTC_1_currentTimeDate.Year))
1823:Generated_Source\PSoC5/RTC_1.c ****                                 {
1824:Generated_Source\PSoC5/RTC_1.c ****                                     /* Set leap year status flag */
1825:Generated_Source\PSoC5/RTC_1.c ****                                     RTC_1_statusDateTime |= RTC_1_STATUS_LY;
1826:Generated_Source\PSoC5/RTC_1.c ****                                     RTC_1_currentTimeDate.DayOfYear = RTC_1_DAYS_IN_LEAP_YEAR;
1827:Generated_Source\PSoC5/RTC_1.c ****                                 }
1828:Generated_Source\PSoC5/RTC_1.c ****                                 else
1829:Generated_Source\PSoC5/RTC_1.c ****                                 {
1830:Generated_Source\PSoC5/RTC_1.c ****                                     /* Clear leap year status flag */
1831:Generated_Source\PSoC5/RTC_1.c ****                                     RTC_1_statusDateTime &= (uint8)(~RTC_1_STATUS_LY);
1832:Generated_Source\PSoC5/RTC_1.c ****                                     RTC_1_currentTimeDate.DayOfYear = RTC_1_DAYS_IN_YEAR;
1833:Generated_Source\PSoC5/RTC_1.c ****                                 }
1834:Generated_Source\PSoC5/RTC_1.c ****                             }   /* 0u == RTC_1_currentTimeDate.Month */
1835:Generated_Source\PSoC5/RTC_1.c ****                             else
1836:Generated_Source\PSoC5/RTC_1.c ****                             {
1837:Generated_Source\PSoC5/RTC_1.c ****                                 RTC_1_currentTimeDate.DayOfMonth =
1838:Generated_Source\PSoC5/RTC_1.c ****                                             RTC_1_daysInMonths[RTC_1_currentTimeDate.Month - 1u];
1839:Generated_Source\PSoC5/RTC_1.c ****                             }   /* 0u != End of RTC_1_currentTimeDate.Month */
1840:Generated_Source\PSoC5/RTC_1.c ****                         }   /* 0u == End of RTC_1_currentTimeDate.DayOfMonth */
1841:Generated_Source\PSoC5/RTC_1.c ****                     }   /* End of RTC_1_currentTimeDate.Hour > RTC_1_DAY_ELAPSED */
1842:Generated_Source\PSoC5/RTC_1.c **** 
1843:Generated_Source\PSoC5/RTC_1.c ****                     /* Clear DST status flag */
1844:Generated_Source\PSoC5/RTC_1.c ****                     RTC_1_statusDateTime &= (uint8)(~RTC_1_STATUS_DST);
1845:Generated_Source\PSoC5/RTC_1.c ****                     /* Clear DST stop status */
1846:Generated_Source\PSoC5/RTC_1.c ****                     RTC_1_dstStopStatus = 0u;
1847:Generated_Source\PSoC5/RTC_1.c ****                 }
1848:Generated_Source\PSoC5/RTC_1.c ****             }
1849:Generated_Source\PSoC5/RTC_1.c ****             else    /* Current time and date DO NOT match DST time and date */
1850:Generated_Source\PSoC5/RTC_1.c ****             {
1851:Generated_Source\PSoC5/RTC_1.c ****                 if(0u != RTC_1_IS_BIT_SET(RTC_1_dstStartStatus, RTC_1_DST_HOUR |
1852:Generated_Source\PSoC5/RTC_1.c ****                                                      RTC_1_DST_DAYOFMONTH | RTC_1_DST_MONTH))
1853:Generated_Source\PSoC5/RTC_1.c ****                 {
1854:Generated_Source\PSoC5/RTC_1.c ****                     /* Add Hour and Min */
1855:Generated_Source\PSoC5/RTC_1.c ****                     RTC_1_currentTimeDate.Min +=
1856:Generated_Source\PSoC5/RTC_1.c ****                                                 RTC_1_dstOffsetMin % (RTC_1_HOUR_ELAPSED + 1u);
1857:Generated_Source\PSoC5/RTC_1.c **** 
1858:Generated_Source\PSoC5/RTC_1.c ****                     if(RTC_1_currentTimeDate.Min > RTC_1_HOUR_ELAPSED)
1859:Generated_Source\PSoC5/RTC_1.c ****                     {
1860:Generated_Source\PSoC5/RTC_1.c ****                         /* Adjust Min */
1861:Generated_Source\PSoC5/RTC_1.c ****                         RTC_1_currentTimeDate.Min -= (RTC_1_HOUR_ELAPSED + 1u);
1862:Generated_Source\PSoC5/RTC_1.c ****                         RTC_1_currentTimeDate.Hour++;
1863:Generated_Source\PSoC5/RTC_1.c ****                     }
1864:Generated_Source\PSoC5/RTC_1.c **** 
1865:Generated_Source\PSoC5/RTC_1.c ****                     RTC_1_currentTimeDate.Hour +=
1866:Generated_Source\PSoC5/RTC_1.c ****                                                 RTC_1_dstOffsetMin / (RTC_1_HOUR_ELAPSED + 1u);
1867:Generated_Source\PSoC5/RTC_1.c ****                     if(RTC_1_currentTimeDate.Hour > RTC_1_DAY_ELAPSED)
1868:Generated_Source\PSoC5/RTC_1.c ****                     {
1869:Generated_Source\PSoC5/RTC_1.c ****                         /* Adjust hour, add day */
1870:Generated_Source\PSoC5/RTC_1.c ****                         RTC_1_currentTimeDate.Hour -= (RTC_1_DAY_ELAPSED + 1u);
1871:Generated_Source\PSoC5/RTC_1.c ****                         RTC_1_currentTimeDate.DayOfMonth++;
1872:Generated_Source\PSoC5/RTC_1.c ****                         RTC_1_currentTimeDate.DayOfYear++;
1873:Generated_Source\PSoC5/RTC_1.c ****                         RTC_1_currentTimeDate.DayOfWeek++;
ARM GAS  C:\Users\HPz420\AppData\Local\Temp\cce1Gm9q.s 			page 38


1874:Generated_Source\PSoC5/RTC_1.c **** 
1875:Generated_Source\PSoC5/RTC_1.c ****                         if(RTC_1_currentTimeDate.DayOfWeek > RTC_1_WEEK_ELAPSED)
1876:Generated_Source\PSoC5/RTC_1.c ****                         {
1877:Generated_Source\PSoC5/RTC_1.c ****                             RTC_1_currentTimeDate.DayOfWeek = 1u;
1878:Generated_Source\PSoC5/RTC_1.c ****                         }
1879:Generated_Source\PSoC5/RTC_1.c **** 
1880:Generated_Source\PSoC5/RTC_1.c ****                         if(RTC_1_currentTimeDate.DayOfMonth >
1881:Generated_Source\PSoC5/RTC_1.c ****                                             RTC_1_daysInMonths[RTC_1_currentTimeDate.Month - 1u])
1882:Generated_Source\PSoC5/RTC_1.c ****                         {
1883:Generated_Source\PSoC5/RTC_1.c ****                             RTC_1_currentTimeDate.Month++;
1884:Generated_Source\PSoC5/RTC_1.c ****                             RTC_1_currentTimeDate.DayOfMonth = 1u;
1885:Generated_Source\PSoC5/RTC_1.c **** 
1886:Generated_Source\PSoC5/RTC_1.c ****                             /* Has new year come? */
1887:Generated_Source\PSoC5/RTC_1.c ****                             if(RTC_1_currentTimeDate.Month > RTC_1_YEAR_ELAPSED)
1888:Generated_Source\PSoC5/RTC_1.c ****                             {
1889:Generated_Source\PSoC5/RTC_1.c ****                                 /* Set first month of the year */
1890:Generated_Source\PSoC5/RTC_1.c ****                                 RTC_1_currentTimeDate.Month = RTC_1_JANUARY;
1891:Generated_Source\PSoC5/RTC_1.c **** 
1892:Generated_Source\PSoC5/RTC_1.c ****                                 /* Increment year */
1893:Generated_Source\PSoC5/RTC_1.c ****                                 RTC_1_currentTimeDate.Year++;
1894:Generated_Source\PSoC5/RTC_1.c **** 
1895:Generated_Source\PSoC5/RTC_1.c ****                                 /* Update leap year status */
1896:Generated_Source\PSoC5/RTC_1.c ****                                 if(1u == RTC_1_LEAP_YEAR(RTC_1_currentTimeDate.Year))
1897:Generated_Source\PSoC5/RTC_1.c ****                                 {
1898:Generated_Source\PSoC5/RTC_1.c ****                                     /* LP - true, else - false */
1899:Generated_Source\PSoC5/RTC_1.c ****                                     RTC_1_statusDateTime |= RTC_1_STATUS_LY;
1900:Generated_Source\PSoC5/RTC_1.c ****                                 }
1901:Generated_Source\PSoC5/RTC_1.c ****                                 else
1902:Generated_Source\PSoC5/RTC_1.c ****                                 {
1903:Generated_Source\PSoC5/RTC_1.c ****                                     RTC_1_statusDateTime &= (uint8)(~RTC_1_STATUS_LY);
1904:Generated_Source\PSoC5/RTC_1.c ****                                 }
1905:Generated_Source\PSoC5/RTC_1.c **** 
1906:Generated_Source\PSoC5/RTC_1.c ****                                 /* Set day of year to the first one */
1907:Generated_Source\PSoC5/RTC_1.c ****                                 RTC_1_currentTimeDate.DayOfYear = 1u;
1908:Generated_Source\PSoC5/RTC_1.c ****                             }
1909:Generated_Source\PSoC5/RTC_1.c ****                         }
1910:Generated_Source\PSoC5/RTC_1.c ****                     }
1911:Generated_Source\PSoC5/RTC_1.c ****                     RTC_1_statusDateTime |= RTC_1_STATUS_DST;
1912:Generated_Source\PSoC5/RTC_1.c ****                     RTC_1_dstStartStatus = 0u;
1913:Generated_Source\PSoC5/RTC_1.c ****                 }
1914:Generated_Source\PSoC5/RTC_1.c ****             }
1915:Generated_Source\PSoC5/RTC_1.c ****         }
1916:Generated_Source\PSoC5/RTC_1.c ****     #endif /* 1u == RTC_1_DST_FUNC_ENABLE */
1917:Generated_Source\PSoC5/RTC_1.c **** 
1918:Generated_Source\PSoC5/RTC_1.c ****     /* Set AM/PM flag */
1919:Generated_Source\PSoC5/RTC_1.c ****     if(RTC_1_currentTimeDate.Hour < RTC_1_HALF_OF_DAY_ELAPSED)
 231              		.loc 1 1919 0
 232 00d6 614B     		ldr	r3, .L35
 233 00d8 9B78     		ldrb	r3, [r3, #2]	@ zero_extendqisi2
 234 00da DBB2     		uxtb	r3, r3
 235 00dc 0B2B     		cmp	r3, #11
 236 00de 05D8     		bhi	.L15
1920:Generated_Source\PSoC5/RTC_1.c ****     {
1921:Generated_Source\PSoC5/RTC_1.c ****         /* AM Hour 00:00-11:59, flag zero */
1922:Generated_Source\PSoC5/RTC_1.c ****         RTC_1_statusDateTime &= (uint8)(~RTC_1_STATUS_AM_PM);
 237              		.loc 1 1922 0
 238 00e0 604A     		ldr	r2, .L35+8
ARM GAS  C:\Users\HPz420\AppData\Local\Temp\cce1Gm9q.s 			page 39


 239 00e2 1378     		ldrb	r3, [r2]	@ zero_extendqisi2
 240 00e4 03F0FB03 		and	r3, r3, #251
 241 00e8 1370     		strb	r3, [r2]
 242 00ea 04E0     		b	.L16
 243              	.L15:
1923:Generated_Source\PSoC5/RTC_1.c ****     }
1924:Generated_Source\PSoC5/RTC_1.c ****     else
1925:Generated_Source\PSoC5/RTC_1.c ****     {
1926:Generated_Source\PSoC5/RTC_1.c ****         /* PM Hour 12:00 - 23:59, flag set */
1927:Generated_Source\PSoC5/RTC_1.c ****         RTC_1_statusDateTime |= RTC_1_STATUS_AM_PM;
 244              		.loc 1 1927 0
 245 00ec 5D4A     		ldr	r2, .L35+8
 246 00ee 1378     		ldrb	r3, [r2]	@ zero_extendqisi2
 247 00f0 43F00403 		orr	r3, r3, #4
 248 00f4 1370     		strb	r3, [r2]
 249              	.L16:
1928:Generated_Source\PSoC5/RTC_1.c ****     }
1929:Generated_Source\PSoC5/RTC_1.c **** 
1930:Generated_Source\PSoC5/RTC_1.c ****     /* Alarm calculation */
1931:Generated_Source\PSoC5/RTC_1.c **** 
1932:Generated_Source\PSoC5/RTC_1.c ****     /* Alarm SEC */
1933:Generated_Source\PSoC5/RTC_1.c ****     if(0u != RTC_1_IS_BIT_SET(RTC_1_alarmCfgMask, RTC_1_ALARM_SEC_MASK))
 250              		.loc 1 1933 0
 251 00f6 5B4B     		ldr	r3, .L35+8
 252 00f8 5B78     		ldrb	r3, [r3, #1]	@ zero_extendqisi2
 253 00fa 13F0010F 		tst	r3, #1
 254 00fe 11D0     		beq	.L17
1934:Generated_Source\PSoC5/RTC_1.c ****     {
1935:Generated_Source\PSoC5/RTC_1.c ****         if(RTC_1_alarmCfgTimeDate.Sec == RTC_1_currentTimeDate.Sec)
 255              		.loc 1 1935 0
 256 0100 564B     		ldr	r3, .L35
 257 0102 1A7B     		ldrb	r2, [r3, #12]	@ zero_extendqisi2
 258 0104 D2B2     		uxtb	r2, r2
 259 0106 1B78     		ldrb	r3, [r3]	@ zero_extendqisi2
 260 0108 DBB2     		uxtb	r3, r3
 261 010a 9A42     		cmp	r2, r3
 262 010c 05D1     		bne	.L18
1936:Generated_Source\PSoC5/RTC_1.c ****         {
1937:Generated_Source\PSoC5/RTC_1.c ****             /* Set second alarm */
1938:Generated_Source\PSoC5/RTC_1.c ****             RTC_1_alarmCurStatus |= RTC_1_ALARM_SEC_MASK;
 263              		.loc 1 1938 0
 264 010e 554A     		ldr	r2, .L35+8
 265 0110 9378     		ldrb	r3, [r2, #2]	@ zero_extendqisi2
 266 0112 43F00103 		orr	r3, r3, #1
 267 0116 9370     		strb	r3, [r2, #2]
 268 0118 04E0     		b	.L17
 269              	.L18:
1939:Generated_Source\PSoC5/RTC_1.c ****         }
1940:Generated_Source\PSoC5/RTC_1.c ****         else
1941:Generated_Source\PSoC5/RTC_1.c ****         {
1942:Generated_Source\PSoC5/RTC_1.c ****             /* Clear second alarm */
1943:Generated_Source\PSoC5/RTC_1.c ****             RTC_1_alarmCurStatus &= (uint8)(~RTC_1_ALARM_SEC_MASK);
 270              		.loc 1 1943 0
 271 011a 524A     		ldr	r2, .L35+8
 272 011c 9378     		ldrb	r3, [r2, #2]	@ zero_extendqisi2
 273 011e 03F0FE03 		and	r3, r3, #254
 274 0122 9370     		strb	r3, [r2, #2]
ARM GAS  C:\Users\HPz420\AppData\Local\Temp\cce1Gm9q.s 			page 40


 275              	.L17:
1944:Generated_Source\PSoC5/RTC_1.c ****         }
1945:Generated_Source\PSoC5/RTC_1.c ****     }
1946:Generated_Source\PSoC5/RTC_1.c **** 
1947:Generated_Source\PSoC5/RTC_1.c ****     /* Alarm MIN */
1948:Generated_Source\PSoC5/RTC_1.c ****     if(0u != RTC_1_IS_BIT_SET(RTC_1_alarmCfgMask, RTC_1_ALARM_MIN_MASK))
 276              		.loc 1 1948 0
 277 0124 4F4B     		ldr	r3, .L35+8
 278 0126 5B78     		ldrb	r3, [r3, #1]	@ zero_extendqisi2
 279 0128 13F0020F 		tst	r3, #2
 280 012c 11D0     		beq	.L19
1949:Generated_Source\PSoC5/RTC_1.c ****     {
1950:Generated_Source\PSoC5/RTC_1.c ****         if(RTC_1_alarmCfgTimeDate.Min == RTC_1_currentTimeDate.Min)
 281              		.loc 1 1950 0
 282 012e 4B4B     		ldr	r3, .L35
 283 0130 5A7B     		ldrb	r2, [r3, #13]	@ zero_extendqisi2
 284 0132 D2B2     		uxtb	r2, r2
 285 0134 5B78     		ldrb	r3, [r3, #1]	@ zero_extendqisi2
 286 0136 DBB2     		uxtb	r3, r3
 287 0138 9A42     		cmp	r2, r3
 288 013a 05D1     		bne	.L20
1951:Generated_Source\PSoC5/RTC_1.c ****         {
1952:Generated_Source\PSoC5/RTC_1.c ****             /* Set minute alarm */
1953:Generated_Source\PSoC5/RTC_1.c ****             RTC_1_alarmCurStatus |= RTC_1_ALARM_MIN_MASK;
 289              		.loc 1 1953 0
 290 013c 494A     		ldr	r2, .L35+8
 291 013e 9378     		ldrb	r3, [r2, #2]	@ zero_extendqisi2
 292 0140 43F00203 		orr	r3, r3, #2
 293 0144 9370     		strb	r3, [r2, #2]
 294 0146 04E0     		b	.L19
 295              	.L20:
1954:Generated_Source\PSoC5/RTC_1.c ****         }
1955:Generated_Source\PSoC5/RTC_1.c ****         else
1956:Generated_Source\PSoC5/RTC_1.c ****         {
1957:Generated_Source\PSoC5/RTC_1.c ****             /* Clear minute alarm */
1958:Generated_Source\PSoC5/RTC_1.c ****             RTC_1_alarmCurStatus &= (uint8)(~RTC_1_ALARM_MIN_MASK);
 296              		.loc 1 1958 0
 297 0148 464A     		ldr	r2, .L35+8
 298 014a 9378     		ldrb	r3, [r2, #2]	@ zero_extendqisi2
 299 014c 03F0FD03 		and	r3, r3, #253
 300 0150 9370     		strb	r3, [r2, #2]
 301              	.L19:
1959:Generated_Source\PSoC5/RTC_1.c ****         }
1960:Generated_Source\PSoC5/RTC_1.c ****     }
1961:Generated_Source\PSoC5/RTC_1.c **** 
1962:Generated_Source\PSoC5/RTC_1.c ****     /* Alarm HOUR */
1963:Generated_Source\PSoC5/RTC_1.c ****     if(0u != RTC_1_IS_BIT_SET(RTC_1_alarmCfgMask, RTC_1_ALARM_HOUR_MASK))
 302              		.loc 1 1963 0
 303 0152 444B     		ldr	r3, .L35+8
 304 0154 5B78     		ldrb	r3, [r3, #1]	@ zero_extendqisi2
 305 0156 13F0040F 		tst	r3, #4
 306 015a 11D0     		beq	.L21
1964:Generated_Source\PSoC5/RTC_1.c ****     {
1965:Generated_Source\PSoC5/RTC_1.c ****         if(RTC_1_alarmCfgTimeDate.Hour == RTC_1_currentTimeDate.Hour)
 307              		.loc 1 1965 0
 308 015c 3F4B     		ldr	r3, .L35
 309 015e 9A7B     		ldrb	r2, [r3, #14]	@ zero_extendqisi2
ARM GAS  C:\Users\HPz420\AppData\Local\Temp\cce1Gm9q.s 			page 41


 310 0160 D2B2     		uxtb	r2, r2
 311 0162 9B78     		ldrb	r3, [r3, #2]	@ zero_extendqisi2
 312 0164 DBB2     		uxtb	r3, r3
 313 0166 9A42     		cmp	r2, r3
 314 0168 05D1     		bne	.L22
1966:Generated_Source\PSoC5/RTC_1.c ****         {
1967:Generated_Source\PSoC5/RTC_1.c ****             /* Set hour alarm */
1968:Generated_Source\PSoC5/RTC_1.c ****             RTC_1_alarmCurStatus |= RTC_1_ALARM_HOUR_MASK;
 315              		.loc 1 1968 0
 316 016a 3E4A     		ldr	r2, .L35+8
 317 016c 9378     		ldrb	r3, [r2, #2]	@ zero_extendqisi2
 318 016e 43F00403 		orr	r3, r3, #4
 319 0172 9370     		strb	r3, [r2, #2]
 320 0174 04E0     		b	.L21
 321              	.L22:
1969:Generated_Source\PSoC5/RTC_1.c ****         }
1970:Generated_Source\PSoC5/RTC_1.c ****         else
1971:Generated_Source\PSoC5/RTC_1.c ****         {
1972:Generated_Source\PSoC5/RTC_1.c ****             /* Clear hour alarm */
1973:Generated_Source\PSoC5/RTC_1.c ****             RTC_1_alarmCurStatus &= (uint8)(~RTC_1_ALARM_HOUR_MASK);
 322              		.loc 1 1973 0
 323 0176 3B4A     		ldr	r2, .L35+8
 324 0178 9378     		ldrb	r3, [r2, #2]	@ zero_extendqisi2
 325 017a 03F0FB03 		and	r3, r3, #251
 326 017e 9370     		strb	r3, [r2, #2]
 327              	.L21:
1974:Generated_Source\PSoC5/RTC_1.c ****         }
1975:Generated_Source\PSoC5/RTC_1.c ****     }
1976:Generated_Source\PSoC5/RTC_1.c **** 
1977:Generated_Source\PSoC5/RTC_1.c ****     /* Alarm DAYOFWEEK */
1978:Generated_Source\PSoC5/RTC_1.c ****     if(0u != RTC_1_IS_BIT_SET(RTC_1_alarmCfgMask, RTC_1_ALARM_DAYOFWEEK_MASK))
 328              		.loc 1 1978 0
 329 0180 384B     		ldr	r3, .L35+8
 330 0182 5B78     		ldrb	r3, [r3, #1]	@ zero_extendqisi2
 331 0184 13F0080F 		tst	r3, #8
 332 0188 11D0     		beq	.L23
1979:Generated_Source\PSoC5/RTC_1.c ****     {
1980:Generated_Source\PSoC5/RTC_1.c ****         if(RTC_1_alarmCfgTimeDate.DayOfWeek == RTC_1_currentTimeDate.DayOfWeek)
 333              		.loc 1 1980 0
 334 018a 344B     		ldr	r3, .L35
 335 018c DA7B     		ldrb	r2, [r3, #15]	@ zero_extendqisi2
 336 018e D2B2     		uxtb	r2, r2
 337 0190 DB78     		ldrb	r3, [r3, #3]	@ zero_extendqisi2
 338 0192 DBB2     		uxtb	r3, r3
 339 0194 9A42     		cmp	r2, r3
 340 0196 05D1     		bne	.L24
1981:Generated_Source\PSoC5/RTC_1.c ****         {
1982:Generated_Source\PSoC5/RTC_1.c ****             /* Set day of week alarm */
1983:Generated_Source\PSoC5/RTC_1.c ****             RTC_1_alarmCurStatus |= RTC_1_ALARM_DAYOFWEEK_MASK;
 341              		.loc 1 1983 0
 342 0198 324A     		ldr	r2, .L35+8
 343 019a 9378     		ldrb	r3, [r2, #2]	@ zero_extendqisi2
 344 019c 43F00803 		orr	r3, r3, #8
 345 01a0 9370     		strb	r3, [r2, #2]
 346 01a2 04E0     		b	.L23
 347              	.L24:
1984:Generated_Source\PSoC5/RTC_1.c ****         }
ARM GAS  C:\Users\HPz420\AppData\Local\Temp\cce1Gm9q.s 			page 42


1985:Generated_Source\PSoC5/RTC_1.c ****         else
1986:Generated_Source\PSoC5/RTC_1.c ****         {
1987:Generated_Source\PSoC5/RTC_1.c ****             /* Clear day of week alarm */
1988:Generated_Source\PSoC5/RTC_1.c ****             RTC_1_alarmCurStatus &= (uint8)(~RTC_1_ALARM_DAYOFWEEK_MASK);
 348              		.loc 1 1988 0
 349 01a4 2F4A     		ldr	r2, .L35+8
 350 01a6 9378     		ldrb	r3, [r2, #2]	@ zero_extendqisi2
 351 01a8 03F0F703 		and	r3, r3, #247
 352 01ac 9370     		strb	r3, [r2, #2]
 353              	.L23:
1989:Generated_Source\PSoC5/RTC_1.c ****         }
1990:Generated_Source\PSoC5/RTC_1.c ****     }
1991:Generated_Source\PSoC5/RTC_1.c **** 
1992:Generated_Source\PSoC5/RTC_1.c ****     /* Alarm DAYOFYEAR */
1993:Generated_Source\PSoC5/RTC_1.c ****     if(0u != RTC_1_IS_BIT_SET(RTC_1_alarmCfgMask, RTC_1_ALARM_DAYOFYEAR_MASK))
 354              		.loc 1 1993 0
 355 01ae 2D4B     		ldr	r3, .L35+8
 356 01b0 5B78     		ldrb	r3, [r3, #1]	@ zero_extendqisi2
 357 01b2 13F0200F 		tst	r3, #32
 358 01b6 11D0     		beq	.L25
1994:Generated_Source\PSoC5/RTC_1.c ****     {
1995:Generated_Source\PSoC5/RTC_1.c ****         if(RTC_1_alarmCfgTimeDate.DayOfYear == RTC_1_currentTimeDate.DayOfYear)
 359              		.loc 1 1995 0
 360 01b8 284B     		ldr	r3, .L35
 361 01ba 5A8A     		ldrh	r2, [r3, #18]
 362 01bc 92B2     		uxth	r2, r2
 363 01be DB88     		ldrh	r3, [r3, #6]
 364 01c0 9BB2     		uxth	r3, r3
 365 01c2 9A42     		cmp	r2, r3
 366 01c4 05D1     		bne	.L26
1996:Generated_Source\PSoC5/RTC_1.c ****         {
1997:Generated_Source\PSoC5/RTC_1.c ****             /* Set day of year alarm */
1998:Generated_Source\PSoC5/RTC_1.c ****             RTC_1_alarmCurStatus |= RTC_1_ALARM_DAYOFYEAR_MASK;
 367              		.loc 1 1998 0
 368 01c6 274A     		ldr	r2, .L35+8
 369 01c8 9378     		ldrb	r3, [r2, #2]	@ zero_extendqisi2
 370 01ca 43F02003 		orr	r3, r3, #32
 371 01ce 9370     		strb	r3, [r2, #2]
 372 01d0 04E0     		b	.L25
 373              	.L26:
1999:Generated_Source\PSoC5/RTC_1.c ****         }
2000:Generated_Source\PSoC5/RTC_1.c ****         else
2001:Generated_Source\PSoC5/RTC_1.c ****         {
2002:Generated_Source\PSoC5/RTC_1.c ****             /* Clear day of year alarm */
2003:Generated_Source\PSoC5/RTC_1.c ****             RTC_1_alarmCurStatus &= (uint8)(~RTC_1_ALARM_DAYOFYEAR_MASK);
 374              		.loc 1 2003 0
 375 01d2 244A     		ldr	r2, .L35+8
 376 01d4 9378     		ldrb	r3, [r2, #2]	@ zero_extendqisi2
 377 01d6 03F0DF03 		and	r3, r3, #223
 378 01da 9370     		strb	r3, [r2, #2]
 379              	.L25:
2004:Generated_Source\PSoC5/RTC_1.c ****         }
2005:Generated_Source\PSoC5/RTC_1.c ****     }
2006:Generated_Source\PSoC5/RTC_1.c **** 
2007:Generated_Source\PSoC5/RTC_1.c ****     /* Alarm DAYOFMONTH */
2008:Generated_Source\PSoC5/RTC_1.c ****     if(0u != RTC_1_IS_BIT_SET(RTC_1_alarmCfgMask, RTC_1_ALARM_DAYOFMONTH_MASK))
 380              		.loc 1 2008 0
ARM GAS  C:\Users\HPz420\AppData\Local\Temp\cce1Gm9q.s 			page 43


 381 01dc 214B     		ldr	r3, .L35+8
 382 01de 5B78     		ldrb	r3, [r3, #1]	@ zero_extendqisi2
 383 01e0 13F0100F 		tst	r3, #16
 384 01e4 11D0     		beq	.L27
2009:Generated_Source\PSoC5/RTC_1.c ****     {
2010:Generated_Source\PSoC5/RTC_1.c ****         if(RTC_1_alarmCfgTimeDate.DayOfMonth == RTC_1_currentTimeDate.DayOfMonth)
 385              		.loc 1 2010 0
 386 01e6 1D4B     		ldr	r3, .L35
 387 01e8 1A7C     		ldrb	r2, [r3, #16]	@ zero_extendqisi2
 388 01ea D2B2     		uxtb	r2, r2
 389 01ec 1B79     		ldrb	r3, [r3, #4]	@ zero_extendqisi2
 390 01ee DBB2     		uxtb	r3, r3
 391 01f0 9A42     		cmp	r2, r3
 392 01f2 05D1     		bne	.L28
2011:Generated_Source\PSoC5/RTC_1.c ****         {
2012:Generated_Source\PSoC5/RTC_1.c ****             /* Set day of month alarm */
2013:Generated_Source\PSoC5/RTC_1.c ****             RTC_1_alarmCurStatus |= RTC_1_ALARM_DAYOFMONTH_MASK;
 393              		.loc 1 2013 0
 394 01f4 1B4A     		ldr	r2, .L35+8
 395 01f6 9378     		ldrb	r3, [r2, #2]	@ zero_extendqisi2
 396 01f8 43F01003 		orr	r3, r3, #16
 397 01fc 9370     		strb	r3, [r2, #2]
 398 01fe 04E0     		b	.L27
 399              	.L28:
2014:Generated_Source\PSoC5/RTC_1.c ****         }
2015:Generated_Source\PSoC5/RTC_1.c ****            else
2016:Generated_Source\PSoC5/RTC_1.c ****         {
2017:Generated_Source\PSoC5/RTC_1.c ****             /* Clear day of month alarm */
2018:Generated_Source\PSoC5/RTC_1.c ****             RTC_1_alarmCurStatus &= (uint8)(~RTC_1_ALARM_DAYOFMONTH_MASK);
 400              		.loc 1 2018 0
 401 0200 184A     		ldr	r2, .L35+8
 402 0202 9378     		ldrb	r3, [r2, #2]	@ zero_extendqisi2
 403 0204 03F0EF03 		and	r3, r3, #239
 404 0208 9370     		strb	r3, [r2, #2]
 405              	.L27:
2019:Generated_Source\PSoC5/RTC_1.c ****         }
2020:Generated_Source\PSoC5/RTC_1.c ****     }
2021:Generated_Source\PSoC5/RTC_1.c **** 
2022:Generated_Source\PSoC5/RTC_1.c ****     /* Alarm MONTH */
2023:Generated_Source\PSoC5/RTC_1.c ****     if(0u != RTC_1_IS_BIT_SET(RTC_1_alarmCfgMask, RTC_1_ALARM_MONTH_MASK))
 406              		.loc 1 2023 0
 407 020a 164B     		ldr	r3, .L35+8
 408 020c 5B78     		ldrb	r3, [r3, #1]	@ zero_extendqisi2
 409 020e 13F0400F 		tst	r3, #64
 410 0212 11D0     		beq	.L29
2024:Generated_Source\PSoC5/RTC_1.c ****     {
2025:Generated_Source\PSoC5/RTC_1.c ****         if(RTC_1_alarmCfgTimeDate.Month == RTC_1_currentTimeDate.Month)
 411              		.loc 1 2025 0
 412 0214 114B     		ldr	r3, .L35
 413 0216 1A7D     		ldrb	r2, [r3, #20]	@ zero_extendqisi2
 414 0218 D2B2     		uxtb	r2, r2
 415 021a 1B7A     		ldrb	r3, [r3, #8]	@ zero_extendqisi2
 416 021c DBB2     		uxtb	r3, r3
 417 021e 9A42     		cmp	r2, r3
 418 0220 05D1     		bne	.L30
2026:Generated_Source\PSoC5/RTC_1.c ****         {
2027:Generated_Source\PSoC5/RTC_1.c ****             /* Set month alarm */
ARM GAS  C:\Users\HPz420\AppData\Local\Temp\cce1Gm9q.s 			page 44


2028:Generated_Source\PSoC5/RTC_1.c ****             RTC_1_alarmCurStatus |= RTC_1_ALARM_MONTH_MASK;
 419              		.loc 1 2028 0
 420 0222 104A     		ldr	r2, .L35+8
 421 0224 9378     		ldrb	r3, [r2, #2]	@ zero_extendqisi2
 422 0226 43F04003 		orr	r3, r3, #64
 423 022a 9370     		strb	r3, [r2, #2]
 424 022c 04E0     		b	.L29
 425              	.L30:
2029:Generated_Source\PSoC5/RTC_1.c ****         }
2030:Generated_Source\PSoC5/RTC_1.c ****         else
2031:Generated_Source\PSoC5/RTC_1.c ****         {
2032:Generated_Source\PSoC5/RTC_1.c ****             /* Clear month alarm */
2033:Generated_Source\PSoC5/RTC_1.c ****             RTC_1_alarmCurStatus &= (uint8)(~RTC_1_ALARM_MONTH_MASK);
 426              		.loc 1 2033 0
 427 022e 0D4A     		ldr	r2, .L35+8
 428 0230 9378     		ldrb	r3, [r2, #2]	@ zero_extendqisi2
 429 0232 03F0BF03 		and	r3, r3, #191
 430 0236 9370     		strb	r3, [r2, #2]
 431              	.L29:
2034:Generated_Source\PSoC5/RTC_1.c ****         }
2035:Generated_Source\PSoC5/RTC_1.c ****     }
2036:Generated_Source\PSoC5/RTC_1.c **** 
2037:Generated_Source\PSoC5/RTC_1.c ****     /* Alarm YEAR */
2038:Generated_Source\PSoC5/RTC_1.c ****     if(0u != RTC_1_IS_BIT_SET(RTC_1_alarmCfgMask, RTC_1_ALARM_YEAR_MASK))
 432              		.loc 1 2038 0
 433 0238 0A4B     		ldr	r3, .L35+8
 434 023a 5B78     		ldrb	r3, [r3, #1]	@ zero_extendqisi2
 435 023c 13F0800F 		tst	r3, #128
 436 0240 19D0     		beq	.L31
2039:Generated_Source\PSoC5/RTC_1.c ****     {
2040:Generated_Source\PSoC5/RTC_1.c ****         if(RTC_1_alarmCfgTimeDate.Year == RTC_1_currentTimeDate.Year)
 437              		.loc 1 2040 0
 438 0242 064B     		ldr	r3, .L35
 439 0244 DA8A     		ldrh	r2, [r3, #22]
 440 0246 92B2     		uxth	r2, r2
 441 0248 5B89     		ldrh	r3, [r3, #10]
 442 024a 9BB2     		uxth	r3, r3
 443 024c 9A42     		cmp	r2, r3
 444 024e 0DD1     		bne	.L32
2041:Generated_Source\PSoC5/RTC_1.c ****         {
2042:Generated_Source\PSoC5/RTC_1.c ****             /* Set year alarm */
2043:Generated_Source\PSoC5/RTC_1.c ****             RTC_1_alarmCurStatus |= RTC_1_ALARM_YEAR_MASK;
 445              		.loc 1 2043 0
 446 0250 044A     		ldr	r2, .L35+8
 447 0252 9378     		ldrb	r3, [r2, #2]	@ zero_extendqisi2
 448 0254 43F08003 		orr	r3, r3, #128
 449 0258 9370     		strb	r3, [r2, #2]
 450 025a 0CE0     		b	.L31
 451              	.L36:
 452              		.align	2
 453              	.L35:
 454 025c 00000000 		.word	.LANCHOR1
 455 0260 1F85EB51 		.word	1374389535
 456 0264 00000000 		.word	.LANCHOR2
 457 0268 00000000 		.word	.LANCHOR0
 458              	.L32:
2044:Generated_Source\PSoC5/RTC_1.c ****         }
ARM GAS  C:\Users\HPz420\AppData\Local\Temp\cce1Gm9q.s 			page 45


2045:Generated_Source\PSoC5/RTC_1.c ****         else
2046:Generated_Source\PSoC5/RTC_1.c ****         {
2047:Generated_Source\PSoC5/RTC_1.c ****             /* Clear year alarm */
2048:Generated_Source\PSoC5/RTC_1.c ****             RTC_1_alarmCurStatus &= (uint8)(~RTC_1_ALARM_YEAR_MASK);
 459              		.loc 1 2048 0
 460 026c 0B4A     		ldr	r2, .L37
 461 026e 9378     		ldrb	r3, [r2, #2]	@ zero_extendqisi2
 462 0270 03F07F03 		and	r3, r3, #127
 463 0274 9370     		strb	r3, [r2, #2]
 464              	.L31:
2049:Generated_Source\PSoC5/RTC_1.c ****         }
2050:Generated_Source\PSoC5/RTC_1.c ****     }
2051:Generated_Source\PSoC5/RTC_1.c **** 
2052:Generated_Source\PSoC5/RTC_1.c ****     RTC_1_alarmCfgMaskTemp = RTC_1_alarmCfgMask;
 465              		.loc 1 2052 0
 466 0276 094B     		ldr	r3, .L37
 467 0278 5B78     		ldrb	r3, [r3, #1]	@ zero_extendqisi2
 468              	.LVL11:
2053:Generated_Source\PSoC5/RTC_1.c ****     /* Set Alarm flag event */
2054:Generated_Source\PSoC5/RTC_1.c ****     RTC_1_SET_ALARM(RTC_1_alarmCfgMaskTemp,
 469              		.loc 1 2054 0
 470 027a 03F0FF02 		and	r2, r3, #255
 471 027e 5BB1     		cbz	r3, .L6
 472              		.loc 1 2054 0 is_stmt 0 discriminator 1
 473 0280 064B     		ldr	r3, .L37
 474              	.LVL12:
 475 0282 9B78     		ldrb	r3, [r3, #2]	@ zero_extendqisi2
 476 0284 32EA0303 		bics	r3, r2, r3
 477 0288 06D1     		bne	.L6
 478              		.loc 1 2054 0 discriminator 2
 479 028a 044B     		ldr	r3, .L37
 480 028c 1A78     		ldrb	r2, [r3]	@ zero_extendqisi2
 481 028e 42F00802 		orr	r2, r2, #8
 482 0292 1A70     		strb	r2, [r3]
 483 0294 0022     		movs	r2, #0
 484 0296 9A70     		strb	r2, [r3, #2]
 485              	.L6:
 486 0298 10BD     		pop	{r4, pc}
 487              	.L38:
 488 029a 00BF     		.align	2
 489              	.L37:
 490 029c 00000000 		.word	.LANCHOR2
 491              		.cfi_endproc
 492              	.LFE40:
 493              		.size	RTC_1_SetInitValues, .-RTC_1_SetInitValues
 494              		.section	.text.RTC_1_Stop,"ax",%progbits
 495              		.align	2
 496              		.global	RTC_1_Stop
 497              		.thumb
 498              		.thumb_func
 499              		.type	RTC_1_Stop, %function
 500              	RTC_1_Stop:
 501              	.LFB1:
 164:Generated_Source\PSoC5/RTC_1.c ****     uint8 interruptState;
 502              		.loc 1 164 0 is_stmt 1
 503              		.cfi_startproc
 504              		@ args = 0, pretend = 0, frame = 0
ARM GAS  C:\Users\HPz420\AppData\Local\Temp\cce1Gm9q.s 			page 46


 505              		@ frame_needed = 0, uses_anonymous_args = 0
 506 0000 08B5     		push	{r3, lr}
 507              		.cfi_def_cfa_offset 8
 508              		.cfi_offset 3, -8
 509              		.cfi_offset 14, -4
 168:Generated_Source\PSoC5/RTC_1.c **** 
 510              		.loc 1 168 0
 511 0002 0122     		movs	r2, #1
 512 0004 054B     		ldr	r3, .L41
 513 0006 1A60     		str	r2, [r3]
 171:Generated_Source\PSoC5/RTC_1.c **** 
 514              		.loc 1 171 0
 515 0008 FFF7FEFF 		bl	CyEnterCriticalSection
 516              	.LVL13:
 174:Generated_Source\PSoC5/RTC_1.c **** 
 517              		.loc 1 174 0
 518 000c 044A     		ldr	r2, .L41+4
 519 000e 1378     		ldrb	r3, [r2]	@ zero_extendqisi2
 520 0010 03F0CF03 		and	r3, r3, #207
 521 0014 1370     		strb	r3, [r2]
 177:Generated_Source\PSoC5/RTC_1.c **** }
 522              		.loc 1 177 0
 523 0016 FFF7FEFF 		bl	CyExitCriticalSection
 524              	.LVL14:
 525 001a 08BD     		pop	{r3, pc}
 526              	.L42:
 527              		.align	2
 528              	.L41:
 529 001c 80E100E0 		.word	-536813184
 530 0020 82430040 		.word	1073759106
 531              		.cfi_endproc
 532              	.LFE1:
 533              		.size	RTC_1_Stop, .-RTC_1_Stop
 534              		.section	.text.RTC_1_EnableInt,"ax",%progbits
 535              		.align	2
 536              		.global	RTC_1_EnableInt
 537              		.thumb
 538              		.thumb_func
 539              		.type	RTC_1_EnableInt, %function
 540              	RTC_1_EnableInt:
 541              	.LFB2:
 196:Generated_Source\PSoC5/RTC_1.c ****     /* Enable the interrupt */
 542              		.loc 1 196 0
 543              		.cfi_startproc
 544              		@ args = 0, pretend = 0, frame = 0
 545              		@ frame_needed = 0, uses_anonymous_args = 0
 546              		@ link register save eliminated.
 198:Generated_Source\PSoC5/RTC_1.c **** }
 547              		.loc 1 198 0
 548 0000 0122     		movs	r2, #1
 549 0002 014B     		ldr	r3, .L44
 550 0004 1A60     		str	r2, [r3]
 551 0006 7047     		bx	lr
 552              	.L45:
 553              		.align	2
 554              	.L44:
 555 0008 00E100E0 		.word	-536813312
ARM GAS  C:\Users\HPz420\AppData\Local\Temp\cce1Gm9q.s 			page 47


 556              		.cfi_endproc
 557              	.LFE2:
 558              		.size	RTC_1_EnableInt, .-RTC_1_EnableInt
 559              		.section	.text.RTC_1_DisableInt,"ax",%progbits
 560              		.align	2
 561              		.global	RTC_1_DisableInt
 562              		.thumb
 563              		.thumb_func
 564              		.type	RTC_1_DisableInt, %function
 565              	RTC_1_DisableInt:
 566              	.LFB3:
 217:Generated_Source\PSoC5/RTC_1.c ****     /* Disable the interrupt. */
 567              		.loc 1 217 0
 568              		.cfi_startproc
 569              		@ args = 0, pretend = 0, frame = 0
 570              		@ frame_needed = 0, uses_anonymous_args = 0
 571              		@ link register save eliminated.
 219:Generated_Source\PSoC5/RTC_1.c **** }
 572              		.loc 1 219 0
 573 0000 0122     		movs	r2, #1
 574 0002 014B     		ldr	r3, .L47
 575 0004 1A60     		str	r2, [r3]
 576 0006 7047     		bx	lr
 577              	.L48:
 578              		.align	2
 579              	.L47:
 580 0008 80E100E0 		.word	-536813184
 581              		.cfi_endproc
 582              	.LFE3:
 583              		.size	RTC_1_DisableInt, .-RTC_1_DisableInt
 584              		.section	.text.RTC_1_Init,"ax",%progbits
 585              		.align	2
 586              		.global	RTC_1_Init
 587              		.thumb
 588              		.thumb_func
 589              		.type	RTC_1_Init, %function
 590              	RTC_1_Init:
 591              	.LFB4:
 392:Generated_Source\PSoC5/RTC_1.c ****     /* Start calculation of required date and flags */
 592              		.loc 1 392 0
 593              		.cfi_startproc
 594              		@ args = 0, pretend = 0, frame = 0
 595              		@ frame_needed = 0, uses_anonymous_args = 0
 596 0000 08B5     		push	{r3, lr}
 597              		.cfi_def_cfa_offset 8
 598              		.cfi_offset 3, -8
 599              		.cfi_offset 14, -4
 394:Generated_Source\PSoC5/RTC_1.c **** 
 600              		.loc 1 394 0
 601 0002 FFF7FEFF 		bl	RTC_1_SetInitValues
 602              	.LVL15:
 397:Generated_Source\PSoC5/RTC_1.c **** 
 603              		.loc 1 397 0
 604 0006 0122     		movs	r2, #1
 605 0008 054B     		ldr	r3, .L51
 606 000a 1A60     		str	r2, [r3]
 400:Generated_Source\PSoC5/RTC_1.c **** 
ARM GAS  C:\Users\HPz420\AppData\Local\Temp\cce1Gm9q.s 			page 48


 607              		.loc 1 400 0
 608 000c 0549     		ldr	r1, .L51+4
 609 000e 0020     		movs	r0, #0
 610 0010 FFF7FEFF 		bl	CyIntSetVector
 611              	.LVL16:
 403:Generated_Source\PSoC5/RTC_1.c **** }
 612              		.loc 1 403 0
 613 0014 0721     		movs	r1, #7
 614 0016 0020     		movs	r0, #0
 615 0018 FFF7FEFF 		bl	CyIntSetPriority
 616              	.LVL17:
 617 001c 08BD     		pop	{r3, pc}
 618              	.L52:
 619 001e 00BF     		.align	2
 620              	.L51:
 621 0020 80E100E0 		.word	-536813184
 622 0024 00000000 		.word	RTC_1_ISR
 623              		.cfi_endproc
 624              	.LFE4:
 625              		.size	RTC_1_Init, .-RTC_1_Init
 626              		.section	.text.RTC_1_Enable,"ax",%progbits
 627              		.align	2
 628              		.global	RTC_1_Enable
 629              		.thumb
 630              		.thumb_func
 631              		.type	RTC_1_Enable, %function
 632              	RTC_1_Enable:
 633              	.LFB5:
 428:Generated_Source\PSoC5/RTC_1.c ****     uint8 interruptState;
 634              		.loc 1 428 0
 635              		.cfi_startproc
 636              		@ args = 0, pretend = 0, frame = 0
 637              		@ frame_needed = 0, uses_anonymous_args = 0
 638 0000 08B5     		push	{r3, lr}
 639              		.cfi_def_cfa_offset 8
 640              		.cfi_offset 3, -8
 641              		.cfi_offset 14, -4
 432:Generated_Source\PSoC5/RTC_1.c **** 
 642              		.loc 1 432 0
 643 0002 FFF7FEFF 		bl	CyEnterCriticalSection
 644              	.LVL18:
 435:Generated_Source\PSoC5/RTC_1.c **** 
 645              		.loc 1 435 0
 646 0006 054A     		ldr	r2, .L55
 647 0008 1378     		ldrb	r3, [r2]	@ zero_extendqisi2
 648 000a 43F03003 		orr	r3, r3, #48
 649 000e 1370     		strb	r3, [r2]
 438:Generated_Source\PSoC5/RTC_1.c **** 
 650              		.loc 1 438 0
 651 0010 FFF7FEFF 		bl	CyExitCriticalSection
 652              	.LVL19:
 441:Generated_Source\PSoC5/RTC_1.c **** }
 653              		.loc 1 441 0
 654 0014 0122     		movs	r2, #1
 655 0016 024B     		ldr	r3, .L55+4
 656 0018 1A60     		str	r2, [r3]
 657 001a 08BD     		pop	{r3, pc}
ARM GAS  C:\Users\HPz420\AppData\Local\Temp\cce1Gm9q.s 			page 49


 658              	.L56:
 659              		.align	2
 660              	.L55:
 661 001c 82430040 		.word	1073759106
 662 0020 00E100E0 		.word	-536813312
 663              		.cfi_endproc
 664              	.LFE5:
 665              		.size	RTC_1_Enable, .-RTC_1_Enable
 666              		.section	.text.RTC_1_Start,"ax",%progbits
 667              		.align	2
 668              		.global	RTC_1_Start
 669              		.thumb
 670              		.thumb_func
 671              		.type	RTC_1_Start, %function
 672              	RTC_1_Start:
 673              	.LFB0:
 130:Generated_Source\PSoC5/RTC_1.c ****     /* Execute once in normal flow */
 674              		.loc 1 130 0
 675              		.cfi_startproc
 676              		@ args = 0, pretend = 0, frame = 0
 677              		@ frame_needed = 0, uses_anonymous_args = 0
 678 0000 08B5     		push	{r3, lr}
 679              		.cfi_def_cfa_offset 8
 680              		.cfi_offset 3, -8
 681              		.cfi_offset 14, -4
 132:Generated_Source\PSoC5/RTC_1.c ****     {
 682              		.loc 1 132 0
 683 0002 054B     		ldr	r3, .L60
 684 0004 DB78     		ldrb	r3, [r3, #3]	@ zero_extendqisi2
 685 0006 23B9     		cbnz	r3, .L58
 134:Generated_Source\PSoC5/RTC_1.c ****         RTC_1_initVar = 1u;
 686              		.loc 1 134 0
 687 0008 FFF7FEFF 		bl	RTC_1_Init
 688              	.LVL20:
 135:Generated_Source\PSoC5/RTC_1.c ****     }
 689              		.loc 1 135 0
 690 000c 0122     		movs	r2, #1
 691 000e 024B     		ldr	r3, .L60
 692 0010 DA70     		strb	r2, [r3, #3]
 693              	.L58:
 139:Generated_Source\PSoC5/RTC_1.c **** }
 694              		.loc 1 139 0
 695 0012 FFF7FEFF 		bl	RTC_1_Enable
 696              	.LVL21:
 697 0016 08BD     		pop	{r3, pc}
 698              	.L61:
 699              		.align	2
 700              	.L60:
 701 0018 00000000 		.word	.LANCHOR2
 702              		.cfi_endproc
 703              	.LFE0:
 704              		.size	RTC_1_Start, .-RTC_1_Start
 705              		.section	.text.RTC_1_ReadTime,"ax",%progbits
 706              		.align	2
 707              		.global	RTC_1_ReadTime
 708              		.thumb
 709              		.thumb_func
ARM GAS  C:\Users\HPz420\AppData\Local\Temp\cce1Gm9q.s 			page 50


 710              		.type	RTC_1_ReadTime, %function
 711              	RTC_1_ReadTime:
 712              	.LFB6:
 470:Generated_Source\PSoC5/RTC_1.c ****     /* Returns a pointer to the current time and date structure */
 713              		.loc 1 470 0
 714              		.cfi_startproc
 715              		@ args = 0, pretend = 0, frame = 0
 716              		@ frame_needed = 0, uses_anonymous_args = 0
 717              		@ link register save eliminated.
 473:Generated_Source\PSoC5/RTC_1.c **** 
 718              		.loc 1 473 0
 719 0000 0048     		ldr	r0, .L63
 720 0002 7047     		bx	lr
 721              	.L64:
 722              		.align	2
 723              	.L63:
 724 0004 00000000 		.word	.LANCHOR1
 725              		.cfi_endproc
 726              	.LFE6:
 727              		.size	RTC_1_ReadTime, .-RTC_1_ReadTime
 728              		.section	.text.RTC_1_WriteTime,"ax",%progbits
 729              		.align	2
 730              		.global	RTC_1_WriteTime
 731              		.thumb
 732              		.thumb_func
 733              		.type	RTC_1_WriteTime, %function
 734              	RTC_1_WriteTime:
 735              	.LFB7:
 502:Generated_Source\PSoC5/RTC_1.c ****     /* Disable Interrupt of RTC Component */
 736              		.loc 1 502 0
 737              		.cfi_startproc
 738              		@ args = 0, pretend = 0, frame = 0
 739              		@ frame_needed = 0, uses_anonymous_args = 0
 740              	.LVL22:
 741 0000 10B5     		push	{r4, lr}
 742              		.cfi_def_cfa_offset 8
 743              		.cfi_offset 4, -8
 744              		.cfi_offset 14, -4
 745 0002 0446     		mov	r4, r0
 504:Generated_Source\PSoC5/RTC_1.c **** 
 746              		.loc 1 504 0
 747 0004 FFF7FEFF 		bl	RTC_1_DisableInt
 748              	.LVL23:
 507:Generated_Source\PSoC5/RTC_1.c ****     RTC_1_currentTimeDate.Min = timeDate->Min;
 749              		.loc 1 507 0
 750 0008 2278     		ldrb	r2, [r4]	@ zero_extendqisi2
 751 000a D2B2     		uxtb	r2, r2
 752 000c 094B     		ldr	r3, .L67
 753 000e 1A70     		strb	r2, [r3]
 508:Generated_Source\PSoC5/RTC_1.c ****     RTC_1_currentTimeDate.Hour = timeDate->Hour;
 754              		.loc 1 508 0
 755 0010 6278     		ldrb	r2, [r4, #1]	@ zero_extendqisi2
 756 0012 D2B2     		uxtb	r2, r2
 757 0014 5A70     		strb	r2, [r3, #1]
 509:Generated_Source\PSoC5/RTC_1.c ****     RTC_1_currentTimeDate.DayOfMonth = timeDate->DayOfMonth;
 758              		.loc 1 509 0
 759 0016 A278     		ldrb	r2, [r4, #2]	@ zero_extendqisi2
ARM GAS  C:\Users\HPz420\AppData\Local\Temp\cce1Gm9q.s 			page 51


 760 0018 D2B2     		uxtb	r2, r2
 761 001a 9A70     		strb	r2, [r3, #2]
 510:Generated_Source\PSoC5/RTC_1.c ****     RTC_1_currentTimeDate.Month = timeDate->Month;
 762              		.loc 1 510 0
 763 001c 2279     		ldrb	r2, [r4, #4]	@ zero_extendqisi2
 764 001e D2B2     		uxtb	r2, r2
 765 0020 1A71     		strb	r2, [r3, #4]
 511:Generated_Source\PSoC5/RTC_1.c ****     RTC_1_currentTimeDate.Year = timeDate->Year;
 766              		.loc 1 511 0
 767 0022 227A     		ldrb	r2, [r4, #8]	@ zero_extendqisi2
 768 0024 D2B2     		uxtb	r2, r2
 769 0026 1A72     		strb	r2, [r3, #8]
 512:Generated_Source\PSoC5/RTC_1.c **** 
 770              		.loc 1 512 0
 771 0028 6289     		ldrh	r2, [r4, #10]
 772 002a 92B2     		uxth	r2, r2
 773 002c 5A81     		strh	r2, [r3, #10]	@ movhi
 515:Generated_Source\PSoC5/RTC_1.c **** }
 774              		.loc 1 515 0
 775 002e FFF7FEFF 		bl	RTC_1_EnableInt
 776              	.LVL24:
 777 0032 10BD     		pop	{r4, pc}
 778              	.LVL25:
 779              	.L68:
 780              		.align	2
 781              	.L67:
 782 0034 00000000 		.word	.LANCHOR1
 783              		.cfi_endproc
 784              	.LFE7:
 785              		.size	RTC_1_WriteTime, .-RTC_1_WriteTime
 786              		.section	.text.RTC_1_WriteSecond,"ax",%progbits
 787              		.align	2
 788              		.global	RTC_1_WriteSecond
 789              		.thumb
 790              		.thumb_func
 791              		.type	RTC_1_WriteSecond, %function
 792              	RTC_1_WriteSecond:
 793              	.LFB8:
 541:Generated_Source\PSoC5/RTC_1.c ****     /* Save seconds to the current time and date structure */
 794              		.loc 1 541 0
 795              		.cfi_startproc
 796              		@ args = 0, pretend = 0, frame = 0
 797              		@ frame_needed = 0, uses_anonymous_args = 0
 798              		@ link register save eliminated.
 799              	.LVL26:
 543:Generated_Source\PSoC5/RTC_1.c **** }
 800              		.loc 1 543 0
 801 0000 014B     		ldr	r3, .L70
 802 0002 1870     		strb	r0, [r3]
 803 0004 7047     		bx	lr
 804              	.L71:
 805 0006 00BF     		.align	2
 806              	.L70:
 807 0008 00000000 		.word	.LANCHOR1
 808              		.cfi_endproc
 809              	.LFE8:
 810              		.size	RTC_1_WriteSecond, .-RTC_1_WriteSecond
ARM GAS  C:\Users\HPz420\AppData\Local\Temp\cce1Gm9q.s 			page 52


 811              		.section	.text.RTC_1_WriteMinute,"ax",%progbits
 812              		.align	2
 813              		.global	RTC_1_WriteMinute
 814              		.thumb
 815              		.thumb_func
 816              		.type	RTC_1_WriteMinute, %function
 817              	RTC_1_WriteMinute:
 818              	.LFB9:
 569:Generated_Source\PSoC5/RTC_1.c ****     /* Save minutes to the current time and date structure */
 819              		.loc 1 569 0
 820              		.cfi_startproc
 821              		@ args = 0, pretend = 0, frame = 0
 822              		@ frame_needed = 0, uses_anonymous_args = 0
 823              		@ link register save eliminated.
 824              	.LVL27:
 571:Generated_Source\PSoC5/RTC_1.c **** }
 825              		.loc 1 571 0
 826 0000 014B     		ldr	r3, .L73
 827 0002 5870     		strb	r0, [r3, #1]
 828 0004 7047     		bx	lr
 829              	.L74:
 830 0006 00BF     		.align	2
 831              	.L73:
 832 0008 00000000 		.word	.LANCHOR1
 833              		.cfi_endproc
 834              	.LFE9:
 835              		.size	RTC_1_WriteMinute, .-RTC_1_WriteMinute
 836              		.section	.text.RTC_1_WriteHour,"ax",%progbits
 837              		.align	2
 838              		.global	RTC_1_WriteHour
 839              		.thumb
 840              		.thumb_func
 841              		.type	RTC_1_WriteHour, %function
 842              	RTC_1_WriteHour:
 843              	.LFB10:
 597:Generated_Source\PSoC5/RTC_1.c ****     /* Save hours to the current time and date structure */
 844              		.loc 1 597 0
 845              		.cfi_startproc
 846              		@ args = 0, pretend = 0, frame = 0
 847              		@ frame_needed = 0, uses_anonymous_args = 0
 848              		@ link register save eliminated.
 849              	.LVL28:
 599:Generated_Source\PSoC5/RTC_1.c **** }
 850              		.loc 1 599 0
 851 0000 014B     		ldr	r3, .L76
 852 0002 9870     		strb	r0, [r3, #2]
 853 0004 7047     		bx	lr
 854              	.L77:
 855 0006 00BF     		.align	2
 856              	.L76:
 857 0008 00000000 		.word	.LANCHOR1
 858              		.cfi_endproc
 859              	.LFE10:
 860              		.size	RTC_1_WriteHour, .-RTC_1_WriteHour
 861              		.section	.text.RTC_1_WriteDayOfMonth,"ax",%progbits
 862              		.align	2
 863              		.global	RTC_1_WriteDayOfMonth
ARM GAS  C:\Users\HPz420\AppData\Local\Temp\cce1Gm9q.s 			page 53


 864              		.thumb
 865              		.thumb_func
 866              		.type	RTC_1_WriteDayOfMonth, %function
 867              	RTC_1_WriteDayOfMonth:
 868              	.LFB11:
 625:Generated_Source\PSoC5/RTC_1.c ****     /* Save day of month to the current time and date structure */
 869              		.loc 1 625 0
 870              		.cfi_startproc
 871              		@ args = 0, pretend = 0, frame = 0
 872              		@ frame_needed = 0, uses_anonymous_args = 0
 873              		@ link register save eliminated.
 874              	.LVL29:
 627:Generated_Source\PSoC5/RTC_1.c **** }
 875              		.loc 1 627 0
 876 0000 014B     		ldr	r3, .L79
 877 0002 1871     		strb	r0, [r3, #4]
 878 0004 7047     		bx	lr
 879              	.L80:
 880 0006 00BF     		.align	2
 881              	.L79:
 882 0008 00000000 		.word	.LANCHOR1
 883              		.cfi_endproc
 884              	.LFE11:
 885              		.size	RTC_1_WriteDayOfMonth, .-RTC_1_WriteDayOfMonth
 886              		.section	.text.RTC_1_WriteMonth,"ax",%progbits
 887              		.align	2
 888              		.global	RTC_1_WriteMonth
 889              		.thumb
 890              		.thumb_func
 891              		.type	RTC_1_WriteMonth, %function
 892              	RTC_1_WriteMonth:
 893              	.LFB12:
 653:Generated_Source\PSoC5/RTC_1.c ****     /* Save months to the current time and date structure */
 894              		.loc 1 653 0
 895              		.cfi_startproc
 896              		@ args = 0, pretend = 0, frame = 0
 897              		@ frame_needed = 0, uses_anonymous_args = 0
 898              		@ link register save eliminated.
 899              	.LVL30:
 655:Generated_Source\PSoC5/RTC_1.c **** }
 900              		.loc 1 655 0
 901 0000 014B     		ldr	r3, .L82
 902 0002 1872     		strb	r0, [r3, #8]
 903 0004 7047     		bx	lr
 904              	.L83:
 905 0006 00BF     		.align	2
 906              	.L82:
 907 0008 00000000 		.word	.LANCHOR1
 908              		.cfi_endproc
 909              	.LFE12:
 910              		.size	RTC_1_WriteMonth, .-RTC_1_WriteMonth
 911              		.section	.text.RTC_1_WriteYear,"ax",%progbits
 912              		.align	2
 913              		.global	RTC_1_WriteYear
 914              		.thumb
 915              		.thumb_func
 916              		.type	RTC_1_WriteYear, %function
ARM GAS  C:\Users\HPz420\AppData\Local\Temp\cce1Gm9q.s 			page 54


 917              	RTC_1_WriteYear:
 918              	.LFB13:
 681:Generated_Source\PSoC5/RTC_1.c ****     /* Save years to the current time and date structure */
 919              		.loc 1 681 0
 920              		.cfi_startproc
 921              		@ args = 0, pretend = 0, frame = 0
 922              		@ frame_needed = 0, uses_anonymous_args = 0
 923              		@ link register save eliminated.
 924              	.LVL31:
 683:Generated_Source\PSoC5/RTC_1.c **** }
 925              		.loc 1 683 0
 926 0000 014B     		ldr	r3, .L85
 927 0002 5881     		strh	r0, [r3, #10]	@ movhi
 928 0004 7047     		bx	lr
 929              	.L86:
 930 0006 00BF     		.align	2
 931              	.L85:
 932 0008 00000000 		.word	.LANCHOR1
 933              		.cfi_endproc
 934              	.LFE13:
 935              		.size	RTC_1_WriteYear, .-RTC_1_WriteYear
 936              		.section	.text.RTC_1_WriteAlarmSecond,"ax",%progbits
 937              		.align	2
 938              		.global	RTC_1_WriteAlarmSecond
 939              		.thumb
 940              		.thumb_func
 941              		.type	RTC_1_WriteAlarmSecond, %function
 942              	RTC_1_WriteAlarmSecond:
 943              	.LFB14:
 715:Generated_Source\PSoC5/RTC_1.c ****     RTC_1_alarmCfgTimeDate.Sec = second;
 944              		.loc 1 715 0
 945              		.cfi_startproc
 946              		@ args = 0, pretend = 0, frame = 0
 947              		@ frame_needed = 0, uses_anonymous_args = 0
 948              		@ link register save eliminated.
 949              	.LVL32:
 716:Generated_Source\PSoC5/RTC_1.c **** 
 950              		.loc 1 716 0
 951 0000 094B     		ldr	r3, .L90
 952 0002 1873     		strb	r0, [r3, #12]
 719:Generated_Source\PSoC5/RTC_1.c ****     {
 953              		.loc 1 719 0
 954 0004 1A7B     		ldrb	r2, [r3, #12]	@ zero_extendqisi2
 955 0006 D2B2     		uxtb	r2, r2
 956 0008 1B78     		ldrb	r3, [r3]	@ zero_extendqisi2
 957 000a DBB2     		uxtb	r3, r3
 958 000c 9A42     		cmp	r2, r3
 959 000e 05D1     		bne	.L88
 722:Generated_Source\PSoC5/RTC_1.c ****     }
 960              		.loc 1 722 0
 961 0010 064A     		ldr	r2, .L90+4
 962 0012 9378     		ldrb	r3, [r2, #2]	@ zero_extendqisi2
 963 0014 43F00103 		orr	r3, r3, #1
 964 0018 9370     		strb	r3, [r2, #2]
 965 001a 7047     		bx	lr
 966              	.L88:
 727:Generated_Source\PSoC5/RTC_1.c ****     }
ARM GAS  C:\Users\HPz420\AppData\Local\Temp\cce1Gm9q.s 			page 55


 967              		.loc 1 727 0
 968 001c 034A     		ldr	r2, .L90+4
 969 001e 9378     		ldrb	r3, [r2, #2]	@ zero_extendqisi2
 970 0020 03F0FE03 		and	r3, r3, #254
 971 0024 9370     		strb	r3, [r2, #2]
 972 0026 7047     		bx	lr
 973              	.L91:
 974              		.align	2
 975              	.L90:
 976 0028 00000000 		.word	.LANCHOR1
 977 002c 00000000 		.word	.LANCHOR2
 978              		.cfi_endproc
 979              	.LFE14:
 980              		.size	RTC_1_WriteAlarmSecond, .-RTC_1_WriteAlarmSecond
 981              		.section	.text.RTC_1_WriteAlarmMinute,"ax",%progbits
 982              		.align	2
 983              		.global	RTC_1_WriteAlarmMinute
 984              		.thumb
 985              		.thumb_func
 986              		.type	RTC_1_WriteAlarmMinute, %function
 987              	RTC_1_WriteAlarmMinute:
 988              	.LFB15:
 760:Generated_Source\PSoC5/RTC_1.c ****     RTC_1_alarmCfgTimeDate.Min = minute;
 989              		.loc 1 760 0
 990              		.cfi_startproc
 991              		@ args = 0, pretend = 0, frame = 0
 992              		@ frame_needed = 0, uses_anonymous_args = 0
 993              		@ link register save eliminated.
 994              	.LVL33:
 761:Generated_Source\PSoC5/RTC_1.c **** 
 995              		.loc 1 761 0
 996 0000 094B     		ldr	r3, .L95
 997 0002 5873     		strb	r0, [r3, #13]
 764:Generated_Source\PSoC5/RTC_1.c ****     {
 998              		.loc 1 764 0
 999 0004 5A7B     		ldrb	r2, [r3, #13]	@ zero_extendqisi2
 1000 0006 D2B2     		uxtb	r2, r2
 1001 0008 5B78     		ldrb	r3, [r3, #1]	@ zero_extendqisi2
 1002 000a DBB2     		uxtb	r3, r3
 1003 000c 9A42     		cmp	r2, r3
 1004 000e 05D1     		bne	.L93
 767:Generated_Source\PSoC5/RTC_1.c ****     }
 1005              		.loc 1 767 0
 1006 0010 064A     		ldr	r2, .L95+4
 1007 0012 9378     		ldrb	r3, [r2, #2]	@ zero_extendqisi2
 1008 0014 43F00203 		orr	r3, r3, #2
 1009 0018 9370     		strb	r3, [r2, #2]
 1010 001a 7047     		bx	lr
 1011              	.L93:
 772:Generated_Source\PSoC5/RTC_1.c ****     }
 1012              		.loc 1 772 0
 1013 001c 034A     		ldr	r2, .L95+4
 1014 001e 9378     		ldrb	r3, [r2, #2]	@ zero_extendqisi2
 1015 0020 03F0FD03 		and	r3, r3, #253
 1016 0024 9370     		strb	r3, [r2, #2]
 1017 0026 7047     		bx	lr
 1018              	.L96:
ARM GAS  C:\Users\HPz420\AppData\Local\Temp\cce1Gm9q.s 			page 56


 1019              		.align	2
 1020              	.L95:
 1021 0028 00000000 		.word	.LANCHOR1
 1022 002c 00000000 		.word	.LANCHOR2
 1023              		.cfi_endproc
 1024              	.LFE15:
 1025              		.size	RTC_1_WriteAlarmMinute, .-RTC_1_WriteAlarmMinute
 1026              		.section	.text.RTC_1_WriteAlarmHour,"ax",%progbits
 1027              		.align	2
 1028              		.global	RTC_1_WriteAlarmHour
 1029              		.thumb
 1030              		.thumb_func
 1031              		.type	RTC_1_WriteAlarmHour, %function
 1032              	RTC_1_WriteAlarmHour:
 1033              	.LFB16:
 805:Generated_Source\PSoC5/RTC_1.c ****     RTC_1_alarmCfgTimeDate.Hour = hour;
 1034              		.loc 1 805 0
 1035              		.cfi_startproc
 1036              		@ args = 0, pretend = 0, frame = 0
 1037              		@ frame_needed = 0, uses_anonymous_args = 0
 1038              		@ link register save eliminated.
 1039              	.LVL34:
 806:Generated_Source\PSoC5/RTC_1.c **** 
 1040              		.loc 1 806 0
 1041 0000 094B     		ldr	r3, .L100
 1042 0002 9873     		strb	r0, [r3, #14]
 809:Generated_Source\PSoC5/RTC_1.c ****     {
 1043              		.loc 1 809 0
 1044 0004 9A7B     		ldrb	r2, [r3, #14]	@ zero_extendqisi2
 1045 0006 D2B2     		uxtb	r2, r2
 1046 0008 9B78     		ldrb	r3, [r3, #2]	@ zero_extendqisi2
 1047 000a DBB2     		uxtb	r3, r3
 1048 000c 9A42     		cmp	r2, r3
 1049 000e 05D1     		bne	.L98
 812:Generated_Source\PSoC5/RTC_1.c ****     }
 1050              		.loc 1 812 0
 1051 0010 064A     		ldr	r2, .L100+4
 1052 0012 9378     		ldrb	r3, [r2, #2]	@ zero_extendqisi2
 1053 0014 43F00403 		orr	r3, r3, #4
 1054 0018 9370     		strb	r3, [r2, #2]
 1055 001a 7047     		bx	lr
 1056              	.L98:
 817:Generated_Source\PSoC5/RTC_1.c ****     }
 1057              		.loc 1 817 0
 1058 001c 034A     		ldr	r2, .L100+4
 1059 001e 9378     		ldrb	r3, [r2, #2]	@ zero_extendqisi2
 1060 0020 03F0FB03 		and	r3, r3, #251
 1061 0024 9370     		strb	r3, [r2, #2]
 1062 0026 7047     		bx	lr
 1063              	.L101:
 1064              		.align	2
 1065              	.L100:
 1066 0028 00000000 		.word	.LANCHOR1
 1067 002c 00000000 		.word	.LANCHOR2
 1068              		.cfi_endproc
 1069              	.LFE16:
 1070              		.size	RTC_1_WriteAlarmHour, .-RTC_1_WriteAlarmHour
ARM GAS  C:\Users\HPz420\AppData\Local\Temp\cce1Gm9q.s 			page 57


 1071              		.section	.text.RTC_1_WriteAlarmDayOfMonth,"ax",%progbits
 1072              		.align	2
 1073              		.global	RTC_1_WriteAlarmDayOfMonth
 1074              		.thumb
 1075              		.thumb_func
 1076              		.type	RTC_1_WriteAlarmDayOfMonth, %function
 1077              	RTC_1_WriteAlarmDayOfMonth:
 1078              	.LFB17:
 850:Generated_Source\PSoC5/RTC_1.c ****     RTC_1_alarmCfgTimeDate.DayOfMonth = dayOfMonth;
 1079              		.loc 1 850 0
 1080              		.cfi_startproc
 1081              		@ args = 0, pretend = 0, frame = 0
 1082              		@ frame_needed = 0, uses_anonymous_args = 0
 1083              		@ link register save eliminated.
 1084              	.LVL35:
 851:Generated_Source\PSoC5/RTC_1.c **** 
 1085              		.loc 1 851 0
 1086 0000 094B     		ldr	r3, .L105
 1087 0002 1874     		strb	r0, [r3, #16]
 854:Generated_Source\PSoC5/RTC_1.c ****     {
 1088              		.loc 1 854 0
 1089 0004 1A7C     		ldrb	r2, [r3, #16]	@ zero_extendqisi2
 1090 0006 D2B2     		uxtb	r2, r2
 1091 0008 1B79     		ldrb	r3, [r3, #4]	@ zero_extendqisi2
 1092 000a DBB2     		uxtb	r3, r3
 1093 000c 9A42     		cmp	r2, r3
 1094 000e 05D1     		bne	.L103
 857:Generated_Source\PSoC5/RTC_1.c ****     }
 1095              		.loc 1 857 0
 1096 0010 064A     		ldr	r2, .L105+4
 1097 0012 9378     		ldrb	r3, [r2, #2]	@ zero_extendqisi2
 1098 0014 43F01003 		orr	r3, r3, #16
 1099 0018 9370     		strb	r3, [r2, #2]
 1100 001a 7047     		bx	lr
 1101              	.L103:
 862:Generated_Source\PSoC5/RTC_1.c ****     }
 1102              		.loc 1 862 0
 1103 001c 034A     		ldr	r2, .L105+4
 1104 001e 9378     		ldrb	r3, [r2, #2]	@ zero_extendqisi2
 1105 0020 03F0EF03 		and	r3, r3, #239
 1106 0024 9370     		strb	r3, [r2, #2]
 1107 0026 7047     		bx	lr
 1108              	.L106:
 1109              		.align	2
 1110              	.L105:
 1111 0028 00000000 		.word	.LANCHOR1
 1112 002c 00000000 		.word	.LANCHOR2
 1113              		.cfi_endproc
 1114              	.LFE17:
 1115              		.size	RTC_1_WriteAlarmDayOfMonth, .-RTC_1_WriteAlarmDayOfMonth
 1116              		.section	.text.RTC_1_WriteAlarmMonth,"ax",%progbits
 1117              		.align	2
 1118              		.global	RTC_1_WriteAlarmMonth
 1119              		.thumb
 1120              		.thumb_func
 1121              		.type	RTC_1_WriteAlarmMonth, %function
 1122              	RTC_1_WriteAlarmMonth:
ARM GAS  C:\Users\HPz420\AppData\Local\Temp\cce1Gm9q.s 			page 58


 1123              	.LFB18:
 895:Generated_Source\PSoC5/RTC_1.c ****     RTC_1_alarmCfgTimeDate.Month = month;
 1124              		.loc 1 895 0
 1125              		.cfi_startproc
 1126              		@ args = 0, pretend = 0, frame = 0
 1127              		@ frame_needed = 0, uses_anonymous_args = 0
 1128              		@ link register save eliminated.
 1129              	.LVL36:
 896:Generated_Source\PSoC5/RTC_1.c **** 
 1130              		.loc 1 896 0
 1131 0000 094B     		ldr	r3, .L110
 1132 0002 1875     		strb	r0, [r3, #20]
 899:Generated_Source\PSoC5/RTC_1.c ****     {
 1133              		.loc 1 899 0
 1134 0004 1A7D     		ldrb	r2, [r3, #20]	@ zero_extendqisi2
 1135 0006 D2B2     		uxtb	r2, r2
 1136 0008 1B7A     		ldrb	r3, [r3, #8]	@ zero_extendqisi2
 1137 000a DBB2     		uxtb	r3, r3
 1138 000c 9A42     		cmp	r2, r3
 1139 000e 05D1     		bne	.L108
 902:Generated_Source\PSoC5/RTC_1.c ****     }
 1140              		.loc 1 902 0
 1141 0010 064A     		ldr	r2, .L110+4
 1142 0012 9378     		ldrb	r3, [r2, #2]	@ zero_extendqisi2
 1143 0014 43F04003 		orr	r3, r3, #64
 1144 0018 9370     		strb	r3, [r2, #2]
 1145 001a 7047     		bx	lr
 1146              	.L108:
 907:Generated_Source\PSoC5/RTC_1.c ****     }
 1147              		.loc 1 907 0
 1148 001c 034A     		ldr	r2, .L110+4
 1149 001e 9378     		ldrb	r3, [r2, #2]	@ zero_extendqisi2
 1150 0020 03F0BF03 		and	r3, r3, #191
 1151 0024 9370     		strb	r3, [r2, #2]
 1152 0026 7047     		bx	lr
 1153              	.L111:
 1154              		.align	2
 1155              	.L110:
 1156 0028 00000000 		.word	.LANCHOR1
 1157 002c 00000000 		.word	.LANCHOR2
 1158              		.cfi_endproc
 1159              	.LFE18:
 1160              		.size	RTC_1_WriteAlarmMonth, .-RTC_1_WriteAlarmMonth
 1161              		.section	.text.RTC_1_WriteAlarmYear,"ax",%progbits
 1162              		.align	2
 1163              		.global	RTC_1_WriteAlarmYear
 1164              		.thumb
 1165              		.thumb_func
 1166              		.type	RTC_1_WriteAlarmYear, %function
 1167              	RTC_1_WriteAlarmYear:
 1168              	.LFB19:
 940:Generated_Source\PSoC5/RTC_1.c ****    RTC_1_alarmCfgTimeDate.Year = year;
 1169              		.loc 1 940 0
 1170              		.cfi_startproc
 1171              		@ args = 0, pretend = 0, frame = 0
 1172              		@ frame_needed = 0, uses_anonymous_args = 0
 1173              		@ link register save eliminated.
ARM GAS  C:\Users\HPz420\AppData\Local\Temp\cce1Gm9q.s 			page 59


 1174              	.LVL37:
 941:Generated_Source\PSoC5/RTC_1.c **** 
 1175              		.loc 1 941 0
 1176 0000 094B     		ldr	r3, .L115
 1177 0002 D882     		strh	r0, [r3, #22]	@ movhi
 944:Generated_Source\PSoC5/RTC_1.c ****     {
 1178              		.loc 1 944 0
 1179 0004 DA8A     		ldrh	r2, [r3, #22]
 1180 0006 92B2     		uxth	r2, r2
 1181 0008 5B89     		ldrh	r3, [r3, #10]
 1182 000a 9BB2     		uxth	r3, r3
 1183 000c 9A42     		cmp	r2, r3
 1184 000e 05D1     		bne	.L113
 947:Generated_Source\PSoC5/RTC_1.c ****     }
 1185              		.loc 1 947 0
 1186 0010 064A     		ldr	r2, .L115+4
 1187 0012 9378     		ldrb	r3, [r2, #2]	@ zero_extendqisi2
 1188 0014 43F08003 		orr	r3, r3, #128
 1189 0018 9370     		strb	r3, [r2, #2]
 1190 001a 7047     		bx	lr
 1191              	.L113:
 952:Generated_Source\PSoC5/RTC_1.c ****     }
 1192              		.loc 1 952 0
 1193 001c 034A     		ldr	r2, .L115+4
 1194 001e 9378     		ldrb	r3, [r2, #2]	@ zero_extendqisi2
 1195 0020 03F07F03 		and	r3, r3, #127
 1196 0024 9370     		strb	r3, [r2, #2]
 1197 0026 7047     		bx	lr
 1198              	.L116:
 1199              		.align	2
 1200              	.L115:
 1201 0028 00000000 		.word	.LANCHOR1
 1202 002c 00000000 		.word	.LANCHOR2
 1203              		.cfi_endproc
 1204              	.LFE19:
 1205              		.size	RTC_1_WriteAlarmYear, .-RTC_1_WriteAlarmYear
 1206              		.section	.text.RTC_1_WriteAlarmDayOfWeek,"ax",%progbits
 1207              		.align	2
 1208              		.global	RTC_1_WriteAlarmDayOfWeek
 1209              		.thumb
 1210              		.thumb_func
 1211              		.type	RTC_1_WriteAlarmDayOfWeek, %function
 1212              	RTC_1_WriteAlarmDayOfWeek:
 1213              	.LFB20:
 986:Generated_Source\PSoC5/RTC_1.c ****     RTC_1_alarmCfgTimeDate.DayOfWeek = dayOfWeek;
 1214              		.loc 1 986 0
 1215              		.cfi_startproc
 1216              		@ args = 0, pretend = 0, frame = 0
 1217              		@ frame_needed = 0, uses_anonymous_args = 0
 1218              		@ link register save eliminated.
 1219              	.LVL38:
 987:Generated_Source\PSoC5/RTC_1.c **** 
 1220              		.loc 1 987 0
 1221 0000 094B     		ldr	r3, .L120
 1222 0002 D873     		strb	r0, [r3, #15]
 990:Generated_Source\PSoC5/RTC_1.c ****     {
 1223              		.loc 1 990 0
ARM GAS  C:\Users\HPz420\AppData\Local\Temp\cce1Gm9q.s 			page 60


 1224 0004 DA7B     		ldrb	r2, [r3, #15]	@ zero_extendqisi2
 1225 0006 D2B2     		uxtb	r2, r2
 1226 0008 DB78     		ldrb	r3, [r3, #3]	@ zero_extendqisi2
 1227 000a DBB2     		uxtb	r3, r3
 1228 000c 9A42     		cmp	r2, r3
 1229 000e 05D1     		bne	.L118
 993:Generated_Source\PSoC5/RTC_1.c ****     }
 1230              		.loc 1 993 0
 1231 0010 064A     		ldr	r2, .L120+4
 1232 0012 9378     		ldrb	r3, [r2, #2]	@ zero_extendqisi2
 1233 0014 43F00803 		orr	r3, r3, #8
 1234 0018 9370     		strb	r3, [r2, #2]
 1235 001a 7047     		bx	lr
 1236              	.L118:
 998:Generated_Source\PSoC5/RTC_1.c ****     }
 1237              		.loc 1 998 0
 1238 001c 034A     		ldr	r2, .L120+4
 1239 001e 9378     		ldrb	r3, [r2, #2]	@ zero_extendqisi2
 1240 0020 03F0F703 		and	r3, r3, #247
 1241 0024 9370     		strb	r3, [r2, #2]
 1242 0026 7047     		bx	lr
 1243              	.L121:
 1244              		.align	2
 1245              	.L120:
 1246 0028 00000000 		.word	.LANCHOR1
 1247 002c 00000000 		.word	.LANCHOR2
 1248              		.cfi_endproc
 1249              	.LFE20:
 1250              		.size	RTC_1_WriteAlarmDayOfWeek, .-RTC_1_WriteAlarmDayOfWeek
 1251              		.section	.text.RTC_1_WriteAlarmDayOfYear,"ax",%progbits
 1252              		.align	2
 1253              		.global	RTC_1_WriteAlarmDayOfYear
 1254              		.thumb
 1255              		.thumb_func
 1256              		.type	RTC_1_WriteAlarmDayOfYear, %function
 1257              	RTC_1_WriteAlarmDayOfYear:
 1258              	.LFB21:
1031:Generated_Source\PSoC5/RTC_1.c ****   RTC_1_alarmCfgTimeDate.DayOfYear = dayOfYear;
 1259              		.loc 1 1031 0
 1260              		.cfi_startproc
 1261              		@ args = 0, pretend = 0, frame = 0
 1262              		@ frame_needed = 0, uses_anonymous_args = 0
 1263              		@ link register save eliminated.
 1264              	.LVL39:
1032:Generated_Source\PSoC5/RTC_1.c **** 
 1265              		.loc 1 1032 0
 1266 0000 094B     		ldr	r3, .L125
 1267 0002 5882     		strh	r0, [r3, #18]	@ movhi
1035:Generated_Source\PSoC5/RTC_1.c ****     {
 1268              		.loc 1 1035 0
 1269 0004 5A8A     		ldrh	r2, [r3, #18]
 1270 0006 92B2     		uxth	r2, r2
 1271 0008 DB88     		ldrh	r3, [r3, #6]
 1272 000a 9BB2     		uxth	r3, r3
 1273 000c 9A42     		cmp	r2, r3
 1274 000e 05D1     		bne	.L123
1038:Generated_Source\PSoC5/RTC_1.c ****     }
ARM GAS  C:\Users\HPz420\AppData\Local\Temp\cce1Gm9q.s 			page 61


 1275              		.loc 1 1038 0
 1276 0010 064A     		ldr	r2, .L125+4
 1277 0012 9378     		ldrb	r3, [r2, #2]	@ zero_extendqisi2
 1278 0014 43F02003 		orr	r3, r3, #32
 1279 0018 9370     		strb	r3, [r2, #2]
 1280 001a 7047     		bx	lr
 1281              	.L123:
1043:Generated_Source\PSoC5/RTC_1.c ****     }
 1282              		.loc 1 1043 0
 1283 001c 034A     		ldr	r2, .L125+4
 1284 001e 9378     		ldrb	r3, [r2, #2]	@ zero_extendqisi2
 1285 0020 03F0DF03 		and	r3, r3, #223
 1286 0024 9370     		strb	r3, [r2, #2]
 1287 0026 7047     		bx	lr
 1288              	.L126:
 1289              		.align	2
 1290              	.L125:
 1291 0028 00000000 		.word	.LANCHOR1
 1292 002c 00000000 		.word	.LANCHOR2
 1293              		.cfi_endproc
 1294              	.LFE21:
 1295              		.size	RTC_1_WriteAlarmDayOfYear, .-RTC_1_WriteAlarmDayOfYear
 1296              		.section	.text.RTC_1_ReadSecond,"ax",%progbits
 1297              		.align	2
 1298              		.global	RTC_1_ReadSecond
 1299              		.thumb
 1300              		.thumb_func
 1301              		.type	RTC_1_ReadSecond, %function
 1302              	RTC_1_ReadSecond:
 1303              	.LFB22:
1066:Generated_Source\PSoC5/RTC_1.c ****     /* Return current second */
 1304              		.loc 1 1066 0
 1305              		.cfi_startproc
 1306              		@ args = 0, pretend = 0, frame = 0
 1307              		@ frame_needed = 0, uses_anonymous_args = 0
 1308              		@ link register save eliminated.
1068:Generated_Source\PSoC5/RTC_1.c **** }
 1309              		.loc 1 1068 0
 1310 0000 014B     		ldr	r3, .L128
 1311 0002 1878     		ldrb	r0, [r3]	@ zero_extendqisi2
1069:Generated_Source\PSoC5/RTC_1.c **** 
 1312              		.loc 1 1069 0
 1313 0004 7047     		bx	lr
 1314              	.L129:
 1315 0006 00BF     		.align	2
 1316              	.L128:
 1317 0008 00000000 		.word	.LANCHOR1
 1318              		.cfi_endproc
 1319              	.LFE22:
 1320              		.size	RTC_1_ReadSecond, .-RTC_1_ReadSecond
 1321              		.section	.text.RTC_1_ReadMinute,"ax",%progbits
 1322              		.align	2
 1323              		.global	RTC_1_ReadMinute
 1324              		.thumb
 1325              		.thumb_func
 1326              		.type	RTC_1_ReadMinute, %function
 1327              	RTC_1_ReadMinute:
ARM GAS  C:\Users\HPz420\AppData\Local\Temp\cce1Gm9q.s 			page 62


 1328              	.LFB23:
1090:Generated_Source\PSoC5/RTC_1.c ****     /* Return current minute */
 1329              		.loc 1 1090 0
 1330              		.cfi_startproc
 1331              		@ args = 0, pretend = 0, frame = 0
 1332              		@ frame_needed = 0, uses_anonymous_args = 0
 1333              		@ link register save eliminated.
1092:Generated_Source\PSoC5/RTC_1.c **** }
 1334              		.loc 1 1092 0
 1335 0000 014B     		ldr	r3, .L131
 1336 0002 5878     		ldrb	r0, [r3, #1]	@ zero_extendqisi2
1093:Generated_Source\PSoC5/RTC_1.c **** 
 1337              		.loc 1 1093 0
 1338 0004 7047     		bx	lr
 1339              	.L132:
 1340 0006 00BF     		.align	2
 1341              	.L131:
 1342 0008 00000000 		.word	.LANCHOR1
 1343              		.cfi_endproc
 1344              	.LFE23:
 1345              		.size	RTC_1_ReadMinute, .-RTC_1_ReadMinute
 1346              		.section	.text.RTC_1_ReadHour,"ax",%progbits
 1347              		.align	2
 1348              		.global	RTC_1_ReadHour
 1349              		.thumb
 1350              		.thumb_func
 1351              		.type	RTC_1_ReadHour, %function
 1352              	RTC_1_ReadHour:
 1353              	.LFB24:
1114:Generated_Source\PSoC5/RTC_1.c ****     /* Return current hour */
 1354              		.loc 1 1114 0
 1355              		.cfi_startproc
 1356              		@ args = 0, pretend = 0, frame = 0
 1357              		@ frame_needed = 0, uses_anonymous_args = 0
 1358              		@ link register save eliminated.
1116:Generated_Source\PSoC5/RTC_1.c **** }
 1359              		.loc 1 1116 0
 1360 0000 014B     		ldr	r3, .L134
 1361 0002 9878     		ldrb	r0, [r3, #2]	@ zero_extendqisi2
1117:Generated_Source\PSoC5/RTC_1.c **** 
 1362              		.loc 1 1117 0
 1363 0004 7047     		bx	lr
 1364              	.L135:
 1365 0006 00BF     		.align	2
 1366              	.L134:
 1367 0008 00000000 		.word	.LANCHOR1
 1368              		.cfi_endproc
 1369              	.LFE24:
 1370              		.size	RTC_1_ReadHour, .-RTC_1_ReadHour
 1371              		.section	.text.RTC_1_ReadDayOfMonth,"ax",%progbits
 1372              		.align	2
 1373              		.global	RTC_1_ReadDayOfMonth
 1374              		.thumb
 1375              		.thumb_func
 1376              		.type	RTC_1_ReadDayOfMonth, %function
 1377              	RTC_1_ReadDayOfMonth:
 1378              	.LFB25:
ARM GAS  C:\Users\HPz420\AppData\Local\Temp\cce1Gm9q.s 			page 63


1140:Generated_Source\PSoC5/RTC_1.c ****     /* Return current day of the month */
 1379              		.loc 1 1140 0
 1380              		.cfi_startproc
 1381              		@ args = 0, pretend = 0, frame = 0
 1382              		@ frame_needed = 0, uses_anonymous_args = 0
 1383              		@ link register save eliminated.
1142:Generated_Source\PSoC5/RTC_1.c **** }
 1384              		.loc 1 1142 0
 1385 0000 014B     		ldr	r3, .L137
 1386 0002 1879     		ldrb	r0, [r3, #4]	@ zero_extendqisi2
1143:Generated_Source\PSoC5/RTC_1.c **** 
 1387              		.loc 1 1143 0
 1388 0004 7047     		bx	lr
 1389              	.L138:
 1390 0006 00BF     		.align	2
 1391              	.L137:
 1392 0008 00000000 		.word	.LANCHOR1
 1393              		.cfi_endproc
 1394              	.LFE25:
 1395              		.size	RTC_1_ReadDayOfMonth, .-RTC_1_ReadDayOfMonth
 1396              		.section	.text.RTC_1_ReadMonth,"ax",%progbits
 1397              		.align	2
 1398              		.global	RTC_1_ReadMonth
 1399              		.thumb
 1400              		.thumb_func
 1401              		.type	RTC_1_ReadMonth, %function
 1402              	RTC_1_ReadMonth:
 1403              	.LFB26:
1164:Generated_Source\PSoC5/RTC_1.c ****     /* Return current month */
 1404              		.loc 1 1164 0
 1405              		.cfi_startproc
 1406              		@ args = 0, pretend = 0, frame = 0
 1407              		@ frame_needed = 0, uses_anonymous_args = 0
 1408              		@ link register save eliminated.
1166:Generated_Source\PSoC5/RTC_1.c **** }
 1409              		.loc 1 1166 0
 1410 0000 014B     		ldr	r3, .L140
 1411 0002 187A     		ldrb	r0, [r3, #8]	@ zero_extendqisi2
1167:Generated_Source\PSoC5/RTC_1.c **** 
 1412              		.loc 1 1167 0
 1413 0004 7047     		bx	lr
 1414              	.L141:
 1415 0006 00BF     		.align	2
 1416              	.L140:
 1417 0008 00000000 		.word	.LANCHOR1
 1418              		.cfi_endproc
 1419              	.LFE26:
 1420              		.size	RTC_1_ReadMonth, .-RTC_1_ReadMonth
 1421              		.section	.text.RTC_1_ReadYear,"ax",%progbits
 1422              		.align	2
 1423              		.global	RTC_1_ReadYear
 1424              		.thumb
 1425              		.thumb_func
 1426              		.type	RTC_1_ReadYear, %function
 1427              	RTC_1_ReadYear:
 1428              	.LFB27:
1188:Generated_Source\PSoC5/RTC_1.c ****     /* Return current year */
ARM GAS  C:\Users\HPz420\AppData\Local\Temp\cce1Gm9q.s 			page 64


 1429              		.loc 1 1188 0
 1430              		.cfi_startproc
 1431              		@ args = 0, pretend = 0, frame = 0
 1432              		@ frame_needed = 0, uses_anonymous_args = 0
 1433              		@ link register save eliminated.
1190:Generated_Source\PSoC5/RTC_1.c **** }
 1434              		.loc 1 1190 0
 1435 0000 014B     		ldr	r3, .L143
 1436 0002 5889     		ldrh	r0, [r3, #10]
1191:Generated_Source\PSoC5/RTC_1.c **** 
 1437              		.loc 1 1191 0
 1438 0004 80B2     		uxth	r0, r0
 1439 0006 7047     		bx	lr
 1440              	.L144:
 1441              		.align	2
 1442              	.L143:
 1443 0008 00000000 		.word	.LANCHOR1
 1444              		.cfi_endproc
 1445              	.LFE27:
 1446              		.size	RTC_1_ReadYear, .-RTC_1_ReadYear
 1447              		.section	.text.RTC_1_ReadAlarmSecond,"ax",%progbits
 1448              		.align	2
 1449              		.global	RTC_1_ReadAlarmSecond
 1450              		.thumb
 1451              		.thumb_func
 1452              		.type	RTC_1_ReadAlarmSecond, %function
 1453              	RTC_1_ReadAlarmSecond:
 1454              	.LFB28:
1213:Generated_Source\PSoC5/RTC_1.c ****     /* Return current alarm second */
 1455              		.loc 1 1213 0
 1456              		.cfi_startproc
 1457              		@ args = 0, pretend = 0, frame = 0
 1458              		@ frame_needed = 0, uses_anonymous_args = 0
 1459              		@ link register save eliminated.
1215:Generated_Source\PSoC5/RTC_1.c **** }
 1460              		.loc 1 1215 0
 1461 0000 014B     		ldr	r3, .L146
 1462 0002 187B     		ldrb	r0, [r3, #12]	@ zero_extendqisi2
1216:Generated_Source\PSoC5/RTC_1.c **** 
 1463              		.loc 1 1216 0
 1464 0004 7047     		bx	lr
 1465              	.L147:
 1466 0006 00BF     		.align	2
 1467              	.L146:
 1468 0008 00000000 		.word	.LANCHOR1
 1469              		.cfi_endproc
 1470              	.LFE28:
 1471              		.size	RTC_1_ReadAlarmSecond, .-RTC_1_ReadAlarmSecond
 1472              		.section	.text.RTC_1_ReadAlarmMinute,"ax",%progbits
 1473              		.align	2
 1474              		.global	RTC_1_ReadAlarmMinute
 1475              		.thumb
 1476              		.thumb_func
 1477              		.type	RTC_1_ReadAlarmMinute, %function
 1478              	RTC_1_ReadAlarmMinute:
 1479              	.LFB29:
1237:Generated_Source\PSoC5/RTC_1.c ****     /* Return current alarm minute */
ARM GAS  C:\Users\HPz420\AppData\Local\Temp\cce1Gm9q.s 			page 65


 1480              		.loc 1 1237 0
 1481              		.cfi_startproc
 1482              		@ args = 0, pretend = 0, frame = 0
 1483              		@ frame_needed = 0, uses_anonymous_args = 0
 1484              		@ link register save eliminated.
1239:Generated_Source\PSoC5/RTC_1.c **** }
 1485              		.loc 1 1239 0
 1486 0000 014B     		ldr	r3, .L149
 1487 0002 587B     		ldrb	r0, [r3, #13]	@ zero_extendqisi2
1240:Generated_Source\PSoC5/RTC_1.c **** 
 1488              		.loc 1 1240 0
 1489 0004 7047     		bx	lr
 1490              	.L150:
 1491 0006 00BF     		.align	2
 1492              	.L149:
 1493 0008 00000000 		.word	.LANCHOR1
 1494              		.cfi_endproc
 1495              	.LFE29:
 1496              		.size	RTC_1_ReadAlarmMinute, .-RTC_1_ReadAlarmMinute
 1497              		.section	.text.RTC_1_ReadAlarmHour,"ax",%progbits
 1498              		.align	2
 1499              		.global	RTC_1_ReadAlarmHour
 1500              		.thumb
 1501              		.thumb_func
 1502              		.type	RTC_1_ReadAlarmHour, %function
 1503              	RTC_1_ReadAlarmHour:
 1504              	.LFB30:
1261:Generated_Source\PSoC5/RTC_1.c ****     /* Return current alarm hour */
 1505              		.loc 1 1261 0
 1506              		.cfi_startproc
 1507              		@ args = 0, pretend = 0, frame = 0
 1508              		@ frame_needed = 0, uses_anonymous_args = 0
 1509              		@ link register save eliminated.
1263:Generated_Source\PSoC5/RTC_1.c **** }
 1510              		.loc 1 1263 0
 1511 0000 014B     		ldr	r3, .L152
 1512 0002 987B     		ldrb	r0, [r3, #14]	@ zero_extendqisi2
1264:Generated_Source\PSoC5/RTC_1.c **** 
 1513              		.loc 1 1264 0
 1514 0004 7047     		bx	lr
 1515              	.L153:
 1516 0006 00BF     		.align	2
 1517              	.L152:
 1518 0008 00000000 		.word	.LANCHOR1
 1519              		.cfi_endproc
 1520              	.LFE30:
 1521              		.size	RTC_1_ReadAlarmHour, .-RTC_1_ReadAlarmHour
 1522              		.section	.text.RTC_1_ReadAlarmDayOfMonth,"ax",%progbits
 1523              		.align	2
 1524              		.global	RTC_1_ReadAlarmDayOfMonth
 1525              		.thumb
 1526              		.thumb_func
 1527              		.type	RTC_1_ReadAlarmDayOfMonth, %function
 1528              	RTC_1_ReadAlarmDayOfMonth:
 1529              	.LFB31:
1286:Generated_Source\PSoC5/RTC_1.c ****     /* Return current alarm day of month */
 1530              		.loc 1 1286 0
ARM GAS  C:\Users\HPz420\AppData\Local\Temp\cce1Gm9q.s 			page 66


 1531              		.cfi_startproc
 1532              		@ args = 0, pretend = 0, frame = 0
 1533              		@ frame_needed = 0, uses_anonymous_args = 0
 1534              		@ link register save eliminated.
1288:Generated_Source\PSoC5/RTC_1.c **** }
 1535              		.loc 1 1288 0
 1536 0000 014B     		ldr	r3, .L155
 1537 0002 187C     		ldrb	r0, [r3, #16]	@ zero_extendqisi2
1289:Generated_Source\PSoC5/RTC_1.c **** 
 1538              		.loc 1 1289 0
 1539 0004 7047     		bx	lr
 1540              	.L156:
 1541 0006 00BF     		.align	2
 1542              	.L155:
 1543 0008 00000000 		.word	.LANCHOR1
 1544              		.cfi_endproc
 1545              	.LFE31:
 1546              		.size	RTC_1_ReadAlarmDayOfMonth, .-RTC_1_ReadAlarmDayOfMonth
 1547              		.section	.text.RTC_1_ReadAlarmMonth,"ax",%progbits
 1548              		.align	2
 1549              		.global	RTC_1_ReadAlarmMonth
 1550              		.thumb
 1551              		.thumb_func
 1552              		.type	RTC_1_ReadAlarmMonth, %function
 1553              	RTC_1_ReadAlarmMonth:
 1554              	.LFB32:
1311:Generated_Source\PSoC5/RTC_1.c ****     /* Return current alarm month */
 1555              		.loc 1 1311 0
 1556              		.cfi_startproc
 1557              		@ args = 0, pretend = 0, frame = 0
 1558              		@ frame_needed = 0, uses_anonymous_args = 0
 1559              		@ link register save eliminated.
1313:Generated_Source\PSoC5/RTC_1.c **** }
 1560              		.loc 1 1313 0
 1561 0000 014B     		ldr	r3, .L158
 1562 0002 187D     		ldrb	r0, [r3, #20]	@ zero_extendqisi2
1314:Generated_Source\PSoC5/RTC_1.c **** 
 1563              		.loc 1 1314 0
 1564 0004 7047     		bx	lr
 1565              	.L159:
 1566 0006 00BF     		.align	2
 1567              	.L158:
 1568 0008 00000000 		.word	.LANCHOR1
 1569              		.cfi_endproc
 1570              	.LFE32:
 1571              		.size	RTC_1_ReadAlarmMonth, .-RTC_1_ReadAlarmMonth
 1572              		.section	.text.RTC_1_ReadAlarmYear,"ax",%progbits
 1573              		.align	2
 1574              		.global	RTC_1_ReadAlarmYear
 1575              		.thumb
 1576              		.thumb_func
 1577              		.type	RTC_1_ReadAlarmYear, %function
 1578              	RTC_1_ReadAlarmYear:
 1579              	.LFB33:
1335:Generated_Source\PSoC5/RTC_1.c ****     /* Return current alarm year */
 1580              		.loc 1 1335 0
 1581              		.cfi_startproc
ARM GAS  C:\Users\HPz420\AppData\Local\Temp\cce1Gm9q.s 			page 67


 1582              		@ args = 0, pretend = 0, frame = 0
 1583              		@ frame_needed = 0, uses_anonymous_args = 0
 1584              		@ link register save eliminated.
1337:Generated_Source\PSoC5/RTC_1.c **** }
 1585              		.loc 1 1337 0
 1586 0000 014B     		ldr	r3, .L161
 1587 0002 D88A     		ldrh	r0, [r3, #22]
1338:Generated_Source\PSoC5/RTC_1.c **** 
 1588              		.loc 1 1338 0
 1589 0004 80B2     		uxth	r0, r0
 1590 0006 7047     		bx	lr
 1591              	.L162:
 1592              		.align	2
 1593              	.L161:
 1594 0008 00000000 		.word	.LANCHOR1
 1595              		.cfi_endproc
 1596              	.LFE33:
 1597              		.size	RTC_1_ReadAlarmYear, .-RTC_1_ReadAlarmYear
 1598              		.section	.text.RTC_1_ReadAlarmDayOfWeek,"ax",%progbits
 1599              		.align	2
 1600              		.global	RTC_1_ReadAlarmDayOfWeek
 1601              		.thumb
 1602              		.thumb_func
 1603              		.type	RTC_1_ReadAlarmDayOfWeek, %function
 1604              	RTC_1_ReadAlarmDayOfWeek:
 1605              	.LFB34:
1360:Generated_Source\PSoC5/RTC_1.c ****     /* Return current alarm day of the week */
 1606              		.loc 1 1360 0
 1607              		.cfi_startproc
 1608              		@ args = 0, pretend = 0, frame = 0
 1609              		@ frame_needed = 0, uses_anonymous_args = 0
 1610              		@ link register save eliminated.
1362:Generated_Source\PSoC5/RTC_1.c **** }
 1611              		.loc 1 1362 0
 1612 0000 014B     		ldr	r3, .L164
 1613 0002 D87B     		ldrb	r0, [r3, #15]	@ zero_extendqisi2
1363:Generated_Source\PSoC5/RTC_1.c **** 
 1614              		.loc 1 1363 0
 1615 0004 7047     		bx	lr
 1616              	.L165:
 1617 0006 00BF     		.align	2
 1618              	.L164:
 1619 0008 00000000 		.word	.LANCHOR1
 1620              		.cfi_endproc
 1621              	.LFE34:
 1622              		.size	RTC_1_ReadAlarmDayOfWeek, .-RTC_1_ReadAlarmDayOfWeek
 1623              		.section	.text.RTC_1_ReadAlarmDayOfYear,"ax",%progbits
 1624              		.align	2
 1625              		.global	RTC_1_ReadAlarmDayOfYear
 1626              		.thumb
 1627              		.thumb_func
 1628              		.type	RTC_1_ReadAlarmDayOfYear, %function
 1629              	RTC_1_ReadAlarmDayOfYear:
 1630              	.LFB35:
1385:Generated_Source\PSoC5/RTC_1.c ****     /* Return current alarm day of the year */
 1631              		.loc 1 1385 0
 1632              		.cfi_startproc
ARM GAS  C:\Users\HPz420\AppData\Local\Temp\cce1Gm9q.s 			page 68


 1633              		@ args = 0, pretend = 0, frame = 0
 1634              		@ frame_needed = 0, uses_anonymous_args = 0
 1635              		@ link register save eliminated.
1387:Generated_Source\PSoC5/RTC_1.c **** }
 1636              		.loc 1 1387 0
 1637 0000 014B     		ldr	r3, .L167
 1638 0002 588A     		ldrh	r0, [r3, #18]
1388:Generated_Source\PSoC5/RTC_1.c **** 
 1639              		.loc 1 1388 0
 1640 0004 80B2     		uxth	r0, r0
 1641 0006 7047     		bx	lr
 1642              	.L168:
 1643              		.align	2
 1644              	.L167:
 1645 0008 00000000 		.word	.LANCHOR1
 1646              		.cfi_endproc
 1647              	.LFE35:
 1648              		.size	RTC_1_ReadAlarmDayOfYear, .-RTC_1_ReadAlarmDayOfYear
 1649              		.section	.text.RTC_1_WriteAlarmMask,"ax",%progbits
 1650              		.align	2
 1651              		.global	RTC_1_WriteAlarmMask
 1652              		.thumb
 1653              		.thumb_func
 1654              		.type	RTC_1_WriteAlarmMask, %function
 1655              	RTC_1_WriteAlarmMask:
 1656              	.LFB36:
1414:Generated_Source\PSoC5/RTC_1.c ****     RTC_1_alarmCfgMask = mask;
 1657              		.loc 1 1414 0
 1658              		.cfi_startproc
 1659              		@ args = 0, pretend = 0, frame = 0
 1660              		@ frame_needed = 0, uses_anonymous_args = 0
 1661              		@ link register save eliminated.
 1662              	.LVL40:
1415:Generated_Source\PSoC5/RTC_1.c **** }
 1663              		.loc 1 1415 0
 1664 0000 014B     		ldr	r3, .L170
 1665 0002 5870     		strb	r0, [r3, #1]
 1666 0004 7047     		bx	lr
 1667              	.L171:
 1668 0006 00BF     		.align	2
 1669              	.L170:
 1670 0008 00000000 		.word	.LANCHOR2
 1671              		.cfi_endproc
 1672              	.LFE36:
 1673              		.size	RTC_1_WriteAlarmMask, .-RTC_1_WriteAlarmMask
 1674              		.section	.text.RTC_1_WriteIntervalMask,"ax",%progbits
 1675              		.align	2
 1676              		.global	RTC_1_WriteIntervalMask
 1677              		.thumb
 1678              		.thumb_func
 1679              		.type	RTC_1_WriteIntervalMask, %function
 1680              	RTC_1_WriteIntervalMask:
 1681              	.LFB37:
1442:Generated_Source\PSoC5/RTC_1.c ****     RTC_1_intervalCfgMask = mask;
 1682              		.loc 1 1442 0
 1683              		.cfi_startproc
 1684              		@ args = 0, pretend = 0, frame = 0
ARM GAS  C:\Users\HPz420\AppData\Local\Temp\cce1Gm9q.s 			page 69


 1685              		@ frame_needed = 0, uses_anonymous_args = 0
 1686              		@ link register save eliminated.
 1687              	.LVL41:
1443:Generated_Source\PSoC5/RTC_1.c **** }
 1688              		.loc 1 1443 0
 1689 0000 014B     		ldr	r3, .L173
 1690 0002 1871     		strb	r0, [r3, #4]
 1691 0004 7047     		bx	lr
 1692              	.L174:
 1693 0006 00BF     		.align	2
 1694              	.L173:
 1695 0008 00000000 		.word	.LANCHOR2
 1696              		.cfi_endproc
 1697              	.LFE37:
 1698              		.size	RTC_1_WriteIntervalMask, .-RTC_1_WriteIntervalMask
 1699              		.section	.text.RTC_1_ReadStatus,"ax",%progbits
 1700              		.align	2
 1701              		.global	RTC_1_ReadStatus
 1702              		.thumb
 1703              		.thumb_func
 1704              		.type	RTC_1_ReadStatus, %function
 1705              	RTC_1_ReadStatus:
 1706              	.LFB38:
1473:Generated_Source\PSoC5/RTC_1.c ****     uint8 status;
 1707              		.loc 1 1473 0
 1708              		.cfi_startproc
 1709              		@ args = 0, pretend = 0, frame = 0
 1710              		@ frame_needed = 0, uses_anonymous_args = 0
 1711              		@ link register save eliminated.
1477:Generated_Source\PSoC5/RTC_1.c **** 
 1712              		.loc 1 1477 0
 1713 0000 034B     		ldr	r3, .L176
 1714 0002 1878     		ldrb	r0, [r3]	@ zero_extendqisi2
 1715              	.LVL42:
1480:Generated_Source\PSoC5/RTC_1.c **** 
 1716              		.loc 1 1480 0
 1717 0004 1A78     		ldrb	r2, [r3]	@ zero_extendqisi2
 1718 0006 02F0F702 		and	r2, r2, #247
 1719 000a 1A70     		strb	r2, [r3]
1483:Generated_Source\PSoC5/RTC_1.c **** 
 1720              		.loc 1 1483 0
 1721 000c 7047     		bx	lr
 1722              	.L177:
 1723 000e 00BF     		.align	2
 1724              	.L176:
 1725 0010 00000000 		.word	.LANCHOR2
 1726              		.cfi_endproc
 1727              	.LFE38:
 1728              		.size	RTC_1_ReadStatus, .-RTC_1_ReadStatus
 1729              		.global	RTC_1_daysInMonths
 1730              		.global	RTC_1_statusDateTime
 1731              		.global	RTC_1_intervalCfgMask
 1732              		.global	RTC_1_alarmCurStatus
 1733              		.global	RTC_1_alarmCfgMask
 1734              		.global	RTC_1_alarmCfgTimeDate
 1735              		.global	RTC_1_currentTimeDate
 1736              		.global	RTC_1_initVar
ARM GAS  C:\Users\HPz420\AppData\Local\Temp\cce1Gm9q.s 			page 70


 1737              		.section	.rodata
 1738              		.align	2
 1739              		.set	.LANCHOR0,. + 0
 1740              		.type	RTC_1_monthTemplate.5174, %object
 1741              		.size	RTC_1_monthTemplate.5174, 12
 1742              	RTC_1_monthTemplate.5174:
 1743 0000 00       		.byte	0
 1744 0001 03       		.byte	3
 1745 0002 02       		.byte	2
 1746 0003 05       		.byte	5
 1747 0004 00       		.byte	0
 1748 0005 03       		.byte	3
 1749 0006 05       		.byte	5
 1750 0007 01       		.byte	1
 1751 0008 04       		.byte	4
 1752 0009 06       		.byte	6
 1753 000a 02       		.byte	2
 1754 000b 04       		.byte	4
 1755              		.type	RTC_1_daysInMonths, %object
 1756              		.size	RTC_1_daysInMonths, 12
 1757              	RTC_1_daysInMonths:
 1758 000c 1F       		.byte	31
 1759 000d 1C       		.byte	28
 1760 000e 1F       		.byte	31
 1761 000f 1E       		.byte	30
 1762 0010 1F       		.byte	31
 1763 0011 1E       		.byte	30
 1764 0012 1F       		.byte	31
 1765 0013 1F       		.byte	31
 1766 0014 1E       		.byte	30
 1767 0015 1F       		.byte	31
 1768 0016 1E       		.byte	30
 1769 0017 1F       		.byte	31
 1770              		.data
 1771              		.align	2
 1772              		.set	.LANCHOR1,. + 0
 1773              		.type	RTC_1_currentTimeDate, %object
 1774              		.size	RTC_1_currentTimeDate, 12
 1775              	RTC_1_currentTimeDate:
 1776 0000 00       		.byte	0
 1777 0001 00       		.byte	0
 1778 0002 00       		.byte	0
 1779 0003 01       		.byte	1
 1780 0004 01       		.byte	1
 1781 0005 00       		.space	1
 1782 0006 0100     		.short	1
 1783 0008 01       		.byte	1
 1784 0009 00       		.space	1
 1785 000a 6C07     		.short	1900
 1786              		.type	RTC_1_alarmCfgTimeDate, %object
 1787              		.size	RTC_1_alarmCfgTimeDate, 12
 1788              	RTC_1_alarmCfgTimeDate:
 1789 000c 00       		.byte	0
 1790 000d 00       		.byte	0
 1791 000e 00       		.byte	0
 1792 000f 01       		.byte	1
 1793 0010 01       		.byte	1
ARM GAS  C:\Users\HPz420\AppData\Local\Temp\cce1Gm9q.s 			page 71


 1794 0011 00       		.space	1
 1795 0012 0100     		.short	1
 1796 0014 01       		.byte	1
 1797 0015 00       		.space	1
 1798 0016 6C07     		.short	1900
 1799              		.bss
 1800              		.set	.LANCHOR2,. + 0
 1801              		.type	RTC_1_statusDateTime, %object
 1802              		.size	RTC_1_statusDateTime, 1
 1803              	RTC_1_statusDateTime:
 1804 0000 00       		.space	1
 1805              		.type	RTC_1_alarmCfgMask, %object
 1806              		.size	RTC_1_alarmCfgMask, 1
 1807              	RTC_1_alarmCfgMask:
 1808 0001 00       		.space	1
 1809              		.type	RTC_1_alarmCurStatus, %object
 1810              		.size	RTC_1_alarmCurStatus, 1
 1811              	RTC_1_alarmCurStatus:
 1812 0002 00       		.space	1
 1813              		.type	RTC_1_initVar, %object
 1814              		.size	RTC_1_initVar, 1
 1815              	RTC_1_initVar:
 1816 0003 00       		.space	1
 1817              		.type	RTC_1_intervalCfgMask, %object
 1818              		.size	RTC_1_intervalCfgMask, 1
 1819              	RTC_1_intervalCfgMask:
 1820 0004 00       		.space	1
 1821              		.text
 1822              	.Letext0:
 1823              		.file 2 "Generated_Source\\PSoC5\\cytypes.h"
 1824              		.file 3 "Generated_Source\\PSoC5\\RTC_1.h"
 1825              		.file 4 "Generated_Source\\PSoC5\\CyLib.h"
 1826              		.section	.debug_info,"",%progbits
 1827              	.Ldebug_info0:
 1828 0000 C6070000 		.4byte	0x7c6
 1829 0004 0400     		.2byte	0x4
 1830 0006 00000000 		.4byte	.Ldebug_abbrev0
 1831 000a 04       		.byte	0x4
 1832 000b 01       		.uleb128 0x1
 1833 000c 88040000 		.4byte	.LASF90
 1834 0010 0C       		.byte	0xc
 1835 0011 C6010000 		.4byte	.LASF91
 1836 0015 9A050000 		.4byte	.LASF92
 1837 0019 00000000 		.4byte	.Ldebug_ranges0+0
 1838 001d 00000000 		.4byte	0
 1839 0021 00000000 		.4byte	.Ldebug_line0
 1840 0025 02       		.uleb128 0x2
 1841 0026 01       		.byte	0x1
 1842 0027 06       		.byte	0x6
 1843 0028 F3000000 		.4byte	.LASF0
 1844 002c 02       		.uleb128 0x2
 1845 002d 01       		.byte	0x1
 1846 002e 08       		.byte	0x8
 1847 002f 4C040000 		.4byte	.LASF1
 1848 0033 02       		.uleb128 0x2
 1849 0034 02       		.byte	0x2
 1850 0035 05       		.byte	0x5
ARM GAS  C:\Users\HPz420\AppData\Local\Temp\cce1Gm9q.s 			page 72


 1851 0036 5A040000 		.4byte	.LASF2
 1852 003a 02       		.uleb128 0x2
 1853 003b 02       		.byte	0x2
 1854 003c 07       		.byte	0x7
 1855 003d CF020000 		.4byte	.LASF3
 1856 0041 02       		.uleb128 0x2
 1857 0042 04       		.byte	0x4
 1858 0043 05       		.byte	0x5
 1859 0044 5F010000 		.4byte	.LASF4
 1860 0048 02       		.uleb128 0x2
 1861 0049 04       		.byte	0x4
 1862 004a 07       		.byte	0x7
 1863 004b 6C020000 		.4byte	.LASF5
 1864 004f 02       		.uleb128 0x2
 1865 0050 08       		.byte	0x8
 1866 0051 05       		.byte	0x5
 1867 0052 E5000000 		.4byte	.LASF6
 1868 0056 02       		.uleb128 0x2
 1869 0057 08       		.byte	0x8
 1870 0058 07       		.byte	0x7
 1871 0059 82000000 		.4byte	.LASF7
 1872 005d 03       		.uleb128 0x3
 1873 005e 04       		.byte	0x4
 1874 005f 05       		.byte	0x5
 1875 0060 696E7400 		.ascii	"int\000"
 1876 0064 02       		.uleb128 0x2
 1877 0065 04       		.byte	0x4
 1878 0066 07       		.byte	0x7
 1879 0067 34020000 		.4byte	.LASF8
 1880 006b 04       		.uleb128 0x4
 1881 006c 6E010000 		.4byte	.LASF9
 1882 0070 02       		.byte	0x2
 1883 0071 E401     		.2byte	0x1e4
 1884 0073 2C000000 		.4byte	0x2c
 1885 0077 04       		.uleb128 0x4
 1886 0078 00000000 		.4byte	.LASF10
 1887 007c 02       		.byte	0x2
 1888 007d E501     		.2byte	0x1e5
 1889 007f 3A000000 		.4byte	0x3a
 1890 0083 04       		.uleb128 0x4
 1891 0084 7B010000 		.4byte	.LASF11
 1892 0088 02       		.byte	0x2
 1893 0089 E601     		.2byte	0x1e6
 1894 008b 48000000 		.4byte	0x48
 1895 008f 02       		.uleb128 0x2
 1896 0090 04       		.byte	0x4
 1897 0091 04       		.byte	0x4
 1898 0092 22040000 		.4byte	.LASF12
 1899 0096 02       		.uleb128 0x2
 1900 0097 08       		.byte	0x8
 1901 0098 04       		.byte	0x4
 1902 0099 74010000 		.4byte	.LASF13
 1903 009d 02       		.uleb128 0x2
 1904 009e 01       		.byte	0x1
 1905 009f 08       		.byte	0x8
 1906 00a0 52050000 		.4byte	.LASF14
 1907 00a4 04       		.uleb128 0x4
ARM GAS  C:\Users\HPz420\AppData\Local\Temp\cce1Gm9q.s 			page 73


 1908 00a5 33040000 		.4byte	.LASF15
 1909 00a9 02       		.byte	0x2
 1910 00aa 8E02     		.2byte	0x28e
 1911 00ac B0000000 		.4byte	0xb0
 1912 00b0 05       		.uleb128 0x5
 1913 00b1 6B000000 		.4byte	0x6b
 1914 00b5 04       		.uleb128 0x4
 1915 00b6 79030000 		.4byte	.LASF16
 1916 00ba 02       		.byte	0x2
 1917 00bb 9002     		.2byte	0x290
 1918 00bd C1000000 		.4byte	0xc1
 1919 00c1 05       		.uleb128 0x5
 1920 00c2 83000000 		.4byte	0x83
 1921 00c6 06       		.uleb128 0x6
 1922 00c7 0C       		.byte	0xc
 1923 00c8 03       		.byte	0x3
 1924 00c9 30       		.byte	0x30
 1925 00ca 2F010000 		.4byte	0x12f
 1926 00ce 07       		.uleb128 0x7
 1927 00cf 53656300 		.ascii	"Sec\000"
 1928 00d3 03       		.byte	0x3
 1929 00d4 32       		.byte	0x32
 1930 00d5 6B000000 		.4byte	0x6b
 1931 00d9 00       		.byte	0
 1932 00da 07       		.uleb128 0x7
 1933 00db 4D696E00 		.ascii	"Min\000"
 1934 00df 03       		.byte	0x3
 1935 00e0 33       		.byte	0x33
 1936 00e1 6B000000 		.4byte	0x6b
 1937 00e5 01       		.byte	0x1
 1938 00e6 08       		.uleb128 0x8
 1939 00e7 99000000 		.4byte	.LASF17
 1940 00eb 03       		.byte	0x3
 1941 00ec 34       		.byte	0x34
 1942 00ed 6B000000 		.4byte	0x6b
 1943 00f1 02       		.byte	0x2
 1944 00f2 08       		.uleb128 0x8
 1945 00f3 7E040000 		.4byte	.LASF18
 1946 00f7 03       		.byte	0x3
 1947 00f8 35       		.byte	0x35
 1948 00f9 6B000000 		.4byte	0x6b
 1949 00fd 03       		.byte	0x3
 1950 00fe 08       		.uleb128 0x8
 1951 00ff C4020000 		.4byte	.LASF19
 1952 0103 03       		.byte	0x3
 1953 0104 36       		.byte	0x36
 1954 0105 6B000000 		.4byte	0x6b
 1955 0109 04       		.byte	0x4
 1956 010a 08       		.uleb128 0x8
 1957 010b 9E060000 		.4byte	.LASF20
 1958 010f 03       		.byte	0x3
 1959 0110 37       		.byte	0x37
 1960 0111 77000000 		.4byte	0x77
 1961 0115 06       		.byte	0x6
 1962 0116 08       		.uleb128 0x8
 1963 0117 68010000 		.4byte	.LASF21
 1964 011b 03       		.byte	0x3
ARM GAS  C:\Users\HPz420\AppData\Local\Temp\cce1Gm9q.s 			page 74


 1965 011c 38       		.byte	0x38
 1966 011d 6B000000 		.4byte	0x6b
 1967 0121 08       		.byte	0x8
 1968 0122 08       		.uleb128 0x8
 1969 0123 E2020000 		.4byte	.LASF22
 1970 0127 03       		.byte	0x3
 1971 0128 39       		.byte	0x39
 1972 0129 77000000 		.4byte	0x77
 1973 012d 0A       		.byte	0xa
 1974 012e 00       		.byte	0
 1975 012f 09       		.uleb128 0x9
 1976 0130 68050000 		.4byte	.LASF23
 1977 0134 03       		.byte	0x3
 1978 0135 3A       		.byte	0x3a
 1979 0136 3A010000 		.4byte	0x13a
 1980 013a 05       		.uleb128 0x5
 1981 013b C6000000 		.4byte	0xc6
 1982 013f 02       		.uleb128 0x2
 1983 0140 08       		.byte	0x8
 1984 0141 04       		.byte	0x4
 1985 0142 A4010000 		.4byte	.LASF24
 1986 0146 02       		.uleb128 0x2
 1987 0147 04       		.byte	0x4
 1988 0148 07       		.byte	0x7
 1989 0149 BF030000 		.4byte	.LASF25
 1990 014d 0A       		.uleb128 0xa
 1991 014e 2A060000 		.4byte	.LASF93
 1992 0152 01       		.byte	0x1
 1993 0153 DE05     		.2byte	0x5de
 1994 0155 6B000000 		.4byte	0x6b
 1995 0159 00000000 		.4byte	.LFB39
 1996 015d 50000000 		.4byte	.LFE39-.LFB39
 1997 0161 01       		.uleb128 0x1
 1998 0162 9C       		.byte	0x9c
 1999 0163 AA010000 		.4byte	0x1aa
 2000 0167 0B       		.uleb128 0xb
 2001 0168 28040000 		.4byte	.LASF26
 2002 016c 01       		.byte	0x1
 2003 016d DE05     		.2byte	0x5de
 2004 016f 6B000000 		.4byte	0x6b
 2005 0173 00000000 		.4byte	.LLST0
 2006 0177 0B       		.uleb128 0xb
 2007 0178 2E020000 		.4byte	.LASF27
 2008 017c 01       		.byte	0x1
 2009 017d DE05     		.2byte	0x5de
 2010 017f 6B000000 		.4byte	0x6b
 2011 0183 21000000 		.4byte	.LLST1
 2012 0187 0B       		.uleb128 0xb
 2013 0188 45010000 		.4byte	.LASF28
 2014 018c 01       		.byte	0x1
 2015 018d DE05     		.2byte	0x5de
 2016 018f 77000000 		.4byte	0x77
 2017 0193 42000000 		.4byte	.LLST2
 2018 0197 0C       		.uleb128 0xc
 2019 0198 07000000 		.4byte	.LASF29
 2020 019c 01       		.byte	0x1
 2021 019d E205     		.2byte	0x5e2
ARM GAS  C:\Users\HPz420\AppData\Local\Temp\cce1Gm9q.s 			page 75


 2022 019f BF010000 		.4byte	0x1bf
 2023 01a3 05       		.uleb128 0x5
 2024 01a4 03       		.byte	0x3
 2025 01a5 00000000 		.4byte	RTC_1_monthTemplate.5174
 2026 01a9 00       		.byte	0
 2027 01aa 0D       		.uleb128 0xd
 2028 01ab BA010000 		.4byte	0x1ba
 2029 01af BA010000 		.4byte	0x1ba
 2030 01b3 0E       		.uleb128 0xe
 2031 01b4 46010000 		.4byte	0x146
 2032 01b8 0B       		.byte	0xb
 2033 01b9 00       		.byte	0
 2034 01ba 0F       		.uleb128 0xf
 2035 01bb 6B000000 		.4byte	0x6b
 2036 01bf 0F       		.uleb128 0xf
 2037 01c0 AA010000 		.4byte	0x1aa
 2038 01c4 10       		.uleb128 0x10
 2039 01c5 F4030000 		.4byte	.LASF94
 2040 01c9 01       		.byte	0x1
 2041 01ca 1806     		.2byte	0x618
 2042 01cc 00000000 		.4byte	.LFB40
 2043 01d0 A0020000 		.4byte	.LFE40-.LFB40
 2044 01d4 01       		.uleb128 0x1
 2045 01d5 9C       		.byte	0x9c
 2046 01d6 02020000 		.4byte	0x202
 2047 01da 11       		.uleb128 0x11
 2048 01db 6900     		.ascii	"i\000"
 2049 01dd 01       		.byte	0x1
 2050 01de 1A06     		.2byte	0x61a
 2051 01e0 6B000000 		.4byte	0x6b
 2052 01e4 6E000000 		.4byte	.LLST3
 2053 01e8 12       		.uleb128 0x12
 2054 01e9 87060000 		.4byte	.LASF30
 2055 01ed 01       		.byte	0x1
 2056 01ee 1B06     		.2byte	0x61b
 2057 01f0 6B000000 		.4byte	0x6b
 2058 01f4 8C000000 		.4byte	.LLST4
 2059 01f8 13       		.uleb128 0x13
 2060 01f9 B6000000 		.4byte	.LVL10
 2061 01fd 4D010000 		.4byte	0x14d
 2062 0201 00       		.byte	0
 2063 0202 14       		.uleb128 0x14
 2064 0203 1B000000 		.4byte	.LASF34
 2065 0207 01       		.byte	0x1
 2066 0208 A3       		.byte	0xa3
 2067 0209 00000000 		.4byte	.LFB1
 2068 020d 24000000 		.4byte	.LFE1-.LFB1
 2069 0211 01       		.uleb128 0x1
 2070 0212 9C       		.byte	0x9c
 2071 0213 39020000 		.4byte	0x239
 2072 0217 15       		.uleb128 0x15
 2073 0218 2F010000 		.4byte	.LASF31
 2074 021c 01       		.byte	0x1
 2075 021d A5       		.byte	0xa5
 2076 021e 6B000000 		.4byte	0x6b
 2077 0222 9F000000 		.4byte	.LLST5
 2078 0226 13       		.uleb128 0x13
ARM GAS  C:\Users\HPz420\AppData\Local\Temp\cce1Gm9q.s 			page 76


 2079 0227 0C000000 		.4byte	.LVL13
 2080 022b 9D070000 		.4byte	0x79d
 2081 022f 13       		.uleb128 0x13
 2082 0230 1A000000 		.4byte	.LVL14
 2083 0234 A8070000 		.4byte	0x7a8
 2084 0238 00       		.byte	0
 2085 0239 16       		.uleb128 0x16
 2086 023a 0D020000 		.4byte	.LASF32
 2087 023e 01       		.byte	0x1
 2088 023f C3       		.byte	0xc3
 2089 0240 00000000 		.4byte	.LFB2
 2090 0244 0C000000 		.4byte	.LFE2-.LFB2
 2091 0248 01       		.uleb128 0x1
 2092 0249 9C       		.byte	0x9c
 2093 024a 16       		.uleb128 0x16
 2094 024b 41050000 		.4byte	.LASF33
 2095 024f 01       		.byte	0x1
 2096 0250 D8       		.byte	0xd8
 2097 0251 00000000 		.4byte	.LFB3
 2098 0255 0C000000 		.4byte	.LFE3-.LFB3
 2099 0259 01       		.uleb128 0x1
 2100 025a 9C       		.byte	0x9c
 2101 025b 17       		.uleb128 0x17
 2102 025c 18030000 		.4byte	.LASF35
 2103 0260 01       		.byte	0x1
 2104 0261 8701     		.2byte	0x187
 2105 0263 00000000 		.4byte	.LFB4
 2106 0267 28000000 		.4byte	.LFE4-.LFB4
 2107 026b 01       		.uleb128 0x1
 2108 026c 9C       		.byte	0x9c
 2109 026d A2020000 		.4byte	0x2a2
 2110 0271 13       		.uleb128 0x13
 2111 0272 06000000 		.4byte	.LVL15
 2112 0276 C4010000 		.4byte	0x1c4
 2113 027a 18       		.uleb128 0x18
 2114 027b 14000000 		.4byte	.LVL16
 2115 027f B3070000 		.4byte	0x7b3
 2116 0283 8D020000 		.4byte	0x28d
 2117 0287 19       		.uleb128 0x19
 2118 0288 01       		.uleb128 0x1
 2119 0289 50       		.byte	0x50
 2120 028a 01       		.uleb128 0x1
 2121 028b 30       		.byte	0x30
 2122 028c 00       		.byte	0
 2123 028d 1A       		.uleb128 0x1a
 2124 028e 1C000000 		.4byte	.LVL17
 2125 0292 BE070000 		.4byte	0x7be
 2126 0296 19       		.uleb128 0x19
 2127 0297 01       		.uleb128 0x1
 2128 0298 50       		.byte	0x50
 2129 0299 01       		.uleb128 0x1
 2130 029a 30       		.byte	0x30
 2131 029b 19       		.uleb128 0x19
 2132 029c 01       		.uleb128 0x1
 2133 029d 51       		.byte	0x51
 2134 029e 01       		.uleb128 0x1
 2135 029f 37       		.byte	0x37
ARM GAS  C:\Users\HPz420\AppData\Local\Temp\cce1Gm9q.s 			page 77


 2136 02a0 00       		.byte	0
 2137 02a1 00       		.byte	0
 2138 02a2 17       		.uleb128 0x17
 2139 02a3 8D050000 		.4byte	.LASF36
 2140 02a7 01       		.byte	0x1
 2141 02a8 AB01     		.2byte	0x1ab
 2142 02aa 00000000 		.4byte	.LFB5
 2143 02ae 24000000 		.4byte	.LFE5-.LFB5
 2144 02b2 01       		.uleb128 0x1
 2145 02b3 9C       		.byte	0x9c
 2146 02b4 DB020000 		.4byte	0x2db
 2147 02b8 12       		.uleb128 0x12
 2148 02b9 2F010000 		.4byte	.LASF31
 2149 02bd 01       		.byte	0x1
 2150 02be AD01     		.2byte	0x1ad
 2151 02c0 6B000000 		.4byte	0x6b
 2152 02c4 B2000000 		.4byte	.LLST6
 2153 02c8 13       		.uleb128 0x13
 2154 02c9 06000000 		.4byte	.LVL18
 2155 02cd 9D070000 		.4byte	0x79d
 2156 02d1 13       		.uleb128 0x13
 2157 02d2 14000000 		.4byte	.LVL19
 2158 02d6 A8070000 		.4byte	0x7a8
 2159 02da 00       		.byte	0
 2160 02db 14       		.uleb128 0x14
 2161 02dc DF030000 		.4byte	.LASF37
 2162 02e0 01       		.byte	0x1
 2163 02e1 81       		.byte	0x81
 2164 02e2 00000000 		.4byte	.LFB0
 2165 02e6 1C000000 		.4byte	.LFE0-.LFB0
 2166 02ea 01       		.uleb128 0x1
 2167 02eb 9C       		.byte	0x9c
 2168 02ec 03030000 		.4byte	0x303
 2169 02f0 13       		.uleb128 0x13
 2170 02f1 0C000000 		.4byte	.LVL20
 2171 02f5 5B020000 		.4byte	0x25b
 2172 02f9 13       		.uleb128 0x13
 2173 02fa 16000000 		.4byte	.LVL21
 2174 02fe A2020000 		.4byte	0x2a2
 2175 0302 00       		.byte	0
 2176 0303 1B       		.uleb128 0x1b
 2177 0304 09030000 		.4byte	.LASF59
 2178 0308 01       		.byte	0x1
 2179 0309 D501     		.2byte	0x1d5
 2180 030b 19030000 		.4byte	0x319
 2181 030f 00000000 		.4byte	.LFB6
 2182 0313 08000000 		.4byte	.LFE6-.LFB6
 2183 0317 01       		.uleb128 0x1
 2184 0318 9C       		.byte	0x9c
 2185 0319 1C       		.uleb128 0x1c
 2186 031a 04       		.byte	0x4
 2187 031b 2F010000 		.4byte	0x12f
 2188 031f 17       		.uleb128 0x17
 2189 0320 3A030000 		.4byte	.LASF38
 2190 0324 01       		.byte	0x1
 2191 0325 F401     		.2byte	0x1f4
 2192 0327 00000000 		.4byte	.LFB7
ARM GAS  C:\Users\HPz420\AppData\Local\Temp\cce1Gm9q.s 			page 78


 2193 032b 38000000 		.4byte	.LFE7-.LFB7
 2194 032f 01       		.uleb128 0x1
 2195 0330 9C       		.byte	0x9c
 2196 0331 58030000 		.4byte	0x358
 2197 0335 0B       		.uleb128 0xb
 2198 0336 EB030000 		.4byte	.LASF39
 2199 033a 01       		.byte	0x1
 2200 033b F401     		.2byte	0x1f4
 2201 033d 58030000 		.4byte	0x358
 2202 0341 C5000000 		.4byte	.LLST7
 2203 0345 13       		.uleb128 0x13
 2204 0346 08000000 		.4byte	.LVL23
 2205 034a 4A020000 		.4byte	0x24a
 2206 034e 13       		.uleb128 0x13
 2207 034f 32000000 		.4byte	.LVL24
 2208 0353 39020000 		.4byte	0x239
 2209 0357 00       		.byte	0
 2210 0358 1C       		.uleb128 0x1c
 2211 0359 04       		.byte	0x4
 2212 035a 5E030000 		.4byte	0x35e
 2213 035e 0F       		.uleb128 0xf
 2214 035f 2F010000 		.4byte	0x12f
 2215 0363 17       		.uleb128 0x17
 2216 0364 2F050000 		.4byte	.LASF40
 2217 0368 01       		.byte	0x1
 2218 0369 1C02     		.2byte	0x21c
 2219 036b 00000000 		.4byte	.LFB8
 2220 036f 0C000000 		.4byte	.LFE8-.LFB8
 2221 0373 01       		.uleb128 0x1
 2222 0374 9C       		.byte	0x9c
 2223 0375 88030000 		.4byte	0x388
 2224 0379 1D       		.uleb128 0x1d
 2225 037a 3E010000 		.4byte	.LASF41
 2226 037e 01       		.byte	0x1
 2227 037f 1C02     		.2byte	0x21c
 2228 0381 6B000000 		.4byte	0x6b
 2229 0385 01       		.uleb128 0x1
 2230 0386 50       		.byte	0x50
 2231 0387 00       		.byte	0
 2232 0388 17       		.uleb128 0x17
 2233 0389 F7020000 		.4byte	.LASF42
 2234 038d 01       		.byte	0x1
 2235 038e 3802     		.2byte	0x238
 2236 0390 00000000 		.4byte	.LFB9
 2237 0394 0C000000 		.4byte	.LFE9-.LFB9
 2238 0398 01       		.uleb128 0x1
 2239 0399 9C       		.byte	0x9c
 2240 039a AD030000 		.4byte	0x3ad
 2241 039e 1D       		.uleb128 0x1d
 2242 039f 50060000 		.4byte	.LASF43
 2243 03a3 01       		.byte	0x1
 2244 03a4 3802     		.2byte	0x238
 2245 03a6 6B000000 		.4byte	0x6b
 2246 03aa 01       		.uleb128 0x1
 2247 03ab 50       		.byte	0x50
 2248 03ac 00       		.byte	0
 2249 03ad 17       		.uleb128 0x17
ARM GAS  C:\Users\HPz420\AppData\Local\Temp\cce1Gm9q.s 			page 79


 2250 03ae 1A060000 		.4byte	.LASF44
 2251 03b2 01       		.byte	0x1
 2252 03b3 5402     		.2byte	0x254
 2253 03b5 00000000 		.4byte	.LFB10
 2254 03b9 0C000000 		.4byte	.LFE10-.LFB10
 2255 03bd 01       		.uleb128 0x1
 2256 03be 9C       		.byte	0x9c
 2257 03bf D2030000 		.4byte	0x3d2
 2258 03c3 1D       		.uleb128 0x1d
 2259 03c4 1D040000 		.4byte	.LASF45
 2260 03c8 01       		.byte	0x1
 2261 03c9 5402     		.2byte	0x254
 2262 03cb 6B000000 		.4byte	0x6b
 2263 03cf 01       		.uleb128 0x1
 2264 03d0 50       		.byte	0x50
 2265 03d1 00       		.byte	0
 2266 03d2 17       		.uleb128 0x17
 2267 03d3 3A060000 		.4byte	.LASF46
 2268 03d7 01       		.byte	0x1
 2269 03d8 7002     		.2byte	0x270
 2270 03da 00000000 		.4byte	.LFB11
 2271 03de 0C000000 		.4byte	.LFE11-.LFB11
 2272 03e2 01       		.uleb128 0x1
 2273 03e3 9C       		.byte	0x9c
 2274 03e4 F7030000 		.4byte	0x3f7
 2275 03e8 1D       		.uleb128 0x1d
 2276 03e9 28040000 		.4byte	.LASF26
 2277 03ed 01       		.byte	0x1
 2278 03ee 7002     		.2byte	0x270
 2279 03f0 6B000000 		.4byte	0x6b
 2280 03f4 01       		.uleb128 0x1
 2281 03f5 50       		.byte	0x50
 2282 03f6 00       		.byte	0
 2283 03f7 17       		.uleb128 0x17
 2284 03f8 1D020000 		.4byte	.LASF47
 2285 03fc 01       		.byte	0x1
 2286 03fd 8C02     		.2byte	0x28c
 2287 03ff 00000000 		.4byte	.LFB12
 2288 0403 0C000000 		.4byte	.LFE12-.LFB12
 2289 0407 01       		.uleb128 0x1
 2290 0408 9C       		.byte	0x9c
 2291 0409 1C040000 		.4byte	0x41c
 2292 040d 1D       		.uleb128 0x1d
 2293 040e 2E020000 		.4byte	.LASF27
 2294 0412 01       		.byte	0x1
 2295 0413 8C02     		.2byte	0x28c
 2296 0415 6B000000 		.4byte	0x6b
 2297 0419 01       		.uleb128 0x1
 2298 041a 50       		.byte	0x50
 2299 041b 00       		.byte	0
 2300 041c 17       		.uleb128 0x17
 2301 041d 59000000 		.4byte	.LASF48
 2302 0421 01       		.byte	0x1
 2303 0422 A802     		.2byte	0x2a8
 2304 0424 00000000 		.4byte	.LFB13
 2305 0428 0C000000 		.4byte	.LFE13-.LFB13
 2306 042c 01       		.uleb128 0x1
ARM GAS  C:\Users\HPz420\AppData\Local\Temp\cce1Gm9q.s 			page 80


 2307 042d 9C       		.byte	0x9c
 2308 042e 41040000 		.4byte	0x441
 2309 0432 1D       		.uleb128 0x1d
 2310 0433 45010000 		.4byte	.LASF28
 2311 0437 01       		.byte	0x1
 2312 0438 A802     		.2byte	0x2a8
 2313 043a 77000000 		.4byte	0x77
 2314 043e 01       		.uleb128 0x1
 2315 043f 50       		.byte	0x50
 2316 0440 00       		.byte	0
 2317 0441 17       		.uleb128 0x17
 2318 0442 23030000 		.4byte	.LASF49
 2319 0446 01       		.byte	0x1
 2320 0447 CA02     		.2byte	0x2ca
 2321 0449 00000000 		.4byte	.LFB14
 2322 044d 30000000 		.4byte	.LFE14-.LFB14
 2323 0451 01       		.uleb128 0x1
 2324 0452 9C       		.byte	0x9c
 2325 0453 66040000 		.4byte	0x466
 2326 0457 1D       		.uleb128 0x1d
 2327 0458 3E010000 		.4byte	.LASF41
 2328 045c 01       		.byte	0x1
 2329 045d CA02     		.2byte	0x2ca
 2330 045f 6B000000 		.4byte	0x6b
 2331 0463 01       		.uleb128 0x1
 2332 0464 50       		.byte	0x50
 2333 0465 00       		.byte	0
 2334 0466 17       		.uleb128 0x17
 2335 0467 F6010000 		.4byte	.LASF50
 2336 046b 01       		.byte	0x1
 2337 046c F702     		.2byte	0x2f7
 2338 046e 00000000 		.4byte	.LFB15
 2339 0472 30000000 		.4byte	.LFE15-.LFB15
 2340 0476 01       		.uleb128 0x1
 2341 0477 9C       		.byte	0x9c
 2342 0478 8B040000 		.4byte	0x48b
 2343 047c 1D       		.uleb128 0x1d
 2344 047d 50060000 		.4byte	.LASF43
 2345 0481 01       		.byte	0x1
 2346 0482 F702     		.2byte	0x2f7
 2347 0484 6B000000 		.4byte	0x6b
 2348 0488 01       		.uleb128 0x1
 2349 0489 50       		.byte	0x50
 2350 048a 00       		.byte	0
 2351 048b 17       		.uleb128 0x17
 2352 048c 95030000 		.4byte	.LASF51
 2353 0490 01       		.byte	0x1
 2354 0491 2403     		.2byte	0x324
 2355 0493 00000000 		.4byte	.LFB16
 2356 0497 30000000 		.4byte	.LFE16-.LFB16
 2357 049b 01       		.uleb128 0x1
 2358 049c 9C       		.byte	0x9c
 2359 049d B0040000 		.4byte	0x4b0
 2360 04a1 1D       		.uleb128 0x1d
 2361 04a2 1D040000 		.4byte	.LASF45
 2362 04a6 01       		.byte	0x1
 2363 04a7 2403     		.2byte	0x324
ARM GAS  C:\Users\HPz420\AppData\Local\Temp\cce1Gm9q.s 			page 81


 2364 04a9 6B000000 		.4byte	0x6b
 2365 04ad 01       		.uleb128 0x1
 2366 04ae 50       		.byte	0x50
 2367 04af 00       		.byte	0
 2368 04b0 17       		.uleb128 0x17
 2369 04b1 A8060000 		.4byte	.LASF52
 2370 04b5 01       		.byte	0x1
 2371 04b6 5103     		.2byte	0x351
 2372 04b8 00000000 		.4byte	.LFB17
 2373 04bc 30000000 		.4byte	.LFE17-.LFB17
 2374 04c0 01       		.uleb128 0x1
 2375 04c1 9C       		.byte	0x9c
 2376 04c2 D5040000 		.4byte	0x4d5
 2377 04c6 1D       		.uleb128 0x1d
 2378 04c7 28040000 		.4byte	.LASF26
 2379 04cb 01       		.byte	0x1
 2380 04cc 5103     		.2byte	0x351
 2381 04ce 6B000000 		.4byte	0x6b
 2382 04d2 01       		.uleb128 0x1
 2383 04d3 50       		.byte	0x50
 2384 04d4 00       		.byte	0
 2385 04d5 17       		.uleb128 0x17
 2386 04d6 5E060000 		.4byte	.LASF53
 2387 04da 01       		.byte	0x1
 2388 04db 7E03     		.2byte	0x37e
 2389 04dd 00000000 		.4byte	.LFB18
 2390 04e1 30000000 		.4byte	.LFE18-.LFB18
 2391 04e5 01       		.uleb128 0x1
 2392 04e6 9C       		.byte	0x9c
 2393 04e7 FA040000 		.4byte	0x4fa
 2394 04eb 1D       		.uleb128 0x1d
 2395 04ec 2E020000 		.4byte	.LASF27
 2396 04f0 01       		.byte	0x1
 2397 04f1 7E03     		.2byte	0x37e
 2398 04f3 6B000000 		.4byte	0x6b
 2399 04f7 01       		.uleb128 0x1
 2400 04f8 50       		.byte	0x50
 2401 04f9 00       		.byte	0
 2402 04fa 17       		.uleb128 0x17
 2403 04fb 78050000 		.4byte	.LASF54
 2404 04ff 01       		.byte	0x1
 2405 0500 AB03     		.2byte	0x3ab
 2406 0502 00000000 		.4byte	.LFB19
 2407 0506 30000000 		.4byte	.LFE19-.LFB19
 2408 050a 01       		.uleb128 0x1
 2409 050b 9C       		.byte	0x9c
 2410 050c 1F050000 		.4byte	0x51f
 2411 0510 1D       		.uleb128 0x1d
 2412 0511 45010000 		.4byte	.LASF28
 2413 0515 01       		.byte	0x1
 2414 0516 AB03     		.2byte	0x3ab
 2415 0518 77000000 		.4byte	0x77
 2416 051c 01       		.uleb128 0x1
 2417 051d 50       		.byte	0x50
 2418 051e 00       		.byte	0
 2419 051f 17       		.uleb128 0x17
 2420 0520 FF000000 		.4byte	.LASF55
ARM GAS  C:\Users\HPz420\AppData\Local\Temp\cce1Gm9q.s 			page 82


 2421 0524 01       		.byte	0x1
 2422 0525 D903     		.2byte	0x3d9
 2423 0527 00000000 		.4byte	.LFB20
 2424 052b 30000000 		.4byte	.LFE20-.LFB20
 2425 052f 01       		.uleb128 0x1
 2426 0530 9C       		.byte	0x9c
 2427 0531 44050000 		.4byte	0x544
 2428 0535 1D       		.uleb128 0x1d
 2429 0536 6F030000 		.4byte	.LASF56
 2430 053a 01       		.byte	0x1
 2431 053b D903     		.2byte	0x3d9
 2432 053d 6B000000 		.4byte	0x6b
 2433 0541 01       		.uleb128 0x1
 2434 0542 50       		.byte	0x50
 2435 0543 00       		.byte	0
 2436 0544 17       		.uleb128 0x17
 2437 0545 B6000000 		.4byte	.LASF57
 2438 0549 01       		.byte	0x1
 2439 054a 0604     		.2byte	0x406
 2440 054c 00000000 		.4byte	.LFB21
 2441 0550 30000000 		.4byte	.LFE21-.LFB21
 2442 0554 01       		.uleb128 0x1
 2443 0555 9C       		.byte	0x9c
 2444 0556 69050000 		.4byte	0x569
 2445 055a 1D       		.uleb128 0x1d
 2446 055b 25050000 		.4byte	.LASF58
 2447 055f 01       		.byte	0x1
 2448 0560 0604     		.2byte	0x406
 2449 0562 77000000 		.4byte	0x77
 2450 0566 01       		.uleb128 0x1
 2451 0567 50       		.byte	0x50
 2452 0568 00       		.byte	0
 2453 0569 1B       		.uleb128 0x1b
 2454 056a 57050000 		.4byte	.LASF60
 2455 056e 01       		.byte	0x1
 2456 056f 2904     		.2byte	0x429
 2457 0571 6B000000 		.4byte	0x6b
 2458 0575 00000000 		.4byte	.LFB22
 2459 0579 0C000000 		.4byte	.LFE22-.LFB22
 2460 057d 01       		.uleb128 0x1
 2461 057e 9C       		.byte	0x9c
 2462 057f 1B       		.uleb128 0x1b
 2463 0580 B5010000 		.4byte	.LASF61
 2464 0584 01       		.byte	0x1
 2465 0585 4104     		.2byte	0x441
 2466 0587 6B000000 		.4byte	0x6b
 2467 058b 00000000 		.4byte	.LFB23
 2468 058f 0C000000 		.4byte	.LFE23-.LFB23
 2469 0593 01       		.uleb128 0x1
 2470 0594 9C       		.byte	0x9c
 2471 0595 1B       		.uleb128 0x1b
 2472 0596 16050000 		.4byte	.LASF62
 2473 059a 01       		.byte	0x1
 2474 059b 5904     		.2byte	0x459
 2475 059d 6B000000 		.4byte	0x6b
 2476 05a1 00000000 		.4byte	.LFB24
 2477 05a5 0C000000 		.4byte	.LFE24-.LFB24
ARM GAS  C:\Users\HPz420\AppData\Local\Temp\cce1Gm9q.s 			page 83


 2478 05a9 01       		.uleb128 0x1
 2479 05aa 9C       		.byte	0x9c
 2480 05ab 1B       		.uleb128 0x1b
 2481 05ac D0000000 		.4byte	.LASF63
 2482 05b0 01       		.byte	0x1
 2483 05b1 7304     		.2byte	0x473
 2484 05b3 6B000000 		.4byte	0x6b
 2485 05b7 00000000 		.4byte	.LFB25
 2486 05bb 0C000000 		.4byte	.LFE25-.LFB25
 2487 05bf 01       		.uleb128 0x1
 2488 05c0 9C       		.byte	0x9c
 2489 05c1 1B       		.uleb128 0x1b
 2490 05c2 E7020000 		.4byte	.LASF64
 2491 05c6 01       		.byte	0x1
 2492 05c7 8B04     		.2byte	0x48b
 2493 05c9 6B000000 		.4byte	0x6b
 2494 05cd 00000000 		.4byte	.LFB26
 2495 05d1 0C000000 		.4byte	.LFE26-.LFB26
 2496 05d5 01       		.uleb128 0x1
 2497 05d6 9C       		.byte	0x9c
 2498 05d7 1B       		.uleb128 0x1b
 2499 05d8 3C000000 		.4byte	.LASF65
 2500 05dc 01       		.byte	0x1
 2501 05dd A304     		.2byte	0x4a3
 2502 05df 77000000 		.4byte	0x77
 2503 05e3 00000000 		.4byte	.LFB27
 2504 05e7 0C000000 		.4byte	.LFE27-.LFB27
 2505 05eb 01       		.uleb128 0x1
 2506 05ec 9C       		.byte	0x9c
 2507 05ed 1B       		.uleb128 0x1b
 2508 05ee 7F030000 		.4byte	.LASF66
 2509 05f2 01       		.byte	0x1
 2510 05f3 BC04     		.2byte	0x4bc
 2511 05f5 6B000000 		.4byte	0x6b
 2512 05f9 00000000 		.4byte	.LFB28
 2513 05fd 0C000000 		.4byte	.LFE28-.LFB28
 2514 0601 01       		.uleb128 0x1
 2515 0602 9C       		.byte	0x9c
 2516 0603 1B       		.uleb128 0x1b
 2517 0604 19010000 		.4byte	.LASF67
 2518 0608 01       		.byte	0x1
 2519 0609 D404     		.2byte	0x4d4
 2520 060b 6B000000 		.4byte	0x6b
 2521 060f 00000000 		.4byte	.LFB29
 2522 0613 0C000000 		.4byte	.LFE29-.LFB29
 2523 0617 01       		.uleb128 0x1
 2524 0618 9C       		.byte	0x9c
 2525 0619 1B       		.uleb128 0x1b
 2526 061a 38040000 		.4byte	.LASF68
 2527 061e 01       		.byte	0x1
 2528 061f EC04     		.2byte	0x4ec
 2529 0621 6B000000 		.4byte	0x6b
 2530 0625 00000000 		.4byte	.LFB30
 2531 0629 0C000000 		.4byte	.LFE30-.LFB30
 2532 062d 01       		.uleb128 0x1
 2533 062e 9C       		.byte	0x9c
 2534 062f 1B       		.uleb128 0x1b
ARM GAS  C:\Users\HPz420\AppData\Local\Temp\cce1Gm9q.s 			page 84


 2535 0630 64040000 		.4byte	.LASF69
 2536 0634 01       		.byte	0x1
 2537 0635 0505     		.2byte	0x505
 2538 0637 6B000000 		.4byte	0x6b
 2539 063b 00000000 		.4byte	.LFB31
 2540 063f 0C000000 		.4byte	.LFE31-.LFB31
 2541 0643 01       		.uleb128 0x1
 2542 0644 9C       		.byte	0x9c
 2543 0645 1B       		.uleb128 0x1b
 2544 0646 AA030000 		.4byte	.LASF70
 2545 064a 01       		.byte	0x1
 2546 064b 1E05     		.2byte	0x51e
 2547 064d 6B000000 		.4byte	0x6b
 2548 0651 00000000 		.4byte	.LFB32
 2549 0655 0C000000 		.4byte	.LFE32-.LFB32
 2550 0659 01       		.uleb128 0x1
 2551 065a 9C       		.byte	0x9c
 2552 065b 1B       		.uleb128 0x1b
 2553 065c 4A030000 		.4byte	.LASF71
 2554 0660 01       		.byte	0x1
 2555 0661 3605     		.2byte	0x536
 2556 0663 77000000 		.4byte	0x77
 2557 0667 00000000 		.4byte	.LFB33
 2558 066b 0C000000 		.4byte	.LFE33-.LFB33
 2559 066f 01       		.uleb128 0x1
 2560 0670 9C       		.byte	0x9c
 2561 0671 1B       		.uleb128 0x1b
 2562 0672 69000000 		.4byte	.LASF72
 2563 0676 01       		.byte	0x1
 2564 0677 4F05     		.2byte	0x54f
 2565 0679 6B000000 		.4byte	0x6b
 2566 067d 00000000 		.4byte	.LFB34
 2567 0681 0C000000 		.4byte	.LFE34-.LFB34
 2568 0685 01       		.uleb128 0x1
 2569 0686 9C       		.byte	0x9c
 2570 0687 1B       		.uleb128 0x1b
 2571 0688 7E020000 		.4byte	.LASF73
 2572 068c 01       		.byte	0x1
 2573 068d 6805     		.2byte	0x568
 2574 068f 77000000 		.4byte	0x77
 2575 0693 00000000 		.4byte	.LFB35
 2576 0697 0C000000 		.4byte	.LFE35-.LFB35
 2577 069b 01       		.uleb128 0x1
 2578 069c 9C       		.byte	0x9c
 2579 069d 17       		.uleb128 0x17
 2580 069e 4A010000 		.4byte	.LASF74
 2581 06a2 01       		.byte	0x1
 2582 06a3 8505     		.2byte	0x585
 2583 06a5 00000000 		.4byte	.LFB36
 2584 06a9 0C000000 		.4byte	.LFE36-.LFB36
 2585 06ad 01       		.uleb128 0x1
 2586 06ae 9C       		.byte	0x9c
 2587 06af C2060000 		.4byte	0x6c2
 2588 06b3 1D       		.uleb128 0x1d
 2589 06b4 B0010000 		.4byte	.LASF75
 2590 06b8 01       		.byte	0x1
 2591 06b9 8505     		.2byte	0x585
ARM GAS  C:\Users\HPz420\AppData\Local\Temp\cce1Gm9q.s 			page 85


 2592 06bb 6B000000 		.4byte	0x6b
 2593 06bf 01       		.uleb128 0x1
 2594 06c0 50       		.byte	0x50
 2595 06c1 00       		.byte	0
 2596 06c2 17       		.uleb128 0x17
 2597 06c3 9E000000 		.4byte	.LASF76
 2598 06c7 01       		.byte	0x1
 2599 06c8 A105     		.2byte	0x5a1
 2600 06ca 00000000 		.4byte	.LFB37
 2601 06ce 0C000000 		.4byte	.LFE37-.LFB37
 2602 06d2 01       		.uleb128 0x1
 2603 06d3 9C       		.byte	0x9c
 2604 06d4 E7060000 		.4byte	0x6e7
 2605 06d8 1D       		.uleb128 0x1d
 2606 06d9 B0010000 		.4byte	.LASF75
 2607 06dd 01       		.byte	0x1
 2608 06de A105     		.2byte	0x5a1
 2609 06e0 6B000000 		.4byte	0x6b
 2610 06e4 01       		.uleb128 0x1
 2611 06e5 50       		.byte	0x50
 2612 06e6 00       		.byte	0
 2613 06e7 1E       		.uleb128 0x1e
 2614 06e8 5E030000 		.4byte	.LASF95
 2615 06ec 01       		.byte	0x1
 2616 06ed C005     		.2byte	0x5c0
 2617 06ef 6B000000 		.4byte	0x6b
 2618 06f3 00000000 		.4byte	.LFB38
 2619 06f7 14000000 		.4byte	.LFE38-.LFB38
 2620 06fb 01       		.uleb128 0x1
 2621 06fc 9C       		.byte	0x9c
 2622 06fd 10070000 		.4byte	0x710
 2623 0701 0C       		.uleb128 0xc
 2624 0702 57060000 		.4byte	.LASF77
 2625 0706 01       		.byte	0x1
 2626 0707 C205     		.2byte	0x5c2
 2627 0709 6B000000 		.4byte	0x6b
 2628 070d 01       		.uleb128 0x1
 2629 070e 50       		.byte	0x50
 2630 070f 00       		.byte	0
 2631 0710 1F       		.uleb128 0x1f
 2632 0711 4B000000 		.4byte	.LASF78
 2633 0715 01       		.byte	0x1
 2634 0716 1C       		.byte	0x1c
 2635 0717 6B000000 		.4byte	0x6b
 2636 071b 05       		.uleb128 0x5
 2637 071c 03       		.byte	0x3
 2638 071d 00000000 		.4byte	RTC_1_initVar
 2639 0721 1F       		.uleb128 0x1f
 2640 0722 C8030000 		.4byte	.LASF79
 2641 0726 01       		.byte	0x1
 2642 0727 28       		.byte	0x28
 2643 0728 2F010000 		.4byte	0x12f
 2644 072c 05       		.uleb128 0x5
 2645 072d 03       		.byte	0x3
 2646 072e 00000000 		.4byte	RTC_1_alarmCfgTimeDate
 2647 0732 1F       		.uleb128 0x1f
 2648 0733 41020000 		.4byte	.LASF80
ARM GAS  C:\Users\HPz420\AppData\Local\Temp\cce1Gm9q.s 			page 86


 2649 0737 01       		.byte	0x1
 2650 0738 22       		.byte	0x22
 2651 0739 2F010000 		.4byte	0x12f
 2652 073d 05       		.uleb128 0x5
 2653 073e 03       		.byte	0x3
 2654 073f 00000000 		.4byte	RTC_1_currentTimeDate
 2655 0743 1F       		.uleb128 0x1f
 2656 0744 82010000 		.4byte	.LASF81
 2657 0748 01       		.byte	0x1
 2658 0749 3B       		.byte	0x3b
 2659 074a B0000000 		.4byte	0xb0
 2660 074e 05       		.uleb128 0x5
 2661 074f 03       		.byte	0x3
 2662 0750 00000000 		.4byte	RTC_1_alarmCfgMask
 2663 0754 1F       		.uleb128 0x1f
 2664 0755 57020000 		.4byte	.LASF82
 2665 0759 01       		.byte	0x1
 2666 075a 3C       		.byte	0x3c
 2667 075b B0000000 		.4byte	0xb0
 2668 075f 05       		.uleb128 0x5
 2669 0760 03       		.byte	0x3
 2670 0761 00000000 		.4byte	RTC_1_alarmCurStatus
 2671 0765 1F       		.uleb128 0x1f
 2672 0766 97020000 		.4byte	.LASF83
 2673 076a 01       		.byte	0x1
 2674 076b 3D       		.byte	0x3d
 2675 076c B0000000 		.4byte	0xb0
 2676 0770 05       		.uleb128 0x5
 2677 0771 03       		.byte	0x3
 2678 0772 00000000 		.4byte	RTC_1_intervalCfgMask
 2679 0776 1F       		.uleb128 0x1f
 2680 0777 08040000 		.4byte	.LASF84
 2681 077b 01       		.byte	0x1
 2682 077c 40       		.byte	0x40
 2683 077d B0000000 		.4byte	0xb0
 2684 0781 05       		.uleb128 0x5
 2685 0782 03       		.byte	0x3
 2686 0783 00000000 		.4byte	RTC_1_statusDateTime
 2687 0787 1F       		.uleb128 0x1f
 2688 0788 74060000 		.4byte	.LASF85
 2689 078c 01       		.byte	0x1
 2690 078d 43       		.byte	0x43
 2691 078e 98070000 		.4byte	0x798
 2692 0792 05       		.uleb128 0x5
 2693 0793 03       		.byte	0x3
 2694 0794 00000000 		.4byte	RTC_1_daysInMonths
 2695 0798 0F       		.uleb128 0xf
 2696 0799 AA010000 		.4byte	0x1aa
 2697 079d 20       		.uleb128 0x20
 2698 079e AD020000 		.4byte	.LASF86
 2699 07a2 AD020000 		.4byte	.LASF86
 2700 07a6 04       		.byte	0x4
 2701 07a7 7D       		.byte	0x7d
 2702 07a8 20       		.uleb128 0x20
 2703 07a9 26000000 		.4byte	.LASF87
 2704 07ad 26000000 		.4byte	.LASF87
 2705 07b1 04       		.byte	0x4
ARM GAS  C:\Users\HPz420\AppData\Local\Temp\cce1Gm9q.s 			page 87


 2706 07b2 7E       		.byte	0x7e
 2707 07b3 20       		.uleb128 0x20
 2708 07b4 95010000 		.4byte	.LASF88
 2709 07b8 95010000 		.4byte	.LASF88
 2710 07bc 04       		.byte	0x4
 2711 07bd 88       		.byte	0x88
 2712 07be 20       		.uleb128 0x20
 2713 07bf E5010000 		.4byte	.LASF89
 2714 07c3 E5010000 		.4byte	.LASF89
 2715 07c7 04       		.byte	0x4
 2716 07c8 8B       		.byte	0x8b
 2717 07c9 00       		.byte	0
 2718              		.section	.debug_abbrev,"",%progbits
 2719              	.Ldebug_abbrev0:
 2720 0000 01       		.uleb128 0x1
 2721 0001 11       		.uleb128 0x11
 2722 0002 01       		.byte	0x1
 2723 0003 25       		.uleb128 0x25
 2724 0004 0E       		.uleb128 0xe
 2725 0005 13       		.uleb128 0x13
 2726 0006 0B       		.uleb128 0xb
 2727 0007 03       		.uleb128 0x3
 2728 0008 0E       		.uleb128 0xe
 2729 0009 1B       		.uleb128 0x1b
 2730 000a 0E       		.uleb128 0xe
 2731 000b 55       		.uleb128 0x55
 2732 000c 17       		.uleb128 0x17
 2733 000d 11       		.uleb128 0x11
 2734 000e 01       		.uleb128 0x1
 2735 000f 10       		.uleb128 0x10
 2736 0010 17       		.uleb128 0x17
 2737 0011 00       		.byte	0
 2738 0012 00       		.byte	0
 2739 0013 02       		.uleb128 0x2
 2740 0014 24       		.uleb128 0x24
 2741 0015 00       		.byte	0
 2742 0016 0B       		.uleb128 0xb
 2743 0017 0B       		.uleb128 0xb
 2744 0018 3E       		.uleb128 0x3e
 2745 0019 0B       		.uleb128 0xb
 2746 001a 03       		.uleb128 0x3
 2747 001b 0E       		.uleb128 0xe
 2748 001c 00       		.byte	0
 2749 001d 00       		.byte	0
 2750 001e 03       		.uleb128 0x3
 2751 001f 24       		.uleb128 0x24
 2752 0020 00       		.byte	0
 2753 0021 0B       		.uleb128 0xb
 2754 0022 0B       		.uleb128 0xb
 2755 0023 3E       		.uleb128 0x3e
 2756 0024 0B       		.uleb128 0xb
 2757 0025 03       		.uleb128 0x3
 2758 0026 08       		.uleb128 0x8
 2759 0027 00       		.byte	0
 2760 0028 00       		.byte	0
 2761 0029 04       		.uleb128 0x4
 2762 002a 16       		.uleb128 0x16
ARM GAS  C:\Users\HPz420\AppData\Local\Temp\cce1Gm9q.s 			page 88


 2763 002b 00       		.byte	0
 2764 002c 03       		.uleb128 0x3
 2765 002d 0E       		.uleb128 0xe
 2766 002e 3A       		.uleb128 0x3a
 2767 002f 0B       		.uleb128 0xb
 2768 0030 3B       		.uleb128 0x3b
 2769 0031 05       		.uleb128 0x5
 2770 0032 49       		.uleb128 0x49
 2771 0033 13       		.uleb128 0x13
 2772 0034 00       		.byte	0
 2773 0035 00       		.byte	0
 2774 0036 05       		.uleb128 0x5
 2775 0037 35       		.uleb128 0x35
 2776 0038 00       		.byte	0
 2777 0039 49       		.uleb128 0x49
 2778 003a 13       		.uleb128 0x13
 2779 003b 00       		.byte	0
 2780 003c 00       		.byte	0
 2781 003d 06       		.uleb128 0x6
 2782 003e 13       		.uleb128 0x13
 2783 003f 01       		.byte	0x1
 2784 0040 0B       		.uleb128 0xb
 2785 0041 0B       		.uleb128 0xb
 2786 0042 3A       		.uleb128 0x3a
 2787 0043 0B       		.uleb128 0xb
 2788 0044 3B       		.uleb128 0x3b
 2789 0045 0B       		.uleb128 0xb
 2790 0046 01       		.uleb128 0x1
 2791 0047 13       		.uleb128 0x13
 2792 0048 00       		.byte	0
 2793 0049 00       		.byte	0
 2794 004a 07       		.uleb128 0x7
 2795 004b 0D       		.uleb128 0xd
 2796 004c 00       		.byte	0
 2797 004d 03       		.uleb128 0x3
 2798 004e 08       		.uleb128 0x8
 2799 004f 3A       		.uleb128 0x3a
 2800 0050 0B       		.uleb128 0xb
 2801 0051 3B       		.uleb128 0x3b
 2802 0052 0B       		.uleb128 0xb
 2803 0053 49       		.uleb128 0x49
 2804 0054 13       		.uleb128 0x13
 2805 0055 38       		.uleb128 0x38
 2806 0056 0B       		.uleb128 0xb
 2807 0057 00       		.byte	0
 2808 0058 00       		.byte	0
 2809 0059 08       		.uleb128 0x8
 2810 005a 0D       		.uleb128 0xd
 2811 005b 00       		.byte	0
 2812 005c 03       		.uleb128 0x3
 2813 005d 0E       		.uleb128 0xe
 2814 005e 3A       		.uleb128 0x3a
 2815 005f 0B       		.uleb128 0xb
 2816 0060 3B       		.uleb128 0x3b
 2817 0061 0B       		.uleb128 0xb
 2818 0062 49       		.uleb128 0x49
 2819 0063 13       		.uleb128 0x13
ARM GAS  C:\Users\HPz420\AppData\Local\Temp\cce1Gm9q.s 			page 89


 2820 0064 38       		.uleb128 0x38
 2821 0065 0B       		.uleb128 0xb
 2822 0066 00       		.byte	0
 2823 0067 00       		.byte	0
 2824 0068 09       		.uleb128 0x9
 2825 0069 16       		.uleb128 0x16
 2826 006a 00       		.byte	0
 2827 006b 03       		.uleb128 0x3
 2828 006c 0E       		.uleb128 0xe
 2829 006d 3A       		.uleb128 0x3a
 2830 006e 0B       		.uleb128 0xb
 2831 006f 3B       		.uleb128 0x3b
 2832 0070 0B       		.uleb128 0xb
 2833 0071 49       		.uleb128 0x49
 2834 0072 13       		.uleb128 0x13
 2835 0073 00       		.byte	0
 2836 0074 00       		.byte	0
 2837 0075 0A       		.uleb128 0xa
 2838 0076 2E       		.uleb128 0x2e
 2839 0077 01       		.byte	0x1
 2840 0078 03       		.uleb128 0x3
 2841 0079 0E       		.uleb128 0xe
 2842 007a 3A       		.uleb128 0x3a
 2843 007b 0B       		.uleb128 0xb
 2844 007c 3B       		.uleb128 0x3b
 2845 007d 05       		.uleb128 0x5
 2846 007e 27       		.uleb128 0x27
 2847 007f 19       		.uleb128 0x19
 2848 0080 49       		.uleb128 0x49
 2849 0081 13       		.uleb128 0x13
 2850 0082 11       		.uleb128 0x11
 2851 0083 01       		.uleb128 0x1
 2852 0084 12       		.uleb128 0x12
 2853 0085 06       		.uleb128 0x6
 2854 0086 40       		.uleb128 0x40
 2855 0087 18       		.uleb128 0x18
 2856 0088 9742     		.uleb128 0x2117
 2857 008a 19       		.uleb128 0x19
 2858 008b 01       		.uleb128 0x1
 2859 008c 13       		.uleb128 0x13
 2860 008d 00       		.byte	0
 2861 008e 00       		.byte	0
 2862 008f 0B       		.uleb128 0xb
 2863 0090 05       		.uleb128 0x5
 2864 0091 00       		.byte	0
 2865 0092 03       		.uleb128 0x3
 2866 0093 0E       		.uleb128 0xe
 2867 0094 3A       		.uleb128 0x3a
 2868 0095 0B       		.uleb128 0xb
 2869 0096 3B       		.uleb128 0x3b
 2870 0097 05       		.uleb128 0x5
 2871 0098 49       		.uleb128 0x49
 2872 0099 13       		.uleb128 0x13
 2873 009a 02       		.uleb128 0x2
 2874 009b 17       		.uleb128 0x17
 2875 009c 00       		.byte	0
 2876 009d 00       		.byte	0
ARM GAS  C:\Users\HPz420\AppData\Local\Temp\cce1Gm9q.s 			page 90


 2877 009e 0C       		.uleb128 0xc
 2878 009f 34       		.uleb128 0x34
 2879 00a0 00       		.byte	0
 2880 00a1 03       		.uleb128 0x3
 2881 00a2 0E       		.uleb128 0xe
 2882 00a3 3A       		.uleb128 0x3a
 2883 00a4 0B       		.uleb128 0xb
 2884 00a5 3B       		.uleb128 0x3b
 2885 00a6 05       		.uleb128 0x5
 2886 00a7 49       		.uleb128 0x49
 2887 00a8 13       		.uleb128 0x13
 2888 00a9 02       		.uleb128 0x2
 2889 00aa 18       		.uleb128 0x18
 2890 00ab 00       		.byte	0
 2891 00ac 00       		.byte	0
 2892 00ad 0D       		.uleb128 0xd
 2893 00ae 01       		.uleb128 0x1
 2894 00af 01       		.byte	0x1
 2895 00b0 49       		.uleb128 0x49
 2896 00b1 13       		.uleb128 0x13
 2897 00b2 01       		.uleb128 0x1
 2898 00b3 13       		.uleb128 0x13
 2899 00b4 00       		.byte	0
 2900 00b5 00       		.byte	0
 2901 00b6 0E       		.uleb128 0xe
 2902 00b7 21       		.uleb128 0x21
 2903 00b8 00       		.byte	0
 2904 00b9 49       		.uleb128 0x49
 2905 00ba 13       		.uleb128 0x13
 2906 00bb 2F       		.uleb128 0x2f
 2907 00bc 0B       		.uleb128 0xb
 2908 00bd 00       		.byte	0
 2909 00be 00       		.byte	0
 2910 00bf 0F       		.uleb128 0xf
 2911 00c0 26       		.uleb128 0x26
 2912 00c1 00       		.byte	0
 2913 00c2 49       		.uleb128 0x49
 2914 00c3 13       		.uleb128 0x13
 2915 00c4 00       		.byte	0
 2916 00c5 00       		.byte	0
 2917 00c6 10       		.uleb128 0x10
 2918 00c7 2E       		.uleb128 0x2e
 2919 00c8 01       		.byte	0x1
 2920 00c9 03       		.uleb128 0x3
 2921 00ca 0E       		.uleb128 0xe
 2922 00cb 3A       		.uleb128 0x3a
 2923 00cc 0B       		.uleb128 0xb
 2924 00cd 3B       		.uleb128 0x3b
 2925 00ce 05       		.uleb128 0x5
 2926 00cf 27       		.uleb128 0x27
 2927 00d0 19       		.uleb128 0x19
 2928 00d1 11       		.uleb128 0x11
 2929 00d2 01       		.uleb128 0x1
 2930 00d3 12       		.uleb128 0x12
 2931 00d4 06       		.uleb128 0x6
 2932 00d5 40       		.uleb128 0x40
 2933 00d6 18       		.uleb128 0x18
ARM GAS  C:\Users\HPz420\AppData\Local\Temp\cce1Gm9q.s 			page 91


 2934 00d7 9742     		.uleb128 0x2117
 2935 00d9 19       		.uleb128 0x19
 2936 00da 01       		.uleb128 0x1
 2937 00db 13       		.uleb128 0x13
 2938 00dc 00       		.byte	0
 2939 00dd 00       		.byte	0
 2940 00de 11       		.uleb128 0x11
 2941 00df 34       		.uleb128 0x34
 2942 00e0 00       		.byte	0
 2943 00e1 03       		.uleb128 0x3
 2944 00e2 08       		.uleb128 0x8
 2945 00e3 3A       		.uleb128 0x3a
 2946 00e4 0B       		.uleb128 0xb
 2947 00e5 3B       		.uleb128 0x3b
 2948 00e6 05       		.uleb128 0x5
 2949 00e7 49       		.uleb128 0x49
 2950 00e8 13       		.uleb128 0x13
 2951 00e9 02       		.uleb128 0x2
 2952 00ea 17       		.uleb128 0x17
 2953 00eb 00       		.byte	0
 2954 00ec 00       		.byte	0
 2955 00ed 12       		.uleb128 0x12
 2956 00ee 34       		.uleb128 0x34
 2957 00ef 00       		.byte	0
 2958 00f0 03       		.uleb128 0x3
 2959 00f1 0E       		.uleb128 0xe
 2960 00f2 3A       		.uleb128 0x3a
 2961 00f3 0B       		.uleb128 0xb
 2962 00f4 3B       		.uleb128 0x3b
 2963 00f5 05       		.uleb128 0x5
 2964 00f6 49       		.uleb128 0x49
 2965 00f7 13       		.uleb128 0x13
 2966 00f8 02       		.uleb128 0x2
 2967 00f9 17       		.uleb128 0x17
 2968 00fa 00       		.byte	0
 2969 00fb 00       		.byte	0
 2970 00fc 13       		.uleb128 0x13
 2971 00fd 898201   		.uleb128 0x4109
 2972 0100 00       		.byte	0
 2973 0101 11       		.uleb128 0x11
 2974 0102 01       		.uleb128 0x1
 2975 0103 31       		.uleb128 0x31
 2976 0104 13       		.uleb128 0x13
 2977 0105 00       		.byte	0
 2978 0106 00       		.byte	0
 2979 0107 14       		.uleb128 0x14
 2980 0108 2E       		.uleb128 0x2e
 2981 0109 01       		.byte	0x1
 2982 010a 3F       		.uleb128 0x3f
 2983 010b 19       		.uleb128 0x19
 2984 010c 03       		.uleb128 0x3
 2985 010d 0E       		.uleb128 0xe
 2986 010e 3A       		.uleb128 0x3a
 2987 010f 0B       		.uleb128 0xb
 2988 0110 3B       		.uleb128 0x3b
 2989 0111 0B       		.uleb128 0xb
 2990 0112 27       		.uleb128 0x27
ARM GAS  C:\Users\HPz420\AppData\Local\Temp\cce1Gm9q.s 			page 92


 2991 0113 19       		.uleb128 0x19
 2992 0114 11       		.uleb128 0x11
 2993 0115 01       		.uleb128 0x1
 2994 0116 12       		.uleb128 0x12
 2995 0117 06       		.uleb128 0x6
 2996 0118 40       		.uleb128 0x40
 2997 0119 18       		.uleb128 0x18
 2998 011a 9742     		.uleb128 0x2117
 2999 011c 19       		.uleb128 0x19
 3000 011d 01       		.uleb128 0x1
 3001 011e 13       		.uleb128 0x13
 3002 011f 00       		.byte	0
 3003 0120 00       		.byte	0
 3004 0121 15       		.uleb128 0x15
 3005 0122 34       		.uleb128 0x34
 3006 0123 00       		.byte	0
 3007 0124 03       		.uleb128 0x3
 3008 0125 0E       		.uleb128 0xe
 3009 0126 3A       		.uleb128 0x3a
 3010 0127 0B       		.uleb128 0xb
 3011 0128 3B       		.uleb128 0x3b
 3012 0129 0B       		.uleb128 0xb
 3013 012a 49       		.uleb128 0x49
 3014 012b 13       		.uleb128 0x13
 3015 012c 02       		.uleb128 0x2
 3016 012d 17       		.uleb128 0x17
 3017 012e 00       		.byte	0
 3018 012f 00       		.byte	0
 3019 0130 16       		.uleb128 0x16
 3020 0131 2E       		.uleb128 0x2e
 3021 0132 00       		.byte	0
 3022 0133 3F       		.uleb128 0x3f
 3023 0134 19       		.uleb128 0x19
 3024 0135 03       		.uleb128 0x3
 3025 0136 0E       		.uleb128 0xe
 3026 0137 3A       		.uleb128 0x3a
 3027 0138 0B       		.uleb128 0xb
 3028 0139 3B       		.uleb128 0x3b
 3029 013a 0B       		.uleb128 0xb
 3030 013b 27       		.uleb128 0x27
 3031 013c 19       		.uleb128 0x19
 3032 013d 11       		.uleb128 0x11
 3033 013e 01       		.uleb128 0x1
 3034 013f 12       		.uleb128 0x12
 3035 0140 06       		.uleb128 0x6
 3036 0141 40       		.uleb128 0x40
 3037 0142 18       		.uleb128 0x18
 3038 0143 9742     		.uleb128 0x2117
 3039 0145 19       		.uleb128 0x19
 3040 0146 00       		.byte	0
 3041 0147 00       		.byte	0
 3042 0148 17       		.uleb128 0x17
 3043 0149 2E       		.uleb128 0x2e
 3044 014a 01       		.byte	0x1
 3045 014b 3F       		.uleb128 0x3f
 3046 014c 19       		.uleb128 0x19
 3047 014d 03       		.uleb128 0x3
ARM GAS  C:\Users\HPz420\AppData\Local\Temp\cce1Gm9q.s 			page 93


 3048 014e 0E       		.uleb128 0xe
 3049 014f 3A       		.uleb128 0x3a
 3050 0150 0B       		.uleb128 0xb
 3051 0151 3B       		.uleb128 0x3b
 3052 0152 05       		.uleb128 0x5
 3053 0153 27       		.uleb128 0x27
 3054 0154 19       		.uleb128 0x19
 3055 0155 11       		.uleb128 0x11
 3056 0156 01       		.uleb128 0x1
 3057 0157 12       		.uleb128 0x12
 3058 0158 06       		.uleb128 0x6
 3059 0159 40       		.uleb128 0x40
 3060 015a 18       		.uleb128 0x18
 3061 015b 9742     		.uleb128 0x2117
 3062 015d 19       		.uleb128 0x19
 3063 015e 01       		.uleb128 0x1
 3064 015f 13       		.uleb128 0x13
 3065 0160 00       		.byte	0
 3066 0161 00       		.byte	0
 3067 0162 18       		.uleb128 0x18
 3068 0163 898201   		.uleb128 0x4109
 3069 0166 01       		.byte	0x1
 3070 0167 11       		.uleb128 0x11
 3071 0168 01       		.uleb128 0x1
 3072 0169 31       		.uleb128 0x31
 3073 016a 13       		.uleb128 0x13
 3074 016b 01       		.uleb128 0x1
 3075 016c 13       		.uleb128 0x13
 3076 016d 00       		.byte	0
 3077 016e 00       		.byte	0
 3078 016f 19       		.uleb128 0x19
 3079 0170 8A8201   		.uleb128 0x410a
 3080 0173 00       		.byte	0
 3081 0174 02       		.uleb128 0x2
 3082 0175 18       		.uleb128 0x18
 3083 0176 9142     		.uleb128 0x2111
 3084 0178 18       		.uleb128 0x18
 3085 0179 00       		.byte	0
 3086 017a 00       		.byte	0
 3087 017b 1A       		.uleb128 0x1a
 3088 017c 898201   		.uleb128 0x4109
 3089 017f 01       		.byte	0x1
 3090 0180 11       		.uleb128 0x11
 3091 0181 01       		.uleb128 0x1
 3092 0182 31       		.uleb128 0x31
 3093 0183 13       		.uleb128 0x13
 3094 0184 00       		.byte	0
 3095 0185 00       		.byte	0
 3096 0186 1B       		.uleb128 0x1b
 3097 0187 2E       		.uleb128 0x2e
 3098 0188 00       		.byte	0
 3099 0189 3F       		.uleb128 0x3f
 3100 018a 19       		.uleb128 0x19
 3101 018b 03       		.uleb128 0x3
 3102 018c 0E       		.uleb128 0xe
 3103 018d 3A       		.uleb128 0x3a
 3104 018e 0B       		.uleb128 0xb
ARM GAS  C:\Users\HPz420\AppData\Local\Temp\cce1Gm9q.s 			page 94


 3105 018f 3B       		.uleb128 0x3b
 3106 0190 05       		.uleb128 0x5
 3107 0191 27       		.uleb128 0x27
 3108 0192 19       		.uleb128 0x19
 3109 0193 49       		.uleb128 0x49
 3110 0194 13       		.uleb128 0x13
 3111 0195 11       		.uleb128 0x11
 3112 0196 01       		.uleb128 0x1
 3113 0197 12       		.uleb128 0x12
 3114 0198 06       		.uleb128 0x6
 3115 0199 40       		.uleb128 0x40
 3116 019a 18       		.uleb128 0x18
 3117 019b 9742     		.uleb128 0x2117
 3118 019d 19       		.uleb128 0x19
 3119 019e 00       		.byte	0
 3120 019f 00       		.byte	0
 3121 01a0 1C       		.uleb128 0x1c
 3122 01a1 0F       		.uleb128 0xf
 3123 01a2 00       		.byte	0
 3124 01a3 0B       		.uleb128 0xb
 3125 01a4 0B       		.uleb128 0xb
 3126 01a5 49       		.uleb128 0x49
 3127 01a6 13       		.uleb128 0x13
 3128 01a7 00       		.byte	0
 3129 01a8 00       		.byte	0
 3130 01a9 1D       		.uleb128 0x1d
 3131 01aa 05       		.uleb128 0x5
 3132 01ab 00       		.byte	0
 3133 01ac 03       		.uleb128 0x3
 3134 01ad 0E       		.uleb128 0xe
 3135 01ae 3A       		.uleb128 0x3a
 3136 01af 0B       		.uleb128 0xb
 3137 01b0 3B       		.uleb128 0x3b
 3138 01b1 05       		.uleb128 0x5
 3139 01b2 49       		.uleb128 0x49
 3140 01b3 13       		.uleb128 0x13
 3141 01b4 02       		.uleb128 0x2
 3142 01b5 18       		.uleb128 0x18
 3143 01b6 00       		.byte	0
 3144 01b7 00       		.byte	0
 3145 01b8 1E       		.uleb128 0x1e
 3146 01b9 2E       		.uleb128 0x2e
 3147 01ba 01       		.byte	0x1
 3148 01bb 3F       		.uleb128 0x3f
 3149 01bc 19       		.uleb128 0x19
 3150 01bd 03       		.uleb128 0x3
 3151 01be 0E       		.uleb128 0xe
 3152 01bf 3A       		.uleb128 0x3a
 3153 01c0 0B       		.uleb128 0xb
 3154 01c1 3B       		.uleb128 0x3b
 3155 01c2 05       		.uleb128 0x5
 3156 01c3 27       		.uleb128 0x27
 3157 01c4 19       		.uleb128 0x19
 3158 01c5 49       		.uleb128 0x49
 3159 01c6 13       		.uleb128 0x13
 3160 01c7 11       		.uleb128 0x11
 3161 01c8 01       		.uleb128 0x1
ARM GAS  C:\Users\HPz420\AppData\Local\Temp\cce1Gm9q.s 			page 95


 3162 01c9 12       		.uleb128 0x12
 3163 01ca 06       		.uleb128 0x6
 3164 01cb 40       		.uleb128 0x40
 3165 01cc 18       		.uleb128 0x18
 3166 01cd 9742     		.uleb128 0x2117
 3167 01cf 19       		.uleb128 0x19
 3168 01d0 01       		.uleb128 0x1
 3169 01d1 13       		.uleb128 0x13
 3170 01d2 00       		.byte	0
 3171 01d3 00       		.byte	0
 3172 01d4 1F       		.uleb128 0x1f
 3173 01d5 34       		.uleb128 0x34
 3174 01d6 00       		.byte	0
 3175 01d7 03       		.uleb128 0x3
 3176 01d8 0E       		.uleb128 0xe
 3177 01d9 3A       		.uleb128 0x3a
 3178 01da 0B       		.uleb128 0xb
 3179 01db 3B       		.uleb128 0x3b
 3180 01dc 0B       		.uleb128 0xb
 3181 01dd 49       		.uleb128 0x49
 3182 01de 13       		.uleb128 0x13
 3183 01df 3F       		.uleb128 0x3f
 3184 01e0 19       		.uleb128 0x19
 3185 01e1 02       		.uleb128 0x2
 3186 01e2 18       		.uleb128 0x18
 3187 01e3 00       		.byte	0
 3188 01e4 00       		.byte	0
 3189 01e5 20       		.uleb128 0x20
 3190 01e6 2E       		.uleb128 0x2e
 3191 01e7 00       		.byte	0
 3192 01e8 3F       		.uleb128 0x3f
 3193 01e9 19       		.uleb128 0x19
 3194 01ea 3C       		.uleb128 0x3c
 3195 01eb 19       		.uleb128 0x19
 3196 01ec 6E       		.uleb128 0x6e
 3197 01ed 0E       		.uleb128 0xe
 3198 01ee 03       		.uleb128 0x3
 3199 01ef 0E       		.uleb128 0xe
 3200 01f0 3A       		.uleb128 0x3a
 3201 01f1 0B       		.uleb128 0xb
 3202 01f2 3B       		.uleb128 0x3b
 3203 01f3 0B       		.uleb128 0xb
 3204 01f4 00       		.byte	0
 3205 01f5 00       		.byte	0
 3206 01f6 00       		.byte	0
 3207              		.section	.debug_loc,"",%progbits
 3208              	.Ldebug_loc0:
 3209              	.LLST0:
 3210 0000 00000000 		.4byte	.LVL0
 3211 0004 2C000000 		.4byte	.LVL5
 3212 0008 0100     		.2byte	0x1
 3213 000a 50       		.byte	0x50
 3214 000b 2C000000 		.4byte	.LVL5
 3215 000f 50000000 		.4byte	.LFE39
 3216 0013 0400     		.2byte	0x4
 3217 0015 F3       		.byte	0xf3
 3218 0016 01       		.uleb128 0x1
ARM GAS  C:\Users\HPz420\AppData\Local\Temp\cce1Gm9q.s 			page 96


 3219 0017 50       		.byte	0x50
 3220 0018 9F       		.byte	0x9f
 3221 0019 00000000 		.4byte	0
 3222 001d 00000000 		.4byte	0
 3223              	.LLST1:
 3224 0021 00000000 		.4byte	.LVL0
 3225 0025 22000000 		.4byte	.LVL3
 3226 0029 0100     		.2byte	0x1
 3227 002b 51       		.byte	0x51
 3228 002c 22000000 		.4byte	.LVL3
 3229 0030 50000000 		.4byte	.LFE39
 3230 0034 0400     		.2byte	0x4
 3231 0036 F3       		.byte	0xf3
 3232 0037 01       		.uleb128 0x1
 3233 0038 51       		.byte	0x51
 3234 0039 9F       		.byte	0x9f
 3235 003a 00000000 		.4byte	0
 3236 003e 00000000 		.4byte	0
 3237              	.LLST2:
 3238 0042 00000000 		.4byte	.LVL0
 3239 0046 08000000 		.4byte	.LVL1
 3240 004a 0100     		.2byte	0x1
 3241 004c 52       		.byte	0x52
 3242 004d 08000000 		.4byte	.LVL1
 3243 0051 0A000000 		.4byte	.LVL2
 3244 0055 0400     		.2byte	0x4
 3245 0057 F3       		.byte	0xf3
 3246 0058 01       		.uleb128 0x1
 3247 0059 52       		.byte	0x52
 3248 005a 9F       		.byte	0x9f
 3249 005b 0A000000 		.4byte	.LVL2
 3250 005f 24000000 		.4byte	.LVL4
 3251 0063 0100     		.2byte	0x1
 3252 0065 52       		.byte	0x52
 3253 0066 00000000 		.4byte	0
 3254 006a 00000000 		.4byte	0
 3255              	.LLST3:
 3256 006e 66000000 		.4byte	.LVL6
 3257 0072 7A000000 		.4byte	.LVL7
 3258 0076 0100     		.2byte	0x1
 3259 0078 53       		.byte	0x53
 3260 0079 7C000000 		.4byte	.LVL8
 3261 007d 8A000000 		.4byte	.LVL9
 3262 0081 0100     		.2byte	0x1
 3263 0083 53       		.byte	0x53
 3264 0084 00000000 		.4byte	0
 3265 0088 00000000 		.4byte	0
 3266              	.LLST4:
 3267 008c 7A020000 		.4byte	.LVL11
 3268 0090 82020000 		.4byte	.LVL12
 3269 0094 0100     		.2byte	0x1
 3270 0096 53       		.byte	0x53
 3271 0097 00000000 		.4byte	0
 3272 009b 00000000 		.4byte	0
 3273              	.LLST5:
 3274 009f 0C000000 		.4byte	.LVL13
 3275 00a3 19000000 		.4byte	.LVL14-1
ARM GAS  C:\Users\HPz420\AppData\Local\Temp\cce1Gm9q.s 			page 97


 3276 00a7 0100     		.2byte	0x1
 3277 00a9 50       		.byte	0x50
 3278 00aa 00000000 		.4byte	0
 3279 00ae 00000000 		.4byte	0
 3280              	.LLST6:
 3281 00b2 06000000 		.4byte	.LVL18
 3282 00b6 13000000 		.4byte	.LVL19-1
 3283 00ba 0100     		.2byte	0x1
 3284 00bc 50       		.byte	0x50
 3285 00bd 00000000 		.4byte	0
 3286 00c1 00000000 		.4byte	0
 3287              	.LLST7:
 3288 00c5 00000000 		.4byte	.LVL22
 3289 00c9 07000000 		.4byte	.LVL23-1
 3290 00cd 0100     		.2byte	0x1
 3291 00cf 50       		.byte	0x50
 3292 00d0 07000000 		.4byte	.LVL23-1
 3293 00d4 34000000 		.4byte	.LVL25
 3294 00d8 0100     		.2byte	0x1
 3295 00da 54       		.byte	0x54
 3296 00db 34000000 		.4byte	.LVL25
 3297 00df 38000000 		.4byte	.LFE7
 3298 00e3 0400     		.2byte	0x4
 3299 00e5 F3       		.byte	0xf3
 3300 00e6 01       		.uleb128 0x1
 3301 00e7 50       		.byte	0x50
 3302 00e8 9F       		.byte	0x9f
 3303 00e9 00000000 		.4byte	0
 3304 00ed 00000000 		.4byte	0
 3305              		.section	.debug_aranges,"",%progbits
 3306 0000 5C010000 		.4byte	0x15c
 3307 0004 0200     		.2byte	0x2
 3308 0006 00000000 		.4byte	.Ldebug_info0
 3309 000a 04       		.byte	0x4
 3310 000b 00       		.byte	0
 3311 000c 0000     		.2byte	0
 3312 000e 0000     		.2byte	0
 3313 0010 00000000 		.4byte	.LFB39
 3314 0014 50000000 		.4byte	.LFE39-.LFB39
 3315 0018 00000000 		.4byte	.LFB40
 3316 001c A0020000 		.4byte	.LFE40-.LFB40
 3317 0020 00000000 		.4byte	.LFB1
 3318 0024 24000000 		.4byte	.LFE1-.LFB1
 3319 0028 00000000 		.4byte	.LFB2
 3320 002c 0C000000 		.4byte	.LFE2-.LFB2
 3321 0030 00000000 		.4byte	.LFB3
 3322 0034 0C000000 		.4byte	.LFE3-.LFB3
 3323 0038 00000000 		.4byte	.LFB4
 3324 003c 28000000 		.4byte	.LFE4-.LFB4
 3325 0040 00000000 		.4byte	.LFB5
 3326 0044 24000000 		.4byte	.LFE5-.LFB5
 3327 0048 00000000 		.4byte	.LFB0
 3328 004c 1C000000 		.4byte	.LFE0-.LFB0
 3329 0050 00000000 		.4byte	.LFB6
 3330 0054 08000000 		.4byte	.LFE6-.LFB6
 3331 0058 00000000 		.4byte	.LFB7
 3332 005c 38000000 		.4byte	.LFE7-.LFB7
ARM GAS  C:\Users\HPz420\AppData\Local\Temp\cce1Gm9q.s 			page 98


 3333 0060 00000000 		.4byte	.LFB8
 3334 0064 0C000000 		.4byte	.LFE8-.LFB8
 3335 0068 00000000 		.4byte	.LFB9
 3336 006c 0C000000 		.4byte	.LFE9-.LFB9
 3337 0070 00000000 		.4byte	.LFB10
 3338 0074 0C000000 		.4byte	.LFE10-.LFB10
 3339 0078 00000000 		.4byte	.LFB11
 3340 007c 0C000000 		.4byte	.LFE11-.LFB11
 3341 0080 00000000 		.4byte	.LFB12
 3342 0084 0C000000 		.4byte	.LFE12-.LFB12
 3343 0088 00000000 		.4byte	.LFB13
 3344 008c 0C000000 		.4byte	.LFE13-.LFB13
 3345 0090 00000000 		.4byte	.LFB14
 3346 0094 30000000 		.4byte	.LFE14-.LFB14
 3347 0098 00000000 		.4byte	.LFB15
 3348 009c 30000000 		.4byte	.LFE15-.LFB15
 3349 00a0 00000000 		.4byte	.LFB16
 3350 00a4 30000000 		.4byte	.LFE16-.LFB16
 3351 00a8 00000000 		.4byte	.LFB17
 3352 00ac 30000000 		.4byte	.LFE17-.LFB17
 3353 00b0 00000000 		.4byte	.LFB18
 3354 00b4 30000000 		.4byte	.LFE18-.LFB18
 3355 00b8 00000000 		.4byte	.LFB19
 3356 00bc 30000000 		.4byte	.LFE19-.LFB19
 3357 00c0 00000000 		.4byte	.LFB20
 3358 00c4 30000000 		.4byte	.LFE20-.LFB20
 3359 00c8 00000000 		.4byte	.LFB21
 3360 00cc 30000000 		.4byte	.LFE21-.LFB21
 3361 00d0 00000000 		.4byte	.LFB22
 3362 00d4 0C000000 		.4byte	.LFE22-.LFB22
 3363 00d8 00000000 		.4byte	.LFB23
 3364 00dc 0C000000 		.4byte	.LFE23-.LFB23
 3365 00e0 00000000 		.4byte	.LFB24
 3366 00e4 0C000000 		.4byte	.LFE24-.LFB24
 3367 00e8 00000000 		.4byte	.LFB25
 3368 00ec 0C000000 		.4byte	.LFE25-.LFB25
 3369 00f0 00000000 		.4byte	.LFB26
 3370 00f4 0C000000 		.4byte	.LFE26-.LFB26
 3371 00f8 00000000 		.4byte	.LFB27
 3372 00fc 0C000000 		.4byte	.LFE27-.LFB27
 3373 0100 00000000 		.4byte	.LFB28
 3374 0104 0C000000 		.4byte	.LFE28-.LFB28
 3375 0108 00000000 		.4byte	.LFB29
 3376 010c 0C000000 		.4byte	.LFE29-.LFB29
 3377 0110 00000000 		.4byte	.LFB30
 3378 0114 0C000000 		.4byte	.LFE30-.LFB30
 3379 0118 00000000 		.4byte	.LFB31
 3380 011c 0C000000 		.4byte	.LFE31-.LFB31
 3381 0120 00000000 		.4byte	.LFB32
 3382 0124 0C000000 		.4byte	.LFE32-.LFB32
 3383 0128 00000000 		.4byte	.LFB33
 3384 012c 0C000000 		.4byte	.LFE33-.LFB33
 3385 0130 00000000 		.4byte	.LFB34
 3386 0134 0C000000 		.4byte	.LFE34-.LFB34
 3387 0138 00000000 		.4byte	.LFB35
 3388 013c 0C000000 		.4byte	.LFE35-.LFB35
 3389 0140 00000000 		.4byte	.LFB36
ARM GAS  C:\Users\HPz420\AppData\Local\Temp\cce1Gm9q.s 			page 99


 3390 0144 0C000000 		.4byte	.LFE36-.LFB36
 3391 0148 00000000 		.4byte	.LFB37
 3392 014c 0C000000 		.4byte	.LFE37-.LFB37
 3393 0150 00000000 		.4byte	.LFB38
 3394 0154 14000000 		.4byte	.LFE38-.LFB38
 3395 0158 00000000 		.4byte	0
 3396 015c 00000000 		.4byte	0
 3397              		.section	.debug_ranges,"",%progbits
 3398              	.Ldebug_ranges0:
 3399 0000 00000000 		.4byte	.LFB39
 3400 0004 50000000 		.4byte	.LFE39
 3401 0008 00000000 		.4byte	.LFB40
 3402 000c A0020000 		.4byte	.LFE40
 3403 0010 00000000 		.4byte	.LFB1
 3404 0014 24000000 		.4byte	.LFE1
 3405 0018 00000000 		.4byte	.LFB2
 3406 001c 0C000000 		.4byte	.LFE2
 3407 0020 00000000 		.4byte	.LFB3
 3408 0024 0C000000 		.4byte	.LFE3
 3409 0028 00000000 		.4byte	.LFB4
 3410 002c 28000000 		.4byte	.LFE4
 3411 0030 00000000 		.4byte	.LFB5
 3412 0034 24000000 		.4byte	.LFE5
 3413 0038 00000000 		.4byte	.LFB0
 3414 003c 1C000000 		.4byte	.LFE0
 3415 0040 00000000 		.4byte	.LFB6
 3416 0044 08000000 		.4byte	.LFE6
 3417 0048 00000000 		.4byte	.LFB7
 3418 004c 38000000 		.4byte	.LFE7
 3419 0050 00000000 		.4byte	.LFB8
 3420 0054 0C000000 		.4byte	.LFE8
 3421 0058 00000000 		.4byte	.LFB9
 3422 005c 0C000000 		.4byte	.LFE9
 3423 0060 00000000 		.4byte	.LFB10
 3424 0064 0C000000 		.4byte	.LFE10
 3425 0068 00000000 		.4byte	.LFB11
 3426 006c 0C000000 		.4byte	.LFE11
 3427 0070 00000000 		.4byte	.LFB12
 3428 0074 0C000000 		.4byte	.LFE12
 3429 0078 00000000 		.4byte	.LFB13
 3430 007c 0C000000 		.4byte	.LFE13
 3431 0080 00000000 		.4byte	.LFB14
 3432 0084 30000000 		.4byte	.LFE14
 3433 0088 00000000 		.4byte	.LFB15
 3434 008c 30000000 		.4byte	.LFE15
 3435 0090 00000000 		.4byte	.LFB16
 3436 0094 30000000 		.4byte	.LFE16
 3437 0098 00000000 		.4byte	.LFB17
 3438 009c 30000000 		.4byte	.LFE17
 3439 00a0 00000000 		.4byte	.LFB18
 3440 00a4 30000000 		.4byte	.LFE18
 3441 00a8 00000000 		.4byte	.LFB19
 3442 00ac 30000000 		.4byte	.LFE19
 3443 00b0 00000000 		.4byte	.LFB20
 3444 00b4 30000000 		.4byte	.LFE20
 3445 00b8 00000000 		.4byte	.LFB21
 3446 00bc 30000000 		.4byte	.LFE21
ARM GAS  C:\Users\HPz420\AppData\Local\Temp\cce1Gm9q.s 			page 100


 3447 00c0 00000000 		.4byte	.LFB22
 3448 00c4 0C000000 		.4byte	.LFE22
 3449 00c8 00000000 		.4byte	.LFB23
 3450 00cc 0C000000 		.4byte	.LFE23
 3451 00d0 00000000 		.4byte	.LFB24
 3452 00d4 0C000000 		.4byte	.LFE24
 3453 00d8 00000000 		.4byte	.LFB25
 3454 00dc 0C000000 		.4byte	.LFE25
 3455 00e0 00000000 		.4byte	.LFB26
 3456 00e4 0C000000 		.4byte	.LFE26
 3457 00e8 00000000 		.4byte	.LFB27
 3458 00ec 0C000000 		.4byte	.LFE27
 3459 00f0 00000000 		.4byte	.LFB28
 3460 00f4 0C000000 		.4byte	.LFE28
 3461 00f8 00000000 		.4byte	.LFB29
 3462 00fc 0C000000 		.4byte	.LFE29
 3463 0100 00000000 		.4byte	.LFB30
 3464 0104 0C000000 		.4byte	.LFE30
 3465 0108 00000000 		.4byte	.LFB31
 3466 010c 0C000000 		.4byte	.LFE31
 3467 0110 00000000 		.4byte	.LFB32
 3468 0114 0C000000 		.4byte	.LFE32
 3469 0118 00000000 		.4byte	.LFB33
 3470 011c 0C000000 		.4byte	.LFE33
 3471 0120 00000000 		.4byte	.LFB34
 3472 0124 0C000000 		.4byte	.LFE34
 3473 0128 00000000 		.4byte	.LFB35
 3474 012c 0C000000 		.4byte	.LFE35
 3475 0130 00000000 		.4byte	.LFB36
 3476 0134 0C000000 		.4byte	.LFE36
 3477 0138 00000000 		.4byte	.LFB37
 3478 013c 0C000000 		.4byte	.LFE37
 3479 0140 00000000 		.4byte	.LFB38
 3480 0144 14000000 		.4byte	.LFE38
 3481 0148 00000000 		.4byte	0
 3482 014c 00000000 		.4byte	0
 3483              		.section	.debug_line,"",%progbits
 3484              	.Ldebug_line0:
 3485 0000 C2030000 		.section	.debug_str,"MS",%progbits,1
 3485      02005800 
 3485      00000201 
 3485      FB0E0D00 
 3485      01010101 
 3486              	.LASF10:
 3487 0000 75696E74 		.ascii	"uint16\000"
 3487      313600
 3488              	.LASF29:
 3489 0007 5254435F 		.ascii	"RTC_1_monthTemplate\000"
 3489      315F6D6F 
 3489      6E746854 
 3489      656D706C 
 3489      61746500 
 3490              	.LASF34:
 3491 001b 5254435F 		.ascii	"RTC_1_Stop\000"
 3491      315F5374 
 3491      6F7000
 3492              	.LASF87:
ARM GAS  C:\Users\HPz420\AppData\Local\Temp\cce1Gm9q.s 			page 101


 3493 0026 43794578 		.ascii	"CyExitCriticalSection\000"
 3493      69744372 
 3493      69746963 
 3493      616C5365 
 3493      6374696F 
 3494              	.LASF65:
 3495 003c 5254435F 		.ascii	"RTC_1_ReadYear\000"
 3495      315F5265 
 3495      61645965 
 3495      617200
 3496              	.LASF78:
 3497 004b 5254435F 		.ascii	"RTC_1_initVar\000"
 3497      315F696E 
 3497      69745661 
 3497      7200
 3498              	.LASF48:
 3499 0059 5254435F 		.ascii	"RTC_1_WriteYear\000"
 3499      315F5772 
 3499      69746559 
 3499      65617200 
 3500              	.LASF72:
 3501 0069 5254435F 		.ascii	"RTC_1_ReadAlarmDayOfWeek\000"
 3501      315F5265 
 3501      6164416C 
 3501      61726D44 
 3501      61794F66 
 3502              	.LASF7:
 3503 0082 6C6F6E67 		.ascii	"long long unsigned int\000"
 3503      206C6F6E 
 3503      6720756E 
 3503      7369676E 
 3503      65642069 
 3504              	.LASF17:
 3505 0099 486F7572 		.ascii	"Hour\000"
 3505      00
 3506              	.LASF76:
 3507 009e 5254435F 		.ascii	"RTC_1_WriteIntervalMask\000"
 3507      315F5772 
 3507      69746549 
 3507      6E746572 
 3507      76616C4D 
 3508              	.LASF57:
 3509 00b6 5254435F 		.ascii	"RTC_1_WriteAlarmDayOfYear\000"
 3509      315F5772 
 3509      69746541 
 3509      6C61726D 
 3509      4461794F 
 3510              	.LASF63:
 3511 00d0 5254435F 		.ascii	"RTC_1_ReadDayOfMonth\000"
 3511      315F5265 
 3511      61644461 
 3511      794F664D 
 3511      6F6E7468 
 3512              	.LASF6:
 3513 00e5 6C6F6E67 		.ascii	"long long int\000"
 3513      206C6F6E 
 3513      6720696E 
ARM GAS  C:\Users\HPz420\AppData\Local\Temp\cce1Gm9q.s 			page 102


 3513      7400
 3514              	.LASF0:
 3515 00f3 7369676E 		.ascii	"signed char\000"
 3515      65642063 
 3515      68617200 
 3516              	.LASF55:
 3517 00ff 5254435F 		.ascii	"RTC_1_WriteAlarmDayOfWeek\000"
 3517      315F5772 
 3517      69746541 
 3517      6C61726D 
 3517      4461794F 
 3518              	.LASF67:
 3519 0119 5254435F 		.ascii	"RTC_1_ReadAlarmMinute\000"
 3519      315F5265 
 3519      6164416C 
 3519      61726D4D 
 3519      696E7574 
 3520              	.LASF31:
 3521 012f 696E7465 		.ascii	"interruptState\000"
 3521      72727570 
 3521      74537461 
 3521      746500
 3522              	.LASF41:
 3523 013e 7365636F 		.ascii	"second\000"
 3523      6E6400
 3524              	.LASF28:
 3525 0145 79656172 		.ascii	"year\000"
 3525      00
 3526              	.LASF74:
 3527 014a 5254435F 		.ascii	"RTC_1_WriteAlarmMask\000"
 3527      315F5772 
 3527      69746541 
 3527      6C61726D 
 3527      4D61736B 
 3528              	.LASF4:
 3529 015f 6C6F6E67 		.ascii	"long int\000"
 3529      20696E74 
 3529      00
 3530              	.LASF21:
 3531 0168 4D6F6E74 		.ascii	"Month\000"
 3531      6800
 3532              	.LASF9:
 3533 016e 75696E74 		.ascii	"uint8\000"
 3533      3800
 3534              	.LASF13:
 3535 0174 646F7562 		.ascii	"double\000"
 3535      6C6500
 3536              	.LASF11:
 3537 017b 75696E74 		.ascii	"uint32\000"
 3537      333200
 3538              	.LASF81:
 3539 0182 5254435F 		.ascii	"RTC_1_alarmCfgMask\000"
 3539      315F616C 
 3539      61726D43 
 3539      66674D61 
 3539      736B00
 3540              	.LASF88:
ARM GAS  C:\Users\HPz420\AppData\Local\Temp\cce1Gm9q.s 			page 103


 3541 0195 4379496E 		.ascii	"CyIntSetVector\000"
 3541      74536574 
 3541      56656374 
 3541      6F7200
 3542              	.LASF24:
 3543 01a4 6C6F6E67 		.ascii	"long double\000"
 3543      20646F75 
 3543      626C6500 
 3544              	.LASF75:
 3545 01b0 6D61736B 		.ascii	"mask\000"
 3545      00
 3546              	.LASF61:
 3547 01b5 5254435F 		.ascii	"RTC_1_ReadMinute\000"
 3547      315F5265 
 3547      61644D69 
 3547      6E757465 
 3547      00
 3548              	.LASF91:
 3549 01c6 47656E65 		.ascii	"Generated_Source\\PSoC5\\RTC_1.c\000"
 3549      72617465 
 3549      645F536F 
 3549      75726365 
 3549      5C50536F 
 3550              	.LASF89:
 3551 01e5 4379496E 		.ascii	"CyIntSetPriority\000"
 3551      74536574 
 3551      5072696F 
 3551      72697479 
 3551      00
 3552              	.LASF50:
 3553 01f6 5254435F 		.ascii	"RTC_1_WriteAlarmMinute\000"
 3553      315F5772 
 3553      69746541 
 3553      6C61726D 
 3553      4D696E75 
 3554              	.LASF32:
 3555 020d 5254435F 		.ascii	"RTC_1_EnableInt\000"
 3555      315F456E 
 3555      61626C65 
 3555      496E7400 
 3556              	.LASF47:
 3557 021d 5254435F 		.ascii	"RTC_1_WriteMonth\000"
 3557      315F5772 
 3557      6974654D 
 3557      6F6E7468 
 3557      00
 3558              	.LASF27:
 3559 022e 6D6F6E74 		.ascii	"month\000"
 3559      6800
 3560              	.LASF8:
 3561 0234 756E7369 		.ascii	"unsigned int\000"
 3561      676E6564 
 3561      20696E74 
 3561      00
 3562              	.LASF80:
 3563 0241 5254435F 		.ascii	"RTC_1_currentTimeDate\000"
 3563      315F6375 
ARM GAS  C:\Users\HPz420\AppData\Local\Temp\cce1Gm9q.s 			page 104


 3563      7272656E 
 3563      7454696D 
 3563      65446174 
 3564              	.LASF82:
 3565 0257 5254435F 		.ascii	"RTC_1_alarmCurStatus\000"
 3565      315F616C 
 3565      61726D43 
 3565      75725374 
 3565      61747573 
 3566              	.LASF5:
 3567 026c 6C6F6E67 		.ascii	"long unsigned int\000"
 3567      20756E73 
 3567      69676E65 
 3567      6420696E 
 3567      7400
 3568              	.LASF73:
 3569 027e 5254435F 		.ascii	"RTC_1_ReadAlarmDayOfYear\000"
 3569      315F5265 
 3569      6164416C 
 3569      61726D44 
 3569      61794F66 
 3570              	.LASF83:
 3571 0297 5254435F 		.ascii	"RTC_1_intervalCfgMask\000"
 3571      315F696E 
 3571      74657276 
 3571      616C4366 
 3571      674D6173 
 3572              	.LASF86:
 3573 02ad 4379456E 		.ascii	"CyEnterCriticalSection\000"
 3573      74657243 
 3573      72697469 
 3573      63616C53 
 3573      65637469 
 3574              	.LASF19:
 3575 02c4 4461794F 		.ascii	"DayOfMonth\000"
 3575      664D6F6E 
 3575      746800
 3576              	.LASF3:
 3577 02cf 73686F72 		.ascii	"short unsigned int\000"
 3577      7420756E 
 3577      7369676E 
 3577      65642069 
 3577      6E7400
 3578              	.LASF22:
 3579 02e2 59656172 		.ascii	"Year\000"
 3579      00
 3580              	.LASF64:
 3581 02e7 5254435F 		.ascii	"RTC_1_ReadMonth\000"
 3581      315F5265 
 3581      61644D6F 
 3581      6E746800 
 3582              	.LASF42:
 3583 02f7 5254435F 		.ascii	"RTC_1_WriteMinute\000"
 3583      315F5772 
 3583      6974654D 
 3583      696E7574 
 3583      6500
ARM GAS  C:\Users\HPz420\AppData\Local\Temp\cce1Gm9q.s 			page 105


 3584              	.LASF59:
 3585 0309 5254435F 		.ascii	"RTC_1_ReadTime\000"
 3585      315F5265 
 3585      61645469 
 3585      6D6500
 3586              	.LASF35:
 3587 0318 5254435F 		.ascii	"RTC_1_Init\000"
 3587      315F496E 
 3587      697400
 3588              	.LASF49:
 3589 0323 5254435F 		.ascii	"RTC_1_WriteAlarmSecond\000"
 3589      315F5772 
 3589      69746541 
 3589      6C61726D 
 3589      5365636F 
 3590              	.LASF38:
 3591 033a 5254435F 		.ascii	"RTC_1_WriteTime\000"
 3591      315F5772 
 3591      69746554 
 3591      696D6500 
 3592              	.LASF71:
 3593 034a 5254435F 		.ascii	"RTC_1_ReadAlarmYear\000"
 3593      315F5265 
 3593      6164416C 
 3593      61726D59 
 3593      65617200 
 3594              	.LASF95:
 3595 035e 5254435F 		.ascii	"RTC_1_ReadStatus\000"
 3595      315F5265 
 3595      61645374 
 3595      61747573 
 3595      00
 3596              	.LASF56:
 3597 036f 6461794F 		.ascii	"dayOfWeek\000"
 3597      66576565 
 3597      6B00
 3598              	.LASF16:
 3599 0379 72656733 		.ascii	"reg32\000"
 3599      3200
 3600              	.LASF66:
 3601 037f 5254435F 		.ascii	"RTC_1_ReadAlarmSecond\000"
 3601      315F5265 
 3601      6164416C 
 3601      61726D53 
 3601      65636F6E 
 3602              	.LASF51:
 3603 0395 5254435F 		.ascii	"RTC_1_WriteAlarmHour\000"
 3603      315F5772 
 3603      69746541 
 3603      6C61726D 
 3603      486F7572 
 3604              	.LASF70:
 3605 03aa 5254435F 		.ascii	"RTC_1_ReadAlarmMonth\000"
 3605      315F5265 
 3605      6164416C 
 3605      61726D4D 
 3605      6F6E7468 
ARM GAS  C:\Users\HPz420\AppData\Local\Temp\cce1Gm9q.s 			page 106


 3606              	.LASF25:
 3607 03bf 73697A65 		.ascii	"sizetype\000"
 3607      74797065 
 3607      00
 3608              	.LASF79:
 3609 03c8 5254435F 		.ascii	"RTC_1_alarmCfgTimeDate\000"
 3609      315F616C 
 3609      61726D43 
 3609      66675469 
 3609      6D654461 
 3610              	.LASF37:
 3611 03df 5254435F 		.ascii	"RTC_1_Start\000"
 3611      315F5374 
 3611      61727400 
 3612              	.LASF39:
 3613 03eb 74696D65 		.ascii	"timeDate\000"
 3613      44617465 
 3613      00
 3614              	.LASF94:
 3615 03f4 5254435F 		.ascii	"RTC_1_SetInitValues\000"
 3615      315F5365 
 3615      74496E69 
 3615      7456616C 
 3615      75657300 
 3616              	.LASF84:
 3617 0408 5254435F 		.ascii	"RTC_1_statusDateTime\000"
 3617      315F7374 
 3617      61747573 
 3617      44617465 
 3617      54696D65 
 3618              	.LASF45:
 3619 041d 686F7572 		.ascii	"hour\000"
 3619      00
 3620              	.LASF12:
 3621 0422 666C6F61 		.ascii	"float\000"
 3621      7400
 3622              	.LASF26:
 3623 0428 6461794F 		.ascii	"dayOfMonth\000"
 3623      664D6F6E 
 3623      746800
 3624              	.LASF15:
 3625 0433 72656738 		.ascii	"reg8\000"
 3625      00
 3626              	.LASF68:
 3627 0438 5254435F 		.ascii	"RTC_1_ReadAlarmHour\000"
 3627      315F5265 
 3627      6164416C 
 3627      61726D48 
 3627      6F757200 
 3628              	.LASF1:
 3629 044c 756E7369 		.ascii	"unsigned char\000"
 3629      676E6564 
 3629      20636861 
 3629      7200
 3630              	.LASF2:
 3631 045a 73686F72 		.ascii	"short int\000"
 3631      7420696E 
ARM GAS  C:\Users\HPz420\AppData\Local\Temp\cce1Gm9q.s 			page 107


 3631      7400
 3632              	.LASF69:
 3633 0464 5254435F 		.ascii	"RTC_1_ReadAlarmDayOfMonth\000"
 3633      315F5265 
 3633      6164416C 
 3633      61726D44 
 3633      61794F66 
 3634              	.LASF18:
 3635 047e 4461794F 		.ascii	"DayOfWeek\000"
 3635      66576565 
 3635      6B00
 3636              	.LASF90:
 3637 0488 474E5520 		.ascii	"GNU C11 5.4.1 20160609 (release) [ARM/embedded-5-br"
 3637      43313120 
 3637      352E342E 
 3637      31203230 
 3637      31363036 
 3638 04bb 616E6368 		.ascii	"anch revision 237715] -mcpu=cortex-m3 -mthumb -g -O"
 3638      20726576 
 3638      6973696F 
 3638      6E203233 
 3638      37373135 
 3639 04ee 67202D66 		.ascii	"g -ffunction-sections -ffat-lto-objects\000"
 3639      66756E63 
 3639      74696F6E 
 3639      2D736563 
 3639      74696F6E 
 3640              	.LASF62:
 3641 0516 5254435F 		.ascii	"RTC_1_ReadHour\000"
 3641      315F5265 
 3641      6164486F 
 3641      757200
 3642              	.LASF58:
 3643 0525 6461794F 		.ascii	"dayOfYear\000"
 3643      66596561 
 3643      7200
 3644              	.LASF40:
 3645 052f 5254435F 		.ascii	"RTC_1_WriteSecond\000"
 3645      315F5772 
 3645      69746553 
 3645      65636F6E 
 3645      6400
 3646              	.LASF33:
 3647 0541 5254435F 		.ascii	"RTC_1_DisableInt\000"
 3647      315F4469 
 3647      7361626C 
 3647      65496E74 
 3647      00
 3648              	.LASF14:
 3649 0552 63686172 		.ascii	"char\000"
 3649      00
 3650              	.LASF60:
 3651 0557 5254435F 		.ascii	"RTC_1_ReadSecond\000"
 3651      315F5265 
 3651      61645365 
 3651      636F6E64 
 3651      00
ARM GAS  C:\Users\HPz420\AppData\Local\Temp\cce1Gm9q.s 			page 108


 3652              	.LASF23:
 3653 0568 5254435F 		.ascii	"RTC_1_TIME_DATE\000"
 3653      315F5449 
 3653      4D455F44 
 3653      41544500 
 3654              	.LASF54:
 3655 0578 5254435F 		.ascii	"RTC_1_WriteAlarmYear\000"
 3655      315F5772 
 3655      69746541 
 3655      6C61726D 
 3655      59656172 
 3656              	.LASF36:
 3657 058d 5254435F 		.ascii	"RTC_1_Enable\000"
 3657      315F456E 
 3657      61626C65 
 3657      00
 3658              	.LASF92:
 3659 059a 433A5C55 		.ascii	"C:\\Users\\HPz420\\Documents\\GitHub\\Doug Gillilan"
 3659      73657273 
 3659      5C48507A 
 3659      3432305C 
 3659      446F6375 
 3660 05c8 645C5265 		.ascii	"d\\Retro-Computers\\Z80\\PSOC\\PSOC_Design_Files\\Z"
 3660      74726F2D 
 3660      436F6D70 
 3660      75746572 
 3660      735C5A38 
 3661 05f6 38302D50 		.ascii	"80-PSoC-3-Chips_002\\Z80_3Chip.cydsn\000"
 3661      536F432D 
 3661      332D4368 
 3661      6970735F 
 3661      3030325C 
 3662              	.LASF44:
 3663 061a 5254435F 		.ascii	"RTC_1_WriteHour\000"
 3663      315F5772 
 3663      69746548 
 3663      6F757200 
 3664              	.LASF93:
 3665 062a 5254435F 		.ascii	"RTC_1_DayOfWeek\000"
 3665      315F4461 
 3665      794F6657 
 3665      65656B00 
 3666              	.LASF46:
 3667 063a 5254435F 		.ascii	"RTC_1_WriteDayOfMonth\000"
 3667      315F5772 
 3667      69746544 
 3667      61794F66 
 3667      4D6F6E74 
 3668              	.LASF43:
 3669 0650 6D696E75 		.ascii	"minute\000"
 3669      746500
 3670              	.LASF77:
 3671 0657 73746174 		.ascii	"status\000"
 3671      757300
 3672              	.LASF53:
 3673 065e 5254435F 		.ascii	"RTC_1_WriteAlarmMonth\000"
 3673      315F5772 
ARM GAS  C:\Users\HPz420\AppData\Local\Temp\cce1Gm9q.s 			page 109


 3673      69746541 
 3673      6C61726D 
 3673      4D6F6E74 
 3674              	.LASF85:
 3675 0674 5254435F 		.ascii	"RTC_1_daysInMonths\000"
 3675      315F6461 
 3675      7973496E 
 3675      4D6F6E74 
 3675      687300
 3676              	.LASF30:
 3677 0687 5254435F 		.ascii	"RTC_1_alarmCfgMaskTemp\000"
 3677      315F616C 
 3677      61726D43 
 3677      66674D61 
 3677      736B5465 
 3678              	.LASF20:
 3679 069e 4461794F 		.ascii	"DayOfYear\000"
 3679      66596561 
 3679      7200
 3680              	.LASF52:
 3681 06a8 5254435F 		.ascii	"RTC_1_WriteAlarmDayOfMonth\000"
 3681      315F5772 
 3681      69746541 
 3681      6C61726D 
 3681      4461794F 
 3682              		.ident	"GCC: (GNU Tools for ARM Embedded Processors) 5.4.1 20160609 (release) [ARM/embedded-5-bran
