ARM GAS  C:\Users\HPz420\AppData\Local\Temp\cc7eT1Rk.s 			page 1


   1              		.syntax unified
   2              		.cpu cortex-m3
   3              		.fpu softvfp
   4              		.eabi_attribute 20, 1
   5              		.eabi_attribute 21, 1
   6              		.eabi_attribute 23, 3
   7              		.eabi_attribute 24, 1
   8              		.eabi_attribute 25, 1
   9              		.eabi_attribute 26, 1
  10              		.eabi_attribute 30, 1
  11              		.eabi_attribute 34, 1
  12              		.eabi_attribute 18, 4
  13              		.thumb
  14              		.syntax unified
  15              		.file	"SDCard.c"
  16              		.text
  17              	.Ltext0:
  18              		.cfi_sections	.debug_frame
  19              		.section	.text.SPI_write_byte,"ax",%progbits
  20              		.align	2
  21              		.global	SPI_write_byte
  22              		.thumb
  23              		.thumb_func
  24              		.type	SPI_write_byte, %function
  25              	SPI_write_byte:
  26              	.LFB66:
  27              		.file 1 "SDCard.c"
   1:SDCard.c      **** /* ========================================
   2:SDCard.c      ****  *
   3:SDCard.c      ****  * Copyright LAND BOARDS, LLC, 2019
   4:SDCard.c      ****  * All Rights Reserved
   5:SDCard.c      ****  * UNPUBLISHED, LICENSED SOFTWARE.
   6:SDCard.c      ****  *
   7:SDCard.c      ****  * CONFIDENTIAL AND PROPRIETARY INFORMATION
   8:SDCard.c      ****  * WHICH IS THE PROPERTY OF Land Boards, LLC.
   9:SDCard.c      ****  *
  10:SDCard.c      ****  * ========================================
  11:SDCard.c      **** */
  12:SDCard.c      **** 
  13:SDCard.c      **** #include <project.h>
  14:SDCard.c      **** #include "stdio.h"
  15:SDCard.c      **** #include <Z80_PSoC_3Chips.h>
  16:SDCard.c      **** 
  17:SDCard.c      **** uint16 readPointer;
  18:SDCard.c      **** uint16 writePointer;
  19:SDCard.c      **** 
  20:SDCard.c      **** uint8 readSDBuffer[512];
  21:SDCard.c      **** uint8 writeSDBuffer[512];
  22:SDCard.c      **** 
  23:SDCard.c      **** ///////////////////////////////////////////////////////////////////////////////
  24:SDCard.c      **** // void SDInit(void)
  25:SDCard.c      **** // SPI mode 0 is used with SD Cards
  26:SDCard.c      **** // Helpful description of SD card initialization
  27:SDCard.c      **** //  http://www.dejazzer.com/ee379/lecture_notes/lec12_sd_card.pdf
  28:SDCard.c      **** // Helfpul description of SD cards with SPI
  29:SDCard.c      **** //  http://elm-chan.org/docs/mmc/mmc_e.html
  30:SDCard.c      **** //  MISO pull-up done at PSoC pin with Resisitive pull-up
ARM GAS  C:\Users\HPz420\AppData\Local\Temp\cc7eT1Rk.s 			page 2


  31:SDCard.c      **** // Very helpful worked four part tutorial of using SPI with SD cards on a Microprocessor
  32:SDCard.c      **** //  https://codeandlife.com/2012/04/02/simple-fat-and-sd-tutorial-part-1/
  33:SDCard.c      **** // Initialization sequence requires 74 clocks with SS high which means SS has to be
  34:SDCard.c      **** //  high for the duration (using SS override control register).
  35:SDCard.c      ****     
  36:SDCard.c      **** void SDInit(void)
  37:SDCard.c      **** {
  38:SDCard.c      ****     uint8 iter;
  39:SDCard.c      ****     // Dummy fill the read/write buffers
  40:SDCard.c      ****     // Read buffer is initialized with data = address
  41:SDCard.c      ****     // Write buffere is initialized with data = ~address
  42:SDCard.c      ****     for (uint16 loopCount=0; loopCount<512; loopCount++)
  43:SDCard.c      ****     {
  44:SDCard.c      ****         readSDBuffer[loopCount] = ~(uint8)(loopCount);
  45:SDCard.c      ****         writeSDBuffer[loopCount] = (uint8)loopCount;
  46:SDCard.c      ****     }
  47:SDCard.c      **** 
  48:SDCard.c      ****     // p 5 of http://www.dejazzer.com/ee379/lecture_notes/lec12_sd_card.pdf
  49:SDCard.c      ****     //
  50:SDCard.c      ****     // https://codeandlife.com/2012/04/25/simple-fat-and-sd-tutorial-part-3/
  51:SDCard.c      ****     // Init and go to SPI mode: ]r:10 [0x40 0x00 0x00 0x00 0x00 0x95 r:8]
  52:SDCard.c      ****     
  53:SDCard.c      ****     // Send at least 74 clocks with SS and MOSI high
  54:SDCard.c      ****     SPI_SS_Out_Write(1);                   // Force SPI_SS line high
  55:SDCard.c      ****     SPI_Master_Start();
  56:SDCard.c      ****     for (uint8 loopCount = 0; loopCount < 10; loopCount++)
  57:SDCard.c      ****     {
  58:SDCard.c      ****         // Hang around while the FIFO is full
  59:SDCard.c      ****         while ((SPI_Master_ReadTxStatus() & SPI_Master_STS_TX_FIFO_NOT_FULL) == 0);
  60:SDCard.c      ****         SPI_Master_WriteTxData(0xff);   
  61:SDCard.c      ****     }
  62:SDCard.c      ****     // Wait around for the Tx FIFO to get empty
  63:SDCard.c      ****     while((SPI_Master_ReadTxStatus() & SPI_Master_STS_TX_FIFO_EMPTY) != SPI_Master_STS_TX_FIFO_EMPT
  64:SDCard.c      ****     SPI_Master_ClearRxBuffer();
  65:SDCard.c      ****     SPI_SS_Out_Write(0);                   // Allow the SPI_Master to control the SPI_SS line
  66:SDCard.c      ****     
  67:SDCard.c      ****     // Init and go to SPI mode: ]r:10 [0x40 0x00 0x00 0x00 0x00 0x95 r:8]
  68:SDCard.c      ****     // 100 mS delay between tries
  69:SDCard.c      **** 	for(iter=0; iter<10 && SD_command(0x40, 0x00000000, 0x95, 8) != 1; iter++)
  70:SDCard.c      **** 		CyDelay(100);
  71:SDCard.c      ****     
  72:SDCard.c      ****     // Initialize card: [0x41 0x00 0x00 0x00 0x00 0xFF r:8]
  73:SDCard.c      ****     // 100 mS delay between tries
  74:SDCard.c      **** 	for(iter=0; iter<10 && SD_command(0x41, 0x00000000, 0xFF, 8) != 0; iter++)
  75:SDCard.c      **** 		CyDelay(100);
  76:SDCard.c      ****     
  77:SDCard.c      ****     // Set transfer size: [0x50 0x00 0x00 0x02 0x00 0xFF r:8]
  78:SDCard.c      ****     // 100 mS delay between tries
  79:SDCard.c      ****     SD_command(0x50, 0x00000200, 0xFF, 8);
  80:SDCard.c      ****     
  81:SDCard.c      ****     // Set the read and write pointers to the start of the buffers at the start
  82:SDCard.c      ****     readPointer = 0;
  83:SDCard.c      ****     writePointer = 0;
  84:SDCard.c      ****     
  85:SDCard.c      ****     // Initialize the Z80 SD card interface
  86:SDCard.c      ****     // CP/M expects the SD_Status to be 0x80 when the card has been initialized
  87:SDCard.c      ****     SD_DataOut = 0x0;
ARM GAS  C:\Users\HPz420\AppData\Local\Temp\cc7eT1Rk.s 			page 3


  88:SDCard.c      ****     SD_DataIn = 0x0;
  89:SDCard.c      ****     SD_Command = 0x0;
  90:SDCard.c      ****     SD_LBA0_Val = 0x0;
  91:SDCard.c      ****     SD_LBA1_Val = 0x0;
  92:SDCard.c      ****     SD_LBA2_Val = 0x0;
  93:SDCard.c      ****     SD_LBA3_Val = 0x0;
  94:SDCard.c      ****     SD_Status = 0x80;   // Set to SD card ready  
  95:SDCard.c      **** }
  96:SDCard.c      **** 
  97:SDCard.c      **** ///////////////////////////////////////////////////////////////////////////////
  98:SDCard.c      **** // void SD_command(uint8 cmd, uint32 arg, uint8 crc, uint8 timeOutCount)
  99:SDCard.c      **** 
 100:SDCard.c      **** uint8 SD_command(uint8 cmd, uint32 arg, uint8 crc, uint8 timeOutCount)
 101:SDCard.c      **** {
 102:SDCard.c      ****     uint8 readChar;
 103:SDCard.c      ****     uint8 gotDone=0xFF;
 104:SDCard.c      ****     
 105:SDCard.c      **** 	SPI_write_byte(cmd);
 106:SDCard.c      **** 	SPI_write_byte(arg>>24);
 107:SDCard.c      **** 	SPI_write_byte(arg>>16);
 108:SDCard.c      **** 	SPI_write_byte(arg>>8);
 109:SDCard.c      **** 	SPI_write_byte(arg);
 110:SDCard.c      **** 	SPI_write_byte(crc);
 111:SDCard.c      ****     // Wait around for the Tx FIFO to get empty
 112:SDCard.c      ****     while((SPI_Master_ReadTxStatus() & SPI_Master_STS_TX_FIFO_EMPTY) != SPI_Master_STS_TX_FIFO_EMPT
 113:SDCard.c      ****     CyDelayUs(20);
 114:SDCard.c      **** 	for(uint8 i=0; i<timeOutCount; i++)
 115:SDCard.c      ****     {
 116:SDCard.c      ****     	SPI_write_byte(0xFF);
 117:SDCard.c      ****         // Wait around for a receive character
 118:SDCard.c      ****         while ((SPI_Master_ReadRxStatus() & SPI_Master_STS_RX_FIFO_NOT_EMPTY) != SPI_Master_STS_RX_
 119:SDCard.c      **** 		readChar = SPI_Master_ReadRxData();
 120:SDCard.c      ****         if (readChar != 0xFF)
 121:SDCard.c      ****             gotDone = readChar;
 122:SDCard.c      ****     }
 123:SDCard.c      ****     return(gotDone);
 124:SDCard.c      **** }
 125:SDCard.c      **** 
 126:SDCard.c      **** ///////////////////////////////////////////////////////////////////////////////
 127:SDCard.c      **** // void SPI_write_byte(uint8 charToWrite) - Write a byte to the SPI bus
 128:SDCard.c      **** // Waits until the transmit FIFO is not full before writing
 129:SDCard.c      **** 
 130:SDCard.c      **** void SPI_write_byte(uint8 charToWrite)
 131:SDCard.c      **** {
  28              		.loc 1 131 0
  29              		.cfi_startproc
  30              		@ args = 0, pretend = 0, frame = 0
  31              		@ frame_needed = 0, uses_anonymous_args = 0
  32              	.LVL0:
  33 0000 10B5     		push	{r4, lr}
  34              		.cfi_def_cfa_offset 8
  35              		.cfi_offset 4, -8
  36              		.cfi_offset 14, -4
  37 0002 0446     		mov	r4, r0
  38              	.LVL1:
  39              	.L2:
 132:SDCard.c      ****     // Wait until the FIFO is not full (should not be a this point)
ARM GAS  C:\Users\HPz420\AppData\Local\Temp\cc7eT1Rk.s 			page 4


 133:SDCard.c      ****     while ((SPI_Master_ReadTxStatus() & SPI_Master_STS_TX_FIFO_NOT_FULL) != SPI_Master_STS_TX_FIFO_
  40              		.loc 1 133 0 discriminator 1
  41 0004 FFF7FEFF 		bl	SPI_Master_ReadTxStatus
  42              	.LVL2:
  43 0008 10F0040F 		tst	r0, #4
  44 000c FAD0     		beq	.L2
 134:SDCard.c      ****     SPI_Master_WriteTxData(charToWrite);
  45              		.loc 1 134 0
  46 000e 2046     		mov	r0, r4
  47 0010 FFF7FEFF 		bl	SPI_Master_WriteTxData
  48              	.LVL3:
  49 0014 10BD     		pop	{r4, pc}
  50              		.cfi_endproc
  51              	.LFE66:
  52              		.size	SPI_write_byte, .-SPI_write_byte
  53 0016 00BF     		.section	.text.SD_command,"ax",%progbits
  54              		.align	2
  55              		.global	SD_command
  56              		.thumb
  57              		.thumb_func
  58              		.type	SD_command, %function
  59              	SD_command:
  60              	.LFB65:
 101:SDCard.c      ****     uint8 readChar;
  61              		.loc 1 101 0
  62              		.cfi_startproc
  63              		@ args = 0, pretend = 0, frame = 0
  64              		@ frame_needed = 0, uses_anonymous_args = 0
  65              	.LVL4:
  66 0000 70B5     		push	{r4, r5, r6, lr}
  67              		.cfi_def_cfa_offset 16
  68              		.cfi_offset 4, -16
  69              		.cfi_offset 5, -12
  70              		.cfi_offset 6, -8
  71              		.cfi_offset 14, -4
  72 0002 0C46     		mov	r4, r1
  73 0004 1546     		mov	r5, r2
  74 0006 1E46     		mov	r6, r3
  75              	.LVL5:
 105:SDCard.c      **** 	SPI_write_byte(arg>>24);
  76              		.loc 1 105 0
  77 0008 FFF7FEFF 		bl	SPI_write_byte
  78              	.LVL6:
 106:SDCard.c      **** 	SPI_write_byte(arg>>16);
  79              		.loc 1 106 0
  80 000c 200E     		lsrs	r0, r4, #24
  81 000e FFF7FEFF 		bl	SPI_write_byte
  82              	.LVL7:
 107:SDCard.c      **** 	SPI_write_byte(arg>>8);
  83              		.loc 1 107 0
  84 0012 C4F30740 		ubfx	r0, r4, #16, #8
  85 0016 FFF7FEFF 		bl	SPI_write_byte
  86              	.LVL8:
 108:SDCard.c      **** 	SPI_write_byte(arg);
  87              		.loc 1 108 0
  88 001a C4F30720 		ubfx	r0, r4, #8, #8
  89 001e FFF7FEFF 		bl	SPI_write_byte
ARM GAS  C:\Users\HPz420\AppData\Local\Temp\cc7eT1Rk.s 			page 5


  90              	.LVL9:
 109:SDCard.c      **** 	SPI_write_byte(crc);
  91              		.loc 1 109 0
  92 0022 E0B2     		uxtb	r0, r4
  93 0024 FFF7FEFF 		bl	SPI_write_byte
  94              	.LVL10:
 110:SDCard.c      ****     // Wait around for the Tx FIFO to get empty
  95              		.loc 1 110 0
  96 0028 2846     		mov	r0, r5
  97 002a FFF7FEFF 		bl	SPI_write_byte
  98              	.LVL11:
  99              	.L5:
 112:SDCard.c      ****     CyDelayUs(20);
 100              		.loc 1 112 0 discriminator 1
 101 002e FFF7FEFF 		bl	SPI_Master_ReadTxStatus
 102              	.LVL12:
 103 0032 10F0020F 		tst	r0, #2
 104 0036 FAD0     		beq	.L5
 113:SDCard.c      **** 	for(uint8 i=0; i<timeOutCount; i++)
 105              		.loc 1 113 0
 106 0038 1420     		movs	r0, #20
 107 003a FFF7FEFF 		bl	CyDelayUs
 108              	.LVL13:
 109              	.LBB2:
 114:SDCard.c      ****     {
 110              		.loc 1 114 0
 111 003e 0024     		movs	r4, #0
 112              	.LVL14:
 113              	.LBE2:
 103:SDCard.c      ****     
 114              		.loc 1 103 0
 115 0040 FF25     		movs	r5, #255
 116              	.LBB3:
 114:SDCard.c      ****     {
 117              		.loc 1 114 0
 118 0042 0FE0     		b	.L6
 119              	.LVL15:
 120              	.L9:
 116:SDCard.c      ****         // Wait around for a receive character
 121              		.loc 1 116 0
 122 0044 FF20     		movs	r0, #255
 123 0046 FFF7FEFF 		bl	SPI_write_byte
 124              	.LVL16:
 125              	.L7:
 118:SDCard.c      **** 		readChar = SPI_Master_ReadRxData();
 126              		.loc 1 118 0 discriminator 1
 127 004a FFF7FEFF 		bl	SPI_Master_ReadRxStatus
 128              	.LVL17:
 129 004e 10F0200F 		tst	r0, #32
 130 0052 FAD0     		beq	.L7
 119:SDCard.c      ****         if (readChar != 0xFF)
 131              		.loc 1 119 0
 132 0054 FFF7FEFF 		bl	SPI_Master_ReadRxData
 133              	.LVL18:
 120:SDCard.c      ****             gotDone = readChar;
 134              		.loc 1 120 0
 135 0058 FF28     		cmp	r0, #255
ARM GAS  C:\Users\HPz420\AppData\Local\Temp\cc7eT1Rk.s 			page 6


 136 005a 00D1     		bne	.L8
 137 005c 2846     		mov	r0, r5
 138              	.LVL19:
 139              	.L8:
 114:SDCard.c      ****     {
 140              		.loc 1 114 0 discriminator 2
 141 005e 0134     		adds	r4, r4, #1
 142              	.LVL20:
 143 0060 E4B2     		uxtb	r4, r4
 144              	.LVL21:
 145 0062 0546     		mov	r5, r0
 146              	.LVL22:
 147              	.L6:
 114:SDCard.c      ****     {
 148              		.loc 1 114 0 is_stmt 0 discriminator 1
 149 0064 B442     		cmp	r4, r6
 150 0066 EDD3     		bcc	.L9
 151              	.LBE3:
 124:SDCard.c      **** 
 152              		.loc 1 124 0 is_stmt 1
 153 0068 2846     		mov	r0, r5
 154 006a 70BD     		pop	{r4, r5, r6, pc}
 155              		.cfi_endproc
 156              	.LFE65:
 157              		.size	SD_command, .-SD_command
 158              		.section	.text.SDInit,"ax",%progbits
 159              		.align	2
 160              		.global	SDInit
 161              		.thumb
 162              		.thumb_func
 163              		.type	SDInit, %function
 164              	SDInit:
 165              	.LFB64:
  37:SDCard.c      ****     uint8 iter;
 166              		.loc 1 37 0
 167              		.cfi_startproc
 168              		@ args = 0, pretend = 0, frame = 0
 169              		@ frame_needed = 0, uses_anonymous_args = 0
 170              	.LVL23:
 171              	.LBB4:
  42:SDCard.c      ****     {
 172              		.loc 1 42 0
 173 0000 0023     		movs	r3, #0
 174 0002 07E0     		b	.L12
 175              	.LVL24:
 176              	.L13:
  44:SDCard.c      ****         writeSDBuffer[loopCount] = (uint8)loopCount;
 177              		.loc 1 44 0 discriminator 3
 178 0004 DAB2     		uxtb	r2, r3
 179 0006 D043     		mvns	r0, r2
 180 0008 3349     		ldr	r1, .L24
 181 000a C854     		strb	r0, [r1, r3]
  45:SDCard.c      ****     }
 182              		.loc 1 45 0 discriminator 3
 183 000c 3349     		ldr	r1, .L24+4
 184 000e CA54     		strb	r2, [r1, r3]
  42:SDCard.c      ****     {
ARM GAS  C:\Users\HPz420\AppData\Local\Temp\cc7eT1Rk.s 			page 7


 185              		.loc 1 42 0 discriminator 3
 186 0010 0133     		adds	r3, r3, #1
 187              	.LVL25:
 188 0012 9BB2     		uxth	r3, r3
 189              	.LVL26:
 190              	.L12:
  42:SDCard.c      ****     {
 191              		.loc 1 42 0 is_stmt 0 discriminator 1
 192 0014 B3F5007F 		cmp	r3, #512
 193 0018 F4D3     		bcc	.L13
 194              	.LBE4:
  37:SDCard.c      ****     uint8 iter;
 195              		.loc 1 37 0 is_stmt 1
 196 001a 10B5     		push	{r4, lr}
 197              		.cfi_def_cfa_offset 8
 198              		.cfi_offset 4, -8
 199              		.cfi_offset 14, -4
  54:SDCard.c      ****     SPI_Master_Start();
 200              		.loc 1 54 0
 201 001c 0120     		movs	r0, #1
 202 001e FFF7FEFF 		bl	SPI_SS_Out_Write
 203              	.LVL27:
  55:SDCard.c      ****     for (uint8 loopCount = 0; loopCount < 10; loopCount++)
 204              		.loc 1 55 0
 205 0022 FFF7FEFF 		bl	SPI_Master_Start
 206              	.LVL28:
 207              	.LBB5:
  56:SDCard.c      ****     {
 208              		.loc 1 56 0
 209 0026 0024     		movs	r4, #0
 210 0028 09E0     		b	.L14
 211              	.LVL29:
 212              	.L15:
  59:SDCard.c      ****         SPI_Master_WriteTxData(0xff);   
 213              		.loc 1 59 0 discriminator 1
 214 002a FFF7FEFF 		bl	SPI_Master_ReadTxStatus
 215              	.LVL30:
 216 002e 10F0040F 		tst	r0, #4
 217 0032 FAD0     		beq	.L15
  60:SDCard.c      ****     }
 218              		.loc 1 60 0 discriminator 2
 219 0034 FF20     		movs	r0, #255
 220 0036 FFF7FEFF 		bl	SPI_Master_WriteTxData
 221              	.LVL31:
  56:SDCard.c      ****     {
 222              		.loc 1 56 0 discriminator 2
 223 003a 0134     		adds	r4, r4, #1
 224              	.LVL32:
 225 003c E4B2     		uxtb	r4, r4
 226              	.LVL33:
 227              	.L14:
  56:SDCard.c      ****     {
 228              		.loc 1 56 0 is_stmt 0 discriminator 1
 229 003e 092C     		cmp	r4, #9
 230 0040 F3D9     		bls	.L15
 231              	.L16:
 232              	.LBE5:
ARM GAS  C:\Users\HPz420\AppData\Local\Temp\cc7eT1Rk.s 			page 8


  63:SDCard.c      ****     SPI_Master_ClearRxBuffer();
 233              		.loc 1 63 0 is_stmt 1 discriminator 1
 234 0042 FFF7FEFF 		bl	SPI_Master_ReadTxStatus
 235              	.LVL34:
 236 0046 10F0020F 		tst	r0, #2
 237 004a FAD0     		beq	.L16
  64:SDCard.c      ****     SPI_SS_Out_Write(0);                   // Allow the SPI_Master to control the SPI_SS line
 238              		.loc 1 64 0
 239 004c FFF7FEFF 		bl	SPI_Master_ClearRxBuffer
 240              	.LVL35:
  65:SDCard.c      ****     
 241              		.loc 1 65 0
 242 0050 0020     		movs	r0, #0
 243 0052 FFF7FEFF 		bl	SPI_SS_Out_Write
 244              	.LVL36:
  69:SDCard.c      **** 		CyDelay(100);
 245              		.loc 1 69 0
 246 0056 0024     		movs	r4, #0
 247              	.LVL37:
 248 0058 04E0     		b	.L17
 249              	.LVL38:
 250              	.L19:
  70:SDCard.c      ****     
 251              		.loc 1 70 0 discriminator 4
 252 005a 6420     		movs	r0, #100
 253 005c FFF7FEFF 		bl	CyDelay
 254              	.LVL39:
  69:SDCard.c      **** 		CyDelay(100);
 255              		.loc 1 69 0 discriminator 4
 256 0060 0134     		adds	r4, r4, #1
 257              	.LVL40:
 258 0062 E4B2     		uxtb	r4, r4
 259              	.LVL41:
 260              	.L17:
  69:SDCard.c      **** 		CyDelay(100);
 261              		.loc 1 69 0 is_stmt 0 discriminator 1
 262 0064 092C     		cmp	r4, #9
 263 0066 07D8     		bhi	.L18
  69:SDCard.c      **** 		CyDelay(100);
 264              		.loc 1 69 0 discriminator 3
 265 0068 0823     		movs	r3, #8
 266 006a 9522     		movs	r2, #149
 267 006c 0021     		movs	r1, #0
 268 006e 4020     		movs	r0, #64
 269 0070 FFF7FEFF 		bl	SD_command
 270              	.LVL42:
 271 0074 0128     		cmp	r0, #1
 272 0076 F0D1     		bne	.L19
 273              	.L18:
  69:SDCard.c      **** 		CyDelay(100);
 274              		.loc 1 69 0 discriminator 1
 275 0078 0024     		movs	r4, #0
 276              	.LVL43:
 277 007a 04E0     		b	.L20
 278              	.LVL44:
 279              	.L22:
  75:SDCard.c      ****     
ARM GAS  C:\Users\HPz420\AppData\Local\Temp\cc7eT1Rk.s 			page 9


 280              		.loc 1 75 0 is_stmt 1 discriminator 4
 281 007c 6420     		movs	r0, #100
 282 007e FFF7FEFF 		bl	CyDelay
 283              	.LVL45:
  74:SDCard.c      **** 		CyDelay(100);
 284              		.loc 1 74 0 discriminator 4
 285 0082 0134     		adds	r4, r4, #1
 286              	.LVL46:
 287 0084 E4B2     		uxtb	r4, r4
 288              	.LVL47:
 289              	.L20:
  74:SDCard.c      **** 		CyDelay(100);
 290              		.loc 1 74 0 is_stmt 0 discriminator 1
 291 0086 092C     		cmp	r4, #9
 292 0088 07D8     		bhi	.L21
  74:SDCard.c      **** 		CyDelay(100);
 293              		.loc 1 74 0 discriminator 3
 294 008a 0823     		movs	r3, #8
 295 008c FF22     		movs	r2, #255
 296 008e 0021     		movs	r1, #0
 297 0090 4120     		movs	r0, #65
 298 0092 FFF7FEFF 		bl	SD_command
 299              	.LVL48:
 300 0096 0028     		cmp	r0, #0
 301 0098 F0D1     		bne	.L22
 302              	.L21:
  79:SDCard.c      ****     
 303              		.loc 1 79 0 is_stmt 1
 304 009a 0823     		movs	r3, #8
 305 009c FF22     		movs	r2, #255
 306 009e 4FF40071 		mov	r1, #512
 307 00a2 5020     		movs	r0, #80
 308 00a4 FFF7FEFF 		bl	SD_command
 309              	.LVL49:
  82:SDCard.c      ****     writePointer = 0;
 310              		.loc 1 82 0
 311 00a8 0023     		movs	r3, #0
 312 00aa 0D4A     		ldr	r2, .L24+8
 313 00ac 1380     		strh	r3, [r2]	@ movhi
  83:SDCard.c      ****     
 314              		.loc 1 83 0
 315 00ae 0D4A     		ldr	r2, .L24+12
 316 00b0 1380     		strh	r3, [r2]	@ movhi
  87:SDCard.c      ****     SD_DataIn = 0x0;
 317              		.loc 1 87 0
 318 00b2 0D4A     		ldr	r2, .L24+16
 319 00b4 1370     		strb	r3, [r2]
  88:SDCard.c      ****     SD_Command = 0x0;
 320              		.loc 1 88 0
 321 00b6 0D4A     		ldr	r2, .L24+20
 322 00b8 1370     		strb	r3, [r2]
  89:SDCard.c      ****     SD_LBA0_Val = 0x0;
 323              		.loc 1 89 0
 324 00ba 0D4A     		ldr	r2, .L24+24
 325 00bc 1370     		strb	r3, [r2]
  90:SDCard.c      ****     SD_LBA1_Val = 0x0;
 326              		.loc 1 90 0
ARM GAS  C:\Users\HPz420\AppData\Local\Temp\cc7eT1Rk.s 			page 10


 327 00be 0D4A     		ldr	r2, .L24+28
 328 00c0 1370     		strb	r3, [r2]
  91:SDCard.c      ****     SD_LBA2_Val = 0x0;
 329              		.loc 1 91 0
 330 00c2 0D4A     		ldr	r2, .L24+32
 331 00c4 1370     		strb	r3, [r2]
  92:SDCard.c      ****     SD_LBA3_Val = 0x0;
 332              		.loc 1 92 0
 333 00c6 0D4A     		ldr	r2, .L24+36
 334 00c8 1370     		strb	r3, [r2]
  93:SDCard.c      ****     SD_Status = 0x80;   // Set to SD card ready  
 335              		.loc 1 93 0
 336 00ca 0D4A     		ldr	r2, .L24+40
 337 00cc 1370     		strb	r3, [r2]
  94:SDCard.c      **** }
 338              		.loc 1 94 0
 339 00ce 8022     		movs	r2, #128
 340 00d0 0C4B     		ldr	r3, .L24+44
 341 00d2 1A70     		strb	r2, [r3]
 342 00d4 10BD     		pop	{r4, pc}
 343              	.LVL50:
 344              	.L25:
 345 00d6 00BF     		.align	2
 346              	.L24:
 347 00d8 00000000 		.word	readSDBuffer
 348 00dc 00000000 		.word	writeSDBuffer
 349 00e0 00000000 		.word	readPointer
 350 00e4 00000000 		.word	writePointer
 351 00e8 00000000 		.word	SD_DataOut
 352 00ec 00000000 		.word	SD_DataIn
 353 00f0 00000000 		.word	SD_Command
 354 00f4 00000000 		.word	SD_LBA0_Val
 355 00f8 00000000 		.word	SD_LBA1_Val
 356 00fc 00000000 		.word	SD_LBA2_Val
 357 0100 00000000 		.word	SD_LBA3_Val
 358 0104 00000000 		.word	SD_Status
 359              		.cfi_endproc
 360              	.LFE64:
 361              		.size	SDInit, .-SDInit
 362              		.section	.text.dumpBuffer,"ax",%progbits
 363              		.align	2
 364              		.global	dumpBuffer
 365              		.thumb
 366              		.thumb_func
 367              		.type	dumpBuffer, %function
 368              	dumpBuffer:
 369              	.LFB67:
 135:SDCard.c      ****     return;
 136:SDCard.c      **** }
 137:SDCard.c      **** 
 138:SDCard.c      **** ///////////////////////////////////////////////////////////////////////////////
 139:SDCard.c      **** // dumpBuffer(uint8 *) - Dump a 512-byte buffer to the screen
 140:SDCard.c      **** 
 141:SDCard.c      **** void dumpBuffer(uint8 * dumpBuffer)
 142:SDCard.c      **** {
 370              		.loc 1 142 0
 371              		.cfi_startproc
ARM GAS  C:\Users\HPz420\AppData\Local\Temp\cc7eT1Rk.s 			page 11


 372              		@ args = 0, pretend = 0, frame = 80
 373              		@ frame_needed = 0, uses_anonymous_args = 0
 374              	.LVL51:
 375 0000 F0B5     		push	{r4, r5, r6, r7, lr}
 376              		.cfi_def_cfa_offset 20
 377              		.cfi_offset 4, -20
 378              		.cfi_offset 5, -16
 379              		.cfi_offset 6, -12
 380              		.cfi_offset 7, -8
 381              		.cfi_offset 14, -4
 382 0002 95B0     		sub	sp, sp, #84
 383              		.cfi_def_cfa_offset 104
 384 0004 0646     		mov	r6, r0
 143:SDCard.c      ****     char lineBuffer[8];
 144:SDCard.c      ****     lineBuffer[0] = 0;
 385              		.loc 1 144 0
 386 0006 0027     		movs	r7, #0
 387 0008 8DF84870 		strb	r7, [sp, #72]
 388              	.LVL52:
 145:SDCard.c      ****     uint16 linesLoop = 0;
 146:SDCard.c      ****     uint16 charsLoop = 0;
 147:SDCard.c      ****     for (linesLoop = 0; linesLoop < 32; linesLoop++)
 389              		.loc 1 147 0
 390 000c 53E0     		b	.L27
 391              	.LVL53:
 392              	.L34:
 393              	.LBB6:
 148:SDCard.c      ****     {
 149:SDCard.c      ****         char lineString[65];    // The whole line buffered up
 150:SDCard.c      ****         lineString[0] = 0;
 394              		.loc 1 150 0
 395 000e 0024     		movs	r4, #0
 396 0010 14A8     		add	r0, sp, #80
 397 0012 00F84C4D 		strb	r4, [r0, #-76]!
 151:SDCard.c      ****         sprintf(lineString,"%04x ",linesLoop<<4);
 398              		.loc 1 151 0
 399 0016 3D01     		lsls	r5, r7, #4
 400 0018 2A46     		mov	r2, r5
 401 001a 2949     		ldr	r1, .L36
 402 001c FFF7FEFF 		bl	sprintf
 403              	.LVL54:
 152:SDCard.c      ****         for (charsLoop = 0; charsLoop < 16; charsLoop++)
 404              		.loc 1 152 0
 405 0020 0BE0     		b	.L28
 406              	.LVL55:
 407              	.L29:
 153:SDCard.c      ****         {
 154:SDCard.c      ****             sprintf(lineBuffer, " %02x",dumpBuffer[(linesLoop<<4)+charsLoop]);
 408              		.loc 1 154 0 discriminator 3
 409 0022 6319     		adds	r3, r4, r5
 410 0024 F25C     		ldrb	r2, [r6, r3]	@ zero_extendqisi2
 411 0026 2749     		ldr	r1, .L36+4
 412 0028 12A8     		add	r0, sp, #72
 413 002a FFF7FEFF 		bl	sprintf
 414              	.LVL56:
 155:SDCard.c      ****             strcat(lineString, lineBuffer);
 415              		.loc 1 155 0 discriminator 3
ARM GAS  C:\Users\HPz420\AppData\Local\Temp\cc7eT1Rk.s 			page 12


 416 002e 12A9     		add	r1, sp, #72
 417 0030 01A8     		add	r0, sp, #4
 418 0032 FFF7FEFF 		bl	strcat
 419              	.LVL57:
 152:SDCard.c      ****         for (charsLoop = 0; charsLoop < 16; charsLoop++)
 420              		.loc 1 152 0 discriminator 3
 421 0036 0134     		adds	r4, r4, #1
 422              	.LVL58:
 423 0038 A4B2     		uxth	r4, r4
 424              	.LVL59:
 425              	.L28:
 152:SDCard.c      ****         for (charsLoop = 0; charsLoop < 16; charsLoop++)
 426              		.loc 1 152 0 is_stmt 0 discriminator 1
 427 003a 0F2C     		cmp	r4, #15
 428 003c F1D9     		bls	.L29
 156:SDCard.c      ****         }
 157:SDCard.c      ****         strcat(lineString, "  ");
 429              		.loc 1 157 0 is_stmt 1
 430 003e 01AC     		add	r4, sp, #4
 431              	.LVL60:
 432 0040 2046     		mov	r0, r4
 433 0042 FFF7FEFF 		bl	strlen
 434              	.LVL61:
 435 0046 2218     		adds	r2, r4, r0
 436 0048 1F4B     		ldr	r3, .L36+8
 437 004a 1988     		ldrh	r1, [r3]	@ unaligned
 438 004c 9B78     		ldrb	r3, [r3, #2]	@ zero_extendqisi2
 439 004e 2152     		strh	r1, [r4, r0]	@ unaligned
 440 0050 9370     		strb	r3, [r2, #2]
 158:SDCard.c      ****         putStringToUSB(lineString);
 441              		.loc 1 158 0
 442 0052 2046     		mov	r0, r4
 443 0054 FFF7FEFF 		bl	putStringToUSB
 444              	.LVL62:
 159:SDCard.c      ****         lineString[0] = 0;
 445              		.loc 1 159 0
 446 0058 0023     		movs	r3, #0
 447 005a 8DF80430 		strb	r3, [sp, #4]
 448              	.LVL63:
 449              	.LBB7:
 160:SDCard.c      ****         // Form a character string for the 
 161:SDCard.c      ****         for (uint16 charCol = 0; charCol < 16; charCol++)
 450              		.loc 1 161 0
 451 005e 19E0     		b	.L30
 452              	.LVL64:
 453              	.L33:
 162:SDCard.c      ****         {
 163:SDCard.c      ****             // print if the char is printable
 164:SDCard.c      ****             if ((dumpBuffer[(linesLoop<<4)+charCol] >= 0x21) && (dumpBuffer[(linesLoop<<4)+charCol]
 454              		.loc 1 164 0
 455 0060 1A46     		mov	r2, r3
 456 0062 E918     		adds	r1, r5, r3
 457 0064 705C     		ldrb	r0, [r6, r1]	@ zero_extendqisi2
 458 0066 A0F12101 		sub	r1, r0, #33
 459 006a C9B2     		uxtb	r1, r1
 460 006c 5D29     		cmp	r1, #93
 461 006e 04D8     		bhi	.L31
ARM GAS  C:\Users\HPz420\AppData\Local\Temp\cc7eT1Rk.s 			page 13


 165:SDCard.c      ****             {
 166:SDCard.c      ****                 lineString[charCol] = dumpBuffer[(linesLoop<<4)+charCol];
 462              		.loc 1 166 0
 463 0070 14A9     		add	r1, sp, #80
 464 0072 1944     		add	r1, r1, r3
 465 0074 01F84C0C 		strb	r0, [r1, #-76]
 466 0078 04E0     		b	.L32
 467              	.L31:
 167:SDCard.c      ****             }
 168:SDCard.c      ****             else
 169:SDCard.c      ****             {
 170:SDCard.c      ****                 lineString[charCol] = '.';
 468              		.loc 1 170 0
 469 007a 2E20     		movs	r0, #46
 470 007c 14A9     		add	r1, sp, #80
 471 007e 1944     		add	r1, r1, r3
 472 0080 01F84C0C 		strb	r0, [r1, #-76]
 473              	.L32:
 171:SDCard.c      ****             }
 172:SDCard.c      ****             lineString[charCol+1] = 0;
 474              		.loc 1 172 0 discriminator 2
 475 0084 0132     		adds	r2, r2, #1
 476 0086 14A9     		add	r1, sp, #80
 477 0088 0A44     		add	r2, r2, r1
 478 008a 0021     		movs	r1, #0
 479 008c 02F84C1C 		strb	r1, [r2, #-76]
 161:SDCard.c      ****         {
 480              		.loc 1 161 0 discriminator 2
 481 0090 0133     		adds	r3, r3, #1
 482              	.LVL65:
 483 0092 9BB2     		uxth	r3, r3
 484              	.LVL66:
 485              	.L30:
 161:SDCard.c      ****         {
 486              		.loc 1 161 0 is_stmt 0 discriminator 1
 487 0094 0F2B     		cmp	r3, #15
 488 0096 E3D9     		bls	.L33
 489              	.LBE7:
 173:SDCard.c      ****         }
 174:SDCard.c      ****         strcat(lineString, "\n\r");
 490              		.loc 1 174 0 is_stmt 1 discriminator 2
 491 0098 01AC     		add	r4, sp, #4
 492 009a 2046     		mov	r0, r4
 493 009c FFF7FEFF 		bl	strlen
 494              	.LVL67:
 495 00a0 2218     		adds	r2, r4, r0
 496 00a2 0A4B     		ldr	r3, .L36+12
 497 00a4 1988     		ldrh	r1, [r3]	@ unaligned
 498 00a6 9B78     		ldrb	r3, [r3, #2]	@ zero_extendqisi2
 499 00a8 2152     		strh	r1, [r4, r0]	@ unaligned
 500 00aa 9370     		strb	r3, [r2, #2]
 175:SDCard.c      ****         putStringToUSB(lineString);
 501              		.loc 1 175 0 discriminator 2
 502 00ac 2046     		mov	r0, r4
 503 00ae FFF7FEFF 		bl	putStringToUSB
 504              	.LVL68:
 505              	.LBE6:
ARM GAS  C:\Users\HPz420\AppData\Local\Temp\cc7eT1Rk.s 			page 14


 147:SDCard.c      ****     {
 506              		.loc 1 147 0 discriminator 2
 507 00b2 0137     		adds	r7, r7, #1
 508              	.LVL69:
 509 00b4 BFB2     		uxth	r7, r7
 510              	.LVL70:
 511              	.L27:
 147:SDCard.c      ****     {
 512              		.loc 1 147 0 is_stmt 0 discriminator 1
 513 00b6 1F2F     		cmp	r7, #31
 514 00b8 A9D9     		bls	.L34
 176:SDCard.c      ****     }
 177:SDCard.c      ****     return;
 178:SDCard.c      **** }
 515              		.loc 1 178 0 is_stmt 1
 516 00ba 15B0     		add	sp, sp, #84
 517              		.cfi_def_cfa_offset 20
 518              		@ sp needed
 519 00bc F0BD     		pop	{r4, r5, r6, r7, pc}
 520              	.LVL71:
 521              	.L37:
 522 00be 00BF     		.align	2
 523              	.L36:
 524 00c0 00000000 		.word	.LC0
 525 00c4 08000000 		.word	.LC1
 526 00c8 10000000 		.word	.LC2
 527 00cc 14000000 		.word	.LC3
 528              		.cfi_endproc
 529              	.LFE67:
 530              		.size	dumpBuffer, .-dumpBuffer
 531              		.section	.text.SD_ReadSector,"ax",%progbits
 532              		.align	2
 533              		.global	SD_ReadSector
 534              		.thumb
 535              		.thumb_func
 536              		.type	SD_ReadSector, %function
 537              	SD_ReadSector:
 538              	.LFB70:
 179:SDCard.c      **** 
 180:SDCard.c      **** ///////////////////////////////////////////////////////////////////////////////
 181:SDCard.c      **** // void readSDCard(uint32 sectorNumber) - Read a sector of the SD card into 
 182:SDCard.c      **** // the readSDBuffer
 183:SDCard.c      **** 
 184:SDCard.c      **** void readSDCard(uint32 sectorNumber)
 185:SDCard.c      **** {
 186:SDCard.c      ****     SD_ReadSector(sectorNumber, readSDBuffer);
 187:SDCard.c      ****     dumpBuffer(readSDBuffer);
 188:SDCard.c      ****     return;
 189:SDCard.c      **** }
 190:SDCard.c      **** 
 191:SDCard.c      **** ///////////////////////////////////////////////////////////////////////////////
 192:SDCard.c      **** // void writeSDCard(uint32 sectorNumber) - Write a sector of the SD card from 
 193:SDCard.c      **** // the writeSDBuffer.
 194:SDCard.c      **** // Read the sector back and dump it to the serial port.
 195:SDCard.c      **** 
 196:SDCard.c      **** void writeSDCard(uint32 sectorNumber)
 197:SDCard.c      **** {
ARM GAS  C:\Users\HPz420\AppData\Local\Temp\cc7eT1Rk.s 			page 15


 198:SDCard.c      ****     uint8 retVal;
 199:SDCard.c      ****     char lineBuffer[8];
 200:SDCard.c      ****     retVal = SD_WriteSector(sectorNumber, writeSDBuffer);
 201:SDCard.c      ****     if (retVal != 0)
 202:SDCard.c      ****     {
 203:SDCard.c      ****         putStringToUSB("Error writing to the SD Card\n\rError - ");
 204:SDCard.c      ****         sprintf(lineBuffer,"%02x\n\r",retVal);
 205:SDCard.c      ****         putStringToUSB(lineBuffer);
 206:SDCard.c      ****         return;
 207:SDCard.c      ****     }
 208:SDCard.c      ****     return;
 209:SDCard.c      **** }
 210:SDCard.c      **** 
 211:SDCard.c      **** ///////////////////////////////////////////////////////////////////////////////
 212:SDCard.c      **** // void SD_ReadSector(uint32 sector, uint8 * buffPtr)
 213:SDCard.c      **** 
 214:SDCard.c      **** void SD_ReadSector(uint32 sector, uint8 * buffPtr)
 215:SDCard.c      **** {
 539              		.loc 1 215 0
 540              		.cfi_startproc
 541              		@ args = 0, pretend = 0, frame = 8
 542              		@ frame_needed = 0, uses_anonymous_args = 0
 543              	.LVL72:
 544 0000 30B5     		push	{r4, r5, lr}
 545              		.cfi_def_cfa_offset 12
 546              		.cfi_offset 4, -12
 547              		.cfi_offset 5, -8
 548              		.cfi_offset 14, -4
 549 0002 83B0     		sub	sp, sp, #12
 550              		.cfi_def_cfa_offset 24
 551 0004 0446     		mov	r4, r0
 552 0006 0D46     		mov	r5, r1
 553              	.LVL73:
 216:SDCard.c      ****     uint16 loopCount = 0;
 217:SDCard.c      ****     volatile uint8 junk;
 218:SDCard.c      ****     SPI_SS_Out_Write(0);
 554              		.loc 1 218 0
 555 0008 0020     		movs	r0, #0
 556              	.LVL74:
 557 000a FFF7FEFF 		bl	SPI_SS_Out_Write
 558              	.LVL75:
 219:SDCard.c      **** 	SPI_write_byte(CMD17);
 559              		.loc 1 219 0
 560 000e 5120     		movs	r0, #81
 561 0010 FFF7FEFF 		bl	SPI_write_byte
 562              	.LVL76:
 220:SDCard.c      **** 	SPI_write_byte(sector>>15); // >>24 + <<9 = >>15
 563              		.loc 1 220 0
 564 0014 C4F3C730 		ubfx	r0, r4, #15, #8
 565 0018 FFF7FEFF 		bl	SPI_write_byte
 566              	.LVL77:
 221:SDCard.c      **** 	SPI_write_byte(sector>>7);  // >>16 + <<9 = >>7
 567              		.loc 1 221 0
 568 001c C4F3C710 		ubfx	r0, r4, #7, #8
 569 0020 FFF7FEFF 		bl	SPI_write_byte
 570              	.LVL78:
 222:SDCard.c      **** 	SPI_write_byte(sector<<1);  // >>8 + <<9 = <<1
ARM GAS  C:\Users\HPz420\AppData\Local\Temp\cc7eT1Rk.s 			page 16


 571              		.loc 1 222 0
 572 0024 6000     		lsls	r0, r4, #1
 573 0026 00F0FE00 		and	r0, r0, #254
 574 002a FFF7FEFF 		bl	SPI_write_byte
 575              	.LVL79:
 223:SDCard.c      **** 	SPI_write_byte(0);          // bottom bits are 0's
 576              		.loc 1 223 0
 577 002e 0020     		movs	r0, #0
 578 0030 FFF7FEFF 		bl	SPI_write_byte
 579              	.LVL80:
 224:SDCard.c      **** 	SPI_write_byte(0xFF);
 580              		.loc 1 224 0
 581 0034 FF20     		movs	r0, #255
 582 0036 FFF7FEFF 		bl	SPI_write_byte
 583              	.LVL81:
 225:SDCard.c      ****     // wait for 0 to be returned on the SPI bus
 226:SDCard.c      **** 	for(loopCount=0; loopCount<100; loopCount++)
 584              		.loc 1 226 0
 585 003a 0024     		movs	r4, #0
 586              	.LVL82:
 587 003c 0CE0     		b	.L39
 588              	.LVL83:
 589              	.L42:
 227:SDCard.c      ****     {
 228:SDCard.c      ****     	SPI_write_byte(0xFF);   // Shift in dummy 1's into the transit causes receive clocks on the SP
 590              		.loc 1 228 0
 591 003e FF20     		movs	r0, #255
 592 0040 FFF7FEFF 		bl	SPI_write_byte
 593              	.LVL84:
 594              	.L40:
 229:SDCard.c      ****         // Wait for receive character to be present
 230:SDCard.c      ****         while ((SPI_Master_ReadRxStatus() & SPI_Master_STS_RX_FIFO_NOT_EMPTY) != SPI_Master_STS_RX_
 595              		.loc 1 230 0 discriminator 1
 596 0044 FFF7FEFF 		bl	SPI_Master_ReadRxStatus
 597              	.LVL85:
 598 0048 10F0200F 		tst	r0, #32
 599 004c FAD0     		beq	.L40
 231:SDCard.c      **** 		if (SPI_Master_ReadRxData() == 0)
 600              		.loc 1 231 0
 601 004e FFF7FEFF 		bl	SPI_Master_ReadRxData
 602              	.LVL86:
 603 0052 18B1     		cbz	r0, .L41
 226:SDCard.c      ****     {
 604              		.loc 1 226 0 discriminator 2
 605 0054 0134     		adds	r4, r4, #1
 606              	.LVL87:
 607 0056 A4B2     		uxth	r4, r4
 608              	.LVL88:
 609              	.L39:
 226:SDCard.c      ****     {
 610              		.loc 1 226 0 is_stmt 0 discriminator 1
 611 0058 632C     		cmp	r4, #99
 612 005a F0D9     		bls	.L42
 613              	.L41:
 614 005c 0024     		movs	r4, #0
 615              	.LVL89:
 616 005e 0DE0     		b	.L43
ARM GAS  C:\Users\HPz420\AppData\Local\Temp\cc7eT1Rk.s 			page 17


 617              	.LVL90:
 618              	.L46:
 232:SDCard.c      ****             break;
 233:SDCard.c      ****     }
 234:SDCard.c      ****     // wait for 0xFE to be returned on the SPI bus
 235:SDCard.c      **** 	for(loopCount=0; loopCount<100; loopCount++)
 236:SDCard.c      ****     {
 237:SDCard.c      ****     	SPI_write_byte(0xFF);   // Shift in dummy 1's into the transit causes receive clocks on the SP
 619              		.loc 1 237 0 is_stmt 1
 620 0060 FF20     		movs	r0, #255
 621 0062 FFF7FEFF 		bl	SPI_write_byte
 622              	.LVL91:
 623              	.L44:
 238:SDCard.c      ****         // Wait for receive character to be present
 239:SDCard.c      ****         while ((SPI_Master_ReadRxStatus() & SPI_Master_STS_RX_FIFO_NOT_EMPTY) != SPI_Master_STS_RX_
 624              		.loc 1 239 0 discriminator 1
 625 0066 FFF7FEFF 		bl	SPI_Master_ReadRxStatus
 626              	.LVL92:
 627 006a 10F0200F 		tst	r0, #32
 628 006e FAD0     		beq	.L44
 240:SDCard.c      **** 		if (SPI_Master_ReadRxData() == 0xFE)
 629              		.loc 1 240 0
 630 0070 FFF7FEFF 		bl	SPI_Master_ReadRxData
 631              	.LVL93:
 632 0074 FE28     		cmp	r0, #254
 633 0076 03D0     		beq	.L45
 235:SDCard.c      ****     {
 634              		.loc 1 235 0 discriminator 2
 635 0078 0134     		adds	r4, r4, #1
 636              	.LVL94:
 637 007a A4B2     		uxth	r4, r4
 638              	.LVL95:
 639              	.L43:
 235:SDCard.c      ****     {
 640              		.loc 1 235 0 is_stmt 0 discriminator 1
 641 007c 632C     		cmp	r4, #99
 642 007e EFD9     		bls	.L46
 643              	.L45:
 226:SDCard.c      ****     {
 644              		.loc 1 226 0 is_stmt 1 discriminator 1
 645 0080 0024     		movs	r4, #0
 646              	.LVL96:
 647 0082 0CE0     		b	.L47
 648              	.LVL97:
 649              	.L49:
 241:SDCard.c      ****             break;
 242:SDCard.c      ****     }
 243:SDCard.c      **** 	for(loopCount=0; loopCount<512; loopCount++)    // load into the receive buffer
 244:SDCard.c      ****     {
 245:SDCard.c      ****     	SPI_write_byte(0xFF);   // Shift in dummy 1's into the transit causes receive clocks on the SP
 650              		.loc 1 245 0
 651 0084 FF20     		movs	r0, #255
 652 0086 FFF7FEFF 		bl	SPI_write_byte
 653              	.LVL98:
 654              	.L48:
 246:SDCard.c      ****         // Wait for receive character to be present
 247:SDCard.c      ****         while ((SPI_Master_ReadRxStatus() & SPI_Master_STS_RX_FIFO_NOT_EMPTY) != SPI_Master_STS_RX_
ARM GAS  C:\Users\HPz420\AppData\Local\Temp\cc7eT1Rk.s 			page 18


 655              		.loc 1 247 0 discriminator 1
 656 008a FFF7FEFF 		bl	SPI_Master_ReadRxStatus
 657              	.LVL99:
 658 008e 10F0200F 		tst	r0, #32
 659 0092 FAD0     		beq	.L48
 248:SDCard.c      **** 		buffPtr[loopCount] = SPI_Master_ReadRxData();
 660              		.loc 1 248 0 discriminator 2
 661 0094 FFF7FEFF 		bl	SPI_Master_ReadRxData
 662              	.LVL100:
 663 0098 2855     		strb	r0, [r5, r4]
 243:SDCard.c      ****     {
 664              		.loc 1 243 0 discriminator 2
 665 009a 0134     		adds	r4, r4, #1
 666              	.LVL101:
 667 009c A4B2     		uxth	r4, r4
 668              	.LVL102:
 669              	.L47:
 243:SDCard.c      ****     {
 670              		.loc 1 243 0 is_stmt 0 discriminator 1
 671 009e B4F5007F 		cmp	r4, #512
 672 00a2 EFD3     		bcc	.L49
 249:SDCard.c      ****     }
 250:SDCard.c      ****     // Do 2 dummy reads at the end
 251:SDCard.c      **** 	SPI_write_byte(0xFF);
 673              		.loc 1 251 0 is_stmt 1
 674 00a4 FF20     		movs	r0, #255
 675 00a6 FFF7FEFF 		bl	SPI_write_byte
 676              	.LVL103:
 677              	.L50:
 252:SDCard.c      ****     while ((SPI_Master_ReadRxStatus() & SPI_Master_STS_RX_FIFO_NOT_EMPTY) != SPI_Master_STS_RX_FIFO
 678              		.loc 1 252 0 discriminator 1
 679 00aa FFF7FEFF 		bl	SPI_Master_ReadRxStatus
 680              	.LVL104:
 681 00ae 10F0200F 		tst	r0, #32
 682 00b2 FAD0     		beq	.L50
 253:SDCard.c      **** 	junk = SPI_Master_ReadRxData();
 683              		.loc 1 253 0
 684 00b4 FFF7FEFF 		bl	SPI_Master_ReadRxData
 685              	.LVL105:
 686 00b8 8DF80700 		strb	r0, [sp, #7]
 254:SDCard.c      ****     
 255:SDCard.c      **** 	SPI_write_byte(0xFF);
 687              		.loc 1 255 0
 688 00bc FF20     		movs	r0, #255
 689 00be FFF7FEFF 		bl	SPI_write_byte
 690              	.LVL106:
 691              	.L51:
 256:SDCard.c      ****     while ((SPI_Master_ReadRxStatus() & SPI_Master_STS_RX_FIFO_NOT_EMPTY) != SPI_Master_STS_RX_FIFO
 692              		.loc 1 256 0 discriminator 1
 693 00c2 FFF7FEFF 		bl	SPI_Master_ReadRxStatus
 694              	.LVL107:
 695 00c6 10F0200F 		tst	r0, #32
 696 00ca FAD0     		beq	.L51
 257:SDCard.c      **** 	junk = SPI_Master_ReadRxData();
 697              		.loc 1 257 0
 698 00cc FFF7FEFF 		bl	SPI_Master_ReadRxData
 699              	.LVL108:
ARM GAS  C:\Users\HPz420\AppData\Local\Temp\cc7eT1Rk.s 			page 19


 700 00d0 8DF80700 		strb	r0, [sp, #7]
 258:SDCard.c      ****     SPI_SS_Out_Write(1);
 701              		.loc 1 258 0
 702 00d4 0120     		movs	r0, #1
 703 00d6 FFF7FEFF 		bl	SPI_SS_Out_Write
 704              	.LVL109:
 259:SDCard.c      ****     
 260:SDCard.c      **** 	SPI_write_byte(0xFF);   // Shift in dummy 1's into the transit causes receive clocks on the SPI
 705              		.loc 1 260 0
 706 00da FF20     		movs	r0, #255
 707 00dc FFF7FEFF 		bl	SPI_write_byte
 708              	.LVL110:
 709              	.L52:
 261:SDCard.c      ****     // Wait for receive character to be present
 262:SDCard.c      ****     while ((SPI_Master_ReadRxStatus() & SPI_Master_STS_RX_FIFO_NOT_EMPTY) != SPI_Master_STS_RX_FIFO
 710              		.loc 1 262 0 discriminator 1
 711 00e0 FFF7FEFF 		bl	SPI_Master_ReadRxStatus
 712              	.LVL111:
 713 00e4 10F0200F 		tst	r0, #32
 714 00e8 FAD0     		beq	.L52
 263:SDCard.c      **** 	SPI_Master_ReadRxData();
 715              		.loc 1 263 0
 716 00ea FFF7FEFF 		bl	SPI_Master_ReadRxData
 717              	.LVL112:
 264:SDCard.c      ****         
 265:SDCard.c      ****     return;
 266:SDCard.c      **** }
 718              		.loc 1 266 0
 719 00ee 03B0     		add	sp, sp, #12
 720              		.cfi_def_cfa_offset 12
 721              		@ sp needed
 722 00f0 30BD     		pop	{r4, r5, pc}
 723              		.cfi_endproc
 724              	.LFE70:
 725              		.size	SD_ReadSector, .-SD_ReadSector
 726 00f2 00BF     		.section	.text.readSDCard,"ax",%progbits
 727              		.align	2
 728              		.global	readSDCard
 729              		.thumb
 730              		.thumb_func
 731              		.type	readSDCard, %function
 732              	readSDCard:
 733              	.LFB68:
 185:SDCard.c      ****     SD_ReadSector(sectorNumber, readSDBuffer);
 734              		.loc 1 185 0
 735              		.cfi_startproc
 736              		@ args = 0, pretend = 0, frame = 0
 737              		@ frame_needed = 0, uses_anonymous_args = 0
 738              	.LVL113:
 739 0000 10B5     		push	{r4, lr}
 740              		.cfi_def_cfa_offset 8
 741              		.cfi_offset 4, -8
 742              		.cfi_offset 14, -4
 186:SDCard.c      ****     dumpBuffer(readSDBuffer);
 743              		.loc 1 186 0
 744 0002 044C     		ldr	r4, .L56
 745 0004 2146     		mov	r1, r4
ARM GAS  C:\Users\HPz420\AppData\Local\Temp\cc7eT1Rk.s 			page 20


 746 0006 FFF7FEFF 		bl	SD_ReadSector
 747              	.LVL114:
 187:SDCard.c      ****     return;
 748              		.loc 1 187 0
 749 000a 2046     		mov	r0, r4
 750 000c FFF7FEFF 		bl	dumpBuffer
 751              	.LVL115:
 752 0010 10BD     		pop	{r4, pc}
 753              	.L57:
 754 0012 00BF     		.align	2
 755              	.L56:
 756 0014 00000000 		.word	readSDBuffer
 757              		.cfi_endproc
 758              	.LFE68:
 759              		.size	readSDCard, .-readSDCard
 760              		.section	.text.SD_WriteSector,"ax",%progbits
 761              		.align	2
 762              		.global	SD_WriteSector
 763              		.thumb
 764              		.thumb_func
 765              		.type	SD_WriteSector, %function
 766              	SD_WriteSector:
 767              	.LFB71:
 267:SDCard.c      **** 
 268:SDCard.c      **** ///////////////////////////////////////////////////////////////////////////////
 269:SDCard.c      **** // void SD_WriteSector(uint32 sector, uint8 * buffPtr)
 270:SDCard.c      **** // Write a 512-byte sector to the SD card
 271:SDCard.c      **** // The top byte of the sector number is in d15..d22
 272:SDCard.c      **** // 0x200000 is: b'0010 0000 0000 0000 0000
 273:SDCard.c      **** // A 1111 1111 1100 0000 0000
 274:SDCard.c      **** // A 9876 5432 1098 7654 3210
 275:SDCard.c      **** // S 0010 0000 0000 0000 0000
 276:SDCard.c      **** // U 0010 0                     = 0x04
 277:SDCard.c      **** // M       000 0000 0           = 0x00
 278:SDCard.c      **** // L              0 0000 000    = 0x00
 279:SDCard.c      **** 
 280:SDCard.c      **** uint8 SD_WriteSector(uint32 sector, uint8 * buffPtr)
 281:SDCard.c      **** {
 768              		.loc 1 281 0
 769              		.cfi_startproc
 770              		@ args = 0, pretend = 0, frame = 0
 771              		@ frame_needed = 0, uses_anonymous_args = 0
 772              	.LVL116:
 773 0000 F8B5     		push	{r3, r4, r5, r6, r7, lr}
 774              		.cfi_def_cfa_offset 24
 775              		.cfi_offset 3, -24
 776              		.cfi_offset 4, -20
 777              		.cfi_offset 5, -16
 778              		.cfi_offset 6, -12
 779              		.cfi_offset 7, -8
 780              		.cfi_offset 14, -4
 781 0002 0446     		mov	r4, r0
 782 0004 0E46     		mov	r6, r1
 783              	.LVL117:
 282:SDCard.c      ****     uint8 breakOut = 0;
 283:SDCard.c      ****     uint16 loopCount = 0;
 284:SDCard.c      ****     uint8 junk;
ARM GAS  C:\Users\HPz420\AppData\Local\Temp\cc7eT1Rk.s 			page 21


 285:SDCard.c      ****     SPI_Master_ClearFIFO();
 784              		.loc 1 285 0
 785 0006 FFF7FEFF 		bl	SPI_Master_ClearFIFO
 786              	.LVL118:
 286:SDCard.c      ****     SPI_SS_Out_Write(0x0);
 787              		.loc 1 286 0
 788 000a 0020     		movs	r0, #0
 789 000c FFF7FEFF 		bl	SPI_SS_Out_Write
 790              	.LVL119:
 287:SDCard.c      ****     SPI_write_byte(CMD24);      // CMD24
 791              		.loc 1 287 0
 792 0010 5820     		movs	r0, #88
 793 0012 FFF7FEFF 		bl	SPI_write_byte
 794              	.LVL120:
 288:SDCard.c      **** 	SPI_write_byte(sector>>15); // >>24 + <<9 = >>15
 795              		.loc 1 288 0
 796 0016 C4F3C730 		ubfx	r0, r4, #15, #8
 797 001a FFF7FEFF 		bl	SPI_write_byte
 798              	.LVL121:
 289:SDCard.c      **** 	SPI_write_byte(sector>>7);  // >>16 + <<9 = >>7
 799              		.loc 1 289 0
 800 001e C4F3C710 		ubfx	r0, r4, #7, #8
 801 0022 FFF7FEFF 		bl	SPI_write_byte
 802              	.LVL122:
 290:SDCard.c      **** 	SPI_write_byte(sector<<1);  // >>8 + <<9 = <<1
 803              		.loc 1 290 0
 804 0026 6000     		lsls	r0, r4, #1
 805 0028 00F0FE00 		and	r0, r0, #254
 806 002c FFF7FEFF 		bl	SPI_write_byte
 807              	.LVL123:
 291:SDCard.c      **** 	SPI_write_byte(0);          // bottom bits are 0's
 808              		.loc 1 291 0
 809 0030 0020     		movs	r0, #0
 810 0032 FFF7FEFF 		bl	SPI_write_byte
 811              	.LVL124:
 292:SDCard.c      **** 	SPI_write_byte(0xFF);
 812              		.loc 1 292 0
 813 0036 FF20     		movs	r0, #255
 814 0038 FFF7FEFF 		bl	SPI_write_byte
 815              	.LVL125:
 293:SDCard.c      ****     // Wait until the entire transmit buffer has been sent out
 294:SDCard.c      **** //    while ((SPI_Master_ReadTxStatus() & SPI_Master_STS_TX_FIFO_EMPTY) != SPI_Master_STS_TX_FIFO_E
 295:SDCard.c      ****     // Clear the buffers next
 296:SDCard.c      **** //    SPI_Master_ClearFIFO();
 297:SDCard.c      **** //    SPI_Master_ClearRxBuffer();
 298:SDCard.c      **** 
 299:SDCard.c      ****     // wait for 0 to be returned on the SPI bus
 300:SDCard.c      **** 	for(loopCount=0; ((breakOut == 0) & (loopCount<20)); loopCount++)
 816              		.loc 1 300 0
 817 003c 0027     		movs	r7, #0
 282:SDCard.c      ****     uint16 loopCount = 0;
 818              		.loc 1 282 0
 819 003e 3D46     		mov	r5, r7
 820              		.loc 1 300 0
 821 0040 1CE0     		b	.L59
 822              	.LVL126:
 823              	.L60:
ARM GAS  C:\Users\HPz420\AppData\Local\Temp\cc7eT1Rk.s 			page 22


 301:SDCard.c      ****     {
 302:SDCard.c      ****         while ((SPI_Master_ReadTxStatus() & SPI_Master_STS_TX_FIFO_EMPTY) != SPI_Master_STS_TX_FIFO
 824              		.loc 1 302 0 discriminator 1
 825 0042 FFF7FEFF 		bl	SPI_Master_ReadTxStatus
 826              	.LVL127:
 827 0046 10F0020F 		tst	r0, #2
 828 004a FAD0     		beq	.L60
 303:SDCard.c      ****     	SPI_write_byte(0xFF);   // Shift in dummy 1's into the transit causes receive clocks on the SP
 829              		.loc 1 303 0
 830 004c FF20     		movs	r0, #255
 831 004e FFF7FEFF 		bl	SPI_write_byte
 832              	.LVL128:
 304:SDCard.c      ****         // Wait for receive character to be present
 305:SDCard.c      ****         while ((SPI_Master_ReadRxStatus() & SPI_Master_STS_RX_FIFO_NOT_EMPTY) == SPI_Master_STS_RX_
 833              		.loc 1 305 0
 834 0052 0BE0     		b	.L61
 835              	.L64:
 306:SDCard.c      ****         {
 307:SDCard.c      ****             junk = SPI_Master_ReadRxData();
 836              		.loc 1 307 0
 837 0054 FFF7FEFF 		bl	SPI_Master_ReadRxData
 838              	.LVL129:
 839 0058 0446     		mov	r4, r0
 840              	.LVL130:
 308:SDCard.c      ****        		if (junk != 0xFF)
 841              		.loc 1 308 0
 842 005a FF28     		cmp	r0, #255
 843 005c 06D0     		beq	.L61
 309:SDCard.c      ****             {
 310:SDCard.c      ****                 if (junk == 0x00)
 844              		.loc 1 310 0
 845 005e 20B1     		cbz	r0, .L73
 311:SDCard.c      ****                     breakOut = 1;
 312:SDCard.c      ****                 else
 313:SDCard.c      ****                 {
 314:SDCard.c      ****                     SPI_SS_Out_Write(0x1);
 846              		.loc 1 314 0
 847 0060 0120     		movs	r0, #1
 848              	.LVL131:
 849 0062 FFF7FEFF 		bl	SPI_SS_Out_Write
 850              	.LVL132:
 315:SDCard.c      ****                     return(junk);
 851              		.loc 1 315 0
 852 0066 2046     		mov	r0, r4
 853 0068 F8BD     		pop	{r3, r4, r5, r6, r7, pc}
 854              	.LVL133:
 855              	.L73:
 311:SDCard.c      ****                     breakOut = 1;
 856              		.loc 1 311 0
 857 006a 0125     		movs	r5, #1
 858              	.LVL134:
 859              	.L61:
 305:SDCard.c      ****         {
 860              		.loc 1 305 0
 861 006c FFF7FEFF 		bl	SPI_Master_ReadRxStatus
 862              	.LVL135:
 863 0070 10F0200F 		tst	r0, #32
ARM GAS  C:\Users\HPz420\AppData\Local\Temp\cc7eT1Rk.s 			page 23


 864 0074 EED1     		bne	.L64
 316:SDCard.c      ****                 }
 317:SDCard.c      ****             }
 318:SDCard.c      ****         }
 319:SDCard.c      ****         if (breakOut == 0)
 865              		.loc 1 319 0
 866 0076 55B1     		cbz	r5, .L65
 300:SDCard.c      ****     {
 867              		.loc 1 300 0 discriminator 2
 868 0078 0137     		adds	r7, r7, #1
 869              	.LVL136:
 870 007a BFB2     		uxth	r7, r7
 871              	.LVL137:
 872              	.L59:
 300:SDCard.c      ****     {
 873              		.loc 1 300 0 is_stmt 0 discriminator 1
 874 007c 85F00103 		eor	r3, r5, #1
 875 0080 132F     		cmp	r7, #19
 876 0082 8CBF     		ite	hi
 877 0084 0023     		movhi	r3, #0
 878 0086 03F00103 		andls	r3, r3, #1
 879 008a 002B     		cmp	r3, #0
 880 008c D9D1     		bne	.L60
 881              	.L65:
 320:SDCard.c      ****             break;
 321:SDCard.c      ****     }
 322:SDCard.c      ****   	SPI_write_byte(0x00);   // Shift in dummy 1's into the transit causes receive clocks on the SPI
 882              		.loc 1 322 0 is_stmt 1
 883 008e 0020     		movs	r0, #0
 884 0090 FFF7FEFF 		bl	SPI_write_byte
 885              	.LVL138:
 323:SDCard.c      ****     // write 512-bytes
 324:SDCard.c      **** 	for(loopCount=0; loopCount<512; loopCount++)
 886              		.loc 1 324 0
 887 0094 0024     		movs	r4, #0
 888 0096 0CE0     		b	.L66
 889              	.LVL139:
 890              	.L69:
 325:SDCard.c      ****     {
 326:SDCard.c      ****     	SPI_write_byte(buffPtr[loopCount]);
 891              		.loc 1 326 0
 892 0098 305D     		ldrb	r0, [r6, r4]	@ zero_extendqisi2
 893 009a FFF7FEFF 		bl	SPI_write_byte
 894              	.LVL140:
 327:SDCard.c      ****         // Wait until the 8bits come back to know the transmit was done
 328:SDCard.c      ****         while ((SPI_Master_ReadRxStatus() & SPI_Master_STS_RX_FIFO_NOT_EMPTY) == SPI_Master_STS_RX_
 895              		.loc 1 328 0
 896 009e 01E0     		b	.L67
 897              	.L68:
 329:SDCard.c      ****     		junk = SPI_Master_ReadRxData();
 898              		.loc 1 329 0
 899 00a0 FFF7FEFF 		bl	SPI_Master_ReadRxData
 900              	.LVL141:
 901              	.L67:
 328:SDCard.c      ****     		junk = SPI_Master_ReadRxData();
 902              		.loc 1 328 0
 903 00a4 FFF7FEFF 		bl	SPI_Master_ReadRxStatus
ARM GAS  C:\Users\HPz420\AppData\Local\Temp\cc7eT1Rk.s 			page 24


 904              	.LVL142:
 905 00a8 10F0200F 		tst	r0, #32
 906 00ac F8D1     		bne	.L68
 324:SDCard.c      ****     {
 907              		.loc 1 324 0 discriminator 2
 908 00ae 0134     		adds	r4, r4, #1
 909              	.LVL143:
 910 00b0 A4B2     		uxth	r4, r4
 911              	.LVL144:
 912              	.L66:
 324:SDCard.c      ****     {
 913              		.loc 1 324 0 is_stmt 0 discriminator 1
 914 00b2 B4F5007F 		cmp	r4, #512
 915 00b6 EFD3     		bcc	.L69
 330:SDCard.c      ****     }
 331:SDCard.c      ****     
 332:SDCard.c      **** 	SPI_write_byte(0xFF);
 916              		.loc 1 332 0 is_stmt 1
 917 00b8 FF20     		movs	r0, #255
 918 00ba FFF7FEFF 		bl	SPI_write_byte
 919              	.LVL145:
 920              	.L70:
 333:SDCard.c      ****     while ((SPI_Master_ReadRxStatus() & SPI_Master_STS_RX_FIFO_NOT_EMPTY) != SPI_Master_STS_RX_FIFO
 921              		.loc 1 333 0 discriminator 1
 922 00be FFF7FEFF 		bl	SPI_Master_ReadRxStatus
 923              	.LVL146:
 924 00c2 10F0200F 		tst	r0, #32
 925 00c6 FAD0     		beq	.L70
 334:SDCard.c      **** 	junk = SPI_Master_ReadRxData();
 926              		.loc 1 334 0
 927 00c8 FFF7FEFF 		bl	SPI_Master_ReadRxData
 928              	.LVL147:
 335:SDCard.c      ****     
 336:SDCard.c      **** 	SPI_write_byte(0xFF);
 929              		.loc 1 336 0
 930 00cc FF20     		movs	r0, #255
 931 00ce FFF7FEFF 		bl	SPI_write_byte
 932              	.LVL148:
 933              	.L71:
 337:SDCard.c      ****     while ((SPI_Master_ReadRxStatus() & SPI_Master_STS_RX_FIFO_NOT_EMPTY) != SPI_Master_STS_RX_FIFO
 934              		.loc 1 337 0 discriminator 1
 935 00d2 FFF7FEFF 		bl	SPI_Master_ReadRxStatus
 936              	.LVL149:
 937 00d6 10F0200F 		tst	r0, #32
 938 00da FAD0     		beq	.L71
 338:SDCard.c      **** 	junk = SPI_Master_ReadRxData();
 939              		.loc 1 338 0
 940 00dc FFF7FEFF 		bl	SPI_Master_ReadRxData
 941              	.LVL150:
 942              	.L72:
 339:SDCard.c      **** 
 340:SDCard.c      ****     while ((SPI_Master_ReadTxStatus() & SPI_Master_STS_SPI_DONE) != SPI_Master_STS_SPI_DONE);
 943              		.loc 1 340 0 discriminator 1
 944 00e0 FFF7FEFF 		bl	SPI_Master_ReadTxStatus
 945              	.LVL151:
 946 00e4 10F0010F 		tst	r0, #1
 947 00e8 FAD0     		beq	.L72
ARM GAS  C:\Users\HPz420\AppData\Local\Temp\cc7eT1Rk.s 			page 25


 341:SDCard.c      ****     SPI_Master_ClearFIFO();
 948              		.loc 1 341 0
 949 00ea FFF7FEFF 		bl	SPI_Master_ClearFIFO
 950              	.LVL152:
 342:SDCard.c      ****     SPI_SS_Out_Write(1);
 951              		.loc 1 342 0
 952 00ee 0120     		movs	r0, #1
 953 00f0 FFF7FEFF 		bl	SPI_SS_Out_Write
 954              	.LVL153:
 343:SDCard.c      ****     SDInit();
 955              		.loc 1 343 0
 956 00f4 FFF7FEFF 		bl	SDInit
 957              	.LVL154:
 344:SDCard.c      ****     return (0);
 958              		.loc 1 344 0
 959 00f8 0020     		movs	r0, #0
 345:SDCard.c      **** }
 960              		.loc 1 345 0
 961 00fa F8BD     		pop	{r3, r4, r5, r6, r7, pc}
 962              		.cfi_endproc
 963              	.LFE71:
 964              		.size	SD_WriteSector, .-SD_WriteSector
 965              		.section	.text.writeSDCard,"ax",%progbits
 966              		.align	2
 967              		.global	writeSDCard
 968              		.thumb
 969              		.thumb_func
 970              		.type	writeSDCard, %function
 971              	writeSDCard:
 972              	.LFB69:
 197:SDCard.c      ****     uint8 retVal;
 973              		.loc 1 197 0
 974              		.cfi_startproc
 975              		@ args = 0, pretend = 0, frame = 8
 976              		@ frame_needed = 0, uses_anonymous_args = 0
 977              	.LVL155:
 978 0000 10B5     		push	{r4, lr}
 979              		.cfi_def_cfa_offset 8
 980              		.cfi_offset 4, -8
 981              		.cfi_offset 14, -4
 982 0002 82B0     		sub	sp, sp, #8
 983              		.cfi_def_cfa_offset 16
 200:SDCard.c      ****     if (retVal != 0)
 984              		.loc 1 200 0
 985 0004 0849     		ldr	r1, .L78
 986 0006 FFF7FEFF 		bl	SD_WriteSector
 987              	.LVL156:
 201:SDCard.c      ****     {
 988              		.loc 1 201 0
 989 000a 58B1     		cbz	r0, .L75
 990 000c 0446     		mov	r4, r0
 203:SDCard.c      ****         sprintf(lineBuffer,"%02x\n\r",retVal);
 991              		.loc 1 203 0
 992 000e 0748     		ldr	r0, .L78+4
 993              	.LVL157:
 994 0010 FFF7FEFF 		bl	putStringToUSB
 995              	.LVL158:
ARM GAS  C:\Users\HPz420\AppData\Local\Temp\cc7eT1Rk.s 			page 26


 204:SDCard.c      ****         putStringToUSB(lineBuffer);
 996              		.loc 1 204 0
 997 0014 2246     		mov	r2, r4
 998 0016 0649     		ldr	r1, .L78+8
 999 0018 6846     		mov	r0, sp
 1000 001a FFF7FEFF 		bl	sprintf
 1001              	.LVL159:
 205:SDCard.c      ****         return;
 1002              		.loc 1 205 0
 1003 001e 6846     		mov	r0, sp
 1004 0020 FFF7FEFF 		bl	putStringToUSB
 1005              	.LVL160:
 1006              	.L75:
 209:SDCard.c      **** 
 1007              		.loc 1 209 0
 1008 0024 02B0     		add	sp, sp, #8
 1009              		.cfi_def_cfa_offset 8
 1010              		@ sp needed
 1011 0026 10BD     		pop	{r4, pc}
 1012              	.L79:
 1013              		.align	2
 1014              	.L78:
 1015 0028 00000000 		.word	writeSDBuffer
 1016 002c 18000000 		.word	.LC4
 1017 0030 40000000 		.word	.LC5
 1018              		.cfi_endproc
 1019              	.LFE69:
 1020              		.size	writeSDCard, .-writeSDCard
 1021              		.comm	writeSDBuffer,512,4
 1022              		.comm	readSDBuffer,512,4
 1023              		.comm	writePointer,2,2
 1024              		.comm	readPointer,2,2
 1025              		.section	.rodata.str1.4,"aMS",%progbits,1
 1026              		.align	2
 1027              	.LC0:
 1028 0000 25303478 		.ascii	"%04x \000"
 1028      2000
 1029 0006 0000     		.space	2
 1030              	.LC1:
 1031 0008 20253032 		.ascii	" %02x\000"
 1031      7800
 1032 000e 0000     		.space	2
 1033              	.LC2:
 1034 0010 202000   		.ascii	"  \000"
 1035 0013 00       		.space	1
 1036              	.LC3:
 1037 0014 0A0D00   		.ascii	"\012\015\000"
 1038 0017 00       		.space	1
 1039              	.LC4:
 1040 0018 4572726F 		.ascii	"Error writing to the SD Card\012\015Error - \000"
 1040      72207772 
 1040      6974696E 
 1040      6720746F 
 1040      20746865 
 1041 003f 00       		.space	1
 1042              	.LC5:
 1043 0040 25303278 		.ascii	"%02x\012\015\000"
ARM GAS  C:\Users\HPz420\AppData\Local\Temp\cc7eT1Rk.s 			page 27


 1043      0A0D00
 1044              		.text
 1045              	.Letext0:
 1046              		.file 2 "c:\\program files (x86)\\cypress\\psoc creator\\4.2\\psoc creator\\import\\gnu\\arm\\5.4.
 1047              		.file 3 "c:\\program files (x86)\\cypress\\psoc creator\\4.2\\psoc creator\\import\\gnu\\arm\\5.4.
 1048              		.file 4 "Generated_Source\\PSoC5/cytypes.h"
 1049              		.file 5 "Generated_Source\\PSoC5/core_cm3.h"
 1050              		.file 6 "./Z80_SDCard_Emul.h"
 1051              		.file 7 "Generated_Source\\PSoC5/SPI_Master.h"
 1052              		.file 8 "Generated_Source\\PSoC5/CyLib.h"
 1053              		.file 9 "Generated_Source\\PSoC5/SPI_SS_Out.h"
 1054              		.file 10 "c:\\program files (x86)\\cypress\\psoc creator\\4.2\\psoc creator\\import\\gnu\\arm\\5.4
 1055              		.file 11 "c:\\program files (x86)\\cypress\\psoc creator\\4.2\\psoc creator\\import\\gnu\\arm\\5.4
 1056              		.file 12 "./Z80_PSoC_3Chips.h"
 1057              		.file 13 "<built-in>"