ARM GAS  C:\Users\HPz420\AppData\Local\Temp\cc6fMR6j.s 			page 1


   1              		.syntax unified
   2              		.cpu cortex-m3
   3              		.fpu softvfp
   4              		.eabi_attribute 20, 1
   5              		.eabi_attribute 21, 1
   6              		.eabi_attribute 23, 3
   7              		.eabi_attribute 24, 1
   8              		.eabi_attribute 25, 1
   9              		.eabi_attribute 26, 1
  10              		.eabi_attribute 30, 1
  11              		.eabi_attribute 34, 1
  12              		.eabi_attribute 18, 4
  13              		.thumb
  14              		.syntax unified
  15              		.file	"Sound_Counter_PM.c"
  16              		.text
  17              	.Ltext0:
  18              		.cfi_sections	.debug_frame
  19              		.section	.text.Sound_Counter_SaveConfig,"ax",%progbits
  20              		.align	2
  21              		.global	Sound_Counter_SaveConfig
  22              		.thumb
  23              		.thumb_func
  24              		.type	Sound_Counter_SaveConfig, %function
  25              	Sound_Counter_SaveConfig:
  26              	.LFB0:
  27              		.file 1 "Generated_Source\\PSoC5\\Sound_Counter_PM.c"
   1:Generated_Source\PSoC5/Sound_Counter_PM.c **** /*******************************************************************************
   2:Generated_Source\PSoC5/Sound_Counter_PM.c **** * File Name: Sound_Counter_PM.c  
   3:Generated_Source\PSoC5/Sound_Counter_PM.c **** * Version 3.0
   4:Generated_Source\PSoC5/Sound_Counter_PM.c **** *
   5:Generated_Source\PSoC5/Sound_Counter_PM.c **** *  Description:
   6:Generated_Source\PSoC5/Sound_Counter_PM.c **** *    This file provides the power management source code to API for the
   7:Generated_Source\PSoC5/Sound_Counter_PM.c **** *    Counter.  
   8:Generated_Source\PSoC5/Sound_Counter_PM.c **** *
   9:Generated_Source\PSoC5/Sound_Counter_PM.c **** *   Note:
  10:Generated_Source\PSoC5/Sound_Counter_PM.c **** *     None
  11:Generated_Source\PSoC5/Sound_Counter_PM.c **** *
  12:Generated_Source\PSoC5/Sound_Counter_PM.c **** ********************************************************************************
  13:Generated_Source\PSoC5/Sound_Counter_PM.c **** * Copyright 2008-2012, Cypress Semiconductor Corporation.  All rights reserved.
  14:Generated_Source\PSoC5/Sound_Counter_PM.c **** * You may use this file only in accordance with the license, terms, conditions, 
  15:Generated_Source\PSoC5/Sound_Counter_PM.c **** * disclaimers, and limitations in the end user license agreement accompanying 
  16:Generated_Source\PSoC5/Sound_Counter_PM.c **** * the software package with which this file was provided.
  17:Generated_Source\PSoC5/Sound_Counter_PM.c **** *******************************************************************************/
  18:Generated_Source\PSoC5/Sound_Counter_PM.c **** 
  19:Generated_Source\PSoC5/Sound_Counter_PM.c **** #include "Sound_Counter.h"
  20:Generated_Source\PSoC5/Sound_Counter_PM.c **** 
  21:Generated_Source\PSoC5/Sound_Counter_PM.c **** static Sound_Counter_backupStruct Sound_Counter_backup;
  22:Generated_Source\PSoC5/Sound_Counter_PM.c **** 
  23:Generated_Source\PSoC5/Sound_Counter_PM.c **** 
  24:Generated_Source\PSoC5/Sound_Counter_PM.c **** /*******************************************************************************
  25:Generated_Source\PSoC5/Sound_Counter_PM.c **** * Function Name: Sound_Counter_SaveConfig
  26:Generated_Source\PSoC5/Sound_Counter_PM.c **** ********************************************************************************
  27:Generated_Source\PSoC5/Sound_Counter_PM.c **** * Summary:
  28:Generated_Source\PSoC5/Sound_Counter_PM.c **** *     Save the current user configuration
  29:Generated_Source\PSoC5/Sound_Counter_PM.c **** *
  30:Generated_Source\PSoC5/Sound_Counter_PM.c **** * Parameters:  
ARM GAS  C:\Users\HPz420\AppData\Local\Temp\cc6fMR6j.s 			page 2


  31:Generated_Source\PSoC5/Sound_Counter_PM.c **** *  void
  32:Generated_Source\PSoC5/Sound_Counter_PM.c **** *
  33:Generated_Source\PSoC5/Sound_Counter_PM.c **** * Return: 
  34:Generated_Source\PSoC5/Sound_Counter_PM.c **** *  void
  35:Generated_Source\PSoC5/Sound_Counter_PM.c **** *
  36:Generated_Source\PSoC5/Sound_Counter_PM.c **** * Global variables:
  37:Generated_Source\PSoC5/Sound_Counter_PM.c **** *  Sound_Counter_backup:  Variables of this global structure are modified to 
  38:Generated_Source\PSoC5/Sound_Counter_PM.c **** *  store the values of non retention configuration registers when Sleep() API is 
  39:Generated_Source\PSoC5/Sound_Counter_PM.c **** *  called.
  40:Generated_Source\PSoC5/Sound_Counter_PM.c **** *
  41:Generated_Source\PSoC5/Sound_Counter_PM.c **** *******************************************************************************/
  42:Generated_Source\PSoC5/Sound_Counter_PM.c **** void Sound_Counter_SaveConfig(void) 
  43:Generated_Source\PSoC5/Sound_Counter_PM.c **** {
  28              		.loc 1 43 0
  29              		.cfi_startproc
  30              		@ args = 0, pretend = 0, frame = 0
  31              		@ frame_needed = 0, uses_anonymous_args = 0
  32              		@ link register save eliminated.
  33 0000 7047     		bx	lr
  34              		.cfi_endproc
  35              	.LFE0:
  36              		.size	Sound_Counter_SaveConfig, .-Sound_Counter_SaveConfig
  37 0002 00BF     		.section	.text.Sound_Counter_RestoreConfig,"ax",%progbits
  38              		.align	2
  39              		.global	Sound_Counter_RestoreConfig
  40              		.thumb
  41              		.thumb_func
  42              		.type	Sound_Counter_RestoreConfig, %function
  43              	Sound_Counter_RestoreConfig:
  44              	.LFB1:
  44:Generated_Source\PSoC5/Sound_Counter_PM.c ****     #if (!Sound_Counter_UsingFixedFunction)
  45:Generated_Source\PSoC5/Sound_Counter_PM.c **** 
  46:Generated_Source\PSoC5/Sound_Counter_PM.c ****         Sound_Counter_backup.CounterUdb = Sound_Counter_ReadCounter();
  47:Generated_Source\PSoC5/Sound_Counter_PM.c **** 
  48:Generated_Source\PSoC5/Sound_Counter_PM.c ****         #if(!Sound_Counter_ControlRegRemoved)
  49:Generated_Source\PSoC5/Sound_Counter_PM.c ****             Sound_Counter_backup.CounterControlRegister = Sound_Counter_ReadControlRegister();
  50:Generated_Source\PSoC5/Sound_Counter_PM.c ****         #endif /* (!Sound_Counter_ControlRegRemoved) */
  51:Generated_Source\PSoC5/Sound_Counter_PM.c **** 
  52:Generated_Source\PSoC5/Sound_Counter_PM.c ****     #endif /* (!Sound_Counter_UsingFixedFunction) */
  53:Generated_Source\PSoC5/Sound_Counter_PM.c **** }
  54:Generated_Source\PSoC5/Sound_Counter_PM.c **** 
  55:Generated_Source\PSoC5/Sound_Counter_PM.c **** 
  56:Generated_Source\PSoC5/Sound_Counter_PM.c **** /*******************************************************************************
  57:Generated_Source\PSoC5/Sound_Counter_PM.c **** * Function Name: Sound_Counter_RestoreConfig
  58:Generated_Source\PSoC5/Sound_Counter_PM.c **** ********************************************************************************
  59:Generated_Source\PSoC5/Sound_Counter_PM.c **** *
  60:Generated_Source\PSoC5/Sound_Counter_PM.c **** * Summary:
  61:Generated_Source\PSoC5/Sound_Counter_PM.c **** *  Restores the current user configuration.
  62:Generated_Source\PSoC5/Sound_Counter_PM.c **** *
  63:Generated_Source\PSoC5/Sound_Counter_PM.c **** * Parameters:  
  64:Generated_Source\PSoC5/Sound_Counter_PM.c **** *  void
  65:Generated_Source\PSoC5/Sound_Counter_PM.c **** *
  66:Generated_Source\PSoC5/Sound_Counter_PM.c **** * Return: 
  67:Generated_Source\PSoC5/Sound_Counter_PM.c **** *  void
  68:Generated_Source\PSoC5/Sound_Counter_PM.c **** *
  69:Generated_Source\PSoC5/Sound_Counter_PM.c **** * Global variables:
  70:Generated_Source\PSoC5/Sound_Counter_PM.c **** *  Sound_Counter_backup:  Variables of this global structure are used to 
ARM GAS  C:\Users\HPz420\AppData\Local\Temp\cc6fMR6j.s 			page 3


  71:Generated_Source\PSoC5/Sound_Counter_PM.c **** *  restore the values of non retention registers on wakeup from sleep mode.
  72:Generated_Source\PSoC5/Sound_Counter_PM.c **** *
  73:Generated_Source\PSoC5/Sound_Counter_PM.c **** *******************************************************************************/
  74:Generated_Source\PSoC5/Sound_Counter_PM.c **** void Sound_Counter_RestoreConfig(void) 
  75:Generated_Source\PSoC5/Sound_Counter_PM.c **** {      
  45              		.loc 1 75 0
  46              		.cfi_startproc
  47              		@ args = 0, pretend = 0, frame = 0
  48              		@ frame_needed = 0, uses_anonymous_args = 0
  49              		@ link register save eliminated.
  50 0000 7047     		bx	lr
  51              		.cfi_endproc
  52              	.LFE1:
  53              		.size	Sound_Counter_RestoreConfig, .-Sound_Counter_RestoreConfig
  54 0002 00BF     		.section	.text.Sound_Counter_Sleep,"ax",%progbits
  55              		.align	2
  56              		.global	Sound_Counter_Sleep
  57              		.thumb
  58              		.thumb_func
  59              		.type	Sound_Counter_Sleep, %function
  60              	Sound_Counter_Sleep:
  61              	.LFB2:
  76:Generated_Source\PSoC5/Sound_Counter_PM.c ****     #if (!Sound_Counter_UsingFixedFunction)
  77:Generated_Source\PSoC5/Sound_Counter_PM.c **** 
  78:Generated_Source\PSoC5/Sound_Counter_PM.c ****        Sound_Counter_WriteCounter(Sound_Counter_backup.CounterUdb);
  79:Generated_Source\PSoC5/Sound_Counter_PM.c **** 
  80:Generated_Source\PSoC5/Sound_Counter_PM.c ****         #if(!Sound_Counter_ControlRegRemoved)
  81:Generated_Source\PSoC5/Sound_Counter_PM.c ****             Sound_Counter_WriteControlRegister(Sound_Counter_backup.CounterControlRegister);
  82:Generated_Source\PSoC5/Sound_Counter_PM.c ****         #endif /* (!Sound_Counter_ControlRegRemoved) */
  83:Generated_Source\PSoC5/Sound_Counter_PM.c **** 
  84:Generated_Source\PSoC5/Sound_Counter_PM.c ****     #endif /* (!Sound_Counter_UsingFixedFunction) */
  85:Generated_Source\PSoC5/Sound_Counter_PM.c **** }
  86:Generated_Source\PSoC5/Sound_Counter_PM.c **** 
  87:Generated_Source\PSoC5/Sound_Counter_PM.c **** 
  88:Generated_Source\PSoC5/Sound_Counter_PM.c **** /*******************************************************************************
  89:Generated_Source\PSoC5/Sound_Counter_PM.c **** * Function Name: Sound_Counter_Sleep
  90:Generated_Source\PSoC5/Sound_Counter_PM.c **** ********************************************************************************
  91:Generated_Source\PSoC5/Sound_Counter_PM.c **** * Summary:
  92:Generated_Source\PSoC5/Sound_Counter_PM.c **** *     Stop and Save the user configuration
  93:Generated_Source\PSoC5/Sound_Counter_PM.c **** *
  94:Generated_Source\PSoC5/Sound_Counter_PM.c **** * Parameters:  
  95:Generated_Source\PSoC5/Sound_Counter_PM.c **** *  void
  96:Generated_Source\PSoC5/Sound_Counter_PM.c **** *
  97:Generated_Source\PSoC5/Sound_Counter_PM.c **** * Return: 
  98:Generated_Source\PSoC5/Sound_Counter_PM.c **** *  void
  99:Generated_Source\PSoC5/Sound_Counter_PM.c **** *
 100:Generated_Source\PSoC5/Sound_Counter_PM.c **** * Global variables:
 101:Generated_Source\PSoC5/Sound_Counter_PM.c **** *  Sound_Counter_backup.enableState:  Is modified depending on the enable 
 102:Generated_Source\PSoC5/Sound_Counter_PM.c **** *  state of the block before entering sleep mode.
 103:Generated_Source\PSoC5/Sound_Counter_PM.c **** *
 104:Generated_Source\PSoC5/Sound_Counter_PM.c **** *******************************************************************************/
 105:Generated_Source\PSoC5/Sound_Counter_PM.c **** void Sound_Counter_Sleep(void) 
 106:Generated_Source\PSoC5/Sound_Counter_PM.c **** {
  62              		.loc 1 106 0
  63              		.cfi_startproc
  64              		@ args = 0, pretend = 0, frame = 0
  65              		@ frame_needed = 0, uses_anonymous_args = 0
ARM GAS  C:\Users\HPz420\AppData\Local\Temp\cc6fMR6j.s 			page 4


  66              		.loc 1 106 0
  67 0000 08B5     		push	{r3, lr}
  68              		.cfi_def_cfa_offset 8
  69              		.cfi_offset 3, -8
  70              		.cfi_offset 14, -4
 107:Generated_Source\PSoC5/Sound_Counter_PM.c ****     #if(!Sound_Counter_ControlRegRemoved)
 108:Generated_Source\PSoC5/Sound_Counter_PM.c ****         /* Save Counter's enable state */
 109:Generated_Source\PSoC5/Sound_Counter_PM.c ****         if(Sound_Counter_CTRL_ENABLE == (Sound_Counter_CONTROL & Sound_Counter_CTRL_ENABLE))
  71              		.loc 1 109 0
  72 0002 074B     		ldr	r3, .L7
  73 0004 1B78     		ldrb	r3, [r3]	@ zero_extendqisi2
  74 0006 13F0010F 		tst	r3, #1
  75 000a 03D0     		beq	.L4
 110:Generated_Source\PSoC5/Sound_Counter_PM.c ****         {
 111:Generated_Source\PSoC5/Sound_Counter_PM.c ****             /* Counter is enabled */
 112:Generated_Source\PSoC5/Sound_Counter_PM.c ****             Sound_Counter_backup.CounterEnableState = 1u;
  76              		.loc 1 112 0
  77 000c 0122     		movs	r2, #1
  78 000e 054B     		ldr	r3, .L7+4
  79 0010 1A70     		strb	r2, [r3]
  80 0012 02E0     		b	.L5
  81              	.L4:
 113:Generated_Source\PSoC5/Sound_Counter_PM.c ****         }
 114:Generated_Source\PSoC5/Sound_Counter_PM.c ****         else
 115:Generated_Source\PSoC5/Sound_Counter_PM.c ****         {
 116:Generated_Source\PSoC5/Sound_Counter_PM.c ****             /* Counter is disabled */
 117:Generated_Source\PSoC5/Sound_Counter_PM.c ****             Sound_Counter_backup.CounterEnableState = 0u;
  82              		.loc 1 117 0
  83 0014 0022     		movs	r2, #0
  84 0016 034B     		ldr	r3, .L7+4
  85 0018 1A70     		strb	r2, [r3]
  86              	.L5:
 118:Generated_Source\PSoC5/Sound_Counter_PM.c ****         }
 119:Generated_Source\PSoC5/Sound_Counter_PM.c ****     #else
 120:Generated_Source\PSoC5/Sound_Counter_PM.c ****         Sound_Counter_backup.CounterEnableState = 1u;
 121:Generated_Source\PSoC5/Sound_Counter_PM.c ****         if(Sound_Counter_backup.CounterEnableState != 0u)
 122:Generated_Source\PSoC5/Sound_Counter_PM.c ****         {
 123:Generated_Source\PSoC5/Sound_Counter_PM.c ****             Sound_Counter_backup.CounterEnableState = 0u;
 124:Generated_Source\PSoC5/Sound_Counter_PM.c ****         }
 125:Generated_Source\PSoC5/Sound_Counter_PM.c ****     #endif /* (!Sound_Counter_ControlRegRemoved) */
 126:Generated_Source\PSoC5/Sound_Counter_PM.c ****     
 127:Generated_Source\PSoC5/Sound_Counter_PM.c ****     Sound_Counter_Stop();
  87              		.loc 1 127 0
  88 001a FFF7FEFF 		bl	Sound_Counter_Stop
  89              	.LVL0:
  90 001e 08BD     		pop	{r3, pc}
  91              	.L8:
  92              		.align	2
  93              	.L7:
  94 0020 004F0040 		.word	1073762048
  95 0024 00000000 		.word	.LANCHOR0
  96              		.cfi_endproc
  97              	.LFE2:
  98              		.size	Sound_Counter_Sleep, .-Sound_Counter_Sleep
  99              		.section	.text.Sound_Counter_Wakeup,"ax",%progbits
 100              		.align	2
 101              		.global	Sound_Counter_Wakeup
ARM GAS  C:\Users\HPz420\AppData\Local\Temp\cc6fMR6j.s 			page 5


 102              		.thumb
 103              		.thumb_func
 104              		.type	Sound_Counter_Wakeup, %function
 105              	Sound_Counter_Wakeup:
 106              	.LFB3:
 128:Generated_Source\PSoC5/Sound_Counter_PM.c ****     Sound_Counter_SaveConfig();
 129:Generated_Source\PSoC5/Sound_Counter_PM.c **** }
 130:Generated_Source\PSoC5/Sound_Counter_PM.c **** 
 131:Generated_Source\PSoC5/Sound_Counter_PM.c **** 
 132:Generated_Source\PSoC5/Sound_Counter_PM.c **** /*******************************************************************************
 133:Generated_Source\PSoC5/Sound_Counter_PM.c **** * Function Name: Sound_Counter_Wakeup
 134:Generated_Source\PSoC5/Sound_Counter_PM.c **** ********************************************************************************
 135:Generated_Source\PSoC5/Sound_Counter_PM.c **** *
 136:Generated_Source\PSoC5/Sound_Counter_PM.c **** * Summary:
 137:Generated_Source\PSoC5/Sound_Counter_PM.c **** *  Restores and enables the user configuration
 138:Generated_Source\PSoC5/Sound_Counter_PM.c **** *  
 139:Generated_Source\PSoC5/Sound_Counter_PM.c **** * Parameters:  
 140:Generated_Source\PSoC5/Sound_Counter_PM.c **** *  void
 141:Generated_Source\PSoC5/Sound_Counter_PM.c **** *
 142:Generated_Source\PSoC5/Sound_Counter_PM.c **** * Return: 
 143:Generated_Source\PSoC5/Sound_Counter_PM.c **** *  void
 144:Generated_Source\PSoC5/Sound_Counter_PM.c **** *
 145:Generated_Source\PSoC5/Sound_Counter_PM.c **** * Global variables:
 146:Generated_Source\PSoC5/Sound_Counter_PM.c **** *  Sound_Counter_backup.enableState:  Is used to restore the enable state of 
 147:Generated_Source\PSoC5/Sound_Counter_PM.c **** *  block on wakeup from sleep mode.
 148:Generated_Source\PSoC5/Sound_Counter_PM.c **** *
 149:Generated_Source\PSoC5/Sound_Counter_PM.c **** *******************************************************************************/
 150:Generated_Source\PSoC5/Sound_Counter_PM.c **** void Sound_Counter_Wakeup(void) 
 151:Generated_Source\PSoC5/Sound_Counter_PM.c **** {
 107              		.loc 1 151 0
 108              		.cfi_startproc
 109              		@ args = 0, pretend = 0, frame = 0
 110              		@ frame_needed = 0, uses_anonymous_args = 0
 111 0000 08B5     		push	{r3, lr}
 112              		.cfi_def_cfa_offset 8
 113              		.cfi_offset 3, -8
 114              		.cfi_offset 14, -4
 152:Generated_Source\PSoC5/Sound_Counter_PM.c ****     Sound_Counter_RestoreConfig();
 153:Generated_Source\PSoC5/Sound_Counter_PM.c ****     #if(!Sound_Counter_ControlRegRemoved)
 154:Generated_Source\PSoC5/Sound_Counter_PM.c ****         if(Sound_Counter_backup.CounterEnableState == 1u)
 115              		.loc 1 154 0
 116 0002 034B     		ldr	r3, .L12
 117 0004 1B78     		ldrb	r3, [r3]	@ zero_extendqisi2
 118 0006 012B     		cmp	r3, #1
 119 0008 01D1     		bne	.L9
 155:Generated_Source\PSoC5/Sound_Counter_PM.c ****         {
 156:Generated_Source\PSoC5/Sound_Counter_PM.c ****             /* Enable Counter's operation */
 157:Generated_Source\PSoC5/Sound_Counter_PM.c ****             Sound_Counter_Enable();
 120              		.loc 1 157 0
 121 000a FFF7FEFF 		bl	Sound_Counter_Enable
 122              	.LVL1:
 123              	.L9:
 124 000e 08BD     		pop	{r3, pc}
 125              	.L13:
 126              		.align	2
 127              	.L12:
 128 0010 00000000 		.word	.LANCHOR0
ARM GAS  C:\Users\HPz420\AppData\Local\Temp\cc6fMR6j.s 			page 6


 129              		.cfi_endproc
 130              	.LFE3:
 131              		.size	Sound_Counter_Wakeup, .-Sound_Counter_Wakeup
 132              		.bss
 133              		.align	2
 134              		.set	.LANCHOR0,. + 0
 135              		.type	Sound_Counter_backup, %object
 136              		.size	Sound_Counter_backup, 6
 137              	Sound_Counter_backup:
 138 0000 00000000 		.space	6
 138      0000
 139              		.text
 140              	.Letext0:
 141              		.file 2 "Generated_Source\\PSoC5\\cytypes.h"
 142              		.file 3 "Generated_Source\\PSoC5\\Sound_Counter.h"