ARM GAS  C:\Users\HPz420\AppData\Local\Temp\ccAeJGUf.s 			page 1


   1              		.syntax unified
   2              		.cpu cortex-m3
   3              		.fpu softvfp
   4              		.eabi_attribute 20, 1
   5              		.eabi_attribute 21, 1
   6              		.eabi_attribute 23, 3
   7              		.eabi_attribute 24, 1
   8              		.eabi_attribute 25, 1
   9              		.eabi_attribute 26, 1
  10              		.eabi_attribute 30, 1
  11              		.eabi_attribute 34, 1
  12              		.eabi_attribute 18, 4
  13              		.thumb
  14              		.syntax unified
  15              		.file	"Sound_Counter.c"
  16              		.text
  17              	.Ltext0:
  18              		.cfi_sections	.debug_frame
  19              		.section	.text.Sound_Counter_Enable,"ax",%progbits
  20              		.align	2
  21              		.global	Sound_Counter_Enable
  22              		.thumb
  23              		.thumb_func
  24              		.type	Sound_Counter_Enable, %function
  25              	Sound_Counter_Enable:
  26              	.LFB1:
  27              		.file 1 "Generated_Source\\PSoC5\\Sound_Counter.c"
   1:Generated_Source\PSoC5/Sound_Counter.c **** /*******************************************************************************
   2:Generated_Source\PSoC5/Sound_Counter.c **** * File Name: Sound_Counter.c  
   3:Generated_Source\PSoC5/Sound_Counter.c **** * Version 3.0
   4:Generated_Source\PSoC5/Sound_Counter.c **** *
   5:Generated_Source\PSoC5/Sound_Counter.c **** *  Description:
   6:Generated_Source\PSoC5/Sound_Counter.c **** *     The Counter component consists of a 8, 16, 24 or 32-bit counter with
   7:Generated_Source\PSoC5/Sound_Counter.c **** *     a selectable period between 2 and 2^Width - 1.  
   8:Generated_Source\PSoC5/Sound_Counter.c **** *
   9:Generated_Source\PSoC5/Sound_Counter.c **** *   Note:
  10:Generated_Source\PSoC5/Sound_Counter.c **** *     None
  11:Generated_Source\PSoC5/Sound_Counter.c **** *
  12:Generated_Source\PSoC5/Sound_Counter.c **** ********************************************************************************
  13:Generated_Source\PSoC5/Sound_Counter.c **** * Copyright 2008-2012, Cypress Semiconductor Corporation.  All rights reserved.
  14:Generated_Source\PSoC5/Sound_Counter.c **** * You may use this file only in accordance with the license, terms, conditions, 
  15:Generated_Source\PSoC5/Sound_Counter.c **** * disclaimers, and limitations in the end user license agreement accompanying 
  16:Generated_Source\PSoC5/Sound_Counter.c **** * the software package with which this file was provided.
  17:Generated_Source\PSoC5/Sound_Counter.c **** *******************************************************************************/
  18:Generated_Source\PSoC5/Sound_Counter.c **** 
  19:Generated_Source\PSoC5/Sound_Counter.c **** #include "Sound_Counter.h"
  20:Generated_Source\PSoC5/Sound_Counter.c **** 
  21:Generated_Source\PSoC5/Sound_Counter.c **** uint8 Sound_Counter_initVar = 0u;
  22:Generated_Source\PSoC5/Sound_Counter.c **** 
  23:Generated_Source\PSoC5/Sound_Counter.c **** 
  24:Generated_Source\PSoC5/Sound_Counter.c **** /*******************************************************************************
  25:Generated_Source\PSoC5/Sound_Counter.c **** * Function Name: Sound_Counter_Init
  26:Generated_Source\PSoC5/Sound_Counter.c **** ********************************************************************************
  27:Generated_Source\PSoC5/Sound_Counter.c **** * Summary:
  28:Generated_Source\PSoC5/Sound_Counter.c **** *     Initialize to the schematic state
  29:Generated_Source\PSoC5/Sound_Counter.c **** * 
  30:Generated_Source\PSoC5/Sound_Counter.c **** * Parameters:  
ARM GAS  C:\Users\HPz420\AppData\Local\Temp\ccAeJGUf.s 			page 2


  31:Generated_Source\PSoC5/Sound_Counter.c **** *  void  
  32:Generated_Source\PSoC5/Sound_Counter.c **** *
  33:Generated_Source\PSoC5/Sound_Counter.c **** * Return: 
  34:Generated_Source\PSoC5/Sound_Counter.c **** *  void
  35:Generated_Source\PSoC5/Sound_Counter.c **** *
  36:Generated_Source\PSoC5/Sound_Counter.c **** *******************************************************************************/
  37:Generated_Source\PSoC5/Sound_Counter.c **** void Sound_Counter_Init(void) 
  38:Generated_Source\PSoC5/Sound_Counter.c **** {
  39:Generated_Source\PSoC5/Sound_Counter.c ****         #if (!Sound_Counter_UsingFixedFunction && !Sound_Counter_ControlRegRemoved)
  40:Generated_Source\PSoC5/Sound_Counter.c ****             uint8 ctrl;
  41:Generated_Source\PSoC5/Sound_Counter.c ****         #endif /* (!Sound_Counter_UsingFixedFunction && !Sound_Counter_ControlRegRemoved) */
  42:Generated_Source\PSoC5/Sound_Counter.c ****         
  43:Generated_Source\PSoC5/Sound_Counter.c ****         #if(!Sound_Counter_UsingFixedFunction) 
  44:Generated_Source\PSoC5/Sound_Counter.c ****             /* Interrupt State Backup for Critical Region*/
  45:Generated_Source\PSoC5/Sound_Counter.c ****             uint8 Sound_Counter_interruptState;
  46:Generated_Source\PSoC5/Sound_Counter.c ****         #endif /* (!Sound_Counter_UsingFixedFunction) */
  47:Generated_Source\PSoC5/Sound_Counter.c ****         
  48:Generated_Source\PSoC5/Sound_Counter.c ****         #if (Sound_Counter_UsingFixedFunction)
  49:Generated_Source\PSoC5/Sound_Counter.c ****             /* Clear all bits but the enable bit (if it's already set for Timer operation */
  50:Generated_Source\PSoC5/Sound_Counter.c ****             Sound_Counter_CONTROL &= Sound_Counter_CTRL_ENABLE;
  51:Generated_Source\PSoC5/Sound_Counter.c ****             
  52:Generated_Source\PSoC5/Sound_Counter.c ****             /* Clear the mode bits for continuous run mode */
  53:Generated_Source\PSoC5/Sound_Counter.c ****             #if (CY_PSOC5A)
  54:Generated_Source\PSoC5/Sound_Counter.c ****                 Sound_Counter_CONTROL2 &= ((uint8)(~Sound_Counter_CTRL_MODE_MASK));
  55:Generated_Source\PSoC5/Sound_Counter.c ****             #endif /* (CY_PSOC5A) */
  56:Generated_Source\PSoC5/Sound_Counter.c ****             #if (CY_PSOC3 || CY_PSOC5LP)
  57:Generated_Source\PSoC5/Sound_Counter.c ****                 Sound_Counter_CONTROL3 &= ((uint8)(~Sound_Counter_CTRL_MODE_MASK));                
  58:Generated_Source\PSoC5/Sound_Counter.c ****             #endif /* (CY_PSOC3 || CY_PSOC5LP) */
  59:Generated_Source\PSoC5/Sound_Counter.c ****             /* Check if One Shot mode is enabled i.e. RunMode !=0*/
  60:Generated_Source\PSoC5/Sound_Counter.c ****             #if (Sound_Counter_RunModeUsed != 0x0u)
  61:Generated_Source\PSoC5/Sound_Counter.c ****                 /* Set 3rd bit of Control register to enable one shot mode */
  62:Generated_Source\PSoC5/Sound_Counter.c ****                 Sound_Counter_CONTROL |= Sound_Counter_ONESHOT;
  63:Generated_Source\PSoC5/Sound_Counter.c ****             #endif /* (Sound_Counter_RunModeUsed != 0x0u) */
  64:Generated_Source\PSoC5/Sound_Counter.c ****             
  65:Generated_Source\PSoC5/Sound_Counter.c ****             /* Set the IRQ to use the status register interrupts */
  66:Generated_Source\PSoC5/Sound_Counter.c ****             Sound_Counter_CONTROL2 |= Sound_Counter_CTRL2_IRQ_SEL;
  67:Generated_Source\PSoC5/Sound_Counter.c ****             
  68:Generated_Source\PSoC5/Sound_Counter.c ****             /* Clear and Set SYNCTC and SYNCCMP bits of RT1 register */
  69:Generated_Source\PSoC5/Sound_Counter.c ****             Sound_Counter_RT1 &= ((uint8)(~Sound_Counter_RT1_MASK));
  70:Generated_Source\PSoC5/Sound_Counter.c ****             Sound_Counter_RT1 |= Sound_Counter_SYNC;     
  71:Generated_Source\PSoC5/Sound_Counter.c ****                     
  72:Generated_Source\PSoC5/Sound_Counter.c ****             /*Enable DSI Sync all all inputs of the Timer*/
  73:Generated_Source\PSoC5/Sound_Counter.c ****             Sound_Counter_RT1 &= ((uint8)(~Sound_Counter_SYNCDSI_MASK));
  74:Generated_Source\PSoC5/Sound_Counter.c ****             Sound_Counter_RT1 |= Sound_Counter_SYNCDSI_EN;
  75:Generated_Source\PSoC5/Sound_Counter.c **** 
  76:Generated_Source\PSoC5/Sound_Counter.c ****         #else
  77:Generated_Source\PSoC5/Sound_Counter.c ****             #if(!Sound_Counter_ControlRegRemoved)
  78:Generated_Source\PSoC5/Sound_Counter.c ****             /* Set the default compare mode defined in the parameter */
  79:Generated_Source\PSoC5/Sound_Counter.c ****             ctrl = Sound_Counter_CONTROL & ((uint8)(~Sound_Counter_CTRL_CMPMODE_MASK));
  80:Generated_Source\PSoC5/Sound_Counter.c ****             Sound_Counter_CONTROL = ctrl | Sound_Counter_DEFAULT_COMPARE_MODE;
  81:Generated_Source\PSoC5/Sound_Counter.c ****             
  82:Generated_Source\PSoC5/Sound_Counter.c ****             /* Set the default capture mode defined in the parameter */
  83:Generated_Source\PSoC5/Sound_Counter.c ****             ctrl = Sound_Counter_CONTROL & ((uint8)(~Sound_Counter_CTRL_CAPMODE_MASK));
  84:Generated_Source\PSoC5/Sound_Counter.c ****             
  85:Generated_Source\PSoC5/Sound_Counter.c ****             #if( 0 != Sound_Counter_CAPTURE_MODE_CONF)
  86:Generated_Source\PSoC5/Sound_Counter.c ****                 Sound_Counter_CONTROL = ctrl | Sound_Counter_DEFAULT_CAPTURE_MODE;
  87:Generated_Source\PSoC5/Sound_Counter.c ****             #else
ARM GAS  C:\Users\HPz420\AppData\Local\Temp\ccAeJGUf.s 			page 3


  88:Generated_Source\PSoC5/Sound_Counter.c ****                 Sound_Counter_CONTROL = ctrl;
  89:Generated_Source\PSoC5/Sound_Counter.c ****             #endif /* 0 != Sound_Counter_CAPTURE_MODE */ 
  90:Generated_Source\PSoC5/Sound_Counter.c ****             
  91:Generated_Source\PSoC5/Sound_Counter.c ****             #endif /* (!Sound_Counter_ControlRegRemoved) */
  92:Generated_Source\PSoC5/Sound_Counter.c ****         #endif /* (Sound_Counter_UsingFixedFunction) */
  93:Generated_Source\PSoC5/Sound_Counter.c ****         
  94:Generated_Source\PSoC5/Sound_Counter.c ****         /* Clear all data in the FIFO's */
  95:Generated_Source\PSoC5/Sound_Counter.c ****         #if (!Sound_Counter_UsingFixedFunction)
  96:Generated_Source\PSoC5/Sound_Counter.c ****             Sound_Counter_ClearFIFO();
  97:Generated_Source\PSoC5/Sound_Counter.c ****         #endif /* (!Sound_Counter_UsingFixedFunction) */
  98:Generated_Source\PSoC5/Sound_Counter.c ****         
  99:Generated_Source\PSoC5/Sound_Counter.c ****         /* Set Initial values from Configuration */
 100:Generated_Source\PSoC5/Sound_Counter.c ****         Sound_Counter_WritePeriod(Sound_Counter_INIT_PERIOD_VALUE);
 101:Generated_Source\PSoC5/Sound_Counter.c ****         #if (!(Sound_Counter_UsingFixedFunction && (CY_PSOC5A)))
 102:Generated_Source\PSoC5/Sound_Counter.c ****             Sound_Counter_WriteCounter(Sound_Counter_INIT_COUNTER_VALUE);
 103:Generated_Source\PSoC5/Sound_Counter.c ****         #endif /* (!(Sound_Counter_UsingFixedFunction && (CY_PSOC5A))) */
 104:Generated_Source\PSoC5/Sound_Counter.c ****         Sound_Counter_SetInterruptMode(Sound_Counter_INIT_INTERRUPTS_MASK);
 105:Generated_Source\PSoC5/Sound_Counter.c ****         
 106:Generated_Source\PSoC5/Sound_Counter.c ****         #if (!Sound_Counter_UsingFixedFunction)
 107:Generated_Source\PSoC5/Sound_Counter.c ****             /* Read the status register to clear the unwanted interrupts */
 108:Generated_Source\PSoC5/Sound_Counter.c ****             (void)Sound_Counter_ReadStatusRegister();
 109:Generated_Source\PSoC5/Sound_Counter.c ****             /* Set the compare value (only available to non-fixed function implementation */
 110:Generated_Source\PSoC5/Sound_Counter.c ****             Sound_Counter_WriteCompare(Sound_Counter_INIT_COMPARE_VALUE);
 111:Generated_Source\PSoC5/Sound_Counter.c ****             /* Use the interrupt output of the status register for IRQ output */
 112:Generated_Source\PSoC5/Sound_Counter.c ****             
 113:Generated_Source\PSoC5/Sound_Counter.c ****             /* CyEnterCriticalRegion and CyExitCriticalRegion are used to mark following region cri
 114:Generated_Source\PSoC5/Sound_Counter.c ****             /* Enter Critical Region*/
 115:Generated_Source\PSoC5/Sound_Counter.c ****             Sound_Counter_interruptState = CyEnterCriticalSection();
 116:Generated_Source\PSoC5/Sound_Counter.c ****             
 117:Generated_Source\PSoC5/Sound_Counter.c ****             Sound_Counter_STATUS_AUX_CTRL |= Sound_Counter_STATUS_ACTL_INT_EN_MASK;
 118:Generated_Source\PSoC5/Sound_Counter.c ****             
 119:Generated_Source\PSoC5/Sound_Counter.c ****             /* Exit Critical Region*/
 120:Generated_Source\PSoC5/Sound_Counter.c ****             CyExitCriticalSection(Sound_Counter_interruptState);
 121:Generated_Source\PSoC5/Sound_Counter.c ****             
 122:Generated_Source\PSoC5/Sound_Counter.c ****         #endif /* (!Sound_Counter_UsingFixedFunction) */
 123:Generated_Source\PSoC5/Sound_Counter.c **** }
 124:Generated_Source\PSoC5/Sound_Counter.c **** 
 125:Generated_Source\PSoC5/Sound_Counter.c **** 
 126:Generated_Source\PSoC5/Sound_Counter.c **** /*******************************************************************************
 127:Generated_Source\PSoC5/Sound_Counter.c **** * Function Name: Sound_Counter_Enable
 128:Generated_Source\PSoC5/Sound_Counter.c **** ********************************************************************************
 129:Generated_Source\PSoC5/Sound_Counter.c **** * Summary:
 130:Generated_Source\PSoC5/Sound_Counter.c **** *     Enable the Counter
 131:Generated_Source\PSoC5/Sound_Counter.c **** * 
 132:Generated_Source\PSoC5/Sound_Counter.c **** * Parameters:  
 133:Generated_Source\PSoC5/Sound_Counter.c **** *  void  
 134:Generated_Source\PSoC5/Sound_Counter.c **** *
 135:Generated_Source\PSoC5/Sound_Counter.c **** * Return: 
 136:Generated_Source\PSoC5/Sound_Counter.c **** *  void
 137:Generated_Source\PSoC5/Sound_Counter.c **** *
 138:Generated_Source\PSoC5/Sound_Counter.c **** * Side Effects: 
 139:Generated_Source\PSoC5/Sound_Counter.c **** *   If the Enable mode is set to Hardware only then this function has no effect 
 140:Generated_Source\PSoC5/Sound_Counter.c **** *   on the operation of the counter.
 141:Generated_Source\PSoC5/Sound_Counter.c **** *
 142:Generated_Source\PSoC5/Sound_Counter.c **** *******************************************************************************/
 143:Generated_Source\PSoC5/Sound_Counter.c **** void Sound_Counter_Enable(void) 
 144:Generated_Source\PSoC5/Sound_Counter.c **** {
ARM GAS  C:\Users\HPz420\AppData\Local\Temp\ccAeJGUf.s 			page 4


  28              		.loc 1 144 0
  29              		.cfi_startproc
  30              		@ args = 0, pretend = 0, frame = 0
  31              		@ frame_needed = 0, uses_anonymous_args = 0
  32              		@ link register save eliminated.
 145:Generated_Source\PSoC5/Sound_Counter.c ****     /* Globally Enable the Fixed Function Block chosen */
 146:Generated_Source\PSoC5/Sound_Counter.c ****     #if (Sound_Counter_UsingFixedFunction)
 147:Generated_Source\PSoC5/Sound_Counter.c ****         Sound_Counter_GLOBAL_ENABLE |= Sound_Counter_BLOCK_EN_MASK;
  33              		.loc 1 147 0
  34 0000 084A     		ldr	r2, .L2
  35 0002 1378     		ldrb	r3, [r2]	@ zero_extendqisi2
  36 0004 43F00103 		orr	r3, r3, #1
  37 0008 1370     		strb	r3, [r2]
 148:Generated_Source\PSoC5/Sound_Counter.c ****         Sound_Counter_GLOBAL_STBY_ENABLE |= Sound_Counter_BLOCK_STBY_EN_MASK;
  38              		.loc 1 148 0
  39 000a 1032     		adds	r2, r2, #16
  40 000c 1378     		ldrb	r3, [r2]	@ zero_extendqisi2
  41 000e 43F00103 		orr	r3, r3, #1
  42 0012 1370     		strb	r3, [r2]
 149:Generated_Source\PSoC5/Sound_Counter.c ****     #endif /* (Sound_Counter_UsingFixedFunction) */  
 150:Generated_Source\PSoC5/Sound_Counter.c ****         
 151:Generated_Source\PSoC5/Sound_Counter.c ****     /* Enable the counter from the control register  */
 152:Generated_Source\PSoC5/Sound_Counter.c ****     /* If Fixed Function then make sure Mode is set correctly */
 153:Generated_Source\PSoC5/Sound_Counter.c ****     /* else make sure reset is clear */
 154:Generated_Source\PSoC5/Sound_Counter.c ****     #if(!Sound_Counter_ControlRegRemoved || Sound_Counter_UsingFixedFunction)
 155:Generated_Source\PSoC5/Sound_Counter.c ****         Sound_Counter_CONTROL |= Sound_Counter_CTRL_ENABLE;                
  43              		.loc 1 155 0
  44 0014 02F64D32 		addw	r2, r2, #2893
  45 0018 1378     		ldrb	r3, [r2]	@ zero_extendqisi2
  46 001a 43F00103 		orr	r3, r3, #1
  47 001e 1370     		strb	r3, [r2]
  48 0020 7047     		bx	lr
  49              	.L3:
  50 0022 00BF     		.align	2
  51              	.L2:
  52 0024 A3430040 		.word	1073759139
  53              		.cfi_endproc
  54              	.LFE1:
  55              		.size	Sound_Counter_Enable, .-Sound_Counter_Enable
  56              		.section	.text.Sound_Counter_Stop,"ax",%progbits
  57              		.align	2
  58              		.global	Sound_Counter_Stop
  59              		.thumb
  60              		.thumb_func
  61              		.type	Sound_Counter_Stop, %function
  62              	Sound_Counter_Stop:
  63              	.LFB3:
 156:Generated_Source\PSoC5/Sound_Counter.c ****     #endif /* (!Sound_Counter_ControlRegRemoved || Sound_Counter_UsingFixedFunction) */
 157:Generated_Source\PSoC5/Sound_Counter.c ****     
 158:Generated_Source\PSoC5/Sound_Counter.c **** }
 159:Generated_Source\PSoC5/Sound_Counter.c **** 
 160:Generated_Source\PSoC5/Sound_Counter.c **** 
 161:Generated_Source\PSoC5/Sound_Counter.c **** /*******************************************************************************
 162:Generated_Source\PSoC5/Sound_Counter.c **** * Function Name: Sound_Counter_Start
 163:Generated_Source\PSoC5/Sound_Counter.c **** ********************************************************************************
 164:Generated_Source\PSoC5/Sound_Counter.c **** * Summary:
 165:Generated_Source\PSoC5/Sound_Counter.c **** *  Enables the counter for operation 
ARM GAS  C:\Users\HPz420\AppData\Local\Temp\ccAeJGUf.s 			page 5


 166:Generated_Source\PSoC5/Sound_Counter.c **** *
 167:Generated_Source\PSoC5/Sound_Counter.c **** * Parameters:  
 168:Generated_Source\PSoC5/Sound_Counter.c **** *  void  
 169:Generated_Source\PSoC5/Sound_Counter.c **** *
 170:Generated_Source\PSoC5/Sound_Counter.c **** * Return: 
 171:Generated_Source\PSoC5/Sound_Counter.c **** *  void
 172:Generated_Source\PSoC5/Sound_Counter.c **** *
 173:Generated_Source\PSoC5/Sound_Counter.c **** * Global variables:
 174:Generated_Source\PSoC5/Sound_Counter.c **** *  Sound_Counter_initVar: Is modified when this function is called for the  
 175:Generated_Source\PSoC5/Sound_Counter.c **** *   first time. Is used to ensure that initialization happens only once.
 176:Generated_Source\PSoC5/Sound_Counter.c **** *
 177:Generated_Source\PSoC5/Sound_Counter.c **** *******************************************************************************/
 178:Generated_Source\PSoC5/Sound_Counter.c **** void Sound_Counter_Start(void) 
 179:Generated_Source\PSoC5/Sound_Counter.c **** {
 180:Generated_Source\PSoC5/Sound_Counter.c ****     if(Sound_Counter_initVar == 0u)
 181:Generated_Source\PSoC5/Sound_Counter.c ****     {
 182:Generated_Source\PSoC5/Sound_Counter.c ****         Sound_Counter_Init();
 183:Generated_Source\PSoC5/Sound_Counter.c ****         
 184:Generated_Source\PSoC5/Sound_Counter.c ****         Sound_Counter_initVar = 1u; /* Clear this bit for Initialization */        
 185:Generated_Source\PSoC5/Sound_Counter.c ****     }
 186:Generated_Source\PSoC5/Sound_Counter.c ****     
 187:Generated_Source\PSoC5/Sound_Counter.c ****     /* Enable the Counter */
 188:Generated_Source\PSoC5/Sound_Counter.c ****     Sound_Counter_Enable();        
 189:Generated_Source\PSoC5/Sound_Counter.c **** }
 190:Generated_Source\PSoC5/Sound_Counter.c **** 
 191:Generated_Source\PSoC5/Sound_Counter.c **** 
 192:Generated_Source\PSoC5/Sound_Counter.c **** /*******************************************************************************
 193:Generated_Source\PSoC5/Sound_Counter.c **** * Function Name: Sound_Counter_Stop
 194:Generated_Source\PSoC5/Sound_Counter.c **** ********************************************************************************
 195:Generated_Source\PSoC5/Sound_Counter.c **** * Summary:
 196:Generated_Source\PSoC5/Sound_Counter.c **** * Halts the counter, but does not change any modes or disable interrupts.
 197:Generated_Source\PSoC5/Sound_Counter.c **** *
 198:Generated_Source\PSoC5/Sound_Counter.c **** * Parameters:  
 199:Generated_Source\PSoC5/Sound_Counter.c **** *  void  
 200:Generated_Source\PSoC5/Sound_Counter.c **** *
 201:Generated_Source\PSoC5/Sound_Counter.c **** * Return: 
 202:Generated_Source\PSoC5/Sound_Counter.c **** *  void
 203:Generated_Source\PSoC5/Sound_Counter.c **** *
 204:Generated_Source\PSoC5/Sound_Counter.c **** * Side Effects: If the Enable mode is set to Hardware only then this function
 205:Generated_Source\PSoC5/Sound_Counter.c **** *               has no effect on the operation of the counter.
 206:Generated_Source\PSoC5/Sound_Counter.c **** *
 207:Generated_Source\PSoC5/Sound_Counter.c **** *******************************************************************************/
 208:Generated_Source\PSoC5/Sound_Counter.c **** void Sound_Counter_Stop(void) 
 209:Generated_Source\PSoC5/Sound_Counter.c **** {
  64              		.loc 1 209 0
  65              		.cfi_startproc
  66              		@ args = 0, pretend = 0, frame = 0
  67              		@ frame_needed = 0, uses_anonymous_args = 0
  68              		@ link register save eliminated.
 210:Generated_Source\PSoC5/Sound_Counter.c ****     /* Disable Counter */
 211:Generated_Source\PSoC5/Sound_Counter.c ****     #if(!Sound_Counter_ControlRegRemoved || Sound_Counter_UsingFixedFunction)
 212:Generated_Source\PSoC5/Sound_Counter.c ****         Sound_Counter_CONTROL &= ((uint8)(~Sound_Counter_CTRL_ENABLE));        
  69              		.loc 1 212 0
  70 0000 084A     		ldr	r2, .L5
  71 0002 1378     		ldrb	r3, [r2]	@ zero_extendqisi2
  72 0004 03F0FE03 		and	r3, r3, #254
  73 0008 1370     		strb	r3, [r2]
ARM GAS  C:\Users\HPz420\AppData\Local\Temp\ccAeJGUf.s 			page 6


 213:Generated_Source\PSoC5/Sound_Counter.c ****     #endif /* (!Sound_Counter_ControlRegRemoved || Sound_Counter_UsingFixedFunction) */
 214:Generated_Source\PSoC5/Sound_Counter.c ****     
 215:Generated_Source\PSoC5/Sound_Counter.c ****     /* Globally disable the Fixed Function Block chosen */
 216:Generated_Source\PSoC5/Sound_Counter.c ****     #if (Sound_Counter_UsingFixedFunction)
 217:Generated_Source\PSoC5/Sound_Counter.c ****         Sound_Counter_GLOBAL_ENABLE &= ((uint8)(~Sound_Counter_BLOCK_EN_MASK));
  74              		.loc 1 217 0
  75 000a A2F65D32 		subw	r2, r2, #2909
  76 000e 1378     		ldrb	r3, [r2]	@ zero_extendqisi2
  77 0010 03F0FE03 		and	r3, r3, #254
  78 0014 1370     		strb	r3, [r2]
 218:Generated_Source\PSoC5/Sound_Counter.c ****         Sound_Counter_GLOBAL_STBY_ENABLE &= ((uint8)(~Sound_Counter_BLOCK_STBY_EN_MASK));
  79              		.loc 1 218 0
  80 0016 1032     		adds	r2, r2, #16
  81 0018 1378     		ldrb	r3, [r2]	@ zero_extendqisi2
  82 001a 03F0FE03 		and	r3, r3, #254
  83 001e 1370     		strb	r3, [r2]
  84 0020 7047     		bx	lr
  85              	.L6:
  86 0022 00BF     		.align	2
  87              	.L5:
  88 0024 004F0040 		.word	1073762048
  89              		.cfi_endproc
  90              	.LFE3:
  91              		.size	Sound_Counter_Stop, .-Sound_Counter_Stop
  92              		.section	.text.Sound_Counter_SetInterruptMode,"ax",%progbits
  93              		.align	2
  94              		.global	Sound_Counter_SetInterruptMode
  95              		.thumb
  96              		.thumb_func
  97              		.type	Sound_Counter_SetInterruptMode, %function
  98              	Sound_Counter_SetInterruptMode:
  99              	.LFB4:
 219:Generated_Source\PSoC5/Sound_Counter.c ****     #endif /* (Sound_Counter_UsingFixedFunction) */
 220:Generated_Source\PSoC5/Sound_Counter.c **** }
 221:Generated_Source\PSoC5/Sound_Counter.c **** 
 222:Generated_Source\PSoC5/Sound_Counter.c **** 
 223:Generated_Source\PSoC5/Sound_Counter.c **** /*******************************************************************************
 224:Generated_Source\PSoC5/Sound_Counter.c **** * Function Name: Sound_Counter_SetInterruptMode
 225:Generated_Source\PSoC5/Sound_Counter.c **** ********************************************************************************
 226:Generated_Source\PSoC5/Sound_Counter.c **** * Summary:
 227:Generated_Source\PSoC5/Sound_Counter.c **** * Configures which interrupt sources are enabled to generate the final interrupt
 228:Generated_Source\PSoC5/Sound_Counter.c **** *
 229:Generated_Source\PSoC5/Sound_Counter.c **** * Parameters:  
 230:Generated_Source\PSoC5/Sound_Counter.c **** *  InterruptsMask: This parameter is an or'd collection of the status bits
 231:Generated_Source\PSoC5/Sound_Counter.c **** *                   which will be allowed to generate the counters interrupt.   
 232:Generated_Source\PSoC5/Sound_Counter.c **** *
 233:Generated_Source\PSoC5/Sound_Counter.c **** * Return: 
 234:Generated_Source\PSoC5/Sound_Counter.c **** *  void
 235:Generated_Source\PSoC5/Sound_Counter.c **** *
 236:Generated_Source\PSoC5/Sound_Counter.c **** *******************************************************************************/
 237:Generated_Source\PSoC5/Sound_Counter.c **** void Sound_Counter_SetInterruptMode(uint8 interruptsMask) 
 238:Generated_Source\PSoC5/Sound_Counter.c **** {
 100              		.loc 1 238 0
 101              		.cfi_startproc
 102              		@ args = 0, pretend = 0, frame = 0
 103              		@ frame_needed = 0, uses_anonymous_args = 0
 104              		@ link register save eliminated.
ARM GAS  C:\Users\HPz420\AppData\Local\Temp\ccAeJGUf.s 			page 7


 105              	.LVL0:
 239:Generated_Source\PSoC5/Sound_Counter.c ****     Sound_Counter_STATUS_MASK = interruptsMask;
 106              		.loc 1 239 0
 107 0000 014B     		ldr	r3, .L8
 108 0002 1870     		strb	r0, [r3]
 109 0004 7047     		bx	lr
 110              	.L9:
 111 0006 00BF     		.align	2
 112              	.L8:
 113 0008 034F0040 		.word	1073762051
 114              		.cfi_endproc
 115              	.LFE4:
 116              		.size	Sound_Counter_SetInterruptMode, .-Sound_Counter_SetInterruptMode
 117              		.section	.text.Sound_Counter_ReadStatusRegister,"ax",%progbits
 118              		.align	2
 119              		.global	Sound_Counter_ReadStatusRegister
 120              		.thumb
 121              		.thumb_func
 122              		.type	Sound_Counter_ReadStatusRegister, %function
 123              	Sound_Counter_ReadStatusRegister:
 124              	.LFB5:
 240:Generated_Source\PSoC5/Sound_Counter.c **** }
 241:Generated_Source\PSoC5/Sound_Counter.c **** 
 242:Generated_Source\PSoC5/Sound_Counter.c **** 
 243:Generated_Source\PSoC5/Sound_Counter.c **** /*******************************************************************************
 244:Generated_Source\PSoC5/Sound_Counter.c **** * Function Name: Sound_Counter_ReadStatusRegister
 245:Generated_Source\PSoC5/Sound_Counter.c **** ********************************************************************************
 246:Generated_Source\PSoC5/Sound_Counter.c **** * Summary:
 247:Generated_Source\PSoC5/Sound_Counter.c **** *   Reads the status register and returns it's state. This function should use
 248:Generated_Source\PSoC5/Sound_Counter.c **** *       defined types for the bit-field information as the bits in this
 249:Generated_Source\PSoC5/Sound_Counter.c **** *       register may be permuteable.
 250:Generated_Source\PSoC5/Sound_Counter.c **** *
 251:Generated_Source\PSoC5/Sound_Counter.c **** * Parameters:  
 252:Generated_Source\PSoC5/Sound_Counter.c **** *  void
 253:Generated_Source\PSoC5/Sound_Counter.c **** *
 254:Generated_Source\PSoC5/Sound_Counter.c **** * Return: 
 255:Generated_Source\PSoC5/Sound_Counter.c **** *  (uint8) The contents of the status register
 256:Generated_Source\PSoC5/Sound_Counter.c **** *
 257:Generated_Source\PSoC5/Sound_Counter.c **** * Side Effects:
 258:Generated_Source\PSoC5/Sound_Counter.c **** *   Status register bits may be clear on read. 
 259:Generated_Source\PSoC5/Sound_Counter.c **** *
 260:Generated_Source\PSoC5/Sound_Counter.c **** *******************************************************************************/
 261:Generated_Source\PSoC5/Sound_Counter.c **** uint8   Sound_Counter_ReadStatusRegister(void) 
 262:Generated_Source\PSoC5/Sound_Counter.c **** {
 125              		.loc 1 262 0
 126              		.cfi_startproc
 127              		@ args = 0, pretend = 0, frame = 0
 128              		@ frame_needed = 0, uses_anonymous_args = 0
 129              		@ link register save eliminated.
 263:Generated_Source\PSoC5/Sound_Counter.c ****     return Sound_Counter_STATUS;
 130              		.loc 1 263 0
 131 0000 014B     		ldr	r3, .L11
 132 0002 1878     		ldrb	r0, [r3]	@ zero_extendqisi2
 264:Generated_Source\PSoC5/Sound_Counter.c **** }
 133              		.loc 1 264 0
 134 0004 7047     		bx	lr
 135              	.L12:
ARM GAS  C:\Users\HPz420\AppData\Local\Temp\ccAeJGUf.s 			page 8


 136 0006 00BF     		.align	2
 137              	.L11:
 138 0008 034F0040 		.word	1073762051
 139              		.cfi_endproc
 140              	.LFE5:
 141              		.size	Sound_Counter_ReadStatusRegister, .-Sound_Counter_ReadStatusRegister
 142              		.section	.text.Sound_Counter_ReadControlRegister,"ax",%progbits
 143              		.align	2
 144              		.global	Sound_Counter_ReadControlRegister
 145              		.thumb
 146              		.thumb_func
 147              		.type	Sound_Counter_ReadControlRegister, %function
 148              	Sound_Counter_ReadControlRegister:
 149              	.LFB6:
 265:Generated_Source\PSoC5/Sound_Counter.c **** 
 266:Generated_Source\PSoC5/Sound_Counter.c **** 
 267:Generated_Source\PSoC5/Sound_Counter.c **** #if(!Sound_Counter_ControlRegRemoved)
 268:Generated_Source\PSoC5/Sound_Counter.c **** /*******************************************************************************
 269:Generated_Source\PSoC5/Sound_Counter.c **** * Function Name: Sound_Counter_ReadControlRegister
 270:Generated_Source\PSoC5/Sound_Counter.c **** ********************************************************************************
 271:Generated_Source\PSoC5/Sound_Counter.c **** * Summary:
 272:Generated_Source\PSoC5/Sound_Counter.c **** *   Reads the control register and returns it's state. This function should use
 273:Generated_Source\PSoC5/Sound_Counter.c **** *       defined types for the bit-field information as the bits in this
 274:Generated_Source\PSoC5/Sound_Counter.c **** *       register may be permuteable.
 275:Generated_Source\PSoC5/Sound_Counter.c **** *
 276:Generated_Source\PSoC5/Sound_Counter.c **** * Parameters:  
 277:Generated_Source\PSoC5/Sound_Counter.c **** *  void
 278:Generated_Source\PSoC5/Sound_Counter.c **** *
 279:Generated_Source\PSoC5/Sound_Counter.c **** * Return: 
 280:Generated_Source\PSoC5/Sound_Counter.c **** *  (uint8) The contents of the control register
 281:Generated_Source\PSoC5/Sound_Counter.c **** *
 282:Generated_Source\PSoC5/Sound_Counter.c **** *******************************************************************************/
 283:Generated_Source\PSoC5/Sound_Counter.c **** uint8   Sound_Counter_ReadControlRegister(void) 
 284:Generated_Source\PSoC5/Sound_Counter.c **** {
 150              		.loc 1 284 0
 151              		.cfi_startproc
 152              		@ args = 0, pretend = 0, frame = 0
 153              		@ frame_needed = 0, uses_anonymous_args = 0
 154              		@ link register save eliminated.
 285:Generated_Source\PSoC5/Sound_Counter.c ****     return Sound_Counter_CONTROL;
 155              		.loc 1 285 0
 156 0000 014B     		ldr	r3, .L14
 157 0002 1878     		ldrb	r0, [r3]	@ zero_extendqisi2
 286:Generated_Source\PSoC5/Sound_Counter.c **** }
 158              		.loc 1 286 0
 159 0004 7047     		bx	lr
 160              	.L15:
 161 0006 00BF     		.align	2
 162              	.L14:
 163 0008 004F0040 		.word	1073762048
 164              		.cfi_endproc
 165              	.LFE6:
 166              		.size	Sound_Counter_ReadControlRegister, .-Sound_Counter_ReadControlRegister
 167              		.section	.text.Sound_Counter_WriteControlRegister,"ax",%progbits
 168              		.align	2
 169              		.global	Sound_Counter_WriteControlRegister
 170              		.thumb
ARM GAS  C:\Users\HPz420\AppData\Local\Temp\ccAeJGUf.s 			page 9


 171              		.thumb_func
 172              		.type	Sound_Counter_WriteControlRegister, %function
 173              	Sound_Counter_WriteControlRegister:
 174              	.LFB7:
 287:Generated_Source\PSoC5/Sound_Counter.c **** 
 288:Generated_Source\PSoC5/Sound_Counter.c **** 
 289:Generated_Source\PSoC5/Sound_Counter.c **** /*******************************************************************************
 290:Generated_Source\PSoC5/Sound_Counter.c **** * Function Name: Sound_Counter_WriteControlRegister
 291:Generated_Source\PSoC5/Sound_Counter.c **** ********************************************************************************
 292:Generated_Source\PSoC5/Sound_Counter.c **** * Summary:
 293:Generated_Source\PSoC5/Sound_Counter.c **** *   Sets the bit-field of the control register.  This function should use
 294:Generated_Source\PSoC5/Sound_Counter.c **** *       defined types for the bit-field information as the bits in this
 295:Generated_Source\PSoC5/Sound_Counter.c **** *       register may be permuteable.
 296:Generated_Source\PSoC5/Sound_Counter.c **** *
 297:Generated_Source\PSoC5/Sound_Counter.c **** * Parameters:  
 298:Generated_Source\PSoC5/Sound_Counter.c **** *  void
 299:Generated_Source\PSoC5/Sound_Counter.c **** *
 300:Generated_Source\PSoC5/Sound_Counter.c **** * Return: 
 301:Generated_Source\PSoC5/Sound_Counter.c **** *  (uint8) The contents of the control register
 302:Generated_Source\PSoC5/Sound_Counter.c **** *
 303:Generated_Source\PSoC5/Sound_Counter.c **** *******************************************************************************/
 304:Generated_Source\PSoC5/Sound_Counter.c **** void    Sound_Counter_WriteControlRegister(uint8 control) 
 305:Generated_Source\PSoC5/Sound_Counter.c **** {
 175              		.loc 1 305 0
 176              		.cfi_startproc
 177              		@ args = 0, pretend = 0, frame = 0
 178              		@ frame_needed = 0, uses_anonymous_args = 0
 179              		@ link register save eliminated.
 180              	.LVL1:
 306:Generated_Source\PSoC5/Sound_Counter.c ****     Sound_Counter_CONTROL = control;
 181              		.loc 1 306 0
 182 0000 014B     		ldr	r3, .L17
 183 0002 1870     		strb	r0, [r3]
 184 0004 7047     		bx	lr
 185              	.L18:
 186 0006 00BF     		.align	2
 187              	.L17:
 188 0008 004F0040 		.word	1073762048
 189              		.cfi_endproc
 190              	.LFE7:
 191              		.size	Sound_Counter_WriteControlRegister, .-Sound_Counter_WriteControlRegister
 192              		.section	.text.Sound_Counter_WriteCounter,"ax",%progbits
 193              		.align	2
 194              		.global	Sound_Counter_WriteCounter
 195              		.thumb
 196              		.thumb_func
 197              		.type	Sound_Counter_WriteCounter, %function
 198              	Sound_Counter_WriteCounter:
 199              	.LFB8:
 307:Generated_Source\PSoC5/Sound_Counter.c **** }
 308:Generated_Source\PSoC5/Sound_Counter.c **** 
 309:Generated_Source\PSoC5/Sound_Counter.c **** #endif  /* (!Sound_Counter_ControlRegRemoved) */
 310:Generated_Source\PSoC5/Sound_Counter.c **** 
 311:Generated_Source\PSoC5/Sound_Counter.c **** 
 312:Generated_Source\PSoC5/Sound_Counter.c **** #if (!(Sound_Counter_UsingFixedFunction && (CY_PSOC5A)))
 313:Generated_Source\PSoC5/Sound_Counter.c **** /*******************************************************************************
 314:Generated_Source\PSoC5/Sound_Counter.c **** * Function Name: Sound_Counter_WriteCounter
ARM GAS  C:\Users\HPz420\AppData\Local\Temp\ccAeJGUf.s 			page 10


 315:Generated_Source\PSoC5/Sound_Counter.c **** ********************************************************************************
 316:Generated_Source\PSoC5/Sound_Counter.c **** * Summary:
 317:Generated_Source\PSoC5/Sound_Counter.c **** *   This funtion is used to set the counter to a specific value
 318:Generated_Source\PSoC5/Sound_Counter.c **** *
 319:Generated_Source\PSoC5/Sound_Counter.c **** * Parameters:  
 320:Generated_Source\PSoC5/Sound_Counter.c **** *  counter:  New counter value. 
 321:Generated_Source\PSoC5/Sound_Counter.c **** *
 322:Generated_Source\PSoC5/Sound_Counter.c **** * Return: 
 323:Generated_Source\PSoC5/Sound_Counter.c **** *  void 
 324:Generated_Source\PSoC5/Sound_Counter.c **** *
 325:Generated_Source\PSoC5/Sound_Counter.c **** *******************************************************************************/
 326:Generated_Source\PSoC5/Sound_Counter.c **** void Sound_Counter_WriteCounter(uint16 counter) \
 327:Generated_Source\PSoC5/Sound_Counter.c ****                                    
 328:Generated_Source\PSoC5/Sound_Counter.c **** {
 200              		.loc 1 328 0
 201              		.cfi_startproc
 202              		@ args = 0, pretend = 0, frame = 0
 203              		@ frame_needed = 0, uses_anonymous_args = 0
 204              	.LVL2:
 205 0000 10B5     		push	{r4, lr}
 206              		.cfi_def_cfa_offset 8
 207              		.cfi_offset 4, -8
 208              		.cfi_offset 14, -4
 209 0002 0446     		mov	r4, r0
 329:Generated_Source\PSoC5/Sound_Counter.c ****     #if(Sound_Counter_UsingFixedFunction)
 330:Generated_Source\PSoC5/Sound_Counter.c ****         /* assert if block is already enabled */
 331:Generated_Source\PSoC5/Sound_Counter.c ****         CYASSERT (0u == (Sound_Counter_GLOBAL_ENABLE & Sound_Counter_BLOCK_EN_MASK));
 210              		.loc 1 331 0
 211 0004 094B     		ldr	r3, .L22
 212 0006 1B78     		ldrb	r3, [r3]	@ zero_extendqisi2
 213 0008 13F0010F 		tst	r3, #1
 214 000c 02D0     		beq	.L20
 215              		.loc 1 331 0 is_stmt 0 discriminator 1
 216 000e 0020     		movs	r0, #0
 217              	.LVL3:
 218 0010 FFF7FEFF 		bl	CyHalt
 219              	.LVL4:
 220              	.L20:
 332:Generated_Source\PSoC5/Sound_Counter.c ****         /* If block is disabled, enable it and then write the counter */
 333:Generated_Source\PSoC5/Sound_Counter.c ****         Sound_Counter_GLOBAL_ENABLE |= Sound_Counter_BLOCK_EN_MASK;
 221              		.loc 1 333 0 is_stmt 1
 222 0014 054B     		ldr	r3, .L22
 223 0016 1A78     		ldrb	r2, [r3]	@ zero_extendqisi2
 224 0018 42F00102 		orr	r2, r2, #1
 225 001c 1A70     		strb	r2, [r3]
 334:Generated_Source\PSoC5/Sound_Counter.c ****         CY_SET_REG16(Sound_Counter_COUNTER_LSB_PTR, (uint16)counter);
 226              		.loc 1 334 0
 227 001e 044A     		ldr	r2, .L22+4
 228 0020 1480     		strh	r4, [r2]	@ movhi
 335:Generated_Source\PSoC5/Sound_Counter.c ****         Sound_Counter_GLOBAL_ENABLE &= ((uint8)(~Sound_Counter_BLOCK_EN_MASK));
 229              		.loc 1 335 0
 230 0022 1A78     		ldrb	r2, [r3]	@ zero_extendqisi2
 231 0024 02F0FE02 		and	r2, r2, #254
 232 0028 1A70     		strb	r2, [r3]
 233 002a 10BD     		pop	{r4, pc}
 234              	.L23:
 235              		.align	2
ARM GAS  C:\Users\HPz420\AppData\Local\Temp\ccAeJGUf.s 			page 11


 236              	.L22:
 237 002c A3430040 		.word	1073759139
 238 0030 064F0040 		.word	1073762054
 239              		.cfi_endproc
 240              	.LFE8:
 241              		.size	Sound_Counter_WriteCounter, .-Sound_Counter_WriteCounter
 242              		.section	.text.Sound_Counter_ReadCounter,"ax",%progbits
 243              		.align	2
 244              		.global	Sound_Counter_ReadCounter
 245              		.thumb
 246              		.thumb_func
 247              		.type	Sound_Counter_ReadCounter, %function
 248              	Sound_Counter_ReadCounter:
 249              	.LFB9:
 336:Generated_Source\PSoC5/Sound_Counter.c ****     #else
 337:Generated_Source\PSoC5/Sound_Counter.c ****         CY_SET_REG16(Sound_Counter_COUNTER_LSB_PTR, counter);
 338:Generated_Source\PSoC5/Sound_Counter.c ****     #endif /* (Sound_Counter_UsingFixedFunction) */
 339:Generated_Source\PSoC5/Sound_Counter.c **** }
 340:Generated_Source\PSoC5/Sound_Counter.c **** #endif /* (!(Sound_Counter_UsingFixedFunction && (CY_PSOC5A))) */
 341:Generated_Source\PSoC5/Sound_Counter.c **** 
 342:Generated_Source\PSoC5/Sound_Counter.c **** 
 343:Generated_Source\PSoC5/Sound_Counter.c **** /*******************************************************************************
 344:Generated_Source\PSoC5/Sound_Counter.c **** * Function Name: Sound_Counter_ReadCounter
 345:Generated_Source\PSoC5/Sound_Counter.c **** ********************************************************************************
 346:Generated_Source\PSoC5/Sound_Counter.c **** * Summary:
 347:Generated_Source\PSoC5/Sound_Counter.c **** * Returns the current value of the counter.  It doesn't matter
 348:Generated_Source\PSoC5/Sound_Counter.c **** * if the counter is enabled or running.
 349:Generated_Source\PSoC5/Sound_Counter.c **** *
 350:Generated_Source\PSoC5/Sound_Counter.c **** * Parameters:  
 351:Generated_Source\PSoC5/Sound_Counter.c **** *  void:  
 352:Generated_Source\PSoC5/Sound_Counter.c **** *
 353:Generated_Source\PSoC5/Sound_Counter.c **** * Return: 
 354:Generated_Source\PSoC5/Sound_Counter.c **** *  (uint16) The present value of the counter.
 355:Generated_Source\PSoC5/Sound_Counter.c **** *
 356:Generated_Source\PSoC5/Sound_Counter.c **** *******************************************************************************/
 357:Generated_Source\PSoC5/Sound_Counter.c **** uint16 Sound_Counter_ReadCounter(void) 
 358:Generated_Source\PSoC5/Sound_Counter.c **** {
 250              		.loc 1 358 0
 251              		.cfi_startproc
 252              		@ args = 0, pretend = 0, frame = 0
 253              		@ frame_needed = 0, uses_anonymous_args = 0
 254              		@ link register save eliminated.
 359:Generated_Source\PSoC5/Sound_Counter.c ****     /* Force capture by reading Accumulator */
 360:Generated_Source\PSoC5/Sound_Counter.c ****     /* Must first do a software capture to be able to read the counter */
 361:Generated_Source\PSoC5/Sound_Counter.c ****     /* It is up to the user code to make sure there isn't already captured data in the FIFO */
 362:Generated_Source\PSoC5/Sound_Counter.c ****     #if(Sound_Counter_UsingFixedFunction)
 363:Generated_Source\PSoC5/Sound_Counter.c **** 		(void)CY_GET_REG16(Sound_Counter_COUNTER_LSB_PTR);
 255              		.loc 1 363 0
 256 0000 024B     		ldr	r3, .L25
 257 0002 1B88     		ldrh	r3, [r3]
 364:Generated_Source\PSoC5/Sound_Counter.c **** 	#else
 365:Generated_Source\PSoC5/Sound_Counter.c **** 		(void)CY_GET_REG8(Sound_Counter_COUNTER_LSB_PTR_8BIT);
 366:Generated_Source\PSoC5/Sound_Counter.c **** 	#endif/* (Sound_Counter_UsingFixedFunction) */
 367:Generated_Source\PSoC5/Sound_Counter.c ****     
 368:Generated_Source\PSoC5/Sound_Counter.c ****     /* Read the data from the FIFO (or capture register for Fixed Function)*/
 369:Generated_Source\PSoC5/Sound_Counter.c ****     #if(Sound_Counter_UsingFixedFunction)
 370:Generated_Source\PSoC5/Sound_Counter.c ****         return ((uint16)CY_GET_REG16(Sound_Counter_STATICCOUNT_LSB_PTR));
ARM GAS  C:\Users\HPz420\AppData\Local\Temp\ccAeJGUf.s 			page 12


 258              		.loc 1 370 0
 259 0004 024B     		ldr	r3, .L25+4
 260 0006 1888     		ldrh	r0, [r3]
 371:Generated_Source\PSoC5/Sound_Counter.c ****     #else
 372:Generated_Source\PSoC5/Sound_Counter.c ****         return (CY_GET_REG16(Sound_Counter_STATICCOUNT_LSB_PTR));
 373:Generated_Source\PSoC5/Sound_Counter.c ****     #endif /* (Sound_Counter_UsingFixedFunction) */
 374:Generated_Source\PSoC5/Sound_Counter.c **** }
 261              		.loc 1 374 0
 262 0008 80B2     		uxth	r0, r0
 263 000a 7047     		bx	lr
 264              	.L26:
 265              		.align	2
 266              	.L25:
 267 000c 064F0040 		.word	1073762054
 268 0010 084F0040 		.word	1073762056
 269              		.cfi_endproc
 270              	.LFE9:
 271              		.size	Sound_Counter_ReadCounter, .-Sound_Counter_ReadCounter
 272              		.section	.text.Sound_Counter_ReadCapture,"ax",%progbits
 273              		.align	2
 274              		.global	Sound_Counter_ReadCapture
 275              		.thumb
 276              		.thumb_func
 277              		.type	Sound_Counter_ReadCapture, %function
 278              	Sound_Counter_ReadCapture:
 279              	.LFB10:
 375:Generated_Source\PSoC5/Sound_Counter.c **** 
 376:Generated_Source\PSoC5/Sound_Counter.c **** 
 377:Generated_Source\PSoC5/Sound_Counter.c **** /*******************************************************************************
 378:Generated_Source\PSoC5/Sound_Counter.c **** * Function Name: Sound_Counter_ReadCapture
 379:Generated_Source\PSoC5/Sound_Counter.c **** ********************************************************************************
 380:Generated_Source\PSoC5/Sound_Counter.c **** * Summary:
 381:Generated_Source\PSoC5/Sound_Counter.c **** *   This function returns the last value captured.
 382:Generated_Source\PSoC5/Sound_Counter.c **** *
 383:Generated_Source\PSoC5/Sound_Counter.c **** * Parameters:  
 384:Generated_Source\PSoC5/Sound_Counter.c **** *  void
 385:Generated_Source\PSoC5/Sound_Counter.c **** *
 386:Generated_Source\PSoC5/Sound_Counter.c **** * Return: 
 387:Generated_Source\PSoC5/Sound_Counter.c **** *  (uint16) Present Capture value.
 388:Generated_Source\PSoC5/Sound_Counter.c **** *
 389:Generated_Source\PSoC5/Sound_Counter.c **** *******************************************************************************/
 390:Generated_Source\PSoC5/Sound_Counter.c **** uint16 Sound_Counter_ReadCapture(void) 
 391:Generated_Source\PSoC5/Sound_Counter.c **** {
 280              		.loc 1 391 0
 281              		.cfi_startproc
 282              		@ args = 0, pretend = 0, frame = 0
 283              		@ frame_needed = 0, uses_anonymous_args = 0
 284              		@ link register save eliminated.
 392:Generated_Source\PSoC5/Sound_Counter.c ****     #if(Sound_Counter_UsingFixedFunction)
 393:Generated_Source\PSoC5/Sound_Counter.c ****         return ((uint16)CY_GET_REG16(Sound_Counter_STATICCOUNT_LSB_PTR));
 285              		.loc 1 393 0
 286 0000 014B     		ldr	r3, .L28
 287 0002 1888     		ldrh	r0, [r3]
 394:Generated_Source\PSoC5/Sound_Counter.c ****     #else
 395:Generated_Source\PSoC5/Sound_Counter.c ****         return (CY_GET_REG16(Sound_Counter_STATICCOUNT_LSB_PTR));
 396:Generated_Source\PSoC5/Sound_Counter.c ****     #endif /* (Sound_Counter_UsingFixedFunction) */
 397:Generated_Source\PSoC5/Sound_Counter.c **** }
ARM GAS  C:\Users\HPz420\AppData\Local\Temp\ccAeJGUf.s 			page 13


 288              		.loc 1 397 0
 289 0004 80B2     		uxth	r0, r0
 290 0006 7047     		bx	lr
 291              	.L29:
 292              		.align	2
 293              	.L28:
 294 0008 084F0040 		.word	1073762056
 295              		.cfi_endproc
 296              	.LFE10:
 297              		.size	Sound_Counter_ReadCapture, .-Sound_Counter_ReadCapture
 298              		.section	.text.Sound_Counter_WritePeriod,"ax",%progbits
 299              		.align	2
 300              		.global	Sound_Counter_WritePeriod
 301              		.thumb
 302              		.thumb_func
 303              		.type	Sound_Counter_WritePeriod, %function
 304              	Sound_Counter_WritePeriod:
 305              	.LFB11:
 398:Generated_Source\PSoC5/Sound_Counter.c **** 
 399:Generated_Source\PSoC5/Sound_Counter.c **** 
 400:Generated_Source\PSoC5/Sound_Counter.c **** /*******************************************************************************
 401:Generated_Source\PSoC5/Sound_Counter.c **** * Function Name: Sound_Counter_WritePeriod
 402:Generated_Source\PSoC5/Sound_Counter.c **** ********************************************************************************
 403:Generated_Source\PSoC5/Sound_Counter.c **** * Summary:
 404:Generated_Source\PSoC5/Sound_Counter.c **** * Changes the period of the counter.  The new period 
 405:Generated_Source\PSoC5/Sound_Counter.c **** * will be loaded the next time terminal count is detected.
 406:Generated_Source\PSoC5/Sound_Counter.c **** *
 407:Generated_Source\PSoC5/Sound_Counter.c **** * Parameters:  
 408:Generated_Source\PSoC5/Sound_Counter.c **** *  period: (uint16) A value of 0 will result in
 409:Generated_Source\PSoC5/Sound_Counter.c **** *         the counter remaining at zero.  
 410:Generated_Source\PSoC5/Sound_Counter.c **** *
 411:Generated_Source\PSoC5/Sound_Counter.c **** * Return: 
 412:Generated_Source\PSoC5/Sound_Counter.c **** *  void
 413:Generated_Source\PSoC5/Sound_Counter.c **** *
 414:Generated_Source\PSoC5/Sound_Counter.c **** *******************************************************************************/
 415:Generated_Source\PSoC5/Sound_Counter.c **** void Sound_Counter_WritePeriod(uint16 period) 
 416:Generated_Source\PSoC5/Sound_Counter.c **** {
 306              		.loc 1 416 0
 307              		.cfi_startproc
 308              		@ args = 0, pretend = 0, frame = 0
 309              		@ frame_needed = 0, uses_anonymous_args = 0
 310              		@ link register save eliminated.
 311              	.LVL5:
 417:Generated_Source\PSoC5/Sound_Counter.c ****     #if(Sound_Counter_UsingFixedFunction)
 418:Generated_Source\PSoC5/Sound_Counter.c ****         CY_SET_REG16(Sound_Counter_PERIOD_LSB_PTR,(uint16)period);
 312              		.loc 1 418 0
 313 0000 014B     		ldr	r3, .L31
 314 0002 1880     		strh	r0, [r3]	@ movhi
 315 0004 7047     		bx	lr
 316              	.L32:
 317 0006 00BF     		.align	2
 318              	.L31:
 319 0008 044F0040 		.word	1073762052
 320              		.cfi_endproc
 321              	.LFE11:
 322              		.size	Sound_Counter_WritePeriod, .-Sound_Counter_WritePeriod
 323              		.section	.text.Sound_Counter_Init,"ax",%progbits
ARM GAS  C:\Users\HPz420\AppData\Local\Temp\ccAeJGUf.s 			page 14


 324              		.align	2
 325              		.global	Sound_Counter_Init
 326              		.thumb
 327              		.thumb_func
 328              		.type	Sound_Counter_Init, %function
 329              	Sound_Counter_Init:
 330              	.LFB0:
  38:Generated_Source\PSoC5/Sound_Counter.c ****         #if (!Sound_Counter_UsingFixedFunction && !Sound_Counter_ControlRegRemoved)
 331              		.loc 1 38 0
 332              		.cfi_startproc
 333              		@ args = 0, pretend = 0, frame = 0
 334              		@ frame_needed = 0, uses_anonymous_args = 0
 335 0000 08B5     		push	{r3, lr}
 336              		.cfi_def_cfa_offset 8
 337              		.cfi_offset 3, -8
 338              		.cfi_offset 14, -4
  50:Generated_Source\PSoC5/Sound_Counter.c ****             
 339              		.loc 1 50 0
 340 0002 164A     		ldr	r2, .L35
 341 0004 1378     		ldrb	r3, [r2]	@ zero_extendqisi2
 342 0006 03F00103 		and	r3, r3, #1
 343 000a 1370     		strb	r3, [r2]
  57:Generated_Source\PSoC5/Sound_Counter.c ****             #endif /* (CY_PSOC3 || CY_PSOC5LP) */
 344              		.loc 1 57 0
 345 000c 0232     		adds	r2, r2, #2
 346 000e 1378     		ldrb	r3, [r2]	@ zero_extendqisi2
 347 0010 03F0FC03 		and	r3, r3, #252
 348 0014 1370     		strb	r3, [r2]
  66:Generated_Source\PSoC5/Sound_Counter.c ****             
 349              		.loc 1 66 0
 350 0016 013A     		subs	r2, r2, #1
 351 0018 1378     		ldrb	r3, [r2]	@ zero_extendqisi2
 352 001a 43F00103 		orr	r3, r3, #1
 353 001e 1370     		strb	r3, [r2]
  69:Generated_Source\PSoC5/Sound_Counter.c ****             Sound_Counter_RT1 |= Sound_Counter_SYNC;     
 354              		.loc 1 69 0
 355 0020 0F4B     		ldr	r3, .L35+4
 356 0022 1A78     		ldrb	r2, [r3]	@ zero_extendqisi2
 357 0024 02F0CF02 		and	r2, r2, #207
 358 0028 1A70     		strb	r2, [r3]
  70:Generated_Source\PSoC5/Sound_Counter.c ****                     
 359              		.loc 1 70 0
 360 002a 1A78     		ldrb	r2, [r3]	@ zero_extendqisi2
 361 002c 42F03002 		orr	r2, r2, #48
 362 0030 1A70     		strb	r2, [r3]
  73:Generated_Source\PSoC5/Sound_Counter.c ****             Sound_Counter_RT1 |= Sound_Counter_SYNCDSI_EN;
 363              		.loc 1 73 0
 364 0032 1A78     		ldrb	r2, [r3]	@ zero_extendqisi2
 365 0034 02F0F002 		and	r2, r2, #240
 366 0038 1A70     		strb	r2, [r3]
  74:Generated_Source\PSoC5/Sound_Counter.c **** 
 367              		.loc 1 74 0
 368 003a 1A78     		ldrb	r2, [r3]	@ zero_extendqisi2
 369 003c 42F00F02 		orr	r2, r2, #15
 370 0040 1A70     		strb	r2, [r3]
 100:Generated_Source\PSoC5/Sound_Counter.c ****         #if (!(Sound_Counter_UsingFixedFunction && (CY_PSOC5A)))
 371              		.loc 1 100 0
ARM GAS  C:\Users\HPz420\AppData\Local\Temp\ccAeJGUf.s 			page 15


 372 0042 4FF6FF70 		movw	r0, #65535
 373 0046 FFF7FEFF 		bl	Sound_Counter_WritePeriod
 374              	.LVL6:
 102:Generated_Source\PSoC5/Sound_Counter.c ****         #endif /* (!(Sound_Counter_UsingFixedFunction && (CY_PSOC5A))) */
 375              		.loc 1 102 0
 376 004a 4FF6FF70 		movw	r0, #65535
 377 004e FFF7FEFF 		bl	Sound_Counter_WriteCounter
 378              	.LVL7:
 104:Generated_Source\PSoC5/Sound_Counter.c ****         
 379              		.loc 1 104 0
 380 0052 0020     		movs	r0, #0
 381 0054 FFF7FEFF 		bl	Sound_Counter_SetInterruptMode
 382              	.LVL8:
 383 0058 08BD     		pop	{r3, pc}
 384              	.L36:
 385 005a 00BF     		.align	2
 386              	.L35:
 387 005c 004F0040 		.word	1073762048
 388 0060 0B4F0040 		.word	1073762059
 389              		.cfi_endproc
 390              	.LFE0:
 391              		.size	Sound_Counter_Init, .-Sound_Counter_Init
 392              		.section	.text.Sound_Counter_Start,"ax",%progbits
 393              		.align	2
 394              		.global	Sound_Counter_Start
 395              		.thumb
 396              		.thumb_func
 397              		.type	Sound_Counter_Start, %function
 398              	Sound_Counter_Start:
 399              	.LFB2:
 179:Generated_Source\PSoC5/Sound_Counter.c ****     if(Sound_Counter_initVar == 0u)
 400              		.loc 1 179 0
 401              		.cfi_startproc
 402              		@ args = 0, pretend = 0, frame = 0
 403              		@ frame_needed = 0, uses_anonymous_args = 0
 404 0000 08B5     		push	{r3, lr}
 405              		.cfi_def_cfa_offset 8
 406              		.cfi_offset 3, -8
 407              		.cfi_offset 14, -4
 180:Generated_Source\PSoC5/Sound_Counter.c ****     {
 408              		.loc 1 180 0
 409 0002 054B     		ldr	r3, .L40
 410 0004 1B78     		ldrb	r3, [r3]	@ zero_extendqisi2
 411 0006 23B9     		cbnz	r3, .L38
 182:Generated_Source\PSoC5/Sound_Counter.c ****         
 412              		.loc 1 182 0
 413 0008 FFF7FEFF 		bl	Sound_Counter_Init
 414              	.LVL9:
 184:Generated_Source\PSoC5/Sound_Counter.c ****     }
 415              		.loc 1 184 0
 416 000c 0122     		movs	r2, #1
 417 000e 024B     		ldr	r3, .L40
 418 0010 1A70     		strb	r2, [r3]
 419              	.L38:
 188:Generated_Source\PSoC5/Sound_Counter.c **** }
 420              		.loc 1 188 0
 421 0012 FFF7FEFF 		bl	Sound_Counter_Enable
ARM GAS  C:\Users\HPz420\AppData\Local\Temp\ccAeJGUf.s 			page 16


 422              	.LVL10:
 423 0016 08BD     		pop	{r3, pc}
 424              	.L41:
 425              		.align	2
 426              	.L40:
 427 0018 00000000 		.word	.LANCHOR0
 428              		.cfi_endproc
 429              	.LFE2:
 430              		.size	Sound_Counter_Start, .-Sound_Counter_Start
 431              		.section	.text.Sound_Counter_ReadPeriod,"ax",%progbits
 432              		.align	2
 433              		.global	Sound_Counter_ReadPeriod
 434              		.thumb
 435              		.thumb_func
 436              		.type	Sound_Counter_ReadPeriod, %function
 437              	Sound_Counter_ReadPeriod:
 438              	.LFB12:
 419:Generated_Source\PSoC5/Sound_Counter.c ****     #else
 420:Generated_Source\PSoC5/Sound_Counter.c ****         CY_SET_REG16(Sound_Counter_PERIOD_LSB_PTR, period);
 421:Generated_Source\PSoC5/Sound_Counter.c ****     #endif /* (Sound_Counter_UsingFixedFunction) */
 422:Generated_Source\PSoC5/Sound_Counter.c **** }
 423:Generated_Source\PSoC5/Sound_Counter.c **** 
 424:Generated_Source\PSoC5/Sound_Counter.c **** 
 425:Generated_Source\PSoC5/Sound_Counter.c **** /*******************************************************************************
 426:Generated_Source\PSoC5/Sound_Counter.c **** * Function Name: Sound_Counter_ReadPeriod
 427:Generated_Source\PSoC5/Sound_Counter.c **** ********************************************************************************
 428:Generated_Source\PSoC5/Sound_Counter.c **** * Summary:
 429:Generated_Source\PSoC5/Sound_Counter.c **** * Reads the current period value without affecting counter operation.
 430:Generated_Source\PSoC5/Sound_Counter.c **** *
 431:Generated_Source\PSoC5/Sound_Counter.c **** * Parameters:  
 432:Generated_Source\PSoC5/Sound_Counter.c **** *  void:  
 433:Generated_Source\PSoC5/Sound_Counter.c **** *
 434:Generated_Source\PSoC5/Sound_Counter.c **** * Return: 
 435:Generated_Source\PSoC5/Sound_Counter.c **** *  (uint16) Present period value.
 436:Generated_Source\PSoC5/Sound_Counter.c **** *
 437:Generated_Source\PSoC5/Sound_Counter.c **** *******************************************************************************/
 438:Generated_Source\PSoC5/Sound_Counter.c **** uint16 Sound_Counter_ReadPeriod(void) 
 439:Generated_Source\PSoC5/Sound_Counter.c **** {
 439              		.loc 1 439 0
 440              		.cfi_startproc
 441              		@ args = 0, pretend = 0, frame = 0
 442              		@ frame_needed = 0, uses_anonymous_args = 0
 443              		@ link register save eliminated.
 440:Generated_Source\PSoC5/Sound_Counter.c ****     #if(Sound_Counter_UsingFixedFunction)
 441:Generated_Source\PSoC5/Sound_Counter.c ****         return ((uint16)CY_GET_REG16(Sound_Counter_PERIOD_LSB_PTR));
 444              		.loc 1 441 0
 445 0000 014B     		ldr	r3, .L43
 446 0002 1888     		ldrh	r0, [r3]
 442:Generated_Source\PSoC5/Sound_Counter.c ****     #else
 443:Generated_Source\PSoC5/Sound_Counter.c ****         return (CY_GET_REG16(Sound_Counter_PERIOD_LSB_PTR));
 444:Generated_Source\PSoC5/Sound_Counter.c ****     #endif /* (Sound_Counter_UsingFixedFunction) */
 445:Generated_Source\PSoC5/Sound_Counter.c **** }
 447              		.loc 1 445 0
 448 0004 80B2     		uxth	r0, r0
 449 0006 7047     		bx	lr
 450              	.L44:
 451              		.align	2
ARM GAS  C:\Users\HPz420\AppData\Local\Temp\ccAeJGUf.s 			page 17


 452              	.L43:
 453 0008 044F0040 		.word	1073762052
 454              		.cfi_endproc
 455              	.LFE12:
 456              		.size	Sound_Counter_ReadPeriod, .-Sound_Counter_ReadPeriod
 457              		.global	Sound_Counter_initVar
 458              		.bss
 459              		.set	.LANCHOR0,. + 0
 460              		.type	Sound_Counter_initVar, %object
 461              		.size	Sound_Counter_initVar, 1
 462              	Sound_Counter_initVar:
 463 0000 00       		.space	1
 464              		.text
 465              	.Letext0:
 466              		.file 2 "Generated_Source\\PSoC5\\cytypes.h"
 467              		.file 3 "Generated_Source\\PSoC5\\CyLib.h"