ARM GAS  C:\Users\HPz420\AppData\Local\Temp\ccDruRCT.s 			page 1


   1              		.syntax unified
   2              		.cpu cortex-m3
   3              		.fpu softvfp
   4              		.eabi_attribute 20, 1
   5              		.eabi_attribute 21, 1
   6              		.eabi_attribute 23, 3
   7              		.eabi_attribute 24, 1
   8              		.eabi_attribute 25, 1
   9              		.eabi_attribute 26, 1
  10              		.eabi_attribute 30, 1
  11              		.eabi_attribute 34, 1
  12              		.eabi_attribute 18, 4
  13              		.thumb
  14              		.syntax unified
  15              		.file	"SPI_Master.c"
  16              		.text
  17              	.Ltext0:
  18              		.cfi_sections	.debug_frame
  19              		.section	.text.SPI_Master_Enable,"ax",%progbits
  20              		.align	2
  21              		.global	SPI_Master_Enable
  22              		.thumb
  23              		.thumb_func
  24              		.type	SPI_Master_Enable, %function
  25              	SPI_Master_Enable:
  26              	.LFB1:
  27              		.file 1 "Generated_Source\\PSoC5\\SPI_Master.c"
   1:Generated_Source\PSoC5/SPI_Master.c **** /*******************************************************************************
   2:Generated_Source\PSoC5/SPI_Master.c **** * File Name: SPI_Master.c
   3:Generated_Source\PSoC5/SPI_Master.c **** * Version 2.50
   4:Generated_Source\PSoC5/SPI_Master.c **** *
   5:Generated_Source\PSoC5/SPI_Master.c **** * Description:
   6:Generated_Source\PSoC5/SPI_Master.c **** *  This file provides all API functionality of the SPI Master component.
   7:Generated_Source\PSoC5/SPI_Master.c **** *
   8:Generated_Source\PSoC5/SPI_Master.c **** * Note:
   9:Generated_Source\PSoC5/SPI_Master.c **** *  None.
  10:Generated_Source\PSoC5/SPI_Master.c **** *
  11:Generated_Source\PSoC5/SPI_Master.c **** ********************************************************************************
  12:Generated_Source\PSoC5/SPI_Master.c **** * Copyright 2008-2015, Cypress Semiconductor Corporation.  All rights reserved.
  13:Generated_Source\PSoC5/SPI_Master.c **** * You may use this file only in accordance with the license, terms, conditions,
  14:Generated_Source\PSoC5/SPI_Master.c **** * disclaimers, and limitations in the end user license agreement accompanying
  15:Generated_Source\PSoC5/SPI_Master.c **** * the software package with which this file was provided.
  16:Generated_Source\PSoC5/SPI_Master.c **** *******************************************************************************/
  17:Generated_Source\PSoC5/SPI_Master.c **** 
  18:Generated_Source\PSoC5/SPI_Master.c **** #include "SPI_Master_PVT.h"
  19:Generated_Source\PSoC5/SPI_Master.c **** 
  20:Generated_Source\PSoC5/SPI_Master.c **** #if(SPI_Master_TX_SOFTWARE_BUF_ENABLED)
  21:Generated_Source\PSoC5/SPI_Master.c ****     volatile uint8 SPI_Master_txBuffer[SPI_Master_TX_BUFFER_SIZE];
  22:Generated_Source\PSoC5/SPI_Master.c ****     volatile uint8 SPI_Master_txBufferFull;
  23:Generated_Source\PSoC5/SPI_Master.c ****     volatile uint8 SPI_Master_txBufferRead;
  24:Generated_Source\PSoC5/SPI_Master.c ****     volatile uint8 SPI_Master_txBufferWrite;
  25:Generated_Source\PSoC5/SPI_Master.c **** #endif /* (SPI_Master_TX_SOFTWARE_BUF_ENABLED) */
  26:Generated_Source\PSoC5/SPI_Master.c **** 
  27:Generated_Source\PSoC5/SPI_Master.c **** #if(SPI_Master_RX_SOFTWARE_BUF_ENABLED)
  28:Generated_Source\PSoC5/SPI_Master.c ****     volatile uint8 SPI_Master_rxBuffer[SPI_Master_RX_BUFFER_SIZE];
  29:Generated_Source\PSoC5/SPI_Master.c ****     volatile uint8 SPI_Master_rxBufferFull;
  30:Generated_Source\PSoC5/SPI_Master.c ****     volatile uint8 SPI_Master_rxBufferRead;
ARM GAS  C:\Users\HPz420\AppData\Local\Temp\ccDruRCT.s 			page 2


  31:Generated_Source\PSoC5/SPI_Master.c ****     volatile uint8 SPI_Master_rxBufferWrite;
  32:Generated_Source\PSoC5/SPI_Master.c **** #endif /* (SPI_Master_RX_SOFTWARE_BUF_ENABLED) */
  33:Generated_Source\PSoC5/SPI_Master.c **** 
  34:Generated_Source\PSoC5/SPI_Master.c **** uint8 SPI_Master_initVar = 0u;
  35:Generated_Source\PSoC5/SPI_Master.c **** 
  36:Generated_Source\PSoC5/SPI_Master.c **** volatile uint8 SPI_Master_swStatusTx;
  37:Generated_Source\PSoC5/SPI_Master.c **** volatile uint8 SPI_Master_swStatusRx;
  38:Generated_Source\PSoC5/SPI_Master.c **** 
  39:Generated_Source\PSoC5/SPI_Master.c **** 
  40:Generated_Source\PSoC5/SPI_Master.c **** /*******************************************************************************
  41:Generated_Source\PSoC5/SPI_Master.c **** * Function Name: SPI_Master_Init
  42:Generated_Source\PSoC5/SPI_Master.c **** ********************************************************************************
  43:Generated_Source\PSoC5/SPI_Master.c **** *
  44:Generated_Source\PSoC5/SPI_Master.c **** * Summary:
  45:Generated_Source\PSoC5/SPI_Master.c **** *  Inits/Restores default SPIM configuration provided with customizer.
  46:Generated_Source\PSoC5/SPI_Master.c **** *
  47:Generated_Source\PSoC5/SPI_Master.c **** * Parameters:
  48:Generated_Source\PSoC5/SPI_Master.c **** *  None.
  49:Generated_Source\PSoC5/SPI_Master.c **** *
  50:Generated_Source\PSoC5/SPI_Master.c **** * Return:
  51:Generated_Source\PSoC5/SPI_Master.c **** *  None.
  52:Generated_Source\PSoC5/SPI_Master.c **** *
  53:Generated_Source\PSoC5/SPI_Master.c **** * Side Effects:
  54:Generated_Source\PSoC5/SPI_Master.c **** *  When this function is called it initializes all of the necessary parameters
  55:Generated_Source\PSoC5/SPI_Master.c **** *  for execution. i.e. setting the initial interrupt mask, configuring the
  56:Generated_Source\PSoC5/SPI_Master.c **** *  interrupt service routine, configuring the bit-counter parameters and
  57:Generated_Source\PSoC5/SPI_Master.c **** *  clearing the FIFO and Status Register.
  58:Generated_Source\PSoC5/SPI_Master.c **** *
  59:Generated_Source\PSoC5/SPI_Master.c **** * Reentrant:
  60:Generated_Source\PSoC5/SPI_Master.c **** *  No.
  61:Generated_Source\PSoC5/SPI_Master.c **** *
  62:Generated_Source\PSoC5/SPI_Master.c **** *******************************************************************************/
  63:Generated_Source\PSoC5/SPI_Master.c **** void SPI_Master_Init(void) 
  64:Generated_Source\PSoC5/SPI_Master.c **** {
  65:Generated_Source\PSoC5/SPI_Master.c ****     /* Initialize the Bit counter */
  66:Generated_Source\PSoC5/SPI_Master.c ****     SPI_Master_COUNTER_PERIOD_REG = SPI_Master_BITCTR_INIT;
  67:Generated_Source\PSoC5/SPI_Master.c **** 
  68:Generated_Source\PSoC5/SPI_Master.c ****     /* Init TX ISR  */
  69:Generated_Source\PSoC5/SPI_Master.c ****     #if(0u != SPI_Master_INTERNAL_TX_INT_ENABLED)
  70:Generated_Source\PSoC5/SPI_Master.c ****         CyIntDisable         (SPI_Master_TX_ISR_NUMBER);
  71:Generated_Source\PSoC5/SPI_Master.c ****         CyIntSetPriority     (SPI_Master_TX_ISR_NUMBER,  SPI_Master_TX_ISR_PRIORITY);
  72:Generated_Source\PSoC5/SPI_Master.c ****         (void) CyIntSetVector(SPI_Master_TX_ISR_NUMBER, &SPI_Master_TX_ISR);
  73:Generated_Source\PSoC5/SPI_Master.c ****     #endif /* (0u != SPI_Master_INTERNAL_TX_INT_ENABLED) */
  74:Generated_Source\PSoC5/SPI_Master.c **** 
  75:Generated_Source\PSoC5/SPI_Master.c ****     /* Init RX ISR  */
  76:Generated_Source\PSoC5/SPI_Master.c ****     #if(0u != SPI_Master_INTERNAL_RX_INT_ENABLED)
  77:Generated_Source\PSoC5/SPI_Master.c ****         CyIntDisable         (SPI_Master_RX_ISR_NUMBER);
  78:Generated_Source\PSoC5/SPI_Master.c ****         CyIntSetPriority     (SPI_Master_RX_ISR_NUMBER,  SPI_Master_RX_ISR_PRIORITY);
  79:Generated_Source\PSoC5/SPI_Master.c ****         (void) CyIntSetVector(SPI_Master_RX_ISR_NUMBER, &SPI_Master_RX_ISR);
  80:Generated_Source\PSoC5/SPI_Master.c ****     #endif /* (0u != SPI_Master_INTERNAL_RX_INT_ENABLED) */
  81:Generated_Source\PSoC5/SPI_Master.c **** 
  82:Generated_Source\PSoC5/SPI_Master.c ****     /* Clear any stray data from the RX and TX FIFO */
  83:Generated_Source\PSoC5/SPI_Master.c ****     SPI_Master_ClearFIFO();
  84:Generated_Source\PSoC5/SPI_Master.c **** 
  85:Generated_Source\PSoC5/SPI_Master.c ****     #if(SPI_Master_RX_SOFTWARE_BUF_ENABLED)
  86:Generated_Source\PSoC5/SPI_Master.c ****         SPI_Master_rxBufferFull  = 0u;
  87:Generated_Source\PSoC5/SPI_Master.c ****         SPI_Master_rxBufferRead  = 0u;
ARM GAS  C:\Users\HPz420\AppData\Local\Temp\ccDruRCT.s 			page 3


  88:Generated_Source\PSoC5/SPI_Master.c ****         SPI_Master_rxBufferWrite = 0u;
  89:Generated_Source\PSoC5/SPI_Master.c ****     #endif /* (SPI_Master_RX_SOFTWARE_BUF_ENABLED) */
  90:Generated_Source\PSoC5/SPI_Master.c **** 
  91:Generated_Source\PSoC5/SPI_Master.c ****     #if(SPI_Master_TX_SOFTWARE_BUF_ENABLED)
  92:Generated_Source\PSoC5/SPI_Master.c ****         SPI_Master_txBufferFull  = 0u;
  93:Generated_Source\PSoC5/SPI_Master.c ****         SPI_Master_txBufferRead  = 0u;
  94:Generated_Source\PSoC5/SPI_Master.c ****         SPI_Master_txBufferWrite = 0u;
  95:Generated_Source\PSoC5/SPI_Master.c ****     #endif /* (SPI_Master_TX_SOFTWARE_BUF_ENABLED) */
  96:Generated_Source\PSoC5/SPI_Master.c **** 
  97:Generated_Source\PSoC5/SPI_Master.c ****     (void) SPI_Master_ReadTxStatus(); /* Clear Tx status and swStatusTx */
  98:Generated_Source\PSoC5/SPI_Master.c ****     (void) SPI_Master_ReadRxStatus(); /* Clear Rx status and swStatusRx */
  99:Generated_Source\PSoC5/SPI_Master.c **** 
 100:Generated_Source\PSoC5/SPI_Master.c ****     /* Configure TX and RX interrupt mask */
 101:Generated_Source\PSoC5/SPI_Master.c ****     SPI_Master_TX_STATUS_MASK_REG = SPI_Master_TX_INIT_INTERRUPTS_MASK;
 102:Generated_Source\PSoC5/SPI_Master.c ****     SPI_Master_RX_STATUS_MASK_REG = SPI_Master_RX_INIT_INTERRUPTS_MASK;
 103:Generated_Source\PSoC5/SPI_Master.c **** }
 104:Generated_Source\PSoC5/SPI_Master.c **** 
 105:Generated_Source\PSoC5/SPI_Master.c **** 
 106:Generated_Source\PSoC5/SPI_Master.c **** /*******************************************************************************
 107:Generated_Source\PSoC5/SPI_Master.c **** * Function Name: SPI_Master_Enable
 108:Generated_Source\PSoC5/SPI_Master.c **** ********************************************************************************
 109:Generated_Source\PSoC5/SPI_Master.c **** *
 110:Generated_Source\PSoC5/SPI_Master.c **** * Summary:
 111:Generated_Source\PSoC5/SPI_Master.c **** *  Enable SPIM component.
 112:Generated_Source\PSoC5/SPI_Master.c **** *
 113:Generated_Source\PSoC5/SPI_Master.c **** * Parameters:
 114:Generated_Source\PSoC5/SPI_Master.c **** *  None.
 115:Generated_Source\PSoC5/SPI_Master.c **** *
 116:Generated_Source\PSoC5/SPI_Master.c **** * Return:
 117:Generated_Source\PSoC5/SPI_Master.c **** *  None.
 118:Generated_Source\PSoC5/SPI_Master.c **** *
 119:Generated_Source\PSoC5/SPI_Master.c **** *******************************************************************************/
 120:Generated_Source\PSoC5/SPI_Master.c **** void SPI_Master_Enable(void) 
 121:Generated_Source\PSoC5/SPI_Master.c **** {
  28              		.loc 1 121 0
  29              		.cfi_startproc
  30              		@ args = 0, pretend = 0, frame = 0
  31              		@ frame_needed = 0, uses_anonymous_args = 0
  32 0000 08B5     		push	{r3, lr}
  33              		.cfi_def_cfa_offset 8
  34              		.cfi_offset 3, -8
  35              		.cfi_offset 14, -4
 122:Generated_Source\PSoC5/SPI_Master.c ****     uint8 enableInterrupts;
 123:Generated_Source\PSoC5/SPI_Master.c **** 
 124:Generated_Source\PSoC5/SPI_Master.c ****     enableInterrupts = CyEnterCriticalSection();
  36              		.loc 1 124 0
  37 0002 FFF7FEFF 		bl	CyEnterCriticalSection
  38              	.LVL0:
 125:Generated_Source\PSoC5/SPI_Master.c ****     SPI_Master_COUNTER_CONTROL_REG |= SPI_Master_CNTR_ENABLE;
  39              		.loc 1 125 0
  40 0006 0A4A     		ldr	r2, .L3
  41 0008 1378     		ldrb	r3, [r2]	@ zero_extendqisi2
  42 000a 43F02003 		orr	r3, r3, #32
  43 000e 1370     		strb	r3, [r2]
 126:Generated_Source\PSoC5/SPI_Master.c ****     SPI_Master_TX_STATUS_ACTL_REG  |= SPI_Master_INT_ENABLE;
  44              		.loc 1 126 0
  45 0010 013A     		subs	r2, r2, #1
ARM GAS  C:\Users\HPz420\AppData\Local\Temp\ccDruRCT.s 			page 4


  46 0012 1378     		ldrb	r3, [r2]	@ zero_extendqisi2
  47 0014 43F01003 		orr	r3, r3, #16
  48 0018 1370     		strb	r3, [r2]
 127:Generated_Source\PSoC5/SPI_Master.c ****     SPI_Master_RX_STATUS_ACTL_REG  |= SPI_Master_INT_ENABLE;
  49              		.loc 1 127 0
  50 001a 02F20112 		addw	r2, r2, #257
  51 001e 1378     		ldrb	r3, [r2]	@ zero_extendqisi2
  52 0020 43F01003 		orr	r3, r3, #16
  53 0024 1370     		strb	r3, [r2]
 128:Generated_Source\PSoC5/SPI_Master.c ****     CyExitCriticalSection(enableInterrupts);
  54              		.loc 1 128 0
  55 0026 FFF7FEFF 		bl	CyExitCriticalSection
  56              	.LVL1:
 129:Generated_Source\PSoC5/SPI_Master.c **** 
 130:Generated_Source\PSoC5/SPI_Master.c ****     #if(0u != SPI_Master_INTERNAL_CLOCK)
 131:Generated_Source\PSoC5/SPI_Master.c ****         SPI_Master_IntClock_Enable();
  57              		.loc 1 131 0
  58 002a FFF7FEFF 		bl	SPI_Master_IntClock_Start
  59              	.LVL2:
  60 002e 08BD     		pop	{r3, pc}
  61              	.L4:
  62              		.align	2
  63              	.L3:
  64 0030 96640040 		.word	1073767574
  65              		.cfi_endproc
  66              	.LFE1:
  67              		.size	SPI_Master_Enable, .-SPI_Master_Enable
  68              		.section	.text.SPI_Master_Stop,"ax",%progbits
  69              		.align	2
  70              		.global	SPI_Master_Stop
  71              		.thumb
  72              		.thumb_func
  73              		.type	SPI_Master_Stop, %function
  74              	SPI_Master_Stop:
  75              	.LFB3:
 132:Generated_Source\PSoC5/SPI_Master.c ****     #endif /* (0u != SPI_Master_INTERNAL_CLOCK) */
 133:Generated_Source\PSoC5/SPI_Master.c **** 
 134:Generated_Source\PSoC5/SPI_Master.c ****     SPI_Master_EnableTxInt();
 135:Generated_Source\PSoC5/SPI_Master.c ****     SPI_Master_EnableRxInt();
 136:Generated_Source\PSoC5/SPI_Master.c **** }
 137:Generated_Source\PSoC5/SPI_Master.c **** 
 138:Generated_Source\PSoC5/SPI_Master.c **** 
 139:Generated_Source\PSoC5/SPI_Master.c **** /*******************************************************************************
 140:Generated_Source\PSoC5/SPI_Master.c **** * Function Name: SPI_Master_Start
 141:Generated_Source\PSoC5/SPI_Master.c **** ********************************************************************************
 142:Generated_Source\PSoC5/SPI_Master.c **** *
 143:Generated_Source\PSoC5/SPI_Master.c **** * Summary:
 144:Generated_Source\PSoC5/SPI_Master.c **** *  Initialize and Enable the SPI Master component.
 145:Generated_Source\PSoC5/SPI_Master.c **** *
 146:Generated_Source\PSoC5/SPI_Master.c **** * Parameters:
 147:Generated_Source\PSoC5/SPI_Master.c **** *  None.
 148:Generated_Source\PSoC5/SPI_Master.c **** *
 149:Generated_Source\PSoC5/SPI_Master.c **** * Return:
 150:Generated_Source\PSoC5/SPI_Master.c **** *  None.
 151:Generated_Source\PSoC5/SPI_Master.c **** *
 152:Generated_Source\PSoC5/SPI_Master.c **** * Global variables:
 153:Generated_Source\PSoC5/SPI_Master.c **** *  SPI_Master_initVar - used to check initial configuration, modified on
ARM GAS  C:\Users\HPz420\AppData\Local\Temp\ccDruRCT.s 			page 5


 154:Generated_Source\PSoC5/SPI_Master.c **** *  first function call.
 155:Generated_Source\PSoC5/SPI_Master.c **** *
 156:Generated_Source\PSoC5/SPI_Master.c **** * Theory:
 157:Generated_Source\PSoC5/SPI_Master.c **** *  Enable the clock input to enable operation.
 158:Generated_Source\PSoC5/SPI_Master.c **** *
 159:Generated_Source\PSoC5/SPI_Master.c **** * Reentrant:
 160:Generated_Source\PSoC5/SPI_Master.c **** *  No.
 161:Generated_Source\PSoC5/SPI_Master.c **** *
 162:Generated_Source\PSoC5/SPI_Master.c **** *******************************************************************************/
 163:Generated_Source\PSoC5/SPI_Master.c **** void SPI_Master_Start(void) 
 164:Generated_Source\PSoC5/SPI_Master.c **** {
 165:Generated_Source\PSoC5/SPI_Master.c ****     if(0u == SPI_Master_initVar)
 166:Generated_Source\PSoC5/SPI_Master.c ****     {
 167:Generated_Source\PSoC5/SPI_Master.c ****         SPI_Master_Init();
 168:Generated_Source\PSoC5/SPI_Master.c ****         SPI_Master_initVar = 1u;
 169:Generated_Source\PSoC5/SPI_Master.c ****     }
 170:Generated_Source\PSoC5/SPI_Master.c **** 
 171:Generated_Source\PSoC5/SPI_Master.c ****     SPI_Master_Enable();
 172:Generated_Source\PSoC5/SPI_Master.c **** }
 173:Generated_Source\PSoC5/SPI_Master.c **** 
 174:Generated_Source\PSoC5/SPI_Master.c **** 
 175:Generated_Source\PSoC5/SPI_Master.c **** /*******************************************************************************
 176:Generated_Source\PSoC5/SPI_Master.c **** * Function Name: SPI_Master_Stop
 177:Generated_Source\PSoC5/SPI_Master.c **** ********************************************************************************
 178:Generated_Source\PSoC5/SPI_Master.c **** *
 179:Generated_Source\PSoC5/SPI_Master.c **** * Summary:
 180:Generated_Source\PSoC5/SPI_Master.c **** *  Disable the SPI Master component.
 181:Generated_Source\PSoC5/SPI_Master.c **** *
 182:Generated_Source\PSoC5/SPI_Master.c **** * Parameters:
 183:Generated_Source\PSoC5/SPI_Master.c **** *  None.
 184:Generated_Source\PSoC5/SPI_Master.c **** *
 185:Generated_Source\PSoC5/SPI_Master.c **** * Return:
 186:Generated_Source\PSoC5/SPI_Master.c **** *  None.
 187:Generated_Source\PSoC5/SPI_Master.c **** *
 188:Generated_Source\PSoC5/SPI_Master.c **** * Theory:
 189:Generated_Source\PSoC5/SPI_Master.c **** *  Disable the clock input to enable operation.
 190:Generated_Source\PSoC5/SPI_Master.c **** *
 191:Generated_Source\PSoC5/SPI_Master.c **** *******************************************************************************/
 192:Generated_Source\PSoC5/SPI_Master.c **** void SPI_Master_Stop(void) 
 193:Generated_Source\PSoC5/SPI_Master.c **** {
  76              		.loc 1 193 0
  77              		.cfi_startproc
  78              		@ args = 0, pretend = 0, frame = 0
  79              		@ frame_needed = 0, uses_anonymous_args = 0
  80 0000 08B5     		push	{r3, lr}
  81              		.cfi_def_cfa_offset 8
  82              		.cfi_offset 3, -8
  83              		.cfi_offset 14, -4
 194:Generated_Source\PSoC5/SPI_Master.c ****     uint8 enableInterrupts;
 195:Generated_Source\PSoC5/SPI_Master.c **** 
 196:Generated_Source\PSoC5/SPI_Master.c ****     enableInterrupts = CyEnterCriticalSection();
  84              		.loc 1 196 0
  85 0002 FFF7FEFF 		bl	CyEnterCriticalSection
  86              	.LVL3:
 197:Generated_Source\PSoC5/SPI_Master.c ****     SPI_Master_TX_STATUS_ACTL_REG &= ((uint8) ~SPI_Master_INT_ENABLE);
  87              		.loc 1 197 0
  88 0006 084A     		ldr	r2, .L7
ARM GAS  C:\Users\HPz420\AppData\Local\Temp\ccDruRCT.s 			page 6


  89 0008 1378     		ldrb	r3, [r2]	@ zero_extendqisi2
  90 000a 03F0EF03 		and	r3, r3, #239
  91 000e 1370     		strb	r3, [r2]
 198:Generated_Source\PSoC5/SPI_Master.c ****     SPI_Master_RX_STATUS_ACTL_REG &= ((uint8) ~SPI_Master_INT_ENABLE);
  92              		.loc 1 198 0
  93 0010 02F20112 		addw	r2, r2, #257
  94 0014 1378     		ldrb	r3, [r2]	@ zero_extendqisi2
  95 0016 03F0EF03 		and	r3, r3, #239
  96 001a 1370     		strb	r3, [r2]
 199:Generated_Source\PSoC5/SPI_Master.c ****     CyExitCriticalSection(enableInterrupts);
  97              		.loc 1 199 0
  98 001c FFF7FEFF 		bl	CyExitCriticalSection
  99              	.LVL4:
 200:Generated_Source\PSoC5/SPI_Master.c **** 
 201:Generated_Source\PSoC5/SPI_Master.c ****     #if(0u != SPI_Master_INTERNAL_CLOCK)
 202:Generated_Source\PSoC5/SPI_Master.c ****         SPI_Master_IntClock_Disable();
 100              		.loc 1 202 0
 101 0020 FFF7FEFF 		bl	SPI_Master_IntClock_Stop
 102              	.LVL5:
 103 0024 08BD     		pop	{r3, pc}
 104              	.L8:
 105 0026 00BF     		.align	2
 106              	.L7:
 107 0028 95640040 		.word	1073767573
 108              		.cfi_endproc
 109              	.LFE3:
 110              		.size	SPI_Master_Stop, .-SPI_Master_Stop
 111              		.section	.text.SPI_Master_EnableTxInt,"ax",%progbits
 112              		.align	2
 113              		.global	SPI_Master_EnableTxInt
 114              		.thumb
 115              		.thumb_func
 116              		.type	SPI_Master_EnableTxInt, %function
 117              	SPI_Master_EnableTxInt:
 118              	.LFB4:
 203:Generated_Source\PSoC5/SPI_Master.c ****     #endif /* (0u != SPI_Master_INTERNAL_CLOCK) */
 204:Generated_Source\PSoC5/SPI_Master.c **** 
 205:Generated_Source\PSoC5/SPI_Master.c ****     SPI_Master_DisableTxInt();
 206:Generated_Source\PSoC5/SPI_Master.c ****     SPI_Master_DisableRxInt();
 207:Generated_Source\PSoC5/SPI_Master.c **** }
 208:Generated_Source\PSoC5/SPI_Master.c **** 
 209:Generated_Source\PSoC5/SPI_Master.c **** 
 210:Generated_Source\PSoC5/SPI_Master.c **** /*******************************************************************************
 211:Generated_Source\PSoC5/SPI_Master.c **** * Function Name: SPI_Master_EnableTxInt
 212:Generated_Source\PSoC5/SPI_Master.c **** ********************************************************************************
 213:Generated_Source\PSoC5/SPI_Master.c **** *
 214:Generated_Source\PSoC5/SPI_Master.c **** * Summary:
 215:Generated_Source\PSoC5/SPI_Master.c **** *  Enable internal Tx interrupt generation.
 216:Generated_Source\PSoC5/SPI_Master.c **** *
 217:Generated_Source\PSoC5/SPI_Master.c **** * Parameters:
 218:Generated_Source\PSoC5/SPI_Master.c **** *  None.
 219:Generated_Source\PSoC5/SPI_Master.c **** *
 220:Generated_Source\PSoC5/SPI_Master.c **** * Return:
 221:Generated_Source\PSoC5/SPI_Master.c **** *  None.
 222:Generated_Source\PSoC5/SPI_Master.c **** *
 223:Generated_Source\PSoC5/SPI_Master.c **** * Theory:
 224:Generated_Source\PSoC5/SPI_Master.c **** *  Enable the internal Tx interrupt output -or- the interrupt component itself.
ARM GAS  C:\Users\HPz420\AppData\Local\Temp\ccDruRCT.s 			page 7


 225:Generated_Source\PSoC5/SPI_Master.c **** *
 226:Generated_Source\PSoC5/SPI_Master.c **** *******************************************************************************/
 227:Generated_Source\PSoC5/SPI_Master.c **** void SPI_Master_EnableTxInt(void) 
 228:Generated_Source\PSoC5/SPI_Master.c **** {
 119              		.loc 1 228 0
 120              		.cfi_startproc
 121              		@ args = 0, pretend = 0, frame = 0
 122              		@ frame_needed = 0, uses_anonymous_args = 0
 123              		@ link register save eliminated.
 124 0000 7047     		bx	lr
 125              		.cfi_endproc
 126              	.LFE4:
 127              		.size	SPI_Master_EnableTxInt, .-SPI_Master_EnableTxInt
 128 0002 00BF     		.section	.text.SPI_Master_EnableRxInt,"ax",%progbits
 129              		.align	2
 130              		.global	SPI_Master_EnableRxInt
 131              		.thumb
 132              		.thumb_func
 133              		.type	SPI_Master_EnableRxInt, %function
 134              	SPI_Master_EnableRxInt:
 135              	.LFB5:
 229:Generated_Source\PSoC5/SPI_Master.c ****     #if(0u != SPI_Master_INTERNAL_TX_INT_ENABLED)
 230:Generated_Source\PSoC5/SPI_Master.c ****         CyIntEnable(SPI_Master_TX_ISR_NUMBER);
 231:Generated_Source\PSoC5/SPI_Master.c ****     #endif /* (0u != SPI_Master_INTERNAL_TX_INT_ENABLED) */
 232:Generated_Source\PSoC5/SPI_Master.c **** }
 233:Generated_Source\PSoC5/SPI_Master.c **** 
 234:Generated_Source\PSoC5/SPI_Master.c **** 
 235:Generated_Source\PSoC5/SPI_Master.c **** /*******************************************************************************
 236:Generated_Source\PSoC5/SPI_Master.c **** * Function Name: SPI_Master_EnableRxInt
 237:Generated_Source\PSoC5/SPI_Master.c **** ********************************************************************************
 238:Generated_Source\PSoC5/SPI_Master.c **** *
 239:Generated_Source\PSoC5/SPI_Master.c **** * Summary:
 240:Generated_Source\PSoC5/SPI_Master.c **** *  Enable internal Rx interrupt generation.
 241:Generated_Source\PSoC5/SPI_Master.c **** *
 242:Generated_Source\PSoC5/SPI_Master.c **** * Parameters:
 243:Generated_Source\PSoC5/SPI_Master.c **** *  None.
 244:Generated_Source\PSoC5/SPI_Master.c **** *
 245:Generated_Source\PSoC5/SPI_Master.c **** * Return:
 246:Generated_Source\PSoC5/SPI_Master.c **** *  None.
 247:Generated_Source\PSoC5/SPI_Master.c **** *
 248:Generated_Source\PSoC5/SPI_Master.c **** * Theory:
 249:Generated_Source\PSoC5/SPI_Master.c **** *  Enable the internal Rx interrupt output -or- the interrupt component itself.
 250:Generated_Source\PSoC5/SPI_Master.c **** *
 251:Generated_Source\PSoC5/SPI_Master.c **** *******************************************************************************/
 252:Generated_Source\PSoC5/SPI_Master.c **** void SPI_Master_EnableRxInt(void) 
 253:Generated_Source\PSoC5/SPI_Master.c **** {
 136              		.loc 1 253 0
 137              		.cfi_startproc
 138              		@ args = 0, pretend = 0, frame = 0
 139              		@ frame_needed = 0, uses_anonymous_args = 0
 140              		@ link register save eliminated.
 141 0000 7047     		bx	lr
 142              		.cfi_endproc
 143              	.LFE5:
 144              		.size	SPI_Master_EnableRxInt, .-SPI_Master_EnableRxInt
 145 0002 00BF     		.section	.text.SPI_Master_DisableTxInt,"ax",%progbits
 146              		.align	2
ARM GAS  C:\Users\HPz420\AppData\Local\Temp\ccDruRCT.s 			page 8


 147              		.global	SPI_Master_DisableTxInt
 148              		.thumb
 149              		.thumb_func
 150              		.type	SPI_Master_DisableTxInt, %function
 151              	SPI_Master_DisableTxInt:
 152              	.LFB6:
 254:Generated_Source\PSoC5/SPI_Master.c ****     #if(0u != SPI_Master_INTERNAL_RX_INT_ENABLED)
 255:Generated_Source\PSoC5/SPI_Master.c ****         CyIntEnable(SPI_Master_RX_ISR_NUMBER);
 256:Generated_Source\PSoC5/SPI_Master.c ****     #endif /* (0u != SPI_Master_INTERNAL_RX_INT_ENABLED) */
 257:Generated_Source\PSoC5/SPI_Master.c **** }
 258:Generated_Source\PSoC5/SPI_Master.c **** 
 259:Generated_Source\PSoC5/SPI_Master.c **** 
 260:Generated_Source\PSoC5/SPI_Master.c **** /*******************************************************************************
 261:Generated_Source\PSoC5/SPI_Master.c **** * Function Name: SPI_Master_DisableTxInt
 262:Generated_Source\PSoC5/SPI_Master.c **** ********************************************************************************
 263:Generated_Source\PSoC5/SPI_Master.c **** *
 264:Generated_Source\PSoC5/SPI_Master.c **** * Summary:
 265:Generated_Source\PSoC5/SPI_Master.c **** *  Disable internal Tx interrupt generation.
 266:Generated_Source\PSoC5/SPI_Master.c **** *
 267:Generated_Source\PSoC5/SPI_Master.c **** * Parameters:
 268:Generated_Source\PSoC5/SPI_Master.c **** *  None.
 269:Generated_Source\PSoC5/SPI_Master.c **** *
 270:Generated_Source\PSoC5/SPI_Master.c **** * Return:
 271:Generated_Source\PSoC5/SPI_Master.c **** *  None.
 272:Generated_Source\PSoC5/SPI_Master.c **** *
 273:Generated_Source\PSoC5/SPI_Master.c **** * Theory:
 274:Generated_Source\PSoC5/SPI_Master.c **** *  Disable the internal Tx interrupt output -or- the interrupt component itself.
 275:Generated_Source\PSoC5/SPI_Master.c **** *
 276:Generated_Source\PSoC5/SPI_Master.c **** *******************************************************************************/
 277:Generated_Source\PSoC5/SPI_Master.c **** void SPI_Master_DisableTxInt(void) 
 278:Generated_Source\PSoC5/SPI_Master.c **** {
 153              		.loc 1 278 0
 154              		.cfi_startproc
 155              		@ args = 0, pretend = 0, frame = 0
 156              		@ frame_needed = 0, uses_anonymous_args = 0
 157              		@ link register save eliminated.
 158 0000 7047     		bx	lr
 159              		.cfi_endproc
 160              	.LFE6:
 161              		.size	SPI_Master_DisableTxInt, .-SPI_Master_DisableTxInt
 162 0002 00BF     		.section	.text.SPI_Master_DisableRxInt,"ax",%progbits
 163              		.align	2
 164              		.global	SPI_Master_DisableRxInt
 165              		.thumb
 166              		.thumb_func
 167              		.type	SPI_Master_DisableRxInt, %function
 168              	SPI_Master_DisableRxInt:
 169              	.LFB7:
 279:Generated_Source\PSoC5/SPI_Master.c ****     #if(0u != SPI_Master_INTERNAL_TX_INT_ENABLED)
 280:Generated_Source\PSoC5/SPI_Master.c ****         CyIntDisable(SPI_Master_TX_ISR_NUMBER);
 281:Generated_Source\PSoC5/SPI_Master.c ****     #endif /* (0u != SPI_Master_INTERNAL_TX_INT_ENABLED) */
 282:Generated_Source\PSoC5/SPI_Master.c **** }
 283:Generated_Source\PSoC5/SPI_Master.c **** 
 284:Generated_Source\PSoC5/SPI_Master.c **** 
 285:Generated_Source\PSoC5/SPI_Master.c **** /*******************************************************************************
 286:Generated_Source\PSoC5/SPI_Master.c **** * Function Name: SPI_Master_DisableRxInt
 287:Generated_Source\PSoC5/SPI_Master.c **** ********************************************************************************
ARM GAS  C:\Users\HPz420\AppData\Local\Temp\ccDruRCT.s 			page 9


 288:Generated_Source\PSoC5/SPI_Master.c **** *
 289:Generated_Source\PSoC5/SPI_Master.c **** * Summary:
 290:Generated_Source\PSoC5/SPI_Master.c **** *  Disable internal Rx interrupt generation.
 291:Generated_Source\PSoC5/SPI_Master.c **** *
 292:Generated_Source\PSoC5/SPI_Master.c **** * Parameters:
 293:Generated_Source\PSoC5/SPI_Master.c **** *  None.
 294:Generated_Source\PSoC5/SPI_Master.c **** *
 295:Generated_Source\PSoC5/SPI_Master.c **** * Return:
 296:Generated_Source\PSoC5/SPI_Master.c **** *  None.
 297:Generated_Source\PSoC5/SPI_Master.c **** *
 298:Generated_Source\PSoC5/SPI_Master.c **** * Theory:
 299:Generated_Source\PSoC5/SPI_Master.c **** *  Disable the internal Rx interrupt output -or- the interrupt component itself.
 300:Generated_Source\PSoC5/SPI_Master.c **** *
 301:Generated_Source\PSoC5/SPI_Master.c **** *******************************************************************************/
 302:Generated_Source\PSoC5/SPI_Master.c **** void SPI_Master_DisableRxInt(void) 
 303:Generated_Source\PSoC5/SPI_Master.c **** {
 170              		.loc 1 303 0
 171              		.cfi_startproc
 172              		@ args = 0, pretend = 0, frame = 0
 173              		@ frame_needed = 0, uses_anonymous_args = 0
 174              		@ link register save eliminated.
 175 0000 7047     		bx	lr
 176              		.cfi_endproc
 177              	.LFE7:
 178              		.size	SPI_Master_DisableRxInt, .-SPI_Master_DisableRxInt
 179 0002 00BF     		.section	.text.SPI_Master_SetTxInterruptMode,"ax",%progbits
 180              		.align	2
 181              		.global	SPI_Master_SetTxInterruptMode
 182              		.thumb
 183              		.thumb_func
 184              		.type	SPI_Master_SetTxInterruptMode, %function
 185              	SPI_Master_SetTxInterruptMode:
 186              	.LFB8:
 304:Generated_Source\PSoC5/SPI_Master.c ****     #if(0u != SPI_Master_INTERNAL_RX_INT_ENABLED)
 305:Generated_Source\PSoC5/SPI_Master.c ****         CyIntDisable(SPI_Master_RX_ISR_NUMBER);
 306:Generated_Source\PSoC5/SPI_Master.c ****     #endif /* (0u != SPI_Master_INTERNAL_RX_INT_ENABLED) */
 307:Generated_Source\PSoC5/SPI_Master.c **** }
 308:Generated_Source\PSoC5/SPI_Master.c **** 
 309:Generated_Source\PSoC5/SPI_Master.c **** 
 310:Generated_Source\PSoC5/SPI_Master.c **** /*******************************************************************************
 311:Generated_Source\PSoC5/SPI_Master.c **** * Function Name: SPI_Master_SetTxInterruptMode
 312:Generated_Source\PSoC5/SPI_Master.c **** ********************************************************************************
 313:Generated_Source\PSoC5/SPI_Master.c **** *
 314:Generated_Source\PSoC5/SPI_Master.c **** * Summary:
 315:Generated_Source\PSoC5/SPI_Master.c **** *  Configure which status bits trigger an interrupt event.
 316:Generated_Source\PSoC5/SPI_Master.c **** *
 317:Generated_Source\PSoC5/SPI_Master.c **** * Parameters:
 318:Generated_Source\PSoC5/SPI_Master.c **** *  intSrc: An or'd combination of the desired status bit masks (defined in the
 319:Generated_Source\PSoC5/SPI_Master.c **** *  header file).
 320:Generated_Source\PSoC5/SPI_Master.c **** *
 321:Generated_Source\PSoC5/SPI_Master.c **** * Return:
 322:Generated_Source\PSoC5/SPI_Master.c **** *  None.
 323:Generated_Source\PSoC5/SPI_Master.c **** *
 324:Generated_Source\PSoC5/SPI_Master.c **** * Theory:
 325:Generated_Source\PSoC5/SPI_Master.c **** *  Enables the output of specific status bits to the interrupt controller.
 326:Generated_Source\PSoC5/SPI_Master.c **** *
 327:Generated_Source\PSoC5/SPI_Master.c **** *******************************************************************************/
ARM GAS  C:\Users\HPz420\AppData\Local\Temp\ccDruRCT.s 			page 10


 328:Generated_Source\PSoC5/SPI_Master.c **** void SPI_Master_SetTxInterruptMode(uint8 intSrc) 
 329:Generated_Source\PSoC5/SPI_Master.c **** {
 187              		.loc 1 329 0
 188              		.cfi_startproc
 189              		@ args = 0, pretend = 0, frame = 0
 190              		@ frame_needed = 0, uses_anonymous_args = 0
 191              		@ link register save eliminated.
 192              	.LVL6:
 330:Generated_Source\PSoC5/SPI_Master.c ****     SPI_Master_TX_STATUS_MASK_REG = intSrc;
 193              		.loc 1 330 0
 194 0000 014B     		ldr	r3, .L14
 195 0002 1870     		strb	r0, [r3]
 196 0004 7047     		bx	lr
 197              	.L15:
 198 0006 00BF     		.align	2
 199              	.L14:
 200 0008 85640040 		.word	1073767557
 201              		.cfi_endproc
 202              	.LFE8:
 203              		.size	SPI_Master_SetTxInterruptMode, .-SPI_Master_SetTxInterruptMode
 204              		.section	.text.SPI_Master_SetRxInterruptMode,"ax",%progbits
 205              		.align	2
 206              		.global	SPI_Master_SetRxInterruptMode
 207              		.thumb
 208              		.thumb_func
 209              		.type	SPI_Master_SetRxInterruptMode, %function
 210              	SPI_Master_SetRxInterruptMode:
 211              	.LFB9:
 331:Generated_Source\PSoC5/SPI_Master.c **** }
 332:Generated_Source\PSoC5/SPI_Master.c **** 
 333:Generated_Source\PSoC5/SPI_Master.c **** 
 334:Generated_Source\PSoC5/SPI_Master.c **** /*******************************************************************************
 335:Generated_Source\PSoC5/SPI_Master.c **** * Function Name: SPI_Master_SetRxInterruptMode
 336:Generated_Source\PSoC5/SPI_Master.c **** ********************************************************************************
 337:Generated_Source\PSoC5/SPI_Master.c **** *
 338:Generated_Source\PSoC5/SPI_Master.c **** * Summary:
 339:Generated_Source\PSoC5/SPI_Master.c **** *  Configure which status bits trigger an interrupt event.
 340:Generated_Source\PSoC5/SPI_Master.c **** *
 341:Generated_Source\PSoC5/SPI_Master.c **** * Parameters:
 342:Generated_Source\PSoC5/SPI_Master.c **** *  intSrc: An or'd combination of the desired status bit masks (defined in the
 343:Generated_Source\PSoC5/SPI_Master.c **** *  header file).
 344:Generated_Source\PSoC5/SPI_Master.c **** *
 345:Generated_Source\PSoC5/SPI_Master.c **** * Return:
 346:Generated_Source\PSoC5/SPI_Master.c **** *  None.
 347:Generated_Source\PSoC5/SPI_Master.c **** *
 348:Generated_Source\PSoC5/SPI_Master.c **** * Theory:
 349:Generated_Source\PSoC5/SPI_Master.c **** *  Enables the output of specific status bits to the interrupt controller.
 350:Generated_Source\PSoC5/SPI_Master.c **** *
 351:Generated_Source\PSoC5/SPI_Master.c **** *******************************************************************************/
 352:Generated_Source\PSoC5/SPI_Master.c **** void SPI_Master_SetRxInterruptMode(uint8 intSrc) 
 353:Generated_Source\PSoC5/SPI_Master.c **** {
 212              		.loc 1 353 0
 213              		.cfi_startproc
 214              		@ args = 0, pretend = 0, frame = 0
 215              		@ frame_needed = 0, uses_anonymous_args = 0
 216              		@ link register save eliminated.
 217              	.LVL7:
ARM GAS  C:\Users\HPz420\AppData\Local\Temp\ccDruRCT.s 			page 11


 354:Generated_Source\PSoC5/SPI_Master.c ****     SPI_Master_RX_STATUS_MASK_REG  = intSrc;
 218              		.loc 1 354 0
 219 0000 014B     		ldr	r3, .L17
 220 0002 1870     		strb	r0, [r3]
 221 0004 7047     		bx	lr
 222              	.L18:
 223 0006 00BF     		.align	2
 224              	.L17:
 225 0008 86650040 		.word	1073767814
 226              		.cfi_endproc
 227              	.LFE9:
 228              		.size	SPI_Master_SetRxInterruptMode, .-SPI_Master_SetRxInterruptMode
 229              		.section	.text.SPI_Master_ReadTxStatus,"ax",%progbits
 230              		.align	2
 231              		.global	SPI_Master_ReadTxStatus
 232              		.thumb
 233              		.thumb_func
 234              		.type	SPI_Master_ReadTxStatus, %function
 235              	SPI_Master_ReadTxStatus:
 236              	.LFB10:
 355:Generated_Source\PSoC5/SPI_Master.c **** }
 356:Generated_Source\PSoC5/SPI_Master.c **** 
 357:Generated_Source\PSoC5/SPI_Master.c **** 
 358:Generated_Source\PSoC5/SPI_Master.c **** /*******************************************************************************
 359:Generated_Source\PSoC5/SPI_Master.c **** * Function Name: SPI_Master_ReadTxStatus
 360:Generated_Source\PSoC5/SPI_Master.c **** ********************************************************************************
 361:Generated_Source\PSoC5/SPI_Master.c **** *
 362:Generated_Source\PSoC5/SPI_Master.c **** * Summary:
 363:Generated_Source\PSoC5/SPI_Master.c **** *  Read the Tx status register for the component.
 364:Generated_Source\PSoC5/SPI_Master.c **** *
 365:Generated_Source\PSoC5/SPI_Master.c **** * Parameters:
 366:Generated_Source\PSoC5/SPI_Master.c **** *  None.
 367:Generated_Source\PSoC5/SPI_Master.c **** *
 368:Generated_Source\PSoC5/SPI_Master.c **** * Return:
 369:Generated_Source\PSoC5/SPI_Master.c **** *  Contents of the Tx status register.
 370:Generated_Source\PSoC5/SPI_Master.c **** *
 371:Generated_Source\PSoC5/SPI_Master.c **** * Global variables:
 372:Generated_Source\PSoC5/SPI_Master.c **** *  SPI_Master_swStatusTx - used to store in software status register,
 373:Generated_Source\PSoC5/SPI_Master.c **** *  modified every function call - resets to zero.
 374:Generated_Source\PSoC5/SPI_Master.c **** *
 375:Generated_Source\PSoC5/SPI_Master.c **** * Theory:
 376:Generated_Source\PSoC5/SPI_Master.c **** *  Allows the user and the API to read the Tx status register for error
 377:Generated_Source\PSoC5/SPI_Master.c **** *  detection and flow control.
 378:Generated_Source\PSoC5/SPI_Master.c **** *
 379:Generated_Source\PSoC5/SPI_Master.c **** * Side Effects:
 380:Generated_Source\PSoC5/SPI_Master.c **** *  Clear Tx status register of the component.
 381:Generated_Source\PSoC5/SPI_Master.c **** *
 382:Generated_Source\PSoC5/SPI_Master.c **** * Reentrant:
 383:Generated_Source\PSoC5/SPI_Master.c **** *  No.
 384:Generated_Source\PSoC5/SPI_Master.c **** *
 385:Generated_Source\PSoC5/SPI_Master.c **** *******************************************************************************/
 386:Generated_Source\PSoC5/SPI_Master.c **** uint8 SPI_Master_ReadTxStatus(void) 
 387:Generated_Source\PSoC5/SPI_Master.c **** {
 237              		.loc 1 387 0
 238              		.cfi_startproc
 239              		@ args = 0, pretend = 0, frame = 0
 240              		@ frame_needed = 0, uses_anonymous_args = 0
ARM GAS  C:\Users\HPz420\AppData\Local\Temp\ccDruRCT.s 			page 12


 241              		@ link register save eliminated.
 388:Generated_Source\PSoC5/SPI_Master.c ****     uint8 tmpStatus;
 389:Generated_Source\PSoC5/SPI_Master.c **** 
 390:Generated_Source\PSoC5/SPI_Master.c ****     #if(SPI_Master_TX_SOFTWARE_BUF_ENABLED)
 391:Generated_Source\PSoC5/SPI_Master.c ****         /* Disable TX interrupt to protect global veriables */
 392:Generated_Source\PSoC5/SPI_Master.c ****         SPI_Master_DisableTxInt();
 393:Generated_Source\PSoC5/SPI_Master.c **** 
 394:Generated_Source\PSoC5/SPI_Master.c ****         tmpStatus = SPI_Master_GET_STATUS_TX(SPI_Master_swStatusTx);
 395:Generated_Source\PSoC5/SPI_Master.c ****         SPI_Master_swStatusTx = 0u;
 396:Generated_Source\PSoC5/SPI_Master.c **** 
 397:Generated_Source\PSoC5/SPI_Master.c ****         SPI_Master_EnableTxInt();
 398:Generated_Source\PSoC5/SPI_Master.c **** 
 399:Generated_Source\PSoC5/SPI_Master.c ****     #else
 400:Generated_Source\PSoC5/SPI_Master.c **** 
 401:Generated_Source\PSoC5/SPI_Master.c ****         tmpStatus = SPI_Master_TX_STATUS_REG;
 242              		.loc 1 401 0
 243 0000 014B     		ldr	r3, .L20
 244 0002 1878     		ldrb	r0, [r3]	@ zero_extendqisi2
 245              	.LVL8:
 402:Generated_Source\PSoC5/SPI_Master.c **** 
 403:Generated_Source\PSoC5/SPI_Master.c ****     #endif /* (SPI_Master_TX_SOFTWARE_BUF_ENABLED) */
 404:Generated_Source\PSoC5/SPI_Master.c **** 
 405:Generated_Source\PSoC5/SPI_Master.c ****     return(tmpStatus);
 406:Generated_Source\PSoC5/SPI_Master.c **** }
 246              		.loc 1 406 0
 247 0004 7047     		bx	lr
 248              	.L21:
 249 0006 00BF     		.align	2
 250              	.L20:
 251 0008 65640040 		.word	1073767525
 252              		.cfi_endproc
 253              	.LFE10:
 254              		.size	SPI_Master_ReadTxStatus, .-SPI_Master_ReadTxStatus
 255              		.section	.text.SPI_Master_ReadRxStatus,"ax",%progbits
 256              		.align	2
 257              		.global	SPI_Master_ReadRxStatus
 258              		.thumb
 259              		.thumb_func
 260              		.type	SPI_Master_ReadRxStatus, %function
 261              	SPI_Master_ReadRxStatus:
 262              	.LFB11:
 407:Generated_Source\PSoC5/SPI_Master.c **** 
 408:Generated_Source\PSoC5/SPI_Master.c **** 
 409:Generated_Source\PSoC5/SPI_Master.c **** /*******************************************************************************
 410:Generated_Source\PSoC5/SPI_Master.c **** * Function Name: SPI_Master_ReadRxStatus
 411:Generated_Source\PSoC5/SPI_Master.c **** ********************************************************************************
 412:Generated_Source\PSoC5/SPI_Master.c **** *
 413:Generated_Source\PSoC5/SPI_Master.c **** * Summary:
 414:Generated_Source\PSoC5/SPI_Master.c **** *  Read the Rx status register for the component.
 415:Generated_Source\PSoC5/SPI_Master.c **** *
 416:Generated_Source\PSoC5/SPI_Master.c **** * Parameters:
 417:Generated_Source\PSoC5/SPI_Master.c **** *  None.
 418:Generated_Source\PSoC5/SPI_Master.c **** *
 419:Generated_Source\PSoC5/SPI_Master.c **** * Return:
 420:Generated_Source\PSoC5/SPI_Master.c **** *  Contents of the Rx status register.
 421:Generated_Source\PSoC5/SPI_Master.c **** *
 422:Generated_Source\PSoC5/SPI_Master.c **** * Global variables:
ARM GAS  C:\Users\HPz420\AppData\Local\Temp\ccDruRCT.s 			page 13


 423:Generated_Source\PSoC5/SPI_Master.c **** *  SPI_Master_swStatusRx - used to store in software Rx status register,
 424:Generated_Source\PSoC5/SPI_Master.c **** *  modified every function call - resets to zero.
 425:Generated_Source\PSoC5/SPI_Master.c **** *
 426:Generated_Source\PSoC5/SPI_Master.c **** * Theory:
 427:Generated_Source\PSoC5/SPI_Master.c **** *  Allows the user and the API to read the Rx status register for error
 428:Generated_Source\PSoC5/SPI_Master.c **** *  detection and flow control.
 429:Generated_Source\PSoC5/SPI_Master.c **** *
 430:Generated_Source\PSoC5/SPI_Master.c **** * Side Effects:
 431:Generated_Source\PSoC5/SPI_Master.c **** *  Clear Rx status register of the component.
 432:Generated_Source\PSoC5/SPI_Master.c **** *
 433:Generated_Source\PSoC5/SPI_Master.c **** * Reentrant:
 434:Generated_Source\PSoC5/SPI_Master.c **** *  No.
 435:Generated_Source\PSoC5/SPI_Master.c **** *
 436:Generated_Source\PSoC5/SPI_Master.c **** *******************************************************************************/
 437:Generated_Source\PSoC5/SPI_Master.c **** uint8 SPI_Master_ReadRxStatus(void) 
 438:Generated_Source\PSoC5/SPI_Master.c **** {
 263              		.loc 1 438 0
 264              		.cfi_startproc
 265              		@ args = 0, pretend = 0, frame = 0
 266              		@ frame_needed = 0, uses_anonymous_args = 0
 267              		@ link register save eliminated.
 439:Generated_Source\PSoC5/SPI_Master.c ****     uint8 tmpStatus;
 440:Generated_Source\PSoC5/SPI_Master.c **** 
 441:Generated_Source\PSoC5/SPI_Master.c ****     #if(SPI_Master_RX_SOFTWARE_BUF_ENABLED)
 442:Generated_Source\PSoC5/SPI_Master.c ****         /* Disable RX interrupt to protect global veriables */
 443:Generated_Source\PSoC5/SPI_Master.c ****         SPI_Master_DisableRxInt();
 444:Generated_Source\PSoC5/SPI_Master.c **** 
 445:Generated_Source\PSoC5/SPI_Master.c ****         tmpStatus = SPI_Master_GET_STATUS_RX(SPI_Master_swStatusRx);
 446:Generated_Source\PSoC5/SPI_Master.c ****         SPI_Master_swStatusRx = 0u;
 447:Generated_Source\PSoC5/SPI_Master.c **** 
 448:Generated_Source\PSoC5/SPI_Master.c ****         SPI_Master_EnableRxInt();
 449:Generated_Source\PSoC5/SPI_Master.c **** 
 450:Generated_Source\PSoC5/SPI_Master.c ****     #else
 451:Generated_Source\PSoC5/SPI_Master.c **** 
 452:Generated_Source\PSoC5/SPI_Master.c ****         tmpStatus = SPI_Master_RX_STATUS_REG;
 268              		.loc 1 452 0
 269 0000 014B     		ldr	r3, .L23
 270 0002 1878     		ldrb	r0, [r3]	@ zero_extendqisi2
 271              	.LVL9:
 453:Generated_Source\PSoC5/SPI_Master.c **** 
 454:Generated_Source\PSoC5/SPI_Master.c ****     #endif /* (SPI_Master_RX_SOFTWARE_BUF_ENABLED) */
 455:Generated_Source\PSoC5/SPI_Master.c **** 
 456:Generated_Source\PSoC5/SPI_Master.c ****     return(tmpStatus);
 457:Generated_Source\PSoC5/SPI_Master.c **** }
 272              		.loc 1 457 0
 273 0004 7047     		bx	lr
 274              	.L24:
 275 0006 00BF     		.align	2
 276              	.L23:
 277 0008 66650040 		.word	1073767782
 278              		.cfi_endproc
 279              	.LFE11:
 280              		.size	SPI_Master_ReadRxStatus, .-SPI_Master_ReadRxStatus
 281              		.section	.text.SPI_Master_WriteTxData,"ax",%progbits
 282              		.align	2
 283              		.global	SPI_Master_WriteTxData
 284              		.thumb
ARM GAS  C:\Users\HPz420\AppData\Local\Temp\ccDruRCT.s 			page 14


 285              		.thumb_func
 286              		.type	SPI_Master_WriteTxData, %function
 287              	SPI_Master_WriteTxData:
 288              	.LFB12:
 458:Generated_Source\PSoC5/SPI_Master.c **** 
 459:Generated_Source\PSoC5/SPI_Master.c **** 
 460:Generated_Source\PSoC5/SPI_Master.c **** /*******************************************************************************
 461:Generated_Source\PSoC5/SPI_Master.c **** * Function Name: SPI_Master_WriteTxData
 462:Generated_Source\PSoC5/SPI_Master.c **** ********************************************************************************
 463:Generated_Source\PSoC5/SPI_Master.c **** *
 464:Generated_Source\PSoC5/SPI_Master.c **** * Summary:
 465:Generated_Source\PSoC5/SPI_Master.c **** *  Write a byte of data to be sent across the SPI.
 466:Generated_Source\PSoC5/SPI_Master.c **** *
 467:Generated_Source\PSoC5/SPI_Master.c **** * Parameters:
 468:Generated_Source\PSoC5/SPI_Master.c **** *  txDataByte: The data value to send across the SPI.
 469:Generated_Source\PSoC5/SPI_Master.c **** *
 470:Generated_Source\PSoC5/SPI_Master.c **** * Return:
 471:Generated_Source\PSoC5/SPI_Master.c **** *  None.
 472:Generated_Source\PSoC5/SPI_Master.c **** *
 473:Generated_Source\PSoC5/SPI_Master.c **** * Global variables:
 474:Generated_Source\PSoC5/SPI_Master.c **** *  SPI_Master_txBufferWrite - used for the account of the bytes which
 475:Generated_Source\PSoC5/SPI_Master.c **** *  have been written down in the TX software buffer, modified every function
 476:Generated_Source\PSoC5/SPI_Master.c **** *  call if TX Software Buffer is used.
 477:Generated_Source\PSoC5/SPI_Master.c **** *  SPI_Master_txBufferRead - used for the account of the bytes which
 478:Generated_Source\PSoC5/SPI_Master.c **** *  have been read from the TX software buffer.
 479:Generated_Source\PSoC5/SPI_Master.c **** *  SPI_Master_txBuffer[SPI_Master_TX_BUFFER_SIZE] - used to store
 480:Generated_Source\PSoC5/SPI_Master.c **** *  data to sending, modified every function call if TX Software Buffer is used.
 481:Generated_Source\PSoC5/SPI_Master.c **** *
 482:Generated_Source\PSoC5/SPI_Master.c **** * Theory:
 483:Generated_Source\PSoC5/SPI_Master.c **** *  Allows the user to transmit any byte of data in a single transfer.
 484:Generated_Source\PSoC5/SPI_Master.c **** *
 485:Generated_Source\PSoC5/SPI_Master.c **** * Side Effects:
 486:Generated_Source\PSoC5/SPI_Master.c **** *  If this function is called again before the previous byte is finished then
 487:Generated_Source\PSoC5/SPI_Master.c **** *  the next byte will be appended to the transfer with no time between
 488:Generated_Source\PSoC5/SPI_Master.c **** *  the byte transfers. Clear Tx status register of the component.
 489:Generated_Source\PSoC5/SPI_Master.c **** *
 490:Generated_Source\PSoC5/SPI_Master.c **** * Reentrant:
 491:Generated_Source\PSoC5/SPI_Master.c **** *  No.
 492:Generated_Source\PSoC5/SPI_Master.c **** *
 493:Generated_Source\PSoC5/SPI_Master.c **** *******************************************************************************/
 494:Generated_Source\PSoC5/SPI_Master.c **** void SPI_Master_WriteTxData(uint8 txData) 
 495:Generated_Source\PSoC5/SPI_Master.c **** {
 289              		.loc 1 495 0
 290              		.cfi_startproc
 291              		@ args = 0, pretend = 0, frame = 0
 292              		@ frame_needed = 0, uses_anonymous_args = 0
 293              		@ link register save eliminated.
 294              	.LVL10:
 295              	.L26:
 496:Generated_Source\PSoC5/SPI_Master.c ****     #if(SPI_Master_TX_SOFTWARE_BUF_ENABLED)
 497:Generated_Source\PSoC5/SPI_Master.c **** 
 498:Generated_Source\PSoC5/SPI_Master.c ****         uint8 tempStatus;
 499:Generated_Source\PSoC5/SPI_Master.c ****         uint8 tmpTxBufferRead;
 500:Generated_Source\PSoC5/SPI_Master.c **** 
 501:Generated_Source\PSoC5/SPI_Master.c ****         /* Block if TX buffer is FULL: don't overwrite */
 502:Generated_Source\PSoC5/SPI_Master.c ****         do
 503:Generated_Source\PSoC5/SPI_Master.c ****         {
ARM GAS  C:\Users\HPz420\AppData\Local\Temp\ccDruRCT.s 			page 15


 504:Generated_Source\PSoC5/SPI_Master.c ****             tmpTxBufferRead = SPI_Master_txBufferRead;
 505:Generated_Source\PSoC5/SPI_Master.c ****             if(0u == tmpTxBufferRead)
 506:Generated_Source\PSoC5/SPI_Master.c ****             {
 507:Generated_Source\PSoC5/SPI_Master.c ****                 tmpTxBufferRead = (SPI_Master_TX_BUFFER_SIZE - 1u);
 508:Generated_Source\PSoC5/SPI_Master.c ****             }
 509:Generated_Source\PSoC5/SPI_Master.c ****             else
 510:Generated_Source\PSoC5/SPI_Master.c ****             {
 511:Generated_Source\PSoC5/SPI_Master.c ****                 tmpTxBufferRead--;
 512:Generated_Source\PSoC5/SPI_Master.c ****             }
 513:Generated_Source\PSoC5/SPI_Master.c **** 
 514:Generated_Source\PSoC5/SPI_Master.c ****         }while(tmpTxBufferRead == SPI_Master_txBufferWrite);
 515:Generated_Source\PSoC5/SPI_Master.c **** 
 516:Generated_Source\PSoC5/SPI_Master.c ****         /* Disable TX interrupt to protect global veriables */
 517:Generated_Source\PSoC5/SPI_Master.c ****         SPI_Master_DisableTxInt();
 518:Generated_Source\PSoC5/SPI_Master.c **** 
 519:Generated_Source\PSoC5/SPI_Master.c ****         tempStatus = SPI_Master_GET_STATUS_TX(SPI_Master_swStatusTx);
 520:Generated_Source\PSoC5/SPI_Master.c ****         SPI_Master_swStatusTx = tempStatus;
 521:Generated_Source\PSoC5/SPI_Master.c **** 
 522:Generated_Source\PSoC5/SPI_Master.c **** 
 523:Generated_Source\PSoC5/SPI_Master.c ****         if((SPI_Master_txBufferRead == SPI_Master_txBufferWrite) &&
 524:Generated_Source\PSoC5/SPI_Master.c ****            (0u != (SPI_Master_swStatusTx & SPI_Master_STS_TX_FIFO_NOT_FULL)))
 525:Generated_Source\PSoC5/SPI_Master.c ****         {
 526:Generated_Source\PSoC5/SPI_Master.c ****             /* Put data element into the TX FIFO */
 527:Generated_Source\PSoC5/SPI_Master.c ****             CY_SET_REG8(SPI_Master_TXDATA_PTR, txData);
 528:Generated_Source\PSoC5/SPI_Master.c ****         }
 529:Generated_Source\PSoC5/SPI_Master.c ****         else
 530:Generated_Source\PSoC5/SPI_Master.c ****         {
 531:Generated_Source\PSoC5/SPI_Master.c ****             /* Add to the TX software buffer */
 532:Generated_Source\PSoC5/SPI_Master.c ****             SPI_Master_txBufferWrite++;
 533:Generated_Source\PSoC5/SPI_Master.c ****             if(SPI_Master_txBufferWrite >= SPI_Master_TX_BUFFER_SIZE)
 534:Generated_Source\PSoC5/SPI_Master.c ****             {
 535:Generated_Source\PSoC5/SPI_Master.c ****                 SPI_Master_txBufferWrite = 0u;
 536:Generated_Source\PSoC5/SPI_Master.c ****             }
 537:Generated_Source\PSoC5/SPI_Master.c **** 
 538:Generated_Source\PSoC5/SPI_Master.c ****             if(SPI_Master_txBufferWrite == SPI_Master_txBufferRead)
 539:Generated_Source\PSoC5/SPI_Master.c ****             {
 540:Generated_Source\PSoC5/SPI_Master.c ****                 SPI_Master_txBufferRead++;
 541:Generated_Source\PSoC5/SPI_Master.c ****                 if(SPI_Master_txBufferRead >= SPI_Master_TX_BUFFER_SIZE)
 542:Generated_Source\PSoC5/SPI_Master.c ****                 {
 543:Generated_Source\PSoC5/SPI_Master.c ****                     SPI_Master_txBufferRead = 0u;
 544:Generated_Source\PSoC5/SPI_Master.c ****                 }
 545:Generated_Source\PSoC5/SPI_Master.c ****                 SPI_Master_txBufferFull = 1u;
 546:Generated_Source\PSoC5/SPI_Master.c ****             }
 547:Generated_Source\PSoC5/SPI_Master.c **** 
 548:Generated_Source\PSoC5/SPI_Master.c ****             SPI_Master_txBuffer[SPI_Master_txBufferWrite] = txData;
 549:Generated_Source\PSoC5/SPI_Master.c **** 
 550:Generated_Source\PSoC5/SPI_Master.c ****             SPI_Master_TX_STATUS_MASK_REG |= SPI_Master_STS_TX_FIFO_NOT_FULL;
 551:Generated_Source\PSoC5/SPI_Master.c ****         }
 552:Generated_Source\PSoC5/SPI_Master.c **** 
 553:Generated_Source\PSoC5/SPI_Master.c ****         SPI_Master_EnableTxInt();
 554:Generated_Source\PSoC5/SPI_Master.c **** 
 555:Generated_Source\PSoC5/SPI_Master.c ****     #else
 556:Generated_Source\PSoC5/SPI_Master.c ****         /* Wait until TX FIFO has a place */
 557:Generated_Source\PSoC5/SPI_Master.c ****         while(0u == (SPI_Master_TX_STATUS_REG & SPI_Master_STS_TX_FIFO_NOT_FULL))
 296              		.loc 1 557 0 discriminator 1
 297 0000 034B     		ldr	r3, .L27
 298 0002 1B78     		ldrb	r3, [r3]	@ zero_extendqisi2
ARM GAS  C:\Users\HPz420\AppData\Local\Temp\ccDruRCT.s 			page 16


 299 0004 13F0040F 		tst	r3, #4
 300 0008 FAD0     		beq	.L26
 558:Generated_Source\PSoC5/SPI_Master.c ****         {
 559:Generated_Source\PSoC5/SPI_Master.c ****         }
 560:Generated_Source\PSoC5/SPI_Master.c **** 
 561:Generated_Source\PSoC5/SPI_Master.c ****         /* Put data element into the TX FIFO */
 562:Generated_Source\PSoC5/SPI_Master.c ****         CY_SET_REG8(SPI_Master_TXDATA_PTR, txData);
 301              		.loc 1 562 0
 302 000a 024B     		ldr	r3, .L27+4
 303 000c 1870     		strb	r0, [r3]
 304 000e 7047     		bx	lr
 305              	.L28:
 306              		.align	2
 307              	.L27:
 308 0010 65640040 		.word	1073767525
 309 0014 46640040 		.word	1073767494
 310              		.cfi_endproc
 311              	.LFE12:
 312              		.size	SPI_Master_WriteTxData, .-SPI_Master_WriteTxData
 313              		.section	.text.SPI_Master_ReadRxData,"ax",%progbits
 314              		.align	2
 315              		.global	SPI_Master_ReadRxData
 316              		.thumb
 317              		.thumb_func
 318              		.type	SPI_Master_ReadRxData, %function
 319              	SPI_Master_ReadRxData:
 320              	.LFB13:
 563:Generated_Source\PSoC5/SPI_Master.c **** 
 564:Generated_Source\PSoC5/SPI_Master.c ****     #endif /* (SPI_Master_TX_SOFTWARE_BUF_ENABLED) */
 565:Generated_Source\PSoC5/SPI_Master.c **** }
 566:Generated_Source\PSoC5/SPI_Master.c **** 
 567:Generated_Source\PSoC5/SPI_Master.c **** 
 568:Generated_Source\PSoC5/SPI_Master.c **** /*******************************************************************************
 569:Generated_Source\PSoC5/SPI_Master.c **** * Function Name: SPI_Master_ReadRxData
 570:Generated_Source\PSoC5/SPI_Master.c **** ********************************************************************************
 571:Generated_Source\PSoC5/SPI_Master.c **** *
 572:Generated_Source\PSoC5/SPI_Master.c **** * Summary:
 573:Generated_Source\PSoC5/SPI_Master.c **** *  Read the next byte of data received across the SPI.
 574:Generated_Source\PSoC5/SPI_Master.c **** *
 575:Generated_Source\PSoC5/SPI_Master.c **** * Parameters:
 576:Generated_Source\PSoC5/SPI_Master.c **** *  None.
 577:Generated_Source\PSoC5/SPI_Master.c **** *
 578:Generated_Source\PSoC5/SPI_Master.c **** * Return:
 579:Generated_Source\PSoC5/SPI_Master.c **** *  The next byte of data read from the FIFO.
 580:Generated_Source\PSoC5/SPI_Master.c **** *
 581:Generated_Source\PSoC5/SPI_Master.c **** * Global variables:
 582:Generated_Source\PSoC5/SPI_Master.c **** *  SPI_Master_rxBufferWrite - used for the account of the bytes which
 583:Generated_Source\PSoC5/SPI_Master.c **** *  have been written down in the RX software buffer.
 584:Generated_Source\PSoC5/SPI_Master.c **** *  SPI_Master_rxBufferRead - used for the account of the bytes which
 585:Generated_Source\PSoC5/SPI_Master.c **** *  have been read from the RX software buffer, modified every function
 586:Generated_Source\PSoC5/SPI_Master.c **** *  call if RX Software Buffer is used.
 587:Generated_Source\PSoC5/SPI_Master.c **** *  SPI_Master_rxBuffer[SPI_Master_RX_BUFFER_SIZE] - used to store
 588:Generated_Source\PSoC5/SPI_Master.c **** *  received data.
 589:Generated_Source\PSoC5/SPI_Master.c **** *
 590:Generated_Source\PSoC5/SPI_Master.c **** * Theory:
 591:Generated_Source\PSoC5/SPI_Master.c **** *  Allows the user to read a byte of data received.
 592:Generated_Source\PSoC5/SPI_Master.c **** *
ARM GAS  C:\Users\HPz420\AppData\Local\Temp\ccDruRCT.s 			page 17


 593:Generated_Source\PSoC5/SPI_Master.c **** * Side Effects:
 594:Generated_Source\PSoC5/SPI_Master.c **** *  Will return invalid data if the FIFO is empty. The user should Call
 595:Generated_Source\PSoC5/SPI_Master.c **** *  GetRxBufferSize() and if it returns a non-zero value then it is safe to call
 596:Generated_Source\PSoC5/SPI_Master.c **** *  ReadByte() function.
 597:Generated_Source\PSoC5/SPI_Master.c **** *
 598:Generated_Source\PSoC5/SPI_Master.c **** * Reentrant:
 599:Generated_Source\PSoC5/SPI_Master.c **** *  No.
 600:Generated_Source\PSoC5/SPI_Master.c **** *
 601:Generated_Source\PSoC5/SPI_Master.c **** *******************************************************************************/
 602:Generated_Source\PSoC5/SPI_Master.c **** uint8 SPI_Master_ReadRxData(void) 
 603:Generated_Source\PSoC5/SPI_Master.c **** {
 321              		.loc 1 603 0
 322              		.cfi_startproc
 323              		@ args = 0, pretend = 0, frame = 0
 324              		@ frame_needed = 0, uses_anonymous_args = 0
 325              		@ link register save eliminated.
 604:Generated_Source\PSoC5/SPI_Master.c ****     uint8 rxData;
 605:Generated_Source\PSoC5/SPI_Master.c **** 
 606:Generated_Source\PSoC5/SPI_Master.c ****     #if(SPI_Master_RX_SOFTWARE_BUF_ENABLED)
 607:Generated_Source\PSoC5/SPI_Master.c **** 
 608:Generated_Source\PSoC5/SPI_Master.c ****         /* Disable RX interrupt to protect global veriables */
 609:Generated_Source\PSoC5/SPI_Master.c ****         SPI_Master_DisableRxInt();
 610:Generated_Source\PSoC5/SPI_Master.c **** 
 611:Generated_Source\PSoC5/SPI_Master.c ****         if(SPI_Master_rxBufferRead != SPI_Master_rxBufferWrite)
 612:Generated_Source\PSoC5/SPI_Master.c ****         {
 613:Generated_Source\PSoC5/SPI_Master.c ****             if(0u == SPI_Master_rxBufferFull)
 614:Generated_Source\PSoC5/SPI_Master.c ****             {
 615:Generated_Source\PSoC5/SPI_Master.c ****                 SPI_Master_rxBufferRead++;
 616:Generated_Source\PSoC5/SPI_Master.c ****                 if(SPI_Master_rxBufferRead >= SPI_Master_RX_BUFFER_SIZE)
 617:Generated_Source\PSoC5/SPI_Master.c ****                 {
 618:Generated_Source\PSoC5/SPI_Master.c ****                     SPI_Master_rxBufferRead = 0u;
 619:Generated_Source\PSoC5/SPI_Master.c ****                 }
 620:Generated_Source\PSoC5/SPI_Master.c ****             }
 621:Generated_Source\PSoC5/SPI_Master.c ****             else
 622:Generated_Source\PSoC5/SPI_Master.c ****             {
 623:Generated_Source\PSoC5/SPI_Master.c ****                 SPI_Master_rxBufferFull = 0u;
 624:Generated_Source\PSoC5/SPI_Master.c ****             }
 625:Generated_Source\PSoC5/SPI_Master.c ****         }
 626:Generated_Source\PSoC5/SPI_Master.c **** 
 627:Generated_Source\PSoC5/SPI_Master.c ****         rxData = SPI_Master_rxBuffer[SPI_Master_rxBufferRead];
 628:Generated_Source\PSoC5/SPI_Master.c **** 
 629:Generated_Source\PSoC5/SPI_Master.c ****         SPI_Master_EnableRxInt();
 630:Generated_Source\PSoC5/SPI_Master.c **** 
 631:Generated_Source\PSoC5/SPI_Master.c ****     #else
 632:Generated_Source\PSoC5/SPI_Master.c **** 
 633:Generated_Source\PSoC5/SPI_Master.c ****         rxData = CY_GET_REG8(SPI_Master_RXDATA_PTR);
 326              		.loc 1 633 0
 327 0000 014B     		ldr	r3, .L30
 328 0002 1878     		ldrb	r0, [r3]	@ zero_extendqisi2
 329              	.LVL11:
 634:Generated_Source\PSoC5/SPI_Master.c **** 
 635:Generated_Source\PSoC5/SPI_Master.c ****     #endif /* (SPI_Master_RX_SOFTWARE_BUF_ENABLED) */
 636:Generated_Source\PSoC5/SPI_Master.c **** 
 637:Generated_Source\PSoC5/SPI_Master.c ****     return(rxData);
 638:Generated_Source\PSoC5/SPI_Master.c **** }
 330              		.loc 1 638 0
 331 0004 7047     		bx	lr
ARM GAS  C:\Users\HPz420\AppData\Local\Temp\ccDruRCT.s 			page 18


 332              	.L31:
 333 0006 00BF     		.align	2
 334              	.L30:
 335 0008 56640040 		.word	1073767510
 336              		.cfi_endproc
 337              	.LFE13:
 338              		.size	SPI_Master_ReadRxData, .-SPI_Master_ReadRxData
 339              		.section	.text.SPI_Master_GetRxBufferSize,"ax",%progbits
 340              		.align	2
 341              		.global	SPI_Master_GetRxBufferSize
 342              		.thumb
 343              		.thumb_func
 344              		.type	SPI_Master_GetRxBufferSize, %function
 345              	SPI_Master_GetRxBufferSize:
 346              	.LFB14:
 639:Generated_Source\PSoC5/SPI_Master.c **** 
 640:Generated_Source\PSoC5/SPI_Master.c **** 
 641:Generated_Source\PSoC5/SPI_Master.c **** /*******************************************************************************
 642:Generated_Source\PSoC5/SPI_Master.c **** * Function Name: SPI_Master_GetRxBufferSize
 643:Generated_Source\PSoC5/SPI_Master.c **** ********************************************************************************
 644:Generated_Source\PSoC5/SPI_Master.c **** *
 645:Generated_Source\PSoC5/SPI_Master.c **** * Summary:
 646:Generated_Source\PSoC5/SPI_Master.c **** *  Returns the number of bytes/words of data currently held in the RX buffer.
 647:Generated_Source\PSoC5/SPI_Master.c **** *  If RX Software Buffer not used then function return 0 if FIFO empty or 1 if
 648:Generated_Source\PSoC5/SPI_Master.c **** *  FIFO not empty. In another case function return size of RX Software Buffer.
 649:Generated_Source\PSoC5/SPI_Master.c **** *
 650:Generated_Source\PSoC5/SPI_Master.c **** * Parameters:
 651:Generated_Source\PSoC5/SPI_Master.c **** *  None.
 652:Generated_Source\PSoC5/SPI_Master.c **** *
 653:Generated_Source\PSoC5/SPI_Master.c **** * Return:
 654:Generated_Source\PSoC5/SPI_Master.c **** *  Integer count of the number of bytes/words in the RX buffer.
 655:Generated_Source\PSoC5/SPI_Master.c **** *
 656:Generated_Source\PSoC5/SPI_Master.c **** * Global variables:
 657:Generated_Source\PSoC5/SPI_Master.c **** *  SPI_Master_rxBufferWrite - used for the account of the bytes which
 658:Generated_Source\PSoC5/SPI_Master.c **** *  have been written down in the RX software buffer.
 659:Generated_Source\PSoC5/SPI_Master.c **** *  SPI_Master_rxBufferRead - used for the account of the bytes which
 660:Generated_Source\PSoC5/SPI_Master.c **** *  have been read from the RX software buffer.
 661:Generated_Source\PSoC5/SPI_Master.c **** *
 662:Generated_Source\PSoC5/SPI_Master.c **** * Side Effects:
 663:Generated_Source\PSoC5/SPI_Master.c **** *  Clear status register of the component.
 664:Generated_Source\PSoC5/SPI_Master.c **** *
 665:Generated_Source\PSoC5/SPI_Master.c **** *******************************************************************************/
 666:Generated_Source\PSoC5/SPI_Master.c **** uint8 SPI_Master_GetRxBufferSize(void) 
 667:Generated_Source\PSoC5/SPI_Master.c **** {
 347              		.loc 1 667 0
 348              		.cfi_startproc
 349              		@ args = 0, pretend = 0, frame = 0
 350              		@ frame_needed = 0, uses_anonymous_args = 0
 351              		@ link register save eliminated.
 668:Generated_Source\PSoC5/SPI_Master.c ****     uint8 size;
 669:Generated_Source\PSoC5/SPI_Master.c **** 
 670:Generated_Source\PSoC5/SPI_Master.c ****     #if(SPI_Master_RX_SOFTWARE_BUF_ENABLED)
 671:Generated_Source\PSoC5/SPI_Master.c **** 
 672:Generated_Source\PSoC5/SPI_Master.c ****         /* Disable RX interrupt to protect global veriables */
 673:Generated_Source\PSoC5/SPI_Master.c ****         SPI_Master_DisableRxInt();
 674:Generated_Source\PSoC5/SPI_Master.c **** 
 675:Generated_Source\PSoC5/SPI_Master.c ****         if(SPI_Master_rxBufferRead == SPI_Master_rxBufferWrite)
ARM GAS  C:\Users\HPz420\AppData\Local\Temp\ccDruRCT.s 			page 19


 676:Generated_Source\PSoC5/SPI_Master.c ****         {
 677:Generated_Source\PSoC5/SPI_Master.c ****             size = 0u;
 678:Generated_Source\PSoC5/SPI_Master.c ****         }
 679:Generated_Source\PSoC5/SPI_Master.c ****         else if(SPI_Master_rxBufferRead < SPI_Master_rxBufferWrite)
 680:Generated_Source\PSoC5/SPI_Master.c ****         {
 681:Generated_Source\PSoC5/SPI_Master.c ****             size = (SPI_Master_rxBufferWrite - SPI_Master_rxBufferRead);
 682:Generated_Source\PSoC5/SPI_Master.c ****         }
 683:Generated_Source\PSoC5/SPI_Master.c ****         else
 684:Generated_Source\PSoC5/SPI_Master.c ****         {
 685:Generated_Source\PSoC5/SPI_Master.c ****             size = (SPI_Master_RX_BUFFER_SIZE - SPI_Master_rxBufferRead) + SPI_Master_rxBufferWrite
 686:Generated_Source\PSoC5/SPI_Master.c ****         }
 687:Generated_Source\PSoC5/SPI_Master.c **** 
 688:Generated_Source\PSoC5/SPI_Master.c ****         SPI_Master_EnableRxInt();
 689:Generated_Source\PSoC5/SPI_Master.c **** 
 690:Generated_Source\PSoC5/SPI_Master.c ****     #else
 691:Generated_Source\PSoC5/SPI_Master.c **** 
 692:Generated_Source\PSoC5/SPI_Master.c ****         /* We can only know if there is data in the RX FIFO */
 693:Generated_Source\PSoC5/SPI_Master.c ****         size = (0u != (SPI_Master_RX_STATUS_REG & SPI_Master_STS_RX_FIFO_NOT_EMPTY)) ? 1u : 0u;
 352              		.loc 1 693 0
 353 0000 044B     		ldr	r3, .L35
 354 0002 1B78     		ldrb	r3, [r3]	@ zero_extendqisi2
 355 0004 13F0200F 		tst	r3, #32
 356 0008 01D0     		beq	.L34
 357 000a 0120     		movs	r0, #1
 358 000c 7047     		bx	lr
 359              	.L34:
 360 000e 0020     		movs	r0, #0
 361              	.LVL12:
 694:Generated_Source\PSoC5/SPI_Master.c **** 
 695:Generated_Source\PSoC5/SPI_Master.c ****     #endif /* (SPI_Master_TX_SOFTWARE_BUF_ENABLED) */
 696:Generated_Source\PSoC5/SPI_Master.c **** 
 697:Generated_Source\PSoC5/SPI_Master.c ****     return(size);
 698:Generated_Source\PSoC5/SPI_Master.c **** }
 362              		.loc 1 698 0
 363 0010 7047     		bx	lr
 364              	.L36:
 365 0012 00BF     		.align	2
 366              	.L35:
 367 0014 66650040 		.word	1073767782
 368              		.cfi_endproc
 369              	.LFE14:
 370              		.size	SPI_Master_GetRxBufferSize, .-SPI_Master_GetRxBufferSize
 371              		.section	.text.SPI_Master_GetTxBufferSize,"ax",%progbits
 372              		.align	2
 373              		.global	SPI_Master_GetTxBufferSize
 374              		.thumb
 375              		.thumb_func
 376              		.type	SPI_Master_GetTxBufferSize, %function
 377              	SPI_Master_GetTxBufferSize:
 378              	.LFB15:
 699:Generated_Source\PSoC5/SPI_Master.c **** 
 700:Generated_Source\PSoC5/SPI_Master.c **** 
 701:Generated_Source\PSoC5/SPI_Master.c **** /*******************************************************************************
 702:Generated_Source\PSoC5/SPI_Master.c **** * Function Name: SPI_Master_GetTxBufferSize
 703:Generated_Source\PSoC5/SPI_Master.c **** ********************************************************************************
 704:Generated_Source\PSoC5/SPI_Master.c **** *
 705:Generated_Source\PSoC5/SPI_Master.c **** * Summary:
ARM GAS  C:\Users\HPz420\AppData\Local\Temp\ccDruRCT.s 			page 20


 706:Generated_Source\PSoC5/SPI_Master.c **** *  Returns the number of bytes/words of data currently held in the TX buffer.
 707:Generated_Source\PSoC5/SPI_Master.c **** *  If TX Software Buffer not used then function return 0 - if FIFO empty, 1 - if
 708:Generated_Source\PSoC5/SPI_Master.c **** *  FIFO not full, 4 - if FIFO full. In another case function return size of TX
 709:Generated_Source\PSoC5/SPI_Master.c **** *  Software Buffer.
 710:Generated_Source\PSoC5/SPI_Master.c **** *
 711:Generated_Source\PSoC5/SPI_Master.c **** * Parameters:
 712:Generated_Source\PSoC5/SPI_Master.c **** *  None.
 713:Generated_Source\PSoC5/SPI_Master.c **** *
 714:Generated_Source\PSoC5/SPI_Master.c **** * Return:
 715:Generated_Source\PSoC5/SPI_Master.c **** *  Integer count of the number of bytes/words in the TX buffer.
 716:Generated_Source\PSoC5/SPI_Master.c **** *
 717:Generated_Source\PSoC5/SPI_Master.c **** * Global variables:
 718:Generated_Source\PSoC5/SPI_Master.c **** *  SPI_Master_txBufferWrite - used for the account of the bytes which
 719:Generated_Source\PSoC5/SPI_Master.c **** *  have been written down in the TX software buffer.
 720:Generated_Source\PSoC5/SPI_Master.c **** *  SPI_Master_txBufferRead - used for the account of the bytes which
 721:Generated_Source\PSoC5/SPI_Master.c **** *  have been read from the TX software buffer.
 722:Generated_Source\PSoC5/SPI_Master.c **** *
 723:Generated_Source\PSoC5/SPI_Master.c **** * Side Effects:
 724:Generated_Source\PSoC5/SPI_Master.c **** *  Clear status register of the component.
 725:Generated_Source\PSoC5/SPI_Master.c **** *
 726:Generated_Source\PSoC5/SPI_Master.c **** *******************************************************************************/
 727:Generated_Source\PSoC5/SPI_Master.c **** uint8  SPI_Master_GetTxBufferSize(void) 
 728:Generated_Source\PSoC5/SPI_Master.c **** {
 379              		.loc 1 728 0
 380              		.cfi_startproc
 381              		@ args = 0, pretend = 0, frame = 0
 382              		@ frame_needed = 0, uses_anonymous_args = 0
 383              		@ link register save eliminated.
 729:Generated_Source\PSoC5/SPI_Master.c ****     uint8 size;
 730:Generated_Source\PSoC5/SPI_Master.c **** 
 731:Generated_Source\PSoC5/SPI_Master.c ****     #if(SPI_Master_TX_SOFTWARE_BUF_ENABLED)
 732:Generated_Source\PSoC5/SPI_Master.c ****         /* Disable TX interrupt to protect global veriables */
 733:Generated_Source\PSoC5/SPI_Master.c ****         SPI_Master_DisableTxInt();
 734:Generated_Source\PSoC5/SPI_Master.c **** 
 735:Generated_Source\PSoC5/SPI_Master.c ****         if(SPI_Master_txBufferRead == SPI_Master_txBufferWrite)
 736:Generated_Source\PSoC5/SPI_Master.c ****         {
 737:Generated_Source\PSoC5/SPI_Master.c ****             size = 0u;
 738:Generated_Source\PSoC5/SPI_Master.c ****         }
 739:Generated_Source\PSoC5/SPI_Master.c ****         else if(SPI_Master_txBufferRead < SPI_Master_txBufferWrite)
 740:Generated_Source\PSoC5/SPI_Master.c ****         {
 741:Generated_Source\PSoC5/SPI_Master.c ****             size = (SPI_Master_txBufferWrite - SPI_Master_txBufferRead);
 742:Generated_Source\PSoC5/SPI_Master.c ****         }
 743:Generated_Source\PSoC5/SPI_Master.c ****         else
 744:Generated_Source\PSoC5/SPI_Master.c ****         {
 745:Generated_Source\PSoC5/SPI_Master.c ****             size = (SPI_Master_TX_BUFFER_SIZE - SPI_Master_txBufferRead) + SPI_Master_txBufferWrite
 746:Generated_Source\PSoC5/SPI_Master.c ****         }
 747:Generated_Source\PSoC5/SPI_Master.c **** 
 748:Generated_Source\PSoC5/SPI_Master.c ****         SPI_Master_EnableTxInt();
 749:Generated_Source\PSoC5/SPI_Master.c **** 
 750:Generated_Source\PSoC5/SPI_Master.c ****     #else
 751:Generated_Source\PSoC5/SPI_Master.c **** 
 752:Generated_Source\PSoC5/SPI_Master.c ****         size = SPI_Master_TX_STATUS_REG;
 384              		.loc 1 752 0
 385 0000 074B     		ldr	r3, .L41
 386 0002 1B78     		ldrb	r3, [r3]	@ zero_extendqisi2
 387 0004 DBB2     		uxtb	r3, r3
 388              	.LVL13:
ARM GAS  C:\Users\HPz420\AppData\Local\Temp\ccDruRCT.s 			page 21


 753:Generated_Source\PSoC5/SPI_Master.c **** 
 754:Generated_Source\PSoC5/SPI_Master.c ****         if(0u != (size & SPI_Master_STS_TX_FIFO_EMPTY))
 389              		.loc 1 754 0
 390 0006 13F0020F 		tst	r3, #2
 391 000a 04D1     		bne	.L39
 755:Generated_Source\PSoC5/SPI_Master.c ****         {
 756:Generated_Source\PSoC5/SPI_Master.c ****             size = 0u;
 757:Generated_Source\PSoC5/SPI_Master.c ****         }
 758:Generated_Source\PSoC5/SPI_Master.c ****         else if(0u != (size & SPI_Master_STS_TX_FIFO_NOT_FULL))
 392              		.loc 1 758 0
 393 000c 13F0040F 		tst	r3, #4
 394 0010 03D0     		beq	.L40
 759:Generated_Source\PSoC5/SPI_Master.c ****         {
 760:Generated_Source\PSoC5/SPI_Master.c ****             size = 1u;
 395              		.loc 1 760 0
 396 0012 0120     		movs	r0, #1
 397 0014 7047     		bx	lr
 398              	.L39:
 756:Generated_Source\PSoC5/SPI_Master.c ****         }
 399              		.loc 1 756 0
 400 0016 0020     		movs	r0, #0
 401 0018 7047     		bx	lr
 402              	.L40:
 761:Generated_Source\PSoC5/SPI_Master.c ****         }
 762:Generated_Source\PSoC5/SPI_Master.c ****         else
 763:Generated_Source\PSoC5/SPI_Master.c ****         {
 764:Generated_Source\PSoC5/SPI_Master.c ****             size = SPI_Master_FIFO_SIZE;
 403              		.loc 1 764 0
 404 001a 0420     		movs	r0, #4
 405              	.LVL14:
 765:Generated_Source\PSoC5/SPI_Master.c ****         }
 766:Generated_Source\PSoC5/SPI_Master.c **** 
 767:Generated_Source\PSoC5/SPI_Master.c ****     #endif /* (SPI_Master_TX_SOFTWARE_BUF_ENABLED) */
 768:Generated_Source\PSoC5/SPI_Master.c **** 
 769:Generated_Source\PSoC5/SPI_Master.c ****     return(size);
 770:Generated_Source\PSoC5/SPI_Master.c **** }
 406              		.loc 1 770 0
 407 001c 7047     		bx	lr
 408              	.L42:
 409 001e 00BF     		.align	2
 410              	.L41:
 411 0020 65640040 		.word	1073767525
 412              		.cfi_endproc
 413              	.LFE15:
 414              		.size	SPI_Master_GetTxBufferSize, .-SPI_Master_GetTxBufferSize
 415              		.section	.text.SPI_Master_ClearRxBuffer,"ax",%progbits
 416              		.align	2
 417              		.global	SPI_Master_ClearRxBuffer
 418              		.thumb
 419              		.thumb_func
 420              		.type	SPI_Master_ClearRxBuffer, %function
 421              	SPI_Master_ClearRxBuffer:
 422              	.LFB16:
 771:Generated_Source\PSoC5/SPI_Master.c **** 
 772:Generated_Source\PSoC5/SPI_Master.c **** 
 773:Generated_Source\PSoC5/SPI_Master.c **** /*******************************************************************************
 774:Generated_Source\PSoC5/SPI_Master.c **** * Function Name: SPI_Master_ClearRxBuffer
ARM GAS  C:\Users\HPz420\AppData\Local\Temp\ccDruRCT.s 			page 22


 775:Generated_Source\PSoC5/SPI_Master.c **** ********************************************************************************
 776:Generated_Source\PSoC5/SPI_Master.c **** *
 777:Generated_Source\PSoC5/SPI_Master.c **** * Summary:
 778:Generated_Source\PSoC5/SPI_Master.c **** *  Clear the RX RAM buffer by setting the read and write pointers both to zero.
 779:Generated_Source\PSoC5/SPI_Master.c **** *
 780:Generated_Source\PSoC5/SPI_Master.c **** * Parameters:
 781:Generated_Source\PSoC5/SPI_Master.c **** *  None.
 782:Generated_Source\PSoC5/SPI_Master.c **** *
 783:Generated_Source\PSoC5/SPI_Master.c **** * Return:
 784:Generated_Source\PSoC5/SPI_Master.c **** *  None.
 785:Generated_Source\PSoC5/SPI_Master.c **** *
 786:Generated_Source\PSoC5/SPI_Master.c **** * Global variables:
 787:Generated_Source\PSoC5/SPI_Master.c **** *  SPI_Master_rxBufferWrite - used for the account of the bytes which
 788:Generated_Source\PSoC5/SPI_Master.c **** *  have been written down in the RX software buffer, modified every function
 789:Generated_Source\PSoC5/SPI_Master.c **** *  call - resets to zero.
 790:Generated_Source\PSoC5/SPI_Master.c **** *  SPI_Master_rxBufferRead - used for the account of the bytes which
 791:Generated_Source\PSoC5/SPI_Master.c **** *  have been read from the RX software buffer, modified every function call -
 792:Generated_Source\PSoC5/SPI_Master.c **** *  resets to zero.
 793:Generated_Source\PSoC5/SPI_Master.c **** *
 794:Generated_Source\PSoC5/SPI_Master.c **** * Theory:
 795:Generated_Source\PSoC5/SPI_Master.c **** *  Setting the pointers to zero makes the system believe there is no data to
 796:Generated_Source\PSoC5/SPI_Master.c **** *  read and writing will resume at address 0 overwriting any data that may have
 797:Generated_Source\PSoC5/SPI_Master.c **** *  remained in the RAM.
 798:Generated_Source\PSoC5/SPI_Master.c **** *
 799:Generated_Source\PSoC5/SPI_Master.c **** * Side Effects:
 800:Generated_Source\PSoC5/SPI_Master.c **** *  Any received data not read from the RAM buffer will be lost when overwritten.
 801:Generated_Source\PSoC5/SPI_Master.c **** *
 802:Generated_Source\PSoC5/SPI_Master.c **** * Reentrant:
 803:Generated_Source\PSoC5/SPI_Master.c **** *  No.
 804:Generated_Source\PSoC5/SPI_Master.c **** *
 805:Generated_Source\PSoC5/SPI_Master.c **** *******************************************************************************/
 806:Generated_Source\PSoC5/SPI_Master.c **** void SPI_Master_ClearRxBuffer(void) 
 807:Generated_Source\PSoC5/SPI_Master.c **** {
 423              		.loc 1 807 0
 424              		.cfi_startproc
 425              		@ args = 0, pretend = 0, frame = 0
 426              		@ frame_needed = 0, uses_anonymous_args = 0
 427              		@ link register save eliminated.
 808:Generated_Source\PSoC5/SPI_Master.c ****     /* Clear Hardware RX FIFO */
 809:Generated_Source\PSoC5/SPI_Master.c ****     while(0u !=(SPI_Master_RX_STATUS_REG & SPI_Master_STS_RX_FIFO_NOT_EMPTY))
 428              		.loc 1 809 0
 429 0000 01E0     		b	.L44
 430              	.L45:
 810:Generated_Source\PSoC5/SPI_Master.c ****     {
 811:Generated_Source\PSoC5/SPI_Master.c ****         (void) CY_GET_REG8(SPI_Master_RXDATA_PTR);
 431              		.loc 1 811 0
 432 0002 044B     		ldr	r3, .L46
 433 0004 1B78     		ldrb	r3, [r3]	@ zero_extendqisi2
 434              	.L44:
 809:Generated_Source\PSoC5/SPI_Master.c ****     {
 435              		.loc 1 809 0
 436 0006 044B     		ldr	r3, .L46+4
 437 0008 1B78     		ldrb	r3, [r3]	@ zero_extendqisi2
 438 000a 13F0200F 		tst	r3, #32
 439 000e F8D1     		bne	.L45
 812:Generated_Source\PSoC5/SPI_Master.c ****     }
 813:Generated_Source\PSoC5/SPI_Master.c **** 
ARM GAS  C:\Users\HPz420\AppData\Local\Temp\ccDruRCT.s 			page 23


 814:Generated_Source\PSoC5/SPI_Master.c ****     #if(SPI_Master_RX_SOFTWARE_BUF_ENABLED)
 815:Generated_Source\PSoC5/SPI_Master.c ****         /* Disable RX interrupt to protect global veriables */
 816:Generated_Source\PSoC5/SPI_Master.c ****         SPI_Master_DisableRxInt();
 817:Generated_Source\PSoC5/SPI_Master.c **** 
 818:Generated_Source\PSoC5/SPI_Master.c ****         SPI_Master_rxBufferFull  = 0u;
 819:Generated_Source\PSoC5/SPI_Master.c ****         SPI_Master_rxBufferRead  = 0u;
 820:Generated_Source\PSoC5/SPI_Master.c ****         SPI_Master_rxBufferWrite = 0u;
 821:Generated_Source\PSoC5/SPI_Master.c **** 
 822:Generated_Source\PSoC5/SPI_Master.c ****         SPI_Master_EnableRxInt();
 823:Generated_Source\PSoC5/SPI_Master.c ****     #endif /* (SPI_Master_RX_SOFTWARE_BUF_ENABLED) */
 824:Generated_Source\PSoC5/SPI_Master.c **** }
 440              		.loc 1 824 0
 441 0010 7047     		bx	lr
 442              	.L47:
 443 0012 00BF     		.align	2
 444              	.L46:
 445 0014 56640040 		.word	1073767510
 446 0018 66650040 		.word	1073767782
 447              		.cfi_endproc
 448              	.LFE16:
 449              		.size	SPI_Master_ClearRxBuffer, .-SPI_Master_ClearRxBuffer
 450              		.section	.text.SPI_Master_ClearTxBuffer,"ax",%progbits
 451              		.align	2
 452              		.global	SPI_Master_ClearTxBuffer
 453              		.thumb
 454              		.thumb_func
 455              		.type	SPI_Master_ClearTxBuffer, %function
 456              	SPI_Master_ClearTxBuffer:
 457              	.LFB17:
 825:Generated_Source\PSoC5/SPI_Master.c **** 
 826:Generated_Source\PSoC5/SPI_Master.c **** 
 827:Generated_Source\PSoC5/SPI_Master.c **** /*******************************************************************************
 828:Generated_Source\PSoC5/SPI_Master.c **** * Function Name: SPI_Master_ClearTxBuffer
 829:Generated_Source\PSoC5/SPI_Master.c **** ********************************************************************************
 830:Generated_Source\PSoC5/SPI_Master.c **** *
 831:Generated_Source\PSoC5/SPI_Master.c **** * Summary:
 832:Generated_Source\PSoC5/SPI_Master.c **** *  Clear the TX RAM buffer by setting the read and write pointers both to zero.
 833:Generated_Source\PSoC5/SPI_Master.c **** *
 834:Generated_Source\PSoC5/SPI_Master.c **** * Parameters:
 835:Generated_Source\PSoC5/SPI_Master.c **** *  None.
 836:Generated_Source\PSoC5/SPI_Master.c **** *
 837:Generated_Source\PSoC5/SPI_Master.c **** * Return:
 838:Generated_Source\PSoC5/SPI_Master.c **** *  None.
 839:Generated_Source\PSoC5/SPI_Master.c **** *
 840:Generated_Source\PSoC5/SPI_Master.c **** * Global variables:
 841:Generated_Source\PSoC5/SPI_Master.c **** *  SPI_Master_txBufferWrite - used for the account of the bytes which
 842:Generated_Source\PSoC5/SPI_Master.c **** *  have been written down in the TX software buffer, modified every function
 843:Generated_Source\PSoC5/SPI_Master.c **** *  call - resets to zero.
 844:Generated_Source\PSoC5/SPI_Master.c **** *  SPI_Master_txBufferRead - used for the account of the bytes which
 845:Generated_Source\PSoC5/SPI_Master.c **** *  have been read from the TX software buffer, modified every function call -
 846:Generated_Source\PSoC5/SPI_Master.c **** *  resets to zero.
 847:Generated_Source\PSoC5/SPI_Master.c **** *
 848:Generated_Source\PSoC5/SPI_Master.c **** * Theory:
 849:Generated_Source\PSoC5/SPI_Master.c **** *  Setting the pointers to zero makes the system believe there is no data to
 850:Generated_Source\PSoC5/SPI_Master.c **** *  read and writing will resume at address 0 overwriting any data that may have
 851:Generated_Source\PSoC5/SPI_Master.c **** *  remained in the RAM.
 852:Generated_Source\PSoC5/SPI_Master.c **** *
ARM GAS  C:\Users\HPz420\AppData\Local\Temp\ccDruRCT.s 			page 24


 853:Generated_Source\PSoC5/SPI_Master.c **** * Side Effects:
 854:Generated_Source\PSoC5/SPI_Master.c **** *  Any data not yet transmitted from the RAM buffer will be lost when
 855:Generated_Source\PSoC5/SPI_Master.c **** *  overwritten.
 856:Generated_Source\PSoC5/SPI_Master.c **** *
 857:Generated_Source\PSoC5/SPI_Master.c **** * Reentrant:
 858:Generated_Source\PSoC5/SPI_Master.c **** *  No.
 859:Generated_Source\PSoC5/SPI_Master.c **** *
 860:Generated_Source\PSoC5/SPI_Master.c **** *******************************************************************************/
 861:Generated_Source\PSoC5/SPI_Master.c **** void SPI_Master_ClearTxBuffer(void) 
 862:Generated_Source\PSoC5/SPI_Master.c **** {
 458              		.loc 1 862 0
 459              		.cfi_startproc
 460              		@ args = 0, pretend = 0, frame = 0
 461              		@ frame_needed = 0, uses_anonymous_args = 0
 462 0000 08B5     		push	{r3, lr}
 463              		.cfi_def_cfa_offset 8
 464              		.cfi_offset 3, -8
 465              		.cfi_offset 14, -4
 863:Generated_Source\PSoC5/SPI_Master.c ****     uint8 enableInterrupts;
 864:Generated_Source\PSoC5/SPI_Master.c **** 
 865:Generated_Source\PSoC5/SPI_Master.c ****     enableInterrupts = CyEnterCriticalSection();
 466              		.loc 1 865 0
 467 0002 FFF7FEFF 		bl	CyEnterCriticalSection
 468              	.LVL15:
 866:Generated_Source\PSoC5/SPI_Master.c ****     /* Clear TX FIFO */
 867:Generated_Source\PSoC5/SPI_Master.c ****     SPI_Master_AUX_CONTROL_DP0_REG |= ((uint8)  SPI_Master_TX_FIFO_CLR);
 469              		.loc 1 867 0
 470 0006 064B     		ldr	r3, .L50
 471 0008 1A78     		ldrb	r2, [r3]	@ zero_extendqisi2
 472 000a 42F00102 		orr	r2, r2, #1
 473 000e 1A70     		strb	r2, [r3]
 868:Generated_Source\PSoC5/SPI_Master.c ****     SPI_Master_AUX_CONTROL_DP0_REG &= ((uint8) ~SPI_Master_TX_FIFO_CLR);
 474              		.loc 1 868 0
 475 0010 1A78     		ldrb	r2, [r3]	@ zero_extendqisi2
 476 0012 02F0FE02 		and	r2, r2, #254
 477 0016 1A70     		strb	r2, [r3]
 869:Generated_Source\PSoC5/SPI_Master.c **** 
 870:Generated_Source\PSoC5/SPI_Master.c ****     #if(SPI_Master_USE_SECOND_DATAPATH)
 871:Generated_Source\PSoC5/SPI_Master.c ****         /* Clear TX FIFO for 2nd Datapath */
 872:Generated_Source\PSoC5/SPI_Master.c ****         SPI_Master_AUX_CONTROL_DP1_REG |= ((uint8)  SPI_Master_TX_FIFO_CLR);
 873:Generated_Source\PSoC5/SPI_Master.c ****         SPI_Master_AUX_CONTROL_DP1_REG &= ((uint8) ~SPI_Master_TX_FIFO_CLR);
 874:Generated_Source\PSoC5/SPI_Master.c ****     #endif /* (SPI_Master_USE_SECOND_DATAPATH) */
 875:Generated_Source\PSoC5/SPI_Master.c ****     CyExitCriticalSection(enableInterrupts);
 478              		.loc 1 875 0
 479 0018 FFF7FEFF 		bl	CyExitCriticalSection
 480              	.LVL16:
 481 001c 08BD     		pop	{r3, pc}
 482              	.L51:
 483 001e 00BF     		.align	2
 484              	.L50:
 485 0020 96640040 		.word	1073767574
 486              		.cfi_endproc
 487              	.LFE17:
 488              		.size	SPI_Master_ClearTxBuffer, .-SPI_Master_ClearTxBuffer
 489              		.section	.text.SPI_Master_PutArray,"ax",%progbits
 490              		.align	2
 491              		.global	SPI_Master_PutArray
ARM GAS  C:\Users\HPz420\AppData\Local\Temp\ccDruRCT.s 			page 25


 492              		.thumb
 493              		.thumb_func
 494              		.type	SPI_Master_PutArray, %function
 495              	SPI_Master_PutArray:
 496              	.LFB18:
 876:Generated_Source\PSoC5/SPI_Master.c **** 
 877:Generated_Source\PSoC5/SPI_Master.c ****     #if(SPI_Master_TX_SOFTWARE_BUF_ENABLED)
 878:Generated_Source\PSoC5/SPI_Master.c ****         /* Disable TX interrupt to protect global veriables */
 879:Generated_Source\PSoC5/SPI_Master.c ****         SPI_Master_DisableTxInt();
 880:Generated_Source\PSoC5/SPI_Master.c **** 
 881:Generated_Source\PSoC5/SPI_Master.c ****         SPI_Master_txBufferFull  = 0u;
 882:Generated_Source\PSoC5/SPI_Master.c ****         SPI_Master_txBufferRead  = 0u;
 883:Generated_Source\PSoC5/SPI_Master.c ****         SPI_Master_txBufferWrite = 0u;
 884:Generated_Source\PSoC5/SPI_Master.c **** 
 885:Generated_Source\PSoC5/SPI_Master.c ****         /* Buffer is EMPTY: disable TX FIFO NOT FULL interrupt */
 886:Generated_Source\PSoC5/SPI_Master.c ****         SPI_Master_TX_STATUS_MASK_REG &= ((uint8) ~SPI_Master_STS_TX_FIFO_NOT_FULL);
 887:Generated_Source\PSoC5/SPI_Master.c **** 
 888:Generated_Source\PSoC5/SPI_Master.c ****         SPI_Master_EnableTxInt();
 889:Generated_Source\PSoC5/SPI_Master.c ****     #endif /* (SPI_Master_TX_SOFTWARE_BUF_ENABLED) */
 890:Generated_Source\PSoC5/SPI_Master.c **** }
 891:Generated_Source\PSoC5/SPI_Master.c **** 
 892:Generated_Source\PSoC5/SPI_Master.c **** 
 893:Generated_Source\PSoC5/SPI_Master.c **** #if(0u != SPI_Master_BIDIRECTIONAL_MODE)
 894:Generated_Source\PSoC5/SPI_Master.c ****     /*******************************************************************************
 895:Generated_Source\PSoC5/SPI_Master.c ****     * Function Name: SPI_Master_TxEnable
 896:Generated_Source\PSoC5/SPI_Master.c ****     ********************************************************************************
 897:Generated_Source\PSoC5/SPI_Master.c ****     *
 898:Generated_Source\PSoC5/SPI_Master.c ****     * Summary:
 899:Generated_Source\PSoC5/SPI_Master.c ****     *  If the SPI master is configured to use a single bi-directional pin then this
 900:Generated_Source\PSoC5/SPI_Master.c ****     *  will set the bi-directional pin to transmit.
 901:Generated_Source\PSoC5/SPI_Master.c ****     *
 902:Generated_Source\PSoC5/SPI_Master.c ****     * Parameters:
 903:Generated_Source\PSoC5/SPI_Master.c ****     *  None.
 904:Generated_Source\PSoC5/SPI_Master.c ****     *
 905:Generated_Source\PSoC5/SPI_Master.c ****     * Return:
 906:Generated_Source\PSoC5/SPI_Master.c ****     *  None.
 907:Generated_Source\PSoC5/SPI_Master.c ****     *
 908:Generated_Source\PSoC5/SPI_Master.c ****     *******************************************************************************/
 909:Generated_Source\PSoC5/SPI_Master.c ****     void SPI_Master_TxEnable(void) 
 910:Generated_Source\PSoC5/SPI_Master.c ****     {
 911:Generated_Source\PSoC5/SPI_Master.c ****         SPI_Master_CONTROL_REG |= SPI_Master_CTRL_TX_SIGNAL_EN;
 912:Generated_Source\PSoC5/SPI_Master.c ****     }
 913:Generated_Source\PSoC5/SPI_Master.c **** 
 914:Generated_Source\PSoC5/SPI_Master.c **** 
 915:Generated_Source\PSoC5/SPI_Master.c ****     /*******************************************************************************
 916:Generated_Source\PSoC5/SPI_Master.c ****     * Function Name: SPI_Master_TxDisable
 917:Generated_Source\PSoC5/SPI_Master.c ****     ********************************************************************************
 918:Generated_Source\PSoC5/SPI_Master.c ****     *
 919:Generated_Source\PSoC5/SPI_Master.c ****     * Summary:
 920:Generated_Source\PSoC5/SPI_Master.c ****     *  If the SPI master is configured to use a single bi-directional pin then this
 921:Generated_Source\PSoC5/SPI_Master.c ****     *  will set the bi-directional pin to receive.
 922:Generated_Source\PSoC5/SPI_Master.c ****     *
 923:Generated_Source\PSoC5/SPI_Master.c ****     * Parameters:
 924:Generated_Source\PSoC5/SPI_Master.c ****     *  None.
 925:Generated_Source\PSoC5/SPI_Master.c ****     *
 926:Generated_Source\PSoC5/SPI_Master.c ****     * Return:
 927:Generated_Source\PSoC5/SPI_Master.c ****     *  None.
ARM GAS  C:\Users\HPz420\AppData\Local\Temp\ccDruRCT.s 			page 26


 928:Generated_Source\PSoC5/SPI_Master.c ****     *
 929:Generated_Source\PSoC5/SPI_Master.c ****     *******************************************************************************/
 930:Generated_Source\PSoC5/SPI_Master.c ****     void SPI_Master_TxDisable(void) 
 931:Generated_Source\PSoC5/SPI_Master.c ****     {
 932:Generated_Source\PSoC5/SPI_Master.c ****         SPI_Master_CONTROL_REG &= ((uint8) ~SPI_Master_CTRL_TX_SIGNAL_EN);
 933:Generated_Source\PSoC5/SPI_Master.c ****     }
 934:Generated_Source\PSoC5/SPI_Master.c **** 
 935:Generated_Source\PSoC5/SPI_Master.c **** #endif /* (0u != SPI_Master_BIDIRECTIONAL_MODE) */
 936:Generated_Source\PSoC5/SPI_Master.c **** 
 937:Generated_Source\PSoC5/SPI_Master.c **** 
 938:Generated_Source\PSoC5/SPI_Master.c **** /*******************************************************************************
 939:Generated_Source\PSoC5/SPI_Master.c **** * Function Name: SPI_Master_PutArray
 940:Generated_Source\PSoC5/SPI_Master.c **** ********************************************************************************
 941:Generated_Source\PSoC5/SPI_Master.c **** *
 942:Generated_Source\PSoC5/SPI_Master.c **** * Summary:
 943:Generated_Source\PSoC5/SPI_Master.c **** *  Write available data from ROM/RAM to the TX buffer while space is available
 944:Generated_Source\PSoC5/SPI_Master.c **** *  in the TX buffer. Keep trying until all data is passed to the TX buffer.
 945:Generated_Source\PSoC5/SPI_Master.c **** *
 946:Generated_Source\PSoC5/SPI_Master.c **** * Parameters:
 947:Generated_Source\PSoC5/SPI_Master.c **** *  *buffer: Pointer to the location in RAM containing the data to send
 948:Generated_Source\PSoC5/SPI_Master.c **** *  byteCount: The number of bytes to move to the transmit buffer.
 949:Generated_Source\PSoC5/SPI_Master.c **** *
 950:Generated_Source\PSoC5/SPI_Master.c **** * Return:
 951:Generated_Source\PSoC5/SPI_Master.c **** *  None.
 952:Generated_Source\PSoC5/SPI_Master.c **** *
 953:Generated_Source\PSoC5/SPI_Master.c **** * Side Effects:
 954:Generated_Source\PSoC5/SPI_Master.c **** *  Will stay in this routine until all data has been sent.  May get locked in
 955:Generated_Source\PSoC5/SPI_Master.c **** *  this loop if data is not being initiated by the master if there is not
 956:Generated_Source\PSoC5/SPI_Master.c **** *  enough room in the TX FIFO.
 957:Generated_Source\PSoC5/SPI_Master.c **** *
 958:Generated_Source\PSoC5/SPI_Master.c **** * Reentrant:
 959:Generated_Source\PSoC5/SPI_Master.c **** *  No.
 960:Generated_Source\PSoC5/SPI_Master.c **** *
 961:Generated_Source\PSoC5/SPI_Master.c **** *******************************************************************************/
 962:Generated_Source\PSoC5/SPI_Master.c **** void SPI_Master_PutArray(const uint8 buffer[], uint8 byteCount)
 963:Generated_Source\PSoC5/SPI_Master.c ****                                                                           
 964:Generated_Source\PSoC5/SPI_Master.c **** {
 497              		.loc 1 964 0
 498              		.cfi_startproc
 499              		@ args = 0, pretend = 0, frame = 0
 500              		@ frame_needed = 0, uses_anonymous_args = 0
 501              	.LVL17:
 502 0000 70B5     		push	{r4, r5, r6, lr}
 503              		.cfi_def_cfa_offset 16
 504              		.cfi_offset 4, -16
 505              		.cfi_offset 5, -12
 506              		.cfi_offset 6, -8
 507              		.cfi_offset 14, -4
 508 0002 0646     		mov	r6, r0
 509 0004 0C46     		mov	r4, r1
 510              	.LVL18:
 965:Generated_Source\PSoC5/SPI_Master.c ****     uint8 bufIndex;
 966:Generated_Source\PSoC5/SPI_Master.c **** 
 967:Generated_Source\PSoC5/SPI_Master.c ****     bufIndex = 0u;
 511              		.loc 1 967 0
 512 0006 0025     		movs	r5, #0
 968:Generated_Source\PSoC5/SPI_Master.c **** 
ARM GAS  C:\Users\HPz420\AppData\Local\Temp\ccDruRCT.s 			page 27


 969:Generated_Source\PSoC5/SPI_Master.c ****     while(byteCount > 0u)
 513              		.loc 1 969 0
 514 0008 06E0     		b	.L53
 515              	.LVL19:
 516              	.L54:
 970:Generated_Source\PSoC5/SPI_Master.c ****     {
 971:Generated_Source\PSoC5/SPI_Master.c ****         SPI_Master_WriteTxData(buffer[bufIndex]);
 517              		.loc 1 971 0
 518 000a 705D     		ldrb	r0, [r6, r5]	@ zero_extendqisi2
 519 000c FFF7FEFF 		bl	SPI_Master_WriteTxData
 520              	.LVL20:
 972:Generated_Source\PSoC5/SPI_Master.c ****         bufIndex++;
 521              		.loc 1 972 0
 522 0010 0135     		adds	r5, r5, #1
 523              	.LVL21:
 524 0012 EDB2     		uxtb	r5, r5
 525              	.LVL22:
 973:Generated_Source\PSoC5/SPI_Master.c ****         byteCount--;
 526              		.loc 1 973 0
 527 0014 013C     		subs	r4, r4, #1
 528              	.LVL23:
 529 0016 E4B2     		uxtb	r4, r4
 530              	.LVL24:
 531              	.L53:
 969:Generated_Source\PSoC5/SPI_Master.c ****     {
 532              		.loc 1 969 0
 533 0018 002C     		cmp	r4, #0
 534 001a F6D1     		bne	.L54
 974:Generated_Source\PSoC5/SPI_Master.c ****     }
 975:Generated_Source\PSoC5/SPI_Master.c **** }
 535              		.loc 1 975 0
 536 001c 70BD     		pop	{r4, r5, r6, pc}
 537              		.cfi_endproc
 538              	.LFE18:
 539              		.size	SPI_Master_PutArray, .-SPI_Master_PutArray
 540 001e 00BF     		.section	.text.SPI_Master_ClearFIFO,"ax",%progbits
 541              		.align	2
 542              		.global	SPI_Master_ClearFIFO
 543              		.thumb
 544              		.thumb_func
 545              		.type	SPI_Master_ClearFIFO, %function
 546              	SPI_Master_ClearFIFO:
 547              	.LFB19:
 976:Generated_Source\PSoC5/SPI_Master.c **** 
 977:Generated_Source\PSoC5/SPI_Master.c **** 
 978:Generated_Source\PSoC5/SPI_Master.c **** /*******************************************************************************
 979:Generated_Source\PSoC5/SPI_Master.c **** * Function Name: SPI_Master_ClearFIFO
 980:Generated_Source\PSoC5/SPI_Master.c **** ********************************************************************************
 981:Generated_Source\PSoC5/SPI_Master.c **** *
 982:Generated_Source\PSoC5/SPI_Master.c **** * Summary:
 983:Generated_Source\PSoC5/SPI_Master.c **** *  Clear the RX and TX FIFO's of all data for a fresh start.
 984:Generated_Source\PSoC5/SPI_Master.c **** *
 985:Generated_Source\PSoC5/SPI_Master.c **** * Parameters:
 986:Generated_Source\PSoC5/SPI_Master.c **** *  None.
 987:Generated_Source\PSoC5/SPI_Master.c **** *
 988:Generated_Source\PSoC5/SPI_Master.c **** * Return:
 989:Generated_Source\PSoC5/SPI_Master.c **** *  None.
ARM GAS  C:\Users\HPz420\AppData\Local\Temp\ccDruRCT.s 			page 28


 990:Generated_Source\PSoC5/SPI_Master.c **** *
 991:Generated_Source\PSoC5/SPI_Master.c **** * Side Effects:
 992:Generated_Source\PSoC5/SPI_Master.c **** *  Clear status register of the component.
 993:Generated_Source\PSoC5/SPI_Master.c **** *
 994:Generated_Source\PSoC5/SPI_Master.c **** *******************************************************************************/
 995:Generated_Source\PSoC5/SPI_Master.c **** void SPI_Master_ClearFIFO(void) 
 996:Generated_Source\PSoC5/SPI_Master.c **** {
 548              		.loc 1 996 0
 549              		.cfi_startproc
 550              		@ args = 0, pretend = 0, frame = 0
 551              		@ frame_needed = 0, uses_anonymous_args = 0
 552 0000 08B5     		push	{r3, lr}
 553              		.cfi_def_cfa_offset 8
 554              		.cfi_offset 3, -8
 555              		.cfi_offset 14, -4
 997:Generated_Source\PSoC5/SPI_Master.c ****     uint8 enableInterrupts;
 998:Generated_Source\PSoC5/SPI_Master.c **** 
 999:Generated_Source\PSoC5/SPI_Master.c ****     /* Clear Hardware RX FIFO */
1000:Generated_Source\PSoC5/SPI_Master.c ****     while(0u !=(SPI_Master_RX_STATUS_REG & SPI_Master_STS_RX_FIFO_NOT_EMPTY))
 556              		.loc 1 1000 0
 557 0002 01E0     		b	.L57
 558              	.L58:
1001:Generated_Source\PSoC5/SPI_Master.c ****     {
1002:Generated_Source\PSoC5/SPI_Master.c ****         (void) CY_GET_REG8(SPI_Master_RXDATA_PTR);
 559              		.loc 1 1002 0
 560 0004 0A4B     		ldr	r3, .L60
 561 0006 1B78     		ldrb	r3, [r3]	@ zero_extendqisi2
 562              	.L57:
1000:Generated_Source\PSoC5/SPI_Master.c ****     {
 563              		.loc 1 1000 0
 564 0008 0A4B     		ldr	r3, .L60+4
 565 000a 1B78     		ldrb	r3, [r3]	@ zero_extendqisi2
 566 000c 13F0200F 		tst	r3, #32
 567 0010 F8D1     		bne	.L58
1003:Generated_Source\PSoC5/SPI_Master.c ****     }
1004:Generated_Source\PSoC5/SPI_Master.c **** 
1005:Generated_Source\PSoC5/SPI_Master.c ****     enableInterrupts = CyEnterCriticalSection();
 568              		.loc 1 1005 0
 569 0012 FFF7FEFF 		bl	CyEnterCriticalSection
 570              	.LVL25:
1006:Generated_Source\PSoC5/SPI_Master.c ****     /* Clear TX FIFO */
1007:Generated_Source\PSoC5/SPI_Master.c ****     SPI_Master_AUX_CONTROL_DP0_REG |= ((uint8)  SPI_Master_TX_FIFO_CLR);
 571              		.loc 1 1007 0
 572 0016 084B     		ldr	r3, .L60+8
 573 0018 1A78     		ldrb	r2, [r3]	@ zero_extendqisi2
 574 001a 42F00102 		orr	r2, r2, #1
 575 001e 1A70     		strb	r2, [r3]
1008:Generated_Source\PSoC5/SPI_Master.c ****     SPI_Master_AUX_CONTROL_DP0_REG &= ((uint8) ~SPI_Master_TX_FIFO_CLR);
 576              		.loc 1 1008 0
 577 0020 1A78     		ldrb	r2, [r3]	@ zero_extendqisi2
 578 0022 02F0FE02 		and	r2, r2, #254
 579 0026 1A70     		strb	r2, [r3]
1009:Generated_Source\PSoC5/SPI_Master.c **** 
1010:Generated_Source\PSoC5/SPI_Master.c ****     #if(SPI_Master_USE_SECOND_DATAPATH)
1011:Generated_Source\PSoC5/SPI_Master.c ****         /* Clear TX FIFO for 2nd Datapath */
1012:Generated_Source\PSoC5/SPI_Master.c ****         SPI_Master_AUX_CONTROL_DP1_REG |= ((uint8)  SPI_Master_TX_FIFO_CLR);
1013:Generated_Source\PSoC5/SPI_Master.c ****         SPI_Master_AUX_CONTROL_DP1_REG &= ((uint8) ~SPI_Master_TX_FIFO_CLR);
ARM GAS  C:\Users\HPz420\AppData\Local\Temp\ccDruRCT.s 			page 29


1014:Generated_Source\PSoC5/SPI_Master.c ****     #endif /* (SPI_Master_USE_SECOND_DATAPATH) */
1015:Generated_Source\PSoC5/SPI_Master.c ****     CyExitCriticalSection(enableInterrupts);
 580              		.loc 1 1015 0
 581 0028 FFF7FEFF 		bl	CyExitCriticalSection
 582              	.LVL26:
 583 002c 08BD     		pop	{r3, pc}
 584              	.L61:
 585 002e 00BF     		.align	2
 586              	.L60:
 587 0030 56640040 		.word	1073767510
 588 0034 66650040 		.word	1073767782
 589 0038 96640040 		.word	1073767574
 590              		.cfi_endproc
 591              	.LFE19:
 592              		.size	SPI_Master_ClearFIFO, .-SPI_Master_ClearFIFO
 593              		.section	.text.SPI_Master_Init,"ax",%progbits
 594              		.align	2
 595              		.global	SPI_Master_Init
 596              		.thumb
 597              		.thumb_func
 598              		.type	SPI_Master_Init, %function
 599              	SPI_Master_Init:
 600              	.LFB0:
  64:Generated_Source\PSoC5/SPI_Master.c ****     /* Initialize the Bit counter */
 601              		.loc 1 64 0
 602              		.cfi_startproc
 603              		@ args = 0, pretend = 0, frame = 0
 604              		@ frame_needed = 0, uses_anonymous_args = 0
 605 0000 08B5     		push	{r3, lr}
 606              		.cfi_def_cfa_offset 8
 607              		.cfi_offset 3, -8
 608              		.cfi_offset 14, -4
  66:Generated_Source\PSoC5/SPI_Master.c **** 
 609              		.loc 1 66 0
 610 0002 0F22     		movs	r2, #15
 611 0004 074B     		ldr	r3, .L64
 612 0006 1A70     		strb	r2, [r3]
  83:Generated_Source\PSoC5/SPI_Master.c **** 
 613              		.loc 1 83 0
 614 0008 FFF7FEFF 		bl	SPI_Master_ClearFIFO
 615              	.LVL27:
  97:Generated_Source\PSoC5/SPI_Master.c ****     (void) SPI_Master_ReadRxStatus(); /* Clear Rx status and swStatusRx */
 616              		.loc 1 97 0
 617 000c FFF7FEFF 		bl	SPI_Master_ReadTxStatus
 618              	.LVL28:
  98:Generated_Source\PSoC5/SPI_Master.c **** 
 619              		.loc 1 98 0
 620 0010 FFF7FEFF 		bl	SPI_Master_ReadRxStatus
 621              	.LVL29:
 101:Generated_Source\PSoC5/SPI_Master.c ****     SPI_Master_RX_STATUS_MASK_REG = SPI_Master_RX_INIT_INTERRUPTS_MASK;
 622              		.loc 1 101 0
 623 0014 0023     		movs	r3, #0
 624 0016 044A     		ldr	r2, .L64+4
 625 0018 1370     		strb	r3, [r2]
 102:Generated_Source\PSoC5/SPI_Master.c **** }
 626              		.loc 1 102 0
 627 001a 02F20112 		addw	r2, r2, #257
ARM GAS  C:\Users\HPz420\AppData\Local\Temp\ccDruRCT.s 			page 30


 628 001e 1370     		strb	r3, [r2]
 629 0020 08BD     		pop	{r3, pc}
 630              	.L65:
 631 0022 00BF     		.align	2
 632              	.L64:
 633 0024 86640040 		.word	1073767558
 634 0028 85640040 		.word	1073767557
 635              		.cfi_endproc
 636              	.LFE0:
 637              		.size	SPI_Master_Init, .-SPI_Master_Init
 638              		.section	.text.SPI_Master_Start,"ax",%progbits
 639              		.align	2
 640              		.global	SPI_Master_Start
 641              		.thumb
 642              		.thumb_func
 643              		.type	SPI_Master_Start, %function
 644              	SPI_Master_Start:
 645              	.LFB2:
 164:Generated_Source\PSoC5/SPI_Master.c ****     if(0u == SPI_Master_initVar)
 646              		.loc 1 164 0
 647              		.cfi_startproc
 648              		@ args = 0, pretend = 0, frame = 0
 649              		@ frame_needed = 0, uses_anonymous_args = 0
 650 0000 08B5     		push	{r3, lr}
 651              		.cfi_def_cfa_offset 8
 652              		.cfi_offset 3, -8
 653              		.cfi_offset 14, -4
 165:Generated_Source\PSoC5/SPI_Master.c ****     {
 654              		.loc 1 165 0
 655 0002 054B     		ldr	r3, .L69
 656 0004 1B78     		ldrb	r3, [r3]	@ zero_extendqisi2
 657 0006 23B9     		cbnz	r3, .L67
 167:Generated_Source\PSoC5/SPI_Master.c ****         SPI_Master_initVar = 1u;
 658              		.loc 1 167 0
 659 0008 FFF7FEFF 		bl	SPI_Master_Init
 660              	.LVL30:
 168:Generated_Source\PSoC5/SPI_Master.c ****     }
 661              		.loc 1 168 0
 662 000c 0122     		movs	r2, #1
 663 000e 024B     		ldr	r3, .L69
 664 0010 1A70     		strb	r2, [r3]
 665              	.L67:
 171:Generated_Source\PSoC5/SPI_Master.c **** }
 666              		.loc 1 171 0
 667 0012 FFF7FEFF 		bl	SPI_Master_Enable
 668              	.LVL31:
 669 0016 08BD     		pop	{r3, pc}
 670              	.L70:
 671              		.align	2
 672              	.L69:
 673 0018 00000000 		.word	.LANCHOR0
 674              		.cfi_endproc
 675              	.LFE2:
 676              		.size	SPI_Master_Start, .-SPI_Master_Start
 677              		.section	.text.SPI_Master_EnableInt,"ax",%progbits
 678              		.align	2
 679              		.global	SPI_Master_EnableInt
ARM GAS  C:\Users\HPz420\AppData\Local\Temp\ccDruRCT.s 			page 31


 680              		.thumb
 681              		.thumb_func
 682              		.type	SPI_Master_EnableInt, %function
 683              	SPI_Master_EnableInt:
 684              	.LFB20:
1016:Generated_Source\PSoC5/SPI_Master.c **** }
1017:Generated_Source\PSoC5/SPI_Master.c **** 
1018:Generated_Source\PSoC5/SPI_Master.c **** 
1019:Generated_Source\PSoC5/SPI_Master.c **** /* Following functions are for version Compatibility, they are obsolete.
1020:Generated_Source\PSoC5/SPI_Master.c **** *  Please do not use it in new projects.
1021:Generated_Source\PSoC5/SPI_Master.c **** */
1022:Generated_Source\PSoC5/SPI_Master.c **** 
1023:Generated_Source\PSoC5/SPI_Master.c **** 
1024:Generated_Source\PSoC5/SPI_Master.c **** /*******************************************************************************
1025:Generated_Source\PSoC5/SPI_Master.c **** * Function Name: SPI_Master_EnableInt
1026:Generated_Source\PSoC5/SPI_Master.c **** ********************************************************************************
1027:Generated_Source\PSoC5/SPI_Master.c **** *
1028:Generated_Source\PSoC5/SPI_Master.c **** * Summary:
1029:Generated_Source\PSoC5/SPI_Master.c **** *  Enable internal interrupt generation.
1030:Generated_Source\PSoC5/SPI_Master.c **** *
1031:Generated_Source\PSoC5/SPI_Master.c **** * Parameters:
1032:Generated_Source\PSoC5/SPI_Master.c **** *  None.
1033:Generated_Source\PSoC5/SPI_Master.c **** *
1034:Generated_Source\PSoC5/SPI_Master.c **** * Return:
1035:Generated_Source\PSoC5/SPI_Master.c **** *  None.
1036:Generated_Source\PSoC5/SPI_Master.c **** *
1037:Generated_Source\PSoC5/SPI_Master.c **** * Theory:
1038:Generated_Source\PSoC5/SPI_Master.c **** *  Enable the internal interrupt output -or- the interrupt component itself.
1039:Generated_Source\PSoC5/SPI_Master.c **** *
1040:Generated_Source\PSoC5/SPI_Master.c **** *******************************************************************************/
1041:Generated_Source\PSoC5/SPI_Master.c **** void SPI_Master_EnableInt(void) 
1042:Generated_Source\PSoC5/SPI_Master.c **** {
 685              		.loc 1 1042 0
 686              		.cfi_startproc
 687              		@ args = 0, pretend = 0, frame = 0
 688              		@ frame_needed = 0, uses_anonymous_args = 0
 689              		@ link register save eliminated.
 690 0000 7047     		bx	lr
 691              		.cfi_endproc
 692              	.LFE20:
 693              		.size	SPI_Master_EnableInt, .-SPI_Master_EnableInt
 694 0002 00BF     		.section	.text.SPI_Master_DisableInt,"ax",%progbits
 695              		.align	2
 696              		.global	SPI_Master_DisableInt
 697              		.thumb
 698              		.thumb_func
 699              		.type	SPI_Master_DisableInt, %function
 700              	SPI_Master_DisableInt:
 701              	.LFB21:
1043:Generated_Source\PSoC5/SPI_Master.c ****     SPI_Master_EnableRxInt();
1044:Generated_Source\PSoC5/SPI_Master.c ****     SPI_Master_EnableTxInt();
1045:Generated_Source\PSoC5/SPI_Master.c **** }
1046:Generated_Source\PSoC5/SPI_Master.c **** 
1047:Generated_Source\PSoC5/SPI_Master.c **** 
1048:Generated_Source\PSoC5/SPI_Master.c **** /*******************************************************************************
1049:Generated_Source\PSoC5/SPI_Master.c **** * Function Name: SPI_Master_DisableInt
1050:Generated_Source\PSoC5/SPI_Master.c **** ********************************************************************************
ARM GAS  C:\Users\HPz420\AppData\Local\Temp\ccDruRCT.s 			page 32


1051:Generated_Source\PSoC5/SPI_Master.c **** *
1052:Generated_Source\PSoC5/SPI_Master.c **** * Summary:
1053:Generated_Source\PSoC5/SPI_Master.c **** *  Disable internal interrupt generation.
1054:Generated_Source\PSoC5/SPI_Master.c **** *
1055:Generated_Source\PSoC5/SPI_Master.c **** * Parameters:
1056:Generated_Source\PSoC5/SPI_Master.c **** *  None.
1057:Generated_Source\PSoC5/SPI_Master.c **** *
1058:Generated_Source\PSoC5/SPI_Master.c **** * Return:
1059:Generated_Source\PSoC5/SPI_Master.c **** *  None.
1060:Generated_Source\PSoC5/SPI_Master.c **** *
1061:Generated_Source\PSoC5/SPI_Master.c **** * Theory:
1062:Generated_Source\PSoC5/SPI_Master.c **** *  Disable the internal interrupt output -or- the interrupt component itself.
1063:Generated_Source\PSoC5/SPI_Master.c **** *
1064:Generated_Source\PSoC5/SPI_Master.c **** *******************************************************************************/
1065:Generated_Source\PSoC5/SPI_Master.c **** void SPI_Master_DisableInt(void) 
1066:Generated_Source\PSoC5/SPI_Master.c **** {
 702              		.loc 1 1066 0
 703              		.cfi_startproc
 704              		@ args = 0, pretend = 0, frame = 0
 705              		@ frame_needed = 0, uses_anonymous_args = 0
 706              		@ link register save eliminated.
 707 0000 7047     		bx	lr
 708              		.cfi_endproc
 709              	.LFE21:
 710              		.size	SPI_Master_DisableInt, .-SPI_Master_DisableInt
 711 0002 00BF     		.section	.text.SPI_Master_SetInterruptMode,"ax",%progbits
 712              		.align	2
 713              		.global	SPI_Master_SetInterruptMode
 714              		.thumb
 715              		.thumb_func
 716              		.type	SPI_Master_SetInterruptMode, %function
 717              	SPI_Master_SetInterruptMode:
 718              	.LFB22:
1067:Generated_Source\PSoC5/SPI_Master.c ****     SPI_Master_DisableTxInt();
1068:Generated_Source\PSoC5/SPI_Master.c ****     SPI_Master_DisableRxInt();
1069:Generated_Source\PSoC5/SPI_Master.c **** }
1070:Generated_Source\PSoC5/SPI_Master.c **** 
1071:Generated_Source\PSoC5/SPI_Master.c **** 
1072:Generated_Source\PSoC5/SPI_Master.c **** /*******************************************************************************
1073:Generated_Source\PSoC5/SPI_Master.c **** * Function Name: SPI_Master_SetInterruptMode
1074:Generated_Source\PSoC5/SPI_Master.c **** ********************************************************************************
1075:Generated_Source\PSoC5/SPI_Master.c **** *
1076:Generated_Source\PSoC5/SPI_Master.c **** * Summary:
1077:Generated_Source\PSoC5/SPI_Master.c **** *  Configure which status bits trigger an interrupt event.
1078:Generated_Source\PSoC5/SPI_Master.c **** *
1079:Generated_Source\PSoC5/SPI_Master.c **** * Parameters:
1080:Generated_Source\PSoC5/SPI_Master.c **** *  intSrc: An or'd combination of the desired status bit masks (defined in the
1081:Generated_Source\PSoC5/SPI_Master.c **** *  header file).
1082:Generated_Source\PSoC5/SPI_Master.c **** *
1083:Generated_Source\PSoC5/SPI_Master.c **** * Return:
1084:Generated_Source\PSoC5/SPI_Master.c **** *  None.
1085:Generated_Source\PSoC5/SPI_Master.c **** *
1086:Generated_Source\PSoC5/SPI_Master.c **** * Theory:
1087:Generated_Source\PSoC5/SPI_Master.c **** *  Enables the output of specific status bits to the interrupt controller.
1088:Generated_Source\PSoC5/SPI_Master.c **** *
1089:Generated_Source\PSoC5/SPI_Master.c **** *******************************************************************************/
1090:Generated_Source\PSoC5/SPI_Master.c **** void SPI_Master_SetInterruptMode(uint8 intSrc) 
ARM GAS  C:\Users\HPz420\AppData\Local\Temp\ccDruRCT.s 			page 33


1091:Generated_Source\PSoC5/SPI_Master.c **** {
 719              		.loc 1 1091 0
 720              		.cfi_startproc
 721              		@ args = 0, pretend = 0, frame = 0
 722              		@ frame_needed = 0, uses_anonymous_args = 0
 723              		@ link register save eliminated.
 724              	.LVL32:
1092:Generated_Source\PSoC5/SPI_Master.c ****     SPI_Master_TX_STATUS_MASK_REG  = (intSrc & ((uint8) ~SPI_Master_STS_SPI_IDLE));
 725              		.loc 1 1092 0
 726 0000 00F0EF02 		and	r2, r0, #239
 727 0004 024B     		ldr	r3, .L74
 728 0006 1A70     		strb	r2, [r3]
1093:Generated_Source\PSoC5/SPI_Master.c ****     SPI_Master_RX_STATUS_MASK_REG  =  intSrc;
 729              		.loc 1 1093 0
 730 0008 03F20113 		addw	r3, r3, #257
 731 000c 1870     		strb	r0, [r3]
 732 000e 7047     		bx	lr
 733              	.L75:
 734              		.align	2
 735              	.L74:
 736 0010 85640040 		.word	1073767557
 737              		.cfi_endproc
 738              	.LFE22:
 739              		.size	SPI_Master_SetInterruptMode, .-SPI_Master_SetInterruptMode
 740              		.section	.text.SPI_Master_ReadStatus,"ax",%progbits
 741              		.align	2
 742              		.global	SPI_Master_ReadStatus
 743              		.thumb
 744              		.thumb_func
 745              		.type	SPI_Master_ReadStatus, %function
 746              	SPI_Master_ReadStatus:
 747              	.LFB23:
1094:Generated_Source\PSoC5/SPI_Master.c **** }
1095:Generated_Source\PSoC5/SPI_Master.c **** 
1096:Generated_Source\PSoC5/SPI_Master.c **** 
1097:Generated_Source\PSoC5/SPI_Master.c **** /*******************************************************************************
1098:Generated_Source\PSoC5/SPI_Master.c **** * Function Name: SPI_Master_ReadStatus
1099:Generated_Source\PSoC5/SPI_Master.c **** ********************************************************************************
1100:Generated_Source\PSoC5/SPI_Master.c **** *
1101:Generated_Source\PSoC5/SPI_Master.c **** * Summary:
1102:Generated_Source\PSoC5/SPI_Master.c **** *  Read the status register for the component.
1103:Generated_Source\PSoC5/SPI_Master.c **** *
1104:Generated_Source\PSoC5/SPI_Master.c **** * Parameters:
1105:Generated_Source\PSoC5/SPI_Master.c **** *  None.
1106:Generated_Source\PSoC5/SPI_Master.c **** *
1107:Generated_Source\PSoC5/SPI_Master.c **** * Return:
1108:Generated_Source\PSoC5/SPI_Master.c **** *  Contents of the status register.
1109:Generated_Source\PSoC5/SPI_Master.c **** *
1110:Generated_Source\PSoC5/SPI_Master.c **** * Global variables:
1111:Generated_Source\PSoC5/SPI_Master.c **** *  SPI_Master_swStatus - used to store in software status register,
1112:Generated_Source\PSoC5/SPI_Master.c **** *  modified every function call - resets to zero.
1113:Generated_Source\PSoC5/SPI_Master.c **** *
1114:Generated_Source\PSoC5/SPI_Master.c **** * Theory:
1115:Generated_Source\PSoC5/SPI_Master.c **** *  Allows the user and the API to read the status register for error detection
1116:Generated_Source\PSoC5/SPI_Master.c **** *  and flow control.
1117:Generated_Source\PSoC5/SPI_Master.c **** *
1118:Generated_Source\PSoC5/SPI_Master.c **** * Side Effects:
ARM GAS  C:\Users\HPz420\AppData\Local\Temp\ccDruRCT.s 			page 34


1119:Generated_Source\PSoC5/SPI_Master.c **** *  Clear status register of the component.
1120:Generated_Source\PSoC5/SPI_Master.c **** *
1121:Generated_Source\PSoC5/SPI_Master.c **** * Reentrant:
1122:Generated_Source\PSoC5/SPI_Master.c **** *  No.
1123:Generated_Source\PSoC5/SPI_Master.c **** *
1124:Generated_Source\PSoC5/SPI_Master.c **** *******************************************************************************/
1125:Generated_Source\PSoC5/SPI_Master.c **** uint8 SPI_Master_ReadStatus(void) 
1126:Generated_Source\PSoC5/SPI_Master.c **** {
 748              		.loc 1 1126 0
 749              		.cfi_startproc
 750              		@ args = 0, pretend = 0, frame = 0
 751              		@ frame_needed = 0, uses_anonymous_args = 0
 752              		@ link register save eliminated.
1127:Generated_Source\PSoC5/SPI_Master.c ****     uint8 tmpStatus;
1128:Generated_Source\PSoC5/SPI_Master.c **** 
1129:Generated_Source\PSoC5/SPI_Master.c ****     #if(SPI_Master_TX_SOFTWARE_BUF_ENABLED || SPI_Master_RX_SOFTWARE_BUF_ENABLED)
1130:Generated_Source\PSoC5/SPI_Master.c **** 
1131:Generated_Source\PSoC5/SPI_Master.c ****         SPI_Master_DisableInt();
1132:Generated_Source\PSoC5/SPI_Master.c **** 
1133:Generated_Source\PSoC5/SPI_Master.c ****         tmpStatus  = SPI_Master_GET_STATUS_RX(SPI_Master_swStatusRx);
1134:Generated_Source\PSoC5/SPI_Master.c ****         tmpStatus |= SPI_Master_GET_STATUS_TX(SPI_Master_swStatusTx);
1135:Generated_Source\PSoC5/SPI_Master.c ****         tmpStatus &= ((uint8) ~SPI_Master_STS_SPI_IDLE);
1136:Generated_Source\PSoC5/SPI_Master.c **** 
1137:Generated_Source\PSoC5/SPI_Master.c ****         SPI_Master_swStatusTx = 0u;
1138:Generated_Source\PSoC5/SPI_Master.c ****         SPI_Master_swStatusRx = 0u;
1139:Generated_Source\PSoC5/SPI_Master.c **** 
1140:Generated_Source\PSoC5/SPI_Master.c ****         SPI_Master_EnableInt();
1141:Generated_Source\PSoC5/SPI_Master.c **** 
1142:Generated_Source\PSoC5/SPI_Master.c ****     #else
1143:Generated_Source\PSoC5/SPI_Master.c **** 
1144:Generated_Source\PSoC5/SPI_Master.c ****         tmpStatus  = SPI_Master_RX_STATUS_REG;
 753              		.loc 1 1144 0
 754 0000 034B     		ldr	r3, .L77
 755 0002 1B78     		ldrb	r3, [r3]	@ zero_extendqisi2
 756              	.LVL33:
1145:Generated_Source\PSoC5/SPI_Master.c ****         tmpStatus |= SPI_Master_TX_STATUS_REG;
 757              		.loc 1 1145 0
 758 0004 034A     		ldr	r2, .L77+4
 759 0006 1078     		ldrb	r0, [r2]	@ zero_extendqisi2
 760 0008 1843     		orrs	r0, r0, r3
 761              	.LVL34:
1146:Generated_Source\PSoC5/SPI_Master.c ****         tmpStatus &= ((uint8) ~SPI_Master_STS_SPI_IDLE);
1147:Generated_Source\PSoC5/SPI_Master.c **** 
1148:Generated_Source\PSoC5/SPI_Master.c ****     #endif /* (SPI_Master_TX_SOFTWARE_BUF_ENABLED || SPI_Master_RX_SOFTWARE_BUF_ENABLED) */
1149:Generated_Source\PSoC5/SPI_Master.c **** 
1150:Generated_Source\PSoC5/SPI_Master.c ****     return(tmpStatus);
1151:Generated_Source\PSoC5/SPI_Master.c **** }
 762              		.loc 1 1151 0
 763 000a 00F0EF00 		and	r0, r0, #239
 764              	.LVL35:
 765 000e 7047     		bx	lr
 766              	.L78:
 767              		.align	2
 768              	.L77:
 769 0010 66650040 		.word	1073767782
 770 0014 65640040 		.word	1073767525
 771              		.cfi_endproc
ARM GAS  C:\Users\HPz420\AppData\Local\Temp\ccDruRCT.s 			page 35


 772              	.LFE23:
 773              		.size	SPI_Master_ReadStatus, .-SPI_Master_ReadStatus
 774              		.comm	SPI_Master_swStatusRx,1,1
 775              		.comm	SPI_Master_swStatusTx,1,1
 776              		.global	SPI_Master_initVar
 777              		.bss
 778              		.set	.LANCHOR0,. + 0
 779              		.type	SPI_Master_initVar, %object
 780              		.size	SPI_Master_initVar, 1
 781              	SPI_Master_initVar:
 782 0000 00       		.space	1
 783              		.text
 784              	.Letext0:
 785              		.file 2 "Generated_Source\\PSoC5\\cytypes.h"
 786              		.file 3 "Generated_Source\\PSoC5\\CyLib.h"
 787              		.file 4 "Generated_Source\\PSoC5\\SPI_Master_IntClock.h"