ARM GAS  C:\Users\DGILLI~1\AppData\Local\Temp\ccmHDR79.s 			page 1


   1              		.syntax unified
   2              		.cpu cortex-m3
   3              		.fpu softvfp
   4              		.eabi_attribute 20, 1
   5              		.eabi_attribute 21, 1
   6              		.eabi_attribute 23, 3
   7              		.eabi_attribute 24, 1
   8              		.eabi_attribute 25, 1
   9              		.eabi_attribute 26, 1
  10              		.eabi_attribute 30, 1
  11              		.eabi_attribute 34, 1
  12              		.eabi_attribute 18, 4
  13              		.thumb
  14              		.syntax unified
  15              		.file	"SPI_SS_Override_PM.c"
  16              		.text
  17              	.Ltext0:
  18              		.cfi_sections	.debug_frame
  19              		.section	.text.SPI_SS_Override_SaveConfig,"ax",%progbits
  20              		.align	2
  21              		.global	SPI_SS_Override_SaveConfig
  22              		.thumb
  23              		.thumb_func
  24              		.type	SPI_SS_Override_SaveConfig, %function
  25              	SPI_SS_Override_SaveConfig:
  26              	.LFB0:
  27              		.file 1 "Generated_Source\\PSoC5\\SPI_SS_Override_PM.c"
   1:Generated_Source\PSoC5/SPI_SS_Override_PM.c **** /*******************************************************************************
   2:Generated_Source\PSoC5/SPI_SS_Override_PM.c **** * File Name: SPI_SS_Override_PM.c
   3:Generated_Source\PSoC5/SPI_SS_Override_PM.c **** * Version 1.80
   4:Generated_Source\PSoC5/SPI_SS_Override_PM.c **** *
   5:Generated_Source\PSoC5/SPI_SS_Override_PM.c **** * Description:
   6:Generated_Source\PSoC5/SPI_SS_Override_PM.c **** *  This file contains the setup, control, and status commands to support 
   7:Generated_Source\PSoC5/SPI_SS_Override_PM.c **** *  the component operation in the low power mode. 
   8:Generated_Source\PSoC5/SPI_SS_Override_PM.c **** *
   9:Generated_Source\PSoC5/SPI_SS_Override_PM.c **** * Note:
  10:Generated_Source\PSoC5/SPI_SS_Override_PM.c **** *
  11:Generated_Source\PSoC5/SPI_SS_Override_PM.c **** ********************************************************************************
  12:Generated_Source\PSoC5/SPI_SS_Override_PM.c **** * Copyright 2015, Cypress Semiconductor Corporation.  All rights reserved.
  13:Generated_Source\PSoC5/SPI_SS_Override_PM.c **** * You may use this file only in accordance with the license, terms, conditions, 
  14:Generated_Source\PSoC5/SPI_SS_Override_PM.c **** * disclaimers, and limitations in the end user license agreement accompanying 
  15:Generated_Source\PSoC5/SPI_SS_Override_PM.c **** * the software package with which this file was provided.
  16:Generated_Source\PSoC5/SPI_SS_Override_PM.c **** *******************************************************************************/
  17:Generated_Source\PSoC5/SPI_SS_Override_PM.c **** 
  18:Generated_Source\PSoC5/SPI_SS_Override_PM.c **** #include "SPI_SS_Override.h"
  19:Generated_Source\PSoC5/SPI_SS_Override_PM.c **** 
  20:Generated_Source\PSoC5/SPI_SS_Override_PM.c **** /* Check for removal by optimization */
  21:Generated_Source\PSoC5/SPI_SS_Override_PM.c **** #if !defined(SPI_SS_Override_Sync_ctrl_reg__REMOVED)
  22:Generated_Source\PSoC5/SPI_SS_Override_PM.c **** 
  23:Generated_Source\PSoC5/SPI_SS_Override_PM.c **** static SPI_SS_Override_BACKUP_STRUCT  SPI_SS_Override_backup = {0u};
  24:Generated_Source\PSoC5/SPI_SS_Override_PM.c **** 
  25:Generated_Source\PSoC5/SPI_SS_Override_PM.c ****     
  26:Generated_Source\PSoC5/SPI_SS_Override_PM.c **** /*******************************************************************************
  27:Generated_Source\PSoC5/SPI_SS_Override_PM.c **** * Function Name: SPI_SS_Override_SaveConfig
  28:Generated_Source\PSoC5/SPI_SS_Override_PM.c **** ********************************************************************************
  29:Generated_Source\PSoC5/SPI_SS_Override_PM.c **** *
  30:Generated_Source\PSoC5/SPI_SS_Override_PM.c **** * Summary:
ARM GAS  C:\Users\DGILLI~1\AppData\Local\Temp\ccmHDR79.s 			page 2


  31:Generated_Source\PSoC5/SPI_SS_Override_PM.c **** *  Saves the control register value.
  32:Generated_Source\PSoC5/SPI_SS_Override_PM.c **** *
  33:Generated_Source\PSoC5/SPI_SS_Override_PM.c **** * Parameters:
  34:Generated_Source\PSoC5/SPI_SS_Override_PM.c **** *  None
  35:Generated_Source\PSoC5/SPI_SS_Override_PM.c **** *
  36:Generated_Source\PSoC5/SPI_SS_Override_PM.c **** * Return:
  37:Generated_Source\PSoC5/SPI_SS_Override_PM.c **** *  None
  38:Generated_Source\PSoC5/SPI_SS_Override_PM.c **** *
  39:Generated_Source\PSoC5/SPI_SS_Override_PM.c **** *******************************************************************************/
  40:Generated_Source\PSoC5/SPI_SS_Override_PM.c **** void SPI_SS_Override_SaveConfig(void) 
  41:Generated_Source\PSoC5/SPI_SS_Override_PM.c **** {
  28              		.loc 1 41 0
  29              		.cfi_startproc
  30              		@ args = 0, pretend = 0, frame = 0
  31              		@ frame_needed = 0, uses_anonymous_args = 0
  32              		@ link register save eliminated.
  42:Generated_Source\PSoC5/SPI_SS_Override_PM.c ****     SPI_SS_Override_backup.controlState = SPI_SS_Override_Control;
  33              		.loc 1 42 0
  34 0000 024B     		ldr	r3, .L2
  35 0002 1A78     		ldrb	r2, [r3]	@ zero_extendqisi2
  36 0004 024B     		ldr	r3, .L2+4
  37 0006 1A70     		strb	r2, [r3]
  38 0008 7047     		bx	lr
  39              	.L3:
  40 000a 00BF     		.align	2
  41              	.L2:
  42 000c 73640040 		.word	1073767539
  43 0010 00000000 		.word	.LANCHOR0
  44              		.cfi_endproc
  45              	.LFE0:
  46              		.size	SPI_SS_Override_SaveConfig, .-SPI_SS_Override_SaveConfig
  47              		.section	.text.SPI_SS_Override_RestoreConfig,"ax",%progbits
  48              		.align	2
  49              		.global	SPI_SS_Override_RestoreConfig
  50              		.thumb
  51              		.thumb_func
  52              		.type	SPI_SS_Override_RestoreConfig, %function
  53              	SPI_SS_Override_RestoreConfig:
  54              	.LFB1:
  43:Generated_Source\PSoC5/SPI_SS_Override_PM.c **** }
  44:Generated_Source\PSoC5/SPI_SS_Override_PM.c **** 
  45:Generated_Source\PSoC5/SPI_SS_Override_PM.c **** 
  46:Generated_Source\PSoC5/SPI_SS_Override_PM.c **** /*******************************************************************************
  47:Generated_Source\PSoC5/SPI_SS_Override_PM.c **** * Function Name: SPI_SS_Override_RestoreConfig
  48:Generated_Source\PSoC5/SPI_SS_Override_PM.c **** ********************************************************************************
  49:Generated_Source\PSoC5/SPI_SS_Override_PM.c **** *
  50:Generated_Source\PSoC5/SPI_SS_Override_PM.c **** * Summary:
  51:Generated_Source\PSoC5/SPI_SS_Override_PM.c **** *  Restores the control register value.
  52:Generated_Source\PSoC5/SPI_SS_Override_PM.c **** *
  53:Generated_Source\PSoC5/SPI_SS_Override_PM.c **** * Parameters:
  54:Generated_Source\PSoC5/SPI_SS_Override_PM.c **** *  None
  55:Generated_Source\PSoC5/SPI_SS_Override_PM.c **** *
  56:Generated_Source\PSoC5/SPI_SS_Override_PM.c **** * Return:
  57:Generated_Source\PSoC5/SPI_SS_Override_PM.c **** *  None
  58:Generated_Source\PSoC5/SPI_SS_Override_PM.c **** *
  59:Generated_Source\PSoC5/SPI_SS_Override_PM.c **** *
  60:Generated_Source\PSoC5/SPI_SS_Override_PM.c **** *******************************************************************************/
ARM GAS  C:\Users\DGILLI~1\AppData\Local\Temp\ccmHDR79.s 			page 3


  61:Generated_Source\PSoC5/SPI_SS_Override_PM.c **** void SPI_SS_Override_RestoreConfig(void) 
  62:Generated_Source\PSoC5/SPI_SS_Override_PM.c **** {
  55              		.loc 1 62 0
  56              		.cfi_startproc
  57              		@ args = 0, pretend = 0, frame = 0
  58              		@ frame_needed = 0, uses_anonymous_args = 0
  59              		@ link register save eliminated.
  63:Generated_Source\PSoC5/SPI_SS_Override_PM.c ****      SPI_SS_Override_Control = SPI_SS_Override_backup.controlState;
  60              		.loc 1 63 0
  61 0000 024B     		ldr	r3, .L5
  62 0002 1A78     		ldrb	r2, [r3]	@ zero_extendqisi2
  63 0004 024B     		ldr	r3, .L5+4
  64 0006 1A70     		strb	r2, [r3]
  65 0008 7047     		bx	lr
  66              	.L6:
  67 000a 00BF     		.align	2
  68              	.L5:
  69 000c 00000000 		.word	.LANCHOR0
  70 0010 73640040 		.word	1073767539
  71              		.cfi_endproc
  72              	.LFE1:
  73              		.size	SPI_SS_Override_RestoreConfig, .-SPI_SS_Override_RestoreConfig
  74              		.section	.text.SPI_SS_Override_Sleep,"ax",%progbits
  75              		.align	2
  76              		.global	SPI_SS_Override_Sleep
  77              		.thumb
  78              		.thumb_func
  79              		.type	SPI_SS_Override_Sleep, %function
  80              	SPI_SS_Override_Sleep:
  81              	.LFB2:
  64:Generated_Source\PSoC5/SPI_SS_Override_PM.c **** }
  65:Generated_Source\PSoC5/SPI_SS_Override_PM.c **** 
  66:Generated_Source\PSoC5/SPI_SS_Override_PM.c **** 
  67:Generated_Source\PSoC5/SPI_SS_Override_PM.c **** /*******************************************************************************
  68:Generated_Source\PSoC5/SPI_SS_Override_PM.c **** * Function Name: SPI_SS_Override_Sleep
  69:Generated_Source\PSoC5/SPI_SS_Override_PM.c **** ********************************************************************************
  70:Generated_Source\PSoC5/SPI_SS_Override_PM.c **** *
  71:Generated_Source\PSoC5/SPI_SS_Override_PM.c **** * Summary:
  72:Generated_Source\PSoC5/SPI_SS_Override_PM.c **** *  Prepares the component for entering the low power mode.
  73:Generated_Source\PSoC5/SPI_SS_Override_PM.c **** *
  74:Generated_Source\PSoC5/SPI_SS_Override_PM.c **** * Parameters:
  75:Generated_Source\PSoC5/SPI_SS_Override_PM.c **** *  None
  76:Generated_Source\PSoC5/SPI_SS_Override_PM.c **** *
  77:Generated_Source\PSoC5/SPI_SS_Override_PM.c **** * Return:
  78:Generated_Source\PSoC5/SPI_SS_Override_PM.c **** *  None
  79:Generated_Source\PSoC5/SPI_SS_Override_PM.c **** *
  80:Generated_Source\PSoC5/SPI_SS_Override_PM.c **** *******************************************************************************/
  81:Generated_Source\PSoC5/SPI_SS_Override_PM.c **** void SPI_SS_Override_Sleep(void) 
  82:Generated_Source\PSoC5/SPI_SS_Override_PM.c **** {
  82              		.loc 1 82 0
  83              		.cfi_startproc
  84              		@ args = 0, pretend = 0, frame = 0
  85              		@ frame_needed = 0, uses_anonymous_args = 0
  86 0000 08B5     		push	{r3, lr}
  87              		.cfi_def_cfa_offset 8
  88              		.cfi_offset 3, -8
  89              		.cfi_offset 14, -4
ARM GAS  C:\Users\DGILLI~1\AppData\Local\Temp\ccmHDR79.s 			page 4


  83:Generated_Source\PSoC5/SPI_SS_Override_PM.c ****     SPI_SS_Override_SaveConfig();
  90              		.loc 1 83 0
  91 0002 FFF7FEFF 		bl	SPI_SS_Override_SaveConfig
  92              	.LVL0:
  93 0006 08BD     		pop	{r3, pc}
  94              		.cfi_endproc
  95              	.LFE2:
  96              		.size	SPI_SS_Override_Sleep, .-SPI_SS_Override_Sleep
  97              		.section	.text.SPI_SS_Override_Wakeup,"ax",%progbits
  98              		.align	2
  99              		.global	SPI_SS_Override_Wakeup
 100              		.thumb
 101              		.thumb_func
 102              		.type	SPI_SS_Override_Wakeup, %function
 103              	SPI_SS_Override_Wakeup:
 104              	.LFB3:
  84:Generated_Source\PSoC5/SPI_SS_Override_PM.c **** }
  85:Generated_Source\PSoC5/SPI_SS_Override_PM.c **** 
  86:Generated_Source\PSoC5/SPI_SS_Override_PM.c **** 
  87:Generated_Source\PSoC5/SPI_SS_Override_PM.c **** /*******************************************************************************
  88:Generated_Source\PSoC5/SPI_SS_Override_PM.c **** * Function Name: SPI_SS_Override_Wakeup
  89:Generated_Source\PSoC5/SPI_SS_Override_PM.c **** ********************************************************************************
  90:Generated_Source\PSoC5/SPI_SS_Override_PM.c **** *
  91:Generated_Source\PSoC5/SPI_SS_Override_PM.c **** * Summary:
  92:Generated_Source\PSoC5/SPI_SS_Override_PM.c **** *  Restores the component after waking up from the low power mode.
  93:Generated_Source\PSoC5/SPI_SS_Override_PM.c **** *
  94:Generated_Source\PSoC5/SPI_SS_Override_PM.c **** * Parameters:
  95:Generated_Source\PSoC5/SPI_SS_Override_PM.c **** *  None
  96:Generated_Source\PSoC5/SPI_SS_Override_PM.c **** *
  97:Generated_Source\PSoC5/SPI_SS_Override_PM.c **** * Return:
  98:Generated_Source\PSoC5/SPI_SS_Override_PM.c **** *  None
  99:Generated_Source\PSoC5/SPI_SS_Override_PM.c **** *
 100:Generated_Source\PSoC5/SPI_SS_Override_PM.c **** *******************************************************************************/
 101:Generated_Source\PSoC5/SPI_SS_Override_PM.c **** void SPI_SS_Override_Wakeup(void)  
 102:Generated_Source\PSoC5/SPI_SS_Override_PM.c **** {
 105              		.loc 1 102 0
 106              		.cfi_startproc
 107              		@ args = 0, pretend = 0, frame = 0
 108              		@ frame_needed = 0, uses_anonymous_args = 0
 109 0000 08B5     		push	{r3, lr}
 110              		.cfi_def_cfa_offset 8
 111              		.cfi_offset 3, -8
 112              		.cfi_offset 14, -4
 103:Generated_Source\PSoC5/SPI_SS_Override_PM.c ****     SPI_SS_Override_RestoreConfig();
 113              		.loc 1 103 0
 114 0002 FFF7FEFF 		bl	SPI_SS_Override_RestoreConfig
 115              	.LVL1:
 116 0006 08BD     		pop	{r3, pc}
 117              		.cfi_endproc
 118              	.LFE3:
 119              		.size	SPI_SS_Override_Wakeup, .-SPI_SS_Override_Wakeup
 120              		.bss
 121              		.align	2
 122              		.set	.LANCHOR0,. + 0
 123              		.type	SPI_SS_Override_backup, %object
 124              		.size	SPI_SS_Override_backup, 1
 125              	SPI_SS_Override_backup:
ARM GAS  C:\Users\DGILLI~1\AppData\Local\Temp\ccmHDR79.s 			page 5


 126 0000 00       		.space	1
 127              		.text
 128              	.Letext0:
 129              		.file 2 "Generated_Source\\PSoC5\\cytypes.h"
 130              		.file 3 "Generated_Source\\PSoC5\\SPI_SS_Override.h"