ARM GAS  C:\Users\DGILLI~1\AppData\Local\Temp\cc3QnZEY.s 			page 1


   1              		.syntax unified
   2              		.cpu cortex-m3
   3              		.fpu softvfp
   4              		.eabi_attribute 20, 1
   5              		.eabi_attribute 21, 1
   6              		.eabi_attribute 23, 3
   7              		.eabi_attribute 24, 1
   8              		.eabi_attribute 25, 1
   9              		.eabi_attribute 26, 1
  10              		.eabi_attribute 30, 1
  11              		.eabi_attribute 34, 1
  12              		.eabi_attribute 18, 4
  13              		.thumb
  14              		.syntax unified
  15              		.file	"SPI_Master_PM.c"
  16              		.text
  17              	.Ltext0:
  18              		.cfi_sections	.debug_frame
  19              		.section	.text.SPI_Master_SaveConfig,"ax",%progbits
  20              		.align	2
  21              		.global	SPI_Master_SaveConfig
  22              		.thumb
  23              		.thumb_func
  24              		.type	SPI_Master_SaveConfig, %function
  25              	SPI_Master_SaveConfig:
  26              	.LFB0:
  27              		.file 1 "Generated_Source\\PSoC5\\SPI_Master_PM.c"
   1:Generated_Source\PSoC5/SPI_Master_PM.c **** /*******************************************************************************
   2:Generated_Source\PSoC5/SPI_Master_PM.c **** * File Name: SPI_Master_PM.c
   3:Generated_Source\PSoC5/SPI_Master_PM.c **** * Version 2.50
   4:Generated_Source\PSoC5/SPI_Master_PM.c **** *
   5:Generated_Source\PSoC5/SPI_Master_PM.c **** * Description:
   6:Generated_Source\PSoC5/SPI_Master_PM.c **** *  This file contains the setup, control and status commands to support
   7:Generated_Source\PSoC5/SPI_Master_PM.c **** *  component operations in low power mode.
   8:Generated_Source\PSoC5/SPI_Master_PM.c **** *
   9:Generated_Source\PSoC5/SPI_Master_PM.c **** * Note:
  10:Generated_Source\PSoC5/SPI_Master_PM.c **** *
  11:Generated_Source\PSoC5/SPI_Master_PM.c **** ********************************************************************************
  12:Generated_Source\PSoC5/SPI_Master_PM.c **** * Copyright 2008-2015, Cypress Semiconductor Corporation.  All rights reserved.
  13:Generated_Source\PSoC5/SPI_Master_PM.c **** * You may use this file only in accordance with the license, terms, conditions,
  14:Generated_Source\PSoC5/SPI_Master_PM.c **** * disclaimers, and limitations in the end user license agreement accompanying
  15:Generated_Source\PSoC5/SPI_Master_PM.c **** * the software package with which this file was provided.
  16:Generated_Source\PSoC5/SPI_Master_PM.c **** *******************************************************************************/
  17:Generated_Source\PSoC5/SPI_Master_PM.c **** 
  18:Generated_Source\PSoC5/SPI_Master_PM.c **** #include "SPI_Master_PVT.h"
  19:Generated_Source\PSoC5/SPI_Master_PM.c **** 
  20:Generated_Source\PSoC5/SPI_Master_PM.c **** static SPI_Master_BACKUP_STRUCT SPI_Master_backup =
  21:Generated_Source\PSoC5/SPI_Master_PM.c **** {
  22:Generated_Source\PSoC5/SPI_Master_PM.c ****     SPI_Master_DISABLED,
  23:Generated_Source\PSoC5/SPI_Master_PM.c ****     SPI_Master_BITCTR_INIT,
  24:Generated_Source\PSoC5/SPI_Master_PM.c **** };
  25:Generated_Source\PSoC5/SPI_Master_PM.c **** 
  26:Generated_Source\PSoC5/SPI_Master_PM.c **** 
  27:Generated_Source\PSoC5/SPI_Master_PM.c **** /*******************************************************************************
  28:Generated_Source\PSoC5/SPI_Master_PM.c **** * Function Name: SPI_Master_SaveConfig
  29:Generated_Source\PSoC5/SPI_Master_PM.c **** ********************************************************************************
  30:Generated_Source\PSoC5/SPI_Master_PM.c **** *
ARM GAS  C:\Users\DGILLI~1\AppData\Local\Temp\cc3QnZEY.s 			page 2


  31:Generated_Source\PSoC5/SPI_Master_PM.c **** * Summary:
  32:Generated_Source\PSoC5/SPI_Master_PM.c **** *  Empty function. Included for consistency with other components.
  33:Generated_Source\PSoC5/SPI_Master_PM.c **** *
  34:Generated_Source\PSoC5/SPI_Master_PM.c **** * Parameters:
  35:Generated_Source\PSoC5/SPI_Master_PM.c **** *  None.
  36:Generated_Source\PSoC5/SPI_Master_PM.c **** *
  37:Generated_Source\PSoC5/SPI_Master_PM.c **** * Return:
  38:Generated_Source\PSoC5/SPI_Master_PM.c **** *  None.
  39:Generated_Source\PSoC5/SPI_Master_PM.c **** *
  40:Generated_Source\PSoC5/SPI_Master_PM.c **** *******************************************************************************/
  41:Generated_Source\PSoC5/SPI_Master_PM.c **** void SPI_Master_SaveConfig(void) 
  42:Generated_Source\PSoC5/SPI_Master_PM.c **** {
  28              		.loc 1 42 0
  29              		.cfi_startproc
  30              		@ args = 0, pretend = 0, frame = 0
  31              		@ frame_needed = 0, uses_anonymous_args = 0
  32              		@ link register save eliminated.
  33 0000 7047     		bx	lr
  34              		.cfi_endproc
  35              	.LFE0:
  36              		.size	SPI_Master_SaveConfig, .-SPI_Master_SaveConfig
  37 0002 00BF     		.section	.text.SPI_Master_RestoreConfig,"ax",%progbits
  38              		.align	2
  39              		.global	SPI_Master_RestoreConfig
  40              		.thumb
  41              		.thumb_func
  42              		.type	SPI_Master_RestoreConfig, %function
  43              	SPI_Master_RestoreConfig:
  44              	.LFB1:
  43:Generated_Source\PSoC5/SPI_Master_PM.c **** 
  44:Generated_Source\PSoC5/SPI_Master_PM.c **** }
  45:Generated_Source\PSoC5/SPI_Master_PM.c **** 
  46:Generated_Source\PSoC5/SPI_Master_PM.c **** 
  47:Generated_Source\PSoC5/SPI_Master_PM.c **** /*******************************************************************************
  48:Generated_Source\PSoC5/SPI_Master_PM.c **** * Function Name: SPI_Master_RestoreConfig
  49:Generated_Source\PSoC5/SPI_Master_PM.c **** ********************************************************************************
  50:Generated_Source\PSoC5/SPI_Master_PM.c **** *
  51:Generated_Source\PSoC5/SPI_Master_PM.c **** * Summary:
  52:Generated_Source\PSoC5/SPI_Master_PM.c **** *  Empty function. Included for consistency with other components.
  53:Generated_Source\PSoC5/SPI_Master_PM.c **** *
  54:Generated_Source\PSoC5/SPI_Master_PM.c **** * Parameters:
  55:Generated_Source\PSoC5/SPI_Master_PM.c **** *  None.
  56:Generated_Source\PSoC5/SPI_Master_PM.c **** *
  57:Generated_Source\PSoC5/SPI_Master_PM.c **** * Return:
  58:Generated_Source\PSoC5/SPI_Master_PM.c **** *  None.
  59:Generated_Source\PSoC5/SPI_Master_PM.c **** *
  60:Generated_Source\PSoC5/SPI_Master_PM.c **** *******************************************************************************/
  61:Generated_Source\PSoC5/SPI_Master_PM.c **** void SPI_Master_RestoreConfig(void) 
  62:Generated_Source\PSoC5/SPI_Master_PM.c **** {
  45              		.loc 1 62 0
  46              		.cfi_startproc
  47              		@ args = 0, pretend = 0, frame = 0
  48              		@ frame_needed = 0, uses_anonymous_args = 0
  49              		@ link register save eliminated.
  50 0000 7047     		bx	lr
  51              		.cfi_endproc
  52              	.LFE1:
ARM GAS  C:\Users\DGILLI~1\AppData\Local\Temp\cc3QnZEY.s 			page 3


  53              		.size	SPI_Master_RestoreConfig, .-SPI_Master_RestoreConfig
  54 0002 00BF     		.section	.text.SPI_Master_Sleep,"ax",%progbits
  55              		.align	2
  56              		.global	SPI_Master_Sleep
  57              		.thumb
  58              		.thumb_func
  59              		.type	SPI_Master_Sleep, %function
  60              	SPI_Master_Sleep:
  61              	.LFB2:
  63:Generated_Source\PSoC5/SPI_Master_PM.c **** 
  64:Generated_Source\PSoC5/SPI_Master_PM.c **** }
  65:Generated_Source\PSoC5/SPI_Master_PM.c **** 
  66:Generated_Source\PSoC5/SPI_Master_PM.c **** 
  67:Generated_Source\PSoC5/SPI_Master_PM.c **** /*******************************************************************************
  68:Generated_Source\PSoC5/SPI_Master_PM.c **** * Function Name: SPI_Master_Sleep
  69:Generated_Source\PSoC5/SPI_Master_PM.c **** ********************************************************************************
  70:Generated_Source\PSoC5/SPI_Master_PM.c **** *
  71:Generated_Source\PSoC5/SPI_Master_PM.c **** * Summary:
  72:Generated_Source\PSoC5/SPI_Master_PM.c **** *  Prepare SPIM Component goes to sleep.
  73:Generated_Source\PSoC5/SPI_Master_PM.c **** *
  74:Generated_Source\PSoC5/SPI_Master_PM.c **** * Parameters:
  75:Generated_Source\PSoC5/SPI_Master_PM.c **** *  None.
  76:Generated_Source\PSoC5/SPI_Master_PM.c **** *
  77:Generated_Source\PSoC5/SPI_Master_PM.c **** * Return:
  78:Generated_Source\PSoC5/SPI_Master_PM.c **** *  None.
  79:Generated_Source\PSoC5/SPI_Master_PM.c **** *
  80:Generated_Source\PSoC5/SPI_Master_PM.c **** * Global Variables:
  81:Generated_Source\PSoC5/SPI_Master_PM.c **** *  SPI_Master_backup - modified when non-retention registers are saved.
  82:Generated_Source\PSoC5/SPI_Master_PM.c **** *
  83:Generated_Source\PSoC5/SPI_Master_PM.c **** * Reentrant:
  84:Generated_Source\PSoC5/SPI_Master_PM.c **** *  No.
  85:Generated_Source\PSoC5/SPI_Master_PM.c **** *
  86:Generated_Source\PSoC5/SPI_Master_PM.c **** *******************************************************************************/
  87:Generated_Source\PSoC5/SPI_Master_PM.c **** void SPI_Master_Sleep(void) 
  88:Generated_Source\PSoC5/SPI_Master_PM.c **** {
  62              		.loc 1 88 0
  63              		.cfi_startproc
  64              		@ args = 0, pretend = 0, frame = 0
  65              		@ frame_needed = 0, uses_anonymous_args = 0
  66              		.loc 1 88 0
  67 0000 08B5     		push	{r3, lr}
  68              		.cfi_def_cfa_offset 8
  69              		.cfi_offset 3, -8
  70              		.cfi_offset 14, -4
  89:Generated_Source\PSoC5/SPI_Master_PM.c ****     /* Save components enable state */
  90:Generated_Source\PSoC5/SPI_Master_PM.c ****     SPI_Master_backup.enableState = ((uint8) SPI_Master_IS_ENABLED);
  71              		.loc 1 90 0
  72 0002 044B     		ldr	r3, .L5
  73 0004 1B78     		ldrb	r3, [r3]	@ zero_extendqisi2
  74 0006 C3F30013 		ubfx	r3, r3, #4, #1
  75 000a 034A     		ldr	r2, .L5+4
  76 000c 1370     		strb	r3, [r2]
  91:Generated_Source\PSoC5/SPI_Master_PM.c **** 
  92:Generated_Source\PSoC5/SPI_Master_PM.c ****     SPI_Master_Stop();
  77              		.loc 1 92 0
  78 000e FFF7FEFF 		bl	SPI_Master_Stop
  79              	.LVL0:
ARM GAS  C:\Users\DGILLI~1\AppData\Local\Temp\cc3QnZEY.s 			page 4


  80 0012 08BD     		pop	{r3, pc}
  81              	.L6:
  82              		.align	2
  83              	.L5:
  84 0014 95640040 		.word	1073767573
  85 0018 00000000 		.word	.LANCHOR0
  86              		.cfi_endproc
  87              	.LFE2:
  88              		.size	SPI_Master_Sleep, .-SPI_Master_Sleep
  89              		.section	.text.SPI_Master_Wakeup,"ax",%progbits
  90              		.align	2
  91              		.global	SPI_Master_Wakeup
  92              		.thumb
  93              		.thumb_func
  94              		.type	SPI_Master_Wakeup, %function
  95              	SPI_Master_Wakeup:
  96              	.LFB3:
  93:Generated_Source\PSoC5/SPI_Master_PM.c **** }
  94:Generated_Source\PSoC5/SPI_Master_PM.c **** 
  95:Generated_Source\PSoC5/SPI_Master_PM.c **** 
  96:Generated_Source\PSoC5/SPI_Master_PM.c **** /*******************************************************************************
  97:Generated_Source\PSoC5/SPI_Master_PM.c **** * Function Name: SPI_Master_Wakeup
  98:Generated_Source\PSoC5/SPI_Master_PM.c **** ********************************************************************************
  99:Generated_Source\PSoC5/SPI_Master_PM.c **** *
 100:Generated_Source\PSoC5/SPI_Master_PM.c **** * Summary:
 101:Generated_Source\PSoC5/SPI_Master_PM.c **** *  Prepare SPIM Component to wake up.
 102:Generated_Source\PSoC5/SPI_Master_PM.c **** *
 103:Generated_Source\PSoC5/SPI_Master_PM.c **** * Parameters:
 104:Generated_Source\PSoC5/SPI_Master_PM.c **** *  None.
 105:Generated_Source\PSoC5/SPI_Master_PM.c **** *
 106:Generated_Source\PSoC5/SPI_Master_PM.c **** * Return:
 107:Generated_Source\PSoC5/SPI_Master_PM.c **** *  None.
 108:Generated_Source\PSoC5/SPI_Master_PM.c **** *
 109:Generated_Source\PSoC5/SPI_Master_PM.c **** * Global Variables:
 110:Generated_Source\PSoC5/SPI_Master_PM.c **** *  SPI_Master_backup - used when non-retention registers are restored.
 111:Generated_Source\PSoC5/SPI_Master_PM.c **** *  SPI_Master_txBufferWrite - modified every function call - resets to
 112:Generated_Source\PSoC5/SPI_Master_PM.c **** *  zero.
 113:Generated_Source\PSoC5/SPI_Master_PM.c **** *  SPI_Master_txBufferRead - modified every function call - resets to
 114:Generated_Source\PSoC5/SPI_Master_PM.c **** *  zero.
 115:Generated_Source\PSoC5/SPI_Master_PM.c **** *  SPI_Master_rxBufferWrite - modified every function call - resets to
 116:Generated_Source\PSoC5/SPI_Master_PM.c **** *  zero.
 117:Generated_Source\PSoC5/SPI_Master_PM.c **** *  SPI_Master_rxBufferRead - modified every function call - resets to
 118:Generated_Source\PSoC5/SPI_Master_PM.c **** *  zero.
 119:Generated_Source\PSoC5/SPI_Master_PM.c **** *
 120:Generated_Source\PSoC5/SPI_Master_PM.c **** * Reentrant:
 121:Generated_Source\PSoC5/SPI_Master_PM.c **** *  No.
 122:Generated_Source\PSoC5/SPI_Master_PM.c **** *
 123:Generated_Source\PSoC5/SPI_Master_PM.c **** *******************************************************************************/
 124:Generated_Source\PSoC5/SPI_Master_PM.c **** void SPI_Master_Wakeup(void) 
 125:Generated_Source\PSoC5/SPI_Master_PM.c **** {
  97              		.loc 1 125 0
  98              		.cfi_startproc
  99              		@ args = 0, pretend = 0, frame = 0
 100              		@ frame_needed = 0, uses_anonymous_args = 0
 101 0000 08B5     		push	{r3, lr}
 102              		.cfi_def_cfa_offset 8
 103              		.cfi_offset 3, -8
ARM GAS  C:\Users\DGILLI~1\AppData\Local\Temp\cc3QnZEY.s 			page 5


 104              		.cfi_offset 14, -4
 126:Generated_Source\PSoC5/SPI_Master_PM.c ****     #if(SPI_Master_RX_SOFTWARE_BUF_ENABLED)
 127:Generated_Source\PSoC5/SPI_Master_PM.c ****         SPI_Master_rxBufferFull  = 0u;
 128:Generated_Source\PSoC5/SPI_Master_PM.c ****         SPI_Master_rxBufferRead  = 0u;
 129:Generated_Source\PSoC5/SPI_Master_PM.c ****         SPI_Master_rxBufferWrite = 0u;
 130:Generated_Source\PSoC5/SPI_Master_PM.c ****     #endif /* (SPI_Master_RX_SOFTWARE_BUF_ENABLED) */
 131:Generated_Source\PSoC5/SPI_Master_PM.c **** 
 132:Generated_Source\PSoC5/SPI_Master_PM.c ****     #if(SPI_Master_TX_SOFTWARE_BUF_ENABLED)
 133:Generated_Source\PSoC5/SPI_Master_PM.c ****         SPI_Master_txBufferFull  = 0u;
 134:Generated_Source\PSoC5/SPI_Master_PM.c ****         SPI_Master_txBufferRead  = 0u;
 135:Generated_Source\PSoC5/SPI_Master_PM.c ****         SPI_Master_txBufferWrite = 0u;
 136:Generated_Source\PSoC5/SPI_Master_PM.c ****     #endif /* (SPI_Master_TX_SOFTWARE_BUF_ENABLED) */
 137:Generated_Source\PSoC5/SPI_Master_PM.c **** 
 138:Generated_Source\PSoC5/SPI_Master_PM.c ****     /* Clear any data from the RX and TX FIFO */
 139:Generated_Source\PSoC5/SPI_Master_PM.c ****     SPI_Master_ClearFIFO();
 105              		.loc 1 139 0
 106 0002 FFF7FEFF 		bl	SPI_Master_ClearFIFO
 107              	.LVL1:
 140:Generated_Source\PSoC5/SPI_Master_PM.c **** 
 141:Generated_Source\PSoC5/SPI_Master_PM.c ****     /* Restore components block enable state */
 142:Generated_Source\PSoC5/SPI_Master_PM.c ****     if(0u != SPI_Master_backup.enableState)
 108              		.loc 1 142 0
 109 0006 034B     		ldr	r3, .L10
 110 0008 1B78     		ldrb	r3, [r3]	@ zero_extendqisi2
 111 000a 0BB1     		cbz	r3, .L7
 143:Generated_Source\PSoC5/SPI_Master_PM.c ****     {
 144:Generated_Source\PSoC5/SPI_Master_PM.c ****         SPI_Master_Enable();
 112              		.loc 1 144 0
 113 000c FFF7FEFF 		bl	SPI_Master_Enable
 114              	.LVL2:
 115              	.L7:
 116 0010 08BD     		pop	{r3, pc}
 117              	.L11:
 118 0012 00BF     		.align	2
 119              	.L10:
 120 0014 00000000 		.word	.LANCHOR0
 121              		.cfi_endproc
 122              	.LFE3:
 123              		.size	SPI_Master_Wakeup, .-SPI_Master_Wakeup
 124              		.data
 125              		.align	2
 126              		.set	.LANCHOR0,. + 0
 127              		.type	SPI_Master_backup, %object
 128              		.size	SPI_Master_backup, 2
 129              	SPI_Master_backup:
 130 0000 00       		.byte	0
 131 0001 0F       		.byte	15
 132              		.text
 133              	.Letext0:
 134              		.file 2 "Generated_Source\\PSoC5\\cytypes.h"
 135              		.file 3 "Generated_Source\\PSoC5\\SPI_Master.h"