ARM GAS  C:\Users\DGILLI~1\AppData\Local\Temp\ccYSqyeP.s 			page 1


   1              		.syntax unified
   2              		.cpu cortex-m3
   3              		.fpu softvfp
   4              		.eabi_attribute 20, 1
   5              		.eabi_attribute 21, 1
   6              		.eabi_attribute 23, 3
   7              		.eabi_attribute 24, 1
   8              		.eabi_attribute 25, 1
   9              		.eabi_attribute 26, 1
  10              		.eabi_attribute 30, 1
  11              		.eabi_attribute 34, 1
  12              		.eabi_attribute 18, 4
  13              		.thumb
  14              		.syntax unified
  15              		.file	"Timer.c"
  16              		.text
  17              	.Ltext0:
  18              		.cfi_sections	.debug_frame
  19              		.section	.text.Timer_Enable,"ax",%progbits
  20              		.align	2
  21              		.global	Timer_Enable
  22              		.thumb
  23              		.thumb_func
  24              		.type	Timer_Enable, %function
  25              	Timer_Enable:
  26              	.LFB1:
  27              		.file 1 "Generated_Source\\PSoC5\\Timer.c"
   1:Generated_Source\PSoC5/Timer.c **** /*******************************************************************************
   2:Generated_Source\PSoC5/Timer.c **** * File Name: Timer.c
   3:Generated_Source\PSoC5/Timer.c **** * Version 2.80
   4:Generated_Source\PSoC5/Timer.c **** *
   5:Generated_Source\PSoC5/Timer.c **** * Description:
   6:Generated_Source\PSoC5/Timer.c **** *  The Timer component consists of a 8, 16, 24 or 32-bit timer with
   7:Generated_Source\PSoC5/Timer.c **** *  a selectable period between 2 and 2^Width - 1.  The timer may free run
   8:Generated_Source\PSoC5/Timer.c **** *  or be used as a capture timer as well.  The capture can be initiated
   9:Generated_Source\PSoC5/Timer.c **** *  by a positive or negative edge signal as well as via software.
  10:Generated_Source\PSoC5/Timer.c **** *  A trigger input can be programmed to enable the timer on rising edge
  11:Generated_Source\PSoC5/Timer.c **** *  falling edge, either edge or continous run.
  12:Generated_Source\PSoC5/Timer.c **** *  Interrupts may be generated due to a terminal count condition
  13:Generated_Source\PSoC5/Timer.c **** *  or a capture event.
  14:Generated_Source\PSoC5/Timer.c **** *
  15:Generated_Source\PSoC5/Timer.c **** * Note:
  16:Generated_Source\PSoC5/Timer.c **** *
  17:Generated_Source\PSoC5/Timer.c **** ********************************************************************************
  18:Generated_Source\PSoC5/Timer.c **** * Copyright 2008-2017, Cypress Semiconductor Corporation.  All rights reserved.
  19:Generated_Source\PSoC5/Timer.c **** * You may use this file only in accordance with the license, terms, conditions,
  20:Generated_Source\PSoC5/Timer.c **** * disclaimers, and limitations in the end user license agreement accompanying
  21:Generated_Source\PSoC5/Timer.c **** * the software package with which this file was provided.
  22:Generated_Source\PSoC5/Timer.c **** ********************************************************************************/
  23:Generated_Source\PSoC5/Timer.c **** 
  24:Generated_Source\PSoC5/Timer.c **** #include "Timer.h"
  25:Generated_Source\PSoC5/Timer.c **** 
  26:Generated_Source\PSoC5/Timer.c **** uint8 Timer_initVar = 0u;
  27:Generated_Source\PSoC5/Timer.c **** 
  28:Generated_Source\PSoC5/Timer.c **** 
  29:Generated_Source\PSoC5/Timer.c **** /*******************************************************************************
  30:Generated_Source\PSoC5/Timer.c **** * Function Name: Timer_Init
ARM GAS  C:\Users\DGILLI~1\AppData\Local\Temp\ccYSqyeP.s 			page 2


  31:Generated_Source\PSoC5/Timer.c **** ********************************************************************************
  32:Generated_Source\PSoC5/Timer.c **** *
  33:Generated_Source\PSoC5/Timer.c **** * Summary:
  34:Generated_Source\PSoC5/Timer.c **** *  Initialize to the schematic state
  35:Generated_Source\PSoC5/Timer.c **** *
  36:Generated_Source\PSoC5/Timer.c **** * Parameters:
  37:Generated_Source\PSoC5/Timer.c **** *  void
  38:Generated_Source\PSoC5/Timer.c **** *
  39:Generated_Source\PSoC5/Timer.c **** * Return:
  40:Generated_Source\PSoC5/Timer.c **** *  void
  41:Generated_Source\PSoC5/Timer.c **** *
  42:Generated_Source\PSoC5/Timer.c **** *******************************************************************************/
  43:Generated_Source\PSoC5/Timer.c **** void Timer_Init(void) 
  44:Generated_Source\PSoC5/Timer.c **** {
  45:Generated_Source\PSoC5/Timer.c ****     #if(!Timer_UsingFixedFunction)
  46:Generated_Source\PSoC5/Timer.c ****             /* Interrupt State Backup for Critical Region*/
  47:Generated_Source\PSoC5/Timer.c ****             uint8 Timer_interruptState;
  48:Generated_Source\PSoC5/Timer.c ****     #endif /* Interrupt state back up for Fixed Function only */
  49:Generated_Source\PSoC5/Timer.c **** 
  50:Generated_Source\PSoC5/Timer.c ****     #if (Timer_UsingFixedFunction)
  51:Generated_Source\PSoC5/Timer.c ****         /* Clear all bits but the enable bit (if it's already set) for Timer operation */
  52:Generated_Source\PSoC5/Timer.c ****         Timer_CONTROL &= Timer_CTRL_ENABLE;
  53:Generated_Source\PSoC5/Timer.c **** 
  54:Generated_Source\PSoC5/Timer.c ****         /* Clear the mode bits for continuous run mode */
  55:Generated_Source\PSoC5/Timer.c ****         #if (CY_PSOC5A)
  56:Generated_Source\PSoC5/Timer.c ****             Timer_CONTROL2 &= ((uint8)(~Timer_CTRL_MODE_MASK));
  57:Generated_Source\PSoC5/Timer.c ****         #endif /* Clear bits in CONTROL2 only in PSOC5A */
  58:Generated_Source\PSoC5/Timer.c **** 
  59:Generated_Source\PSoC5/Timer.c ****         #if (CY_PSOC3 || CY_PSOC5LP)
  60:Generated_Source\PSoC5/Timer.c ****             Timer_CONTROL3 &= ((uint8)(~Timer_CTRL_MODE_MASK));
  61:Generated_Source\PSoC5/Timer.c ****         #endif /* CONTROL3 register exists only in PSoC3 OR PSoC5LP */
  62:Generated_Source\PSoC5/Timer.c **** 
  63:Generated_Source\PSoC5/Timer.c ****         /* Check if One Shot mode is enabled i.e. RunMode !=0*/
  64:Generated_Source\PSoC5/Timer.c ****         #if (Timer_RunModeUsed != 0x0u)
  65:Generated_Source\PSoC5/Timer.c ****             /* Set 3rd bit of Control register to enable one shot mode */
  66:Generated_Source\PSoC5/Timer.c ****             Timer_CONTROL |= 0x04u;
  67:Generated_Source\PSoC5/Timer.c ****         #endif /* One Shot enabled only when RunModeUsed is not Continuous*/
  68:Generated_Source\PSoC5/Timer.c **** 
  69:Generated_Source\PSoC5/Timer.c ****         #if (Timer_RunModeUsed == 2)
  70:Generated_Source\PSoC5/Timer.c ****             #if (CY_PSOC5A)
  71:Generated_Source\PSoC5/Timer.c ****                 /* Set last 2 bits of control2 register if one shot(halt on
  72:Generated_Source\PSoC5/Timer.c ****                 interrupt) is enabled*/
  73:Generated_Source\PSoC5/Timer.c ****                 Timer_CONTROL2 |= 0x03u;
  74:Generated_Source\PSoC5/Timer.c ****             #endif /* Set One-Shot Halt on Interrupt bit in CONTROL2 for PSoC5A */
  75:Generated_Source\PSoC5/Timer.c **** 
  76:Generated_Source\PSoC5/Timer.c ****             #if (CY_PSOC3 || CY_PSOC5LP)
  77:Generated_Source\PSoC5/Timer.c ****                 /* Set last 2 bits of control3 register if one shot(halt on
  78:Generated_Source\PSoC5/Timer.c ****                 interrupt) is enabled*/
  79:Generated_Source\PSoC5/Timer.c ****                 Timer_CONTROL3 |= 0x03u;
  80:Generated_Source\PSoC5/Timer.c ****             #endif /* Set One-Shot Halt on Interrupt bit in CONTROL3 for PSoC3 or PSoC5LP */
  81:Generated_Source\PSoC5/Timer.c **** 
  82:Generated_Source\PSoC5/Timer.c ****         #endif /* Remove section if One Shot Halt on Interrupt is not enabled */
  83:Generated_Source\PSoC5/Timer.c **** 
  84:Generated_Source\PSoC5/Timer.c ****         #if (Timer_UsingHWEnable != 0)
  85:Generated_Source\PSoC5/Timer.c ****             #if (CY_PSOC5A)
  86:Generated_Source\PSoC5/Timer.c ****                 /* Set the default Run Mode of the Timer to Continuous */
  87:Generated_Source\PSoC5/Timer.c ****                 Timer_CONTROL2 |= Timer_CTRL_MODE_PULSEWIDTH;
ARM GAS  C:\Users\DGILLI~1\AppData\Local\Temp\ccYSqyeP.s 			page 3


  88:Generated_Source\PSoC5/Timer.c ****             #endif /* Set Continuous Run Mode in CONTROL2 for PSoC5A */
  89:Generated_Source\PSoC5/Timer.c **** 
  90:Generated_Source\PSoC5/Timer.c ****             #if (CY_PSOC3 || CY_PSOC5LP)
  91:Generated_Source\PSoC5/Timer.c ****                 /* Clear and Set ROD and COD bits of CFG2 register */
  92:Generated_Source\PSoC5/Timer.c ****                 Timer_CONTROL3 &= ((uint8)(~Timer_CTRL_RCOD_MASK));
  93:Generated_Source\PSoC5/Timer.c ****                 Timer_CONTROL3 |= Timer_CTRL_RCOD;
  94:Generated_Source\PSoC5/Timer.c **** 
  95:Generated_Source\PSoC5/Timer.c ****                 /* Clear and Enable the HW enable bit in CFG2 register */
  96:Generated_Source\PSoC5/Timer.c ****                 Timer_CONTROL3 &= ((uint8)(~Timer_CTRL_ENBL_MASK));
  97:Generated_Source\PSoC5/Timer.c ****                 Timer_CONTROL3 |= Timer_CTRL_ENBL;
  98:Generated_Source\PSoC5/Timer.c **** 
  99:Generated_Source\PSoC5/Timer.c ****                 /* Set the default Run Mode of the Timer to Continuous */
 100:Generated_Source\PSoC5/Timer.c ****                 Timer_CONTROL3 |= Timer_CTRL_MODE_CONTINUOUS;
 101:Generated_Source\PSoC5/Timer.c ****             #endif /* Set Continuous Run Mode in CONTROL3 for PSoC3ES3 or PSoC5A */
 102:Generated_Source\PSoC5/Timer.c **** 
 103:Generated_Source\PSoC5/Timer.c ****         #endif /* Configure Run Mode with hardware enable */
 104:Generated_Source\PSoC5/Timer.c **** 
 105:Generated_Source\PSoC5/Timer.c ****         /* Clear and Set SYNCTC and SYNCCMP bits of RT1 register */
 106:Generated_Source\PSoC5/Timer.c ****         Timer_RT1 &= ((uint8)(~Timer_RT1_MASK));
 107:Generated_Source\PSoC5/Timer.c ****         Timer_RT1 |= Timer_SYNC;
 108:Generated_Source\PSoC5/Timer.c **** 
 109:Generated_Source\PSoC5/Timer.c ****         /*Enable DSI Sync all all inputs of the Timer*/
 110:Generated_Source\PSoC5/Timer.c ****         Timer_RT1 &= ((uint8)(~Timer_SYNCDSI_MASK));
 111:Generated_Source\PSoC5/Timer.c ****         Timer_RT1 |= Timer_SYNCDSI_EN;
 112:Generated_Source\PSoC5/Timer.c **** 
 113:Generated_Source\PSoC5/Timer.c ****         /* Set the IRQ to use the status register interrupts */
 114:Generated_Source\PSoC5/Timer.c ****         Timer_CONTROL2 |= Timer_CTRL2_IRQ_SEL;
 115:Generated_Source\PSoC5/Timer.c ****     #endif /* Configuring registers of fixed function implementation */
 116:Generated_Source\PSoC5/Timer.c **** 
 117:Generated_Source\PSoC5/Timer.c ****     /* Set Initial values from Configuration */
 118:Generated_Source\PSoC5/Timer.c ****     Timer_WritePeriod(Timer_INIT_PERIOD);
 119:Generated_Source\PSoC5/Timer.c ****     Timer_WriteCounter(Timer_INIT_PERIOD);
 120:Generated_Source\PSoC5/Timer.c **** 
 121:Generated_Source\PSoC5/Timer.c ****     #if (Timer_UsingHWCaptureCounter)/* Capture counter is enabled */
 122:Generated_Source\PSoC5/Timer.c ****         Timer_CAPTURE_COUNT_CTRL |= Timer_CNTR_ENABLE;
 123:Generated_Source\PSoC5/Timer.c ****         Timer_SetCaptureCount(Timer_INIT_CAPTURE_COUNT);
 124:Generated_Source\PSoC5/Timer.c ****     #endif /* Configure capture counter value */
 125:Generated_Source\PSoC5/Timer.c **** 
 126:Generated_Source\PSoC5/Timer.c ****     #if (!Timer_UsingFixedFunction)
 127:Generated_Source\PSoC5/Timer.c ****         #if (Timer_SoftwareCaptureMode)
 128:Generated_Source\PSoC5/Timer.c ****             Timer_SetCaptureMode(Timer_INIT_CAPTURE_MODE);
 129:Generated_Source\PSoC5/Timer.c ****         #endif /* Set Capture Mode for UDB implementation if capture mode is software controlled */
 130:Generated_Source\PSoC5/Timer.c **** 
 131:Generated_Source\PSoC5/Timer.c ****         #if (Timer_SoftwareTriggerMode)
 132:Generated_Source\PSoC5/Timer.c ****             #if (!Timer_UDB_CONTROL_REG_REMOVED)
 133:Generated_Source\PSoC5/Timer.c ****                 if (0u == (Timer_CONTROL & Timer__B_TIMER__TM_SOFTWARE))
 134:Generated_Source\PSoC5/Timer.c ****                 {
 135:Generated_Source\PSoC5/Timer.c ****                     Timer_SetTriggerMode(Timer_INIT_TRIGGER_MODE);
 136:Generated_Source\PSoC5/Timer.c ****                 }
 137:Generated_Source\PSoC5/Timer.c ****             #endif /* (!Timer_UDB_CONTROL_REG_REMOVED) */
 138:Generated_Source\PSoC5/Timer.c ****         #endif /* Set trigger mode for UDB Implementation if trigger mode is software controlled */
 139:Generated_Source\PSoC5/Timer.c **** 
 140:Generated_Source\PSoC5/Timer.c ****         /* CyEnterCriticalRegion and CyExitCriticalRegion are used to mark following region critica
 141:Generated_Source\PSoC5/Timer.c ****         /* Enter Critical Region*/
 142:Generated_Source\PSoC5/Timer.c ****         Timer_interruptState = CyEnterCriticalSection();
 143:Generated_Source\PSoC5/Timer.c **** 
 144:Generated_Source\PSoC5/Timer.c ****         /* Use the interrupt output of the status register for IRQ output */
ARM GAS  C:\Users\DGILLI~1\AppData\Local\Temp\ccYSqyeP.s 			page 4


 145:Generated_Source\PSoC5/Timer.c ****         Timer_STATUS_AUX_CTRL |= Timer_STATUS_ACTL_INT_EN_MASK;
 146:Generated_Source\PSoC5/Timer.c **** 
 147:Generated_Source\PSoC5/Timer.c ****         /* Exit Critical Region*/
 148:Generated_Source\PSoC5/Timer.c ****         CyExitCriticalSection(Timer_interruptState);
 149:Generated_Source\PSoC5/Timer.c **** 
 150:Generated_Source\PSoC5/Timer.c ****         #if (Timer_EnableTriggerMode)
 151:Generated_Source\PSoC5/Timer.c ****             Timer_EnableTrigger();
 152:Generated_Source\PSoC5/Timer.c ****         #endif /* Set Trigger enable bit for UDB implementation in the control register*/
 153:Generated_Source\PSoC5/Timer.c **** 		
 154:Generated_Source\PSoC5/Timer.c **** 		
 155:Generated_Source\PSoC5/Timer.c ****         #if (Timer_InterruptOnCaptureCount && !Timer_UDB_CONTROL_REG_REMOVED)
 156:Generated_Source\PSoC5/Timer.c ****             Timer_SetInterruptCount(Timer_INIT_INT_CAPTURE_COUNT);
 157:Generated_Source\PSoC5/Timer.c ****         #endif /* Set interrupt count in UDB implementation if interrupt count feature is checked.*
 158:Generated_Source\PSoC5/Timer.c **** 
 159:Generated_Source\PSoC5/Timer.c ****         Timer_ClearFIFO();
 160:Generated_Source\PSoC5/Timer.c ****     #endif /* Configure additional features of UDB implementation */
 161:Generated_Source\PSoC5/Timer.c **** 
 162:Generated_Source\PSoC5/Timer.c ****     Timer_SetInterruptMode(Timer_INIT_INTERRUPT_MODE);
 163:Generated_Source\PSoC5/Timer.c **** }
 164:Generated_Source\PSoC5/Timer.c **** 
 165:Generated_Source\PSoC5/Timer.c **** 
 166:Generated_Source\PSoC5/Timer.c **** /*******************************************************************************
 167:Generated_Source\PSoC5/Timer.c **** * Function Name: Timer_Enable
 168:Generated_Source\PSoC5/Timer.c **** ********************************************************************************
 169:Generated_Source\PSoC5/Timer.c **** *
 170:Generated_Source\PSoC5/Timer.c **** * Summary:
 171:Generated_Source\PSoC5/Timer.c **** *  Enable the Timer
 172:Generated_Source\PSoC5/Timer.c **** *
 173:Generated_Source\PSoC5/Timer.c **** * Parameters:
 174:Generated_Source\PSoC5/Timer.c **** *  void
 175:Generated_Source\PSoC5/Timer.c **** *
 176:Generated_Source\PSoC5/Timer.c **** * Return:
 177:Generated_Source\PSoC5/Timer.c **** *  void
 178:Generated_Source\PSoC5/Timer.c **** *
 179:Generated_Source\PSoC5/Timer.c **** *******************************************************************************/
 180:Generated_Source\PSoC5/Timer.c **** void Timer_Enable(void) 
 181:Generated_Source\PSoC5/Timer.c **** {
  28              		.loc 1 181 0
  29              		.cfi_startproc
  30              		@ args = 0, pretend = 0, frame = 0
  31              		@ frame_needed = 0, uses_anonymous_args = 0
  32              		@ link register save eliminated.
 182:Generated_Source\PSoC5/Timer.c ****     /* Globally Enable the Fixed Function Block chosen */
 183:Generated_Source\PSoC5/Timer.c ****     #if (Timer_UsingFixedFunction)
 184:Generated_Source\PSoC5/Timer.c ****         Timer_GLOBAL_ENABLE |= Timer_BLOCK_EN_MASK;
 185:Generated_Source\PSoC5/Timer.c ****         Timer_GLOBAL_STBY_ENABLE |= Timer_BLOCK_STBY_EN_MASK;
 186:Generated_Source\PSoC5/Timer.c ****     #endif /* Set Enable bit for enabling Fixed function timer*/
 187:Generated_Source\PSoC5/Timer.c **** 
 188:Generated_Source\PSoC5/Timer.c ****     /* Remove assignment if control register is removed */
 189:Generated_Source\PSoC5/Timer.c ****     #if (!Timer_UDB_CONTROL_REG_REMOVED || Timer_UsingFixedFunction)
 190:Generated_Source\PSoC5/Timer.c ****         Timer_CONTROL |= Timer_CTRL_ENABLE;
  33              		.loc 1 190 0
  34 0000 024A     		ldr	r2, .L2
  35 0002 1378     		ldrb	r3, [r2]	@ zero_extendqisi2
  36 0004 43F08003 		orr	r3, r3, #128
  37 0008 1370     		strb	r3, [r2]
  38 000a 7047     		bx	lr
ARM GAS  C:\Users\DGILLI~1\AppData\Local\Temp\ccYSqyeP.s 			page 5


  39              	.L3:
  40              		.align	2
  41              	.L2:
  42 000c 71640040 		.word	1073767537
  43              		.cfi_endproc
  44              	.LFE1:
  45              		.size	Timer_Enable, .-Timer_Enable
  46              		.section	.text.Timer_Stop,"ax",%progbits
  47              		.align	2
  48              		.global	Timer_Stop
  49              		.thumb
  50              		.thumb_func
  51              		.type	Timer_Stop, %function
  52              	Timer_Stop:
  53              	.LFB3:
 191:Generated_Source\PSoC5/Timer.c ****     #endif /* Remove assignment if control register is removed */
 192:Generated_Source\PSoC5/Timer.c **** }
 193:Generated_Source\PSoC5/Timer.c **** 
 194:Generated_Source\PSoC5/Timer.c **** 
 195:Generated_Source\PSoC5/Timer.c **** /*******************************************************************************
 196:Generated_Source\PSoC5/Timer.c **** * Function Name: Timer_Start
 197:Generated_Source\PSoC5/Timer.c **** ********************************************************************************
 198:Generated_Source\PSoC5/Timer.c **** *
 199:Generated_Source\PSoC5/Timer.c **** * Summary:
 200:Generated_Source\PSoC5/Timer.c **** *  The start function initializes the timer with the default values, the
 201:Generated_Source\PSoC5/Timer.c **** *  enables the timerto begin counting.  It does not enable interrupts,
 202:Generated_Source\PSoC5/Timer.c **** *  the EnableInt command should be called if interrupt generation is required.
 203:Generated_Source\PSoC5/Timer.c **** *
 204:Generated_Source\PSoC5/Timer.c **** * Parameters:
 205:Generated_Source\PSoC5/Timer.c **** *  void
 206:Generated_Source\PSoC5/Timer.c **** *
 207:Generated_Source\PSoC5/Timer.c **** * Return:
 208:Generated_Source\PSoC5/Timer.c **** *  void
 209:Generated_Source\PSoC5/Timer.c **** *
 210:Generated_Source\PSoC5/Timer.c **** * Global variables:
 211:Generated_Source\PSoC5/Timer.c **** *  Timer_initVar: Is modified when this function is called for the
 212:Generated_Source\PSoC5/Timer.c **** *   first time. Is used to ensure that initialization happens only once.
 213:Generated_Source\PSoC5/Timer.c **** *
 214:Generated_Source\PSoC5/Timer.c **** *******************************************************************************/
 215:Generated_Source\PSoC5/Timer.c **** void Timer_Start(void) 
 216:Generated_Source\PSoC5/Timer.c **** {
 217:Generated_Source\PSoC5/Timer.c ****     if(Timer_initVar == 0u)
 218:Generated_Source\PSoC5/Timer.c ****     {
 219:Generated_Source\PSoC5/Timer.c ****         Timer_Init();
 220:Generated_Source\PSoC5/Timer.c **** 
 221:Generated_Source\PSoC5/Timer.c ****         Timer_initVar = 1u;   /* Clear this bit for Initialization */
 222:Generated_Source\PSoC5/Timer.c ****     }
 223:Generated_Source\PSoC5/Timer.c **** 
 224:Generated_Source\PSoC5/Timer.c ****     /* Enable the Timer */
 225:Generated_Source\PSoC5/Timer.c ****     Timer_Enable();
 226:Generated_Source\PSoC5/Timer.c **** }
 227:Generated_Source\PSoC5/Timer.c **** 
 228:Generated_Source\PSoC5/Timer.c **** 
 229:Generated_Source\PSoC5/Timer.c **** /*******************************************************************************
 230:Generated_Source\PSoC5/Timer.c **** * Function Name: Timer_Stop
 231:Generated_Source\PSoC5/Timer.c **** ********************************************************************************
 232:Generated_Source\PSoC5/Timer.c **** *
ARM GAS  C:\Users\DGILLI~1\AppData\Local\Temp\ccYSqyeP.s 			page 6


 233:Generated_Source\PSoC5/Timer.c **** * Summary:
 234:Generated_Source\PSoC5/Timer.c **** *  The stop function halts the timer, but does not change any modes or disable
 235:Generated_Source\PSoC5/Timer.c **** *  interrupts.
 236:Generated_Source\PSoC5/Timer.c **** *
 237:Generated_Source\PSoC5/Timer.c **** * Parameters:
 238:Generated_Source\PSoC5/Timer.c **** *  void
 239:Generated_Source\PSoC5/Timer.c **** *
 240:Generated_Source\PSoC5/Timer.c **** * Return:
 241:Generated_Source\PSoC5/Timer.c **** *  void
 242:Generated_Source\PSoC5/Timer.c **** *
 243:Generated_Source\PSoC5/Timer.c **** * Side Effects: If the Enable mode is set to Hardware only then this function
 244:Generated_Source\PSoC5/Timer.c **** *               has no effect on the operation of the timer.
 245:Generated_Source\PSoC5/Timer.c **** *
 246:Generated_Source\PSoC5/Timer.c **** *******************************************************************************/
 247:Generated_Source\PSoC5/Timer.c **** void Timer_Stop(void) 
 248:Generated_Source\PSoC5/Timer.c **** {
  54              		.loc 1 248 0
  55              		.cfi_startproc
  56              		@ args = 0, pretend = 0, frame = 0
  57              		@ frame_needed = 0, uses_anonymous_args = 0
  58              		@ link register save eliminated.
 249:Generated_Source\PSoC5/Timer.c ****     /* Disable Timer */
 250:Generated_Source\PSoC5/Timer.c ****     #if(!Timer_UDB_CONTROL_REG_REMOVED || Timer_UsingFixedFunction)
 251:Generated_Source\PSoC5/Timer.c ****         Timer_CONTROL &= ((uint8)(~Timer_CTRL_ENABLE));
  59              		.loc 1 251 0
  60 0000 024A     		ldr	r2, .L5
  61 0002 1378     		ldrb	r3, [r2]	@ zero_extendqisi2
  62 0004 03F07F03 		and	r3, r3, #127
  63 0008 1370     		strb	r3, [r2]
  64 000a 7047     		bx	lr
  65              	.L6:
  66              		.align	2
  67              	.L5:
  68 000c 71640040 		.word	1073767537
  69              		.cfi_endproc
  70              	.LFE3:
  71              		.size	Timer_Stop, .-Timer_Stop
  72              		.section	.text.Timer_SetInterruptMode,"ax",%progbits
  73              		.align	2
  74              		.global	Timer_SetInterruptMode
  75              		.thumb
  76              		.thumb_func
  77              		.type	Timer_SetInterruptMode, %function
  78              	Timer_SetInterruptMode:
  79              	.LFB4:
 252:Generated_Source\PSoC5/Timer.c ****     #endif /* Remove assignment if control register is removed */
 253:Generated_Source\PSoC5/Timer.c **** 
 254:Generated_Source\PSoC5/Timer.c ****     /* Globally disable the Fixed Function Block chosen */
 255:Generated_Source\PSoC5/Timer.c ****     #if (Timer_UsingFixedFunction)
 256:Generated_Source\PSoC5/Timer.c ****         Timer_GLOBAL_ENABLE &= ((uint8)(~Timer_BLOCK_EN_MASK));
 257:Generated_Source\PSoC5/Timer.c ****         Timer_GLOBAL_STBY_ENABLE &= ((uint8)(~Timer_BLOCK_STBY_EN_MASK));
 258:Generated_Source\PSoC5/Timer.c ****     #endif /* Disable global enable for the Timer Fixed function block to stop the Timer*/
 259:Generated_Source\PSoC5/Timer.c **** }
 260:Generated_Source\PSoC5/Timer.c **** 
 261:Generated_Source\PSoC5/Timer.c **** 
 262:Generated_Source\PSoC5/Timer.c **** /*******************************************************************************
 263:Generated_Source\PSoC5/Timer.c **** * Function Name: Timer_SetInterruptMode
ARM GAS  C:\Users\DGILLI~1\AppData\Local\Temp\ccYSqyeP.s 			page 7


 264:Generated_Source\PSoC5/Timer.c **** ********************************************************************************
 265:Generated_Source\PSoC5/Timer.c **** *
 266:Generated_Source\PSoC5/Timer.c **** * Summary:
 267:Generated_Source\PSoC5/Timer.c **** *  This function selects which of the interrupt inputs may cause an interrupt.
 268:Generated_Source\PSoC5/Timer.c **** *  The twosources are caputure and terminal.  One, both or neither may
 269:Generated_Source\PSoC5/Timer.c **** *  be selected.
 270:Generated_Source\PSoC5/Timer.c **** *
 271:Generated_Source\PSoC5/Timer.c **** * Parameters:
 272:Generated_Source\PSoC5/Timer.c **** *  interruptMode:   This parameter is used to enable interrups on either/or
 273:Generated_Source\PSoC5/Timer.c **** *                   terminal count or capture.
 274:Generated_Source\PSoC5/Timer.c **** *
 275:Generated_Source\PSoC5/Timer.c **** * Return:
 276:Generated_Source\PSoC5/Timer.c **** *  void
 277:Generated_Source\PSoC5/Timer.c **** *
 278:Generated_Source\PSoC5/Timer.c **** *******************************************************************************/
 279:Generated_Source\PSoC5/Timer.c **** void Timer_SetInterruptMode(uint8 interruptMode) 
 280:Generated_Source\PSoC5/Timer.c **** {
  80              		.loc 1 280 0
  81              		.cfi_startproc
  82              		@ args = 0, pretend = 0, frame = 0
  83              		@ frame_needed = 0, uses_anonymous_args = 0
  84              		@ link register save eliminated.
  85              	.LVL0:
 281:Generated_Source\PSoC5/Timer.c ****     Timer_STATUS_MASK = interruptMode;
  86              		.loc 1 281 0
  87 0000 014B     		ldr	r3, .L8
  88 0002 1870     		strb	r0, [r3]
  89 0004 7047     		bx	lr
  90              	.L9:
  91 0006 00BF     		.align	2
  92              	.L8:
  93 0008 81640040 		.word	1073767553
  94              		.cfi_endproc
  95              	.LFE4:
  96              		.size	Timer_SetInterruptMode, .-Timer_SetInterruptMode
  97              		.section	.text.Timer_SoftwareCapture,"ax",%progbits
  98              		.align	2
  99              		.global	Timer_SoftwareCapture
 100              		.thumb
 101              		.thumb_func
 102              		.type	Timer_SoftwareCapture, %function
 103              	Timer_SoftwareCapture:
 104              	.LFB5:
 282:Generated_Source\PSoC5/Timer.c **** }
 283:Generated_Source\PSoC5/Timer.c **** 
 284:Generated_Source\PSoC5/Timer.c **** 
 285:Generated_Source\PSoC5/Timer.c **** /*******************************************************************************
 286:Generated_Source\PSoC5/Timer.c **** * Function Name: Timer_SoftwareCapture
 287:Generated_Source\PSoC5/Timer.c **** ********************************************************************************
 288:Generated_Source\PSoC5/Timer.c **** *
 289:Generated_Source\PSoC5/Timer.c **** * Summary:
 290:Generated_Source\PSoC5/Timer.c **** *  This function forces a capture independent of the capture signal.
 291:Generated_Source\PSoC5/Timer.c **** *
 292:Generated_Source\PSoC5/Timer.c **** * Parameters:
 293:Generated_Source\PSoC5/Timer.c **** *  void
 294:Generated_Source\PSoC5/Timer.c **** *
 295:Generated_Source\PSoC5/Timer.c **** * Return:
ARM GAS  C:\Users\DGILLI~1\AppData\Local\Temp\ccYSqyeP.s 			page 8


 296:Generated_Source\PSoC5/Timer.c **** *  void
 297:Generated_Source\PSoC5/Timer.c **** *
 298:Generated_Source\PSoC5/Timer.c **** * Side Effects:
 299:Generated_Source\PSoC5/Timer.c **** *  An existing hardware capture could be overwritten.
 300:Generated_Source\PSoC5/Timer.c **** *
 301:Generated_Source\PSoC5/Timer.c **** *******************************************************************************/
 302:Generated_Source\PSoC5/Timer.c **** void Timer_SoftwareCapture(void) 
 303:Generated_Source\PSoC5/Timer.c **** {
 105              		.loc 1 303 0
 106              		.cfi_startproc
 107              		@ args = 0, pretend = 0, frame = 0
 108              		@ frame_needed = 0, uses_anonymous_args = 0
 109              		@ link register save eliminated.
 304:Generated_Source\PSoC5/Timer.c ****     /* Generate a software capture by reading the counter register */
 305:Generated_Source\PSoC5/Timer.c ****     #if(Timer_UsingFixedFunction)
 306:Generated_Source\PSoC5/Timer.c ****         (void)CY_GET_REG16(Timer_COUNTER_LSB_PTR);
 307:Generated_Source\PSoC5/Timer.c ****     #else
 308:Generated_Source\PSoC5/Timer.c ****         (void)CY_GET_REG8(Timer_COUNTER_LSB_PTR_8BIT);
 110              		.loc 1 308 0
 111 0000 014B     		ldr	r3, .L11
 112 0002 1B78     		ldrb	r3, [r3]	@ zero_extendqisi2
 113 0004 7047     		bx	lr
 114              	.L12:
 115 0006 00BF     		.align	2
 116              	.L11:
 117 0008 03640040 		.word	1073767427
 118              		.cfi_endproc
 119              	.LFE5:
 120              		.size	Timer_SoftwareCapture, .-Timer_SoftwareCapture
 121              		.section	.text.Timer_ReadStatusRegister,"ax",%progbits
 122              		.align	2
 123              		.global	Timer_ReadStatusRegister
 124              		.thumb
 125              		.thumb_func
 126              		.type	Timer_ReadStatusRegister, %function
 127              	Timer_ReadStatusRegister:
 128              	.LFB6:
 309:Generated_Source\PSoC5/Timer.c ****     #endif/* (Timer_UsingFixedFunction) */
 310:Generated_Source\PSoC5/Timer.c ****     /* Capture Data is now in the FIFO */
 311:Generated_Source\PSoC5/Timer.c **** }
 312:Generated_Source\PSoC5/Timer.c **** 
 313:Generated_Source\PSoC5/Timer.c **** 
 314:Generated_Source\PSoC5/Timer.c **** /*******************************************************************************
 315:Generated_Source\PSoC5/Timer.c **** * Function Name: Timer_ReadStatusRegister
 316:Generated_Source\PSoC5/Timer.c **** ********************************************************************************
 317:Generated_Source\PSoC5/Timer.c **** *
 318:Generated_Source\PSoC5/Timer.c **** * Summary:
 319:Generated_Source\PSoC5/Timer.c **** *  Reads the status register and returns it's state. This function should use
 320:Generated_Source\PSoC5/Timer.c **** *  defined types for the bit-field information as the bits in this register may
 321:Generated_Source\PSoC5/Timer.c **** *  be permuteable.
 322:Generated_Source\PSoC5/Timer.c **** *
 323:Generated_Source\PSoC5/Timer.c **** * Parameters:
 324:Generated_Source\PSoC5/Timer.c **** *  void
 325:Generated_Source\PSoC5/Timer.c **** *
 326:Generated_Source\PSoC5/Timer.c **** * Return:
 327:Generated_Source\PSoC5/Timer.c **** *  The contents of the status register
 328:Generated_Source\PSoC5/Timer.c **** *
ARM GAS  C:\Users\DGILLI~1\AppData\Local\Temp\ccYSqyeP.s 			page 9


 329:Generated_Source\PSoC5/Timer.c **** * Side Effects:
 330:Generated_Source\PSoC5/Timer.c **** *  Status register bits may be clear on read.
 331:Generated_Source\PSoC5/Timer.c **** *
 332:Generated_Source\PSoC5/Timer.c **** *******************************************************************************/
 333:Generated_Source\PSoC5/Timer.c **** uint8   Timer_ReadStatusRegister(void) 
 334:Generated_Source\PSoC5/Timer.c **** {
 129              		.loc 1 334 0
 130              		.cfi_startproc
 131              		@ args = 0, pretend = 0, frame = 0
 132              		@ frame_needed = 0, uses_anonymous_args = 0
 133              		@ link register save eliminated.
 335:Generated_Source\PSoC5/Timer.c ****     return (Timer_STATUS);
 134              		.loc 1 335 0
 135 0000 014B     		ldr	r3, .L14
 136 0002 1878     		ldrb	r0, [r3]	@ zero_extendqisi2
 336:Generated_Source\PSoC5/Timer.c **** }
 137              		.loc 1 336 0
 138 0004 7047     		bx	lr
 139              	.L15:
 140 0006 00BF     		.align	2
 141              	.L14:
 142 0008 61640040 		.word	1073767521
 143              		.cfi_endproc
 144              	.LFE6:
 145              		.size	Timer_ReadStatusRegister, .-Timer_ReadStatusRegister
 146              		.section	.text.Timer_ReadControlRegister,"ax",%progbits
 147              		.align	2
 148              		.global	Timer_ReadControlRegister
 149              		.thumb
 150              		.thumb_func
 151              		.type	Timer_ReadControlRegister, %function
 152              	Timer_ReadControlRegister:
 153              	.LFB7:
 337:Generated_Source\PSoC5/Timer.c **** 
 338:Generated_Source\PSoC5/Timer.c **** 
 339:Generated_Source\PSoC5/Timer.c **** #if (!Timer_UDB_CONTROL_REG_REMOVED) /* Remove API if control register is unused */
 340:Generated_Source\PSoC5/Timer.c **** 
 341:Generated_Source\PSoC5/Timer.c **** 
 342:Generated_Source\PSoC5/Timer.c **** /*******************************************************************************
 343:Generated_Source\PSoC5/Timer.c **** * Function Name: Timer_ReadControlRegister
 344:Generated_Source\PSoC5/Timer.c **** ********************************************************************************
 345:Generated_Source\PSoC5/Timer.c **** *
 346:Generated_Source\PSoC5/Timer.c **** * Summary:
 347:Generated_Source\PSoC5/Timer.c **** *  Reads the control register and returns it's value.
 348:Generated_Source\PSoC5/Timer.c **** *
 349:Generated_Source\PSoC5/Timer.c **** * Parameters:
 350:Generated_Source\PSoC5/Timer.c **** *  void
 351:Generated_Source\PSoC5/Timer.c **** *
 352:Generated_Source\PSoC5/Timer.c **** * Return:
 353:Generated_Source\PSoC5/Timer.c **** *  The contents of the control register
 354:Generated_Source\PSoC5/Timer.c **** *
 355:Generated_Source\PSoC5/Timer.c **** *******************************************************************************/
 356:Generated_Source\PSoC5/Timer.c **** uint8 Timer_ReadControlRegister(void) 
 357:Generated_Source\PSoC5/Timer.c **** {
 154              		.loc 1 357 0
 155              		.cfi_startproc
 156              		@ args = 0, pretend = 0, frame = 0
ARM GAS  C:\Users\DGILLI~1\AppData\Local\Temp\ccYSqyeP.s 			page 10


 157              		@ frame_needed = 0, uses_anonymous_args = 0
 158              		@ link register save eliminated.
 358:Generated_Source\PSoC5/Timer.c ****     #if (!Timer_UDB_CONTROL_REG_REMOVED) 
 359:Generated_Source\PSoC5/Timer.c ****         return ((uint8)Timer_CONTROL);
 159              		.loc 1 359 0
 160 0000 014B     		ldr	r3, .L17
 161 0002 1878     		ldrb	r0, [r3]	@ zero_extendqisi2
 360:Generated_Source\PSoC5/Timer.c ****     #else
 361:Generated_Source\PSoC5/Timer.c ****         return (0);
 362:Generated_Source\PSoC5/Timer.c ****     #endif /* (!Timer_UDB_CONTROL_REG_REMOVED) */
 363:Generated_Source\PSoC5/Timer.c **** }
 162              		.loc 1 363 0
 163 0004 7047     		bx	lr
 164              	.L18:
 165 0006 00BF     		.align	2
 166              	.L17:
 167 0008 71640040 		.word	1073767537
 168              		.cfi_endproc
 169              	.LFE7:
 170              		.size	Timer_ReadControlRegister, .-Timer_ReadControlRegister
 171              		.section	.text.Timer_WriteControlRegister,"ax",%progbits
 172              		.align	2
 173              		.global	Timer_WriteControlRegister
 174              		.thumb
 175              		.thumb_func
 176              		.type	Timer_WriteControlRegister, %function
 177              	Timer_WriteControlRegister:
 178              	.LFB8:
 364:Generated_Source\PSoC5/Timer.c **** 
 365:Generated_Source\PSoC5/Timer.c **** 
 366:Generated_Source\PSoC5/Timer.c **** /*******************************************************************************
 367:Generated_Source\PSoC5/Timer.c **** * Function Name: Timer_WriteControlRegister
 368:Generated_Source\PSoC5/Timer.c **** ********************************************************************************
 369:Generated_Source\PSoC5/Timer.c **** *
 370:Generated_Source\PSoC5/Timer.c **** * Summary:
 371:Generated_Source\PSoC5/Timer.c **** *  Sets the bit-field of the control register.
 372:Generated_Source\PSoC5/Timer.c **** *
 373:Generated_Source\PSoC5/Timer.c **** * Parameters:
 374:Generated_Source\PSoC5/Timer.c **** *  control: The contents of the control register
 375:Generated_Source\PSoC5/Timer.c **** *
 376:Generated_Source\PSoC5/Timer.c **** * Return:
 377:Generated_Source\PSoC5/Timer.c **** *
 378:Generated_Source\PSoC5/Timer.c **** *******************************************************************************/
 379:Generated_Source\PSoC5/Timer.c **** void Timer_WriteControlRegister(uint8 control) 
 380:Generated_Source\PSoC5/Timer.c **** {
 179              		.loc 1 380 0
 180              		.cfi_startproc
 181              		@ args = 0, pretend = 0, frame = 0
 182              		@ frame_needed = 0, uses_anonymous_args = 0
 183              		@ link register save eliminated.
 184              	.LVL1:
 381:Generated_Source\PSoC5/Timer.c ****     #if (!Timer_UDB_CONTROL_REG_REMOVED) 
 382:Generated_Source\PSoC5/Timer.c ****         Timer_CONTROL = control;
 185              		.loc 1 382 0
 186 0000 014B     		ldr	r3, .L20
 187 0002 1870     		strb	r0, [r3]
 188 0004 7047     		bx	lr
ARM GAS  C:\Users\DGILLI~1\AppData\Local\Temp\ccYSqyeP.s 			page 11


 189              	.L21:
 190 0006 00BF     		.align	2
 191              	.L20:
 192 0008 71640040 		.word	1073767537
 193              		.cfi_endproc
 194              	.LFE8:
 195              		.size	Timer_WriteControlRegister, .-Timer_WriteControlRegister
 196              		.section	.text.Timer_ReadPeriod,"ax",%progbits
 197              		.align	2
 198              		.global	Timer_ReadPeriod
 199              		.thumb
 200              		.thumb_func
 201              		.type	Timer_ReadPeriod, %function
 202              	Timer_ReadPeriod:
 203              	.LFB9:
 383:Generated_Source\PSoC5/Timer.c ****     #else
 384:Generated_Source\PSoC5/Timer.c ****         control = 0u;
 385:Generated_Source\PSoC5/Timer.c ****     #endif /* (!Timer_UDB_CONTROL_REG_REMOVED) */
 386:Generated_Source\PSoC5/Timer.c **** }
 387:Generated_Source\PSoC5/Timer.c **** 
 388:Generated_Source\PSoC5/Timer.c **** #endif /* Remove API if control register is unused */
 389:Generated_Source\PSoC5/Timer.c **** 
 390:Generated_Source\PSoC5/Timer.c **** 
 391:Generated_Source\PSoC5/Timer.c **** /*******************************************************************************
 392:Generated_Source\PSoC5/Timer.c **** * Function Name: Timer_ReadPeriod
 393:Generated_Source\PSoC5/Timer.c **** ********************************************************************************
 394:Generated_Source\PSoC5/Timer.c **** *
 395:Generated_Source\PSoC5/Timer.c **** * Summary:
 396:Generated_Source\PSoC5/Timer.c **** *  This function returns the current value of the Period.
 397:Generated_Source\PSoC5/Timer.c **** *
 398:Generated_Source\PSoC5/Timer.c **** * Parameters:
 399:Generated_Source\PSoC5/Timer.c **** *  void
 400:Generated_Source\PSoC5/Timer.c **** *
 401:Generated_Source\PSoC5/Timer.c **** * Return:
 402:Generated_Source\PSoC5/Timer.c **** *  The present value of the counter.
 403:Generated_Source\PSoC5/Timer.c **** *
 404:Generated_Source\PSoC5/Timer.c **** *******************************************************************************/
 405:Generated_Source\PSoC5/Timer.c **** uint32 Timer_ReadPeriod(void) 
 406:Generated_Source\PSoC5/Timer.c **** {
 204              		.loc 1 406 0
 205              		.cfi_startproc
 206              		@ args = 0, pretend = 0, frame = 0
 207              		@ frame_needed = 0, uses_anonymous_args = 0
 208              		@ link register save eliminated.
 407:Generated_Source\PSoC5/Timer.c ****    #if(Timer_UsingFixedFunction)
 408:Generated_Source\PSoC5/Timer.c ****        return ((uint32)CY_GET_REG16(Timer_PERIOD_LSB_PTR));
 409:Generated_Source\PSoC5/Timer.c ****    #else
 410:Generated_Source\PSoC5/Timer.c ****        return (CY_GET_REG24(Timer_PERIOD_LSB_PTR));
 209              		.loc 1 410 0
 210 0000 024B     		ldr	r3, .L23
 211 0002 1868     		ldr	r0, [r3]	@ unaligned
 411:Generated_Source\PSoC5/Timer.c ****    #endif /* (Timer_UsingFixedFunction) */
 412:Generated_Source\PSoC5/Timer.c **** }
 212              		.loc 1 412 0
 213 0004 20F07F40 		bic	r0, r0, #-16777216
 214 0008 7047     		bx	lr
 215              	.L24:
ARM GAS  C:\Users\DGILLI~1\AppData\Local\Temp\ccYSqyeP.s 			page 12


 216 000a 00BF     		.align	2
 217              	.L23:
 218 000c 23640040 		.word	1073767459
 219              		.cfi_endproc
 220              	.LFE9:
 221              		.size	Timer_ReadPeriod, .-Timer_ReadPeriod
 222              		.section	.text.Timer_WritePeriod,"ax",%progbits
 223              		.align	2
 224              		.global	Timer_WritePeriod
 225              		.thumb
 226              		.thumb_func
 227              		.type	Timer_WritePeriod, %function
 228              	Timer_WritePeriod:
 229              	.LFB10:
 413:Generated_Source\PSoC5/Timer.c **** 
 414:Generated_Source\PSoC5/Timer.c **** 
 415:Generated_Source\PSoC5/Timer.c **** /*******************************************************************************
 416:Generated_Source\PSoC5/Timer.c **** * Function Name: Timer_WritePeriod
 417:Generated_Source\PSoC5/Timer.c **** ********************************************************************************
 418:Generated_Source\PSoC5/Timer.c **** *
 419:Generated_Source\PSoC5/Timer.c **** * Summary:
 420:Generated_Source\PSoC5/Timer.c **** *  This function is used to change the period of the counter.  The new period
 421:Generated_Source\PSoC5/Timer.c **** *  will be loaded the next time terminal count is detected.
 422:Generated_Source\PSoC5/Timer.c **** *
 423:Generated_Source\PSoC5/Timer.c **** * Parameters:
 424:Generated_Source\PSoC5/Timer.c **** *  period: This value may be between 1 and (2^Resolution)-1.  A value of 0 will
 425:Generated_Source\PSoC5/Timer.c **** *          result in the counter remaining at zero.
 426:Generated_Source\PSoC5/Timer.c **** *
 427:Generated_Source\PSoC5/Timer.c **** * Return:
 428:Generated_Source\PSoC5/Timer.c **** *  void
 429:Generated_Source\PSoC5/Timer.c **** *
 430:Generated_Source\PSoC5/Timer.c **** *******************************************************************************/
 431:Generated_Source\PSoC5/Timer.c **** void Timer_WritePeriod(uint32 period) 
 432:Generated_Source\PSoC5/Timer.c **** {
 230              		.loc 1 432 0
 231              		.cfi_startproc
 232              		@ args = 0, pretend = 0, frame = 0
 233              		@ frame_needed = 0, uses_anonymous_args = 0
 234              	.LVL2:
 235 0000 08B5     		push	{r3, lr}
 236              		.cfi_def_cfa_offset 8
 237              		.cfi_offset 3, -8
 238              		.cfi_offset 14, -4
 433:Generated_Source\PSoC5/Timer.c ****     #if(Timer_UsingFixedFunction)
 434:Generated_Source\PSoC5/Timer.c ****         uint16 period_temp = (uint16)period;
 435:Generated_Source\PSoC5/Timer.c ****         CY_SET_REG16(Timer_PERIOD_LSB_PTR, period_temp);
 436:Generated_Source\PSoC5/Timer.c ****     #else
 437:Generated_Source\PSoC5/Timer.c ****         CY_SET_REG24(Timer_PERIOD_LSB_PTR, period);
 239              		.loc 1 437 0
 240 0002 0146     		mov	r1, r0
 241 0004 0148     		ldr	r0, .L27
 242              	.LVL3:
 243 0006 FFF7FEFF 		bl	CySetReg24
 244              	.LVL4:
 245 000a 08BD     		pop	{r3, pc}
 246              	.L28:
 247              		.align	2
ARM GAS  C:\Users\DGILLI~1\AppData\Local\Temp\ccYSqyeP.s 			page 13


 248              	.L27:
 249 000c 23640040 		.word	1073767459
 250              		.cfi_endproc
 251              	.LFE10:
 252              		.size	Timer_WritePeriod, .-Timer_WritePeriod
 253              		.section	.text.Timer_ReadCapture,"ax",%progbits
 254              		.align	2
 255              		.global	Timer_ReadCapture
 256              		.thumb
 257              		.thumb_func
 258              		.type	Timer_ReadCapture, %function
 259              	Timer_ReadCapture:
 260              	.LFB11:
 438:Generated_Source\PSoC5/Timer.c ****     #endif /*Write Period value with appropriate resolution suffix depending on UDB or fixed functi
 439:Generated_Source\PSoC5/Timer.c **** }
 440:Generated_Source\PSoC5/Timer.c **** 
 441:Generated_Source\PSoC5/Timer.c **** 
 442:Generated_Source\PSoC5/Timer.c **** /*******************************************************************************
 443:Generated_Source\PSoC5/Timer.c **** * Function Name: Timer_ReadCapture
 444:Generated_Source\PSoC5/Timer.c **** ********************************************************************************
 445:Generated_Source\PSoC5/Timer.c **** *
 446:Generated_Source\PSoC5/Timer.c **** * Summary:
 447:Generated_Source\PSoC5/Timer.c **** *  This function returns the last value captured.
 448:Generated_Source\PSoC5/Timer.c **** *
 449:Generated_Source\PSoC5/Timer.c **** * Parameters:
 450:Generated_Source\PSoC5/Timer.c **** *  void
 451:Generated_Source\PSoC5/Timer.c **** *
 452:Generated_Source\PSoC5/Timer.c **** * Return:
 453:Generated_Source\PSoC5/Timer.c **** *  Present Capture value.
 454:Generated_Source\PSoC5/Timer.c **** *
 455:Generated_Source\PSoC5/Timer.c **** *******************************************************************************/
 456:Generated_Source\PSoC5/Timer.c **** uint32 Timer_ReadCapture(void) 
 457:Generated_Source\PSoC5/Timer.c **** {
 261              		.loc 1 457 0
 262              		.cfi_startproc
 263              		@ args = 0, pretend = 0, frame = 0
 264              		@ frame_needed = 0, uses_anonymous_args = 0
 265              		@ link register save eliminated.
 458:Generated_Source\PSoC5/Timer.c ****    #if(Timer_UsingFixedFunction)
 459:Generated_Source\PSoC5/Timer.c ****        return ((uint32)CY_GET_REG16(Timer_CAPTURE_LSB_PTR));
 460:Generated_Source\PSoC5/Timer.c ****    #else
 461:Generated_Source\PSoC5/Timer.c ****        return (CY_GET_REG24(Timer_CAPTURE_LSB_PTR));
 266              		.loc 1 461 0
 267 0000 024B     		ldr	r3, .L30
 268 0002 1868     		ldr	r0, [r3]	@ unaligned
 462:Generated_Source\PSoC5/Timer.c ****    #endif /* (Timer_UsingFixedFunction) */
 463:Generated_Source\PSoC5/Timer.c **** }
 269              		.loc 1 463 0
 270 0004 20F07F40 		bic	r0, r0, #-16777216
 271 0008 7047     		bx	lr
 272              	.L31:
 273 000a 00BF     		.align	2
 274              	.L30:
 275 000c 43640040 		.word	1073767491
 276              		.cfi_endproc
 277              	.LFE11:
 278              		.size	Timer_ReadCapture, .-Timer_ReadCapture
ARM GAS  C:\Users\DGILLI~1\AppData\Local\Temp\ccYSqyeP.s 			page 14


 279              		.section	.text.Timer_WriteCounter,"ax",%progbits
 280              		.align	2
 281              		.global	Timer_WriteCounter
 282              		.thumb
 283              		.thumb_func
 284              		.type	Timer_WriteCounter, %function
 285              	Timer_WriteCounter:
 286              	.LFB12:
 464:Generated_Source\PSoC5/Timer.c **** 
 465:Generated_Source\PSoC5/Timer.c **** 
 466:Generated_Source\PSoC5/Timer.c **** /*******************************************************************************
 467:Generated_Source\PSoC5/Timer.c **** * Function Name: Timer_WriteCounter
 468:Generated_Source\PSoC5/Timer.c **** ********************************************************************************
 469:Generated_Source\PSoC5/Timer.c **** *
 470:Generated_Source\PSoC5/Timer.c **** * Summary:
 471:Generated_Source\PSoC5/Timer.c **** *  This funtion is used to set the counter to a specific value
 472:Generated_Source\PSoC5/Timer.c **** *
 473:Generated_Source\PSoC5/Timer.c **** * Parameters:
 474:Generated_Source\PSoC5/Timer.c **** *  counter:  New counter value.
 475:Generated_Source\PSoC5/Timer.c **** *
 476:Generated_Source\PSoC5/Timer.c **** * Return:
 477:Generated_Source\PSoC5/Timer.c **** *  void
 478:Generated_Source\PSoC5/Timer.c **** *
 479:Generated_Source\PSoC5/Timer.c **** *******************************************************************************/
 480:Generated_Source\PSoC5/Timer.c **** void Timer_WriteCounter(uint32 counter) 
 481:Generated_Source\PSoC5/Timer.c **** {
 287              		.loc 1 481 0
 288              		.cfi_startproc
 289              		@ args = 0, pretend = 0, frame = 0
 290              		@ frame_needed = 0, uses_anonymous_args = 0
 291              	.LVL5:
 292 0000 08B5     		push	{r3, lr}
 293              		.cfi_def_cfa_offset 8
 294              		.cfi_offset 3, -8
 295              		.cfi_offset 14, -4
 482:Generated_Source\PSoC5/Timer.c ****    #if(Timer_UsingFixedFunction)
 483:Generated_Source\PSoC5/Timer.c ****         /* This functionality is removed until a FixedFunction HW update to
 484:Generated_Source\PSoC5/Timer.c ****          * allow this register to be written
 485:Generated_Source\PSoC5/Timer.c ****          */
 486:Generated_Source\PSoC5/Timer.c ****         CY_SET_REG16(Timer_COUNTER_LSB_PTR, (uint16)counter);
 487:Generated_Source\PSoC5/Timer.c ****         
 488:Generated_Source\PSoC5/Timer.c ****     #else
 489:Generated_Source\PSoC5/Timer.c ****         CY_SET_REG24(Timer_COUNTER_LSB_PTR, counter);
 296              		.loc 1 489 0
 297 0002 0146     		mov	r1, r0
 298 0004 0148     		ldr	r0, .L34
 299              	.LVL6:
 300 0006 FFF7FEFF 		bl	CySetReg24
 301              	.LVL7:
 302 000a 08BD     		pop	{r3, pc}
 303              	.L35:
 304              		.align	2
 305              	.L34:
 306 000c 03640040 		.word	1073767427
 307              		.cfi_endproc
 308              	.LFE12:
 309              		.size	Timer_WriteCounter, .-Timer_WriteCounter
ARM GAS  C:\Users\DGILLI~1\AppData\Local\Temp\ccYSqyeP.s 			page 15


 310              		.section	.text.Timer_ReadCounter,"ax",%progbits
 311              		.align	2
 312              		.global	Timer_ReadCounter
 313              		.thumb
 314              		.thumb_func
 315              		.type	Timer_ReadCounter, %function
 316              	Timer_ReadCounter:
 317              	.LFB13:
 490:Generated_Source\PSoC5/Timer.c ****     #endif /* Set Write Counter only for the UDB implementation (Write Counter not available in fix
 491:Generated_Source\PSoC5/Timer.c **** }
 492:Generated_Source\PSoC5/Timer.c **** 
 493:Generated_Source\PSoC5/Timer.c **** 
 494:Generated_Source\PSoC5/Timer.c **** /*******************************************************************************
 495:Generated_Source\PSoC5/Timer.c **** * Function Name: Timer_ReadCounter
 496:Generated_Source\PSoC5/Timer.c **** ********************************************************************************
 497:Generated_Source\PSoC5/Timer.c **** *
 498:Generated_Source\PSoC5/Timer.c **** * Summary:
 499:Generated_Source\PSoC5/Timer.c **** *  This function returns the current counter value.
 500:Generated_Source\PSoC5/Timer.c **** *
 501:Generated_Source\PSoC5/Timer.c **** * Parameters:
 502:Generated_Source\PSoC5/Timer.c **** *  void
 503:Generated_Source\PSoC5/Timer.c **** *
 504:Generated_Source\PSoC5/Timer.c **** * Return:
 505:Generated_Source\PSoC5/Timer.c **** *  Present compare value.
 506:Generated_Source\PSoC5/Timer.c **** *
 507:Generated_Source\PSoC5/Timer.c **** *******************************************************************************/
 508:Generated_Source\PSoC5/Timer.c **** uint32 Timer_ReadCounter(void) 
 509:Generated_Source\PSoC5/Timer.c **** {
 318              		.loc 1 509 0
 319              		.cfi_startproc
 320              		@ args = 0, pretend = 0, frame = 0
 321              		@ frame_needed = 0, uses_anonymous_args = 0
 322              		@ link register save eliminated.
 510:Generated_Source\PSoC5/Timer.c ****     /* Force capture by reading Accumulator */
 511:Generated_Source\PSoC5/Timer.c ****     /* Must first do a software capture to be able to read the counter */
 512:Generated_Source\PSoC5/Timer.c ****     /* It is up to the user code to make sure there isn't already captured data in the FIFO */
 513:Generated_Source\PSoC5/Timer.c ****     #if(Timer_UsingFixedFunction)
 514:Generated_Source\PSoC5/Timer.c ****         (void)CY_GET_REG16(Timer_COUNTER_LSB_PTR);
 515:Generated_Source\PSoC5/Timer.c ****     #else
 516:Generated_Source\PSoC5/Timer.c ****         (void)CY_GET_REG8(Timer_COUNTER_LSB_PTR_8BIT);
 323              		.loc 1 516 0
 324 0000 034B     		ldr	r3, .L37
 325 0002 1B78     		ldrb	r3, [r3]	@ zero_extendqisi2
 517:Generated_Source\PSoC5/Timer.c ****     #endif/* (Timer_UsingFixedFunction) */
 518:Generated_Source\PSoC5/Timer.c **** 
 519:Generated_Source\PSoC5/Timer.c ****     /* Read the data from the FIFO (or capture register for Fixed Function)*/
 520:Generated_Source\PSoC5/Timer.c ****     #if(Timer_UsingFixedFunction)
 521:Generated_Source\PSoC5/Timer.c ****         return ((uint32)CY_GET_REG16(Timer_CAPTURE_LSB_PTR));
 522:Generated_Source\PSoC5/Timer.c ****     #else
 523:Generated_Source\PSoC5/Timer.c ****         return (CY_GET_REG24(Timer_CAPTURE_LSB_PTR));
 326              		.loc 1 523 0
 327 0004 034B     		ldr	r3, .L37+4
 328 0006 1868     		ldr	r0, [r3]	@ unaligned
 524:Generated_Source\PSoC5/Timer.c ****     #endif /* (Timer_UsingFixedFunction) */
 525:Generated_Source\PSoC5/Timer.c **** }
 329              		.loc 1 525 0
 330 0008 20F07F40 		bic	r0, r0, #-16777216
ARM GAS  C:\Users\DGILLI~1\AppData\Local\Temp\ccYSqyeP.s 			page 16


 331 000c 7047     		bx	lr
 332              	.L38:
 333 000e 00BF     		.align	2
 334              	.L37:
 335 0010 03640040 		.word	1073767427
 336 0014 43640040 		.word	1073767491
 337              		.cfi_endproc
 338              	.LFE13:
 339              		.size	Timer_ReadCounter, .-Timer_ReadCounter
 340              		.section	.text.Timer_SetCaptureMode,"ax",%progbits
 341              		.align	2
 342              		.global	Timer_SetCaptureMode
 343              		.thumb
 344              		.thumb_func
 345              		.type	Timer_SetCaptureMode, %function
 346              	Timer_SetCaptureMode:
 347              	.LFB14:
 526:Generated_Source\PSoC5/Timer.c **** 
 527:Generated_Source\PSoC5/Timer.c **** 
 528:Generated_Source\PSoC5/Timer.c **** #if(!Timer_UsingFixedFunction) /* UDB Specific Functions */
 529:Generated_Source\PSoC5/Timer.c **** 
 530:Generated_Source\PSoC5/Timer.c ****     
 531:Generated_Source\PSoC5/Timer.c **** /*******************************************************************************
 532:Generated_Source\PSoC5/Timer.c ****  * The functions below this point are only available using the UDB
 533:Generated_Source\PSoC5/Timer.c ****  * implementation.  If a feature is selected, then the API is enabled.
 534:Generated_Source\PSoC5/Timer.c ****  ******************************************************************************/
 535:Generated_Source\PSoC5/Timer.c **** 
 536:Generated_Source\PSoC5/Timer.c **** 
 537:Generated_Source\PSoC5/Timer.c **** #if (Timer_SoftwareCaptureMode)
 538:Generated_Source\PSoC5/Timer.c **** 
 539:Generated_Source\PSoC5/Timer.c **** 
 540:Generated_Source\PSoC5/Timer.c **** /*******************************************************************************
 541:Generated_Source\PSoC5/Timer.c **** * Function Name: Timer_SetCaptureMode
 542:Generated_Source\PSoC5/Timer.c **** ********************************************************************************
 543:Generated_Source\PSoC5/Timer.c **** *
 544:Generated_Source\PSoC5/Timer.c **** * Summary:
 545:Generated_Source\PSoC5/Timer.c **** *  This function sets the capture mode to either rising or falling edge.
 546:Generated_Source\PSoC5/Timer.c **** *
 547:Generated_Source\PSoC5/Timer.c **** * Parameters:
 548:Generated_Source\PSoC5/Timer.c **** *  captureMode: This parameter sets the capture mode of the UDB capture feature
 549:Generated_Source\PSoC5/Timer.c **** *  The parameter values are defined using the
 550:Generated_Source\PSoC5/Timer.c **** *  #define Timer__B_TIMER__CM_NONE 0
 551:Generated_Source\PSoC5/Timer.c **** #define Timer__B_TIMER__CM_RISINGEDGE 1
 552:Generated_Source\PSoC5/Timer.c **** #define Timer__B_TIMER__CM_FALLINGEDGE 2
 553:Generated_Source\PSoC5/Timer.c **** #define Timer__B_TIMER__CM_EITHEREDGE 3
 554:Generated_Source\PSoC5/Timer.c **** #define Timer__B_TIMER__CM_SOFTWARE 4
 555:Generated_Source\PSoC5/Timer.c ****  identifiers
 556:Generated_Source\PSoC5/Timer.c **** *  The following are the possible values of the parameter
 557:Generated_Source\PSoC5/Timer.c **** *  Timer__B_TIMER__CM_NONE        - Set Capture mode to None
 558:Generated_Source\PSoC5/Timer.c **** *  Timer__B_TIMER__CM_RISINGEDGE  - Rising edge of Capture input
 559:Generated_Source\PSoC5/Timer.c **** *  Timer__B_TIMER__CM_FALLINGEDGE - Falling edge of Capture input
 560:Generated_Source\PSoC5/Timer.c **** *  Timer__B_TIMER__CM_EITHEREDGE  - Either edge of Capture input
 561:Generated_Source\PSoC5/Timer.c **** *
 562:Generated_Source\PSoC5/Timer.c **** * Return:
 563:Generated_Source\PSoC5/Timer.c **** *  void
 564:Generated_Source\PSoC5/Timer.c **** *
 565:Generated_Source\PSoC5/Timer.c **** *******************************************************************************/
ARM GAS  C:\Users\DGILLI~1\AppData\Local\Temp\ccYSqyeP.s 			page 17


 566:Generated_Source\PSoC5/Timer.c **** void Timer_SetCaptureMode(uint8 captureMode) 
 567:Generated_Source\PSoC5/Timer.c **** {
 348              		.loc 1 567 0
 349              		.cfi_startproc
 350              		@ args = 0, pretend = 0, frame = 0
 351              		@ frame_needed = 0, uses_anonymous_args = 0
 352              		@ link register save eliminated.
 353              	.LVL8:
 568:Generated_Source\PSoC5/Timer.c ****     /* This must only set to two bits of the control register associated */
 569:Generated_Source\PSoC5/Timer.c ****     captureMode = ((uint8)((uint8)captureMode << Timer_CTRL_CAP_MODE_SHIFT));
 354              		.loc 1 569 0
 355 0000 4001     		lsls	r0, r0, #5
 356              	.LVL9:
 570:Generated_Source\PSoC5/Timer.c ****     captureMode &= (Timer_CTRL_CAP_MODE_MASK);
 357              		.loc 1 570 0
 358 0002 00F06000 		and	r0, r0, #96
 359              	.LVL10:
 571:Generated_Source\PSoC5/Timer.c **** 
 572:Generated_Source\PSoC5/Timer.c ****     #if (!Timer_UDB_CONTROL_REG_REMOVED)
 573:Generated_Source\PSoC5/Timer.c ****         /* Clear the Current Setting */
 574:Generated_Source\PSoC5/Timer.c ****         Timer_CONTROL &= ((uint8)(~Timer_CTRL_CAP_MODE_MASK));
 360              		.loc 1 574 0
 361 0006 044B     		ldr	r3, .L40
 362 0008 1A78     		ldrb	r2, [r3]	@ zero_extendqisi2
 363 000a 02F09F02 		and	r2, r2, #159
 364 000e 1A70     		strb	r2, [r3]
 575:Generated_Source\PSoC5/Timer.c **** 
 576:Generated_Source\PSoC5/Timer.c ****         /* Write The New Setting */
 577:Generated_Source\PSoC5/Timer.c ****         Timer_CONTROL |= captureMode;
 365              		.loc 1 577 0
 366 0010 1A78     		ldrb	r2, [r3]	@ zero_extendqisi2
 367 0012 1043     		orrs	r0, r0, r2
 368              	.LVL11:
 369 0014 1870     		strb	r0, [r3]
 370 0016 7047     		bx	lr
 371              	.L41:
 372              		.align	2
 373              	.L40:
 374 0018 71640040 		.word	1073767537
 375              		.cfi_endproc
 376              	.LFE14:
 377              		.size	Timer_SetCaptureMode, .-Timer_SetCaptureMode
 378              		.section	.text.Timer_SetTriggerMode,"ax",%progbits
 379              		.align	2
 380              		.global	Timer_SetTriggerMode
 381              		.thumb
 382              		.thumb_func
 383              		.type	Timer_SetTriggerMode, %function
 384              	Timer_SetTriggerMode:
 385              	.LFB15:
 578:Generated_Source\PSoC5/Timer.c ****     #endif /* (!Timer_UDB_CONTROL_REG_REMOVED) */
 579:Generated_Source\PSoC5/Timer.c **** }
 580:Generated_Source\PSoC5/Timer.c **** #endif /* Remove API if Capture Mode is not Software Controlled */
 581:Generated_Source\PSoC5/Timer.c **** 
 582:Generated_Source\PSoC5/Timer.c **** 
 583:Generated_Source\PSoC5/Timer.c **** #if (Timer_SoftwareTriggerMode)
 584:Generated_Source\PSoC5/Timer.c **** 
ARM GAS  C:\Users\DGILLI~1\AppData\Local\Temp\ccYSqyeP.s 			page 18


 585:Generated_Source\PSoC5/Timer.c **** 
 586:Generated_Source\PSoC5/Timer.c **** /*******************************************************************************
 587:Generated_Source\PSoC5/Timer.c **** * Function Name: Timer_SetTriggerMode
 588:Generated_Source\PSoC5/Timer.c **** ********************************************************************************
 589:Generated_Source\PSoC5/Timer.c **** *
 590:Generated_Source\PSoC5/Timer.c **** * Summary:
 591:Generated_Source\PSoC5/Timer.c **** *  This function sets the trigger input mode
 592:Generated_Source\PSoC5/Timer.c **** *
 593:Generated_Source\PSoC5/Timer.c **** * Parameters:
 594:Generated_Source\PSoC5/Timer.c **** *  triggerMode: Pass one of the pre-defined Trigger Modes (except Software)
 595:Generated_Source\PSoC5/Timer.c ****     #define Timer__B_TIMER__TM_NONE 0x00u
 596:Generated_Source\PSoC5/Timer.c ****     #define Timer__B_TIMER__TM_RISINGEDGE 0x04u
 597:Generated_Source\PSoC5/Timer.c ****     #define Timer__B_TIMER__TM_FALLINGEDGE 0x08u
 598:Generated_Source\PSoC5/Timer.c ****     #define Timer__B_TIMER__TM_EITHEREDGE 0x0Cu
 599:Generated_Source\PSoC5/Timer.c ****     #define Timer__B_TIMER__TM_SOFTWARE 0x10u
 600:Generated_Source\PSoC5/Timer.c **** *
 601:Generated_Source\PSoC5/Timer.c **** * Return:
 602:Generated_Source\PSoC5/Timer.c **** *  void
 603:Generated_Source\PSoC5/Timer.c **** *
 604:Generated_Source\PSoC5/Timer.c **** *******************************************************************************/
 605:Generated_Source\PSoC5/Timer.c **** void Timer_SetTriggerMode(uint8 triggerMode) 
 606:Generated_Source\PSoC5/Timer.c **** {
 386              		.loc 1 606 0
 387              		.cfi_startproc
 388              		@ args = 0, pretend = 0, frame = 0
 389              		@ frame_needed = 0, uses_anonymous_args = 0
 390              		@ link register save eliminated.
 391              	.LVL12:
 607:Generated_Source\PSoC5/Timer.c ****     /* This must only set to two bits of the control register associated */
 608:Generated_Source\PSoC5/Timer.c ****     triggerMode &= Timer_CTRL_TRIG_MODE_MASK;
 392              		.loc 1 608 0
 393 0000 00F00C00 		and	r0, r0, #12
 394              	.LVL13:
 609:Generated_Source\PSoC5/Timer.c **** 
 610:Generated_Source\PSoC5/Timer.c ****     #if (!Timer_UDB_CONTROL_REG_REMOVED)   /* Remove assignment if control register is removed */
 611:Generated_Source\PSoC5/Timer.c ****     
 612:Generated_Source\PSoC5/Timer.c ****         /* Clear the Current Setting */
 613:Generated_Source\PSoC5/Timer.c ****         Timer_CONTROL &= ((uint8)(~Timer_CTRL_TRIG_MODE_MASK));
 395              		.loc 1 613 0
 396 0004 054B     		ldr	r3, .L43
 397 0006 1A78     		ldrb	r2, [r3]	@ zero_extendqisi2
 398 0008 02F0F302 		and	r2, r2, #243
 399 000c 1A70     		strb	r2, [r3]
 614:Generated_Source\PSoC5/Timer.c **** 
 615:Generated_Source\PSoC5/Timer.c ****         /* Write The New Setting */
 616:Generated_Source\PSoC5/Timer.c ****         Timer_CONTROL |= (triggerMode | Timer__B_TIMER__TM_SOFTWARE);
 400              		.loc 1 616 0
 401 000e 1A78     		ldrb	r2, [r3]	@ zero_extendqisi2
 402 0010 1043     		orrs	r0, r0, r2
 403              	.LVL14:
 404 0012 40F01000 		orr	r0, r0, #16
 405 0016 1870     		strb	r0, [r3]
 406 0018 7047     		bx	lr
 407              	.L44:
 408 001a 00BF     		.align	2
 409              	.L43:
 410 001c 71640040 		.word	1073767537
ARM GAS  C:\Users\DGILLI~1\AppData\Local\Temp\ccYSqyeP.s 			page 19


 411              		.cfi_endproc
 412              	.LFE15:
 413              		.size	Timer_SetTriggerMode, .-Timer_SetTriggerMode
 414              		.section	.text.Timer_EnableTrigger,"ax",%progbits
 415              		.align	2
 416              		.global	Timer_EnableTrigger
 417              		.thumb
 418              		.thumb_func
 419              		.type	Timer_EnableTrigger, %function
 420              	Timer_EnableTrigger:
 421              	.LFB16:
 617:Generated_Source\PSoC5/Timer.c ****     #endif /* Remove code section if control register is not used */
 618:Generated_Source\PSoC5/Timer.c **** }
 619:Generated_Source\PSoC5/Timer.c **** #endif /* Remove API if Trigger Mode is not Software Controlled */
 620:Generated_Source\PSoC5/Timer.c **** 
 621:Generated_Source\PSoC5/Timer.c **** #if (Timer_EnableTriggerMode)
 622:Generated_Source\PSoC5/Timer.c **** 
 623:Generated_Source\PSoC5/Timer.c **** 
 624:Generated_Source\PSoC5/Timer.c **** /*******************************************************************************
 625:Generated_Source\PSoC5/Timer.c **** * Function Name: Timer_EnableTrigger
 626:Generated_Source\PSoC5/Timer.c **** ********************************************************************************
 627:Generated_Source\PSoC5/Timer.c **** *
 628:Generated_Source\PSoC5/Timer.c **** * Summary:
 629:Generated_Source\PSoC5/Timer.c **** *  Sets the control bit enabling Hardware Trigger mode
 630:Generated_Source\PSoC5/Timer.c **** *
 631:Generated_Source\PSoC5/Timer.c **** * Parameters:
 632:Generated_Source\PSoC5/Timer.c **** *  void
 633:Generated_Source\PSoC5/Timer.c **** *
 634:Generated_Source\PSoC5/Timer.c **** * Return:
 635:Generated_Source\PSoC5/Timer.c **** *  void
 636:Generated_Source\PSoC5/Timer.c **** *
 637:Generated_Source\PSoC5/Timer.c **** *******************************************************************************/
 638:Generated_Source\PSoC5/Timer.c **** void Timer_EnableTrigger(void) 
 639:Generated_Source\PSoC5/Timer.c **** {
 422              		.loc 1 639 0
 423              		.cfi_startproc
 424              		@ args = 0, pretend = 0, frame = 0
 425              		@ frame_needed = 0, uses_anonymous_args = 0
 426              		@ link register save eliminated.
 640:Generated_Source\PSoC5/Timer.c ****     #if (!Timer_UDB_CONTROL_REG_REMOVED)   /* Remove assignment if control register is removed */
 641:Generated_Source\PSoC5/Timer.c ****         Timer_CONTROL |= Timer_CTRL_TRIG_EN;
 427              		.loc 1 641 0
 428 0000 024A     		ldr	r2, .L46
 429 0002 1378     		ldrb	r3, [r2]	@ zero_extendqisi2
 430 0004 43F01003 		orr	r3, r3, #16
 431 0008 1370     		strb	r3, [r2]
 432 000a 7047     		bx	lr
 433              	.L47:
 434              		.align	2
 435              	.L46:
 436 000c 71640040 		.word	1073767537
 437              		.cfi_endproc
 438              	.LFE16:
 439              		.size	Timer_EnableTrigger, .-Timer_EnableTrigger
 440              		.section	.text.Timer_DisableTrigger,"ax",%progbits
 441              		.align	2
 442              		.global	Timer_DisableTrigger
ARM GAS  C:\Users\DGILLI~1\AppData\Local\Temp\ccYSqyeP.s 			page 20


 443              		.thumb
 444              		.thumb_func
 445              		.type	Timer_DisableTrigger, %function
 446              	Timer_DisableTrigger:
 447              	.LFB17:
 642:Generated_Source\PSoC5/Timer.c ****     #endif /* Remove code section if control register is not used */
 643:Generated_Source\PSoC5/Timer.c **** }
 644:Generated_Source\PSoC5/Timer.c **** 
 645:Generated_Source\PSoC5/Timer.c **** 
 646:Generated_Source\PSoC5/Timer.c **** /*******************************************************************************
 647:Generated_Source\PSoC5/Timer.c **** * Function Name: Timer_DisableTrigger
 648:Generated_Source\PSoC5/Timer.c **** ********************************************************************************
 649:Generated_Source\PSoC5/Timer.c **** *
 650:Generated_Source\PSoC5/Timer.c **** * Summary:
 651:Generated_Source\PSoC5/Timer.c **** *  Clears the control bit enabling Hardware Trigger mode
 652:Generated_Source\PSoC5/Timer.c **** *
 653:Generated_Source\PSoC5/Timer.c **** * Parameters:
 654:Generated_Source\PSoC5/Timer.c **** *  void
 655:Generated_Source\PSoC5/Timer.c **** *
 656:Generated_Source\PSoC5/Timer.c **** * Return:
 657:Generated_Source\PSoC5/Timer.c **** *  void
 658:Generated_Source\PSoC5/Timer.c **** *
 659:Generated_Source\PSoC5/Timer.c **** *******************************************************************************/
 660:Generated_Source\PSoC5/Timer.c **** void Timer_DisableTrigger(void) 
 661:Generated_Source\PSoC5/Timer.c **** {
 448              		.loc 1 661 0
 449              		.cfi_startproc
 450              		@ args = 0, pretend = 0, frame = 0
 451              		@ frame_needed = 0, uses_anonymous_args = 0
 452              		@ link register save eliminated.
 662:Generated_Source\PSoC5/Timer.c ****     #if (!Timer_UDB_CONTROL_REG_REMOVED )   /* Remove assignment if control register is removed */
 663:Generated_Source\PSoC5/Timer.c ****         Timer_CONTROL &= ((uint8)(~Timer_CTRL_TRIG_EN));
 453              		.loc 1 663 0
 454 0000 024A     		ldr	r2, .L49
 455 0002 1378     		ldrb	r3, [r2]	@ zero_extendqisi2
 456 0004 03F0EF03 		and	r3, r3, #239
 457 0008 1370     		strb	r3, [r2]
 458 000a 7047     		bx	lr
 459              	.L50:
 460              		.align	2
 461              	.L49:
 462 000c 71640040 		.word	1073767537
 463              		.cfi_endproc
 464              	.LFE17:
 465              		.size	Timer_DisableTrigger, .-Timer_DisableTrigger
 466              		.section	.text.Timer_ClearFIFO,"ax",%progbits
 467              		.align	2
 468              		.global	Timer_ClearFIFO
 469              		.thumb
 470              		.thumb_func
 471              		.type	Timer_ClearFIFO, %function
 472              	Timer_ClearFIFO:
 473              	.LFB18:
 664:Generated_Source\PSoC5/Timer.c ****     #endif /* Remove code section if control register is not used */
 665:Generated_Source\PSoC5/Timer.c **** }
 666:Generated_Source\PSoC5/Timer.c **** #endif /* Remove API is Trigger Mode is set to None */
 667:Generated_Source\PSoC5/Timer.c **** 
ARM GAS  C:\Users\DGILLI~1\AppData\Local\Temp\ccYSqyeP.s 			page 21


 668:Generated_Source\PSoC5/Timer.c **** #if(Timer_InterruptOnCaptureCount)
 669:Generated_Source\PSoC5/Timer.c **** 
 670:Generated_Source\PSoC5/Timer.c **** 
 671:Generated_Source\PSoC5/Timer.c **** /*******************************************************************************
 672:Generated_Source\PSoC5/Timer.c **** * Function Name: Timer_SetInterruptCount
 673:Generated_Source\PSoC5/Timer.c **** ********************************************************************************
 674:Generated_Source\PSoC5/Timer.c **** *
 675:Generated_Source\PSoC5/Timer.c **** * Summary:
 676:Generated_Source\PSoC5/Timer.c **** *  This function sets the capture count before an interrupt is triggered.
 677:Generated_Source\PSoC5/Timer.c **** *
 678:Generated_Source\PSoC5/Timer.c **** * Parameters:
 679:Generated_Source\PSoC5/Timer.c **** *  interruptCount:  A value between 0 and 3 is valid.  If the value is 0, then
 680:Generated_Source\PSoC5/Timer.c **** *                   an interrupt will occur each time a capture occurs.
 681:Generated_Source\PSoC5/Timer.c **** *                   A value of 1 to 3 will cause the interrupt
 682:Generated_Source\PSoC5/Timer.c **** *                   to delay by the same number of captures.
 683:Generated_Source\PSoC5/Timer.c **** *
 684:Generated_Source\PSoC5/Timer.c **** * Return:
 685:Generated_Source\PSoC5/Timer.c **** *  void
 686:Generated_Source\PSoC5/Timer.c **** *
 687:Generated_Source\PSoC5/Timer.c **** *******************************************************************************/
 688:Generated_Source\PSoC5/Timer.c **** void Timer_SetInterruptCount(uint8 interruptCount) 
 689:Generated_Source\PSoC5/Timer.c **** {
 690:Generated_Source\PSoC5/Timer.c ****     /* This must only set to two bits of the control register associated */
 691:Generated_Source\PSoC5/Timer.c ****     interruptCount &= Timer_CTRL_INTCNT_MASK;
 692:Generated_Source\PSoC5/Timer.c **** 
 693:Generated_Source\PSoC5/Timer.c ****     #if (!Timer_UDB_CONTROL_REG_REMOVED)
 694:Generated_Source\PSoC5/Timer.c ****         /* Clear the Current Setting */
 695:Generated_Source\PSoC5/Timer.c ****         Timer_CONTROL &= ((uint8)(~Timer_CTRL_INTCNT_MASK));
 696:Generated_Source\PSoC5/Timer.c ****         /* Write The New Setting */
 697:Generated_Source\PSoC5/Timer.c ****         Timer_CONTROL |= interruptCount;
 698:Generated_Source\PSoC5/Timer.c ****     #endif /* (!Timer_UDB_CONTROL_REG_REMOVED) */
 699:Generated_Source\PSoC5/Timer.c **** }
 700:Generated_Source\PSoC5/Timer.c **** #endif /* Timer_InterruptOnCaptureCount */
 701:Generated_Source\PSoC5/Timer.c **** 
 702:Generated_Source\PSoC5/Timer.c **** 
 703:Generated_Source\PSoC5/Timer.c **** #if (Timer_UsingHWCaptureCounter)
 704:Generated_Source\PSoC5/Timer.c **** 
 705:Generated_Source\PSoC5/Timer.c **** 
 706:Generated_Source\PSoC5/Timer.c **** /*******************************************************************************
 707:Generated_Source\PSoC5/Timer.c **** * Function Name: Timer_SetCaptureCount
 708:Generated_Source\PSoC5/Timer.c **** ********************************************************************************
 709:Generated_Source\PSoC5/Timer.c **** *
 710:Generated_Source\PSoC5/Timer.c **** * Summary:
 711:Generated_Source\PSoC5/Timer.c **** *  This function sets the capture count
 712:Generated_Source\PSoC5/Timer.c **** *
 713:Generated_Source\PSoC5/Timer.c **** * Parameters:
 714:Generated_Source\PSoC5/Timer.c **** *  captureCount: A value between 2 and 127 inclusive is valid.  A value of 1
 715:Generated_Source\PSoC5/Timer.c **** *                to 127 will cause the interrupt to delay by the same number of
 716:Generated_Source\PSoC5/Timer.c **** *                captures.
 717:Generated_Source\PSoC5/Timer.c **** *
 718:Generated_Source\PSoC5/Timer.c **** * Return:
 719:Generated_Source\PSoC5/Timer.c **** *  void
 720:Generated_Source\PSoC5/Timer.c **** *
 721:Generated_Source\PSoC5/Timer.c **** *******************************************************************************/
 722:Generated_Source\PSoC5/Timer.c **** void Timer_SetCaptureCount(uint8 captureCount) 
 723:Generated_Source\PSoC5/Timer.c **** {
 724:Generated_Source\PSoC5/Timer.c ****     Timer_CAP_COUNT = captureCount;
ARM GAS  C:\Users\DGILLI~1\AppData\Local\Temp\ccYSqyeP.s 			page 22


 725:Generated_Source\PSoC5/Timer.c **** }
 726:Generated_Source\PSoC5/Timer.c **** 
 727:Generated_Source\PSoC5/Timer.c **** 
 728:Generated_Source\PSoC5/Timer.c **** /*******************************************************************************
 729:Generated_Source\PSoC5/Timer.c **** * Function Name: Timer_ReadCaptureCount
 730:Generated_Source\PSoC5/Timer.c **** ********************************************************************************
 731:Generated_Source\PSoC5/Timer.c **** *
 732:Generated_Source\PSoC5/Timer.c **** * Summary:
 733:Generated_Source\PSoC5/Timer.c **** *  This function reads the capture count setting
 734:Generated_Source\PSoC5/Timer.c **** *
 735:Generated_Source\PSoC5/Timer.c **** * Parameters:
 736:Generated_Source\PSoC5/Timer.c **** *  void
 737:Generated_Source\PSoC5/Timer.c **** *
 738:Generated_Source\PSoC5/Timer.c **** * Return:
 739:Generated_Source\PSoC5/Timer.c **** *  Returns the Capture Count Setting
 740:Generated_Source\PSoC5/Timer.c **** *
 741:Generated_Source\PSoC5/Timer.c **** *******************************************************************************/
 742:Generated_Source\PSoC5/Timer.c **** uint8 Timer_ReadCaptureCount(void) 
 743:Generated_Source\PSoC5/Timer.c **** {
 744:Generated_Source\PSoC5/Timer.c ****     return ((uint8)Timer_CAP_COUNT);
 745:Generated_Source\PSoC5/Timer.c **** }
 746:Generated_Source\PSoC5/Timer.c **** #endif /* Timer_UsingHWCaptureCounter */
 747:Generated_Source\PSoC5/Timer.c **** 
 748:Generated_Source\PSoC5/Timer.c **** 
 749:Generated_Source\PSoC5/Timer.c **** /*******************************************************************************
 750:Generated_Source\PSoC5/Timer.c **** * Function Name: Timer_ClearFIFO
 751:Generated_Source\PSoC5/Timer.c **** ********************************************************************************
 752:Generated_Source\PSoC5/Timer.c **** *
 753:Generated_Source\PSoC5/Timer.c **** * Summary:
 754:Generated_Source\PSoC5/Timer.c **** *  This function clears all capture data from the capture FIFO
 755:Generated_Source\PSoC5/Timer.c **** *
 756:Generated_Source\PSoC5/Timer.c **** * Parameters:
 757:Generated_Source\PSoC5/Timer.c **** *  void
 758:Generated_Source\PSoC5/Timer.c **** *
 759:Generated_Source\PSoC5/Timer.c **** * Return:
 760:Generated_Source\PSoC5/Timer.c **** *  void
 761:Generated_Source\PSoC5/Timer.c **** *
 762:Generated_Source\PSoC5/Timer.c **** *******************************************************************************/
 763:Generated_Source\PSoC5/Timer.c **** void Timer_ClearFIFO(void) 
 764:Generated_Source\PSoC5/Timer.c **** {
 474              		.loc 1 764 0
 475              		.cfi_startproc
 476              		@ args = 0, pretend = 0, frame = 0
 477              		@ frame_needed = 0, uses_anonymous_args = 0
 478 0000 08B5     		push	{r3, lr}
 479              		.cfi_def_cfa_offset 8
 480              		.cfi_offset 3, -8
 481              		.cfi_offset 14, -4
 765:Generated_Source\PSoC5/Timer.c ****     while(0u != (Timer_ReadStatusRegister() & Timer_STATUS_FIFONEMP))
 482              		.loc 1 765 0
 483 0002 01E0     		b	.L52
 484              	.L53:
 766:Generated_Source\PSoC5/Timer.c ****     {
 767:Generated_Source\PSoC5/Timer.c ****         (void)Timer_ReadCapture();
 485              		.loc 1 767 0
 486 0004 FFF7FEFF 		bl	Timer_ReadCapture
 487              	.LVL15:
ARM GAS  C:\Users\DGILLI~1\AppData\Local\Temp\ccYSqyeP.s 			page 23


 488              	.L52:
 765:Generated_Source\PSoC5/Timer.c ****     while(0u != (Timer_ReadStatusRegister() & Timer_STATUS_FIFONEMP))
 489              		.loc 1 765 0
 490 0008 FFF7FEFF 		bl	Timer_ReadStatusRegister
 491              	.LVL16:
 492 000c 10F0080F 		tst	r0, #8
 493 0010 F8D1     		bne	.L53
 768:Generated_Source\PSoC5/Timer.c ****     }
 769:Generated_Source\PSoC5/Timer.c **** }
 494              		.loc 1 769 0
 495 0012 08BD     		pop	{r3, pc}
 496              		.cfi_endproc
 497              	.LFE18:
 498              		.size	Timer_ClearFIFO, .-Timer_ClearFIFO
 499              		.section	.text.Timer_Init,"ax",%progbits
 500              		.align	2
 501              		.global	Timer_Init
 502              		.thumb
 503              		.thumb_func
 504              		.type	Timer_Init, %function
 505              	Timer_Init:
 506              	.LFB0:
  44:Generated_Source\PSoC5/Timer.c ****     #if(!Timer_UsingFixedFunction)
 507              		.loc 1 44 0
 508              		.cfi_startproc
 509              		@ args = 0, pretend = 0, frame = 0
 510              		@ frame_needed = 0, uses_anonymous_args = 0
 511 0000 10B5     		push	{r4, lr}
 512              		.cfi_def_cfa_offset 8
 513              		.cfi_offset 4, -8
 514              		.cfi_offset 14, -4
 118:Generated_Source\PSoC5/Timer.c ****     Timer_WriteCounter(Timer_INIT_PERIOD);
 515              		.loc 1 118 0
 516 0002 114C     		ldr	r4, .L58
 517 0004 2046     		mov	r0, r4
 518 0006 FFF7FEFF 		bl	Timer_WritePeriod
 519              	.LVL17:
 119:Generated_Source\PSoC5/Timer.c **** 
 520              		.loc 1 119 0
 521 000a 2046     		mov	r0, r4
 522 000c FFF7FEFF 		bl	Timer_WriteCounter
 523              	.LVL18:
 128:Generated_Source\PSoC5/Timer.c ****         #endif /* Set Capture Mode for UDB implementation if capture mode is software controlled */
 524              		.loc 1 128 0
 525 0010 8020     		movs	r0, #128
 526 0012 FFF7FEFF 		bl	Timer_SetCaptureMode
 527              	.LVL19:
 133:Generated_Source\PSoC5/Timer.c ****                 {
 528              		.loc 1 133 0
 529 0016 0D4B     		ldr	r3, .L58+4
 530 0018 1B78     		ldrb	r3, [r3]	@ zero_extendqisi2
 531 001a 13F0100F 		tst	r3, #16
 532 001e 02D1     		bne	.L56
 135:Generated_Source\PSoC5/Timer.c ****                 }
 533              		.loc 1 135 0
 534 0020 1020     		movs	r0, #16
 535 0022 FFF7FEFF 		bl	Timer_SetTriggerMode
ARM GAS  C:\Users\DGILLI~1\AppData\Local\Temp\ccYSqyeP.s 			page 24


 536              	.LVL20:
 537              	.L56:
 142:Generated_Source\PSoC5/Timer.c **** 
 538              		.loc 1 142 0
 539 0026 FFF7FEFF 		bl	CyEnterCriticalSection
 540              	.LVL21:
 145:Generated_Source\PSoC5/Timer.c **** 
 541              		.loc 1 145 0
 542 002a 094A     		ldr	r2, .L58+8
 543 002c 1378     		ldrb	r3, [r2]	@ zero_extendqisi2
 544 002e 43F01003 		orr	r3, r3, #16
 545 0032 1370     		strb	r3, [r2]
 148:Generated_Source\PSoC5/Timer.c **** 
 546              		.loc 1 148 0
 547 0034 FFF7FEFF 		bl	CyExitCriticalSection
 548              	.LVL22:
 151:Generated_Source\PSoC5/Timer.c ****         #endif /* Set Trigger enable bit for UDB implementation in the control register*/
 549              		.loc 1 151 0
 550 0038 FFF7FEFF 		bl	Timer_EnableTrigger
 551              	.LVL23:
 159:Generated_Source\PSoC5/Timer.c ****     #endif /* Configure additional features of UDB implementation */
 552              		.loc 1 159 0
 553 003c FFF7FEFF 		bl	Timer_ClearFIFO
 554              	.LVL24:
 162:Generated_Source\PSoC5/Timer.c **** }
 555              		.loc 1 162 0
 556 0040 0120     		movs	r0, #1
 557 0042 FFF7FEFF 		bl	Timer_SetInterruptMode
 558              	.LVL25:
 559 0046 10BD     		pop	{r4, pc}
 560              	.L59:
 561              		.align	2
 562              	.L58:
 563 0048 7F4F1200 		.word	1199999
 564 004c 71640040 		.word	1073767537
 565 0050 91640040 		.word	1073767569
 566              		.cfi_endproc
 567              	.LFE0:
 568              		.size	Timer_Init, .-Timer_Init
 569              		.section	.text.Timer_Start,"ax",%progbits
 570              		.align	2
 571              		.global	Timer_Start
 572              		.thumb
 573              		.thumb_func
 574              		.type	Timer_Start, %function
 575              	Timer_Start:
 576              	.LFB2:
 216:Generated_Source\PSoC5/Timer.c ****     if(Timer_initVar == 0u)
 577              		.loc 1 216 0
 578              		.cfi_startproc
 579              		@ args = 0, pretend = 0, frame = 0
 580              		@ frame_needed = 0, uses_anonymous_args = 0
 581 0000 08B5     		push	{r3, lr}
 582              		.cfi_def_cfa_offset 8
 583              		.cfi_offset 3, -8
 584              		.cfi_offset 14, -4
 217:Generated_Source\PSoC5/Timer.c ****     {
ARM GAS  C:\Users\DGILLI~1\AppData\Local\Temp\ccYSqyeP.s 			page 25


 585              		.loc 1 217 0
 586 0002 054B     		ldr	r3, .L63
 587 0004 1B78     		ldrb	r3, [r3]	@ zero_extendqisi2
 588 0006 23B9     		cbnz	r3, .L61
 219:Generated_Source\PSoC5/Timer.c **** 
 589              		.loc 1 219 0
 590 0008 FFF7FEFF 		bl	Timer_Init
 591              	.LVL26:
 221:Generated_Source\PSoC5/Timer.c ****     }
 592              		.loc 1 221 0
 593 000c 0122     		movs	r2, #1
 594 000e 024B     		ldr	r3, .L63
 595 0010 1A70     		strb	r2, [r3]
 596              	.L61:
 225:Generated_Source\PSoC5/Timer.c **** }
 597              		.loc 1 225 0
 598 0012 FFF7FEFF 		bl	Timer_Enable
 599              	.LVL27:
 600 0016 08BD     		pop	{r3, pc}
 601              	.L64:
 602              		.align	2
 603              	.L63:
 604 0018 00000000 		.word	.LANCHOR0
 605              		.cfi_endproc
 606              	.LFE2:
 607              		.size	Timer_Start, .-Timer_Start
 608              		.global	Timer_initVar
 609              		.bss
 610              		.set	.LANCHOR0,. + 0
 611              		.type	Timer_initVar, %object
 612              		.size	Timer_initVar, 1
 613              	Timer_initVar:
 614 0000 00       		.space	1
 615              		.text
 616              	.Letext0:
 617              		.file 2 "Generated_Source\\PSoC5\\cytypes.h"
 618              		.file 3 "Generated_Source\\PSoC5\\CyLib.h"