ARM GAS  C:\Users\HPz420\AppData\Local\Temp\ccudF40J.s 			page 1


   1              		.syntax unified
   2              		.cpu cortex-m3
   3              		.fpu softvfp
   4              		.eabi_attribute 20, 1
   5              		.eabi_attribute 21, 1
   6              		.eabi_attribute 23, 3
   7              		.eabi_attribute 24, 1
   8              		.eabi_attribute 25, 1
   9              		.eabi_attribute 26, 1
  10              		.eabi_attribute 30, 1
  11              		.eabi_attribute 34, 1
  12              		.eabi_attribute 18, 4
  13              		.thumb
  14              		.syntax unified
  15              		.file	"USBUART_msc.c"
  16              		.text
  17              	.Ltext0:
  18              		.cfi_sections	.debug_frame
  19              		.section	.text.USBUART_DispatchMSCClassRqst,"ax",%progbits
  20              		.align	2
  21              		.global	USBUART_DispatchMSCClassRqst
  22              		.thumb
  23              		.thumb_func
  24              		.type	USBUART_DispatchMSCClassRqst, %function
  25              	USBUART_DispatchMSCClassRqst:
  26              	.LFB0:
  27              		.file 1 "Generated_Source\\PSoC5\\USBUART_msc.c"
   1:Generated_Source\PSoC5/USBUART_msc.c **** /***************************************************************************//**
   2:Generated_Source\PSoC5/USBUART_msc.c **** * \file USBUART_cdc.c
   3:Generated_Source\PSoC5/USBUART_msc.c **** * \version 3.20
   4:Generated_Source\PSoC5/USBUART_msc.c **** *
   5:Generated_Source\PSoC5/USBUART_msc.c **** * \brief
   6:Generated_Source\PSoC5/USBUART_msc.c **** *  This file contains the USB MSC Class request handler and global API for MSC 
   7:Generated_Source\PSoC5/USBUART_msc.c **** *  class.
   8:Generated_Source\PSoC5/USBUART_msc.c **** *
   9:Generated_Source\PSoC5/USBUART_msc.c **** * Related Document:
  10:Generated_Source\PSoC5/USBUART_msc.c **** *  Universal Serial Bus Class Definitions for Communication Devices Version 1.1
  11:Generated_Source\PSoC5/USBUART_msc.c **** *
  12:Generated_Source\PSoC5/USBUART_msc.c **** ********************************************************************************
  13:Generated_Source\PSoC5/USBUART_msc.c **** * \copyright
  14:Generated_Source\PSoC5/USBUART_msc.c **** * Copyright 2012-2016, Cypress Semiconductor Corporation.  All rights reserved.
  15:Generated_Source\PSoC5/USBUART_msc.c **** * You may use this file only in accordance with the license, terms, conditions,
  16:Generated_Source\PSoC5/USBUART_msc.c **** * disclaimers, and limitations in the end user license agreement accompanying
  17:Generated_Source\PSoC5/USBUART_msc.c **** * the software package with which this file was provided.
  18:Generated_Source\PSoC5/USBUART_msc.c **** *******************************************************************************/
  19:Generated_Source\PSoC5/USBUART_msc.c **** 
  20:Generated_Source\PSoC5/USBUART_msc.c **** #include "USBUART_msc.h"
  21:Generated_Source\PSoC5/USBUART_msc.c **** #include "USBUART_pvt.h"
  22:Generated_Source\PSoC5/USBUART_msc.c **** #include "cyapicallbacks.h"
  23:Generated_Source\PSoC5/USBUART_msc.c **** 
  24:Generated_Source\PSoC5/USBUART_msc.c **** #if (USBUART_HANDLE_MSC_REQUESTS)
  25:Generated_Source\PSoC5/USBUART_msc.c **** 
  26:Generated_Source\PSoC5/USBUART_msc.c **** /***************************************
  27:Generated_Source\PSoC5/USBUART_msc.c **** *          Internal variables
  28:Generated_Source\PSoC5/USBUART_msc.c **** ***************************************/
  29:Generated_Source\PSoC5/USBUART_msc.c **** 
  30:Generated_Source\PSoC5/USBUART_msc.c **** static uint8 USBUART_lunCount = USBUART_MSC_LUN_NUMBER;
ARM GAS  C:\Users\HPz420\AppData\Local\Temp\ccudF40J.s 			page 2


  31:Generated_Source\PSoC5/USBUART_msc.c **** 
  32:Generated_Source\PSoC5/USBUART_msc.c **** 
  33:Generated_Source\PSoC5/USBUART_msc.c **** /*******************************************************************************
  34:Generated_Source\PSoC5/USBUART_msc.c **** * Function Name: USBUART_DispatchMSCClassRqst
  35:Generated_Source\PSoC5/USBUART_msc.c **** ****************************************************************************//**
  36:Generated_Source\PSoC5/USBUART_msc.c **** *   
  37:Generated_Source\PSoC5/USBUART_msc.c **** *  \internal 
  38:Generated_Source\PSoC5/USBUART_msc.c **** *  This routine dispatches MSC class requests.
  39:Generated_Source\PSoC5/USBUART_msc.c **** *
  40:Generated_Source\PSoC5/USBUART_msc.c **** * \return
  41:Generated_Source\PSoC5/USBUART_msc.c **** *  Status of request processing: handled or not handled.
  42:Generated_Source\PSoC5/USBUART_msc.c **** *
  43:Generated_Source\PSoC5/USBUART_msc.c **** * \globalvars
  44:Generated_Source\PSoC5/USBUART_msc.c **** *  USBUART_lunCount - stores number of LUN (logical units).
  45:Generated_Source\PSoC5/USBUART_msc.c **** *
  46:Generated_Source\PSoC5/USBUART_msc.c **** * \reentrant
  47:Generated_Source\PSoC5/USBUART_msc.c **** *  No.
  48:Generated_Source\PSoC5/USBUART_msc.c **** *
  49:Generated_Source\PSoC5/USBUART_msc.c **** *******************************************************************************/
  50:Generated_Source\PSoC5/USBUART_msc.c **** uint8 USBUART_DispatchMSCClassRqst(void) 
  51:Generated_Source\PSoC5/USBUART_msc.c **** {
  28              		.loc 1 51 0
  29              		.cfi_startproc
  30              		@ args = 0, pretend = 0, frame = 0
  31              		@ frame_needed = 0, uses_anonymous_args = 0
  32 0000 08B5     		push	{r3, lr}
  33              		.cfi_def_cfa_offset 8
  34              		.cfi_offset 3, -8
  35              		.cfi_offset 14, -4
  36              	.LVL0:
  52:Generated_Source\PSoC5/USBUART_msc.c ****     uint8 requestHandled = USBUART_FALSE;
  53:Generated_Source\PSoC5/USBUART_msc.c ****     
  54:Generated_Source\PSoC5/USBUART_msc.c ****     /* Get request data. */
  55:Generated_Source\PSoC5/USBUART_msc.c ****     uint16 value  = USBUART_GET_UINT16(USBUART_wValueHiReg,  USBUART_wValueLoReg);
  37              		.loc 1 55 0
  38 0002 1A4B     		ldr	r3, .L11
  39 0004 D978     		ldrb	r1, [r3, #3]	@ zero_extendqisi2
  40 0006 9A78     		ldrb	r2, [r3, #2]	@ zero_extendqisi2
  41 0008 42EA0122 		orr	r2, r2, r1, lsl #8
  42              	.LVL1:
  56:Generated_Source\PSoC5/USBUART_msc.c ****     uint16 dataLength = USBUART_GET_UINT16(USBUART_wLengthHiReg, USBUART_wLengthLoReg);
  43              		.loc 1 56 0
  44 000c D879     		ldrb	r0, [r3, #7]	@ zero_extendqisi2
  45 000e 9979     		ldrb	r1, [r3, #6]	@ zero_extendqisi2
  46 0010 41EA0021 		orr	r1, r1, r0, lsl #8
  47              	.LVL2:
  57:Generated_Source\PSoC5/USBUART_msc.c ****        
  58:Generated_Source\PSoC5/USBUART_msc.c ****     /* Check request direction: D2H or H2D. */
  59:Generated_Source\PSoC5/USBUART_msc.c ****     if (0u != (USBUART_bmRequestTypeReg & USBUART_RQST_DIR_D2H))
  48              		.loc 1 59 0
  49 0014 1B78     		ldrb	r3, [r3]	@ zero_extendqisi2
  50 0016 13F0800F 		tst	r3, #128
  51 001a 0FD0     		beq	.L2
  60:Generated_Source\PSoC5/USBUART_msc.c ****     {
  61:Generated_Source\PSoC5/USBUART_msc.c ****         /* Handle direction from device to host. */
  62:Generated_Source\PSoC5/USBUART_msc.c ****         
  63:Generated_Source\PSoC5/USBUART_msc.c ****         if (USBUART_MSC_GET_MAX_LUN == USBUART_bRequestReg)
ARM GAS  C:\Users\HPz420\AppData\Local\Temp\ccudF40J.s 			page 3


  52              		.loc 1 63 0
  53 001c 134B     		ldr	r3, .L11
  54 001e 5B78     		ldrb	r3, [r3, #1]	@ zero_extendqisi2
  55 0020 DBB2     		uxtb	r3, r3
  56 0022 FE2B     		cmp	r3, #254
  57 0024 16D1     		bne	.L4
  64:Generated_Source\PSoC5/USBUART_msc.c ****         {
  65:Generated_Source\PSoC5/USBUART_msc.c ****             /* Check request fields. */
  66:Generated_Source\PSoC5/USBUART_msc.c ****             if ((value  == USBUART_MSC_GET_MAX_LUN_WVALUE) &&
  58              		.loc 1 66 0
  59 0026 BAB9     		cbnz	r2, .L5
  60              		.loc 1 66 0 is_stmt 0 discriminator 1
  61 0028 0129     		cmp	r1, #1
  62 002a 17D1     		bne	.L6
  67:Generated_Source\PSoC5/USBUART_msc.c ****                 (dataLength == USBUART_MSC_GET_MAX_LUN_WLENGTH))
  68:Generated_Source\PSoC5/USBUART_msc.c ****             {
  69:Generated_Source\PSoC5/USBUART_msc.c ****                 /* Reply to Get Max LUN request: setup control read. */
  70:Generated_Source\PSoC5/USBUART_msc.c ****                 USBUART_currentTD.pData = &USBUART_lunCount;
  63              		.loc 1 70 0 is_stmt 1
  64 002c 104B     		ldr	r3, .L11+4
  65 002e 114A     		ldr	r2, .L11+8
  66              	.LVL3:
  67 0030 5A60     		str	r2, [r3, #4]
  71:Generated_Source\PSoC5/USBUART_msc.c ****                 USBUART_currentTD.count =  USBUART_MSC_GET_MAX_LUN_WLENGTH;
  68              		.loc 1 71 0
  69 0032 0122     		movs	r2, #1
  70 0034 1A80     		strh	r2, [r3]	@ movhi
  72:Generated_Source\PSoC5/USBUART_msc.c ****                 
  73:Generated_Source\PSoC5/USBUART_msc.c ****                 requestHandled  = USBUART_InitControlRead();
  71              		.loc 1 73 0
  72 0036 FFF7FEFF 		bl	USBUART_InitControlRead
  73              	.LVL4:
  74 003a 08BD     		pop	{r3, pc}
  75              	.LVL5:
  76              	.L2:
  74:Generated_Source\PSoC5/USBUART_msc.c ****             }
  75:Generated_Source\PSoC5/USBUART_msc.c ****         }
  76:Generated_Source\PSoC5/USBUART_msc.c ****     }
  77:Generated_Source\PSoC5/USBUART_msc.c ****     else
  78:Generated_Source\PSoC5/USBUART_msc.c ****     {
  79:Generated_Source\PSoC5/USBUART_msc.c ****         /* Handle direction from host to device. */
  80:Generated_Source\PSoC5/USBUART_msc.c ****         
  81:Generated_Source\PSoC5/USBUART_msc.c ****         if (USBUART_MSC_RESET == USBUART_bRequestReg)
  77              		.loc 1 81 0
  78 003c 0B4B     		ldr	r3, .L11
  79 003e 5B78     		ldrb	r3, [r3, #1]	@ zero_extendqisi2
  80 0040 DBB2     		uxtb	r3, r3
  81 0042 FF2B     		cmp	r3, #255
  82 0044 0CD1     		bne	.L7
  82:Generated_Source\PSoC5/USBUART_msc.c ****         {
  83:Generated_Source\PSoC5/USBUART_msc.c ****             /* Check request fields. */
  84:Generated_Source\PSoC5/USBUART_msc.c ****             if ((value  == USBUART_MSC_RESET_WVALUE) &&
  83              		.loc 1 84 0
  84 0046 6AB9     		cbnz	r2, .L8
  85              		.loc 1 84 0 is_stmt 0 discriminator 1
  86 0048 71B9     		cbnz	r1, .L9
  85:Generated_Source\PSoC5/USBUART_msc.c ****                 (dataLength == USBUART_MSC_RESET_WLENGTH))
ARM GAS  C:\Users\HPz420\AppData\Local\Temp\ccudF40J.s 			page 4


  86:Generated_Source\PSoC5/USBUART_msc.c ****             {
  87:Generated_Source\PSoC5/USBUART_msc.c ****                 /* Handle to Bulk-Only Reset request: no data control transfer. */
  88:Generated_Source\PSoC5/USBUART_msc.c ****                 USBUART_currentTD.count = USBUART_MSC_RESET_WLENGTH;
  87              		.loc 1 88 0 is_stmt 1
  88 004a 094B     		ldr	r3, .L11+4
  89 004c 1A80     		strh	r2, [r3]	@ movhi
  89:Generated_Source\PSoC5/USBUART_msc.c ****                 
  90:Generated_Source\PSoC5/USBUART_msc.c ****             #ifdef USBUART_DISPATCH_MSC_CLASS_MSC_RESET_RQST_CALLBACK
  91:Generated_Source\PSoC5/USBUART_msc.c ****                 USBUART_DispatchMSCClass_MSC_RESET_RQST_Callback();
  92:Generated_Source\PSoC5/USBUART_msc.c ****             #endif /* (USBUART_DISPATCH_MSC_CLASS_MSC_RESET_RQST_CALLBACK) */
  93:Generated_Source\PSoC5/USBUART_msc.c ****                 
  94:Generated_Source\PSoC5/USBUART_msc.c ****                 requestHandled = USBUART_InitNoDataControlTransfer();
  90              		.loc 1 94 0
  91 004e FFF7FEFF 		bl	USBUART_InitNoDataControlTransfer
  92              	.LVL6:
  93 0052 08BD     		pop	{r3, pc}
  94              	.LVL7:
  95              	.L4:
  52:Generated_Source\PSoC5/USBUART_msc.c ****     
  96              		.loc 1 52 0
  97 0054 0020     		movs	r0, #0
  98 0056 08BD     		pop	{r3, pc}
  99              	.L5:
 100 0058 0020     		movs	r0, #0
 101 005a 08BD     		pop	{r3, pc}
 102              	.L6:
 103 005c 0020     		movs	r0, #0
 104 005e 08BD     		pop	{r3, pc}
 105              	.L7:
 106 0060 0020     		movs	r0, #0
 107 0062 08BD     		pop	{r3, pc}
 108              	.L8:
 109 0064 0020     		movs	r0, #0
 110 0066 08BD     		pop	{r3, pc}
 111              	.L9:
 112 0068 0020     		movs	r0, #0
 113              	.LVL8:
  95:Generated_Source\PSoC5/USBUART_msc.c ****             }
  96:Generated_Source\PSoC5/USBUART_msc.c ****         }
  97:Generated_Source\PSoC5/USBUART_msc.c ****     }
  98:Generated_Source\PSoC5/USBUART_msc.c ****     
  99:Generated_Source\PSoC5/USBUART_msc.c ****     return (requestHandled);
 100:Generated_Source\PSoC5/USBUART_msc.c **** }
 114              		.loc 1 100 0
 115 006a 08BD     		pop	{r3, pc}
 116              	.L12:
 117              		.align	2
 118              	.L11:
 119 006c 00600040 		.word	1073766400
 120 0070 00000000 		.word	USBUART_currentTD
 121 0074 00000000 		.word	.LANCHOR0
 122              		.cfi_endproc
 123              	.LFE0:
 124              		.size	USBUART_DispatchMSCClassRqst, .-USBUART_DispatchMSCClassRqst
 125              		.section	.text.USBUART_MSC_SetLunCount,"ax",%progbits
 126              		.align	2
 127              		.global	USBUART_MSC_SetLunCount
ARM GAS  C:\Users\HPz420\AppData\Local\Temp\ccudF40J.s 			page 5


 128              		.thumb
 129              		.thumb_func
 130              		.type	USBUART_MSC_SetLunCount, %function
 131              	USBUART_MSC_SetLunCount:
 132              	.LFB1:
 101:Generated_Source\PSoC5/USBUART_msc.c **** 
 102:Generated_Source\PSoC5/USBUART_msc.c **** 
 103:Generated_Source\PSoC5/USBUART_msc.c **** /*******************************************************************************
 104:Generated_Source\PSoC5/USBUART_msc.c **** * Function Name: USBUART_MSC_SetLunCount
 105:Generated_Source\PSoC5/USBUART_msc.c **** ****************************************************************************//**
 106:Generated_Source\PSoC5/USBUART_msc.c **** *
 107:Generated_Source\PSoC5/USBUART_msc.c **** *  This function sets the number of logical units supported in the application. 
 108:Generated_Source\PSoC5/USBUART_msc.c **** *  The default number of logical units is set in the component customizer.
 109:Generated_Source\PSoC5/USBUART_msc.c **** *
 110:Generated_Source\PSoC5/USBUART_msc.c **** *  \param lunCount: Count of the logical units. Valid range is between 1 and 16.
 111:Generated_Source\PSoC5/USBUART_msc.c **** *
 112:Generated_Source\PSoC5/USBUART_msc.c **** *
 113:Generated_Source\PSoC5/USBUART_msc.c **** * \globalvars
 114:Generated_Source\PSoC5/USBUART_msc.c **** *  USBUART_lunCount - stores number of LUN (logical units).
 115:Generated_Source\PSoC5/USBUART_msc.c **** *
 116:Generated_Source\PSoC5/USBUART_msc.c **** * \reentrant
 117:Generated_Source\PSoC5/USBUART_msc.c **** *  No.
 118:Generated_Source\PSoC5/USBUART_msc.c **** *
 119:Generated_Source\PSoC5/USBUART_msc.c **** *******************************************************************************/
 120:Generated_Source\PSoC5/USBUART_msc.c **** void USBUART_MSC_SetLunCount(uint8 lunCount) 
 121:Generated_Source\PSoC5/USBUART_msc.c **** {
 133              		.loc 1 121 0
 134              		.cfi_startproc
 135              		@ args = 0, pretend = 0, frame = 0
 136              		@ frame_needed = 0, uses_anonymous_args = 0
 137              		@ link register save eliminated.
 138              	.LVL9:
 122:Generated_Source\PSoC5/USBUART_msc.c ****     USBUART_lunCount = (lunCount - 1u);
 139              		.loc 1 122 0
 140 0000 0138     		subs	r0, r0, #1
 141              	.LVL10:
 142 0002 014B     		ldr	r3, .L14
 143 0004 1870     		strb	r0, [r3]
 144 0006 7047     		bx	lr
 145              	.L15:
 146              		.align	2
 147              	.L14:
 148 0008 00000000 		.word	.LANCHOR0
 149              		.cfi_endproc
 150              	.LFE1:
 151              		.size	USBUART_MSC_SetLunCount, .-USBUART_MSC_SetLunCount
 152              		.section	.text.USBUART_MSC_GetLunCount,"ax",%progbits
 153              		.align	2
 154              		.global	USBUART_MSC_GetLunCount
 155              		.thumb
 156              		.thumb_func
 157              		.type	USBUART_MSC_GetLunCount, %function
 158              	USBUART_MSC_GetLunCount:
 159              	.LFB2:
 123:Generated_Source\PSoC5/USBUART_msc.c **** }
 124:Generated_Source\PSoC5/USBUART_msc.c **** 
 125:Generated_Source\PSoC5/USBUART_msc.c **** 
ARM GAS  C:\Users\HPz420\AppData\Local\Temp\ccudF40J.s 			page 6


 126:Generated_Source\PSoC5/USBUART_msc.c **** /*******************************************************************************
 127:Generated_Source\PSoC5/USBUART_msc.c **** * Function Name: USBUART_MSC_GetLunCount
 128:Generated_Source\PSoC5/USBUART_msc.c **** ****************************************************************************//**
 129:Generated_Source\PSoC5/USBUART_msc.c **** *
 130:Generated_Source\PSoC5/USBUART_msc.c **** *  This function returns the number of logical units.
 131:Generated_Source\PSoC5/USBUART_msc.c **** *
 132:Generated_Source\PSoC5/USBUART_msc.c **** * \return
 133:Generated_Source\PSoC5/USBUART_msc.c **** *   Number of the logical units.
 134:Generated_Source\PSoC5/USBUART_msc.c **** *
 135:Generated_Source\PSoC5/USBUART_msc.c **** * \globalvars
 136:Generated_Source\PSoC5/USBUART_msc.c **** *  USBUART_lunCount - stores number of LUN (logical units).
 137:Generated_Source\PSoC5/USBUART_msc.c **** *
 138:Generated_Source\PSoC5/USBUART_msc.c **** * \reentrant
 139:Generated_Source\PSoC5/USBUART_msc.c **** *  No.
 140:Generated_Source\PSoC5/USBUART_msc.c **** *
 141:Generated_Source\PSoC5/USBUART_msc.c **** *******************************************************************************/
 142:Generated_Source\PSoC5/USBUART_msc.c **** uint8 USBUART_MSC_GetLunCount(void) 
 143:Generated_Source\PSoC5/USBUART_msc.c **** {
 160              		.loc 1 143 0
 161              		.cfi_startproc
 162              		@ args = 0, pretend = 0, frame = 0
 163              		@ frame_needed = 0, uses_anonymous_args = 0
 164              		@ link register save eliminated.
 144:Generated_Source\PSoC5/USBUART_msc.c ****     return (USBUART_lunCount + 1u);
 165              		.loc 1 144 0
 166 0000 024B     		ldr	r3, .L17
 167 0002 1878     		ldrb	r0, [r3]	@ zero_extendqisi2
 168 0004 0130     		adds	r0, r0, #1
 145:Generated_Source\PSoC5/USBUART_msc.c **** }   
 169              		.loc 1 145 0
 170 0006 C0B2     		uxtb	r0, r0
 171 0008 7047     		bx	lr
 172              	.L18:
 173 000a 00BF     		.align	2
 174              	.L17:
 175 000c 00000000 		.word	.LANCHOR0
 176              		.cfi_endproc
 177              	.LFE2:
 178              		.size	USBUART_MSC_GetLunCount, .-USBUART_MSC_GetLunCount
 179              		.bss
 180              		.set	.LANCHOR0,. + 0
 181              		.type	USBUART_lunCount, %object
 182              		.size	USBUART_lunCount, 1
 183              	USBUART_lunCount:
 184 0000 00       		.space	1
 185              		.text
 186              	.Letext0:
 187              		.file 2 "Generated_Source\\PSoC5\\cytypes.h"
 188              		.file 3 "Generated_Source\\PSoC5\\USBUART.h"
 189              		.file 4 "Generated_Source\\PSoC5\\USBUART_pvt.h"