ARM GAS  C:\Users\HPz420\AppData\Local\Temp\ccrIsOEi.s 			page 1


   1              		.syntax unified
   2              		.cpu cortex-m3
   3              		.fpu softvfp
   4              		.eabi_attribute 20, 1
   5              		.eabi_attribute 21, 1
   6              		.eabi_attribute 23, 3
   7              		.eabi_attribute 24, 1
   8              		.eabi_attribute 25, 1
   9              		.eabi_attribute 26, 1
  10              		.eabi_attribute 30, 1
  11              		.eabi_attribute 34, 1
  12              		.eabi_attribute 18, 4
  13              		.thumb
  14              		.syntax unified
  15              		.file	"WaveDAC8.c"
  16              		.text
  17              	.Ltext0:
  18              		.cfi_sections	.debug_frame
  19              		.section	.text.WaveDAC8_Enable,"ax",%progbits
  20              		.align	2
  21              		.global	WaveDAC8_Enable
  22              		.thumb
  23              		.thumb_func
  24              		.type	WaveDAC8_Enable, %function
  25              	WaveDAC8_Enable:
  26              	.LFB1:
  27              		.file 1 "Generated_Source\\PSoC5\\WaveDAC8.c"
   1:Generated_Source\PSoC5/WaveDAC8.c **** /*******************************************************************************
   2:Generated_Source\PSoC5/WaveDAC8.c **** * File Name: WaveDAC8.c
   3:Generated_Source\PSoC5/WaveDAC8.c **** * Version 2.10
   4:Generated_Source\PSoC5/WaveDAC8.c **** *
   5:Generated_Source\PSoC5/WaveDAC8.c **** * Description:
   6:Generated_Source\PSoC5/WaveDAC8.c **** *  This file provides the source code for the 8-bit Waveform DAC 
   7:Generated_Source\PSoC5/WaveDAC8.c **** *  (WaveDAC8) Component.
   8:Generated_Source\PSoC5/WaveDAC8.c **** *
   9:Generated_Source\PSoC5/WaveDAC8.c **** ********************************************************************************
  10:Generated_Source\PSoC5/WaveDAC8.c **** * Copyright 2013, Cypress Semiconductor Corporation.  All rights reserved.
  11:Generated_Source\PSoC5/WaveDAC8.c **** * You may use this file only in accordance with the license, terms, conditions,
  12:Generated_Source\PSoC5/WaveDAC8.c **** * disclaimers, and limitations in the end user license agreement accompanying
  13:Generated_Source\PSoC5/WaveDAC8.c **** * the software package with which this file was provided.
  14:Generated_Source\PSoC5/WaveDAC8.c **** *******************************************************************************/
  15:Generated_Source\PSoC5/WaveDAC8.c **** 
  16:Generated_Source\PSoC5/WaveDAC8.c **** #include "WaveDAC8.h"
  17:Generated_Source\PSoC5/WaveDAC8.c **** 
  18:Generated_Source\PSoC5/WaveDAC8.c **** uint8  WaveDAC8_initVar = 0u;
  19:Generated_Source\PSoC5/WaveDAC8.c **** 
  20:Generated_Source\PSoC5/WaveDAC8.c **** const uint8 CYCODE WaveDAC8_wave1[WaveDAC8_WAVE1_LENGTH] = { 128u,135u,143u,151u,159u,166u,174u,181
  21:Generated_Source\PSoC5/WaveDAC8.c **** const uint8 CYCODE WaveDAC8_wave2[WaveDAC8_WAVE2_LENGTH] = { 128u,133u,138u,143u,148u,153u,158u,163
  22:Generated_Source\PSoC5/WaveDAC8.c **** 
  23:Generated_Source\PSoC5/WaveDAC8.c **** static uint8  WaveDAC8_Wave1Chan;
  24:Generated_Source\PSoC5/WaveDAC8.c **** static uint8  WaveDAC8_Wave2Chan;
  25:Generated_Source\PSoC5/WaveDAC8.c **** static uint8  WaveDAC8_Wave1TD;
  26:Generated_Source\PSoC5/WaveDAC8.c **** static uint8  WaveDAC8_Wave2TD;
  27:Generated_Source\PSoC5/WaveDAC8.c **** 
  28:Generated_Source\PSoC5/WaveDAC8.c **** 
  29:Generated_Source\PSoC5/WaveDAC8.c **** /*******************************************************************************
  30:Generated_Source\PSoC5/WaveDAC8.c **** * Function Name: WaveDAC8_Init
ARM GAS  C:\Users\HPz420\AppData\Local\Temp\ccrIsOEi.s 			page 2


  31:Generated_Source\PSoC5/WaveDAC8.c **** ********************************************************************************
  32:Generated_Source\PSoC5/WaveDAC8.c **** *
  33:Generated_Source\PSoC5/WaveDAC8.c **** * Summary:
  34:Generated_Source\PSoC5/WaveDAC8.c **** *  Initializes component with parameters set in the customizer.
  35:Generated_Source\PSoC5/WaveDAC8.c **** *
  36:Generated_Source\PSoC5/WaveDAC8.c **** * Parameters:  
  37:Generated_Source\PSoC5/WaveDAC8.c **** *  None
  38:Generated_Source\PSoC5/WaveDAC8.c **** *
  39:Generated_Source\PSoC5/WaveDAC8.c **** * Return: 
  40:Generated_Source\PSoC5/WaveDAC8.c **** *  None
  41:Generated_Source\PSoC5/WaveDAC8.c **** *
  42:Generated_Source\PSoC5/WaveDAC8.c **** *******************************************************************************/
  43:Generated_Source\PSoC5/WaveDAC8.c **** void WaveDAC8_Init(void) 
  44:Generated_Source\PSoC5/WaveDAC8.c **** {
  45:Generated_Source\PSoC5/WaveDAC8.c **** 	WaveDAC8_VDAC8_Init();
  46:Generated_Source\PSoC5/WaveDAC8.c **** 	WaveDAC8_VDAC8_SetSpeed(WaveDAC8_HIGHSPEED);
  47:Generated_Source\PSoC5/WaveDAC8.c **** 	WaveDAC8_VDAC8_SetRange(WaveDAC8_DAC_RANGE);
  48:Generated_Source\PSoC5/WaveDAC8.c **** 
  49:Generated_Source\PSoC5/WaveDAC8.c **** 	#if(WaveDAC8_DAC_MODE == WaveDAC8_CURRENT_MODE)
  50:Generated_Source\PSoC5/WaveDAC8.c **** 		WaveDAC8_IDAC8_SetPolarity(WaveDAC8_DAC_POL);
  51:Generated_Source\PSoC5/WaveDAC8.c **** 	#endif /* WaveDAC8_DAC_MODE == WaveDAC8_CURRENT_MODE */
  52:Generated_Source\PSoC5/WaveDAC8.c **** 
  53:Generated_Source\PSoC5/WaveDAC8.c **** 	#if(WaveDAC8_OUT_MODE == WaveDAC8_BUFFER_MODE)
  54:Generated_Source\PSoC5/WaveDAC8.c **** 	   WaveDAC8_BuffAmp_Init();
  55:Generated_Source\PSoC5/WaveDAC8.c **** 	#endif /* WaveDAC8_OUT_MODE == WaveDAC8_BUFFER_MODE */
  56:Generated_Source\PSoC5/WaveDAC8.c **** 
  57:Generated_Source\PSoC5/WaveDAC8.c **** 	/* Get the TD Number for the DMA channel 1 and 2   */
  58:Generated_Source\PSoC5/WaveDAC8.c **** 	WaveDAC8_Wave1TD = CyDmaTdAllocate();
  59:Generated_Source\PSoC5/WaveDAC8.c **** 	WaveDAC8_Wave2TD = CyDmaTdAllocate();
  60:Generated_Source\PSoC5/WaveDAC8.c **** 	
  61:Generated_Source\PSoC5/WaveDAC8.c **** 	/* Initialize waveform pointers  */
  62:Generated_Source\PSoC5/WaveDAC8.c **** 	WaveDAC8_Wave1Setup(WaveDAC8_wave1, WaveDAC8_WAVE1_LENGTH) ;
  63:Generated_Source\PSoC5/WaveDAC8.c **** 	WaveDAC8_Wave2Setup(WaveDAC8_wave2, WaveDAC8_WAVE2_LENGTH) ;
  64:Generated_Source\PSoC5/WaveDAC8.c **** 	
  65:Generated_Source\PSoC5/WaveDAC8.c **** 	/* Initialize the internal clock if one present  */
  66:Generated_Source\PSoC5/WaveDAC8.c **** 	#if defined(WaveDAC8_DacClk_PHASE)
  67:Generated_Source\PSoC5/WaveDAC8.c **** 	   WaveDAC8_DacClk_SetPhase(WaveDAC8_CLK_PHASE_0nS);
  68:Generated_Source\PSoC5/WaveDAC8.c **** 	#endif /* defined(WaveDAC8_DacClk_PHASE) */
  69:Generated_Source\PSoC5/WaveDAC8.c **** }
  70:Generated_Source\PSoC5/WaveDAC8.c **** 
  71:Generated_Source\PSoC5/WaveDAC8.c **** 
  72:Generated_Source\PSoC5/WaveDAC8.c **** /*******************************************************************************
  73:Generated_Source\PSoC5/WaveDAC8.c **** * Function Name: WaveDAC8_Enable
  74:Generated_Source\PSoC5/WaveDAC8.c **** ********************************************************************************
  75:Generated_Source\PSoC5/WaveDAC8.c **** *  
  76:Generated_Source\PSoC5/WaveDAC8.c **** * Summary: 
  77:Generated_Source\PSoC5/WaveDAC8.c **** *  Enables the DAC block and DMA operation.
  78:Generated_Source\PSoC5/WaveDAC8.c **** *
  79:Generated_Source\PSoC5/WaveDAC8.c **** * Parameters:  
  80:Generated_Source\PSoC5/WaveDAC8.c **** *  None
  81:Generated_Source\PSoC5/WaveDAC8.c **** *
  82:Generated_Source\PSoC5/WaveDAC8.c **** * Return: 
  83:Generated_Source\PSoC5/WaveDAC8.c **** *  None
  84:Generated_Source\PSoC5/WaveDAC8.c **** *
  85:Generated_Source\PSoC5/WaveDAC8.c **** *******************************************************************************/
  86:Generated_Source\PSoC5/WaveDAC8.c **** void WaveDAC8_Enable(void) 
  87:Generated_Source\PSoC5/WaveDAC8.c **** {
ARM GAS  C:\Users\HPz420\AppData\Local\Temp\ccrIsOEi.s 			page 3


  28              		.loc 1 87 0
  29              		.cfi_startproc
  30              		@ args = 0, pretend = 0, frame = 0
  31              		@ frame_needed = 0, uses_anonymous_args = 0
  32 0000 10B5     		push	{r4, lr}
  33              		.cfi_def_cfa_offset 8
  34              		.cfi_offset 4, -8
  35              		.cfi_offset 14, -4
  88:Generated_Source\PSoC5/WaveDAC8.c **** 	WaveDAC8_VDAC8_Enable();
  36              		.loc 1 88 0
  37 0002 FFF7FEFF 		bl	WaveDAC8_VDAC8_Enable
  38              	.LVL0:
  89:Generated_Source\PSoC5/WaveDAC8.c **** 
  90:Generated_Source\PSoC5/WaveDAC8.c **** 	#if(WaveDAC8_OUT_MODE == WaveDAC8_BUFFER_MODE)
  91:Generated_Source\PSoC5/WaveDAC8.c **** 	   WaveDAC8_BuffAmp_Enable();
  92:Generated_Source\PSoC5/WaveDAC8.c **** 	#endif /* WaveDAC8_OUT_MODE == WaveDAC8_BUFFER_MODE */
  93:Generated_Source\PSoC5/WaveDAC8.c **** 
  94:Generated_Source\PSoC5/WaveDAC8.c **** 	/* 
  95:Generated_Source\PSoC5/WaveDAC8.c **** 	* Enable the channel. It is configured to remember the TD value so that
  96:Generated_Source\PSoC5/WaveDAC8.c **** 	* it can be restored from the place where it has been stopped.
  97:Generated_Source\PSoC5/WaveDAC8.c **** 	*/
  98:Generated_Source\PSoC5/WaveDAC8.c **** 	(void)CyDmaChEnable(WaveDAC8_Wave1Chan, 1u);
  39              		.loc 1 98 0
  40 0006 074C     		ldr	r4, .L3
  41 0008 0121     		movs	r1, #1
  42 000a 2078     		ldrb	r0, [r4]	@ zero_extendqisi2
  43 000c FFF7FEFF 		bl	CyDmaChEnable
  44              	.LVL1:
  99:Generated_Source\PSoC5/WaveDAC8.c **** 	(void)CyDmaChEnable(WaveDAC8_Wave2Chan, 1u);
  45              		.loc 1 99 0
  46 0010 0121     		movs	r1, #1
  47 0012 6078     		ldrb	r0, [r4, #1]	@ zero_extendqisi2
  48 0014 FFF7FEFF 		bl	CyDmaChEnable
  49              	.LVL2:
 100:Generated_Source\PSoC5/WaveDAC8.c **** 	
 101:Generated_Source\PSoC5/WaveDAC8.c **** 	/* set the initial value */
 102:Generated_Source\PSoC5/WaveDAC8.c **** 	WaveDAC8_SetValue(0u);
  50              		.loc 1 102 0
  51 0018 0020     		movs	r0, #0
  52 001a FFF7FEFF 		bl	WaveDAC8_VDAC8_SetValue
  53              	.LVL3:
 103:Generated_Source\PSoC5/WaveDAC8.c **** 	
 104:Generated_Source\PSoC5/WaveDAC8.c **** 	#if(WaveDAC8_CLOCK_SRC == WaveDAC8_CLOCK_INT)  	
 105:Generated_Source\PSoC5/WaveDAC8.c **** 	   WaveDAC8_DacClk_Start();
  54              		.loc 1 105 0
  55 001e FFF7FEFF 		bl	WaveDAC8_DacClk_Start
  56              	.LVL4:
  57 0022 10BD     		pop	{r4, pc}
  58              	.L4:
  59              		.align	2
  60              	.L3:
  61 0024 00000000 		.word	.LANCHOR0
  62              		.cfi_endproc
  63              	.LFE1:
  64              		.size	WaveDAC8_Enable, .-WaveDAC8_Enable
  65              		.section	.text.WaveDAC8_Stop,"ax",%progbits
  66              		.align	2
ARM GAS  C:\Users\HPz420\AppData\Local\Temp\ccrIsOEi.s 			page 4


  67              		.global	WaveDAC8_Stop
  68              		.thumb
  69              		.thumb_func
  70              		.type	WaveDAC8_Stop, %function
  71              	WaveDAC8_Stop:
  72              	.LFB4:
 106:Generated_Source\PSoC5/WaveDAC8.c **** 	#endif /* WaveDAC8_CLOCK_SRC == WaveDAC8_CLOCK_INT */
 107:Generated_Source\PSoC5/WaveDAC8.c **** }
 108:Generated_Source\PSoC5/WaveDAC8.c **** 
 109:Generated_Source\PSoC5/WaveDAC8.c **** 
 110:Generated_Source\PSoC5/WaveDAC8.c **** /*******************************************************************************
 111:Generated_Source\PSoC5/WaveDAC8.c **** * Function Name: WaveDAC8_Start
 112:Generated_Source\PSoC5/WaveDAC8.c **** ********************************************************************************
 113:Generated_Source\PSoC5/WaveDAC8.c **** *
 114:Generated_Source\PSoC5/WaveDAC8.c **** * Summary:
 115:Generated_Source\PSoC5/WaveDAC8.c **** *  The start function initializes the voltage DAC with the default values, 
 116:Generated_Source\PSoC5/WaveDAC8.c **** *  and sets the power to the given level.  A power level of 0, is the same as 
 117:Generated_Source\PSoC5/WaveDAC8.c **** *  executing the stop function.
 118:Generated_Source\PSoC5/WaveDAC8.c **** *
 119:Generated_Source\PSoC5/WaveDAC8.c **** * Parameters:  
 120:Generated_Source\PSoC5/WaveDAC8.c **** *  None
 121:Generated_Source\PSoC5/WaveDAC8.c **** *
 122:Generated_Source\PSoC5/WaveDAC8.c **** * Return: 
 123:Generated_Source\PSoC5/WaveDAC8.c **** *  None
 124:Generated_Source\PSoC5/WaveDAC8.c **** *
 125:Generated_Source\PSoC5/WaveDAC8.c **** * Reentrant:
 126:Generated_Source\PSoC5/WaveDAC8.c **** *  No
 127:Generated_Source\PSoC5/WaveDAC8.c **** *
 128:Generated_Source\PSoC5/WaveDAC8.c **** *******************************************************************************/
 129:Generated_Source\PSoC5/WaveDAC8.c **** void WaveDAC8_Start(void) 
 130:Generated_Source\PSoC5/WaveDAC8.c **** {
 131:Generated_Source\PSoC5/WaveDAC8.c **** 	/* If not Initialized then initialize all required hardware and software */
 132:Generated_Source\PSoC5/WaveDAC8.c **** 	if(WaveDAC8_initVar == 0u)
 133:Generated_Source\PSoC5/WaveDAC8.c **** 	{
 134:Generated_Source\PSoC5/WaveDAC8.c **** 		WaveDAC8_Init();
 135:Generated_Source\PSoC5/WaveDAC8.c **** 		WaveDAC8_initVar = 1u;
 136:Generated_Source\PSoC5/WaveDAC8.c **** 	}
 137:Generated_Source\PSoC5/WaveDAC8.c **** 	
 138:Generated_Source\PSoC5/WaveDAC8.c **** 	WaveDAC8_Enable();
 139:Generated_Source\PSoC5/WaveDAC8.c **** }
 140:Generated_Source\PSoC5/WaveDAC8.c **** 
 141:Generated_Source\PSoC5/WaveDAC8.c **** 
 142:Generated_Source\PSoC5/WaveDAC8.c **** /*******************************************************************************
 143:Generated_Source\PSoC5/WaveDAC8.c **** * Function Name: WaveDAC8_StartEx
 144:Generated_Source\PSoC5/WaveDAC8.c **** ********************************************************************************
 145:Generated_Source\PSoC5/WaveDAC8.c **** *
 146:Generated_Source\PSoC5/WaveDAC8.c **** * Summary:
 147:Generated_Source\PSoC5/WaveDAC8.c **** *  The StartEx function sets pointers and sizes for both waveforms
 148:Generated_Source\PSoC5/WaveDAC8.c **** *  and then starts the component.
 149:Generated_Source\PSoC5/WaveDAC8.c **** *
 150:Generated_Source\PSoC5/WaveDAC8.c **** * Parameters:  
 151:Generated_Source\PSoC5/WaveDAC8.c **** *   uint8 * wavePtr1:     Pointer to the waveform 1 array.
 152:Generated_Source\PSoC5/WaveDAC8.c **** *   uint16  sampleSize1:  The amount of samples in the waveform 1.
 153:Generated_Source\PSoC5/WaveDAC8.c **** *   uint8 * wavePtr2:     Pointer to the waveform 2 array.
 154:Generated_Source\PSoC5/WaveDAC8.c **** *   uint16  sampleSize2:  The amount of samples in the waveform 2.
 155:Generated_Source\PSoC5/WaveDAC8.c **** *
 156:Generated_Source\PSoC5/WaveDAC8.c **** * Return: 
ARM GAS  C:\Users\HPz420\AppData\Local\Temp\ccrIsOEi.s 			page 5


 157:Generated_Source\PSoC5/WaveDAC8.c **** *  None
 158:Generated_Source\PSoC5/WaveDAC8.c **** *
 159:Generated_Source\PSoC5/WaveDAC8.c **** * Reentrant:
 160:Generated_Source\PSoC5/WaveDAC8.c **** *  No
 161:Generated_Source\PSoC5/WaveDAC8.c **** *
 162:Generated_Source\PSoC5/WaveDAC8.c **** *******************************************************************************/
 163:Generated_Source\PSoC5/WaveDAC8.c **** void WaveDAC8_StartEx(const uint8 * wavePtr1, uint16 sampleSize1, const uint8 * wavePtr2, uint16 sa
 164:Generated_Source\PSoC5/WaveDAC8.c **** 
 165:Generated_Source\PSoC5/WaveDAC8.c **** {
 166:Generated_Source\PSoC5/WaveDAC8.c **** 	WaveDAC8_Wave1Setup(wavePtr1, sampleSize1);
 167:Generated_Source\PSoC5/WaveDAC8.c **** 	WaveDAC8_Wave2Setup(wavePtr2, sampleSize2);
 168:Generated_Source\PSoC5/WaveDAC8.c **** 	WaveDAC8_Start();
 169:Generated_Source\PSoC5/WaveDAC8.c **** }
 170:Generated_Source\PSoC5/WaveDAC8.c **** 
 171:Generated_Source\PSoC5/WaveDAC8.c **** 
 172:Generated_Source\PSoC5/WaveDAC8.c **** /*******************************************************************************
 173:Generated_Source\PSoC5/WaveDAC8.c **** * Function Name: WaveDAC8_Stop
 174:Generated_Source\PSoC5/WaveDAC8.c **** ********************************************************************************
 175:Generated_Source\PSoC5/WaveDAC8.c **** *
 176:Generated_Source\PSoC5/WaveDAC8.c **** * Summary:
 177:Generated_Source\PSoC5/WaveDAC8.c **** *  Stops the clock (if internal), disables the DMA channels
 178:Generated_Source\PSoC5/WaveDAC8.c **** *  and powers down the DAC.
 179:Generated_Source\PSoC5/WaveDAC8.c **** *
 180:Generated_Source\PSoC5/WaveDAC8.c **** * Parameters:  
 181:Generated_Source\PSoC5/WaveDAC8.c **** *  None  
 182:Generated_Source\PSoC5/WaveDAC8.c **** *
 183:Generated_Source\PSoC5/WaveDAC8.c **** * Return: 
 184:Generated_Source\PSoC5/WaveDAC8.c **** *  None
 185:Generated_Source\PSoC5/WaveDAC8.c **** *
 186:Generated_Source\PSoC5/WaveDAC8.c **** *******************************************************************************/
 187:Generated_Source\PSoC5/WaveDAC8.c **** void WaveDAC8_Stop(void) 
 188:Generated_Source\PSoC5/WaveDAC8.c **** {
  73              		.loc 1 188 0
  74              		.cfi_startproc
  75              		@ args = 0, pretend = 0, frame = 0
  76              		@ frame_needed = 0, uses_anonymous_args = 0
  77 0000 10B5     		push	{r4, lr}
  78              		.cfi_def_cfa_offset 8
  79              		.cfi_offset 4, -8
  80              		.cfi_offset 14, -4
 189:Generated_Source\PSoC5/WaveDAC8.c **** 	/* Turn off internal clock, if one present */
 190:Generated_Source\PSoC5/WaveDAC8.c **** 	#if(WaveDAC8_CLOCK_SRC == WaveDAC8_CLOCK_INT)  	
 191:Generated_Source\PSoC5/WaveDAC8.c **** 	   WaveDAC8_DacClk_Stop();
  81              		.loc 1 191 0
  82 0002 FFF7FEFF 		bl	WaveDAC8_DacClk_Stop
  83              	.LVL5:
 192:Generated_Source\PSoC5/WaveDAC8.c **** 	#endif /* WaveDAC8_CLOCK_SRC == WaveDAC8_CLOCK_INT */
 193:Generated_Source\PSoC5/WaveDAC8.c **** 	
 194:Generated_Source\PSoC5/WaveDAC8.c **** 	/* Disble DMA channels */
 195:Generated_Source\PSoC5/WaveDAC8.c **** 	(void)CyDmaChDisable(WaveDAC8_Wave1Chan);
  84              		.loc 1 195 0
  85 0006 054C     		ldr	r4, .L7
  86 0008 2078     		ldrb	r0, [r4]	@ zero_extendqisi2
  87 000a FFF7FEFF 		bl	CyDmaChDisable
  88              	.LVL6:
 196:Generated_Source\PSoC5/WaveDAC8.c **** 	(void)CyDmaChDisable(WaveDAC8_Wave2Chan);
  89              		.loc 1 196 0
ARM GAS  C:\Users\HPz420\AppData\Local\Temp\ccrIsOEi.s 			page 6


  90 000e 6078     		ldrb	r0, [r4, #1]	@ zero_extendqisi2
  91 0010 FFF7FEFF 		bl	CyDmaChDisable
  92              	.LVL7:
 197:Generated_Source\PSoC5/WaveDAC8.c **** 
 198:Generated_Source\PSoC5/WaveDAC8.c **** 	/* Disable power to DAC */
 199:Generated_Source\PSoC5/WaveDAC8.c **** 	WaveDAC8_VDAC8_Stop();
  93              		.loc 1 199 0
  94 0014 FFF7FEFF 		bl	WaveDAC8_VDAC8_Stop
  95              	.LVL8:
  96 0018 10BD     		pop	{r4, pc}
  97              	.L8:
  98 001a 00BF     		.align	2
  99              	.L7:
 100 001c 00000000 		.word	.LANCHOR0
 101              		.cfi_endproc
 102              	.LFE4:
 103              		.size	WaveDAC8_Stop, .-WaveDAC8_Stop
 104              		.section	.text.WaveDAC8_Wave1Setup,"ax",%progbits
 105              		.align	2
 106              		.global	WaveDAC8_Wave1Setup
 107              		.thumb
 108              		.thumb_func
 109              		.type	WaveDAC8_Wave1Setup, %function
 110              	WaveDAC8_Wave1Setup:
 111              	.LFB5:
 200:Generated_Source\PSoC5/WaveDAC8.c **** }
 201:Generated_Source\PSoC5/WaveDAC8.c **** 
 202:Generated_Source\PSoC5/WaveDAC8.c **** 
 203:Generated_Source\PSoC5/WaveDAC8.c **** /*******************************************************************************
 204:Generated_Source\PSoC5/WaveDAC8.c **** * Function Name: WaveDAC8_Wave1Setup
 205:Generated_Source\PSoC5/WaveDAC8.c **** ********************************************************************************
 206:Generated_Source\PSoC5/WaveDAC8.c **** *
 207:Generated_Source\PSoC5/WaveDAC8.c **** * Summary:
 208:Generated_Source\PSoC5/WaveDAC8.c **** *  Sets pointer and size for waveform 1.                                    
 209:Generated_Source\PSoC5/WaveDAC8.c **** *
 210:Generated_Source\PSoC5/WaveDAC8.c **** * Parameters:  
 211:Generated_Source\PSoC5/WaveDAC8.c **** *  uint8 * WavePtr:     Pointer to the waveform array.
 212:Generated_Source\PSoC5/WaveDAC8.c **** *  uint16  SampleSize:  The amount of samples in the waveform.
 213:Generated_Source\PSoC5/WaveDAC8.c **** *
 214:Generated_Source\PSoC5/WaveDAC8.c **** * Return: 
 215:Generated_Source\PSoC5/WaveDAC8.c **** *  None 
 216:Generated_Source\PSoC5/WaveDAC8.c **** *
 217:Generated_Source\PSoC5/WaveDAC8.c **** *******************************************************************************/
 218:Generated_Source\PSoC5/WaveDAC8.c **** void WaveDAC8_Wave1Setup(const uint8 * wavePtr, uint16 sampleSize)
 219:Generated_Source\PSoC5/WaveDAC8.c **** 
 220:Generated_Source\PSoC5/WaveDAC8.c **** {
 112              		.loc 1 220 0
 113              		.cfi_startproc
 114              		@ args = 0, pretend = 0, frame = 0
 115              		@ frame_needed = 0, uses_anonymous_args = 0
 116              	.LVL9:
 117 0000 70B5     		push	{r4, r5, r6, lr}
 118              		.cfi_def_cfa_offset 16
 119              		.cfi_offset 4, -16
 120              		.cfi_offset 5, -12
 121              		.cfi_offset 6, -8
 122              		.cfi_offset 14, -4
ARM GAS  C:\Users\HPz420\AppData\Local\Temp\ccrIsOEi.s 			page 7


 123 0002 0546     		mov	r5, r0
 124 0004 0E46     		mov	r6, r1
 221:Generated_Source\PSoC5/WaveDAC8.c **** 	#if (CY_PSOC3)
 222:Generated_Source\PSoC5/WaveDAC8.c **** 		uint16 memoryType; /* determining the source memory type */
 223:Generated_Source\PSoC5/WaveDAC8.c **** 		memoryType = (WaveDAC8_HI16FLASHPTR == HI16(wavePtr)) ? HI16(CYDEV_FLS_BASE) : HI16(CYDEV_SRAM_BA
 224:Generated_Source\PSoC5/WaveDAC8.c **** 		
 225:Generated_Source\PSoC5/WaveDAC8.c **** 		WaveDAC8_Wave1Chan = WaveDAC8_Wave1_DMA_DmaInitialize(
 226:Generated_Source\PSoC5/WaveDAC8.c **** 		WaveDAC8_Wave1_DMA_BYTES_PER_BURST, WaveDAC8_Wave1_DMA_REQUEST_PER_BURST,
 227:Generated_Source\PSoC5/WaveDAC8.c **** 		memoryType, HI16(CYDEV_PERIPH_BASE));
 228:Generated_Source\PSoC5/WaveDAC8.c **** 	#else /* PSoC 5 */
 229:Generated_Source\PSoC5/WaveDAC8.c **** 		WaveDAC8_Wave1Chan = WaveDAC8_Wave1_DMA_DmaInitialize(
 125              		.loc 1 229 0
 126 0006 4FF48043 		mov	r3, #16384
 127 000a 020C     		lsrs	r2, r0, #16
 128 000c 0121     		movs	r1, #1
 129              	.LVL10:
 130 000e 0846     		mov	r0, r1
 131              	.LVL11:
 132 0010 FFF7FEFF 		bl	WaveDAC8_Wave1_DMA_DmaInitialize
 133              	.LVL12:
 134 0014 094C     		ldr	r4, .L11
 135 0016 2070     		strb	r0, [r4]
 230:Generated_Source\PSoC5/WaveDAC8.c **** 		WaveDAC8_Wave1_DMA_BYTES_PER_BURST, WaveDAC8_Wave1_DMA_REQUEST_PER_BURST,
 231:Generated_Source\PSoC5/WaveDAC8.c **** 		HI16(wavePtr), HI16(WaveDAC8_DAC8__D));
 232:Generated_Source\PSoC5/WaveDAC8.c **** 	#endif /* CY_PSOC3 */
 233:Generated_Source\PSoC5/WaveDAC8.c **** 	
 234:Generated_Source\PSoC5/WaveDAC8.c **** 	/*
 235:Generated_Source\PSoC5/WaveDAC8.c **** 	* TD is looping on itself. 
 236:Generated_Source\PSoC5/WaveDAC8.c ****     * Increment the source address, but not the destination address. 
 237:Generated_Source\PSoC5/WaveDAC8.c **** 	*/
 238:Generated_Source\PSoC5/WaveDAC8.c **** 	(void)CyDmaTdSetConfiguration(WaveDAC8_Wave1TD, sampleSize, WaveDAC8_Wave1TD, 
 136              		.loc 1 238 0
 137 0018 A078     		ldrb	r0, [r4, #2]	@ zero_extendqisi2
 138 001a 0123     		movs	r3, #1
 139 001c 0246     		mov	r2, r0
 140 001e 3146     		mov	r1, r6
 141 0020 FFF7FEFF 		bl	CyDmaTdSetConfiguration
 142              	.LVL13:
 239:Generated_Source\PSoC5/WaveDAC8.c ****                                     (uint8)CY_DMA_TD_INC_SRC_ADR | (uint8)WaveDAC8_Wave1_DMA__TD_TE
 240:Generated_Source\PSoC5/WaveDAC8.c **** 	
 241:Generated_Source\PSoC5/WaveDAC8.c **** 	/* Set the TD source and destination address */
 242:Generated_Source\PSoC5/WaveDAC8.c **** 	(void)CyDmaTdSetAddress(WaveDAC8_Wave1TD, LO16((uint32)wavePtr), LO16(WaveDAC8_DAC8__D));
 143              		.loc 1 242 0
 144 0024 4FF4B742 		mov	r2, #23424
 145 0028 A9B2     		uxth	r1, r5
 146 002a A078     		ldrb	r0, [r4, #2]	@ zero_extendqisi2
 147 002c FFF7FEFF 		bl	CyDmaTdSetAddress
 148              	.LVL14:
 243:Generated_Source\PSoC5/WaveDAC8.c **** 	
 244:Generated_Source\PSoC5/WaveDAC8.c **** 	/* Associate the TD with the channel */
 245:Generated_Source\PSoC5/WaveDAC8.c **** 	(void)CyDmaChSetInitialTd(WaveDAC8_Wave1Chan, WaveDAC8_Wave1TD);
 149              		.loc 1 245 0
 150 0030 A178     		ldrb	r1, [r4, #2]	@ zero_extendqisi2
 151 0032 2078     		ldrb	r0, [r4]	@ zero_extendqisi2
 152 0034 FFF7FEFF 		bl	CyDmaChSetInitialTd
 153              	.LVL15:
 154 0038 70BD     		pop	{r4, r5, r6, pc}
ARM GAS  C:\Users\HPz420\AppData\Local\Temp\ccrIsOEi.s 			page 8


 155              	.LVL16:
 156              	.L12:
 157 003a 00BF     		.align	2
 158              	.L11:
 159 003c 00000000 		.word	.LANCHOR0
 160              		.cfi_endproc
 161              	.LFE5:
 162              		.size	WaveDAC8_Wave1Setup, .-WaveDAC8_Wave1Setup
 163              		.section	.text.WaveDAC8_Wave2Setup,"ax",%progbits
 164              		.align	2
 165              		.global	WaveDAC8_Wave2Setup
 166              		.thumb
 167              		.thumb_func
 168              		.type	WaveDAC8_Wave2Setup, %function
 169              	WaveDAC8_Wave2Setup:
 170              	.LFB6:
 246:Generated_Source\PSoC5/WaveDAC8.c **** }
 247:Generated_Source\PSoC5/WaveDAC8.c **** 
 248:Generated_Source\PSoC5/WaveDAC8.c **** 
 249:Generated_Source\PSoC5/WaveDAC8.c **** /*******************************************************************************
 250:Generated_Source\PSoC5/WaveDAC8.c **** * Function Name: WaveDAC8_Wave2Setup
 251:Generated_Source\PSoC5/WaveDAC8.c **** ********************************************************************************
 252:Generated_Source\PSoC5/WaveDAC8.c **** *
 253:Generated_Source\PSoC5/WaveDAC8.c **** * Summary:
 254:Generated_Source\PSoC5/WaveDAC8.c **** *  Sets pointer and size for waveform 2.                                    
 255:Generated_Source\PSoC5/WaveDAC8.c **** *
 256:Generated_Source\PSoC5/WaveDAC8.c **** * Parameters:  
 257:Generated_Source\PSoC5/WaveDAC8.c **** *  uint8 * WavePtr:     Pointer to the waveform array.
 258:Generated_Source\PSoC5/WaveDAC8.c **** *  uint16  SampleSize:  The amount of samples in the waveform.
 259:Generated_Source\PSoC5/WaveDAC8.c **** *
 260:Generated_Source\PSoC5/WaveDAC8.c **** * Return: 
 261:Generated_Source\PSoC5/WaveDAC8.c **** *  None
 262:Generated_Source\PSoC5/WaveDAC8.c **** *
 263:Generated_Source\PSoC5/WaveDAC8.c **** *******************************************************************************/
 264:Generated_Source\PSoC5/WaveDAC8.c **** void WaveDAC8_Wave2Setup(const uint8 * wavePtr, uint16 sampleSize)
 265:Generated_Source\PSoC5/WaveDAC8.c ****  
 266:Generated_Source\PSoC5/WaveDAC8.c **** {
 171              		.loc 1 266 0
 172              		.cfi_startproc
 173              		@ args = 0, pretend = 0, frame = 0
 174              		@ frame_needed = 0, uses_anonymous_args = 0
 175              	.LVL17:
 176 0000 70B5     		push	{r4, r5, r6, lr}
 177              		.cfi_def_cfa_offset 16
 178              		.cfi_offset 4, -16
 179              		.cfi_offset 5, -12
 180              		.cfi_offset 6, -8
 181              		.cfi_offset 14, -4
 182 0002 0546     		mov	r5, r0
 183 0004 0E46     		mov	r6, r1
 267:Generated_Source\PSoC5/WaveDAC8.c **** 	#if (CY_PSOC3)
 268:Generated_Source\PSoC5/WaveDAC8.c **** 		uint16 memoryType; /* determining the source memory type */
 269:Generated_Source\PSoC5/WaveDAC8.c **** 		memoryType = (WaveDAC8_HI16FLASHPTR == HI16(wavePtr)) ? HI16(CYDEV_FLS_BASE) : HI16(CYDEV_SRAM_BA
 270:Generated_Source\PSoC5/WaveDAC8.c **** 			
 271:Generated_Source\PSoC5/WaveDAC8.c **** 		WaveDAC8_Wave2Chan = WaveDAC8_Wave2_DMA_DmaInitialize(
 272:Generated_Source\PSoC5/WaveDAC8.c **** 		WaveDAC8_Wave2_DMA_BYTES_PER_BURST, WaveDAC8_Wave2_DMA_REQUEST_PER_BURST,
 273:Generated_Source\PSoC5/WaveDAC8.c **** 		memoryType, HI16(CYDEV_PERIPH_BASE));
ARM GAS  C:\Users\HPz420\AppData\Local\Temp\ccrIsOEi.s 			page 9


 274:Generated_Source\PSoC5/WaveDAC8.c **** 	#else /* PSoC 5 */
 275:Generated_Source\PSoC5/WaveDAC8.c **** 		WaveDAC8_Wave2Chan = WaveDAC8_Wave2_DMA_DmaInitialize(
 184              		.loc 1 275 0
 185 0006 4FF48043 		mov	r3, #16384
 186 000a 020C     		lsrs	r2, r0, #16
 187 000c 0121     		movs	r1, #1
 188              	.LVL18:
 189 000e 0846     		mov	r0, r1
 190              	.LVL19:
 191 0010 FFF7FEFF 		bl	WaveDAC8_Wave2_DMA_DmaInitialize
 192              	.LVL20:
 193 0014 094C     		ldr	r4, .L15
 194 0016 6070     		strb	r0, [r4, #1]
 276:Generated_Source\PSoC5/WaveDAC8.c **** 		WaveDAC8_Wave2_DMA_BYTES_PER_BURST, WaveDAC8_Wave2_DMA_REQUEST_PER_BURST,
 277:Generated_Source\PSoC5/WaveDAC8.c **** 		HI16(wavePtr), HI16(WaveDAC8_DAC8__D));
 278:Generated_Source\PSoC5/WaveDAC8.c **** 	#endif /* CY_PSOC3 */
 279:Generated_Source\PSoC5/WaveDAC8.c **** 	
 280:Generated_Source\PSoC5/WaveDAC8.c **** 	/*
 281:Generated_Source\PSoC5/WaveDAC8.c **** 	* TD is looping on itself. 
 282:Generated_Source\PSoC5/WaveDAC8.c **** 	* Increment the source address, but not the destination address. 
 283:Generated_Source\PSoC5/WaveDAC8.c **** 	*/
 284:Generated_Source\PSoC5/WaveDAC8.c **** 	(void)CyDmaTdSetConfiguration(WaveDAC8_Wave2TD, sampleSize, WaveDAC8_Wave2TD, 
 195              		.loc 1 284 0
 196 0018 E078     		ldrb	r0, [r4, #3]	@ zero_extendqisi2
 197 001a 0123     		movs	r3, #1
 198 001c 0246     		mov	r2, r0
 199 001e 3146     		mov	r1, r6
 200 0020 FFF7FEFF 		bl	CyDmaTdSetConfiguration
 201              	.LVL21:
 285:Generated_Source\PSoC5/WaveDAC8.c ****                                     (uint8)CY_DMA_TD_INC_SRC_ADR | (uint8)WaveDAC8_Wave2_DMA__TD_TE
 286:Generated_Source\PSoC5/WaveDAC8.c **** 	
 287:Generated_Source\PSoC5/WaveDAC8.c **** 	/* Set the TD source and destination address */
 288:Generated_Source\PSoC5/WaveDAC8.c **** 	(void)CyDmaTdSetAddress(WaveDAC8_Wave2TD, LO16((uint32)wavePtr), LO16(WaveDAC8_DAC8__D));
 202              		.loc 1 288 0
 203 0024 4FF4B742 		mov	r2, #23424
 204 0028 A9B2     		uxth	r1, r5
 205 002a E078     		ldrb	r0, [r4, #3]	@ zero_extendqisi2
 206 002c FFF7FEFF 		bl	CyDmaTdSetAddress
 207              	.LVL22:
 289:Generated_Source\PSoC5/WaveDAC8.c **** 	
 290:Generated_Source\PSoC5/WaveDAC8.c **** 	/* Associate the TD with the channel */
 291:Generated_Source\PSoC5/WaveDAC8.c **** 	(void)CyDmaChSetInitialTd(WaveDAC8_Wave2Chan, WaveDAC8_Wave2TD);
 208              		.loc 1 291 0
 209 0030 E178     		ldrb	r1, [r4, #3]	@ zero_extendqisi2
 210 0032 6078     		ldrb	r0, [r4, #1]	@ zero_extendqisi2
 211 0034 FFF7FEFF 		bl	CyDmaChSetInitialTd
 212              	.LVL23:
 213 0038 70BD     		pop	{r4, r5, r6, pc}
 214              	.LVL24:
 215              	.L16:
 216 003a 00BF     		.align	2
 217              	.L15:
 218 003c 00000000 		.word	.LANCHOR0
 219              		.cfi_endproc
 220              	.LFE6:
 221              		.size	WaveDAC8_Wave2Setup, .-WaveDAC8_Wave2Setup
 222              		.section	.text.WaveDAC8_Init,"ax",%progbits
ARM GAS  C:\Users\HPz420\AppData\Local\Temp\ccrIsOEi.s 			page 10


 223              		.align	2
 224              		.global	WaveDAC8_Init
 225              		.thumb
 226              		.thumb_func
 227              		.type	WaveDAC8_Init, %function
 228              	WaveDAC8_Init:
 229              	.LFB0:
  44:Generated_Source\PSoC5/WaveDAC8.c **** 	WaveDAC8_VDAC8_Init();
 230              		.loc 1 44 0
 231              		.cfi_startproc
 232              		@ args = 0, pretend = 0, frame = 0
 233              		@ frame_needed = 0, uses_anonymous_args = 0
 234 0000 10B5     		push	{r4, lr}
 235              		.cfi_def_cfa_offset 8
 236              		.cfi_offset 4, -8
 237              		.cfi_offset 14, -4
  45:Generated_Source\PSoC5/WaveDAC8.c **** 	WaveDAC8_VDAC8_SetSpeed(WaveDAC8_HIGHSPEED);
 238              		.loc 1 45 0
 239 0002 FFF7FEFF 		bl	WaveDAC8_VDAC8_Init
 240              	.LVL25:
  46:Generated_Source\PSoC5/WaveDAC8.c **** 	WaveDAC8_VDAC8_SetRange(WaveDAC8_DAC_RANGE);
 241              		.loc 1 46 0
 242 0006 0220     		movs	r0, #2
 243 0008 FFF7FEFF 		bl	WaveDAC8_VDAC8_SetSpeed
 244              	.LVL26:
  47:Generated_Source\PSoC5/WaveDAC8.c **** 
 245              		.loc 1 47 0
 246 000c 0020     		movs	r0, #0
 247 000e FFF7FEFF 		bl	WaveDAC8_VDAC8_SetRange
 248              	.LVL27:
  58:Generated_Source\PSoC5/WaveDAC8.c **** 	WaveDAC8_Wave2TD = CyDmaTdAllocate();
 249              		.loc 1 58 0
 250 0012 FFF7FEFF 		bl	CyDmaTdAllocate
 251              	.LVL28:
 252 0016 074C     		ldr	r4, .L19
 253 0018 A070     		strb	r0, [r4, #2]
  59:Generated_Source\PSoC5/WaveDAC8.c **** 	
 254              		.loc 1 59 0
 255 001a FFF7FEFF 		bl	CyDmaTdAllocate
 256              	.LVL29:
 257 001e E070     		strb	r0, [r4, #3]
  62:Generated_Source\PSoC5/WaveDAC8.c **** 	WaveDAC8_Wave2Setup(WaveDAC8_wave2, WaveDAC8_WAVE2_LENGTH) ;
 258              		.loc 1 62 0
 259 0020 054C     		ldr	r4, .L19+4
 260 0022 6421     		movs	r1, #100
 261 0024 2046     		mov	r0, r4
 262 0026 FFF7FEFF 		bl	WaveDAC8_Wave1Setup
 263              	.LVL30:
  63:Generated_Source\PSoC5/WaveDAC8.c **** 	
 264              		.loc 1 63 0
 265 002a 6421     		movs	r1, #100
 266 002c 6018     		adds	r0, r4, r1
 267 002e FFF7FEFF 		bl	WaveDAC8_Wave2Setup
 268              	.LVL31:
 269 0032 10BD     		pop	{r4, pc}
 270              	.L20:
 271              		.align	2
ARM GAS  C:\Users\HPz420\AppData\Local\Temp\ccrIsOEi.s 			page 11


 272              	.L19:
 273 0034 00000000 		.word	.LANCHOR0
 274 0038 00000000 		.word	.LANCHOR1
 275              		.cfi_endproc
 276              	.LFE0:
 277              		.size	WaveDAC8_Init, .-WaveDAC8_Init
 278              		.section	.text.WaveDAC8_Start,"ax",%progbits
 279              		.align	2
 280              		.global	WaveDAC8_Start
 281              		.thumb
 282              		.thumb_func
 283              		.type	WaveDAC8_Start, %function
 284              	WaveDAC8_Start:
 285              	.LFB2:
 130:Generated_Source\PSoC5/WaveDAC8.c **** 	/* If not Initialized then initialize all required hardware and software */
 286              		.loc 1 130 0
 287              		.cfi_startproc
 288              		@ args = 0, pretend = 0, frame = 0
 289              		@ frame_needed = 0, uses_anonymous_args = 0
 290 0000 08B5     		push	{r3, lr}
 291              		.cfi_def_cfa_offset 8
 292              		.cfi_offset 3, -8
 293              		.cfi_offset 14, -4
 132:Generated_Source\PSoC5/WaveDAC8.c **** 	{
 294              		.loc 1 132 0
 295 0002 054B     		ldr	r3, .L24
 296 0004 1B79     		ldrb	r3, [r3, #4]	@ zero_extendqisi2
 297 0006 23B9     		cbnz	r3, .L22
 134:Generated_Source\PSoC5/WaveDAC8.c **** 		WaveDAC8_initVar = 1u;
 298              		.loc 1 134 0
 299 0008 FFF7FEFF 		bl	WaveDAC8_Init
 300              	.LVL32:
 135:Generated_Source\PSoC5/WaveDAC8.c **** 	}
 301              		.loc 1 135 0
 302 000c 0122     		movs	r2, #1
 303 000e 024B     		ldr	r3, .L24
 304 0010 1A71     		strb	r2, [r3, #4]
 305              	.L22:
 138:Generated_Source\PSoC5/WaveDAC8.c **** }
 306              		.loc 1 138 0
 307 0012 FFF7FEFF 		bl	WaveDAC8_Enable
 308              	.LVL33:
 309 0016 08BD     		pop	{r3, pc}
 310              	.L25:
 311              		.align	2
 312              	.L24:
 313 0018 00000000 		.word	.LANCHOR0
 314              		.cfi_endproc
 315              	.LFE2:
 316              		.size	WaveDAC8_Start, .-WaveDAC8_Start
 317              		.section	.text.WaveDAC8_StartEx,"ax",%progbits
 318              		.align	2
 319              		.global	WaveDAC8_StartEx
 320              		.thumb
 321              		.thumb_func
 322              		.type	WaveDAC8_StartEx, %function
 323              	WaveDAC8_StartEx:
ARM GAS  C:\Users\HPz420\AppData\Local\Temp\ccrIsOEi.s 			page 12


 324              	.LFB3:
 165:Generated_Source\PSoC5/WaveDAC8.c **** 	WaveDAC8_Wave1Setup(wavePtr1, sampleSize1);
 325              		.loc 1 165 0
 326              		.cfi_startproc
 327              		@ args = 0, pretend = 0, frame = 0
 328              		@ frame_needed = 0, uses_anonymous_args = 0
 329              	.LVL34:
 330 0000 38B5     		push	{r3, r4, r5, lr}
 331              		.cfi_def_cfa_offset 16
 332              		.cfi_offset 3, -16
 333              		.cfi_offset 4, -12
 334              		.cfi_offset 5, -8
 335              		.cfi_offset 14, -4
 336 0002 1446     		mov	r4, r2
 337 0004 1D46     		mov	r5, r3
 166:Generated_Source\PSoC5/WaveDAC8.c **** 	WaveDAC8_Wave2Setup(wavePtr2, sampleSize2);
 338              		.loc 1 166 0
 339 0006 FFF7FEFF 		bl	WaveDAC8_Wave1Setup
 340              	.LVL35:
 167:Generated_Source\PSoC5/WaveDAC8.c **** 	WaveDAC8_Start();
 341              		.loc 1 167 0
 342 000a 2946     		mov	r1, r5
 343 000c 2046     		mov	r0, r4
 344 000e FFF7FEFF 		bl	WaveDAC8_Wave2Setup
 345              	.LVL36:
 168:Generated_Source\PSoC5/WaveDAC8.c **** }
 346              		.loc 1 168 0
 347 0012 FFF7FEFF 		bl	WaveDAC8_Start
 348              	.LVL37:
 349 0016 38BD     		pop	{r3, r4, r5, pc}
 350              		.cfi_endproc
 351              	.LFE3:
 352              		.size	WaveDAC8_StartEx, .-WaveDAC8_StartEx
 353              		.global	WaveDAC8_wave2
 354              		.global	WaveDAC8_wave1
 355              		.global	WaveDAC8_initVar
 356              		.section	.rodata
 357              		.align	2
 358              		.set	.LANCHOR1,. + 0
 359              		.type	WaveDAC8_wave1, %object
 360              		.size	WaveDAC8_wave1, 100
 361              	WaveDAC8_wave1:
 362 0000 80       		.byte	-128
 363 0001 87       		.byte	-121
 364 0002 8F       		.byte	-113
 365 0003 97       		.byte	-105
 366 0004 9F       		.byte	-97
 367 0005 A6       		.byte	-90
 368 0006 AE       		.byte	-82
 369 0007 B5       		.byte	-75
 370 0008 BC       		.byte	-68
 371 0009 C2       		.byte	-62
 372 000a C9       		.byte	-55
 373 000b CF       		.byte	-49
 374 000c D5       		.byte	-43
 375 000d DB       		.byte	-37
 376 000e E0       		.byte	-32
ARM GAS  C:\Users\HPz420\AppData\Local\Temp\ccrIsOEi.s 			page 13


 377 000f E5       		.byte	-27
 378 0010 E9       		.byte	-23
 379 0011 ED       		.byte	-19
 380 0012 F1       		.byte	-15
 381 0013 F4       		.byte	-12
 382 0014 F6       		.byte	-10
 383 0015 F9       		.byte	-7
 384 0016 FA       		.byte	-6
 385 0017 FC       		.byte	-4
 386 0018 FC       		.byte	-4
 387 0019 FC       		.byte	-4
 388 001a FC       		.byte	-4
 389 001b FC       		.byte	-4
 390 001c FA       		.byte	-6
 391 001d F9       		.byte	-7
 392 001e F6       		.byte	-10
 393 001f F4       		.byte	-12
 394 0020 F1       		.byte	-15
 395 0021 ED       		.byte	-19
 396 0022 E9       		.byte	-23
 397 0023 E5       		.byte	-27
 398 0024 E0       		.byte	-32
 399 0025 DB       		.byte	-37
 400 0026 D5       		.byte	-43
 401 0027 CF       		.byte	-49
 402 0028 C9       		.byte	-55
 403 0029 C2       		.byte	-62
 404 002a BC       		.byte	-68
 405 002b B5       		.byte	-75
 406 002c AE       		.byte	-82
 407 002d A6       		.byte	-90
 408 002e 9F       		.byte	-97
 409 002f 97       		.byte	-105
 410 0030 8F       		.byte	-113
 411 0031 87       		.byte	-121
 412 0032 80       		.byte	-128
 413 0033 78       		.byte	120
 414 0034 70       		.byte	112
 415 0035 68       		.byte	104
 416 0036 60       		.byte	96
 417 0037 59       		.byte	89
 418 0038 51       		.byte	81
 419 0039 4A       		.byte	74
 420 003a 43       		.byte	67
 421 003b 3D       		.byte	61
 422 003c 36       		.byte	54
 423 003d 30       		.byte	48
 424 003e 2A       		.byte	42
 425 003f 24       		.byte	36
 426 0040 1F       		.byte	31
 427 0041 1A       		.byte	26
 428 0042 16       		.byte	22
 429 0043 12       		.byte	18
 430 0044 0E       		.byte	14
 431 0045 0B       		.byte	11
 432 0046 09       		.byte	9
 433 0047 06       		.byte	6
ARM GAS  C:\Users\HPz420\AppData\Local\Temp\ccrIsOEi.s 			page 14


 434 0048 05       		.byte	5
 435 0049 03       		.byte	3
 436 004a 03       		.byte	3
 437 004b 03       		.byte	3
 438 004c 03       		.byte	3
 439 004d 03       		.byte	3
 440 004e 05       		.byte	5
 441 004f 06       		.byte	6
 442 0050 09       		.byte	9
 443 0051 0B       		.byte	11
 444 0052 0E       		.byte	14
 445 0053 12       		.byte	18
 446 0054 16       		.byte	22
 447 0055 1A       		.byte	26
 448 0056 1F       		.byte	31
 449 0057 24       		.byte	36
 450 0058 2A       		.byte	42
 451 0059 30       		.byte	48
 452 005a 36       		.byte	54
 453 005b 3D       		.byte	61
 454 005c 43       		.byte	67
 455 005d 4A       		.byte	74
 456 005e 51       		.byte	81
 457 005f 59       		.byte	89
 458 0060 60       		.byte	96
 459 0061 68       		.byte	104
 460 0062 70       		.byte	112
 461 0063 78       		.byte	120
 462              		.type	WaveDAC8_wave2, %object
 463              		.size	WaveDAC8_wave2, 100
 464              	WaveDAC8_wave2:
 465 0064 80       		.byte	-128
 466 0065 85       		.byte	-123
 467 0066 8A       		.byte	-118
 468 0067 8F       		.byte	-113
 469 0068 94       		.byte	-108
 470 0069 99       		.byte	-103
 471 006a 9E       		.byte	-98
 472 006b A3       		.byte	-93
 473 006c A8       		.byte	-88
 474 006d AD       		.byte	-83
 475 006e B2       		.byte	-78
 476 006f B8       		.byte	-72
 477 0070 BD       		.byte	-67
 478 0071 C2       		.byte	-62
 479 0072 C7       		.byte	-57
 480 0073 CC       		.byte	-52
 481 0074 D1       		.byte	-47
 482 0075 D6       		.byte	-42
 483 0076 DB       		.byte	-37
 484 0077 E0       		.byte	-32
 485 0078 E6       		.byte	-26
 486 0079 EB       		.byte	-21
 487 007a F0       		.byte	-16
 488 007b F5       		.byte	-11
 489 007c FA       		.byte	-6
 490 007d FF       		.byte	-1
ARM GAS  C:\Users\HPz420\AppData\Local\Temp\ccrIsOEi.s 			page 15


 491 007e FA       		.byte	-6
 492 007f F5       		.byte	-11
 493 0080 F0       		.byte	-16
 494 0081 EB       		.byte	-21
 495 0082 E6       		.byte	-26
 496 0083 E0       		.byte	-32
 497 0084 DB       		.byte	-37
 498 0085 D6       		.byte	-42
 499 0086 D1       		.byte	-47
 500 0087 CC       		.byte	-52
 501 0088 C7       		.byte	-57
 502 0089 C2       		.byte	-62
 503 008a BD       		.byte	-67
 504 008b B8       		.byte	-72
 505 008c B2       		.byte	-78
 506 008d AD       		.byte	-83
 507 008e A8       		.byte	-88
 508 008f A3       		.byte	-93
 509 0090 9E       		.byte	-98
 510 0091 99       		.byte	-103
 511 0092 94       		.byte	-108
 512 0093 8F       		.byte	-113
 513 0094 8A       		.byte	-118
 514 0095 85       		.byte	-123
 515 0096 80       		.byte	-128
 516 0097 7A       		.byte	122
 517 0098 75       		.byte	117
 518 0099 70       		.byte	112
 519 009a 6B       		.byte	107
 520 009b 66       		.byte	102
 521 009c 61       		.byte	97
 522 009d 5C       		.byte	92
 523 009e 57       		.byte	87
 524 009f 52       		.byte	82
 525 00a0 4C       		.byte	76
 526 00a1 47       		.byte	71
 527 00a2 42       		.byte	66
 528 00a3 3D       		.byte	61
 529 00a4 38       		.byte	56
 530 00a5 33       		.byte	51
 531 00a6 2E       		.byte	46
 532 00a7 29       		.byte	41
 533 00a8 24       		.byte	36
 534 00a9 1F       		.byte	31
 535 00aa 19       		.byte	25
 536 00ab 14       		.byte	20
 537 00ac 0F       		.byte	15
 538 00ad 0A       		.byte	10
 539 00ae 05       		.byte	5
 540 00af 00       		.byte	0
 541 00b0 05       		.byte	5
 542 00b1 0A       		.byte	10
 543 00b2 0F       		.byte	15
 544 00b3 14       		.byte	20
 545 00b4 19       		.byte	25
 546 00b5 1F       		.byte	31
 547 00b6 24       		.byte	36
ARM GAS  C:\Users\HPz420\AppData\Local\Temp\ccrIsOEi.s 			page 16


 548 00b7 29       		.byte	41
 549 00b8 2E       		.byte	46
 550 00b9 33       		.byte	51
 551 00ba 38       		.byte	56
 552 00bb 3D       		.byte	61
 553 00bc 42       		.byte	66
 554 00bd 47       		.byte	71
 555 00be 4D       		.byte	77
 556 00bf 52       		.byte	82
 557 00c0 57       		.byte	87
 558 00c1 5C       		.byte	92
 559 00c2 61       		.byte	97
 560 00c3 66       		.byte	102
 561 00c4 6B       		.byte	107
 562 00c5 70       		.byte	112
 563 00c6 75       		.byte	117
 564 00c7 7A       		.byte	122
 565              		.bss
 566              		.set	.LANCHOR0,. + 0
 567              		.type	WaveDAC8_Wave1Chan, %object
 568              		.size	WaveDAC8_Wave1Chan, 1
 569              	WaveDAC8_Wave1Chan:
 570 0000 00       		.space	1
 571              		.type	WaveDAC8_Wave2Chan, %object
 572              		.size	WaveDAC8_Wave2Chan, 1
 573              	WaveDAC8_Wave2Chan:
 574 0001 00       		.space	1
 575              		.type	WaveDAC8_Wave1TD, %object
 576              		.size	WaveDAC8_Wave1TD, 1
 577              	WaveDAC8_Wave1TD:
 578 0002 00       		.space	1
 579              		.type	WaveDAC8_Wave2TD, %object
 580              		.size	WaveDAC8_Wave2TD, 1
 581              	WaveDAC8_Wave2TD:
 582 0003 00       		.space	1
 583              		.type	WaveDAC8_initVar, %object
 584              		.size	WaveDAC8_initVar, 1
 585              	WaveDAC8_initVar:
 586 0004 00       		.space	1
 587              		.text
 588              	.Letext0:
 589              		.file 2 "Generated_Source\\PSoC5\\cytypes.h"
 590              		.file 3 "Generated_Source\\PSoC5/WaveDAC8_VDAC8.h"
 591              		.file 4 "Generated_Source\\PSoC5/CYDMAC.H"
 592              		.file 5 "Generated_Source\\PSoC5/WaveDAC8_DacClk.h"
 593              		.file 6 "Generated_Source\\PSoC5/WaveDAC8_Wave1_DMA_dma.h"
 594              		.file 7 "Generated_Source\\PSoC5/WaveDAC8_Wave2_DMA_dma.h"