ARM GAS  C:\Users\HPz420\AppData\Local\Temp\cc5XZsEj.s 			page 1


   1              		.syntax unified
   2              		.cpu cortex-m3
   3              		.fpu softvfp
   4              		.eabi_attribute 20, 1
   5              		.eabi_attribute 21, 1
   6              		.eabi_attribute 23, 3
   7              		.eabi_attribute 24, 1
   8              		.eabi_attribute 25, 1
   9              		.eabi_attribute 26, 1
  10              		.eabi_attribute 30, 1
  11              		.eabi_attribute 34, 1
  12              		.eabi_attribute 18, 4
  13              		.thumb
  14              		.syntax unified
  15              		.file	"Z80_SDCard_Emul.c"
  16              		.text
  17              	.Ltext0:
  18              		.cfi_sections	.debug_frame
  19              		.section	.text.SDReadData,"ax",%progbits
  20              		.align	2
  21              		.global	SDReadData
  22              		.thumb
  23              		.thumb_func
  24              		.type	SDReadData, %function
  25              	SDReadData:
  26              	.LFB63:
  27              		.file 1 "Z80_SDCard_Emul.c"
   1:Z80_SDCard_Emul.c **** /* ========================================
   2:Z80_SDCard_Emul.c ****  *
   3:Z80_SDCard_Emul.c ****  * Copyright LAND BOARDS, LLC, 2019
   4:Z80_SDCard_Emul.c ****  * All Rights Reserved
   5:Z80_SDCard_Emul.c ****  * UNPUBLISHED, LICENSED SOFTWARE.
   6:Z80_SDCard_Emul.c ****  *
   7:Z80_SDCard_Emul.c ****  * CONFIDENTIAL AND PROPRIETARY INFORMATION
   8:Z80_SDCard_Emul.c ****  * WHICH IS THE PROPERTY OF Land Boards, LLC.
   9:Z80_SDCard_Emul.c ****  *
  10:Z80_SDCard_Emul.c ****  * ========================================
  11:Z80_SDCard_Emul.c **** */
  12:Z80_SDCard_Emul.c **** 
  13:Z80_SDCard_Emul.c **** /////////////////////////////////////////////////////////////////////////////////
  14:Z80_SDCard_Emul.c **** // Routines to control SD and SDHC cards
  15:Z80_SDCard_Emul.c **** 
  16:Z80_SDCard_Emul.c **** #include <project.h>
  17:Z80_SDCard_Emul.c **** #include <Z80_PSoC_3Chips.h>
  18:Z80_SDCard_Emul.c **** 
  19:Z80_SDCard_Emul.c **** #ifdef USING_SDCARD
  20:Z80_SDCard_Emul.c **** 
  21:Z80_SDCard_Emul.c **** volatile uint8 SD_DataOut;
  22:Z80_SDCard_Emul.c **** volatile uint8 SD_DataIn;
  23:Z80_SDCard_Emul.c **** volatile uint8 SD_Status;
  24:Z80_SDCard_Emul.c **** volatile uint8 SD_Command;
  25:Z80_SDCard_Emul.c **** volatile uint8 SD_LBA0_Val;
  26:Z80_SDCard_Emul.c **** volatile uint8 SD_LBA1_Val;
  27:Z80_SDCard_Emul.c **** volatile uint8 SD_LBA2_Val;
  28:Z80_SDCard_Emul.c **** volatile uint8 SD_LBA3_Val;
  29:Z80_SDCard_Emul.c **** volatile uint32 writeSectorNumber;
  30:Z80_SDCard_Emul.c ****     
ARM GAS  C:\Users\HPz420\AppData\Local\Temp\cc5XZsEj.s 			page 2


  31:Z80_SDCard_Emul.c **** ///////////////////////////////////////////////////////////////////////////////
  32:Z80_SDCard_Emul.c **** // void SDReadData(void)
  33:Z80_SDCard_Emul.c **** // SD_DATA		.EQU	$88
  34:Z80_SDCard_Emul.c **** 
  35:Z80_SDCard_Emul.c **** void SDReadData(void)
  36:Z80_SDCard_Emul.c **** {
  28              		.loc 1 36 0
  29              		.cfi_startproc
  30              		@ args = 0, pretend = 0, frame = 0
  31              		@ frame_needed = 0, uses_anonymous_args = 0
  32 0000 10B5     		push	{r4, lr}
  33              		.cfi_def_cfa_offset 8
  34              		.cfi_offset 4, -8
  35              		.cfi_offset 14, -4
  37:Z80_SDCard_Emul.c ****     Z80_Data_In_Write(readSDBuffer[readPointer++]);
  36              		.loc 1 37 0
  37 0002 094C     		ldr	r4, .L4
  38 0004 2388     		ldrh	r3, [r4]
  39 0006 5A1C     		adds	r2, r3, #1
  40 0008 2280     		strh	r2, [r4]	@ movhi
  41 000a 084A     		ldr	r2, .L4+4
  42 000c D05C     		ldrb	r0, [r2, r3]	@ zero_extendqisi2
  43 000e FFF7FEFF 		bl	Z80_Data_In_Write
  44              	.LVL0:
  38:Z80_SDCard_Emul.c ****     if (readPointer == 512)
  45              		.loc 1 38 0
  46 0012 2388     		ldrh	r3, [r4]
  47 0014 B3F5007F 		cmp	r3, #512
  48 0018 02D1     		bne	.L2
  39:Z80_SDCard_Emul.c ****         SD_Status = 0x80;   // Read the last byte
  49              		.loc 1 39 0
  50 001a 8022     		movs	r2, #128
  51 001c 044B     		ldr	r3, .L4+8
  52 001e 1A70     		strb	r2, [r3]
  53              	.L2:
  40:Z80_SDCard_Emul.c ****     ackIO();
  54              		.loc 1 40 0
  55 0020 FFF7FEFF 		bl	ackIO
  56              	.LVL1:
  57 0024 10BD     		pop	{r4, pc}
  58              	.L5:
  59 0026 00BF     		.align	2
  60              	.L4:
  61 0028 00000000 		.word	readPointer
  62 002c 00000000 		.word	readSDBuffer
  63 0030 00000000 		.word	SD_Status
  64              		.cfi_endproc
  65              	.LFE63:
  66              		.size	SDReadData, .-SDReadData
  67              		.section	.text.SDWriteData,"ax",%progbits
  68              		.align	2
  69              		.global	SDWriteData
  70              		.thumb
  71              		.thumb_func
  72              		.type	SDWriteData, %function
  73              	SDWriteData:
  74              	.LFB64:
ARM GAS  C:\Users\HPz420\AppData\Local\Temp\cc5XZsEj.s 			page 3


  41:Z80_SDCard_Emul.c ****     return;
  42:Z80_SDCard_Emul.c **** }
  43:Z80_SDCard_Emul.c **** 
  44:Z80_SDCard_Emul.c **** ///////////////////////////////////////////////////////////////////////////////
  45:Z80_SDCard_Emul.c **** // void CFWriteData(void)
  46:Z80_SDCard_Emul.c **** // SD_DATA		.EQU	$88
  47:Z80_SDCard_Emul.c ****     
  48:Z80_SDCard_Emul.c **** void SDWriteData(void)
  49:Z80_SDCard_Emul.c **** {
  75              		.loc 1 49 0
  76              		.cfi_startproc
  77              		@ args = 0, pretend = 0, frame = 0
  78              		@ frame_needed = 0, uses_anonymous_args = 0
  79 0000 38B5     		push	{r3, r4, r5, lr}
  80              		.cfi_def_cfa_offset 16
  81              		.cfi_offset 3, -16
  82              		.cfi_offset 4, -12
  83              		.cfi_offset 5, -8
  84              		.cfi_offset 14, -4
  50:Z80_SDCard_Emul.c ****     writeSDBuffer[writePointer++] = Z80_Data_Out_Read();    // put into the write buffer
  85              		.loc 1 50 0
  86 0002 0D4C     		ldr	r4, .L10
  87 0004 2588     		ldrh	r5, [r4]
  88 0006 6B1C     		adds	r3, r5, #1
  89 0008 2380     		strh	r3, [r4]	@ movhi
  90 000a FFF7FEFF 		bl	Z80_Data_Out_Read
  91              	.LVL2:
  92 000e 0B4B     		ldr	r3, .L10+4
  93 0010 5855     		strb	r0, [r3, r5]
  51:Z80_SDCard_Emul.c ****     if (writePointer == 512)    // triggger write after 512 bytes of data
  94              		.loc 1 51 0
  95 0012 2388     		ldrh	r3, [r4]
  96 0014 B3F5007F 		cmp	r3, #512
  97 0018 08D1     		bne	.L7
  52:Z80_SDCard_Emul.c ****     {
  53:Z80_SDCard_Emul.c ****         SD_Status = 0x80;
  98              		.loc 1 53 0
  99 001a 8022     		movs	r2, #128
 100 001c 084B     		ldr	r3, .L10+8
 101 001e 1A70     		strb	r2, [r3]
  54:Z80_SDCard_Emul.c ****         SD_WriteSector(writeSectorNumber,writeSDBuffer);
 102              		.loc 1 54 0
 103 0020 084B     		ldr	r3, .L10+12
 104 0022 1868     		ldr	r0, [r3]
 105 0024 0549     		ldr	r1, .L10+4
 106 0026 FFF7FEFF 		bl	SD_WriteSector
 107              	.LVL3:
 108 002a 02E0     		b	.L8
 109              	.L7:
  55:Z80_SDCard_Emul.c ****     }
  56:Z80_SDCard_Emul.c ****     else
  57:Z80_SDCard_Emul.c ****     {
  58:Z80_SDCard_Emul.c ****                 SD_Status = 160;
 110              		.loc 1 58 0
 111 002c A022     		movs	r2, #160
 112 002e 044B     		ldr	r3, .L10+8
 113 0030 1A70     		strb	r2, [r3]
ARM GAS  C:\Users\HPz420\AppData\Local\Temp\cc5XZsEj.s 			page 4


 114              	.L8:
  59:Z80_SDCard_Emul.c ****     }
  60:Z80_SDCard_Emul.c ****     ackIO();    // Freeze Z80 until block write is done
 115              		.loc 1 60 0
 116 0032 FFF7FEFF 		bl	ackIO
 117              	.LVL4:
 118 0036 38BD     		pop	{r3, r4, r5, pc}
 119              	.L11:
 120              		.align	2
 121              	.L10:
 122 0038 00000000 		.word	writePointer
 123 003c 00000000 		.word	writeSDBuffer
 124 0040 00000000 		.word	SD_Status
 125 0044 00000000 		.word	writeSectorNumber
 126              		.cfi_endproc
 127              	.LFE64:
 128              		.size	SDWriteData, .-SDWriteData
 129              		.section	.text.SDWriteCommand,"ax",%progbits
 130              		.align	2
 131              		.global	SDWriteCommand
 132              		.thumb
 133              		.thumb_func
 134              		.type	SDWriteCommand, %function
 135              	SDWriteCommand:
 136              	.LFB65:
  61:Z80_SDCard_Emul.c ****     return;
  62:Z80_SDCard_Emul.c **** }
  63:Z80_SDCard_Emul.c **** 
  64:Z80_SDCard_Emul.c **** ///////////////////////////////////////////////////////////////////////////////
  65:Z80_SDCard_Emul.c **** // void SDWriteCommand(void)
  66:Z80_SDCard_Emul.c **** // SD_DATA		.EQU	$89
  67:Z80_SDCard_Emul.c **** // In Grant's monitor code - 
  68:Z80_SDCard_Emul.c **** // In 
  69:Z80_SDCard_Emul.c ****     
  70:Z80_SDCard_Emul.c **** void SDWriteCommand(void)
  71:Z80_SDCard_Emul.c **** {
 137              		.loc 1 71 0
 138              		.cfi_startproc
 139              		@ args = 0, pretend = 0, frame = 0
 140              		@ frame_needed = 0, uses_anonymous_args = 0
 141 0000 08B5     		push	{r3, lr}
 142              		.cfi_def_cfa_offset 8
 143              		.cfi_offset 3, -8
 144              		.cfi_offset 14, -4
  72:Z80_SDCard_Emul.c ****     SD_Command = Z80_Data_Out_Read();
 145              		.loc 1 72 0
 146 0002 FFF7FEFF 		bl	Z80_Data_Out_Read
 147              	.LVL5:
 148 0006 204B     		ldr	r3, .L16
 149 0008 1870     		strb	r0, [r3]
  73:Z80_SDCard_Emul.c ****     if (SD_Command == 0x00)
 150              		.loc 1 73 0
 151 000a 1B78     		ldrb	r3, [r3]	@ zero_extendqisi2
 152 000c 13F0FF0F 		tst	r3, #255
 153 0010 19D1     		bne	.L13
 154              	.LBB2:
  74:Z80_SDCard_Emul.c ****     {
ARM GAS  C:\Users\HPz420\AppData\Local\Temp\cc5XZsEj.s 			page 5


  75:Z80_SDCard_Emul.c ****         ackIO();
 155              		.loc 1 75 0
 156 0012 FFF7FEFF 		bl	ackIO
 157              	.LVL6:
  76:Z80_SDCard_Emul.c ****         uint32 secNum = (SD_LBA3_Val << 24) | (SD_LBA2_Val << 16) | (SD_LBA1_Val << 8) | (SD_LBA0_V
 158              		.loc 1 76 0
 159 0016 1D4B     		ldr	r3, .L16+4
 160 0018 1878     		ldrb	r0, [r3]	@ zero_extendqisi2
 161 001a 1D4B     		ldr	r3, .L16+8
 162 001c 1B78     		ldrb	r3, [r3]	@ zero_extendqisi2
 163 001e 1B04     		lsls	r3, r3, #16
 164 0020 43EA0063 		orr	r3, r3, r0, lsl #24
 165 0024 1B4A     		ldr	r2, .L16+12
 166 0026 1078     		ldrb	r0, [r2]	@ zero_extendqisi2
 167 0028 43EA0023 		orr	r3, r3, r0, lsl #8
 168 002c 1A4A     		ldr	r2, .L16+16
 169 002e 1078     		ldrb	r0, [r2]	@ zero_extendqisi2
 170              	.LVL7:
  77:Z80_SDCard_Emul.c ****         SD_readSector(secNum,readSDBuffer);
 171              		.loc 1 77 0
 172 0030 1A49     		ldr	r1, .L16+20
 173 0032 1843     		orrs	r0, r0, r3
 174              	.LVL8:
 175 0034 FFF7FEFF 		bl	SD_readSector
 176              	.LVL9:
  78:Z80_SDCard_Emul.c ****         readPointer = 0;
 177              		.loc 1 78 0
 178 0038 0022     		movs	r2, #0
 179 003a 194B     		ldr	r3, .L16+24
 180 003c 1A80     		strh	r2, [r3]	@ movhi
  79:Z80_SDCard_Emul.c ****         SD_Status = 224;
 181              		.loc 1 79 0
 182 003e E022     		movs	r2, #224
 183 0040 184B     		ldr	r3, .L16+28
 184 0042 1A70     		strb	r2, [r3]
 185              	.LBE2:
 186 0044 08BD     		pop	{r3, pc}
 187              	.L13:
  80:Z80_SDCard_Emul.c ****     }
  81:Z80_SDCard_Emul.c ****     else if (SD_Command == 0x01)
 188              		.loc 1 81 0
 189 0046 104B     		ldr	r3, .L16
 190 0048 1B78     		ldrb	r3, [r3]	@ zero_extendqisi2
 191 004a DBB2     		uxtb	r3, r3
 192 004c 012B     		cmp	r3, #1
 193 004e 19D1     		bne	.L12
  82:Z80_SDCard_Emul.c ****     {
  83:Z80_SDCard_Emul.c ****         writePointer = 0;
 194              		.loc 1 83 0
 195 0050 0023     		movs	r3, #0
 196 0052 154A     		ldr	r2, .L16+32
 197 0054 1380     		strh	r3, [r2]	@ movhi
  84:Z80_SDCard_Emul.c ****         readPointer = 0;
 198              		.loc 1 84 0
 199 0056 124A     		ldr	r2, .L16+24
 200 0058 1380     		strh	r3, [r2]	@ movhi
  85:Z80_SDCard_Emul.c ****         writeSectorNumber = (SD_LBA3_Val << 24) | (SD_LBA2_Val << 16) | (SD_LBA1_Val << 8) | (SD_LB
ARM GAS  C:\Users\HPz420\AppData\Local\Temp\cc5XZsEj.s 			page 6


 201              		.loc 1 85 0
 202 005a 0C4B     		ldr	r3, .L16+4
 203 005c 1A78     		ldrb	r2, [r3]	@ zero_extendqisi2
 204 005e 0C4B     		ldr	r3, .L16+8
 205 0060 1B78     		ldrb	r3, [r3]	@ zero_extendqisi2
 206 0062 1B04     		lsls	r3, r3, #16
 207 0064 43EA0263 		orr	r3, r3, r2, lsl #24
 208 0068 0A4A     		ldr	r2, .L16+12
 209 006a 1278     		ldrb	r2, [r2]	@ zero_extendqisi2
 210 006c 43EA0223 		orr	r3, r3, r2, lsl #8
 211 0070 094A     		ldr	r2, .L16+16
 212 0072 1278     		ldrb	r2, [r2]	@ zero_extendqisi2
 213 0074 1343     		orrs	r3, r3, r2
 214 0076 0D4A     		ldr	r2, .L16+36
 215 0078 1360     		str	r3, [r2]
  86:Z80_SDCard_Emul.c ****         SD_Status = 160;
 216              		.loc 1 86 0
 217 007a A022     		movs	r2, #160
 218 007c 094B     		ldr	r3, .L16+28
 219 007e 1A70     		strb	r2, [r3]
  87:Z80_SDCard_Emul.c ****         ackIO();
 220              		.loc 1 87 0
 221 0080 FFF7FEFF 		bl	ackIO
 222              	.LVL10:
 223              	.L12:
 224 0084 08BD     		pop	{r3, pc}
 225              	.L17:
 226 0086 00BF     		.align	2
 227              	.L16:
 228 0088 00000000 		.word	SD_Command
 229 008c 00000000 		.word	SD_LBA3_Val
 230 0090 00000000 		.word	SD_LBA2_Val
 231 0094 00000000 		.word	SD_LBA1_Val
 232 0098 00000000 		.word	SD_LBA0_Val
 233 009c 00000000 		.word	readSDBuffer
 234 00a0 00000000 		.word	readPointer
 235 00a4 00000000 		.word	SD_Status
 236 00a8 00000000 		.word	writePointer
 237 00ac 00000000 		.word	writeSectorNumber
 238              		.cfi_endproc
 239              	.LFE65:
 240              		.size	SDWriteCommand, .-SDWriteCommand
 241              		.section	.text.SDReadStatus,"ax",%progbits
 242              		.align	2
 243              		.global	SDReadStatus
 244              		.thumb
 245              		.thumb_func
 246              		.type	SDReadStatus, %function
 247              	SDReadStatus:
 248              	.LFB66:
  88:Z80_SDCard_Emul.c ****     }
  89:Z80_SDCard_Emul.c ****     return;
  90:Z80_SDCard_Emul.c **** }
  91:Z80_SDCard_Emul.c **** 
  92:Z80_SDCard_Emul.c **** ///////////////////////////////////////////////////////////////////////////////
  93:Z80_SDCard_Emul.c **** // void SDReadStatus(void)
  94:Z80_SDCard_Emul.c **** // SD_ERROR	.EQU	$89
ARM GAS  C:\Users\HPz420\AppData\Local\Temp\cc5XZsEj.s 			page 7


  95:Z80_SDCard_Emul.c **** // In Grant's monitor code - 
  96:Z80_SDCard_Emul.c **** // In 
  97:Z80_SDCard_Emul.c ****     
  98:Z80_SDCard_Emul.c **** void SDReadStatus(void)
  99:Z80_SDCard_Emul.c **** {
 249              		.loc 1 99 0
 250              		.cfi_startproc
 251              		@ args = 0, pretend = 0, frame = 0
 252              		@ frame_needed = 0, uses_anonymous_args = 0
 253 0000 08B5     		push	{r3, lr}
 254              		.cfi_def_cfa_offset 8
 255              		.cfi_offset 3, -8
 256              		.cfi_offset 14, -4
 100:Z80_SDCard_Emul.c ****     Z80_Data_In_Write(SD_Status);
 257              		.loc 1 100 0
 258 0002 034B     		ldr	r3, .L20
 259 0004 1878     		ldrb	r0, [r3]	@ zero_extendqisi2
 260 0006 FFF7FEFF 		bl	Z80_Data_In_Write
 261              	.LVL11:
 101:Z80_SDCard_Emul.c ****     ackIO();
 262              		.loc 1 101 0
 263 000a FFF7FEFF 		bl	ackIO
 264              	.LVL12:
 265 000e 08BD     		pop	{r3, pc}
 266              	.L21:
 267              		.align	2
 268              	.L20:
 269 0010 00000000 		.word	SD_Status
 270              		.cfi_endproc
 271              	.LFE66:
 272              		.size	SDReadStatus, .-SDReadStatus
 273              		.section	.text.SDWriteLBA0,"ax",%progbits
 274              		.align	2
 275              		.global	SDWriteLBA0
 276              		.thumb
 277              		.thumb_func
 278              		.type	SDWriteLBA0, %function
 279              	SDWriteLBA0:
 280              	.LFB67:
 102:Z80_SDCard_Emul.c ****     return;
 103:Z80_SDCard_Emul.c **** }
 104:Z80_SDCard_Emul.c **** 
 105:Z80_SDCard_Emul.c **** ///////////////////////////////////////////////////////////////////////////////
 106:Z80_SDCard_Emul.c **** // void CFWriteLBA0(void)
 107:Z80_SDCard_Emul.c **** // SD_LBA0		.EQU	$8A
 108:Z80_SDCard_Emul.c **** // In Grant's monitor code 
 109:Z80_SDCard_Emul.c **** // In 
 110:Z80_SDCard_Emul.c ****     
 111:Z80_SDCard_Emul.c **** void SDWriteLBA0(void)
 112:Z80_SDCard_Emul.c **** {
 281              		.loc 1 112 0
 282              		.cfi_startproc
 283              		@ args = 0, pretend = 0, frame = 0
 284              		@ frame_needed = 0, uses_anonymous_args = 0
 285 0000 08B5     		push	{r3, lr}
 286              		.cfi_def_cfa_offset 8
 287              		.cfi_offset 3, -8
ARM GAS  C:\Users\HPz420\AppData\Local\Temp\cc5XZsEj.s 			page 8


 288              		.cfi_offset 14, -4
 113:Z80_SDCard_Emul.c ****     SD_LBA0_Val = Z80_Data_Out_Read();
 289              		.loc 1 113 0
 290 0002 FFF7FEFF 		bl	Z80_Data_Out_Read
 291              	.LVL13:
 292 0006 024B     		ldr	r3, .L24
 293 0008 1870     		strb	r0, [r3]
 114:Z80_SDCard_Emul.c ****     ackIO();
 294              		.loc 1 114 0
 295 000a FFF7FEFF 		bl	ackIO
 296              	.LVL14:
 297 000e 08BD     		pop	{r3, pc}
 298              	.L25:
 299              		.align	2
 300              	.L24:
 301 0010 00000000 		.word	SD_LBA0_Val
 302              		.cfi_endproc
 303              	.LFE67:
 304              		.size	SDWriteLBA0, .-SDWriteLBA0
 305              		.section	.text.SDWriteLBA1,"ax",%progbits
 306              		.align	2
 307              		.global	SDWriteLBA1
 308              		.thumb
 309              		.thumb_func
 310              		.type	SDWriteLBA1, %function
 311              	SDWriteLBA1:
 312              	.LFB68:
 115:Z80_SDCard_Emul.c ****     return;
 116:Z80_SDCard_Emul.c **** }
 117:Z80_SDCard_Emul.c **** 
 118:Z80_SDCard_Emul.c **** ///////////////////////////////////////////////////////////////////////////////
 119:Z80_SDCard_Emul.c **** // void CFWriteLBA1(void)
 120:Z80_SDCard_Emul.c **** // SD_LBA1		.EQU	$8B
 121:Z80_SDCard_Emul.c **** // In Grant's monitor code 
 122:Z80_SDCard_Emul.c **** // In 
 123:Z80_SDCard_Emul.c ****     
 124:Z80_SDCard_Emul.c **** void    SDWriteLBA1(void)
 125:Z80_SDCard_Emul.c **** {
 313              		.loc 1 125 0
 314              		.cfi_startproc
 315              		@ args = 0, pretend = 0, frame = 0
 316              		@ frame_needed = 0, uses_anonymous_args = 0
 317 0000 08B5     		push	{r3, lr}
 318              		.cfi_def_cfa_offset 8
 319              		.cfi_offset 3, -8
 320              		.cfi_offset 14, -4
 126:Z80_SDCard_Emul.c ****     SD_LBA1_Val = Z80_Data_Out_Read();
 321              		.loc 1 126 0
 322 0002 FFF7FEFF 		bl	Z80_Data_Out_Read
 323              	.LVL15:
 324 0006 024B     		ldr	r3, .L28
 325 0008 1870     		strb	r0, [r3]
 127:Z80_SDCard_Emul.c ****     ackIO();
 326              		.loc 1 127 0
 327 000a FFF7FEFF 		bl	ackIO
 328              	.LVL16:
 329 000e 08BD     		pop	{r3, pc}
ARM GAS  C:\Users\HPz420\AppData\Local\Temp\cc5XZsEj.s 			page 9


 330              	.L29:
 331              		.align	2
 332              	.L28:
 333 0010 00000000 		.word	SD_LBA1_Val
 334              		.cfi_endproc
 335              	.LFE68:
 336              		.size	SDWriteLBA1, .-SDWriteLBA1
 337              		.section	.text.SDWriteLBA2,"ax",%progbits
 338              		.align	2
 339              		.global	SDWriteLBA2
 340              		.thumb
 341              		.thumb_func
 342              		.type	SDWriteLBA2, %function
 343              	SDWriteLBA2:
 344              	.LFB69:
 128:Z80_SDCard_Emul.c ****     return;
 129:Z80_SDCard_Emul.c **** }
 130:Z80_SDCard_Emul.c **** 
 131:Z80_SDCard_Emul.c **** ///////////////////////////////////////////////////////////////////////////////
 132:Z80_SDCard_Emul.c **** // void CFWriteLBA2(void)
 133:Z80_SDCard_Emul.c **** // SD_LBA2		.EQU	$8C
 134:Z80_SDCard_Emul.c **** // In Grant's monitor code 
 135:Z80_SDCard_Emul.c **** // In 
 136:Z80_SDCard_Emul.c ****     
 137:Z80_SDCard_Emul.c **** void    SDWriteLBA2(void)
 138:Z80_SDCard_Emul.c **** {
 345              		.loc 1 138 0
 346              		.cfi_startproc
 347              		@ args = 0, pretend = 0, frame = 0
 348              		@ frame_needed = 0, uses_anonymous_args = 0
 349 0000 08B5     		push	{r3, lr}
 350              		.cfi_def_cfa_offset 8
 351              		.cfi_offset 3, -8
 352              		.cfi_offset 14, -4
 139:Z80_SDCard_Emul.c ****     SD_LBA2_Val = Z80_Data_Out_Read();
 353              		.loc 1 139 0
 354 0002 FFF7FEFF 		bl	Z80_Data_Out_Read
 355              	.LVL17:
 356 0006 024B     		ldr	r3, .L32
 357 0008 1870     		strb	r0, [r3]
 140:Z80_SDCard_Emul.c ****     ackIO();
 358              		.loc 1 140 0
 359 000a FFF7FEFF 		bl	ackIO
 360              	.LVL18:
 361 000e 08BD     		pop	{r3, pc}
 362              	.L33:
 363              		.align	2
 364              	.L32:
 365 0010 00000000 		.word	SD_LBA2_Val
 366              		.cfi_endproc
 367              	.LFE69:
 368              		.size	SDWriteLBA2, .-SDWriteLBA2
 369              		.comm	writeSectorNumber,4,4
 370              		.comm	SD_LBA3_Val,1,1
 371              		.comm	SD_LBA2_Val,1,1
 372              		.comm	SD_LBA1_Val,1,1
 373              		.comm	SD_LBA0_Val,1,1
ARM GAS  C:\Users\HPz420\AppData\Local\Temp\cc5XZsEj.s 			page 10


 374              		.comm	SD_Command,1,1
 375              		.comm	SD_Status,1,1
 376              		.comm	SD_DataIn,1,1
 377              		.comm	SD_DataOut,1,1
 378              		.text
 379              	.Letext0:
 380              		.file 2 "c:\\program files (x86)\\cypress\\psoc creator\\4.2\\psoc creator\\import\\gnu\\arm\\5.4.
 381              		.file 3 "c:\\program files (x86)\\cypress\\psoc creator\\4.2\\psoc creator\\import\\gnu\\arm\\5.4.
 382              		.file 4 "Generated_Source\\PSoC5/cytypes.h"
 383              		.file 5 "Generated_Source\\PSoC5/core_cm3.h"
 384              		.file 6 "./SDCard.h"
 385              		.file 7 "Generated_Source\\PSoC5/Z80_Data_In.h"
 386              		.file 8 "./Z80_IO_Handle.h"
 387              		.file 9 "Generated_Source\\PSoC5/Z80_Data_Out.h"