ARM GAS  C:\Users\DGILLI~1\AppData\Local\Temp\cceJgtXc.s 			page 1


   1              		.syntax unified
   2              		.cpu cortex-m3
   3              		.fpu softvfp
   4              		.eabi_attribute 20, 1
   5              		.eabi_attribute 21, 1
   6              		.eabi_attribute 23, 3
   7              		.eabi_attribute 24, 1
   8              		.eabi_attribute 25, 1
   9              		.eabi_attribute 26, 1
  10              		.eabi_attribute 30, 1
  11              		.eabi_attribute 34, 1
  12              		.eabi_attribute 18, 4
  13              		.thumb
  14              		.syntax unified
  15              		.file	"Z80_IO_Handle.c"
  16              		.text
  17              	.Ltext0:
  18              		.cfi_sections	.debug_frame
  19              		.section	.text.HandleZ80IO,"ax",%progbits
  20              		.align	2
  21              		.global	HandleZ80IO
  22              		.thumb
  23              		.thumb_func
  24              		.type	HandleZ80IO, %function
  25              	HandleZ80IO:
  26              	.LFB63:
  27              		.file 1 "Z80_IO_Handle.c"
   1:Z80_IO_Handle.c **** /* ========================================
   2:Z80_IO_Handle.c ****  *
   3:Z80_IO_Handle.c ****  * Copyright LAND BOARDS, LLC, 2019
   4:Z80_IO_Handle.c ****  * All Rights Reserved
   5:Z80_IO_Handle.c ****  * UNPUBLISHED, LICENSED SOFTWARE.
   6:Z80_IO_Handle.c ****  *
   7:Z80_IO_Handle.c ****  * CONFIDENTIAL AND PROPRIETARY INFORMATION
   8:Z80_IO_Handle.c ****  * WHICH IS THE PROPERTY OF Land Boards, LLC.
   9:Z80_IO_Handle.c ****  *
  10:Z80_IO_Handle.c ****  * ========================================
  11:Z80_IO_Handle.c **** */
  12:Z80_IO_Handle.c **** 
  13:Z80_IO_Handle.c **** #include <project.h>
  14:Z80_IO_Handle.c **** #include <Z80_PSoC_3Chips.h>
  15:Z80_IO_Handle.c **** 
  16:Z80_IO_Handle.c **** void HandleZ80IO(void)
  17:Z80_IO_Handle.c **** {
  28              		.loc 1 17 0
  29              		.cfi_startproc
  30              		@ args = 0, pretend = 0, frame = 8
  31              		@ frame_needed = 0, uses_anonymous_args = 0
  32 0000 00B5     		push	{lr}
  33              		.cfi_def_cfa_offset 4
  34              		.cfi_offset 14, -4
  35 0002 83B0     		sub	sp, sp, #12
  36              		.cfi_def_cfa_offset 16
  18:Z80_IO_Handle.c ****     volatile uint8 ioCrtlRegVal;
  19:Z80_IO_Handle.c ****     volatile uint8 ioZ80Addr;
  20:Z80_IO_Handle.c ****     
  21:Z80_IO_Handle.c ****     ioCrtlRegVal = IO_Stat_Reg_Read();
ARM GAS  C:\Users\DGILLI~1\AppData\Local\Temp\cceJgtXc.s 			page 2


  37              		.loc 1 21 0
  38 0004 FFF7FEFF 		bl	IO_Stat_Reg_Read
  39              	.LVL0:
  40 0008 8DF80700 		strb	r0, [sp, #7]
  22:Z80_IO_Handle.c **** #ifdef USING_SIO
  23:Z80_IO_Handle.c ****     if ((ioCrtlRegVal & IACK_MASK) == IN_IACK_CYCLE)
  24:Z80_IO_Handle.c ****     {
  25:Z80_IO_Handle.c ****         SioReadIntRegB();
  26:Z80_IO_Handle.c ****         return;
  27:Z80_IO_Handle.c ****     }
  28:Z80_IO_Handle.c **** #endif
  29:Z80_IO_Handle.c **** #ifdef USING_6850
  30:Z80_IO_Handle.c ****     if ((ioCrtlRegVal & IACK_MASK) == IN_IACK_CYCLE)
  41              		.loc 1 30 0
  42 000c 9DF80730 		ldrb	r3, [sp, #7]	@ zero_extendqisi2
  43 0010 03F01903 		and	r3, r3, #25
  44 0014 102B     		cmp	r3, #16
  45 0016 02D1     		bne	.L2
  31:Z80_IO_Handle.c ****     {
  32:Z80_IO_Handle.c ****         M6850ReadIntReg();
  46              		.loc 1 32 0
  47 0018 FFF7FEFF 		bl	M6850ReadIntReg
  48              	.LVL1:
  33:Z80_IO_Handle.c ****         return;
  49              		.loc 1 33 0
  50 001c B1E0     		b	.L1
  51              	.L2:
  34:Z80_IO_Handle.c ****     }
  35:Z80_IO_Handle.c **** #endif
  36:Z80_IO_Handle.c ****     ioZ80Addr = AdrLowIn_Read();        // gets the I/O address that the Z80 is accessing
  52              		.loc 1 36 0
  53 001e FFF7FEFF 		bl	AdrLowIn_Read
  54              	.LVL2:
  55 0022 8DF80600 		strb	r0, [sp, #6]
  37:Z80_IO_Handle.c ****     switch (ioZ80Addr)                  // call appropriate functions based on the address
  56              		.loc 1 37 0
  57 0026 9DF80630 		ldrb	r3, [sp, #6]	@ zero_extendqisi2
  58 002a DBB2     		uxtb	r3, r3
  59 002c 382B     		cmp	r3, #56
  60 002e 00F0A180 		beq	.L4
  61 0032 0BD8     		bhi	.L5
  62 0034 192B     		cmp	r3, #25
  63 0036 67D0     		beq	.L6
  64 0038 02D8     		bhi	.L7
  65 003a 182B     		cmp	r3, #24
  66 003c 52D0     		beq	.L8
  67 003e A0E0     		b	.L1
  68              	.L7:
  69 0040 1A2B     		cmp	r3, #26
  70 0042 73D0     		beq	.L9
  71 0044 1B2B     		cmp	r3, #27
  72 0046 00F08380 		beq	.L10
  73 004a 9AE0     		b	.L1
  74              	.L5:
  75 004c 812B     		cmp	r3, #129
  76 004e 08D0     		beq	.L11
  77 0050 02D8     		bhi	.L12
ARM GAS  C:\Users\DGILLI~1\AppData\Local\Temp\cceJgtXc.s 			page 3


  78 0052 802B     		cmp	r3, #128
  79 0054 16D0     		beq	.L13
  80 0056 94E0     		b	.L1
  81              	.L12:
  82 0058 822B     		cmp	r3, #130
  83 005a 33D0     		beq	.L14
  84 005c 832B     		cmp	r3, #131
  85 005e 21D0     		beq	.L15
  86 0060 8FE0     		b	.L1
  87              	.L11:
  38:Z80_IO_Handle.c ****     {
  39:Z80_IO_Handle.c **** #ifdef USING_SIO
  40:Z80_IO_Handle.c ****         case SIOA_D:
  41:Z80_IO_Handle.c ****             if (ioCrtlRegVal == REGULAR_READ_CYCLE)             // regular read cycle
  42:Z80_IO_Handle.c ****             {
  43:Z80_IO_Handle.c ****                 SioReadDataA();
  44:Z80_IO_Handle.c ****                 return;
  45:Z80_IO_Handle.c ****             }
  46:Z80_IO_Handle.c ****             else if (ioCrtlRegVal == REGULAR_WRITE_CYCLE)      // regular write cycle
  47:Z80_IO_Handle.c ****             {
  48:Z80_IO_Handle.c ****                 SioWriteDataA();
  49:Z80_IO_Handle.c ****                 return;
  50:Z80_IO_Handle.c ****             }
  51:Z80_IO_Handle.c ****             break;
  52:Z80_IO_Handle.c ****         case SIOA_C:    // Control register
  53:Z80_IO_Handle.c ****             if (ioCrtlRegVal == REGULAR_WRITE_CYCLE)      // regular write cycle
  54:Z80_IO_Handle.c ****             {
  55:Z80_IO_Handle.c ****                 SioWriteCtrlA();
  56:Z80_IO_Handle.c ****                 return;
  57:Z80_IO_Handle.c ****             }
  58:Z80_IO_Handle.c ****             break;
  59:Z80_IO_Handle.c ****         case SIOB_D:
  60:Z80_IO_Handle.c ****             if (ioCrtlRegVal == REGULAR_READ_CYCLE)            // regular read cycle
  61:Z80_IO_Handle.c ****             {
  62:Z80_IO_Handle.c ****                 SioReadDataB();
  63:Z80_IO_Handle.c ****                 return;
  64:Z80_IO_Handle.c ****             }
  65:Z80_IO_Handle.c ****             else if (ioCrtlRegVal == REGULAR_WRITE_CYCLE)      // regular write cycle
  66:Z80_IO_Handle.c ****             {
  67:Z80_IO_Handle.c ****                 SioWriteDataB();
  68:Z80_IO_Handle.c ****                 return;
  69:Z80_IO_Handle.c ****             }
  70:Z80_IO_Handle.c ****             break;
  71:Z80_IO_Handle.c ****         case SIOB_C:
  72:Z80_IO_Handle.c ****             if (ioCrtlRegVal == REGULAR_WRITE_CYCLE)      // regular write cycle
  73:Z80_IO_Handle.c ****             {
  74:Z80_IO_Handle.c ****                 SioWriteCtrlB();
  75:Z80_IO_Handle.c ****                 return;
  76:Z80_IO_Handle.c ****             }
  77:Z80_IO_Handle.c ****             break;
  78:Z80_IO_Handle.c **** #endif
  79:Z80_IO_Handle.c **** #ifdef USING_SDCARD
  80:Z80_IO_Handle.c ****         case SD_DATA:           // 0x88
  81:Z80_IO_Handle.c ****             if (ioCrtlRegVal == REGULAR_READ_CYCLE)            // regular read cycle
  82:Z80_IO_Handle.c ****             {
  83:Z80_IO_Handle.c ****                 SDReadData();
  84:Z80_IO_Handle.c ****             }
ARM GAS  C:\Users\DGILLI~1\AppData\Local\Temp\cceJgtXc.s 			page 4


  85:Z80_IO_Handle.c ****             else if (ioCrtlRegVal == REGULAR_WRITE_CYCLE)      // regular write cycle
  86:Z80_IO_Handle.c ****             {
  87:Z80_IO_Handle.c ****                 SDWriteData();
  88:Z80_IO_Handle.c ****             }
  89:Z80_IO_Handle.c ****             break;
  90:Z80_IO_Handle.c ****         case SD_CONTROL: // 0x89 - write command also also includes read status
  91:Z80_IO_Handle.c ****             if (ioCrtlRegVal == REGULAR_READ_CYCLE)            // regular read cycle
  92:Z80_IO_Handle.c ****             {
  93:Z80_IO_Handle.c ****                 SDReadStatus();
  94:Z80_IO_Handle.c ****             }
  95:Z80_IO_Handle.c ****             else if (ioCrtlRegVal == REGULAR_WRITE_CYCLE)      // regular write cycle
  96:Z80_IO_Handle.c ****             {
  97:Z80_IO_Handle.c ****                 SDWriteCommand();
  98:Z80_IO_Handle.c ****             }
  99:Z80_IO_Handle.c ****             break;
 100:Z80_IO_Handle.c ****         case SD_LBA0:    // 0x8A
 101:Z80_IO_Handle.c ****             if (ioCrtlRegVal == REGULAR_WRITE_CYCLE)      // regular write cycle
 102:Z80_IO_Handle.c ****             {
 103:Z80_IO_Handle.c ****                 SDWriteLBA0();
 104:Z80_IO_Handle.c ****             }
 105:Z80_IO_Handle.c ****             break;
 106:Z80_IO_Handle.c ****         case SD_LBA1:   // 0x8B
 107:Z80_IO_Handle.c ****             if (ioCrtlRegVal == REGULAR_WRITE_CYCLE)      // regular write cycle
 108:Z80_IO_Handle.c ****             {
 109:Z80_IO_Handle.c ****                 SDWriteLBA1();
 110:Z80_IO_Handle.c ****             }
 111:Z80_IO_Handle.c ****             break;
 112:Z80_IO_Handle.c ****         case SD_LBA2:    // 0x8C
 113:Z80_IO_Handle.c ****             if (ioCrtlRegVal == REGULAR_WRITE_CYCLE)      // regular write cycle
 114:Z80_IO_Handle.c ****             {
 115:Z80_IO_Handle.c ****                 SDWriteLBA2();
 116:Z80_IO_Handle.c ****             }
 117:Z80_IO_Handle.c ****             break;
 118:Z80_IO_Handle.c **** #endif
 119:Z80_IO_Handle.c **** #ifdef USING_6850
 120:Z80_IO_Handle.c ****         case M6850_D:
 121:Z80_IO_Handle.c ****             if (ioCrtlRegVal == REGULAR_READ_CYCLE)             // regular read cycle
  88              		.loc 1 121 0
  89 0062 9DF80730 		ldrb	r3, [sp, #7]	@ zero_extendqisi2
  90 0066 DBB2     		uxtb	r3, r3
  91 0068 1C2B     		cmp	r3, #28
  92 006a 02D1     		bne	.L16
 122:Z80_IO_Handle.c ****             {
 123:Z80_IO_Handle.c ****                 M6850ReadData();
  93              		.loc 1 123 0
  94 006c FFF7FEFF 		bl	M6850ReadData
  95              	.LVL3:
 124:Z80_IO_Handle.c ****                 return;
  96              		.loc 1 124 0
  97 0070 87E0     		b	.L1
  98              	.L16:
 125:Z80_IO_Handle.c ****             }
 126:Z80_IO_Handle.c ****             else if (ioCrtlRegVal == REGULAR_WRITE_CYCLE)      // regular write cycle
  99              		.loc 1 126 0
 100 0072 9DF80730 		ldrb	r3, [sp, #7]	@ zero_extendqisi2
 101 0076 DBB2     		uxtb	r3, r3
 102 0078 1A2B     		cmp	r3, #26
ARM GAS  C:\Users\DGILLI~1\AppData\Local\Temp\cceJgtXc.s 			page 5


 103 007a 40F08280 		bne	.L1
 127:Z80_IO_Handle.c ****             {
 128:Z80_IO_Handle.c ****                 M6850WriteData();
 104              		.loc 1 128 0
 105 007e FFF7FEFF 		bl	M6850WriteData
 106              	.LVL4:
 129:Z80_IO_Handle.c ****                 return;
 107              		.loc 1 129 0
 108 0082 7EE0     		b	.L1
 109              	.L13:
 130:Z80_IO_Handle.c ****             }
 131:Z80_IO_Handle.c ****             break;
 132:Z80_IO_Handle.c ****         case  M6850_C:    // Control register
 133:Z80_IO_Handle.c ****             if (ioCrtlRegVal == REGULAR_READ_CYCLE)             // regular read cycle
 110              		.loc 1 133 0
 111 0084 9DF80730 		ldrb	r3, [sp, #7]	@ zero_extendqisi2
 112 0088 DBB2     		uxtb	r3, r3
 113 008a 1C2B     		cmp	r3, #28
 114 008c 02D1     		bne	.L17
 134:Z80_IO_Handle.c ****             {
 135:Z80_IO_Handle.c ****                 M6850ReadStatus();
 115              		.loc 1 135 0
 116 008e FFF7FEFF 		bl	M6850ReadStatus
 117              	.LVL5:
 136:Z80_IO_Handle.c ****                 return;
 118              		.loc 1 136 0
 119 0092 76E0     		b	.L1
 120              	.L17:
 137:Z80_IO_Handle.c ****             }
 138:Z80_IO_Handle.c ****             if (ioCrtlRegVal == REGULAR_WRITE_CYCLE)      // regular write cycle
 121              		.loc 1 138 0
 122 0094 9DF80730 		ldrb	r3, [sp, #7]	@ zero_extendqisi2
 123 0098 DBB2     		uxtb	r3, r3
 124 009a 1A2B     		cmp	r3, #26
 125 009c 71D1     		bne	.L1
 139:Z80_IO_Handle.c ****             {
 140:Z80_IO_Handle.c ****                 M6850WriteCtrl();
 126              		.loc 1 140 0
 127 009e FFF7FEFF 		bl	M6850WriteCtrl
 128              	.LVL6:
 141:Z80_IO_Handle.c ****                 return;
 129              		.loc 1 141 0
 130 00a2 6EE0     		b	.L1
 131              	.L15:
 142:Z80_IO_Handle.c ****             }
 143:Z80_IO_Handle.c ****             break;
 144:Z80_IO_Handle.c **** #endif
 145:Z80_IO_Handle.c **** #ifdef USING_6850_2
 146:Z80_IO_Handle.c ****         case M6850_2_D:
 147:Z80_IO_Handle.c ****             if (ioCrtlRegVal == REGULAR_READ_CYCLE)             // regular read cycle
 132              		.loc 1 147 0
 133 00a4 9DF80730 		ldrb	r3, [sp, #7]	@ zero_extendqisi2
 134 00a8 DBB2     		uxtb	r3, r3
 135 00aa 1C2B     		cmp	r3, #28
 136 00ac 02D1     		bne	.L18
 148:Z80_IO_Handle.c ****             {
 149:Z80_IO_Handle.c ****                 M6850_2_ReadData();
ARM GAS  C:\Users\DGILLI~1\AppData\Local\Temp\cceJgtXc.s 			page 6


 137              		.loc 1 149 0
 138 00ae FFF7FEFF 		bl	M6850_2_ReadData
 139              	.LVL7:
 150:Z80_IO_Handle.c ****                 return;
 140              		.loc 1 150 0
 141 00b2 66E0     		b	.L1
 142              	.L18:
 151:Z80_IO_Handle.c ****             }
 152:Z80_IO_Handle.c ****             else if (ioCrtlRegVal == REGULAR_WRITE_CYCLE)      // regular write cycle
 143              		.loc 1 152 0
 144 00b4 9DF80730 		ldrb	r3, [sp, #7]	@ zero_extendqisi2
 145 00b8 DBB2     		uxtb	r3, r3
 146 00ba 1A2B     		cmp	r3, #26
 147 00bc 61D1     		bne	.L1
 153:Z80_IO_Handle.c ****             {
 154:Z80_IO_Handle.c ****                 M6850_2_WriteData();
 148              		.loc 1 154 0
 149 00be FFF7FEFF 		bl	M6850_2_WriteData
 150              	.LVL8:
 155:Z80_IO_Handle.c ****                 return;
 151              		.loc 1 155 0
 152 00c2 5EE0     		b	.L1
 153              	.L14:
 156:Z80_IO_Handle.c ****             }
 157:Z80_IO_Handle.c ****             break;
 158:Z80_IO_Handle.c ****         case  M6850_2_C:    // Control register
 159:Z80_IO_Handle.c ****             if (ioCrtlRegVal == REGULAR_READ_CYCLE)             // regular read cycle
 154              		.loc 1 159 0
 155 00c4 9DF80730 		ldrb	r3, [sp, #7]	@ zero_extendqisi2
 156 00c8 DBB2     		uxtb	r3, r3
 157 00ca 1C2B     		cmp	r3, #28
 158 00cc 02D1     		bne	.L19
 160:Z80_IO_Handle.c ****             {
 161:Z80_IO_Handle.c ****                 M6850_2_ReadStatus();
 159              		.loc 1 161 0
 160 00ce FFF7FEFF 		bl	M6850_2_ReadStatus
 161              	.LVL9:
 162:Z80_IO_Handle.c ****                 return;
 162              		.loc 1 162 0
 163 00d2 56E0     		b	.L1
 164              	.L19:
 163:Z80_IO_Handle.c ****             }
 164:Z80_IO_Handle.c ****             if (ioCrtlRegVal == REGULAR_WRITE_CYCLE)      // regular write cycle
 165              		.loc 1 164 0
 166 00d4 9DF80730 		ldrb	r3, [sp, #7]	@ zero_extendqisi2
 167 00d8 DBB2     		uxtb	r3, r3
 168 00da 1A2B     		cmp	r3, #26
 169 00dc 51D1     		bne	.L1
 165:Z80_IO_Handle.c ****             {
 166:Z80_IO_Handle.c ****                 M6850_2_WriteCtrl();
 170              		.loc 1 166 0
 171 00de FFF7FEFF 		bl	M6850_2_WriteCtrl
 172              	.LVL10:
 167:Z80_IO_Handle.c ****                 return;
 173              		.loc 1 167 0
 174 00e2 4EE0     		b	.L1
 175              	.L8:
ARM GAS  C:\Users\DGILLI~1\AppData\Local\Temp\cceJgtXc.s 			page 7


 168:Z80_IO_Handle.c ****             }
 169:Z80_IO_Handle.c ****             break;
 170:Z80_IO_Handle.c **** #endif
 171:Z80_IO_Handle.c **** #ifdef USING_FRONT_PANEL
 172:Z80_IO_Handle.c ****         case FR_PNL_IO_LO:
 173:Z80_IO_Handle.c ****             if (ioCrtlRegVal == REGULAR_READ_CYCLE)            // regular read cycle
 176              		.loc 1 173 0
 177 00e4 9DF80730 		ldrb	r3, [sp, #7]	@ zero_extendqisi2
 178 00e8 DBB2     		uxtb	r3, r3
 179 00ea 1C2B     		cmp	r3, #28
 180 00ec 03D1     		bne	.L20
 174:Z80_IO_Handle.c ****             {
 175:Z80_IO_Handle.c ****                 FrontPanelZ80Read(0);
 181              		.loc 1 175 0
 182 00ee 0020     		movs	r0, #0
 183 00f0 FFF7FEFF 		bl	FrontPanelZ80Read
 184              	.LVL11:
 176:Z80_IO_Handle.c ****                 return;
 185              		.loc 1 176 0
 186 00f4 45E0     		b	.L1
 187              	.L20:
 177:Z80_IO_Handle.c ****             }
 178:Z80_IO_Handle.c ****             else if (ioCrtlRegVal == REGULAR_WRITE_CYCLE)      // regular write cycle
 188              		.loc 1 178 0
 189 00f6 9DF80730 		ldrb	r3, [sp, #7]	@ zero_extendqisi2
 190 00fa DBB2     		uxtb	r3, r3
 191 00fc 1A2B     		cmp	r3, #26
 192 00fe 40D1     		bne	.L1
 179:Z80_IO_Handle.c ****             {
 180:Z80_IO_Handle.c ****                 FrontPanelZ80Write(0);
 193              		.loc 1 180 0
 194 0100 0020     		movs	r0, #0
 195 0102 FFF7FEFF 		bl	FrontPanelZ80Write
 196              	.LVL12:
 181:Z80_IO_Handle.c ****                 return;
 197              		.loc 1 181 0
 198 0106 3CE0     		b	.L1
 199              	.L6:
 182:Z80_IO_Handle.c ****             }
 183:Z80_IO_Handle.c ****             break;
 184:Z80_IO_Handle.c ****         case FR_PNL_IO_LO_MID:
 185:Z80_IO_Handle.c ****             if (ioCrtlRegVal == REGULAR_READ_CYCLE)            // regular read cycle
 200              		.loc 1 185 0
 201 0108 9DF80730 		ldrb	r3, [sp, #7]	@ zero_extendqisi2
 202 010c DBB2     		uxtb	r3, r3
 203 010e 1C2B     		cmp	r3, #28
 204 0110 03D1     		bne	.L21
 186:Z80_IO_Handle.c ****             {
 187:Z80_IO_Handle.c ****                 FrontPanelZ80Read(1);
 205              		.loc 1 187 0
 206 0112 0120     		movs	r0, #1
 207 0114 FFF7FEFF 		bl	FrontPanelZ80Read
 208              	.LVL13:
 188:Z80_IO_Handle.c ****                 return;
 209              		.loc 1 188 0
 210 0118 33E0     		b	.L1
 211              	.L21:
ARM GAS  C:\Users\DGILLI~1\AppData\Local\Temp\cceJgtXc.s 			page 8


 189:Z80_IO_Handle.c ****             }
 190:Z80_IO_Handle.c ****             else if (ioCrtlRegVal == REGULAR_WRITE_CYCLE)      // regular write cycle
 212              		.loc 1 190 0
 213 011a 9DF80730 		ldrb	r3, [sp, #7]	@ zero_extendqisi2
 214 011e DBB2     		uxtb	r3, r3
 215 0120 1A2B     		cmp	r3, #26
 216 0122 2ED1     		bne	.L1
 191:Z80_IO_Handle.c ****             {
 192:Z80_IO_Handle.c ****                 FrontPanelZ80Write(1);
 217              		.loc 1 192 0
 218 0124 0120     		movs	r0, #1
 219 0126 FFF7FEFF 		bl	FrontPanelZ80Write
 220              	.LVL14:
 193:Z80_IO_Handle.c ****                 return;
 221              		.loc 1 193 0
 222 012a 2AE0     		b	.L1
 223              	.L9:
 194:Z80_IO_Handle.c ****             }
 195:Z80_IO_Handle.c ****             break;
 196:Z80_IO_Handle.c ****         case FR_PNL_IO_HI_MID:
 197:Z80_IO_Handle.c ****             if (ioCrtlRegVal == REGULAR_READ_CYCLE)            // regular read cycle
 224              		.loc 1 197 0
 225 012c 9DF80730 		ldrb	r3, [sp, #7]	@ zero_extendqisi2
 226 0130 DBB2     		uxtb	r3, r3
 227 0132 1C2B     		cmp	r3, #28
 228 0134 03D1     		bne	.L22
 198:Z80_IO_Handle.c ****             {
 199:Z80_IO_Handle.c ****                 FrontPanelZ80Read(2);
 229              		.loc 1 199 0
 230 0136 0220     		movs	r0, #2
 231 0138 FFF7FEFF 		bl	FrontPanelZ80Read
 232              	.LVL15:
 200:Z80_IO_Handle.c ****                 return;
 233              		.loc 1 200 0
 234 013c 21E0     		b	.L1
 235              	.L22:
 201:Z80_IO_Handle.c ****             }
 202:Z80_IO_Handle.c ****             else if (ioCrtlRegVal == REGULAR_WRITE_CYCLE)      // regular write cycle
 236              		.loc 1 202 0
 237 013e 9DF80730 		ldrb	r3, [sp, #7]	@ zero_extendqisi2
 238 0142 DBB2     		uxtb	r3, r3
 239 0144 1A2B     		cmp	r3, #26
 240 0146 1CD1     		bne	.L1
 203:Z80_IO_Handle.c ****             {
 204:Z80_IO_Handle.c ****                 FrontPanelZ80Write(2);
 241              		.loc 1 204 0
 242 0148 0220     		movs	r0, #2
 243 014a FFF7FEFF 		bl	FrontPanelZ80Write
 244              	.LVL16:
 205:Z80_IO_Handle.c ****                 return;
 245              		.loc 1 205 0
 246 014e 18E0     		b	.L1
 247              	.L10:
 206:Z80_IO_Handle.c ****             }
 207:Z80_IO_Handle.c ****             break;
 208:Z80_IO_Handle.c ****         case FR_PNL_IO_HI:
 209:Z80_IO_Handle.c ****             if (ioCrtlRegVal == REGULAR_READ_CYCLE)            // regular read cycle
ARM GAS  C:\Users\DGILLI~1\AppData\Local\Temp\cceJgtXc.s 			page 9


 248              		.loc 1 209 0
 249 0150 9DF80730 		ldrb	r3, [sp, #7]	@ zero_extendqisi2
 250 0154 DBB2     		uxtb	r3, r3
 251 0156 1C2B     		cmp	r3, #28
 252 0158 03D1     		bne	.L23
 210:Z80_IO_Handle.c ****             {
 211:Z80_IO_Handle.c ****                 FrontPanelZ80Read(3);
 253              		.loc 1 211 0
 254 015a 0320     		movs	r0, #3
 255 015c FFF7FEFF 		bl	FrontPanelZ80Read
 256              	.LVL17:
 212:Z80_IO_Handle.c ****                 return;
 257              		.loc 1 212 0
 258 0160 0FE0     		b	.L1
 259              	.L23:
 213:Z80_IO_Handle.c ****             }
 214:Z80_IO_Handle.c ****             else if (ioCrtlRegVal == REGULAR_WRITE_CYCLE)      // regular write cycle
 260              		.loc 1 214 0
 261 0162 9DF80730 		ldrb	r3, [sp, #7]	@ zero_extendqisi2
 262 0166 DBB2     		uxtb	r3, r3
 263 0168 1A2B     		cmp	r3, #26
 264 016a 0AD1     		bne	.L1
 215:Z80_IO_Handle.c ****             {
 216:Z80_IO_Handle.c ****                 FrontPanelZ80Write(3);
 265              		.loc 1 216 0
 266 016c 0320     		movs	r0, #3
 267 016e FFF7FEFF 		bl	FrontPanelZ80Write
 268              	.LVL18:
 217:Z80_IO_Handle.c ****                 return;
 269              		.loc 1 217 0
 270 0172 06E0     		b	.L1
 271              	.L4:
 218:Z80_IO_Handle.c ****             }
 219:Z80_IO_Handle.c ****             break;
 220:Z80_IO_Handle.c **** #endif
 221:Z80_IO_Handle.c **** #ifdef USING_MEM_MAP_1
 222:Z80_IO_Handle.c ****         case MEM_MAP_SWAP:
 223:Z80_IO_Handle.c ****             if (ioCrtlRegVal == REGULAR_WRITE_CYCLE)      // regular write cycle
 272              		.loc 1 223 0
 273 0174 9DF80730 		ldrb	r3, [sp, #7]	@ zero_extendqisi2
 274 0178 DBB2     		uxtb	r3, r3
 275 017a 1A2B     		cmp	r3, #26
 276 017c 01D1     		bne	.L1
 224:Z80_IO_Handle.c ****             {
 225:Z80_IO_Handle.c ****                 swap_out_ROM_space();
 277              		.loc 1 225 0
 278 017e FFF7FEFF 		bl	swap_out_ROM_space
 279              	.LVL19:
 280              	.L1:
 226:Z80_IO_Handle.c ****                 return;
 227:Z80_IO_Handle.c ****             }
 228:Z80_IO_Handle.c **** #endif
 229:Z80_IO_Handle.c **** #ifdef USING_EXP_MCCP23017
 230:Z80_IO_Handle.c ****         case PIOA_D:
 231:Z80_IO_Handle.c ****             if (ioCrtlRegVal == REGULAR_READ_CYCLE)             // regular read cycle
 232:Z80_IO_Handle.c ****             {
 233:Z80_IO_Handle.c ****                 PioReadDataA();
ARM GAS  C:\Users\DGILLI~1\AppData\Local\Temp\cceJgtXc.s 			page 10


 234:Z80_IO_Handle.c ****                 return;
 235:Z80_IO_Handle.c ****             }
 236:Z80_IO_Handle.c ****             else if (ioCrtlRegVal == REGULAR_WRITE_CYCLE)      // regular write cycle
 237:Z80_IO_Handle.c ****             {
 238:Z80_IO_Handle.c ****                 PioWriteDataA();
 239:Z80_IO_Handle.c ****                 return;
 240:Z80_IO_Handle.c ****             }
 241:Z80_IO_Handle.c ****             break;
 242:Z80_IO_Handle.c ****         case PIOA_C:    // Control register
 243:Z80_IO_Handle.c ****             if (ioCrtlRegVal == REGULAR_WRITE_CYCLE)      // regular write cycle
 244:Z80_IO_Handle.c ****             {
 245:Z80_IO_Handle.c ****                 PioWriteCtrlA();
 246:Z80_IO_Handle.c ****                 return;
 247:Z80_IO_Handle.c ****             }
 248:Z80_IO_Handle.c ****             break;
 249:Z80_IO_Handle.c ****         case PIOB_D:
 250:Z80_IO_Handle.c ****             if (ioCrtlRegVal == REGULAR_READ_CYCLE)            // regular read cycle
 251:Z80_IO_Handle.c ****             {
 252:Z80_IO_Handle.c ****                 PioReadDataB();
 253:Z80_IO_Handle.c ****                 return;
 254:Z80_IO_Handle.c ****             }
 255:Z80_IO_Handle.c ****             else if (ioCrtlRegVal == REGULAR_WRITE_CYCLE)      // regular write cycle
 256:Z80_IO_Handle.c ****             {
 257:Z80_IO_Handle.c ****                 SioWriteDataB();
 258:Z80_IO_Handle.c ****                 return;
 259:Z80_IO_Handle.c ****             }
 260:Z80_IO_Handle.c ****             break;
 261:Z80_IO_Handle.c ****         case PIOB_C:
 262:Z80_IO_Handle.c ****             if (ioCrtlRegVal == REGULAR_WRITE_CYCLE)      // regular write cycle
 263:Z80_IO_Handle.c ****             {
 264:Z80_IO_Handle.c ****                 PioWriteCtrlB();
 265:Z80_IO_Handle.c ****                 return;
 266:Z80_IO_Handle.c ****             }
 267:Z80_IO_Handle.c ****             break;
 268:Z80_IO_Handle.c **** #endif
 269:Z80_IO_Handle.c ****         default:    // Handle other cases
 270:Z80_IO_Handle.c ****             break;
 271:Z80_IO_Handle.c ****     }
 272:Z80_IO_Handle.c **** }
 281              		.loc 1 272 0
 282 0182 03B0     		add	sp, sp, #12
 283              		.cfi_def_cfa_offset 4
 284              		@ sp needed
 285 0184 5DF804FB 		ldr	pc, [sp], #4
 286              		.cfi_endproc
 287              	.LFE63:
 288              		.size	HandleZ80IO, .-HandleZ80IO
 289              		.section	.text.ackIO,"ax",%progbits
 290              		.align	2
 291              		.global	ackIO
 292              		.thumb
 293              		.thumb_func
 294              		.type	ackIO, %function
 295              	ackIO:
 296              	.LFB64:
 273:Z80_IO_Handle.c **** 
 274:Z80_IO_Handle.c **** void ackIO(void)
ARM GAS  C:\Users\DGILLI~1\AppData\Local\Temp\cceJgtXc.s 			page 11


 275:Z80_IO_Handle.c **** {
 297              		.loc 1 275 0
 298              		.cfi_startproc
 299              		@ args = 0, pretend = 0, frame = 0
 300              		@ frame_needed = 0, uses_anonymous_args = 0
 301 0000 08B5     		push	{r3, lr}
 302              		.cfi_def_cfa_offset 8
 303              		.cfi_offset 3, -8
 304              		.cfi_offset 14, -4
 276:Z80_IO_Handle.c ****     IO_Ctrl_Reg_Write(IO_Ctrl_Reg_Read() | CLR_IO_INT_BIT);
 305              		.loc 1 276 0
 306 0002 FFF7FEFF 		bl	IO_Ctrl_Reg_Read
 307              	.LVL20:
 308 0006 40F00100 		orr	r0, r0, #1
 309 000a C0B2     		uxtb	r0, r0
 310 000c FFF7FEFF 		bl	IO_Ctrl_Reg_Write
 311              	.LVL21:
 312 0010 08BD     		pop	{r3, pc}
 313              		.cfi_endproc
 314              	.LFE64:
 315              		.size	ackIO, .-ackIO
 316 0012 00BF     		.section	.text.waitNextIORq,"ax",%progbits
 317              		.align	2
 318              		.global	waitNextIORq
 319              		.thumb
 320              		.thumb_func
 321              		.type	waitNextIORq, %function
 322              	waitNextIORq:
 323              	.LFB65:
 277:Z80_IO_Handle.c **** }
 278:Z80_IO_Handle.c **** 
 279:Z80_IO_Handle.c **** void waitNextIORq(void)
 280:Z80_IO_Handle.c **** {
 324              		.loc 1 280 0
 325              		.cfi_startproc
 326              		@ args = 0, pretend = 0, frame = 0
 327              		@ frame_needed = 0, uses_anonymous_args = 0
 328 0000 08B5     		push	{r3, lr}
 329              		.cfi_def_cfa_offset 8
 330              		.cfi_offset 3, -8
 331              		.cfi_offset 14, -4
 332              	.L28:
 281:Z80_IO_Handle.c ****     while ((IO_Stat_Reg_Read() & IOBUSY_BIT) == 0x00);
 333              		.loc 1 281 0 discriminator 1
 334 0002 FFF7FEFF 		bl	IO_Stat_Reg_Read
 335              	.LVL22:
 336 0006 10F0100F 		tst	r0, #16
 337 000a FAD0     		beq	.L28
 282:Z80_IO_Handle.c **** }
 338              		.loc 1 282 0
 339 000c 08BD     		pop	{r3, pc}
 340              		.cfi_endproc
 341              	.LFE65:
 342              		.size	waitNextIORq, .-waitNextIORq
 343 000e 00BF     		.text
 344              	.Letext0:
 345              		.file 2 "c:\\program files (x86)\\cypress\\psoc creator\\4.2\\psoc creator\\import\\gnu\\arm\\5.4.
ARM GAS  C:\Users\DGILLI~1\AppData\Local\Temp\cceJgtXc.s 			page 12


 346              		.file 3 "c:\\program files (x86)\\cypress\\psoc creator\\4.2\\psoc creator\\import\\gnu\\arm\\5.4.
 347              		.file 4 "Generated_Source\\PSoC5/cytypes.h"
 348              		.file 5 "Generated_Source\\PSoC5/IO_Stat_Reg.h"
 349              		.file 6 "./Z80_6850_Emul.h"
 350              		.file 7 "Generated_Source\\PSoC5/AdrLowIn.h"
 351              		.file 8 "./Z80_6850_2_Emul.h"
 352              		.file 9 "./FrontPanel.h"
 353              		.file 10 "./Z80_Mem_Mappers.h"
 354              		.file 11 "Generated_Source\\PSoC5/IO_Ctrl_Reg.h"
 355              		.file 12 "Generated_Source\\PSoC5/core_cm3.h"