ARM GAS  C:\Users\HPz420\AppData\Local\Temp\ccq31Q6P.s 			page 1


   1              		.syntax unified
   2              		.cpu cortex-m3
   3              		.fpu softvfp
   4              		.eabi_attribute 20, 1
   5              		.eabi_attribute 21, 1
   6              		.eabi_attribute 23, 3
   7              		.eabi_attribute 24, 1
   8              		.eabi_attribute 25, 1
   9              		.eabi_attribute 26, 1
  10              		.eabi_attribute 30, 1
  11              		.eabi_attribute 34, 1
  12              		.eabi_attribute 18, 4
  13              		.thumb
  14              		.syntax unified
  15              		.file	"Z80_DAC.c"
  16              		.text
  17              	.Ltext0:
  18              		.cfi_sections	.debug_frame
  19              		.section	.text.init_DAC,"ax",%progbits
  20              		.align	2
  21              		.global	init_DAC
  22              		.thumb
  23              		.thumb_func
  24              		.type	init_DAC, %function
  25              	init_DAC:
  26              	.LFB63:
  27              		.file 1 "Z80_DAC.c"
   1:Z80_DAC.c     **** /* ========================================
   2:Z80_DAC.c     **** *
   3:Z80_DAC.c     **** * Copyright LAND BOARDS, LLC, 2019
   4:Z80_DAC.c     **** * All Rights Reserved
   5:Z80_DAC.c     **** * UNPUBLISHED, LICENSED SOFTWARE.
   6:Z80_DAC.c     **** *
   7:Z80_DAC.c     **** * CONFIDENTIAL AND PROPRIETARY INFORMATION
   8:Z80_DAC.c     **** * WHICH IS THE PROPERTY OF Land Boards, LLC.
   9:Z80_DAC.c     **** *
  10:Z80_DAC.c     **** * ========================================
  11:Z80_DAC.c     **** */
  12:Z80_DAC.c     **** 
  13:Z80_DAC.c     **** #include <project.h>
  14:Z80_DAC.c     **** #include <Z80_PSoC_3Chips.h>
  15:Z80_DAC.c     **** 
  16:Z80_DAC.c     **** uint8 dacState;
  17:Z80_DAC.c     **** uint8 outDataDAC;
  18:Z80_DAC.c     **** uint8 inDataDAC;
  19:Z80_DAC.c     **** 
  20:Z80_DAC.c     **** ///////////////////////////////////////////////////////////////////////////////
  21:Z80_DAC.c     **** // void init_DAC(void) - Initialize the DAC
  22:Z80_DAC.c     **** 
  23:Z80_DAC.c     **** void init_DAC(void)
  24:Z80_DAC.c     **** {
  28              		.loc 1 24 0
  29              		.cfi_startproc
  30              		@ args = 0, pretend = 0, frame = 0
  31              		@ frame_needed = 0, uses_anonymous_args = 0
  32 0000 08B5     		push	{r3, lr}
  33              		.cfi_def_cfa_offset 8
ARM GAS  C:\Users\HPz420\AppData\Local\Temp\ccq31Q6P.s 			page 2


  34              		.cfi_offset 3, -8
  35              		.cfi_offset 14, -4
  25:Z80_DAC.c     **** 	WaveDAC8_Start();
  36              		.loc 1 25 0
  37 0002 FFF7FEFF 		bl	WaveDAC8_Start
  38              	.LVL0:
  26:Z80_DAC.c     **** 	outDataDAC = 0;
  39              		.loc 1 26 0
  40 0006 0023     		movs	r3, #0
  41 0008 024A     		ldr	r2, .L3
  42 000a 1370     		strb	r3, [r2]
  27:Z80_DAC.c     **** 	inDataDAC = 0;
  43              		.loc 1 27 0
  44 000c 024A     		ldr	r2, .L3+4
  45 000e 1370     		strb	r3, [r2]
  46 0010 08BD     		pop	{r3, pc}
  47              	.L4:
  48 0012 00BF     		.align	2
  49              	.L3:
  50 0014 00000000 		.word	outDataDAC
  51 0018 00000000 		.word	inDataDAC
  52              		.cfi_endproc
  53              	.LFE63:
  54              		.size	init_DAC, .-init_DAC
  55              		.section	.text.writeDAC,"ax",%progbits
  56              		.align	2
  57              		.global	writeDAC
  58              		.thumb
  59              		.thumb_func
  60              		.type	writeDAC, %function
  61              	writeDAC:
  62              	.LFB64:
  28:Z80_DAC.c     **** }
  29:Z80_DAC.c     **** 
  30:Z80_DAC.c     **** ///////////////////////////////////////////////////////////////////////////////
  31:Z80_DAC.c     **** // void writeDAC(void) - Write to the DAC data
  32:Z80_DAC.c     **** 
  33:Z80_DAC.c     **** void writeDAC(void)
  34:Z80_DAC.c     **** {
  63              		.loc 1 34 0
  64              		.cfi_startproc
  65              		@ args = 0, pretend = 0, frame = 0
  66              		@ frame_needed = 0, uses_anonymous_args = 0
  67 0000 08B5     		push	{r3, lr}
  68              		.cfi_def_cfa_offset 8
  69              		.cfi_offset 3, -8
  70              		.cfi_offset 14, -4
  35:Z80_DAC.c     **** 	outDataDAC = Z80_Data_Out_Read();
  71              		.loc 1 35 0
  72 0002 FFF7FEFF 		bl	Z80_Data_Out_Read
  73              	.LVL1:
  74 0006 014B     		ldr	r3, .L7
  75 0008 1870     		strb	r0, [r3]
  76 000a 08BD     		pop	{r3, pc}
  77              	.L8:
  78              		.align	2
  79              	.L7:
ARM GAS  C:\Users\HPz420\AppData\Local\Temp\ccq31Q6P.s 			page 3


  80 000c 00000000 		.word	outDataDAC
  81              		.cfi_endproc
  82              	.LFE64:
  83              		.size	writeDAC, .-writeDAC
  84              		.section	.text.readDAC,"ax",%progbits
  85              		.align	2
  86              		.global	readDAC
  87              		.thumb
  88              		.thumb_func
  89              		.type	readDAC, %function
  90              	readDAC:
  91              	.LFB65:
  36:Z80_DAC.c     **** }
  37:Z80_DAC.c     **** 
  38:Z80_DAC.c     **** ///////////////////////////////////////////////////////////////////////////////
  39:Z80_DAC.c     **** // void readDAC(void) - Read the DAC data
  40:Z80_DAC.c     **** 
  41:Z80_DAC.c     **** void readDAC(void)
  42:Z80_DAC.c     **** {
  92              		.loc 1 42 0
  93              		.cfi_startproc
  94              		@ args = 0, pretend = 0, frame = 0
  95              		@ frame_needed = 0, uses_anonymous_args = 0
  96 0000 08B5     		push	{r3, lr}
  97              		.cfi_def_cfa_offset 8
  98              		.cfi_offset 3, -8
  99              		.cfi_offset 14, -4
  43:Z80_DAC.c     **** 	Z80_Data_In_Write(outDataDAC);
 100              		.loc 1 43 0
 101 0002 034B     		ldr	r3, .L11
 102 0004 1878     		ldrb	r0, [r3]	@ zero_extendqisi2
 103 0006 FFF7FEFF 		bl	Z80_Data_In_Write
 104              	.LVL2:
  44:Z80_DAC.c     **** 	ackIO();
 105              		.loc 1 44 0
 106 000a FFF7FEFF 		bl	ackIO
 107              	.LVL3:
 108 000e 08BD     		pop	{r3, pc}
 109              	.L12:
 110              		.align	2
 111              	.L11:
 112 0010 00000000 		.word	outDataDAC
 113              		.cfi_endproc
 114              	.LFE65:
 115              		.size	readDAC, .-readDAC
 116              		.section	.text.readStatDAC,"ax",%progbits
 117              		.align	2
 118              		.global	readStatDAC
 119              		.thumb
 120              		.thumb_func
 121              		.type	readStatDAC, %function
 122              	readStatDAC:
 123              	.LFB66:
  45:Z80_DAC.c     **** }
  46:Z80_DAC.c     **** 
  47:Z80_DAC.c     **** ///////////////////////////////////////////////////////////////////////////////
  48:Z80_DAC.c     **** // void readStatDAC(void) - Read the DAC Status
ARM GAS  C:\Users\HPz420\AppData\Local\Temp\ccq31Q6P.s 			page 4


  49:Z80_DAC.c     **** 
  50:Z80_DAC.c     **** void readStatDAC(void)
  51:Z80_DAC.c     **** {
 124              		.loc 1 51 0
 125              		.cfi_startproc
 126              		@ args = 0, pretend = 0, frame = 0
 127              		@ frame_needed = 0, uses_anonymous_args = 0
 128 0000 08B5     		push	{r3, lr}
 129              		.cfi_def_cfa_offset 8
 130              		.cfi_offset 3, -8
 131              		.cfi_offset 14, -4
  52:Z80_DAC.c     **** 	Z80_Data_In_Write(dacState);
 132              		.loc 1 52 0
 133 0002 034B     		ldr	r3, .L15
 134 0004 1878     		ldrb	r0, [r3]	@ zero_extendqisi2
 135 0006 FFF7FEFF 		bl	Z80_Data_In_Write
 136              	.LVL4:
  53:Z80_DAC.c     **** 	ackIO();
 137              		.loc 1 53 0
 138 000a FFF7FEFF 		bl	ackIO
 139              	.LVL5:
 140 000e 08BD     		pop	{r3, pc}
 141              	.L16:
 142              		.align	2
 143              	.L15:
 144 0010 00000000 		.word	dacState
 145              		.cfi_endproc
 146              	.LFE66:
 147              		.size	readStatDAC, .-readStatDAC
 148              		.section	.text.writeCmdDAC,"ax",%progbits
 149              		.align	2
 150              		.global	writeCmdDAC
 151              		.thumb
 152              		.thumb_func
 153              		.type	writeCmdDAC, %function
 154              	writeCmdDAC:
 155              	.LFB67:
  54:Z80_DAC.c     **** }
  55:Z80_DAC.c     **** 
  56:Z80_DAC.c     **** ///////////////////////////////////////////////////////////////////////////////
  57:Z80_DAC.c     **** // void writeCmdDAC(void) - Write the DAC command
  58:Z80_DAC.c     **** //  0 = Turn off DAC output
  59:Z80_DAC.c     **** //  1 = Turn on DAC output
  60:Z80_DAC.c     **** 
  61:Z80_DAC.c     **** void writeCmdDAC(void)
  62:Z80_DAC.c     **** {
 156              		.loc 1 62 0
 157              		.cfi_startproc
 158              		@ args = 0, pretend = 0, frame = 0
 159              		@ frame_needed = 0, uses_anonymous_args = 0
 160 0000 08B5     		push	{r3, lr}
 161              		.cfi_def_cfa_offset 8
 162              		.cfi_offset 3, -8
 163              		.cfi_offset 14, -4
  63:Z80_DAC.c     **** 	dacState = Z80_Data_Out_Read();
 164              		.loc 1 63 0
 165 0002 FFF7FEFF 		bl	Z80_Data_Out_Read
ARM GAS  C:\Users\HPz420\AppData\Local\Temp\ccq31Q6P.s 			page 5


 166              	.LVL6:
 167 0006 064B     		ldr	r3, .L21
 168 0008 1870     		strb	r0, [r3]
  64:Z80_DAC.c     **** 	if (dacState == 0)
 169              		.loc 1 64 0
 170 000a 10B9     		cbnz	r0, .L18
  65:Z80_DAC.c     **** 	{
  66:Z80_DAC.c     **** 		WaveDAC8_Stop();
 171              		.loc 1 66 0
 172 000c FFF7FEFF 		bl	WaveDAC8_Stop
 173              	.LVL7:
 174 0010 03E0     		b	.L19
 175              	.L18:
  67:Z80_DAC.c     **** 	}
  68:Z80_DAC.c     **** 	else if (dacState == 1)
 176              		.loc 1 68 0
 177 0012 0128     		cmp	r0, #1
 178 0014 01D1     		bne	.L19
  69:Z80_DAC.c     **** 	{
  70:Z80_DAC.c     **** 		WaveDAC8_Start();
 179              		.loc 1 70 0
 180 0016 FFF7FEFF 		bl	WaveDAC8_Start
 181              	.LVL8:
 182              	.L19:
  71:Z80_DAC.c     **** 	}
  72:Z80_DAC.c     **** 	ackIO();
 183              		.loc 1 72 0
 184 001a FFF7FEFF 		bl	ackIO
 185              	.LVL9:
 186 001e 08BD     		pop	{r3, pc}
 187              	.L22:
 188              		.align	2
 189              	.L21:
 190 0020 00000000 		.word	dacState
 191              		.cfi_endproc
 192              	.LFE67:
 193              		.size	writeCmdDAC, .-writeCmdDAC
 194              		.comm	inDataDAC,1,1
 195              		.comm	outDataDAC,1,1
 196              		.comm	dacState,1,1
 197              		.text
 198              	.Letext0:
 199              		.file 2 "c:\\program files (x86)\\cypress\\psoc creator\\4.2\\psoc creator\\import\\gnu\\arm\\5.4.
 200              		.file 3 "c:\\program files (x86)\\cypress\\psoc creator\\4.2\\psoc creator\\import\\gnu\\arm\\5.4.
 201              		.file 4 "Generated_Source\\PSoC5/cytypes.h"
 202              		.file 5 "Generated_Source\\PSoC5/core_cm3.h"
 203              		.file 6 "Generated_Source\\PSoC5/WaveDAC8.h"
 204              		.file 7 "Generated_Source\\PSoC5/Z80_Data_Out.h"
 205              		.file 8 "Generated_Source\\PSoC5/Z80_Data_In.h"
 206              		.file 9 "./Z80_IO_Handle.h"