ARM GAS  C:\Users\HPz420\AppData\Local\Temp\ccajR9Y0.s 			page 1


   1              		.syntax unified
   2              		.cpu cortex-m3
   3              		.fpu softvfp
   4              		.eabi_attribute 20, 1
   5              		.eabi_attribute 21, 1
   6              		.eabi_attribute 23, 3
   7              		.eabi_attribute 24, 1
   8              		.eabi_attribute 25, 1
   9              		.eabi_attribute 26, 1
  10              		.eabi_attribute 30, 1
  11              		.eabi_attribute 34, 1
  12              		.eabi_attribute 18, 4
  13              		.thumb
  14              		.syntax unified
  15              		.file	"Z80_RTC.c"
  16              		.text
  17              	.Ltext0:
  18              		.cfi_sections	.debug_frame
  19              		.section	.text.init_Z80_RTC,"ax",%progbits
  20              		.align	2
  21              		.global	init_Z80_RTC
  22              		.thumb
  23              		.thumb_func
  24              		.type	init_Z80_RTC, %function
  25              	init_Z80_RTC:
  26              	.LFB63:
  27              		.file 1 "Z80_RTC.c"
   1:Z80_RTC.c     **** /* ========================================
   2:Z80_RTC.c     ****  *
   3:Z80_RTC.c     ****  * Copyright LAND BOARDS, LLC, 2019
   4:Z80_RTC.c     ****  * All Rights Reserved
   5:Z80_RTC.c     ****  * UNPUBLISHED, LICENSED SOFTWARE.
   6:Z80_RTC.c     ****  *
   7:Z80_RTC.c     ****  * CONFIDENTIAL AND PROPRIETARY INFORMATION
   8:Z80_RTC.c     ****  * WHICH IS THE PROPERTY OF Land Boards, LLC.
   9:Z80_RTC.c     ****  *
  10:Z80_RTC.c     ****  * ========================================
  11:Z80_RTC.c     **** */
  12:Z80_RTC.c     **** 
  13:Z80_RTC.c     **** ///////////////////////////////////////////////////////////////////////////////
  14:Z80_RTC.c     **** // Real Time Clock access from the Z80
  15:Z80_RTC.c     **** // Status returns pointer into enum struc
  16:Z80_RTC.c     **** // Command sets the pointer into enum struc
  17:Z80_RTC.c     **** // Read data - gets the current field and auto-increments to the next field
  18:Z80_RTC.c     **** // Write data - sets the current field and auto-increments to the next field
  19:Z80_RTC.c     **** 
  20:Z80_RTC.c     **** #include "Z80_RTC.h"
  21:Z80_RTC.c     **** 
  22:Z80_RTC.c     **** ///////////////////////////////////////////////////////////////////////////////
  23:Z80_RTC.c     **** // RTC State machine
  24:Z80_RTC.c     **** // Reads and writes to the data register use these state bits
  25:Z80_RTC.c     **** //enum rtcStates 
  26:Z80_RTC.c     **** //{
  27:Z80_RTC.c     **** //    RTC_SEC,
  28:Z80_RTC.c     **** //    RTC_MIN,
  29:Z80_RTC.c     **** //    RTC_HR,
  30:Z80_RTC.c     **** //    RTC_DAY,
ARM GAS  C:\Users\HPz420\AppData\Local\Temp\ccajR9Y0.s 			page 2


  31:Z80_RTC.c     **** //    RTC_MON,
  32:Z80_RTC.c     **** //    RTC_YR_HI,
  33:Z80_RTC.c     **** //    RTC_YR_LO
  34:Z80_RTC.c     **** //};
  35:Z80_RTC.c     **** 
  36:Z80_RTC.c     **** uint8 rtcState;
  37:Z80_RTC.c     **** 
  38:Z80_RTC.c     **** ///////////////////////////////////////////////////////////////////////////////
  39:Z80_RTC.c     **** // 
  40:Z80_RTC.c     **** 
  41:Z80_RTC.c     **** void init_Z80_RTC()
  42:Z80_RTC.c     **** {
  28              		.loc 1 42 0
  29              		.cfi_startproc
  30              		@ args = 0, pretend = 0, frame = 0
  31              		@ frame_needed = 0, uses_anonymous_args = 0
  32 0000 08B5     		push	{r3, lr}
  33              		.cfi_def_cfa_offset 8
  34              		.cfi_offset 3, -8
  35              		.cfi_offset 14, -4
  43:Z80_RTC.c     ****     RTC_Start();
  36              		.loc 1 43 0
  37 0002 FFF7FEFF 		bl	RTC_Start
  38              	.LVL0:
  44:Z80_RTC.c     ****     rtcState = RTC_SEC;
  39              		.loc 1 44 0
  40 0006 0022     		movs	r2, #0
  41 0008 014B     		ldr	r3, .L3
  42 000a 1A70     		strb	r2, [r3]
  43 000c 08BD     		pop	{r3, pc}
  44              	.L4:
  45 000e 00BF     		.align	2
  46              	.L3:
  47 0010 00000000 		.word	rtcState
  48              		.cfi_endproc
  49              	.LFE63:
  50              		.size	init_Z80_RTC, .-init_Z80_RTC
  51              		.section	.text.commandRTC,"ax",%progbits
  52              		.align	2
  53              		.global	commandRTC
  54              		.thumb
  55              		.thumb_func
  56              		.type	commandRTC, %function
  57              	commandRTC:
  58              	.LFB64:
  45:Z80_RTC.c     **** }
  46:Z80_RTC.c     **** 
  47:Z80_RTC.c     **** ///////////////////////////////////////////////////////////////////////////////
  48:Z80_RTC.c     **** // void commandRTC() - Set the RTC state pointer
  49:Z80_RTC.c     **** // Normally would set to 0
  50:Z80_RTC.c     **** 
  51:Z80_RTC.c     **** void commandRTC(void)
  52:Z80_RTC.c     **** {
  59              		.loc 1 52 0
  60              		.cfi_startproc
  61              		@ args = 0, pretend = 0, frame = 0
  62              		@ frame_needed = 0, uses_anonymous_args = 0
ARM GAS  C:\Users\HPz420\AppData\Local\Temp\ccajR9Y0.s 			page 3


  63 0000 08B5     		push	{r3, lr}
  64              		.cfi_def_cfa_offset 8
  65              		.cfi_offset 3, -8
  66              		.cfi_offset 14, -4
  53:Z80_RTC.c     ****     rtcState = Z80_Data_Out_Read();
  67              		.loc 1 53 0
  68 0002 FFF7FEFF 		bl	Z80_Data_Out_Read
  69              	.LVL1:
  70 0006 024B     		ldr	r3, .L7
  71 0008 1870     		strb	r0, [r3]
  54:Z80_RTC.c     ****     ackIO();
  72              		.loc 1 54 0
  73 000a FFF7FEFF 		bl	ackIO
  74              	.LVL2:
  75 000e 08BD     		pop	{r3, pc}
  76              	.L8:
  77              		.align	2
  78              	.L7:
  79 0010 00000000 		.word	rtcState
  80              		.cfi_endproc
  81              	.LFE64:
  82              		.size	commandRTC, .-commandRTC
  83              		.section	.text.readRTCCmd,"ax",%progbits
  84              		.align	2
  85              		.global	readRTCCmd
  86              		.thumb
  87              		.thumb_func
  88              		.type	readRTCCmd, %function
  89              	readRTCCmd:
  90              	.LFB65:
  55:Z80_RTC.c     **** }
  56:Z80_RTC.c     **** 
  57:Z80_RTC.c     **** ///////////////////////////////////////////////////////////////////////////////
  58:Z80_RTC.c     **** // readRTCCmd() - Send the current state pointer to the Z80
  59:Z80_RTC.c     **** 
  60:Z80_RTC.c     **** void readRTCCmd(void)
  61:Z80_RTC.c     **** {
  91              		.loc 1 61 0
  92              		.cfi_startproc
  93              		@ args = 0, pretend = 0, frame = 0
  94              		@ frame_needed = 0, uses_anonymous_args = 0
  95 0000 08B5     		push	{r3, lr}
  96              		.cfi_def_cfa_offset 8
  97              		.cfi_offset 3, -8
  98              		.cfi_offset 14, -4
  62:Z80_RTC.c     ****     Z80_Data_In_Write(rtcState);
  99              		.loc 1 62 0
 100 0002 034B     		ldr	r3, .L11
 101 0004 1878     		ldrb	r0, [r3]	@ zero_extendqisi2
 102 0006 FFF7FEFF 		bl	Z80_Data_In_Write
 103              	.LVL3:
  63:Z80_RTC.c     ****     ackIO();
 104              		.loc 1 63 0
 105 000a FFF7FEFF 		bl	ackIO
 106              	.LVL4:
 107 000e 08BD     		pop	{r3, pc}
 108              	.L12:
ARM GAS  C:\Users\HPz420\AppData\Local\Temp\ccajR9Y0.s 			page 4


 109              		.align	2
 110              	.L11:
 111 0010 00000000 		.word	rtcState
 112              		.cfi_endproc
 113              	.LFE65:
 114              		.size	readRTCCmd, .-readRTCCmd
 115              		.section	.text.writeRTC,"ax",%progbits
 116              		.align	2
 117              		.global	writeRTC
 118              		.thumb
 119              		.thumb_func
 120              		.type	writeRTC, %function
 121              	writeRTC:
 122              	.LFB66:
  64:Z80_RTC.c     **** 
  65:Z80_RTC.c     **** }
  66:Z80_RTC.c     **** 
  67:Z80_RTC.c     **** ///////////////////////////////////////////////////////////////////////////////
  68:Z80_RTC.c     **** // void writeRTC(uint8) - Write to RTC
  69:Z80_RTC.c     **** // Auto-increment to the next field
  70:Z80_RTC.c     **** 
  71:Z80_RTC.c     **** void writeRTC(void)
  72:Z80_RTC.c     **** {
 123              		.loc 1 72 0
 124              		.cfi_startproc
 125              		@ args = 0, pretend = 0, frame = 0
 126              		@ frame_needed = 0, uses_anonymous_args = 0
 127 0000 10B5     		push	{r4, lr}
 128              		.cfi_def_cfa_offset 8
 129              		.cfi_offset 4, -8
 130              		.cfi_offset 14, -4
  73:Z80_RTC.c     ****     uint16 year;
  74:Z80_RTC.c     ****     uint16 year2;
  75:Z80_RTC.c     ****     uint8 wrVal = Z80_Data_Out_Read();
 131              		.loc 1 75 0
 132 0002 FFF7FEFF 		bl	Z80_Data_Out_Read
 133              	.LVL5:
 134 0006 0446     		mov	r4, r0
 135              	.LVL6:
  76:Z80_RTC.c     ****     
  77:Z80_RTC.c     ****     switch (rtcState)
 136              		.loc 1 77 0
 137 0008 1D4B     		ldr	r3, .L24
 138 000a 1B78     		ldrb	r3, [r3]	@ zero_extendqisi2
 139 000c 062B     		cmp	r3, #6
 140 000e 34D8     		bhi	.L14
 141 0010 DFE803F0 		tbb	[pc, r3]
 142              	.L16:
 143 0014 04       		.byte	(.L15-.L16)/2
 144 0015 0A       		.byte	(.L17-.L16)/2
 145 0016 10       		.byte	(.L18-.L16)/2
 146 0017 16       		.byte	(.L19-.L16)/2
 147 0018 1C       		.byte	(.L20-.L16)/2
 148 0019 29       		.byte	(.L21-.L16)/2
 149 001a 22       		.byte	(.L22-.L16)/2
 150 001b 00       		.p2align 1
 151              	.L15:
ARM GAS  C:\Users\HPz420\AppData\Local\Temp\ccajR9Y0.s 			page 5


  78:Z80_RTC.c     ****     {
  79:Z80_RTC.c     ****         case RTC_SEC:
  80:Z80_RTC.c     ****             RTC_WriteSecond(wrVal);
 152              		.loc 1 80 0
 153 001c FFF7FEFF 		bl	RTC_WriteSecond
 154              	.LVL7:
  81:Z80_RTC.c     ****             rtcState = RTC_MIN;
 155              		.loc 1 81 0
 156 0020 0122     		movs	r2, #1
 157 0022 174B     		ldr	r3, .L24
 158 0024 1A70     		strb	r2, [r3]
  82:Z80_RTC.c     ****             break;
 159              		.loc 1 82 0
 160 0026 28E0     		b	.L14
 161              	.LVL8:
 162              	.L17:
  83:Z80_RTC.c     ****         case RTC_MIN:
  84:Z80_RTC.c     ****             RTC_WriteMinute(wrVal);
 163              		.loc 1 84 0
 164 0028 FFF7FEFF 		bl	RTC_WriteMinute
 165              	.LVL9:
  85:Z80_RTC.c     ****             rtcState = RTC_HR;
 166              		.loc 1 85 0
 167 002c 0222     		movs	r2, #2
 168 002e 144B     		ldr	r3, .L24
 169 0030 1A70     		strb	r2, [r3]
  86:Z80_RTC.c     ****             break;
 170              		.loc 1 86 0
 171 0032 22E0     		b	.L14
 172              	.LVL10:
 173              	.L18:
  87:Z80_RTC.c     ****         case RTC_HR:
  88:Z80_RTC.c     ****             RTC_WriteHour(wrVal);
 174              		.loc 1 88 0
 175 0034 FFF7FEFF 		bl	RTC_WriteHour
 176              	.LVL11:
  89:Z80_RTC.c     ****             rtcState = RTC_DAY;
 177              		.loc 1 89 0
 178 0038 0322     		movs	r2, #3
 179 003a 114B     		ldr	r3, .L24
 180 003c 1A70     		strb	r2, [r3]
  90:Z80_RTC.c     ****             break;
 181              		.loc 1 90 0
 182 003e 1CE0     		b	.L14
 183              	.LVL12:
 184              	.L19:
  91:Z80_RTC.c     ****         case RTC_DAY:
  92:Z80_RTC.c     ****             RTC_WriteDayOfMonth(wrVal);
 185              		.loc 1 92 0
 186 0040 FFF7FEFF 		bl	RTC_WriteDayOfMonth
 187              	.LVL13:
  93:Z80_RTC.c     ****             rtcState = RTC_MON;
 188              		.loc 1 93 0
 189 0044 0422     		movs	r2, #4
 190 0046 0E4B     		ldr	r3, .L24
 191 0048 1A70     		strb	r2, [r3]
  94:Z80_RTC.c     ****             break;
ARM GAS  C:\Users\HPz420\AppData\Local\Temp\ccajR9Y0.s 			page 6


 192              		.loc 1 94 0
 193 004a 16E0     		b	.L14
 194              	.LVL14:
 195              	.L20:
  95:Z80_RTC.c     ****         case RTC_MON:
  96:Z80_RTC.c     ****             RTC_WriteMonth(wrVal);
 196              		.loc 1 96 0
 197 004c FFF7FEFF 		bl	RTC_WriteMonth
 198              	.LVL15:
  97:Z80_RTC.c     ****             rtcState = RTC_YR_LO;
 199              		.loc 1 97 0
 200 0050 0622     		movs	r2, #6
 201 0052 0B4B     		ldr	r3, .L24
 202 0054 1A70     		strb	r2, [r3]
  98:Z80_RTC.c     ****             break;
 203              		.loc 1 98 0
 204 0056 10E0     		b	.L14
 205              	.LVL16:
 206              	.L22:
  99:Z80_RTC.c     ****         case RTC_YR_LO:
 100:Z80_RTC.c     ****             year = wrVal;
 101:Z80_RTC.c     ****             RTC_WriteYear(year);
 207              		.loc 1 101 0
 208 0058 80B2     		uxth	r0, r0
 209              	.LVL17:
 210 005a FFF7FEFF 		bl	RTC_WriteYear
 211              	.LVL18:
 102:Z80_RTC.c     ****             rtcState = RTC_YR_HI;
 212              		.loc 1 102 0
 213 005e 0522     		movs	r2, #5
 214 0060 074B     		ldr	r3, .L24
 215 0062 1A70     		strb	r2, [r3]
 103:Z80_RTC.c     ****             break;
 216              		.loc 1 103 0
 217 0064 09E0     		b	.L14
 218              	.LVL19:
 219              	.L21:
 104:Z80_RTC.c     ****         case RTC_YR_HI:
 105:Z80_RTC.c     ****             year = RTC_ReadYear() + (wrVal<<8);
 220              		.loc 1 105 0
 221 0066 FFF7FEFF 		bl	RTC_ReadYear
 222              	.LVL20:
 223 006a 00EB0420 		add	r0, r0, r4, lsl #8
 224              	.LVL21:
 106:Z80_RTC.c     ****             RTC_WriteYear(year);
 225              		.loc 1 106 0
 226 006e 80B2     		uxth	r0, r0
 227 0070 FFF7FEFF 		bl	RTC_WriteYear
 228              	.LVL22:
 107:Z80_RTC.c     ****             rtcState = RTC_SEC;
 229              		.loc 1 107 0
 230 0074 0022     		movs	r2, #0
 231 0076 024B     		ldr	r3, .L24
 232 0078 1A70     		strb	r2, [r3]
 233              	.L14:
 108:Z80_RTC.c     ****             break;
 109:Z80_RTC.c     ****     }
ARM GAS  C:\Users\HPz420\AppData\Local\Temp\ccajR9Y0.s 			page 7


 110:Z80_RTC.c     ****     ackIO();
 234              		.loc 1 110 0
 235 007a FFF7FEFF 		bl	ackIO
 236              	.LVL23:
 237 007e 10BD     		pop	{r4, pc}
 238              	.L25:
 239              		.align	2
 240              	.L24:
 241 0080 00000000 		.word	rtcState
 242              		.cfi_endproc
 243              	.LFE66:
 244              		.size	writeRTC, .-writeRTC
 245              		.section	.text.readRTC,"ax",%progbits
 246              		.align	2
 247              		.global	readRTC
 248              		.thumb
 249              		.thumb_func
 250              		.type	readRTC, %function
 251              	readRTC:
 252              	.LFB67:
 111:Z80_RTC.c     **** }
 112:Z80_RTC.c     **** 
 113:Z80_RTC.c     **** ///////////////////////////////////////////////////////////////////////////////
 114:Z80_RTC.c     **** // uint8 readRTC() - Read RTC
 115:Z80_RTC.c     **** // Auto-increment to the next field
 116:Z80_RTC.c     **** 
 117:Z80_RTC.c     **** void readRTC(void)
 118:Z80_RTC.c     **** {
 253              		.loc 1 118 0
 254              		.cfi_startproc
 255              		@ args = 0, pretend = 0, frame = 0
 256              		@ frame_needed = 0, uses_anonymous_args = 0
 257 0000 08B5     		push	{r3, lr}
 258              		.cfi_def_cfa_offset 8
 259              		.cfi_offset 3, -8
 260              		.cfi_offset 14, -4
 261              	.LVL24:
 119:Z80_RTC.c     ****     uint8 retVal = 0;
 120:Z80_RTC.c     ****     switch (rtcState)
 262              		.loc 1 120 0
 263 0002 1E4B     		ldr	r3, .L38
 264 0004 1B78     		ldrb	r3, [r3]	@ zero_extendqisi2
 265 0006 062B     		cmp	r3, #6
 266 0008 32D8     		bhi	.L36
 267 000a DFE803F0 		tbb	[pc, r3]
 268              	.L29:
 269 000e 04       		.byte	(.L28-.L29)/2
 270 000f 0A       		.byte	(.L30-.L29)/2
 271 0010 10       		.byte	(.L31-.L29)/2
 272 0011 16       		.byte	(.L32-.L29)/2
 273 0012 1C       		.byte	(.L33-.L29)/2
 274 0013 29       		.byte	(.L34-.L29)/2
 275 0014 22       		.byte	(.L35-.L29)/2
 276 0015 00       		.p2align 1
 277              	.L28:
 121:Z80_RTC.c     ****     {
 122:Z80_RTC.c     ****         case RTC_SEC:
ARM GAS  C:\Users\HPz420\AppData\Local\Temp\ccajR9Y0.s 			page 8


 123:Z80_RTC.c     ****             retVal = RTC_ReadSecond();
 278              		.loc 1 123 0
 279 0016 FFF7FEFF 		bl	RTC_ReadSecond
 280              	.LVL25:
 124:Z80_RTC.c     ****             rtcState = RTC_MIN;
 281              		.loc 1 124 0
 282 001a 0122     		movs	r2, #1
 283 001c 174B     		ldr	r3, .L38
 284 001e 1A70     		strb	r2, [r3]
 125:Z80_RTC.c     ****             break;
 285              		.loc 1 125 0
 286 0020 27E0     		b	.L27
 287              	.LVL26:
 288              	.L30:
 126:Z80_RTC.c     ****         case RTC_MIN:
 127:Z80_RTC.c     ****             retVal = RTC_ReadMinute();
 289              		.loc 1 127 0
 290 0022 FFF7FEFF 		bl	RTC_ReadMinute
 291              	.LVL27:
 128:Z80_RTC.c     ****             rtcState = RTC_HR;
 292              		.loc 1 128 0
 293 0026 0222     		movs	r2, #2
 294 0028 144B     		ldr	r3, .L38
 295 002a 1A70     		strb	r2, [r3]
 129:Z80_RTC.c     ****             break;
 296              		.loc 1 129 0
 297 002c 21E0     		b	.L27
 298              	.LVL28:
 299              	.L31:
 130:Z80_RTC.c     ****         case RTC_HR:
 131:Z80_RTC.c     ****             retVal = RTC_ReadHour();
 300              		.loc 1 131 0
 301 002e FFF7FEFF 		bl	RTC_ReadHour
 302              	.LVL29:
 132:Z80_RTC.c     ****             rtcState = RTC_DAY;
 303              		.loc 1 132 0
 304 0032 0322     		movs	r2, #3
 305 0034 114B     		ldr	r3, .L38
 306 0036 1A70     		strb	r2, [r3]
 133:Z80_RTC.c     ****             break;
 307              		.loc 1 133 0
 308 0038 1BE0     		b	.L27
 309              	.LVL30:
 310              	.L32:
 134:Z80_RTC.c     ****         case RTC_DAY:
 135:Z80_RTC.c     ****             retVal = RTC_ReadDayOfMonth();
 311              		.loc 1 135 0
 312 003a FFF7FEFF 		bl	RTC_ReadDayOfMonth
 313              	.LVL31:
 136:Z80_RTC.c     ****             rtcState = RTC_MON;
 314              		.loc 1 136 0
 315 003e 0422     		movs	r2, #4
 316 0040 0E4B     		ldr	r3, .L38
 317 0042 1A70     		strb	r2, [r3]
 137:Z80_RTC.c     ****             break;
 318              		.loc 1 137 0
 319 0044 15E0     		b	.L27
ARM GAS  C:\Users\HPz420\AppData\Local\Temp\ccajR9Y0.s 			page 9


 320              	.LVL32:
 321              	.L33:
 138:Z80_RTC.c     ****         case RTC_MON:
 139:Z80_RTC.c     ****             retVal = RTC_ReadMonth();
 322              		.loc 1 139 0
 323 0046 FFF7FEFF 		bl	RTC_ReadMonth
 324              	.LVL33:
 140:Z80_RTC.c     ****             rtcState = RTC_YR_LO;
 325              		.loc 1 140 0
 326 004a 0622     		movs	r2, #6
 327 004c 0B4B     		ldr	r3, .L38
 328 004e 1A70     		strb	r2, [r3]
 141:Z80_RTC.c     ****             break;
 329              		.loc 1 141 0
 330 0050 0FE0     		b	.L27
 331              	.LVL34:
 332              	.L35:
 142:Z80_RTC.c     ****         case RTC_YR_LO:
 143:Z80_RTC.c     ****             retVal = (uint8)(RTC_ReadYear() & 0xff);
 333              		.loc 1 143 0
 334 0052 FFF7FEFF 		bl	RTC_ReadYear
 335              	.LVL35:
 336 0056 C0B2     		uxtb	r0, r0
 337              	.LVL36:
 144:Z80_RTC.c     ****             rtcState = RTC_YR_HI;
 338              		.loc 1 144 0
 339 0058 0522     		movs	r2, #5
 340 005a 084B     		ldr	r3, .L38
 341 005c 1A70     		strb	r2, [r3]
 145:Z80_RTC.c     ****             break;
 342              		.loc 1 145 0
 343 005e 08E0     		b	.L27
 344              	.LVL37:
 345              	.L34:
 146:Z80_RTC.c     ****         case RTC_YR_HI:
 147:Z80_RTC.c     ****             retVal = (uint8)(RTC_ReadYear() >> 8);
 346              		.loc 1 147 0
 347 0060 FFF7FEFF 		bl	RTC_ReadYear
 348              	.LVL38:
 349 0064 C0F30720 		ubfx	r0, r0, #8, #8
 350              	.LVL39:
 148:Z80_RTC.c     ****             rtcState = RTC_SEC;
 351              		.loc 1 148 0
 352 0068 0022     		movs	r2, #0
 353 006a 044B     		ldr	r3, .L38
 354 006c 1A70     		strb	r2, [r3]
 149:Z80_RTC.c     ****             break;
 355              		.loc 1 149 0
 356 006e 00E0     		b	.L27
 357              	.LVL40:
 358              	.L36:
 119:Z80_RTC.c     ****     switch (rtcState)
 359              		.loc 1 119 0
 360 0070 0020     		movs	r0, #0
 361              	.LVL41:
 362              	.L27:
 150:Z80_RTC.c     ****     }
ARM GAS  C:\Users\HPz420\AppData\Local\Temp\ccajR9Y0.s 			page 10


 151:Z80_RTC.c     ****     Z80_Data_In_Write(retVal);
 363              		.loc 1 151 0
 364 0072 FFF7FEFF 		bl	Z80_Data_In_Write
 365              	.LVL42:
 152:Z80_RTC.c     ****     ackIO();
 366              		.loc 1 152 0
 367 0076 FFF7FEFF 		bl	ackIO
 368              	.LVL43:
 369 007a 08BD     		pop	{r3, pc}
 370              	.L39:
 371              		.align	2
 372              	.L38:
 373 007c 00000000 		.word	rtcState
 374              		.cfi_endproc
 375              	.LFE67:
 376              		.size	readRTC, .-readRTC
 377              		.comm	rtcState,1,1
 378              		.text
 379              	.Letext0:
 380              		.file 2 "c:\\program files (x86)\\cypress\\psoc creator\\4.2\\psoc creator\\import\\gnu\\arm\\5.4.
 381              		.file 3 "c:\\program files (x86)\\cypress\\psoc creator\\4.2\\psoc creator\\import\\gnu\\arm\\5.4.
 382              		.file 4 "Generated_Source\\PSoC5/cytypes.h"
 383              		.file 5 "Generated_Source\\PSoC5/core_cm3.h"
 384              		.file 6 "Generated_Source\\PSoC5/RTC.h"
 385              		.file 7 "Generated_Source\\PSoC5/Z80_Data_Out.h"
 386              		.file 8 "./Z80_IO_Handle.h"
 387              		.file 9 "Generated_Source\\PSoC5/Z80_Data_In.h"
 388              		.file 10 "Z80_RTC.h"