ARM GAS  C:\Users\DGILLI~1\AppData\Local\Temp\ccKrrnLR.s 			page 1


   1              		.syntax unified
   2              		.cpu cortex-m3
   3              		.fpu softvfp
   4              		.eabi_attribute 20, 1
   5              		.eabi_attribute 21, 1
   6              		.eabi_attribute 23, 3
   7              		.eabi_attribute 24, 1
   8              		.eabi_attribute 25, 1
   9              		.eabi_attribute 26, 1
  10              		.eabi_attribute 30, 1
  11              		.eabi_attribute 34, 1
  12              		.eabi_attribute 18, 4
  13              		.thumb
  14              		.syntax unified
  15              		.file	"Z80_Mem_Mappers.c"
  16              		.text
  17              	.Ltext0:
  18              		.cfi_sections	.debug_frame
  19              		.section	.text.init_mem_map_1,"ax",%progbits
  20              		.align	2
  21              		.global	init_mem_map_1
  22              		.thumb
  23              		.thumb_func
  24              		.type	init_mem_map_1, %function
  25              	init_mem_map_1:
  26              	.LFB63:
  27              		.file 1 "Z80_Mem_Mappers.c"
   1:Z80_Mem_Mappers.c **** /* ========================================
   2:Z80_Mem_Mappers.c **** *
   3:Z80_Mem_Mappers.c **** * Copyright LAND BOARDS, LLC, 2019
   4:Z80_Mem_Mappers.c **** * All Rights Reserved
   5:Z80_Mem_Mappers.c **** * UNPUBLISHED, LICENSED SOFTWARE.
   6:Z80_Mem_Mappers.c **** *
   7:Z80_Mem_Mappers.c **** * CONFIDENTIAL AND PROPRIETARY INFORMATION
   8:Z80_Mem_Mappers.c **** * WHICH IS THE PROPERTY OF Land Boards, LLC.
   9:Z80_Mem_Mappers.c **** *
  10:Z80_Mem_Mappers.c **** * ========================================
  11:Z80_Mem_Mappers.c **** */
  12:Z80_Mem_Mappers.c **** 
  13:Z80_Mem_Mappers.c **** #include <project.h>
  14:Z80_Mem_Mappers.c **** #include <Z80_PSoC_3Chips.h>
  15:Z80_Mem_Mappers.c **** 
  16:Z80_Mem_Mappers.c **** uint8 mmu4select;
  17:Z80_Mem_Mappers.c **** uint8 mmu4Reg0;
  18:Z80_Mem_Mappers.c **** uint8 mmu4Reg1;
  19:Z80_Mem_Mappers.c **** uint8 mmu4Reg2;
  20:Z80_Mem_Mappers.c **** uint8 mmu4Reg3;
  21:Z80_Mem_Mappers.c **** 
  22:Z80_Mem_Mappers.c **** #ifdef USING_MEM_MAP_1       // Memory mapper for Grant's CPM in FPGA code
  23:Z80_Mem_Mappers.c **** 
  24:Z80_Mem_Mappers.c **** /////////////////////////////////////////////////////////////////////////////////
  25:Z80_Mem_Mappers.c **** // Routines to do memory mapping
  26:Z80_Mem_Mappers.c **** // Mem Map 1 swaps out an 8KB block when CP/M is run
  27:Z80_Mem_Mappers.c **** 
  28:Z80_Mem_Mappers.c **** /////////////////////////////////////////////////////////////////////////////////
  29:Z80_Mem_Mappers.c **** // Memory Mapper version 1 sets bank size to 8KB
  30:Z80_Mem_Mappers.c **** // Points to the first SRAM bank
ARM GAS  C:\Users\DGILLI~1\AppData\Local\Temp\ccKrrnLR.s 			page 2


  31:Z80_Mem_Mappers.c **** 
  32:Z80_Mem_Mappers.c **** void init_mem_map_1(void)
  33:Z80_Mem_Mappers.c **** {
  28              		.loc 1 33 0
  29              		.cfi_startproc
  30              		@ args = 0, pretend = 0, frame = 0
  31              		@ frame_needed = 0, uses_anonymous_args = 0
  32 0000 08B5     		push	{r3, lr}
  33              		.cfi_def_cfa_offset 8
  34              		.cfi_offset 3, -8
  35              		.cfi_offset 14, -4
  34:Z80_Mem_Mappers.c **** 	BankBaseAdr_Write(0x00);
  36              		.loc 1 34 0
  37 0002 0020     		movs	r0, #0
  38 0004 FFF7FEFF 		bl	BankBaseAdr_Write
  39              	.LVL0:
  35:Z80_Mem_Mappers.c **** 	BankMask_Write(BANK_SIZE_8K);
  40              		.loc 1 35 0
  41 0008 1C20     		movs	r0, #28
  42 000a FFF7FEFF 		bl	BankMask_Write
  43              	.LVL1:
  36:Z80_Mem_Mappers.c **** 	AdrHighOut_Write(0x00);
  44              		.loc 1 36 0
  45 000e 0020     		movs	r0, #0
  46 0010 FFF7FEFF 		bl	AdrHighOut_Write
  47              	.LVL2:
  37:Z80_Mem_Mappers.c ****     MMU_Sel_Write(0x0);
  48              		.loc 1 37 0
  49 0014 0020     		movs	r0, #0
  50 0016 FFF7FEFF 		bl	MMU_Sel_Write
  51              	.LVL3:
  52 001a 08BD     		pop	{r3, pc}
  53              		.cfi_endproc
  54              	.LFE63:
  55              		.size	init_mem_map_1, .-init_mem_map_1
  56              		.section	.text.swap_out_ROM_space,"ax",%progbits
  57              		.align	2
  58              		.global	swap_out_ROM_space
  59              		.thumb
  60              		.thumb_func
  61              		.type	swap_out_ROM_space, %function
  62              	swap_out_ROM_space:
  63              	.LFB64:
  38:Z80_Mem_Mappers.c **** }
  39:Z80_Mem_Mappers.c **** 
  40:Z80_Mem_Mappers.c **** /////////////////////////////////////////////////////////////////////////////////
  41:Z80_Mem_Mappers.c **** // void swap_out_ROM_space(void) - When called switches to the 2nd bank
  42:Z80_Mem_Mappers.c **** // Used with Memory Map 1 scheme where there's a single 8KB bank starting at 0x0000
  43:Z80_Mem_Mappers.c **** // which is switched out when an I/O location is written.
  44:Z80_Mem_Mappers.c **** 
  45:Z80_Mem_Mappers.c **** void swap_out_ROM_space(void)
  46:Z80_Mem_Mappers.c **** {
  64              		.loc 1 46 0
  65              		.cfi_startproc
  66              		@ args = 0, pretend = 0, frame = 0
  67              		@ frame_needed = 0, uses_anonymous_args = 0
  68 0000 08B5     		push	{r3, lr}
ARM GAS  C:\Users\DGILLI~1\AppData\Local\Temp\ccKrrnLR.s 			page 3


  69              		.cfi_def_cfa_offset 8
  70              		.cfi_offset 3, -8
  71              		.cfi_offset 14, -4
  47:Z80_Mem_Mappers.c **** 	AdrHighOut_Write(0x20);     // Set A18..A16 to 0x1
  72              		.loc 1 47 0
  73 0002 2020     		movs	r0, #32
  74 0004 FFF7FEFF 		bl	AdrHighOut_Write
  75              	.LVL4:
  48:Z80_Mem_Mappers.c **** 	ackIO();
  76              		.loc 1 48 0
  77 0008 FFF7FEFF 		bl	ackIO
  78              	.LVL5:
  79 000c 08BD     		pop	{r3, pc}
  80              		.cfi_endproc
  81              	.LFE64:
  82              		.size	swap_out_ROM_space, .-swap_out_ROM_space
  83              		.comm	mmu4Reg3,1,1
  84              		.comm	mmu4Reg2,1,1
  85              		.comm	mmu4Reg1,1,1
  86              		.comm	mmu4Reg0,1,1
  87              		.comm	mmu4select,1,1
  88 000e 00BF     		.text
  89              	.Letext0:
  90              		.file 2 "c:\\program files (x86)\\cypress\\psoc creator\\4.2\\psoc creator\\import\\gnu\\arm\\5.4.
  91              		.file 3 "c:\\program files (x86)\\cypress\\psoc creator\\4.2\\psoc creator\\import\\gnu\\arm\\5.4.
  92              		.file 4 "Generated_Source\\PSoC5/cytypes.h"
  93              		.file 5 "Generated_Source\\PSoC5/core_cm3.h"
  94              		.file 6 "Generated_Source\\PSoC5/BankBaseAdr.h"
  95              		.file 7 "Generated_Source\\PSoC5/BankMask.h"
  96              		.file 8 "Generated_Source\\PSoC5/AdrHighOut.h"
  97              		.file 9 "Generated_Source\\PSoC5/MMU_Sel.h"
  98              		.file 10 "./Z80_IO_Handle.h"