ARM GAS  C:\Users\HPz420\AppData\Local\Temp\ccTDzGTq.s 			page 1


   1              		.syntax unified
   2              		.cpu cortex-m3
   3              		.fpu softvfp
   4              		.eabi_attribute 20, 1
   5              		.eabi_attribute 21, 1
   6              		.eabi_attribute 23, 3
   7              		.eabi_attribute 24, 1
   8              		.eabi_attribute 25, 1
   9              		.eabi_attribute 26, 1
  10              		.eabi_attribute 30, 1
  11              		.eabi_attribute 34, 1
  12              		.eabi_attribute 18, 4
  13              		.thumb
  14              		.syntax unified
  15              		.file	"Z80_6850_2_Emul.c"
  16              		.text
  17              	.Ltext0:
  18              		.cfi_sections	.debug_frame
  19              		.section	.text.initM6850_2_StatusRegister,"ax",%progbits
  20              		.align	2
  21              		.global	initM6850_2_StatusRegister
  22              		.thumb
  23              		.thumb_func
  24              		.type	initM6850_2_StatusRegister, %function
  25              	initM6850_2_StatusRegister:
  26              	.LFB63:
  27              		.file 1 "Z80_6850_2_Emul.c"
   1:Z80_6850_2_Emul.c **** /* ========================================
   2:Z80_6850_2_Emul.c **** *
   3:Z80_6850_2_Emul.c **** * Copyright LAND BOARDS, LLC, 2019
   4:Z80_6850_2_Emul.c **** * All Rights Reserved
   5:Z80_6850_2_Emul.c **** * UNPUBLISHED, LICENSED SOFTWARE.
   6:Z80_6850_2_Emul.c **** *
   7:Z80_6850_2_Emul.c **** * CONFIDENTIAL AND PROPRIETARY INFORMATION
   8:Z80_6850_2_Emul.c **** * WHICH IS THE PROPERTY OF Land Boards, LLC.
   9:Z80_6850_2_Emul.c **** *
  10:Z80_6850_2_Emul.c **** * ========================================
  11:Z80_6850_2_Emul.c **** */
  12:Z80_6850_2_Emul.c **** 
  13:Z80_6850_2_Emul.c **** //////////////////////////////////////////////////////////////////////////////////////////////
  14:Z80_6850_2_Emul.c **** // This is a 2nd M6850 ACIA Serial UART
  15:Z80_6850_2_Emul.c **** // This is set up as stubs to return proper status but doesn't have any hardware connections
  16:Z80_6850_2_Emul.c **** // It is used by Grant Searle's FPGA CP/M code which needs two ACIAs but only uses one ACIA
  17:Z80_6850_2_Emul.c **** 
  18:Z80_6850_2_Emul.c **** #include <project.h>
  19:Z80_6850_2_Emul.c **** #include <Z80_PSoC_3Chips.h>
  20:Z80_6850_2_Emul.c **** 
  21:Z80_6850_2_Emul.c **** #ifdef USING_6850
  22:Z80_6850_2_Emul.c **** 
  23:Z80_6850_2_Emul.c **** volatile uint8 M6850_2_Ctrl;
  24:Z80_6850_2_Emul.c **** volatile uint8 M6850_2_Status;      // Should be the only register that is read
  25:Z80_6850_2_Emul.c **** volatile uint8 M6850_2_DataOut;
  26:Z80_6850_2_Emul.c **** volatile uint8 M6850_2_DataIn;
  27:Z80_6850_2_Emul.c **** 
  28:Z80_6850_2_Emul.c **** ///////////////////////////////////////////////////////////////////////////////
  29:Z80_6850_2_Emul.c **** // void initM6850StatusRegister(void) - Set the initial value of the status reg
  30:Z80_6850_2_Emul.c **** 
ARM GAS  C:\Users\HPz420\AppData\Local\Temp\ccTDzGTq.s 			page 2


  31:Z80_6850_2_Emul.c **** void initM6850_2_StatusRegister(void)
  32:Z80_6850_2_Emul.c **** {
  28              		.loc 1 32 0
  29              		.cfi_startproc
  30              		@ args = 0, pretend = 0, frame = 0
  31              		@ frame_needed = 0, uses_anonymous_args = 0
  32              		@ link register save eliminated.
  33:Z80_6850_2_Emul.c **** 	M6850_2_Status = 0x2;       // TxEmpty and No receive characters present
  33              		.loc 1 33 0
  34 0000 0222     		movs	r2, #2
  35 0002 014B     		ldr	r3, .L2
  36 0004 1A70     		strb	r2, [r3]
  37 0006 7047     		bx	lr
  38              	.L3:
  39              		.align	2
  40              	.L2:
  41 0008 00000000 		.word	M6850_2_Status
  42              		.cfi_endproc
  43              	.LFE63:
  44              		.size	initM6850_2_StatusRegister, .-initM6850_2_StatusRegister
  45              		.section	.text.M6850_2_ReadIntReg,"ax",%progbits
  46              		.align	2
  47              		.global	M6850_2_ReadIntReg
  48              		.thumb
  49              		.thumb_func
  50              		.type	M6850_2_ReadIntReg, %function
  51              	M6850_2_ReadIntReg:
  52              	.LFB64:
  34:Z80_6850_2_Emul.c **** }
  35:Z80_6850_2_Emul.c **** 
  36:Z80_6850_2_Emul.c **** ///////////////////////////////////////////////////////////////////////////////
  37:Z80_6850_2_Emul.c **** // void M6850ReadIntReg(void) - Read the Interrupt vector
  38:Z80_6850_2_Emul.c **** 
  39:Z80_6850_2_Emul.c **** void M6850_2_ReadIntReg(void)
  40:Z80_6850_2_Emul.c **** {
  53              		.loc 1 40 0
  54              		.cfi_startproc
  55              		@ args = 0, pretend = 0, frame = 0
  56              		@ frame_needed = 0, uses_anonymous_args = 0
  57 0000 08B5     		push	{r3, lr}
  58              		.cfi_def_cfa_offset 8
  59              		.cfi_offset 3, -8
  60              		.cfi_offset 14, -4
  41:Z80_6850_2_Emul.c **** 	ackIO();
  61              		.loc 1 41 0
  62 0002 FFF7FEFF 		bl	ackIO
  63              	.LVL0:
  64 0006 08BD     		pop	{r3, pc}
  65              		.cfi_endproc
  66              	.LFE64:
  67              		.size	M6850_2_ReadIntReg, .-M6850_2_ReadIntReg
  68              		.section	.text.sendCharToZ80_2,"ax",%progbits
  69              		.align	2
  70              		.global	sendCharToZ80_2
  71              		.thumb
  72              		.thumb_func
  73              		.type	sendCharToZ80_2, %function
ARM GAS  C:\Users\HPz420\AppData\Local\Temp\ccTDzGTq.s 			page 3


  74              	sendCharToZ80_2:
  75              	.LFB65:
  42:Z80_6850_2_Emul.c **** }
  43:Z80_6850_2_Emul.c **** 
  44:Z80_6850_2_Emul.c **** ///////////////////////////////////////////////////////////////////////////////
  45:Z80_6850_2_Emul.c **** // void sendCharToZ80(uint8 rxChar) - Send a character to the Z80 by placing it
  46:Z80_6850_2_Emul.c **** // into the SIO_A_DataIn register and making the RxCharacterAvailable active.
  47:Z80_6850_2_Emul.c **** 
  48:Z80_6850_2_Emul.c **** void sendCharToZ80_2(uint8 rxChar)
  49:Z80_6850_2_Emul.c **** {
  76              		.loc 1 49 0
  77              		.cfi_startproc
  78              		@ args = 0, pretend = 0, frame = 0
  79              		@ frame_needed = 0, uses_anonymous_args = 0
  80              		@ link register save eliminated.
  81              	.LVL1:
  82 0000 7047     		bx	lr
  83              		.cfi_endproc
  84              	.LFE65:
  85              		.size	sendCharToZ80_2, .-sendCharToZ80_2
  86 0002 00BF     		.section	.text.checkSerial_2_ReceiverBusy,"ax",%progbits
  87              		.align	2
  88              		.global	checkSerial_2_ReceiverBusy
  89              		.thumb
  90              		.thumb_func
  91              		.type	checkSerial_2_ReceiverBusy, %function
  92              	checkSerial_2_ReceiverBusy:
  93              	.LFB66:
  50:Z80_6850_2_Emul.c **** 	//    M6850_2_DataIn = rxChar;                                          // Put the char into the b
  51:Z80_6850_2_Emul.c **** 	//    M6850_2_Status |= SIO_CHAR_RDY;                                   // Rx Character Available
  52:Z80_6850_2_Emul.c **** 	//    if ((M6850_2_Ctrl & M6850_INT_RTS_MASK) != M6850_RTS_LOW__INT_EN) // Only set IRQ if it is e
  53:Z80_6850_2_Emul.c **** 	//        IO_Ctrl_Reg_Write(IO_Ctrl_Reg_Read() | 0x04);               // Set IRQ* line
  54:Z80_6850_2_Emul.c **** }
  55:Z80_6850_2_Emul.c **** 
  56:Z80_6850_2_Emul.c **** ///////////////////////////////////////////////////////////////////////////////
  57:Z80_6850_2_Emul.c **** // uint8 checkSerialReceiverBusy(void) - Check the Serial port receiver status
  58:Z80_6850_2_Emul.c **** // Returns: 
  59:Z80_6850_2_Emul.c **** //  0 if the port can take another character
  60:Z80_6850_2_Emul.c **** //  1 if the port is busy and can't take another character
  61:Z80_6850_2_Emul.c **** 
  62:Z80_6850_2_Emul.c **** uint8 checkSerial_2_ReceiverBusy(void)
  63:Z80_6850_2_Emul.c **** {
  94              		.loc 1 63 0
  95              		.cfi_startproc
  96              		@ args = 0, pretend = 0, frame = 0
  97              		@ frame_needed = 0, uses_anonymous_args = 0
  98              		@ link register save eliminated.
  64:Z80_6850_2_Emul.c **** 	if ((M6850_2_Ctrl & M6850_INT_RTS_MASK) == M6850_RTS_HI__INT_DIS)
  99              		.loc 1 64 0
 100 0000 064B     		ldr	r3, .L10
 101 0002 1B78     		ldrb	r3, [r3]	@ zero_extendqisi2
 102 0004 03F06003 		and	r3, r3, #96
 103 0008 402B     		cmp	r3, #64
 104 000a 04D0     		beq	.L9
  65:Z80_6850_2_Emul.c **** 	{
  66:Z80_6850_2_Emul.c **** 		return(1);
  67:Z80_6850_2_Emul.c **** 	}
ARM GAS  C:\Users\HPz420\AppData\Local\Temp\ccTDzGTq.s 			page 4


  68:Z80_6850_2_Emul.c **** 	return (M6850_2_Status & SIO_CHAR_RDY);
 105              		.loc 1 68 0
 106 000c 044B     		ldr	r3, .L10+4
 107 000e 1878     		ldrb	r0, [r3]	@ zero_extendqisi2
 108 0010 00F00100 		and	r0, r0, #1
 109 0014 7047     		bx	lr
 110              	.L9:
  66:Z80_6850_2_Emul.c **** 	}
 111              		.loc 1 66 0
 112 0016 0120     		movs	r0, #1
  69:Z80_6850_2_Emul.c **** }
 113              		.loc 1 69 0
 114 0018 7047     		bx	lr
 115              	.L11:
 116 001a 00BF     		.align	2
 117              	.L10:
 118 001c 00000000 		.word	M6850_2_Ctrl
 119 0020 00000000 		.word	M6850_2_Status
 120              		.cfi_endproc
 121              	.LFE66:
 122              		.size	checkSerial_2_ReceiverBusy, .-checkSerial_2_ReceiverBusy
 123              		.section	.text.M6850_2_ReadData,"ax",%progbits
 124              		.align	2
 125              		.global	M6850_2_ReadData
 126              		.thumb
 127              		.thumb_func
 128              		.type	M6850_2_ReadData, %function
 129              	M6850_2_ReadData:
 130              	.LFB67:
  70:Z80_6850_2_Emul.c **** 
  71:Z80_6850_2_Emul.c **** ///////////////////////////////////////////////////////////////////////////////
  72:Z80_6850_2_Emul.c **** // M6850ReadData(void)- Z80 is reading data from Serial Port
  73:Z80_6850_2_Emul.c **** 
  74:Z80_6850_2_Emul.c **** void M6850_2_ReadData(void)
  75:Z80_6850_2_Emul.c **** {
 131              		.loc 1 75 0
 132              		.cfi_startproc
 133              		@ args = 0, pretend = 0, frame = 0
 134              		@ frame_needed = 0, uses_anonymous_args = 0
 135 0000 08B5     		push	{r3, lr}
 136              		.cfi_def_cfa_offset 8
 137              		.cfi_offset 3, -8
 138              		.cfi_offset 14, -4
  76:Z80_6850_2_Emul.c **** 	//    Z80_Data_In_Write(M6850_2_DataIn);
  77:Z80_6850_2_Emul.c **** 	//    M6850_2_Status &= 0xFE;                              // No Rx Character Available
  78:Z80_6850_2_Emul.c **** 	ackIO();
 139              		.loc 1 78 0
 140 0002 FFF7FEFF 		bl	ackIO
 141              	.LVL2:
 142 0006 08BD     		pop	{r3, pc}
 143              		.cfi_endproc
 144              	.LFE67:
 145              		.size	M6850_2_ReadData, .-M6850_2_ReadData
 146              		.section	.text.M6850_2_WriteData,"ax",%progbits
 147              		.align	2
 148              		.global	M6850_2_WriteData
 149              		.thumb
ARM GAS  C:\Users\HPz420\AppData\Local\Temp\ccTDzGTq.s 			page 5


 150              		.thumb_func
 151              		.type	M6850_2_WriteData, %function
 152              	M6850_2_WriteData:
 153              	.LFB68:
  79:Z80_6850_2_Emul.c **** }
  80:Z80_6850_2_Emul.c **** 
  81:Z80_6850_2_Emul.c **** ///////////////////////////////////////////////////////////////////////////////
  82:Z80_6850_2_Emul.c **** // void M6850WriteData(void) - Send a single byte from the Z80 to the USB
  83:Z80_6850_2_Emul.c **** 
  84:Z80_6850_2_Emul.c **** void M6850_2_WriteData(void)
  85:Z80_6850_2_Emul.c **** {
 154              		.loc 1 85 0
 155              		.cfi_startproc
 156              		@ args = 0, pretend = 0, frame = 0
 157              		@ frame_needed = 0, uses_anonymous_args = 0
 158 0000 08B5     		push	{r3, lr}
 159              		.cfi_def_cfa_offset 8
 160              		.cfi_offset 3, -8
 161              		.cfi_offset 14, -4
  86:Z80_6850_2_Emul.c **** 	//    uint8 buffer[64];
  87:Z80_6850_2_Emul.c **** 	//    uint16 count = 1;
  88:Z80_6850_2_Emul.c **** 	//    while (0u == USBUART_CDCIsReady());
  89:Z80_6850_2_Emul.c **** 	//    buffer[0] = Z80_Data_Out_Read();
  90:Z80_6850_2_Emul.c **** 	//    USBUART_PutData(buffer, count);
  91:Z80_6850_2_Emul.c **** 	ackIO();
 162              		.loc 1 91 0
 163 0002 FFF7FEFF 		bl	ackIO
 164              	.LVL3:
 165 0006 08BD     		pop	{r3, pc}
 166              		.cfi_endproc
 167              	.LFE68:
 168              		.size	M6850_2_WriteData, .-M6850_2_WriteData
 169              		.section	.text.M6850_2_ReadStatus,"ax",%progbits
 170              		.align	2
 171              		.global	M6850_2_ReadStatus
 172              		.thumb
 173              		.thumb_func
 174              		.type	M6850_2_ReadStatus, %function
 175              	M6850_2_ReadStatus:
 176              	.LFB69:
  92:Z80_6850_2_Emul.c **** }
  93:Z80_6850_2_Emul.c **** 
  94:Z80_6850_2_Emul.c **** ///////////////////////////////////////////////////////////////////////////////
  95:Z80_6850_2_Emul.c **** // void M6850ReadStatus(void) - Read the Status registers
  96:Z80_6850_2_Emul.c **** 
  97:Z80_6850_2_Emul.c **** void M6850_2_ReadStatus(void)
  98:Z80_6850_2_Emul.c **** {
 177              		.loc 1 98 0
 178              		.cfi_startproc
 179              		@ args = 0, pretend = 0, frame = 0
 180              		@ frame_needed = 0, uses_anonymous_args = 0
 181 0000 08B5     		push	{r3, lr}
 182              		.cfi_def_cfa_offset 8
 183              		.cfi_offset 3, -8
 184              		.cfi_offset 14, -4
  99:Z80_6850_2_Emul.c **** 	Z80_Data_In_Write(M6850_2_Status);
 185              		.loc 1 99 0
ARM GAS  C:\Users\HPz420\AppData\Local\Temp\ccTDzGTq.s 			page 6


 186 0002 034B     		ldr	r3, .L18
 187 0004 1878     		ldrb	r0, [r3]	@ zero_extendqisi2
 188 0006 FFF7FEFF 		bl	Z80_Data_In_Write
 189              	.LVL4:
 100:Z80_6850_2_Emul.c **** 	ackIO();
 190              		.loc 1 100 0
 191 000a FFF7FEFF 		bl	ackIO
 192              	.LVL5:
 193 000e 08BD     		pop	{r3, pc}
 194              	.L19:
 195              		.align	2
 196              	.L18:
 197 0010 00000000 		.word	M6850_2_Status
 198              		.cfi_endproc
 199              	.LFE69:
 200              		.size	M6850_2_ReadStatus, .-M6850_2_ReadStatus
 201              		.section	.text.M6850_2_WriteCtrl,"ax",%progbits
 202              		.align	2
 203              		.global	M6850_2_WriteCtrl
 204              		.thumb
 205              		.thumb_func
 206              		.type	M6850_2_WriteCtrl, %function
 207              	M6850_2_WriteCtrl:
 208              	.LFB70:
 101:Z80_6850_2_Emul.c **** }
 102:Z80_6850_2_Emul.c **** 
 103:Z80_6850_2_Emul.c **** ///////////////////////////////////////////////////////////////////////////////
 104:Z80_6850_2_Emul.c **** // void M6850WriteCtrl(void) - Write to the SIO Port A control registers
 105:Z80_6850_2_Emul.c **** 
 106:Z80_6850_2_Emul.c **** void M6850_2_WriteCtrl(void)
 107:Z80_6850_2_Emul.c **** {
 209              		.loc 1 107 0
 210              		.cfi_startproc
 211              		@ args = 0, pretend = 0, frame = 0
 212              		@ frame_needed = 0, uses_anonymous_args = 0
 213 0000 08B5     		push	{r3, lr}
 214              		.cfi_def_cfa_offset 8
 215              		.cfi_offset 3, -8
 216              		.cfi_offset 14, -4
 108:Z80_6850_2_Emul.c **** 	M6850_2_Ctrl = Z80_Data_Out_Read();
 217              		.loc 1 108 0
 218 0002 FFF7FEFF 		bl	Z80_Data_Out_Read
 219              	.LVL6:
 220 0006 024B     		ldr	r3, .L22
 221 0008 1870     		strb	r0, [r3]
 109:Z80_6850_2_Emul.c **** 	// TBD - This is where the side effects of changing control codes are handled
 110:Z80_6850_2_Emul.c **** 	ackIO();
 222              		.loc 1 110 0
 223 000a FFF7FEFF 		bl	ackIO
 224              	.LVL7:
 225 000e 08BD     		pop	{r3, pc}
 226              	.L23:
 227              		.align	2
 228              	.L22:
 229 0010 00000000 		.word	M6850_2_Ctrl
 230              		.cfi_endproc
 231              	.LFE70:
ARM GAS  C:\Users\HPz420\AppData\Local\Temp\ccTDzGTq.s 			page 7


 232              		.size	M6850_2_WriteCtrl, .-M6850_2_WriteCtrl
 233              		.comm	M6850_2_DataIn,1,1
 234              		.comm	M6850_2_DataOut,1,1
 235              		.comm	M6850_2_Status,1,1
 236              		.comm	M6850_2_Ctrl,1,1
 237              		.text
 238              	.Letext0:
 239              		.file 2 "c:\\program files (x86)\\cypress\\psoc creator\\4.2\\psoc creator\\import\\gnu\\arm\\5.4.
 240              		.file 3 "c:\\program files (x86)\\cypress\\psoc creator\\4.2\\psoc creator\\import\\gnu\\arm\\5.4.
 241              		.file 4 "Generated_Source\\PSoC5/cytypes.h"
 242              		.file 5 "Generated_Source\\PSoC5/core_cm3.h"
 243              		.file 6 "./Z80_IO_Handle.h"
 244              		.file 7 "Generated_Source\\PSoC5/Z80_Data_In.h"
 245              		.file 8 "Generated_Source\\PSoC5/Z80_Data_Out.h"