ARM GAS  C:\Users\HPz420\AppData\Local\Temp\ccsCXlDQ.s 			page 1


   1              		.syntax unified
   2              		.cpu cortex-m3
   3              		.fpu softvfp
   4              		.eabi_attribute 20, 1
   5              		.eabi_attribute 21, 1
   6              		.eabi_attribute 23, 3
   7              		.eabi_attribute 24, 1
   8              		.eabi_attribute 25, 1
   9              		.eabi_attribute 26, 1
  10              		.eabi_attribute 30, 1
  11              		.eabi_attribute 34, 1
  12              		.eabi_attribute 18, 4
  13              		.thumb
  14              		.syntax unified
  15              		.file	"Z80_PSoC_3Chips.c"
  16              		.text
  17              	.Ltext0:
  18              		.cfi_sections	.debug_frame
  19              		.section	.text.PostLed,"ax",%progbits
  20              		.align	2
  21              		.global	PostLed
  22              		.thumb
  23              		.thumb_func
  24              		.type	PostLed, %function
  25              	PostLed:
  26              	.LFB64:
  27              		.file 1 "Z80_PSoC_3Chips.c"
   1:Z80_PSoC_3Chips.c **** /* ========================================
   2:Z80_PSoC_3Chips.c **** *
   3:Z80_PSoC_3Chips.c **** * Copyright LAND BOARDS, LLC, 2019
   4:Z80_PSoC_3Chips.c **** * All Rights Reserved
   5:Z80_PSoC_3Chips.c **** * UNPUBLISHED, LICENSED SOFTWARE.
   6:Z80_PSoC_3Chips.c **** *
   7:Z80_PSoC_3Chips.c **** * CONFIDENTIAL AND PROPRIETARY INFORMATION
   8:Z80_PSoC_3Chips.c **** * WHICH IS THE PROPERTY OF Land Boards, LLC.
   9:Z80_PSoC_3Chips.c **** *
  10:Z80_PSoC_3Chips.c **** * ========================================
  11:Z80_PSoC_3Chips.c **** */
  12:Z80_PSoC_3Chips.c **** 
  13:Z80_PSoC_3Chips.c **** ////////////////////////////////////////////////////////////////////////////
  14:Z80_PSoC_3Chips.c **** // General support functions for the Z80_PSOC card
  15:Z80_PSoC_3Chips.c **** 
  16:Z80_PSoC_3Chips.c **** #include <project.h>
  17:Z80_PSoC_3Chips.c **** #include "stdio.h"
  18:Z80_PSoC_3Chips.c **** #include <Z80_PSoC_3Chips.h>
  19:Z80_PSoC_3Chips.c **** 
  20:Z80_PSoC_3Chips.c **** uint8 receiveBuffer[80];
  21:Z80_PSoC_3Chips.c **** uint8 receiveBufferPtr;
  22:Z80_PSoC_3Chips.c **** uint8 gotCRorLF;
  23:Z80_PSoC_3Chips.c **** uint32 sectorNumber;
  24:Z80_PSoC_3Chips.c **** 
  25:Z80_PSoC_3Chips.c **** ////////////////////////////////////////////////////////////////////////////
  26:Z80_PSoC_3Chips.c **** // PostLed(postVal) - Blink the LED the number of times (postVal)
  27:Z80_PSoC_3Chips.c **** 
  28:Z80_PSoC_3Chips.c **** void PostLed(uint32 postVal)
  29:Z80_PSoC_3Chips.c **** {
  28              		.loc 1 29 0
ARM GAS  C:\Users\HPz420\AppData\Local\Temp\ccsCXlDQ.s 			page 2


  29              		.cfi_startproc
  30              		@ args = 0, pretend = 0, frame = 0
  31              		@ frame_needed = 0, uses_anonymous_args = 0
  32              	.LVL0:
  33 0000 10B5     		push	{r4, lr}
  34              		.cfi_def_cfa_offset 8
  35              		.cfi_offset 4, -8
  36              		.cfi_offset 14, -4
  37 0002 0446     		mov	r4, r0
  38              	.LVL1:
  30:Z80_PSoC_3Chips.c **** 	uint32 blinkCount = postVal;
  31:Z80_PSoC_3Chips.c **** 	while(blinkCount > 0)
  39              		.loc 1 31 0
  40 0004 0DE0     		b	.L2
  41              	.LVL2:
  42              	.L3:
  32:Z80_PSoC_3Chips.c **** 	{
  33:Z80_PSoC_3Chips.c **** 		LED_Write(0);   // Turn on the LED
  43              		.loc 1 33 0
  44 0006 0020     		movs	r0, #0
  45 0008 FFF7FEFF 		bl	LED_Write
  46              	.LVL3:
  34:Z80_PSoC_3Chips.c **** 		CyDelay(500);
  47              		.loc 1 34 0
  48 000c 4FF4FA70 		mov	r0, #500
  49 0010 FFF7FEFF 		bl	CyDelay
  50              	.LVL4:
  35:Z80_PSoC_3Chips.c **** 		LED_Write(1);   // Turn off the LED
  51              		.loc 1 35 0
  52 0014 0120     		movs	r0, #1
  53 0016 FFF7FEFF 		bl	LED_Write
  54              	.LVL5:
  36:Z80_PSoC_3Chips.c **** 		CyDelay(250);
  55              		.loc 1 36 0
  56 001a FA20     		movs	r0, #250
  57 001c FFF7FEFF 		bl	CyDelay
  58              	.LVL6:
  37:Z80_PSoC_3Chips.c **** 		blinkCount--;   // loop as many times as the POST code
  59              		.loc 1 37 0
  60 0020 013C     		subs	r4, r4, #1
  61              	.LVL7:
  62              	.L2:
  31:Z80_PSoC_3Chips.c **** 	{
  63              		.loc 1 31 0
  64 0022 002C     		cmp	r4, #0
  65 0024 EFD1     		bne	.L3
  38:Z80_PSoC_3Chips.c **** 	}
  39:Z80_PSoC_3Chips.c **** }
  66              		.loc 1 39 0
  67 0026 10BD     		pop	{r4, pc}
  68              		.cfi_endproc
  69              	.LFE64:
  70              		.size	PostLed, .-PostLed
  71              		.section	.text.asciiNibbleToVal,"ax",%progbits
  72              		.align	2
  73              		.global	asciiNibbleToVal
  74              		.thumb
ARM GAS  C:\Users\HPz420\AppData\Local\Temp\ccsCXlDQ.s 			page 3


  75              		.thumb_func
  76              		.type	asciiNibbleToVal, %function
  77              	asciiNibbleToVal:
  78              	.LFB66:
  40:Z80_PSoC_3Chips.c **** 
  41:Z80_PSoC_3Chips.c **** ////////////////////////////////////////////////////////////////////////////
  42:Z80_PSoC_3Chips.c **** // void printMenu(void)
  43:Z80_PSoC_3Chips.c **** 
  44:Z80_PSoC_3Chips.c **** void printMenuScreen(void)
  45:Z80_PSoC_3Chips.c **** {
  46:Z80_PSoC_3Chips.c ****     putStringToUSB("\n\rLand Boards, LLC - Z80_PSoC monitor\n\r");
  47:Z80_PSoC_3Chips.c **** 	putStringToUSB("I - Initialize SD Card\n\r");
  48:Z80_PSoC_3Chips.c **** 	putStringToUSB("B - Blink LED\n\r");
  49:Z80_PSoC_3Chips.c ****     putStringToUSB("F - Read Front Panel\n\r");
  50:Z80_PSoC_3Chips.c **** 	putStringToUSB("Rxxxxxxxx - Read sector xxxxxxxx from the SD Card\n\r");
  51:Z80_PSoC_3Chips.c **** 	putStringToUSB("N - Read next sector from the SD Card\n\r");
  52:Z80_PSoC_3Chips.c **** 	putStringToUSB("W - Write to the SD Card at 2GB - 1 sector\n\r");
  53:Z80_PSoC_3Chips.c **** 	putStringToUSB("? - Print this menu\n\r");
  54:Z80_PSoC_3Chips.c **** }
  55:Z80_PSoC_3Chips.c **** 
  56:Z80_PSoC_3Chips.c **** ////////////////////////////////////////////////////////////////////////////
  57:Z80_PSoC_3Chips.c **** // asciiNibbleToVal(uint8)
  58:Z80_PSoC_3Chips.c **** 
  59:Z80_PSoC_3Chips.c **** uint32 asciiNibbleToVal(uint8 charVal)
  60:Z80_PSoC_3Chips.c **** {
  79              		.loc 1 60 0
  80              		.cfi_startproc
  81              		@ args = 0, pretend = 0, frame = 0
  82              		@ frame_needed = 0, uses_anonymous_args = 0
  83              		@ link register save eliminated.
  84              	.LVL8:
  61:Z80_PSoC_3Chips.c ****     if ((charVal >= '0') && (charVal <= '9'))
  85              		.loc 1 61 0
  86 0000 A0F13003 		sub	r3, r0, #48
  87 0004 DBB2     		uxtb	r3, r3
  88 0006 092B     		cmp	r3, #9
  89 0008 01D8     		bhi	.L6
  62:Z80_PSoC_3Chips.c ****         return (charVal-'0');
  90              		.loc 1 62 0
  91 000a 3038     		subs	r0, r0, #48
  92              	.LVL9:
  93 000c 7047     		bx	lr
  94              	.LVL10:
  95              	.L6:
  63:Z80_PSoC_3Chips.c ****     else if ((charVal >= 'A') && (charVal <= 'F'))
  96              		.loc 1 63 0
  97 000e A0F14103 		sub	r3, r0, #65
  98 0012 DBB2     		uxtb	r3, r3
  99 0014 052B     		cmp	r3, #5
 100 0016 01D8     		bhi	.L8
  64:Z80_PSoC_3Chips.c ****         return (charVal-'A'+10);
 101              		.loc 1 64 0
 102 0018 3738     		subs	r0, r0, #55
 103              	.LVL11:
 104 001a 7047     		bx	lr
 105              	.LVL12:
 106              	.L8:
ARM GAS  C:\Users\HPz420\AppData\Local\Temp\ccsCXlDQ.s 			page 4


  65:Z80_PSoC_3Chips.c ****     else if ((charVal >= 'a') && (charVal <= 'f'))
 107              		.loc 1 65 0
 108 001c A0F16103 		sub	r3, r0, #97
 109 0020 DBB2     		uxtb	r3, r3
 110 0022 052B     		cmp	r3, #5
 111 0024 01D8     		bhi	.L9
  66:Z80_PSoC_3Chips.c ****         return (charVal-'a'+10);
 112              		.loc 1 66 0
 113 0026 5738     		subs	r0, r0, #87
 114              	.LVL13:
 115 0028 7047     		bx	lr
 116              	.LVL14:
 117              	.L9:
  67:Z80_PSoC_3Chips.c ****     return(0);
 118              		.loc 1 67 0
 119 002a 0020     		movs	r0, #0
 120              	.LVL15:
  68:Z80_PSoC_3Chips.c **** }
 121              		.loc 1 68 0
 122 002c 7047     		bx	lr
 123              		.cfi_endproc
 124              	.LFE66:
 125              		.size	asciiNibbleToVal, .-asciiNibbleToVal
 126 002e 00BF     		.section	.text.extractLong,"ax",%progbits
 127              		.align	2
 128              		.global	extractLong
 129              		.thumb
 130              		.thumb_func
 131              		.type	extractLong, %function
 132              	extractLong:
 133              	.LFB67:
  69:Z80_PSoC_3Chips.c **** 
  70:Z80_PSoC_3Chips.c **** ////////////////////////////////////////////////////////////////////////////
  71:Z80_PSoC_3Chips.c **** // uint32 extractLong(uint8 *)
  72:Z80_PSoC_3Chips.c **** 
  73:Z80_PSoC_3Chips.c **** uint32 extractLong(uint8 * commandString)
  74:Z80_PSoC_3Chips.c **** {
 134              		.loc 1 74 0
 135              		.cfi_startproc
 136              		@ args = 0, pretend = 0, frame = 0
 137              		@ frame_needed = 0, uses_anonymous_args = 0
 138              	.LVL16:
 139 0000 70B5     		push	{r4, r5, r6, lr}
 140              		.cfi_def_cfa_offset 16
 141              		.cfi_offset 4, -16
 142              		.cfi_offset 5, -12
 143              		.cfi_offset 6, -8
 144              		.cfi_offset 14, -4
 145 0002 0646     		mov	r6, r0
 146              	.LVL17:
  75:Z80_PSoC_3Chips.c ****     uint8 linePtr = 1;
  76:Z80_PSoC_3Chips.c ****     uint32 rVal = 0;
 147              		.loc 1 76 0
 148 0004 0023     		movs	r3, #0
  75:Z80_PSoC_3Chips.c ****     uint8 linePtr = 1;
 149              		.loc 1 75 0
 150 0006 0124     		movs	r4, #1
ARM GAS  C:\Users\HPz420\AppData\Local\Temp\ccsCXlDQ.s 			page 5


  77:Z80_PSoC_3Chips.c ****     while ((commandString[linePtr] != 0) && (linePtr < 32) && (commandString[linePtr] != '\n') && (
 151              		.loc 1 77 0
 152 0008 06E0     		b	.L11
 153              	.LVL18:
 154              	.L13:
  78:Z80_PSoC_3Chips.c ****     {
  79:Z80_PSoC_3Chips.c ****         rVal <<= 4;
 155              		.loc 1 79 0
 156 000a 1D01     		lsls	r5, r3, #4
 157              	.LVL19:
  80:Z80_PSoC_3Chips.c ****         rVal |= asciiNibbleToVal(commandString[linePtr]);
 158              		.loc 1 80 0
 159 000c FFF7FEFF 		bl	asciiNibbleToVal
 160              	.LVL20:
 161 0010 45EA0003 		orr	r3, r5, r0
 162              	.LVL21:
  81:Z80_PSoC_3Chips.c ****         linePtr++;
 163              		.loc 1 81 0
 164 0014 0134     		adds	r4, r4, #1
 165              	.LVL22:
 166 0016 E4B2     		uxtb	r4, r4
 167              	.LVL23:
 168              	.L11:
  77:Z80_PSoC_3Chips.c ****     {
 169              		.loc 1 77 0
 170 0018 305D     		ldrb	r0, [r6, r4]	@ zero_extendqisi2
 171 001a 28B1     		cbz	r0, .L12
  77:Z80_PSoC_3Chips.c ****     {
 172              		.loc 1 77 0 is_stmt 0 discriminator 1
 173 001c 1F2C     		cmp	r4, #31
 174 001e 03D8     		bhi	.L12
  77:Z80_PSoC_3Chips.c ****     {
 175              		.loc 1 77 0 discriminator 2
 176 0020 0A28     		cmp	r0, #10
 177 0022 01D0     		beq	.L12
  77:Z80_PSoC_3Chips.c ****     {
 178              		.loc 1 77 0 discriminator 3
 179 0024 0D28     		cmp	r0, #13
 180 0026 F0D1     		bne	.L13
 181              	.L12:
  82:Z80_PSoC_3Chips.c ****     }
  83:Z80_PSoC_3Chips.c ****     return (rVal);
  84:Z80_PSoC_3Chips.c **** }
 182              		.loc 1 84 0 is_stmt 1
 183 0028 1846     		mov	r0, r3
 184 002a 70BD     		pop	{r4, r5, r6, pc}
 185              		.cfi_endproc
 186              	.LFE67:
 187              		.size	extractLong, .-extractLong
 188              		.section	.text.clearReceiveBuffer,"ax",%progbits
 189              		.align	2
 190              		.global	clearReceiveBuffer
 191              		.thumb
 192              		.thumb_func
 193              		.type	clearReceiveBuffer, %function
 194              	clearReceiveBuffer:
 195              	.LFB69:
ARM GAS  C:\Users\HPz420\AppData\Local\Temp\ccsCXlDQ.s 			page 6


  85:Z80_PSoC_3Chips.c **** 
  86:Z80_PSoC_3Chips.c **** ////////////////////////////////////////////////////////////////////////////
  87:Z80_PSoC_3Chips.c **** // void psocMenu(void)
  88:Z80_PSoC_3Chips.c **** 
  89:Z80_PSoC_3Chips.c **** void psocMenu(void)
  90:Z80_PSoC_3Chips.c **** {
  91:Z80_PSoC_3Chips.c **** 	while (0u == USBUART_CDCIsReady()); // Wait until component is ready to send data to host
  92:Z80_PSoC_3Chips.c **** 	if ((receiveBuffer[0] == 'r') || (receiveBuffer[0] == 'R'))
  93:Z80_PSoC_3Chips.c **** 	{
  94:Z80_PSoC_3Chips.c **** 		putStringToUSB("Read from the SD Card\n\r");
  95:Z80_PSoC_3Chips.c ****         sectorNumber = extractLong(receiveBuffer);
  96:Z80_PSoC_3Chips.c ****         readSDCard(sectorNumber);
  97:Z80_PSoC_3Chips.c **** 	}
  98:Z80_PSoC_3Chips.c **** 	else if ((receiveBuffer[0] == 'n') || (receiveBuffer[0] == 'N'))
  99:Z80_PSoC_3Chips.c **** 	{
 100:Z80_PSoC_3Chips.c **** 		putStringToUSB("Read next sector from the SD Card\n\r");
 101:Z80_PSoC_3Chips.c ****         sectorNumber++;
 102:Z80_PSoC_3Chips.c ****         readSDCard(sectorNumber);
 103:Z80_PSoC_3Chips.c **** 	}
 104:Z80_PSoC_3Chips.c **** 	else if ((receiveBuffer[0] == 'b') || (receiveBuffer[0] == 'B'))
 105:Z80_PSoC_3Chips.c **** 	{
 106:Z80_PSoC_3Chips.c **** 		putStringToUSB("Blink LED\n\r");
 107:Z80_PSoC_3Chips.c ****         PostLed(1);
 108:Z80_PSoC_3Chips.c **** 	}
 109:Z80_PSoC_3Chips.c **** 	else if ((receiveBuffer[0] == 'w') || (receiveBuffer[0] == 'W'))
 110:Z80_PSoC_3Chips.c **** 	{
 111:Z80_PSoC_3Chips.c **** 		putStringToUSB("Write to the SD Card at 2GB - 1 sector\n\r");
 112:Z80_PSoC_3Chips.c ****         writeSDCard(0x1FFFFF);
 113:Z80_PSoC_3Chips.c **** 	}
 114:Z80_PSoC_3Chips.c **** 	else if ((receiveBuffer[0] == 'i') || (receiveBuffer[0] == 'I'))
 115:Z80_PSoC_3Chips.c **** 	{
 116:Z80_PSoC_3Chips.c **** 		putStringToUSB("Initialize the SD Card\n\r");
 117:Z80_PSoC_3Chips.c ****         SDInit();
 118:Z80_PSoC_3Chips.c **** 	}
 119:Z80_PSoC_3Chips.c **** #ifdef USING_FRONT_PANEL
 120:Z80_PSoC_3Chips.c **** 	else if ((receiveBuffer[0] == 'f') || (receiveBuffer[0] == 'F'))
 121:Z80_PSoC_3Chips.c **** 	{
 122:Z80_PSoC_3Chips.c ****         char lineString[16];
 123:Z80_PSoC_3Chips.c **** 		putStringToUSB("Front Panel Value - ");
 124:Z80_PSoC_3Chips.c ****   		sprintf(lineString,"0x%08lx",fpIntVal);
 125:Z80_PSoC_3Chips.c ****         putStringToUSB(lineString);
 126:Z80_PSoC_3Chips.c ****         putStringToUSB("\n\r");
 127:Z80_PSoC_3Chips.c **** 	}
 128:Z80_PSoC_3Chips.c **** #endif
 129:Z80_PSoC_3Chips.c **** 	else
 130:Z80_PSoC_3Chips.c **** 	{
 131:Z80_PSoC_3Chips.c ****         printMenuScreen();
 132:Z80_PSoC_3Chips.c **** 	}
 133:Z80_PSoC_3Chips.c ****     clearReceiveBuffer();
 134:Z80_PSoC_3Chips.c **** }
 135:Z80_PSoC_3Chips.c **** 
 136:Z80_PSoC_3Chips.c **** ////////////////////////////////////////////////////////////////////////////
 137:Z80_PSoC_3Chips.c **** // void clearReceiveBuffer(void)
 138:Z80_PSoC_3Chips.c **** 
 139:Z80_PSoC_3Chips.c **** void clearReceiveBuffer(void)
 140:Z80_PSoC_3Chips.c **** {
 196              		.loc 1 140 0
ARM GAS  C:\Users\HPz420\AppData\Local\Temp\ccsCXlDQ.s 			page 7


 197              		.cfi_startproc
 198              		@ args = 0, pretend = 0, frame = 0
 199              		@ frame_needed = 0, uses_anonymous_args = 0
 200              		@ link register save eliminated.
 141:Z80_PSoC_3Chips.c ****     receiveBufferPtr = 0;
 201              		.loc 1 141 0
 202 0000 0023     		movs	r3, #0
 203 0002 034A     		ldr	r2, .L16
 204 0004 1370     		strb	r3, [r2]
 142:Z80_PSoC_3Chips.c ****     receiveBuffer[0] = 0;
 205              		.loc 1 142 0
 206 0006 034A     		ldr	r2, .L16+4
 207 0008 1370     		strb	r3, [r2]
 143:Z80_PSoC_3Chips.c ****     gotCRorLF = 0;
 208              		.loc 1 143 0
 209 000a 034A     		ldr	r2, .L16+8
 210 000c 1370     		strb	r3, [r2]
 211 000e 7047     		bx	lr
 212              	.L17:
 213              		.align	2
 214              	.L16:
 215 0010 00000000 		.word	receiveBufferPtr
 216 0014 00000000 		.word	receiveBuffer
 217 0018 00000000 		.word	gotCRorLF
 218              		.cfi_endproc
 219              	.LFE69:
 220              		.size	clearReceiveBuffer, .-clearReceiveBuffer
 221              		.section	.text.putStringToUSB,"ax",%progbits
 222              		.align	2
 223              		.global	putStringToUSB
 224              		.thumb
 225              		.thumb_func
 226              		.type	putStringToUSB, %function
 227              	putStringToUSB:
 228              	.LFB71:
 144:Z80_PSoC_3Chips.c **** }
 145:Z80_PSoC_3Chips.c **** 
 146:Z80_PSoC_3Chips.c **** ////////////////////////////////////////////////////////////////////////////
 147:Z80_PSoC_3Chips.c **** // void addToReceiveBuffer(uint16, uint8 *)
 148:Z80_PSoC_3Chips.c **** 
 149:Z80_PSoC_3Chips.c **** void addToReceiveBuffer(uint16 inCount, uint8 * inBuffer)
 150:Z80_PSoC_3Chips.c **** {
 151:Z80_PSoC_3Chips.c ****     uint8 echoString[80];
 152:Z80_PSoC_3Chips.c ****     echoString[0] = 0;
 153:Z80_PSoC_3Chips.c ****     for (uint8 receiveCt = 0; receiveCt < inCount; receiveCt++)
 154:Z80_PSoC_3Chips.c ****     {
 155:Z80_PSoC_3Chips.c ****         // First check if the character is an end of line
 156:Z80_PSoC_3Chips.c ****         if ((inBuffer[receiveCt] == 0x0a) || (inBuffer[receiveCt] == 0x0d))
 157:Z80_PSoC_3Chips.c ****         {
 158:Z80_PSoC_3Chips.c ****             gotCRorLF = 1;
 159:Z80_PSoC_3Chips.c ****             putStringToUSB("\n\r");
 160:Z80_PSoC_3Chips.c ****         }
 161:Z80_PSoC_3Chips.c ****         // check if the character is not a RUBOUT and if the line length is OK
 162:Z80_PSoC_3Chips.c ****         else if ((inBuffer[receiveCt] != 0x7f) && (receiveCt < 80))
 163:Z80_PSoC_3Chips.c ****         {
 164:Z80_PSoC_3Chips.c ****             receiveBuffer[receiveBufferPtr] = inBuffer[receiveCt];
 165:Z80_PSoC_3Chips.c ****             receiveBufferPtr++;
ARM GAS  C:\Users\HPz420\AppData\Local\Temp\ccsCXlDQ.s 			page 8


 166:Z80_PSoC_3Chips.c ****             echoString[inCount] = 0;
 167:Z80_PSoC_3Chips.c ****             echoString[receiveCt] = inBuffer[receiveCt];
 168:Z80_PSoC_3Chips.c ****             putStringToUSB((char *)echoString);
 169:Z80_PSoC_3Chips.c ****         }
 170:Z80_PSoC_3Chips.c ****         // If the character is rubout and not the 0th character
 171:Z80_PSoC_3Chips.c ****         else if ((receiveBufferPtr > 0) && (inBuffer[receiveCt] == 0x7f))
 172:Z80_PSoC_3Chips.c ****         {
 173:Z80_PSoC_3Chips.c ****             receiveBufferPtr--;
 174:Z80_PSoC_3Chips.c ****             echoString[0] = 0x08;       // Backspace
 175:Z80_PSoC_3Chips.c ****             echoString[1] = 0x20;       // Space
 176:Z80_PSoC_3Chips.c ****             echoString[2] = 0x08;       // Backspace
 177:Z80_PSoC_3Chips.c ****             echoString[3] = 0;
 178:Z80_PSoC_3Chips.c ****             putStringToUSB((char *)echoString);
 179:Z80_PSoC_3Chips.c ****         }
 180:Z80_PSoC_3Chips.c ****     }
 181:Z80_PSoC_3Chips.c **** }
 182:Z80_PSoC_3Chips.c **** 
 183:Z80_PSoC_3Chips.c **** ////////////////////////////////////////////////////////////////////////////
 184:Z80_PSoC_3Chips.c **** // void putStringToUSB(char * stringToPutOutUSB) - Print string out USB-Serial to host
 185:Z80_PSoC_3Chips.c **** // Blocking function
 186:Z80_PSoC_3Chips.c **** 
 187:Z80_PSoC_3Chips.c **** void putStringToUSB(char * stringToPutOutUSB)
 188:Z80_PSoC_3Chips.c **** {
 229              		.loc 1 188 0
 230              		.cfi_startproc
 231              		@ args = 0, pretend = 0, frame = 0
 232              		@ frame_needed = 0, uses_anonymous_args = 0
 233              	.LVL24:
 234 0000 10B5     		push	{r4, lr}
 235              		.cfi_def_cfa_offset 8
 236              		.cfi_offset 4, -8
 237              		.cfi_offset 14, -4
 238 0002 0446     		mov	r4, r0
 189:Z80_PSoC_3Chips.c **** 	USBUART_PutData((uint8 *)stringToPutOutUSB, strlen(stringToPutOutUSB));
 239              		.loc 1 189 0
 240 0004 FFF7FEFF 		bl	strlen
 241              	.LVL25:
 242 0008 81B2     		uxth	r1, r0
 243 000a 2046     		mov	r0, r4
 244 000c FFF7FEFF 		bl	USBUART_PutData
 245              	.LVL26:
 246              	.L19:
 190:Z80_PSoC_3Chips.c **** 	while (0u == USBUART_CDCIsReady());
 247              		.loc 1 190 0 discriminator 1
 248 0010 FFF7FEFF 		bl	USBUART_CDCIsReady
 249              	.LVL27:
 250 0014 0028     		cmp	r0, #0
 251 0016 FBD0     		beq	.L19
 191:Z80_PSoC_3Chips.c **** }
 252              		.loc 1 191 0
 253 0018 10BD     		pop	{r4, pc}
 254              		.cfi_endproc
 255              	.LFE71:
 256              		.size	putStringToUSB, .-putStringToUSB
 257 001a 00BF     		.section	.text.printMenuScreen,"ax",%progbits
 258              		.align	2
 259              		.global	printMenuScreen
ARM GAS  C:\Users\HPz420\AppData\Local\Temp\ccsCXlDQ.s 			page 9


 260              		.thumb
 261              		.thumb_func
 262              		.type	printMenuScreen, %function
 263              	printMenuScreen:
 264              	.LFB65:
  45:Z80_PSoC_3Chips.c ****     putStringToUSB("\n\rLand Boards, LLC - Z80_PSoC monitor\n\r");
 265              		.loc 1 45 0
 266              		.cfi_startproc
 267              		@ args = 0, pretend = 0, frame = 0
 268              		@ frame_needed = 0, uses_anonymous_args = 0
 269 0000 08B5     		push	{r3, lr}
 270              		.cfi_def_cfa_offset 8
 271              		.cfi_offset 3, -8
 272              		.cfi_offset 14, -4
  46:Z80_PSoC_3Chips.c **** 	putStringToUSB("I - Initialize SD Card\n\r");
 273              		.loc 1 46 0
 274 0002 0C48     		ldr	r0, .L23
 275 0004 FFF7FEFF 		bl	putStringToUSB
 276              	.LVL28:
  47:Z80_PSoC_3Chips.c **** 	putStringToUSB("B - Blink LED\n\r");
 277              		.loc 1 47 0
 278 0008 0B48     		ldr	r0, .L23+4
 279 000a FFF7FEFF 		bl	putStringToUSB
 280              	.LVL29:
  48:Z80_PSoC_3Chips.c ****     putStringToUSB("F - Read Front Panel\n\r");
 281              		.loc 1 48 0
 282 000e 0B48     		ldr	r0, .L23+8
 283 0010 FFF7FEFF 		bl	putStringToUSB
 284              	.LVL30:
  49:Z80_PSoC_3Chips.c **** 	putStringToUSB("Rxxxxxxxx - Read sector xxxxxxxx from the SD Card\n\r");
 285              		.loc 1 49 0
 286 0014 0A48     		ldr	r0, .L23+12
 287 0016 FFF7FEFF 		bl	putStringToUSB
 288              	.LVL31:
  50:Z80_PSoC_3Chips.c **** 	putStringToUSB("N - Read next sector from the SD Card\n\r");
 289              		.loc 1 50 0
 290 001a 0A48     		ldr	r0, .L23+16
 291 001c FFF7FEFF 		bl	putStringToUSB
 292              	.LVL32:
  51:Z80_PSoC_3Chips.c **** 	putStringToUSB("W - Write to the SD Card at 2GB - 1 sector\n\r");
 293              		.loc 1 51 0
 294 0020 0948     		ldr	r0, .L23+20
 295 0022 FFF7FEFF 		bl	putStringToUSB
 296              	.LVL33:
  52:Z80_PSoC_3Chips.c **** 	putStringToUSB("? - Print this menu\n\r");
 297              		.loc 1 52 0
 298 0026 0948     		ldr	r0, .L23+24
 299 0028 FFF7FEFF 		bl	putStringToUSB
 300              	.LVL34:
  53:Z80_PSoC_3Chips.c **** }
 301              		.loc 1 53 0
 302 002c 0848     		ldr	r0, .L23+28
 303 002e FFF7FEFF 		bl	putStringToUSB
 304              	.LVL35:
 305 0032 08BD     		pop	{r3, pc}
 306              	.L24:
 307              		.align	2
ARM GAS  C:\Users\HPz420\AppData\Local\Temp\ccsCXlDQ.s 			page 10


 308              	.L23:
 309 0034 00000000 		.word	.LC0
 310 0038 28000000 		.word	.LC1
 311 003c 44000000 		.word	.LC2
 312 0040 54000000 		.word	.LC3
 313 0044 6C000000 		.word	.LC4
 314 0048 A0000000 		.word	.LC5
 315 004c C8000000 		.word	.LC6
 316 0050 F8000000 		.word	.LC7
 317              		.cfi_endproc
 318              	.LFE65:
 319              		.size	printMenuScreen, .-printMenuScreen
 320              		.section	.text.psocMenu,"ax",%progbits
 321              		.align	2
 322              		.global	psocMenu
 323              		.thumb
 324              		.thumb_func
 325              		.type	psocMenu, %function
 326              	psocMenu:
 327              	.LFB68:
  90:Z80_PSoC_3Chips.c **** 	while (0u == USBUART_CDCIsReady()); // Wait until component is ready to send data to host
 328              		.loc 1 90 0
 329              		.cfi_startproc
 330              		@ args = 0, pretend = 0, frame = 0
 331              		@ frame_needed = 0, uses_anonymous_args = 0
 332 0000 08B5     		push	{r3, lr}
 333              		.cfi_def_cfa_offset 8
 334              		.cfi_offset 3, -8
 335              		.cfi_offset 14, -4
 336              	.L26:
  91:Z80_PSoC_3Chips.c **** 	if ((receiveBuffer[0] == 'r') || (receiveBuffer[0] == 'R'))
 337              		.loc 1 91 0 discriminator 1
 338 0002 FFF7FEFF 		bl	USBUART_CDCIsReady
 339              	.LVL36:
 340 0006 0028     		cmp	r0, #0
 341 0008 FBD0     		beq	.L26
  92:Z80_PSoC_3Chips.c **** 	{
 342              		.loc 1 92 0
 343 000a 224B     		ldr	r3, .L39
 344 000c 1B78     		ldrb	r3, [r3]	@ zero_extendqisi2
 345 000e 722B     		cmp	r3, #114
 346 0010 01D0     		beq	.L27
  92:Z80_PSoC_3Chips.c **** 	{
 347              		.loc 1 92 0 is_stmt 0 discriminator 1
 348 0012 522B     		cmp	r3, #82
 349 0014 0AD1     		bne	.L28
 350              	.L27:
  94:Z80_PSoC_3Chips.c ****         sectorNumber = extractLong(receiveBuffer);
 351              		.loc 1 94 0 is_stmt 1
 352 0016 2048     		ldr	r0, .L39+4
 353 0018 FFF7FEFF 		bl	putStringToUSB
 354              	.LVL37:
  95:Z80_PSoC_3Chips.c ****         readSDCard(sectorNumber);
 355              		.loc 1 95 0
 356 001c 1D48     		ldr	r0, .L39
 357 001e FFF7FEFF 		bl	extractLong
 358              	.LVL38:
ARM GAS  C:\Users\HPz420\AppData\Local\Temp\ccsCXlDQ.s 			page 11


 359 0022 1E4B     		ldr	r3, .L39+8
 360 0024 1860     		str	r0, [r3]
  96:Z80_PSoC_3Chips.c **** 	}
 361              		.loc 1 96 0
 362 0026 FFF7FEFF 		bl	readSDCard
 363              	.LVL39:
 364 002a 2FE0     		b	.L29
 365              	.L28:
  98:Z80_PSoC_3Chips.c **** 	{
 366              		.loc 1 98 0
 367 002c 6E2B     		cmp	r3, #110
 368 002e 01D0     		beq	.L30
  98:Z80_PSoC_3Chips.c **** 	{
 369              		.loc 1 98 0 is_stmt 0 discriminator 1
 370 0030 4E2B     		cmp	r3, #78
 371 0032 09D1     		bne	.L31
 372              	.L30:
 100:Z80_PSoC_3Chips.c ****         sectorNumber++;
 373              		.loc 1 100 0 is_stmt 1
 374 0034 1A48     		ldr	r0, .L39+12
 375 0036 FFF7FEFF 		bl	putStringToUSB
 376              	.LVL40:
 101:Z80_PSoC_3Chips.c ****         readSDCard(sectorNumber);
 377              		.loc 1 101 0
 378 003a 184B     		ldr	r3, .L39+8
 379 003c 1868     		ldr	r0, [r3]
 380 003e 0130     		adds	r0, r0, #1
 381 0040 1860     		str	r0, [r3]
 102:Z80_PSoC_3Chips.c **** 	}
 382              		.loc 1 102 0
 383 0042 FFF7FEFF 		bl	readSDCard
 384              	.LVL41:
 385 0046 21E0     		b	.L29
 386              	.L31:
 104:Z80_PSoC_3Chips.c **** 	{
 387              		.loc 1 104 0
 388 0048 622B     		cmp	r3, #98
 389 004a 01D0     		beq	.L32
 104:Z80_PSoC_3Chips.c **** 	{
 390              		.loc 1 104 0 is_stmt 0 discriminator 1
 391 004c 422B     		cmp	r3, #66
 392 004e 06D1     		bne	.L33
 393              	.L32:
 106:Z80_PSoC_3Chips.c ****         PostLed(1);
 394              		.loc 1 106 0 is_stmt 1
 395 0050 1448     		ldr	r0, .L39+16
 396 0052 FFF7FEFF 		bl	putStringToUSB
 397              	.LVL42:
 107:Z80_PSoC_3Chips.c **** 	}
 398              		.loc 1 107 0
 399 0056 0120     		movs	r0, #1
 400 0058 FFF7FEFF 		bl	PostLed
 401              	.LVL43:
 402 005c 16E0     		b	.L29
 403              	.L33:
 109:Z80_PSoC_3Chips.c **** 	{
 404              		.loc 1 109 0
ARM GAS  C:\Users\HPz420\AppData\Local\Temp\ccsCXlDQ.s 			page 12


 405 005e 772B     		cmp	r3, #119
 406 0060 01D0     		beq	.L34
 109:Z80_PSoC_3Chips.c **** 	{
 407              		.loc 1 109 0 is_stmt 0 discriminator 1
 408 0062 572B     		cmp	r3, #87
 409 0064 06D1     		bne	.L35
 410              	.L34:
 111:Z80_PSoC_3Chips.c ****         writeSDCard(0x1FFFFF);
 411              		.loc 1 111 0 is_stmt 1
 412 0066 1048     		ldr	r0, .L39+20
 413 0068 FFF7FEFF 		bl	putStringToUSB
 414              	.LVL44:
 112:Z80_PSoC_3Chips.c **** 	}
 415              		.loc 1 112 0
 416 006c 0F48     		ldr	r0, .L39+24
 417 006e FFF7FEFF 		bl	writeSDCard
 418              	.LVL45:
 419 0072 0BE0     		b	.L29
 420              	.L35:
 114:Z80_PSoC_3Chips.c **** 	{
 421              		.loc 1 114 0
 422 0074 692B     		cmp	r3, #105
 423 0076 01D0     		beq	.L36
 114:Z80_PSoC_3Chips.c **** 	{
 424              		.loc 1 114 0 is_stmt 0 discriminator 1
 425 0078 492B     		cmp	r3, #73
 426 007a 05D1     		bne	.L37
 427              	.L36:
 116:Z80_PSoC_3Chips.c ****         SDInit();
 428              		.loc 1 116 0 is_stmt 1
 429 007c 0C48     		ldr	r0, .L39+28
 430 007e FFF7FEFF 		bl	putStringToUSB
 431              	.LVL46:
 117:Z80_PSoC_3Chips.c **** 	}
 432              		.loc 1 117 0
 433 0082 FFF7FEFF 		bl	SDInit
 434              	.LVL47:
 435 0086 01E0     		b	.L29
 436              	.L37:
 131:Z80_PSoC_3Chips.c **** 	}
 437              		.loc 1 131 0
 438 0088 FFF7FEFF 		bl	printMenuScreen
 439              	.LVL48:
 440              	.L29:
 133:Z80_PSoC_3Chips.c **** }
 441              		.loc 1 133 0
 442 008c FFF7FEFF 		bl	clearReceiveBuffer
 443              	.LVL49:
 444 0090 08BD     		pop	{r3, pc}
 445              	.L40:
 446 0092 00BF     		.align	2
 447              	.L39:
 448 0094 00000000 		.word	receiveBuffer
 449 0098 10010000 		.word	.LC8
 450 009c 00000000 		.word	sectorNumber
 451 00a0 28010000 		.word	.LC9
 452 00a4 4C010000 		.word	.LC10
ARM GAS  C:\Users\HPz420\AppData\Local\Temp\ccsCXlDQ.s 			page 13


 453 00a8 58010000 		.word	.LC11
 454 00ac FFFF1F00 		.word	2097151
 455 00b0 84010000 		.word	.LC12
 456              		.cfi_endproc
 457              	.LFE68:
 458              		.size	psocMenu, .-psocMenu
 459              		.section	.text.addToReceiveBuffer,"ax",%progbits
 460              		.align	2
 461              		.global	addToReceiveBuffer
 462              		.thumb
 463              		.thumb_func
 464              		.type	addToReceiveBuffer, %function
 465              	addToReceiveBuffer:
 466              	.LFB70:
 150:Z80_PSoC_3Chips.c ****     uint8 echoString[80];
 467              		.loc 1 150 0
 468              		.cfi_startproc
 469              		@ args = 0, pretend = 0, frame = 80
 470              		@ frame_needed = 0, uses_anonymous_args = 0
 471              	.LVL50:
 472 0000 F0B5     		push	{r4, r5, r6, r7, lr}
 473              		.cfi_def_cfa_offset 20
 474              		.cfi_offset 4, -20
 475              		.cfi_offset 5, -16
 476              		.cfi_offset 6, -12
 477              		.cfi_offset 7, -8
 478              		.cfi_offset 14, -4
 479 0002 95B0     		sub	sp, sp, #84
 480              		.cfi_def_cfa_offset 104
 481 0004 0646     		mov	r6, r0
 482 0006 0D46     		mov	r5, r1
 152:Z80_PSoC_3Chips.c ****     for (uint8 receiveCt = 0; receiveCt < inCount; receiveCt++)
 483              		.loc 1 152 0
 484 0008 0024     		movs	r4, #0
 485 000a 8DF80040 		strb	r4, [sp]
 486              	.LVL51:
 487              	.LBB2:
 153:Z80_PSoC_3Chips.c ****     {
 488              		.loc 1 153 0
 489 000e 3CE0     		b	.L42
 490              	.LVL52:
 491              	.L47:
 156:Z80_PSoC_3Chips.c ****         {
 492              		.loc 1 156 0
 493 0010 2A19     		adds	r2, r5, r4
 494 0012 2B5D     		ldrb	r3, [r5, r4]	@ zero_extendqisi2
 495 0014 0A2B     		cmp	r3, #10
 496 0016 01D0     		beq	.L43
 156:Z80_PSoC_3Chips.c ****         {
 497              		.loc 1 156 0 is_stmt 0 discriminator 1
 498 0018 0D2B     		cmp	r3, #13
 499 001a 06D1     		bne	.L44
 500              	.L43:
 158:Z80_PSoC_3Chips.c ****             putStringToUSB("\n\r");
 501              		.loc 1 158 0 is_stmt 1
 502 001c 0122     		movs	r2, #1
 503 001e 1D4B     		ldr	r3, .L49
ARM GAS  C:\Users\HPz420\AppData\Local\Temp\ccsCXlDQ.s 			page 14


 504 0020 1A70     		strb	r2, [r3]
 159:Z80_PSoC_3Chips.c ****         }
 505              		.loc 1 159 0
 506 0022 1D48     		ldr	r0, .L49+4
 507 0024 FFF7FEFF 		bl	putStringToUSB
 508              	.LVL53:
 509 0028 2DE0     		b	.L45
 510              	.L44:
 162:Z80_PSoC_3Chips.c ****         {
 511              		.loc 1 162 0
 512 002a 7F2B     		cmp	r3, #127
 513 002c 15D0     		beq	.L46
 162:Z80_PSoC_3Chips.c ****         {
 514              		.loc 1 162 0 is_stmt 0 discriminator 1
 515 002e 4F2C     		cmp	r4, #79
 516 0030 13D8     		bhi	.L46
 164:Z80_PSoC_3Chips.c ****             receiveBufferPtr++;
 517              		.loc 1 164 0 is_stmt 1
 518 0032 1A48     		ldr	r0, .L49+8
 519 0034 0178     		ldrb	r1, [r0]	@ zero_extendqisi2
 520 0036 1A4F     		ldr	r7, .L49+12
 521 0038 7B54     		strb	r3, [r7, r1]
 165:Z80_PSoC_3Chips.c ****             echoString[inCount] = 0;
 522              		.loc 1 165 0
 523 003a 0131     		adds	r1, r1, #1
 524 003c 0170     		strb	r1, [r0]
 166:Z80_PSoC_3Chips.c ****             echoString[receiveCt] = inBuffer[receiveCt];
 525              		.loc 1 166 0
 526 003e 0021     		movs	r1, #0
 527 0040 14AB     		add	r3, sp, #80
 528 0042 3344     		add	r3, r3, r6
 529 0044 03F8501C 		strb	r1, [r3, #-80]
 167:Z80_PSoC_3Chips.c ****             putStringToUSB((char *)echoString);
 530              		.loc 1 167 0
 531 0048 1278     		ldrb	r2, [r2]	@ zero_extendqisi2
 532 004a 14AB     		add	r3, sp, #80
 533 004c 2344     		add	r3, r3, r4
 534 004e 03F8502C 		strb	r2, [r3, #-80]
 168:Z80_PSoC_3Chips.c ****         }
 535              		.loc 1 168 0
 536 0052 6846     		mov	r0, sp
 537 0054 FFF7FEFF 		bl	putStringToUSB
 538              	.LVL54:
 539 0058 15E0     		b	.L45
 540              	.L46:
 171:Z80_PSoC_3Chips.c ****         {
 541              		.loc 1 171 0
 542 005a 104A     		ldr	r2, .L49+8
 543 005c 1278     		ldrb	r2, [r2]	@ zero_extendqisi2
 544 005e 92B1     		cbz	r2, .L45
 171:Z80_PSoC_3Chips.c ****         {
 545              		.loc 1 171 0 is_stmt 0 discriminator 1
 546 0060 7F2B     		cmp	r3, #127
 547 0062 10D1     		bne	.L45
 173:Z80_PSoC_3Chips.c ****             echoString[0] = 0x08;       // Backspace
 548              		.loc 1 173 0 is_stmt 1
 549 0064 013A     		subs	r2, r2, #1
ARM GAS  C:\Users\HPz420\AppData\Local\Temp\ccsCXlDQ.s 			page 15


 550 0066 0D4B     		ldr	r3, .L49+8
 551 0068 1A70     		strb	r2, [r3]
 174:Z80_PSoC_3Chips.c ****             echoString[1] = 0x20;       // Space
 552              		.loc 1 174 0
 553 006a 0823     		movs	r3, #8
 554 006c 8DF80030 		strb	r3, [sp]
 175:Z80_PSoC_3Chips.c ****             echoString[2] = 0x08;       // Backspace
 555              		.loc 1 175 0
 556 0070 2022     		movs	r2, #32
 557 0072 8DF80120 		strb	r2, [sp, #1]
 176:Z80_PSoC_3Chips.c ****             echoString[3] = 0;
 558              		.loc 1 176 0
 559 0076 8DF80230 		strb	r3, [sp, #2]
 177:Z80_PSoC_3Chips.c ****             putStringToUSB((char *)echoString);
 560              		.loc 1 177 0
 561 007a 0023     		movs	r3, #0
 562 007c 8DF80330 		strb	r3, [sp, #3]
 178:Z80_PSoC_3Chips.c ****         }
 563              		.loc 1 178 0
 564 0080 6846     		mov	r0, sp
 565 0082 FFF7FEFF 		bl	putStringToUSB
 566              	.LVL55:
 567              	.L45:
 153:Z80_PSoC_3Chips.c ****     {
 568              		.loc 1 153 0 discriminator 2
 569 0086 0134     		adds	r4, r4, #1
 570              	.LVL56:
 571 0088 E4B2     		uxtb	r4, r4
 572              	.LVL57:
 573              	.L42:
 153:Z80_PSoC_3Chips.c ****     {
 574              		.loc 1 153 0 is_stmt 0 discriminator 1
 575 008a A3B2     		uxth	r3, r4
 576 008c B342     		cmp	r3, r6
 577 008e BFD3     		bcc	.L47
 578              	.LBE2:
 181:Z80_PSoC_3Chips.c **** 
 579              		.loc 1 181 0 is_stmt 1
 580 0090 15B0     		add	sp, sp, #84
 581              		.cfi_def_cfa_offset 20
 582              		@ sp needed
 583 0092 F0BD     		pop	{r4, r5, r6, r7, pc}
 584              	.LVL58:
 585              	.L50:
 586              		.align	2
 587              	.L49:
 588 0094 00000000 		.word	gotCRorLF
 589 0098 A0010000 		.word	.LC13
 590 009c 00000000 		.word	receiveBufferPtr
 591 00a0 00000000 		.word	receiveBuffer
 592              		.cfi_endproc
 593              	.LFE70:
 594              		.size	addToReceiveBuffer, .-addToReceiveBuffer
 595              		.section	.text.I2CIntISR,"ax",%progbits
 596              		.align	2
 597              		.global	I2CIntISR
 598              		.thumb
ARM GAS  C:\Users\HPz420\AppData\Local\Temp\ccsCXlDQ.s 			page 16


 599              		.thumb_func
 600              		.type	I2CIntISR, %function
 601              	I2CIntISR:
 602              	.LFB72:
 192:Z80_PSoC_3Chips.c **** 
 193:Z80_PSoC_3Chips.c **** ////////////////////////////////////////////////////////////////////////////
 194:Z80_PSoC_3Chips.c **** // void I2CIntISR(void) - Handle the I2CINT* line
 195:Z80_PSoC_3Chips.c **** // The routine is called when a button on the front panel is pressed or 
 196:Z80_PSoC_3Chips.c **** //  Expansion MCP23017 pin is toggle by a JOYPAD or General Purpose Input
 197:Z80_PSoC_3Chips.c **** 
 198:Z80_PSoC_3Chips.c **** void I2CIntISR(void)
 199:Z80_PSoC_3Chips.c **** {
 603              		.loc 1 199 0
 604              		.cfi_startproc
 605              		@ args = 0, pretend = 0, frame = 0
 606              		@ frame_needed = 0, uses_anonymous_args = 0
 607 0000 08B5     		push	{r3, lr}
 608              		.cfi_def_cfa_offset 8
 609              		.cfi_offset 3, -8
 610              		.cfi_offset 14, -4
 200:Z80_PSoC_3Chips.c **** 	#ifdef USING_FRONT_PANEL
 201:Z80_PSoC_3Chips.c ****     uint32 lFPVal;
 202:Z80_PSoC_3Chips.c **** 	#endif
 203:Z80_PSoC_3Chips.c ****     uint8 bPortA;
 204:Z80_PSoC_3Chips.c ****     uint8 bPortB;
 205:Z80_PSoC_3Chips.c ****     I2CINT_ISR_Disable();       // Cause an implicit delay between interrupts
 611              		.loc 1 205 0
 612 0002 FFF7FEFF 		bl	I2CINT_ISR_Disable
 613              	.LVL59:
 206:Z80_PSoC_3Chips.c **** 	#ifdef USING_FRONT_PANEL
 207:Z80_PSoC_3Chips.c ****   		lFPVal = readRegister_MCP23017(0x24,MCP23017_GPIOA_REGADR) << 8;                  // Clears int
 208:Z80_PSoC_3Chips.c ****   		lFPVal = ((readRegister_MCP23017(0x25,MCP23017_GPIOA_REGADR) | lFPVal) << 8);     // Clears int
 209:Z80_PSoC_3Chips.c ****   		lFPVal = ((readRegister_MCP23017(0x26,MCP23017_GPIOA_REGADR) | lFPVal) << 8);     // Clears int
 210:Z80_PSoC_3Chips.c ****   		lFPVal = readRegister_MCP23017(0x27,MCP23017_GPIOA_REGADR)   | lFPVal;            // Clears int
 211:Z80_PSoC_3Chips.c ****         fpIntVal = fpIntVal ^ lFPVal;
 212:Z80_PSoC_3Chips.c **** 	#endif
 213:Z80_PSoC_3Chips.c **** 	#ifdef USING_EXP_MCCP23017
 214:Z80_PSoC_3Chips.c ****   		bPortA = readRegister_MCP23017(0x20,MCP23017_GPIOA_REGADR);                      // Clears inte
 614              		.loc 1 214 0
 615 0006 1221     		movs	r1, #18
 616 0008 2020     		movs	r0, #32
 617 000a FFF7FEFF 		bl	readRegister_MCP23017
 618              	.LVL60:
 215:Z80_PSoC_3Chips.c ****         PIO_Input_Register_Port_A = bPortA;
 619              		.loc 1 215 0
 620 000e 084B     		ldr	r3, .L53
 621 0010 1870     		strb	r0, [r3]
 216:Z80_PSoC_3Chips.c ****         pioAIntVals = pioAIntVals ^ bPortA;
 622              		.loc 1 216 0
 623 0012 084A     		ldr	r2, .L53+4
 624 0014 1378     		ldrb	r3, [r2]	@ zero_extendqisi2
 625 0016 5840     		eors	r0, r0, r3
 626              	.LVL61:
 627 0018 1070     		strb	r0, [r2]
 217:Z80_PSoC_3Chips.c ****   		bPortB = readRegister_MCP23017(0x20,MCP23017_GPIOB_REGADR);                      // Clears inte
 628              		.loc 1 217 0
 629 001a 1321     		movs	r1, #19
ARM GAS  C:\Users\HPz420\AppData\Local\Temp\ccsCXlDQ.s 			page 17


 630 001c 2020     		movs	r0, #32
 631 001e FFF7FEFF 		bl	readRegister_MCP23017
 632              	.LVL62:
 218:Z80_PSoC_3Chips.c ****         PIO_Input_Register_Port_B = bPortB;
 633              		.loc 1 218 0
 634 0022 054B     		ldr	r3, .L53+8
 635 0024 1870     		strb	r0, [r3]
 219:Z80_PSoC_3Chips.c ****         pioBIntVals = pioBIntVals ^ bPortB;
 636              		.loc 1 219 0
 637 0026 054A     		ldr	r2, .L53+12
 638 0028 1378     		ldrb	r3, [r2]	@ zero_extendqisi2
 639 002a 5840     		eors	r0, r0, r3
 640              	.LVL63:
 641 002c 1070     		strb	r0, [r2]
 642 002e 08BD     		pop	{r3, pc}
 643              	.L54:
 644              		.align	2
 645              	.L53:
 646 0030 00000000 		.word	PIO_Input_Register_Port_A
 647 0034 00000000 		.word	pioAIntVals
 648 0038 00000000 		.word	PIO_Input_Register_Port_B
 649 003c 00000000 		.word	pioBIntVals
 650              		.cfi_endproc
 651              	.LFE72:
 652              		.size	I2CIntISR, .-I2CIntISR
 653              		.comm	sectorNumber,4,4
 654              		.comm	gotCRorLF,1,1
 655              		.comm	receiveBufferPtr,1,1
 656              		.comm	receiveBuffer,80,4
 657              		.section	.rodata.str1.4,"aMS",%progbits,1
 658              		.align	2
 659              	.LC0:
 660 0000 0A0D4C61 		.ascii	"\012\015Land Boards, LLC - Z80_PSoC monitor\012\015"
 660      6E642042 
 660      6F617264 
 660      732C204C 
 660      4C43202D 
 661 0027 00       		.ascii	"\000"
 662              	.LC1:
 663 0028 49202D20 		.ascii	"I - Initialize SD Card\012\015\000"
 663      496E6974 
 663      69616C69 
 663      7A652053 
 663      44204361 
 664 0041 000000   		.space	3
 665              	.LC2:
 666 0044 42202D20 		.ascii	"B - Blink LED\012\015\000"
 666      426C696E 
 666      6B204C45 
 666      440A0D00 
 667              	.LC3:
 668 0054 46202D20 		.ascii	"F - Read Front Panel\012\015\000"
 668      52656164 
 668      2046726F 
 668      6E742050 
 668      616E656C 
 669 006b 00       		.space	1
ARM GAS  C:\Users\HPz420\AppData\Local\Temp\ccsCXlDQ.s 			page 18


 670              	.LC4:
 671 006c 52787878 		.ascii	"Rxxxxxxxx - Read sector xxxxxxxx from the SD Card\012"
 671      78787878 
 671      78202D20 
 671      52656164 
 671      20736563 
 672 009e 0D00     		.ascii	"\015\000"
 673              	.LC5:
 674 00a0 4E202D20 		.ascii	"N - Read next sector from the SD Card\012\015\000"
 674      52656164 
 674      206E6578 
 674      74207365 
 674      63746F72 
 675              	.LC6:
 676 00c8 57202D20 		.ascii	"W - Write to the SD Card at 2GB - 1 sector\012\015\000"
 676      57726974 
 676      6520746F 
 676      20746865 
 676      20534420 
 677 00f5 000000   		.space	3
 678              	.LC7:
 679 00f8 3F202D20 		.ascii	"? - Print this menu\012\015\000"
 679      5072696E 
 679      74207468 
 679      6973206D 
 679      656E750A 
 680 010e 0000     		.space	2
 681              	.LC8:
 682 0110 52656164 		.ascii	"Read from the SD Card\012\015\000"
 682      2066726F 
 682      6D207468 
 682      65205344 
 682      20436172 
 683              	.LC9:
 684 0128 52656164 		.ascii	"Read next sector from the SD Card\012\015\000"
 684      206E6578 
 684      74207365 
 684      63746F72 
 684      2066726F 
 685              	.LC10:
 686 014c 426C696E 		.ascii	"Blink LED\012\015\000"
 686      6B204C45 
 686      440A0D00 
 687              	.LC11:
 688 0158 57726974 		.ascii	"Write to the SD Card at 2GB - 1 sector\012\015\000"
 688      6520746F 
 688      20746865 
 688      20534420 
 688      43617264 
 689 0181 000000   		.space	3
 690              	.LC12:
 691 0184 496E6974 		.ascii	"Initialize the SD Card\012\015\000"
 691      69616C69 
 691      7A652074 
 691      68652053 
 691      44204361 
 692 019d 000000   		.space	3
ARM GAS  C:\Users\HPz420\AppData\Local\Temp\ccsCXlDQ.s 			page 19


 693              	.LC13:
 694 01a0 0A0D00   		.ascii	"\012\015\000"
 695              		.text
 696              	.Letext0:
 697              		.file 2 "c:\\program files (x86)\\cypress\\psoc creator\\4.2\\psoc creator\\import\\gnu\\arm\\5.4.
 698              		.file 3 "c:\\program files (x86)\\cypress\\psoc creator\\4.2\\psoc creator\\import\\gnu\\arm\\5.4.
 699              		.file 4 "Generated_Source\\PSoC5/cytypes.h"
 700              		.file 5 "Generated_Source\\PSoC5/core_cm3.h"
 701              		.file 6 "./Z80_PIO_emul.h"
 702              		.file 7 "./Z80_PSoC_3Chips.h"
 703              		.file 8 "Generated_Source\\PSoC5/LED.h"
 704              		.file 9 "Generated_Source\\PSoC5/CyLib.h"
 705              		.file 10 "c:\\program files (x86)\\cypress\\psoc creator\\4.2\\psoc creator\\import\\gnu\\arm\\5.4
 706              		.file 11 "Generated_Source\\PSoC5/USBUART_cdc.h"
 707              		.file 12 "./SDCard.h"
 708              		.file 13 "./Z80_SDCard_Emul.h"
 709              		.file 14 "Generated_Source\\PSoC5/I2CINT_ISR.h"
 710              		.file 15 "./FrontPanel.h"