ARM GAS  C:\Users\HPz420\AppData\Local\Temp\ccBpOOlW.s 			page 1


   1              		.syntax unified
   2              		.cpu cortex-m3
   3              		.fpu softvfp
   4              		.eabi_attribute 20, 1
   5              		.eabi_attribute 21, 1
   6              		.eabi_attribute 23, 3
   7              		.eabi_attribute 24, 1
   8              		.eabi_attribute 25, 1
   9              		.eabi_attribute 26, 1
  10              		.eabi_attribute 30, 1
  11              		.eabi_attribute 34, 1
  12              		.eabi_attribute 18, 4
  13              		.thumb
  14              		.syntax unified
  15              		.file	"Z80_PIO_emul.c"
  16              		.text
  17              	.Ltext0:
  18              		.cfi_sections	.debug_frame
  19              		.section	.text.init_PIO,"ax",%progbits
  20              		.align	2
  21              		.global	init_PIO
  22              		.thumb
  23              		.thumb_func
  24              		.type	init_PIO, %function
  25              	init_PIO:
  26              	.LFB63:
  27              		.file 1 "Z80_PIO_emul.c"
   1:Z80_PIO_emul.c **** /* ========================================
   2:Z80_PIO_emul.c **** *
   3:Z80_PIO_emul.c **** * Copyright LAND BOARDS, LLC, 2019
   4:Z80_PIO_emul.c **** * All Rights Reserved
   5:Z80_PIO_emul.c **** * UNPUBLISHED, LICENSED SOFTWARE.
   6:Z80_PIO_emul.c **** *
   7:Z80_PIO_emul.c **** * CONFIDENTIAL AND PROPRIETARY INFORMATION
   8:Z80_PIO_emul.c **** * WHICH IS THE PROPERTY OF Land Boards, LLC.
   9:Z80_PIO_emul.c **** *
  10:Z80_PIO_emul.c **** * ========================================
  11:Z80_PIO_emul.c **** */
  12:Z80_PIO_emul.c **** 
  13:Z80_PIO_emul.c **** #include <project.h>
  14:Z80_PIO_emul.c **** #include <Z80_PSoC_3Chips.h>
  15:Z80_PIO_emul.c **** 
  16:Z80_PIO_emul.c **** volatile uint8 PIO_Mask_Port_A;
  17:Z80_PIO_emul.c **** volatile uint8 PIO_Vector_Address_Port_A;       // Mode 2 interrupt vector
  18:Z80_PIO_emul.c **** volatile uint8 PIO_Interrupt_Vector_Port_A;
  19:Z80_PIO_emul.c **** volatile uint8 PIO_Output_Register_Port_A;
  20:Z80_PIO_emul.c **** 
  21:Z80_PIO_emul.c **** volatile uint8 PIO_Mask_Port_B;
  22:Z80_PIO_emul.c **** volatile uint8 PIO_Vector_Address_Port_B;
  23:Z80_PIO_emul.c **** volatile uint8 PIO_Interrupt_Vector_Port_B;
  24:Z80_PIO_emul.c **** volatile uint8 PIO_Output_Register_Port_B;
  25:Z80_PIO_emul.c **** 
  26:Z80_PIO_emul.c **** volatile uint8 PIO_State_A;
  27:Z80_PIO_emul.c **** volatile uint8 PIO_State_B;
  28:Z80_PIO_emul.c **** 
  29:Z80_PIO_emul.c **** //////////////////////////////////////////////////////////////////////////////////////////////
  30:Z80_PIO_emul.c **** // void init_PIO(void) - Initialize the PIO and the MCP23017
ARM GAS  C:\Users\HPz420\AppData\Local\Temp\ccBpOOlW.s 			page 2


  31:Z80_PIO_emul.c **** // From the PIO datasheet
  32:Z80_PIO_emul.c **** //  The Z8O-PIO automatically enters a reset state when power is applied. The reset state
  33:Z80_PIO_emul.c **** //  performs the following functions:
  34:Z80_PIO_emul.c **** //      1 Both port mask registers are reset to inhibit All port data bits.
  35:Z80_PIO_emul.c **** //      2. Port data bus lines are set to a high-impedance state and the Ready „handshake“
  36:Z80_PIO_emul.c **** //      signals are inactive (Low) Mode 1 is automatically selected.
  37:Z80_PIO_emul.c **** //      3. The vector address registers are not reset.
  38:Z80_PIO_emul.c **** //      4. Both port interrupt enable flip-flops are reset.
  39:Z80_PIO_emul.c **** //      5. Both port output registers are reset.
  40:Z80_PIO_emul.c **** //  In addition to the automatic power-on reset, the PIO can be reset by applying an /M1 signal
  41:Z80_PIO_emul.c **** //  without the presence of a /RD or /IORQ signal. If no /RD or /IORQ is detected during /M1,
  42:Z80_PIO_emul.c **** //  the PlO will enter the reset state immediately after the /M1 signal goes inactive. The
  43:Z80_PIO_emul.c **** //  purpose of this reset is to allow a single external gate to generate a reset without a power
  44:Z80_PIO_emul.c **** //  down sequence. This approach was required due to the 40-pin packaging limitation.
  45:Z80_PIO_emul.c **** //  Once the PlO has entered the internal reset state, it is held there until the PIO receives a
  46:Z80_PIO_emul.c **** //  control word from the CPU.
  47:Z80_PIO_emul.c **** 
  48:Z80_PIO_emul.c **** void init_PIO(void)
  49:Z80_PIO_emul.c **** {
  28              		.loc 1 49 0
  29              		.cfi_startproc
  30              		@ args = 0, pretend = 0, frame = 0
  31              		@ frame_needed = 0, uses_anonymous_args = 0
  32 0000 10B5     		push	{r4, lr}
  33              		.cfi_def_cfa_offset 8
  34              		.cfi_offset 4, -8
  35              		.cfi_offset 14, -4
  36              	.LVL0:
  50:Z80_PIO_emul.c **** 	uint8 chipAddr = 0x20;
  51:Z80_PIO_emul.c ****     PIO_State_A = PIO_INIT;
  37              		.loc 1 51 0
  38 0002 0024     		movs	r4, #0
  39 0004 294B     		ldr	r3, .L3
  40 0006 1C70     		strb	r4, [r3]
  52:Z80_PIO_emul.c ****     PIO_State_B = PIO_INIT;
  41              		.loc 1 52 0
  42 0008 294B     		ldr	r3, .L3+4
  43 000a 1C70     		strb	r4, [r3]
  53:Z80_PIO_emul.c ****     // Initialize the MCP23017
  54:Z80_PIO_emul.c **** 	writeRegister_MCP23017(chipAddr,MCP23017_IODIRA_REGADR,MCP23017_IODIR_ALL_INS);     // IO: Port A 
  44              		.loc 1 54 0
  45 000c FF22     		movs	r2, #255
  46 000e 2146     		mov	r1, r4
  47 0010 2020     		movs	r0, #32
  48 0012 FFF7FEFF 		bl	writeRegister_MCP23017
  49              	.LVL1:
  55:Z80_PIO_emul.c **** 	writeRegister_MCP23017(chipAddr,MCP23017_IODIRB_REGADR,MCP23017_IODIR_ALL_INS);     // IO: Port B 
  50              		.loc 1 55 0
  51 0016 FF22     		movs	r2, #255
  52 0018 0121     		movs	r1, #1
  53 001a 2020     		movs	r0, #32
  54 001c FFF7FEFF 		bl	writeRegister_MCP23017
  55              	.LVL2:
  56:Z80_PIO_emul.c **** 	writeRegister_MCP23017(chipAddr,MCP23017_IPOLA_REGADR,MCP23017_IPOL_INVERT);        // IP: Invert 
  56              		.loc 1 56 0
  57 0020 FF22     		movs	r2, #255
  58 0022 0221     		movs	r1, #2
ARM GAS  C:\Users\HPz420\AppData\Local\Temp\ccBpOOlW.s 			page 3


  59 0024 2020     		movs	r0, #32
  60 0026 FFF7FEFF 		bl	writeRegister_MCP23017
  61              	.LVL3:
  57:Z80_PIO_emul.c **** 	writeRegister_MCP23017(chipAddr,MCP23017_IPOLB_REGADR,MCP23017_IPOL_INVERT);        // IP: Invert 
  62              		.loc 1 57 0
  63 002a FF22     		movs	r2, #255
  64 002c 0321     		movs	r1, #3
  65 002e 2020     		movs	r0, #32
  66 0030 FFF7FEFF 		bl	writeRegister_MCP23017
  67              	.LVL4:
  58:Z80_PIO_emul.c **** 	writeRegister_MCP23017(chipAddr,MCP23017_GPINTENA_REGADR,MCP23017_GPINTEN_DISABLE); // GPINT: Disa
  68              		.loc 1 58 0
  69 0034 2246     		mov	r2, r4
  70 0036 0421     		movs	r1, #4
  71 0038 2020     		movs	r0, #32
  72 003a FFF7FEFF 		bl	writeRegister_MCP23017
  73              	.LVL5:
  59:Z80_PIO_emul.c **** 	writeRegister_MCP23017(chipAddr,MCP23017_GPINTENB_REGADR,MCP23017_GPINTEN_DISABLE); // GPINT: Disa
  74              		.loc 1 59 0
  75 003e 2246     		mov	r2, r4
  76 0040 0521     		movs	r1, #5
  77 0042 2020     		movs	r0, #32
  78 0044 FFF7FEFF 		bl	writeRegister_MCP23017
  79              	.LVL6:
  60:Z80_PIO_emul.c **** 	writeRegister_MCP23017(chipAddr,MCP23017_DEFVALA_REGADR,0xFF);                      // Default val
  80              		.loc 1 60 0
  81 0048 FF22     		movs	r2, #255
  82 004a 0621     		movs	r1, #6
  83 004c 2020     		movs	r0, #32
  84 004e FFF7FEFF 		bl	writeRegister_MCP23017
  85              	.LVL7:
  61:Z80_PIO_emul.c **** 	writeRegister_MCP23017(chipAddr,MCP23017_DEFVALB_REGADR,0xFF);                      // Default val
  86              		.loc 1 61 0
  87 0052 FF22     		movs	r2, #255
  88 0054 0721     		movs	r1, #7
  89 0056 2020     		movs	r0, #32
  90 0058 FFF7FEFF 		bl	writeRegister_MCP23017
  91              	.LVL8:
  62:Z80_PIO_emul.c **** 	writeRegister_MCP23017(chipAddr,MCP23017_INTCONA_REGADR,MCP23017_INTCON_DEFVAL);    // Int for cha
  92              		.loc 1 62 0
  93 005c 2246     		mov	r2, r4
  94 005e 0821     		movs	r1, #8
  95 0060 2020     		movs	r0, #32
  96 0062 FFF7FEFF 		bl	writeRegister_MCP23017
  97              	.LVL9:
  63:Z80_PIO_emul.c **** 	writeRegister_MCP23017(chipAddr,MCP23017_INTCONB_REGADR,MCP23017_INTCON_DEFVAL);    // Int for cha
  98              		.loc 1 63 0
  99 0066 2246     		mov	r2, r4
 100 0068 0921     		movs	r1, #9
 101 006a 2020     		movs	r0, #32
 102 006c FFF7FEFF 		bl	writeRegister_MCP23017
 103              	.LVL10:
  64:Z80_PIO_emul.c **** 	// MIRROR: Int pins not connected
  65:Z80_PIO_emul.c **** 	// SEQOP: Enable sequential operation
  66:Z80_PIO_emul.c **** 	// HAEN: (Not used on MCP23017)
  67:Z80_PIO_emul.c **** 	// ODR: Open Drain output (over-rides INTPOL)
  68:Z80_PIO_emul.c **** 	// INTPOL: Over-ridden by ODR
ARM GAS  C:\Users\HPz420\AppData\Local\Temp\ccBpOOlW.s 			page 4


  69:Z80_PIO_emul.c **** 	writeRegister_MCP23017(chipAddr,MCP23017_IOCONA_REGADR,MCP23017_IOCON_DEFVAL);      // BANK: Regis
 104              		.loc 1 69 0
 105 0070 0422     		movs	r2, #4
 106 0072 0A21     		movs	r1, #10
 107 0074 2020     		movs	r0, #32
 108 0076 FFF7FEFF 		bl	writeRegister_MCP23017
 109              	.LVL11:
  70:Z80_PIO_emul.c **** 	writeRegister_MCP23017(chipAddr,MCP23017_IOCONB_REGADR,MCP23017_IOCON_DEFVAL);      // Int for cha
 110              		.loc 1 70 0
 111 007a 0422     		movs	r2, #4
 112 007c 0B21     		movs	r1, #11
 113 007e 2020     		movs	r0, #32
 114 0080 FFF7FEFF 		bl	writeRegister_MCP23017
 115              	.LVL12:
  71:Z80_PIO_emul.c **** 	writeRegister_MCP23017(chipAddr,MCP23017_GPPUA_REGADR,MCP23017_GPPU_ENABLE);        // Pull-up to 
 116              		.loc 1 71 0
 117 0084 FF22     		movs	r2, #255
 118 0086 0C21     		movs	r1, #12
 119 0088 2020     		movs	r0, #32
 120 008a FFF7FEFF 		bl	writeRegister_MCP23017
 121              	.LVL13:
  72:Z80_PIO_emul.c **** 	writeRegister_MCP23017(chipAddr,MCP23017_GPPUB_REGADR,MCP23017_GPPU_ENABLE);        // Pull-up to 
 122              		.loc 1 72 0
 123 008e FF22     		movs	r2, #255
 124 0090 0D21     		movs	r1, #13
 125 0092 2020     		movs	r0, #32
 126 0094 FFF7FEFF 		bl	writeRegister_MCP23017
 127              	.LVL14:
  73:Z80_PIO_emul.c **** 	readRegister_MCP23017(chipAddr,MCP23017_INTCAPA_REGADR);                            // Clears inte
 128              		.loc 1 73 0
 129 0098 1021     		movs	r1, #16
 130 009a 2020     		movs	r0, #32
 131 009c FFF7FEFF 		bl	readRegister_MCP23017
 132              	.LVL15:
  74:Z80_PIO_emul.c **** 	readRegister_MCP23017(chipAddr,MCP23017_INTCAPB_REGADR);                            // Clears inte
 133              		.loc 1 74 0
 134 00a0 1121     		movs	r1, #17
 135 00a2 2020     		movs	r0, #32
 136 00a4 FFF7FEFF 		bl	readRegister_MCP23017
 137              	.LVL16:
 138 00a8 10BD     		pop	{r4, pc}
 139              	.L4:
 140 00aa 00BF     		.align	2
 141              	.L3:
 142 00ac 00000000 		.word	PIO_State_A
 143 00b0 00000000 		.word	PIO_State_B
 144              		.cfi_endproc
 145              	.LFE63:
 146              		.size	init_PIO, .-init_PIO
 147              		.section	.text.PioReadDataA,"ax",%progbits
 148              		.align	2
 149              		.global	PioReadDataA
 150              		.thumb
 151              		.thumb_func
 152              		.type	PioReadDataA, %function
 153              	PioReadDataA:
 154              	.LFB64:
ARM GAS  C:\Users\HPz420\AppData\Local\Temp\ccBpOOlW.s 			page 5


  75:Z80_PIO_emul.c **** }
  76:Z80_PIO_emul.c **** 
  77:Z80_PIO_emul.c **** void PioReadDataA(void)
  78:Z80_PIO_emul.c **** {
 155              		.loc 1 78 0
 156              		.cfi_startproc
 157              		@ args = 0, pretend = 0, frame = 0
 158              		@ frame_needed = 0, uses_anonymous_args = 0
 159 0000 08B5     		push	{r3, lr}
 160              		.cfi_def_cfa_offset 8
 161              		.cfi_offset 3, -8
 162              		.cfi_offset 14, -4
  79:Z80_PIO_emul.c ****     if (PIO_State_A == PIO_MODE_1)
 163              		.loc 1 79 0
 164 0002 094B     		ldr	r3, .L9
 165 0004 1B78     		ldrb	r3, [r3]	@ zero_extendqisi2
 166 0006 DBB2     		uxtb	r3, r3
 167 0008 032B     		cmp	r3, #3
 168 000a 06D1     		bne	.L6
  80:Z80_PIO_emul.c ****     {
  81:Z80_PIO_emul.c ****         Z80_Data_In_Write(readRegister_MCP23017(MCP23017_PIO_ADDR,MCP23017_GPIOA_REGADR));
 169              		.loc 1 81 0
 170 000c 1221     		movs	r1, #18
 171 000e 2020     		movs	r0, #32
 172 0010 FFF7FEFF 		bl	readRegister_MCP23017
 173              	.LVL17:
 174 0014 FFF7FEFF 		bl	Z80_Data_In_Write
 175              	.LVL18:
 176 0018 02E0     		b	.L7
 177              	.L6:
  82:Z80_PIO_emul.c ****     }
  83:Z80_PIO_emul.c ****     else
  84:Z80_PIO_emul.c ****     {
  85:Z80_PIO_emul.c ****         Z80_Data_In_Write(0x55);
 178              		.loc 1 85 0
 179 001a 5520     		movs	r0, #85
 180 001c FFF7FEFF 		bl	Z80_Data_In_Write
 181              	.LVL19:
 182              	.L7:
  86:Z80_PIO_emul.c ****     }
  87:Z80_PIO_emul.c ****     ackIO();
 183              		.loc 1 87 0
 184 0020 FFF7FEFF 		bl	ackIO
 185              	.LVL20:
 186 0024 08BD     		pop	{r3, pc}
 187              	.L10:
 188 0026 00BF     		.align	2
 189              	.L9:
 190 0028 00000000 		.word	PIO_State_A
 191              		.cfi_endproc
 192              	.LFE64:
 193              		.size	PioReadDataA, .-PioReadDataA
 194              		.section	.text.PioWriteDataA,"ax",%progbits
 195              		.align	2
 196              		.global	PioWriteDataA
 197              		.thumb
 198              		.thumb_func
ARM GAS  C:\Users\HPz420\AppData\Local\Temp\ccBpOOlW.s 			page 6


 199              		.type	PioWriteDataA, %function
 200              	PioWriteDataA:
 201              	.LFB65:
  88:Z80_PIO_emul.c **** }
  89:Z80_PIO_emul.c **** 
  90:Z80_PIO_emul.c **** void PioWriteDataA(void)
  91:Z80_PIO_emul.c **** {
 202              		.loc 1 91 0
 203              		.cfi_startproc
 204              		@ args = 0, pretend = 0, frame = 0
 205              		@ frame_needed = 0, uses_anonymous_args = 0
 206 0000 08B5     		push	{r3, lr}
 207              		.cfi_def_cfa_offset 8
 208              		.cfi_offset 3, -8
 209              		.cfi_offset 14, -4
  92:Z80_PIO_emul.c ****     if (PIO_State_A == PIO_MODE_0)
 210              		.loc 1 92 0
 211 0002 074B     		ldr	r3, .L14
 212 0004 1B78     		ldrb	r3, [r3]	@ zero_extendqisi2
 213 0006 DBB2     		uxtb	r3, r3
 214 0008 022B     		cmp	r3, #2
 215 000a 06D1     		bne	.L12
  93:Z80_PIO_emul.c ****     {
  94:Z80_PIO_emul.c ****         writeRegister_MCP23017(MCP23017_PIO_ADDR,MCP23017_OLATA_REGADR,Z80_Data_Out_Read());
 216              		.loc 1 94 0
 217 000c FFF7FEFF 		bl	Z80_Data_Out_Read
 218              	.LVL21:
 219 0010 0246     		mov	r2, r0
 220 0012 1421     		movs	r1, #20
 221 0014 2020     		movs	r0, #32
 222 0016 FFF7FEFF 		bl	writeRegister_MCP23017
 223              	.LVL22:
 224              	.L12:
  95:Z80_PIO_emul.c ****     }
  96:Z80_PIO_emul.c ****     ackIO();
 225              		.loc 1 96 0
 226 001a FFF7FEFF 		bl	ackIO
 227              	.LVL23:
 228 001e 08BD     		pop	{r3, pc}
 229              	.L15:
 230              		.align	2
 231              	.L14:
 232 0020 00000000 		.word	PIO_State_A
 233              		.cfi_endproc
 234              	.LFE65:
 235              		.size	PioWriteDataA, .-PioWriteDataA
 236              		.section	.text.PioWriteCtrlA,"ax",%progbits
 237              		.align	2
 238              		.global	PioWriteCtrlA
 239              		.thumb
 240              		.thumb_func
 241              		.type	PioWriteCtrlA, %function
 242              	PioWriteCtrlA:
 243              	.LFB66:
  97:Z80_PIO_emul.c **** }
  98:Z80_PIO_emul.c **** 
  99:Z80_PIO_emul.c **** void PioWriteCtrlA(void)
ARM GAS  C:\Users\HPz420\AppData\Local\Temp\ccBpOOlW.s 			page 7


 100:Z80_PIO_emul.c **** {
 244              		.loc 1 100 0
 245              		.cfi_startproc
 246              		@ args = 0, pretend = 0, frame = 8
 247              		@ frame_needed = 0, uses_anonymous_args = 0
 248 0000 00B5     		push	{lr}
 249              		.cfi_def_cfa_offset 4
 250              		.cfi_offset 14, -4
 251 0002 83B0     		sub	sp, sp, #12
 252              		.cfi_def_cfa_offset 16
 101:Z80_PIO_emul.c ****     volatile uint8 dataFromZ80 = Z80_Data_Out_Read();
 253              		.loc 1 101 0
 254 0004 FFF7FEFF 		bl	Z80_Data_Out_Read
 255              	.LVL24:
 256 0008 8DF80700 		strb	r0, [sp, #7]
 102:Z80_PIO_emul.c **** 	if (PIO_State_A == PIO_CTRL)
 257              		.loc 1 102 0
 258 000c 294B     		ldr	r3, .L24
 259 000e 1B78     		ldrb	r3, [r3]	@ zero_extendqisi2
 260 0010 DBB2     		uxtb	r3, r3
 261 0012 012B     		cmp	r3, #1
 262 0014 0AD1     		bne	.L17
 103:Z80_PIO_emul.c ****     {
 104:Z80_PIO_emul.c ****         if ((dataFromZ80 & 0x1) == 0x0)
 263              		.loc 1 104 0
 264 0016 9DF80730 		ldrb	r3, [sp, #7]	@ zero_extendqisi2
 265 001a 13F0010F 		tst	r3, #1
 266 001e 44D1     		bne	.L18
 105:Z80_PIO_emul.c ****         {
 106:Z80_PIO_emul.c ****             PIO_Vector_Address_Port_A = dataFromZ80;
 267              		.loc 1 106 0
 268 0020 9DF80730 		ldrb	r3, [sp, #7]	@ zero_extendqisi2
 269 0024 DBB2     		uxtb	r3, r3
 270 0026 244A     		ldr	r2, .L24+4
 271 0028 1370     		strb	r3, [r2]
 272 002a 3EE0     		b	.L18
 273              	.L17:
 107:Z80_PIO_emul.c ****         }
 108:Z80_PIO_emul.c ****     }
 109:Z80_PIO_emul.c ****     else if (PIO_State_A == PIO_INIT)
 274              		.loc 1 109 0
 275 002c 214B     		ldr	r3, .L24
 276 002e 1B78     		ldrb	r3, [r3]	@ zero_extendqisi2
 277 0030 13F0FF0F 		tst	r3, #255
 278 0034 39D1     		bne	.L18
 110:Z80_PIO_emul.c ****     {
 111:Z80_PIO_emul.c ****         if ((dataFromZ80 & PIO_MODE_WORD_BITS) == PIO_MODE_WORD_VAL)    // Set mode
 279              		.loc 1 111 0
 280 0036 9DF80730 		ldrb	r3, [sp, #7]	@ zero_extendqisi2
 281 003a 03F00F03 		and	r3, r3, #15
 282 003e 0F2B     		cmp	r3, #15
 283 0040 30D1     		bne	.L19
 112:Z80_PIO_emul.c ****         {
 113:Z80_PIO_emul.c ****             if ((dataFromZ80 & PIO_OP_MODE_MASK) == PIO_OP_MODE_0)      // Outputs
 284              		.loc 1 113 0
 285 0042 9DF80730 		ldrb	r3, [sp, #7]	@ zero_extendqisi2
 286 0046 13F0C00F 		tst	r3, #192
ARM GAS  C:\Users\HPz420\AppData\Local\Temp\ccBpOOlW.s 			page 8


 287 004a 08D1     		bne	.L20
 114:Z80_PIO_emul.c ****             {
 115:Z80_PIO_emul.c ****             	writeRegister_MCP23017(MCP23017_PIO_ADDR,MCP23017_IODIRA_REGADR,MCP23017_IODIR_ALL_OUT
 288              		.loc 1 115 0
 289 004c 0022     		movs	r2, #0
 290 004e 1146     		mov	r1, r2
 291 0050 2020     		movs	r0, #32
 292 0052 FFF7FEFF 		bl	writeRegister_MCP23017
 293              	.LVL25:
 116:Z80_PIO_emul.c ****                 PIO_State_A = PIO_MODE_0;
 294              		.loc 1 116 0
 295 0056 0222     		movs	r2, #2
 296 0058 164B     		ldr	r3, .L24
 297 005a 1A70     		strb	r2, [r3]
 298 005c 25E0     		b	.L18
 299              	.L20:
 117:Z80_PIO_emul.c ****             }
 118:Z80_PIO_emul.c ****             else if ((dataFromZ80 & PIO_OP_MODE_MASK) == PIO_OP_MODE_1) // Inputs
 300              		.loc 1 118 0
 301 005e 9DF80730 		ldrb	r3, [sp, #7]	@ zero_extendqisi2
 302 0062 03F0C003 		and	r3, r3, #192
 303 0066 402B     		cmp	r3, #64
 304 0068 08D1     		bne	.L21
 119:Z80_PIO_emul.c ****             {
 120:Z80_PIO_emul.c ****             	writeRegister_MCP23017(MCP23017_PIO_ADDR,MCP23017_IODIRA_REGADR,MCP23017_IODIR_ALL_INS
 305              		.loc 1 120 0
 306 006a FF22     		movs	r2, #255
 307 006c 0021     		movs	r1, #0
 308 006e 2020     		movs	r0, #32
 309 0070 FFF7FEFF 		bl	writeRegister_MCP23017
 310              	.LVL26:
 121:Z80_PIO_emul.c ****                 PIO_State_A = PIO_MODE_1;
 311              		.loc 1 121 0
 312 0074 0322     		movs	r2, #3
 313 0076 0F4B     		ldr	r3, .L24
 314 0078 1A70     		strb	r2, [r3]
 315 007a 16E0     		b	.L18
 316              	.L21:
 122:Z80_PIO_emul.c ****             }
 123:Z80_PIO_emul.c ****             else if ((dataFromZ80 & PIO_OP_MODE_MASK) == PIO_OP_MODE_2) // Bidirectional
 317              		.loc 1 123 0
 318 007c 9DF80730 		ldrb	r3, [sp, #7]	@ zero_extendqisi2
 319 0080 03F0C003 		and	r3, r3, #192
 320 0084 802B     		cmp	r3, #128
 321 0086 03D1     		bne	.L22
 124:Z80_PIO_emul.c ****             {
 125:Z80_PIO_emul.c ****                 PIO_State_A = PIO_MODE_2;
 322              		.loc 1 125 0
 323 0088 0422     		movs	r2, #4
 324 008a 0A4B     		ldr	r3, .L24
 325 008c 1A70     		strb	r2, [r3]
 326 008e 0CE0     		b	.L18
 327              	.L22:
 126:Z80_PIO_emul.c ****             }
 127:Z80_PIO_emul.c ****             else if ((dataFromZ80 & PIO_OP_MODE_MASK) == PIO_OP_MODE_3) // Controlled direction
 328              		.loc 1 127 0
 329 0090 9DF80730 		ldrb	r3, [sp, #7]	@ zero_extendqisi2
ARM GAS  C:\Users\HPz420\AppData\Local\Temp\ccBpOOlW.s 			page 9


 330 0094 03F0C003 		and	r3, r3, #192
 331 0098 C02B     		cmp	r3, #192
 332 009a 06D1     		bne	.L18
 128:Z80_PIO_emul.c ****             {
 129:Z80_PIO_emul.c ****                 PIO_State_A = PIO_MODE_3;
 333              		.loc 1 129 0
 334 009c 0522     		movs	r2, #5
 335 009e 054B     		ldr	r3, .L24
 336 00a0 1A70     		strb	r2, [r3]
 337 00a2 02E0     		b	.L18
 338              	.L19:
 130:Z80_PIO_emul.c ****             }
 131:Z80_PIO_emul.c ****         }
 132:Z80_PIO_emul.c ****         else
 133:Z80_PIO_emul.c ****         {
 134:Z80_PIO_emul.c ****             PIO_State_A = PIO_CTRL;
 339              		.loc 1 134 0
 340 00a4 0122     		movs	r2, #1
 341 00a6 034B     		ldr	r3, .L24
 342 00a8 1A70     		strb	r2, [r3]
 343              	.L18:
 135:Z80_PIO_emul.c ****         }
 136:Z80_PIO_emul.c ****     }
 137:Z80_PIO_emul.c ****     ackIO();
 344              		.loc 1 137 0
 345 00aa FFF7FEFF 		bl	ackIO
 346              	.LVL27:
 138:Z80_PIO_emul.c **** }
 347              		.loc 1 138 0
 348 00ae 03B0     		add	sp, sp, #12
 349              		.cfi_def_cfa_offset 4
 350              		@ sp needed
 351 00b0 5DF804FB 		ldr	pc, [sp], #4
 352              	.L25:
 353              		.align	2
 354              	.L24:
 355 00b4 00000000 		.word	PIO_State_A
 356 00b8 00000000 		.word	PIO_Vector_Address_Port_A
 357              		.cfi_endproc
 358              	.LFE66:
 359              		.size	PioWriteCtrlA, .-PioWriteCtrlA
 360              		.section	.text.PioReadDataB,"ax",%progbits
 361              		.align	2
 362              		.global	PioReadDataB
 363              		.thumb
 364              		.thumb_func
 365              		.type	PioReadDataB, %function
 366              	PioReadDataB:
 367              	.LFB67:
 139:Z80_PIO_emul.c **** 
 140:Z80_PIO_emul.c **** void PioReadDataB(void)
 141:Z80_PIO_emul.c **** {
 368              		.loc 1 141 0
 369              		.cfi_startproc
 370              		@ args = 0, pretend = 0, frame = 0
 371              		@ frame_needed = 0, uses_anonymous_args = 0
 372 0000 08B5     		push	{r3, lr}
ARM GAS  C:\Users\HPz420\AppData\Local\Temp\ccBpOOlW.s 			page 10


 373              		.cfi_def_cfa_offset 8
 374              		.cfi_offset 3, -8
 375              		.cfi_offset 14, -4
 142:Z80_PIO_emul.c ****     if (PIO_State_A == PIO_MODE_1)
 376              		.loc 1 142 0
 377 0002 094B     		ldr	r3, .L30
 378 0004 1B78     		ldrb	r3, [r3]	@ zero_extendqisi2
 379 0006 DBB2     		uxtb	r3, r3
 380 0008 032B     		cmp	r3, #3
 381 000a 06D1     		bne	.L27
 143:Z80_PIO_emul.c ****     {
 144:Z80_PIO_emul.c ****         Z80_Data_In_Write(readRegister_MCP23017(MCP23017_PIO_ADDR,MCP23017_GPIOB_REGADR));
 382              		.loc 1 144 0
 383 000c 1321     		movs	r1, #19
 384 000e 2020     		movs	r0, #32
 385 0010 FFF7FEFF 		bl	readRegister_MCP23017
 386              	.LVL28:
 387 0014 FFF7FEFF 		bl	Z80_Data_In_Write
 388              	.LVL29:
 389 0018 02E0     		b	.L28
 390              	.L27:
 145:Z80_PIO_emul.c ****     }
 146:Z80_PIO_emul.c ****     else
 147:Z80_PIO_emul.c ****     {
 148:Z80_PIO_emul.c ****         Z80_Data_In_Write(0xAA);
 391              		.loc 1 148 0
 392 001a AA20     		movs	r0, #170
 393 001c FFF7FEFF 		bl	Z80_Data_In_Write
 394              	.LVL30:
 395              	.L28:
 149:Z80_PIO_emul.c ****     }
 150:Z80_PIO_emul.c ****     ackIO();
 396              		.loc 1 150 0
 397 0020 FFF7FEFF 		bl	ackIO
 398              	.LVL31:
 399 0024 08BD     		pop	{r3, pc}
 400              	.L31:
 401 0026 00BF     		.align	2
 402              	.L30:
 403 0028 00000000 		.word	PIO_State_A
 404              		.cfi_endproc
 405              	.LFE67:
 406              		.size	PioReadDataB, .-PioReadDataB
 407              		.section	.text.PioWriteDataB,"ax",%progbits
 408              		.align	2
 409              		.global	PioWriteDataB
 410              		.thumb
 411              		.thumb_func
 412              		.type	PioWriteDataB, %function
 413              	PioWriteDataB:
 414              	.LFB68:
 151:Z80_PIO_emul.c **** }
 152:Z80_PIO_emul.c **** 
 153:Z80_PIO_emul.c **** void PioWriteDataB(void)
 154:Z80_PIO_emul.c **** {
 415              		.loc 1 154 0
 416              		.cfi_startproc
ARM GAS  C:\Users\HPz420\AppData\Local\Temp\ccBpOOlW.s 			page 11


 417              		@ args = 0, pretend = 0, frame = 0
 418              		@ frame_needed = 0, uses_anonymous_args = 0
 419 0000 08B5     		push	{r3, lr}
 420              		.cfi_def_cfa_offset 8
 421              		.cfi_offset 3, -8
 422              		.cfi_offset 14, -4
 155:Z80_PIO_emul.c ****     if (PIO_State_B == PIO_MODE_0)
 423              		.loc 1 155 0
 424 0002 074B     		ldr	r3, .L35
 425 0004 1B78     		ldrb	r3, [r3]	@ zero_extendqisi2
 426 0006 DBB2     		uxtb	r3, r3
 427 0008 022B     		cmp	r3, #2
 428 000a 06D1     		bne	.L33
 156:Z80_PIO_emul.c ****     {
 157:Z80_PIO_emul.c ****         writeRegister_MCP23017(MCP23017_PIO_ADDR,MCP23017_OLATB_REGADR,Z80_Data_Out_Read());
 429              		.loc 1 157 0
 430 000c FFF7FEFF 		bl	Z80_Data_Out_Read
 431              	.LVL32:
 432 0010 0246     		mov	r2, r0
 433 0012 1521     		movs	r1, #21
 434 0014 2020     		movs	r0, #32
 435 0016 FFF7FEFF 		bl	writeRegister_MCP23017
 436              	.LVL33:
 437              	.L33:
 158:Z80_PIO_emul.c ****     }
 159:Z80_PIO_emul.c ****     ackIO();
 438              		.loc 1 159 0
 439 001a FFF7FEFF 		bl	ackIO
 440              	.LVL34:
 441 001e 08BD     		pop	{r3, pc}
 442              	.L36:
 443              		.align	2
 444              	.L35:
 445 0020 00000000 		.word	PIO_State_B
 446              		.cfi_endproc
 447              	.LFE68:
 448              		.size	PioWriteDataB, .-PioWriteDataB
 449              		.section	.text.PioWriteCtrlB,"ax",%progbits
 450              		.align	2
 451              		.global	PioWriteCtrlB
 452              		.thumb
 453              		.thumb_func
 454              		.type	PioWriteCtrlB, %function
 455              	PioWriteCtrlB:
 456              	.LFB69:
 160:Z80_PIO_emul.c **** }
 161:Z80_PIO_emul.c **** 
 162:Z80_PIO_emul.c **** void PioWriteCtrlB(void)
 163:Z80_PIO_emul.c **** {
 457              		.loc 1 163 0
 458              		.cfi_startproc
 459              		@ args = 0, pretend = 0, frame = 8
 460              		@ frame_needed = 0, uses_anonymous_args = 0
 461 0000 00B5     		push	{lr}
 462              		.cfi_def_cfa_offset 4
 463              		.cfi_offset 14, -4
 464 0002 83B0     		sub	sp, sp, #12
ARM GAS  C:\Users\HPz420\AppData\Local\Temp\ccBpOOlW.s 			page 12


 465              		.cfi_def_cfa_offset 16
 164:Z80_PIO_emul.c ****     volatile uint8 dataFromZ80 = Z80_Data_Out_Read();
 466              		.loc 1 164 0
 467 0004 FFF7FEFF 		bl	Z80_Data_Out_Read
 468              	.LVL35:
 469 0008 8DF80700 		strb	r0, [sp, #7]
 165:Z80_PIO_emul.c **** 	if (PIO_State_B == PIO_CTRL)
 470              		.loc 1 165 0
 471 000c 294B     		ldr	r3, .L45
 472 000e 1B78     		ldrb	r3, [r3]	@ zero_extendqisi2
 473 0010 DBB2     		uxtb	r3, r3
 474 0012 012B     		cmp	r3, #1
 475 0014 0AD1     		bne	.L38
 166:Z80_PIO_emul.c ****     {
 167:Z80_PIO_emul.c ****         if ((dataFromZ80 & 0x1) == 0x0)
 476              		.loc 1 167 0
 477 0016 9DF80730 		ldrb	r3, [sp, #7]	@ zero_extendqisi2
 478 001a 13F0010F 		tst	r3, #1
 479 001e 44D1     		bne	.L39
 168:Z80_PIO_emul.c ****         {
 169:Z80_PIO_emul.c ****             PIO_Vector_Address_Port_B = dataFromZ80;
 480              		.loc 1 169 0
 481 0020 9DF80730 		ldrb	r3, [sp, #7]	@ zero_extendqisi2
 482 0024 DBB2     		uxtb	r3, r3
 483 0026 244A     		ldr	r2, .L45+4
 484 0028 1370     		strb	r3, [r2]
 485 002a 3EE0     		b	.L39
 486              	.L38:
 170:Z80_PIO_emul.c ****         }
 171:Z80_PIO_emul.c ****     }
 172:Z80_PIO_emul.c ****     else if (PIO_State_B == PIO_INIT)
 487              		.loc 1 172 0
 488 002c 214B     		ldr	r3, .L45
 489 002e 1B78     		ldrb	r3, [r3]	@ zero_extendqisi2
 490 0030 13F0FF0F 		tst	r3, #255
 491 0034 39D1     		bne	.L39
 173:Z80_PIO_emul.c ****     {
 174:Z80_PIO_emul.c ****         if ((dataFromZ80 & PIO_MODE_WORD_BITS) == PIO_MODE_WORD_VAL)    // Set mode
 492              		.loc 1 174 0
 493 0036 9DF80730 		ldrb	r3, [sp, #7]	@ zero_extendqisi2
 494 003a 03F00F03 		and	r3, r3, #15
 495 003e 0F2B     		cmp	r3, #15
 496 0040 30D1     		bne	.L40
 175:Z80_PIO_emul.c ****         {
 176:Z80_PIO_emul.c ****             if ((dataFromZ80 & PIO_OP_MODE_MASK) == PIO_OP_MODE_0)      // Outputs
 497              		.loc 1 176 0
 498 0042 9DF80730 		ldrb	r3, [sp, #7]	@ zero_extendqisi2
 499 0046 13F0C00F 		tst	r3, #192
 500 004a 08D1     		bne	.L41
 177:Z80_PIO_emul.c ****             {
 178:Z80_PIO_emul.c ****             	writeRegister_MCP23017(MCP23017_PIO_ADDR,MCP23017_IODIRB_REGADR,MCP23017_IODIR_ALL_OUT
 501              		.loc 1 178 0
 502 004c 0022     		movs	r2, #0
 503 004e 0121     		movs	r1, #1
 504 0050 2020     		movs	r0, #32
 505 0052 FFF7FEFF 		bl	writeRegister_MCP23017
 506              	.LVL36:
ARM GAS  C:\Users\HPz420\AppData\Local\Temp\ccBpOOlW.s 			page 13


 179:Z80_PIO_emul.c ****                 PIO_State_B = PIO_MODE_0;
 507              		.loc 1 179 0
 508 0056 0222     		movs	r2, #2
 509 0058 164B     		ldr	r3, .L45
 510 005a 1A70     		strb	r2, [r3]
 511 005c 25E0     		b	.L39
 512              	.L41:
 180:Z80_PIO_emul.c ****             }
 181:Z80_PIO_emul.c ****             else if ((dataFromZ80 & PIO_OP_MODE_MASK) == PIO_OP_MODE_1) // Inputs
 513              		.loc 1 181 0
 514 005e 9DF80730 		ldrb	r3, [sp, #7]	@ zero_extendqisi2
 515 0062 03F0C003 		and	r3, r3, #192
 516 0066 402B     		cmp	r3, #64
 517 0068 08D1     		bne	.L42
 182:Z80_PIO_emul.c ****             {
 183:Z80_PIO_emul.c ****             	writeRegister_MCP23017(MCP23017_PIO_ADDR,MCP23017_IODIRB_REGADR,MCP23017_IODIR_ALL_INS
 518              		.loc 1 183 0
 519 006a FF22     		movs	r2, #255
 520 006c 0121     		movs	r1, #1
 521 006e 2020     		movs	r0, #32
 522 0070 FFF7FEFF 		bl	writeRegister_MCP23017
 523              	.LVL37:
 184:Z80_PIO_emul.c ****                 PIO_State_B = PIO_MODE_1;
 524              		.loc 1 184 0
 525 0074 0322     		movs	r2, #3
 526 0076 0F4B     		ldr	r3, .L45
 527 0078 1A70     		strb	r2, [r3]
 528 007a 16E0     		b	.L39
 529              	.L42:
 185:Z80_PIO_emul.c ****             }
 186:Z80_PIO_emul.c ****             else if ((dataFromZ80 & PIO_OP_MODE_MASK) == PIO_OP_MODE_2) // Bidirectional
 530              		.loc 1 186 0
 531 007c 9DF80730 		ldrb	r3, [sp, #7]	@ zero_extendqisi2
 532 0080 03F0C003 		and	r3, r3, #192
 533 0084 802B     		cmp	r3, #128
 534 0086 03D1     		bne	.L43
 187:Z80_PIO_emul.c ****             {
 188:Z80_PIO_emul.c ****                 PIO_State_B = PIO_MODE_2;
 535              		.loc 1 188 0
 536 0088 0422     		movs	r2, #4
 537 008a 0A4B     		ldr	r3, .L45
 538 008c 1A70     		strb	r2, [r3]
 539 008e 0CE0     		b	.L39
 540              	.L43:
 189:Z80_PIO_emul.c ****             }
 190:Z80_PIO_emul.c ****             else if ((dataFromZ80 & PIO_OP_MODE_MASK) == PIO_OP_MODE_3) // Controlled direction
 541              		.loc 1 190 0
 542 0090 9DF80730 		ldrb	r3, [sp, #7]	@ zero_extendqisi2
 543 0094 03F0C003 		and	r3, r3, #192
 544 0098 C02B     		cmp	r3, #192
 545 009a 06D1     		bne	.L39
 191:Z80_PIO_emul.c ****             {
 192:Z80_PIO_emul.c ****                 PIO_State_B = PIO_MODE_3;
 546              		.loc 1 192 0
 547 009c 0522     		movs	r2, #5
 548 009e 054B     		ldr	r3, .L45
 549 00a0 1A70     		strb	r2, [r3]
ARM GAS  C:\Users\HPz420\AppData\Local\Temp\ccBpOOlW.s 			page 14


 550 00a2 02E0     		b	.L39
 551              	.L40:
 193:Z80_PIO_emul.c ****             }
 194:Z80_PIO_emul.c ****         }
 195:Z80_PIO_emul.c ****         else
 196:Z80_PIO_emul.c ****         {
 197:Z80_PIO_emul.c ****             PIO_State_B = PIO_CTRL;
 552              		.loc 1 197 0
 553 00a4 0122     		movs	r2, #1
 554 00a6 034B     		ldr	r3, .L45
 555 00a8 1A70     		strb	r2, [r3]
 556              	.L39:
 198:Z80_PIO_emul.c ****         }
 199:Z80_PIO_emul.c ****     }
 200:Z80_PIO_emul.c ****     ackIO();
 557              		.loc 1 200 0
 558 00aa FFF7FEFF 		bl	ackIO
 559              	.LVL38:
 201:Z80_PIO_emul.c **** }
 560              		.loc 1 201 0
 561 00ae 03B0     		add	sp, sp, #12
 562              		.cfi_def_cfa_offset 4
 563              		@ sp needed
 564 00b0 5DF804FB 		ldr	pc, [sp], #4
 565              	.L46:
 566              		.align	2
 567              	.L45:
 568 00b4 00000000 		.word	PIO_State_B
 569 00b8 00000000 		.word	PIO_Vector_Address_Port_B
 570              		.cfi_endproc
 571              	.LFE69:
 572              		.size	PioWriteCtrlB, .-PioWriteCtrlB
 573              		.comm	PIO_State_B,1,1
 574              		.comm	PIO_State_A,1,1
 575              		.comm	PIO_Output_Register_Port_B,1,1
 576              		.comm	PIO_Interrupt_Vector_Port_B,1,1
 577              		.comm	PIO_Vector_Address_Port_B,1,1
 578              		.comm	PIO_Mask_Port_B,1,1
 579              		.comm	PIO_Output_Register_Port_A,1,1
 580              		.comm	PIO_Interrupt_Vector_Port_A,1,1
 581              		.comm	PIO_Vector_Address_Port_A,1,1
 582              		.comm	PIO_Mask_Port_A,1,1
 583              		.text
 584              	.Letext0:
 585              		.file 2 "c:\\program files (x86)\\cypress\\psoc creator\\4.2\\psoc creator\\import\\gnu\\arm\\5.4.
 586              		.file 3 "c:\\program files (x86)\\cypress\\psoc creator\\4.2\\psoc creator\\import\\gnu\\arm\\5.4.
 587              		.file 4 "Generated_Source\\PSoC5/cytypes.h"
 588              		.file 5 "Generated_Source\\PSoC5/core_cm3.h"
 589              		.file 6 "./FrontPanel.h"
 590              		.file 7 "Generated_Source\\PSoC5/Z80_Data_In.h"
 591              		.file 8 "./Z80_IO_Handle.h"
 592              		.file 9 "Generated_Source\\PSoC5/Z80_Data_Out.h"
 593              		.file 10 "./Z80_PIO_emul.h"