ARM GAS  C:\Users\HPz420\AppData\Local\Temp\ccc7E3PY.s 			page 1


   1              		.syntax unified
   2              		.cpu cortex-m3
   3              		.fpu softvfp
   4              		.eabi_attribute 20, 1
   5              		.eabi_attribute 21, 1
   6              		.eabi_attribute 23, 3
   7              		.eabi_attribute 24, 1
   8              		.eabi_attribute 25, 1
   9              		.eabi_attribute 26, 1
  10              		.eabi_attribute 30, 1
  11              		.eabi_attribute 34, 1
  12              		.eabi_attribute 18, 4
  13              		.thumb
  14              		.syntax unified
  15              		.file	"Z80_6850_Emul.c"
  16              		.text
  17              	.Ltext0:
  18              		.cfi_sections	.debug_frame
  19              		.section	.text.initM6850StatusRegister,"ax",%progbits
  20              		.align	2
  21              		.global	initM6850StatusRegister
  22              		.thumb
  23              		.thumb_func
  24              		.type	initM6850StatusRegister, %function
  25              	initM6850StatusRegister:
  26              	.LFB63:
  27              		.file 1 "Z80_6850_Emul.c"
   1:Z80_6850_Emul.c **** /* ========================================
   2:Z80_6850_Emul.c **** *
   3:Z80_6850_Emul.c **** * Copyright LAND BOARDS, LLC, 2019
   4:Z80_6850_Emul.c **** * All Rights Reserved
   5:Z80_6850_Emul.c **** * UNPUBLISHED, LICENSED SOFTWARE.
   6:Z80_6850_Emul.c **** *
   7:Z80_6850_Emul.c **** * CONFIDENTIAL AND PROPRIETARY INFORMATION
   8:Z80_6850_Emul.c **** * WHICH IS THE PROPERTY OF Land Boards, LLC.
   9:Z80_6850_Emul.c **** *
  10:Z80_6850_Emul.c **** * ========================================
  11:Z80_6850_Emul.c **** */
  12:Z80_6850_Emul.c **** 
  13:Z80_6850_Emul.c **** #include <project.h>
  14:Z80_6850_Emul.c **** #include <Z80_PSoC_3Chips.h>
  15:Z80_6850_Emul.c **** 
  16:Z80_6850_Emul.c **** #ifdef USING_6850
  17:Z80_6850_Emul.c **** 
  18:Z80_6850_Emul.c **** #define SIO_CHAR_RDY                0x01
  19:Z80_6850_Emul.c **** #define M6850_INT_RTS_MASK          0x60
  20:Z80_6850_Emul.c **** #define M6850_RTS_LOW__INT_EN       0x20    // Not used by Grant's 7-chip code
  21:Z80_6850_Emul.c **** #define M6850_RTS_HI__INT_DIS       0x40
  22:Z80_6850_Emul.c **** #define M6850_RTS_LOW__INT_DIS_BK   0x60    // Not used by Grant's 7-chip code
  23:Z80_6850_Emul.c **** 
  24:Z80_6850_Emul.c **** volatile uint8 M6850_Ctrl;
  25:Z80_6850_Emul.c **** volatile uint8 M6850_Status;
  26:Z80_6850_Emul.c **** volatile uint8 M6850_DataOut;
  27:Z80_6850_Emul.c **** volatile uint8 M6850_DataIn;
  28:Z80_6850_Emul.c **** 
  29:Z80_6850_Emul.c **** ///////////////////////////////////////////////////////////////////////////////
  30:Z80_6850_Emul.c **** // void initM6850StatusRegister(void) - Set the initial value of the status reg
ARM GAS  C:\Users\HPz420\AppData\Local\Temp\ccc7E3PY.s 			page 2


  31:Z80_6850_Emul.c **** 
  32:Z80_6850_Emul.c **** void initM6850StatusRegister(void)
  33:Z80_6850_Emul.c **** {
  28              		.loc 1 33 0
  29              		.cfi_startproc
  30              		@ args = 0, pretend = 0, frame = 0
  31              		@ frame_needed = 0, uses_anonymous_args = 0
  32              		@ link register save eliminated.
  34:Z80_6850_Emul.c **** 	M6850_Status = 0x2;
  33              		.loc 1 34 0
  34 0000 0222     		movs	r2, #2
  35 0002 014B     		ldr	r3, .L2
  36 0004 1A70     		strb	r2, [r3]
  37 0006 7047     		bx	lr
  38              	.L3:
  39              		.align	2
  40              	.L2:
  41 0008 00000000 		.word	M6850_Status
  42              		.cfi_endproc
  43              	.LFE63:
  44              		.size	initM6850StatusRegister, .-initM6850StatusRegister
  45              		.section	.text.M6850ReadIntReg,"ax",%progbits
  46              		.align	2
  47              		.global	M6850ReadIntReg
  48              		.thumb
  49              		.thumb_func
  50              		.type	M6850ReadIntReg, %function
  51              	M6850ReadIntReg:
  52              	.LFB64:
  35:Z80_6850_Emul.c **** }
  36:Z80_6850_Emul.c **** 
  37:Z80_6850_Emul.c **** ///////////////////////////////////////////////////////////////////////////////
  38:Z80_6850_Emul.c **** // void M6850ReadIntReg(void) - Read the Interrupt vector
  39:Z80_6850_Emul.c **** 
  40:Z80_6850_Emul.c **** void M6850ReadIntReg(void)
  41:Z80_6850_Emul.c **** {
  53              		.loc 1 41 0
  54              		.cfi_startproc
  55              		@ args = 0, pretend = 0, frame = 0
  56              		@ frame_needed = 0, uses_anonymous_args = 0
  57 0000 08B5     		push	{r3, lr}
  58              		.cfi_def_cfa_offset 8
  59              		.cfi_offset 3, -8
  60              		.cfi_offset 14, -4
  42:Z80_6850_Emul.c **** 	Z80_Data_In_Write(0xFF);
  61              		.loc 1 42 0
  62 0002 FF20     		movs	r0, #255
  63 0004 FFF7FEFF 		bl	Z80_Data_In_Write
  64              	.LVL0:
  43:Z80_6850_Emul.c **** 	INT_n_Write(INT_OFF);   // Clear IRQ* line
  65              		.loc 1 43 0
  66 0008 0120     		movs	r0, #1
  67 000a FFF7FEFF 		bl	INT_n_Write
  68              	.LVL1:
  44:Z80_6850_Emul.c **** 	ackIO();
  69              		.loc 1 44 0
  70 000e FFF7FEFF 		bl	ackIO
ARM GAS  C:\Users\HPz420\AppData\Local\Temp\ccc7E3PY.s 			page 3


  71              	.LVL2:
  72 0012 08BD     		pop	{r3, pc}
  73              		.cfi_endproc
  74              	.LFE64:
  75              		.size	M6850ReadIntReg, .-M6850ReadIntReg
  76              		.section	.text.sendCharToZ80,"ax",%progbits
  77              		.align	2
  78              		.global	sendCharToZ80
  79              		.thumb
  80              		.thumb_func
  81              		.type	sendCharToZ80, %function
  82              	sendCharToZ80:
  83              	.LFB65:
  45:Z80_6850_Emul.c **** }
  46:Z80_6850_Emul.c **** 
  47:Z80_6850_Emul.c **** ///////////////////////////////////////////////////////////////////////////////
  48:Z80_6850_Emul.c **** // void sendCharToZ80(uint8 rxChar) - Get ready to send a character to the Z80 
  49:Z80_6850_Emul.c **** // by placing it into the SIO_A_DataIn register and making the 
  50:Z80_6850_Emul.c **** // RxCharacterAvailable active.
  51:Z80_6850_Emul.c **** 
  52:Z80_6850_Emul.c **** void sendCharToZ80(uint8 rxChar)
  53:Z80_6850_Emul.c **** {
  84              		.loc 1 53 0
  85              		.cfi_startproc
  86              		@ args = 0, pretend = 0, frame = 0
  87              		@ frame_needed = 0, uses_anonymous_args = 0
  88              	.LVL3:
  89 0000 08B5     		push	{r3, lr}
  90              		.cfi_def_cfa_offset 8
  91              		.cfi_offset 3, -8
  92              		.cfi_offset 14, -4
  54:Z80_6850_Emul.c **** 	M6850_DataIn = rxChar;                                          // Put the char into the buffer
  93              		.loc 1 54 0
  94 0002 084B     		ldr	r3, .L9
  95 0004 1870     		strb	r0, [r3]
  55:Z80_6850_Emul.c **** 	M6850_Status |= SIO_CHAR_RDY;                                   // Rx Character Available
  96              		.loc 1 55 0
  97 0006 084A     		ldr	r2, .L9+4
  98 0008 1378     		ldrb	r3, [r2]	@ zero_extendqisi2
  99 000a 43F00103 		orr	r3, r3, #1
 100 000e 1370     		strb	r3, [r2]
  56:Z80_6850_Emul.c **** 	if ((M6850_Ctrl & M6850_INT_RTS_MASK) != M6850_RTS_LOW__INT_EN) // Only set IRQ if it is enabled f
 101              		.loc 1 56 0
 102 0010 064B     		ldr	r3, .L9+8
 103 0012 1B78     		ldrb	r3, [r3]	@ zero_extendqisi2
 104 0014 03F06003 		and	r3, r3, #96
 105 0018 202B     		cmp	r3, #32
 106 001a 02D0     		beq	.L6
  57:Z80_6850_Emul.c **** 	INT_n_Write(INT_ON);               // Set IRQ* line
 107              		.loc 1 57 0
 108 001c 0020     		movs	r0, #0
 109              	.LVL4:
 110 001e FFF7FEFF 		bl	INT_n_Write
 111              	.LVL5:
 112              	.L6:
 113 0022 08BD     		pop	{r3, pc}
 114              	.L10:
ARM GAS  C:\Users\HPz420\AppData\Local\Temp\ccc7E3PY.s 			page 4


 115              		.align	2
 116              	.L9:
 117 0024 00000000 		.word	M6850_DataIn
 118 0028 00000000 		.word	M6850_Status
 119 002c 00000000 		.word	M6850_Ctrl
 120              		.cfi_endproc
 121              	.LFE65:
 122              		.size	sendCharToZ80, .-sendCharToZ80
 123              		.section	.text.checkSerialReceiverBusy,"ax",%progbits
 124              		.align	2
 125              		.global	checkSerialReceiverBusy
 126              		.thumb
 127              		.thumb_func
 128              		.type	checkSerialReceiverBusy, %function
 129              	checkSerialReceiverBusy:
 130              	.LFB66:
  58:Z80_6850_Emul.c **** }
  59:Z80_6850_Emul.c **** 
  60:Z80_6850_Emul.c **** ///////////////////////////////////////////////////////////////////////////////
  61:Z80_6850_Emul.c **** // uint8 checkSerialReceiverBusy(void) - Check the Serial port receiver status
  62:Z80_6850_Emul.c **** // Returns: 
  63:Z80_6850_Emul.c **** //  0 if the port can take another character
  64:Z80_6850_Emul.c **** //  1 if the port is busy and can't take another character
  65:Z80_6850_Emul.c **** 
  66:Z80_6850_Emul.c **** uint8 checkSerialReceiverBusy(void)
  67:Z80_6850_Emul.c **** {
 131              		.loc 1 67 0
 132              		.cfi_startproc
 133              		@ args = 0, pretend = 0, frame = 0
 134              		@ frame_needed = 0, uses_anonymous_args = 0
 135              		@ link register save eliminated.
  68:Z80_6850_Emul.c **** 	if ((M6850_Ctrl & M6850_INT_RTS_MASK) == M6850_RTS_HI__INT_DIS)
 136              		.loc 1 68 0
 137 0000 064B     		ldr	r3, .L14
 138 0002 1B78     		ldrb	r3, [r3]	@ zero_extendqisi2
 139 0004 03F06003 		and	r3, r3, #96
 140 0008 402B     		cmp	r3, #64
 141 000a 04D0     		beq	.L13
  69:Z80_6850_Emul.c **** 	{
  70:Z80_6850_Emul.c **** 		return(1);
  71:Z80_6850_Emul.c **** 	}
  72:Z80_6850_Emul.c **** 	return (M6850_Status & SIO_CHAR_RDY);
 142              		.loc 1 72 0
 143 000c 044B     		ldr	r3, .L14+4
 144 000e 1878     		ldrb	r0, [r3]	@ zero_extendqisi2
 145 0010 00F00100 		and	r0, r0, #1
 146 0014 7047     		bx	lr
 147              	.L13:
  70:Z80_6850_Emul.c **** 	}
 148              		.loc 1 70 0
 149 0016 0120     		movs	r0, #1
  73:Z80_6850_Emul.c **** }
 150              		.loc 1 73 0
 151 0018 7047     		bx	lr
 152              	.L15:
 153 001a 00BF     		.align	2
 154              	.L14:
ARM GAS  C:\Users\HPz420\AppData\Local\Temp\ccc7E3PY.s 			page 5


 155 001c 00000000 		.word	M6850_Ctrl
 156 0020 00000000 		.word	M6850_Status
 157              		.cfi_endproc
 158              	.LFE66:
 159              		.size	checkSerialReceiverBusy, .-checkSerialReceiverBusy
 160              		.section	.text.M6850ReadData,"ax",%progbits
 161              		.align	2
 162              		.global	M6850ReadData
 163              		.thumb
 164              		.thumb_func
 165              		.type	M6850ReadData, %function
 166              	M6850ReadData:
 167              	.LFB67:
  74:Z80_6850_Emul.c **** 
  75:Z80_6850_Emul.c **** ///////////////////////////////////////////////////////////////////////////////
  76:Z80_6850_Emul.c **** // M6850ReadData(void)- Z80 is reading data from Serial Port
  77:Z80_6850_Emul.c **** 
  78:Z80_6850_Emul.c **** void M6850ReadData(void)
  79:Z80_6850_Emul.c **** {
 168              		.loc 1 79 0
 169              		.cfi_startproc
 170              		@ args = 0, pretend = 0, frame = 0
 171              		@ frame_needed = 0, uses_anonymous_args = 0
 172 0000 08B5     		push	{r3, lr}
 173              		.cfi_def_cfa_offset 8
 174              		.cfi_offset 3, -8
 175              		.cfi_offset 14, -4
  80:Z80_6850_Emul.c **** 	Z80_Data_In_Write(M6850_DataIn);
 176              		.loc 1 80 0
 177 0002 064B     		ldr	r3, .L18
 178 0004 1878     		ldrb	r0, [r3]	@ zero_extendqisi2
 179 0006 FFF7FEFF 		bl	Z80_Data_In_Write
 180              	.LVL6:
  81:Z80_6850_Emul.c **** 	M6850_Status &= 0xFE;                              // No Rx Character Available
 181              		.loc 1 81 0
 182 000a 054A     		ldr	r2, .L18+4
 183 000c 1378     		ldrb	r3, [r2]	@ zero_extendqisi2
 184 000e 03F0FE03 		and	r3, r3, #254
 185 0012 1370     		strb	r3, [r2]
  82:Z80_6850_Emul.c **** 	ackIO();
 186              		.loc 1 82 0
 187 0014 FFF7FEFF 		bl	ackIO
 188              	.LVL7:
 189 0018 08BD     		pop	{r3, pc}
 190              	.L19:
 191 001a 00BF     		.align	2
 192              	.L18:
 193 001c 00000000 		.word	M6850_DataIn
 194 0020 00000000 		.word	M6850_Status
 195              		.cfi_endproc
 196              	.LFE67:
 197              		.size	M6850ReadData, .-M6850ReadData
 198              		.section	.text.M6850WriteData,"ax",%progbits
 199              		.align	2
 200              		.global	M6850WriteData
 201              		.thumb
 202              		.thumb_func
ARM GAS  C:\Users\HPz420\AppData\Local\Temp\ccc7E3PY.s 			page 6


 203              		.type	M6850WriteData, %function
 204              	M6850WriteData:
 205              	.LFB68:
  83:Z80_6850_Emul.c **** }
  84:Z80_6850_Emul.c **** 
  85:Z80_6850_Emul.c **** ///////////////////////////////////////////////////////////////////////////////
  86:Z80_6850_Emul.c **** // void M6850WriteData(void) - Send a single byte from the Z80 to the USB
  87:Z80_6850_Emul.c **** 
  88:Z80_6850_Emul.c **** void M6850WriteData(void)
  89:Z80_6850_Emul.c **** {
 206              		.loc 1 89 0
 207              		.cfi_startproc
 208              		@ args = 0, pretend = 0, frame = 64
 209              		@ frame_needed = 0, uses_anonymous_args = 0
 210 0000 00B5     		push	{lr}
 211              		.cfi_def_cfa_offset 4
 212              		.cfi_offset 14, -4
 213 0002 91B0     		sub	sp, sp, #68
 214              		.cfi_def_cfa_offset 72
 215              	.L21:
  90:Z80_6850_Emul.c **** 	uint8 buffer[64];
  91:Z80_6850_Emul.c **** 	uint16 count = 1;
  92:Z80_6850_Emul.c **** 	while (0u == USBUART_CDCIsReady());
 216              		.loc 1 92 0 discriminator 1
 217 0004 FFF7FEFF 		bl	USBUART_CDCIsReady
 218              	.LVL8:
 219 0008 0028     		cmp	r0, #0
 220 000a FBD0     		beq	.L21
  93:Z80_6850_Emul.c **** 	buffer[0] = Z80_Data_Out_Read();
 221              		.loc 1 93 0
 222 000c FFF7FEFF 		bl	Z80_Data_Out_Read
 223              	.LVL9:
 224 0010 10AB     		add	r3, sp, #64
 225 0012 03F8400D 		strb	r0, [r3, #-64]!
  94:Z80_6850_Emul.c **** 	USBUART_PutData(buffer, count);
 226              		.loc 1 94 0
 227 0016 0121     		movs	r1, #1
 228 0018 1846     		mov	r0, r3
 229 001a FFF7FEFF 		bl	USBUART_PutData
 230              	.LVL10:
  95:Z80_6850_Emul.c **** 	ackIO();
 231              		.loc 1 95 0
 232 001e FFF7FEFF 		bl	ackIO
 233              	.LVL11:
  96:Z80_6850_Emul.c **** }
 234              		.loc 1 96 0
 235 0022 11B0     		add	sp, sp, #68
 236              		.cfi_def_cfa_offset 4
 237              		@ sp needed
 238 0024 5DF804FB 		ldr	pc, [sp], #4
 239              		.cfi_endproc
 240              	.LFE68:
 241              		.size	M6850WriteData, .-M6850WriteData
 242              		.section	.text.M6850ReadStatus,"ax",%progbits
 243              		.align	2
 244              		.global	M6850ReadStatus
 245              		.thumb
ARM GAS  C:\Users\HPz420\AppData\Local\Temp\ccc7E3PY.s 			page 7


 246              		.thumb_func
 247              		.type	M6850ReadStatus, %function
 248              	M6850ReadStatus:
 249              	.LFB69:
  97:Z80_6850_Emul.c **** 
  98:Z80_6850_Emul.c **** ///////////////////////////////////////////////////////////////////////////////
  99:Z80_6850_Emul.c **** // void M6850ReadStatus(void) - Read the Status registers
 100:Z80_6850_Emul.c **** 
 101:Z80_6850_Emul.c **** void M6850ReadStatus(void)
 102:Z80_6850_Emul.c **** {
 250              		.loc 1 102 0
 251              		.cfi_startproc
 252              		@ args = 0, pretend = 0, frame = 0
 253              		@ frame_needed = 0, uses_anonymous_args = 0
 254 0000 08B5     		push	{r3, lr}
 255              		.cfi_def_cfa_offset 8
 256              		.cfi_offset 3, -8
 257              		.cfi_offset 14, -4
 103:Z80_6850_Emul.c **** 	Z80_Data_In_Write(M6850_Status);
 258              		.loc 1 103 0
 259 0002 034B     		ldr	r3, .L25
 260 0004 1878     		ldrb	r0, [r3]	@ zero_extendqisi2
 261 0006 FFF7FEFF 		bl	Z80_Data_In_Write
 262              	.LVL12:
 104:Z80_6850_Emul.c **** 	ackIO();
 263              		.loc 1 104 0
 264 000a FFF7FEFF 		bl	ackIO
 265              	.LVL13:
 266 000e 08BD     		pop	{r3, pc}
 267              	.L26:
 268              		.align	2
 269              	.L25:
 270 0010 00000000 		.word	M6850_Status
 271              		.cfi_endproc
 272              	.LFE69:
 273              		.size	M6850ReadStatus, .-M6850ReadStatus
 274              		.section	.text.M6850WriteCtrl,"ax",%progbits
 275              		.align	2
 276              		.global	M6850WriteCtrl
 277              		.thumb
 278              		.thumb_func
 279              		.type	M6850WriteCtrl, %function
 280              	M6850WriteCtrl:
 281              	.LFB70:
 105:Z80_6850_Emul.c **** }
 106:Z80_6850_Emul.c **** 
 107:Z80_6850_Emul.c **** ///////////////////////////////////////////////////////////////////////////////
 108:Z80_6850_Emul.c **** // void M6850WriteCtrl(void) - Write to the SIO Port A control registers
 109:Z80_6850_Emul.c **** 
 110:Z80_6850_Emul.c **** void M6850WriteCtrl(void)
 111:Z80_6850_Emul.c **** {
 282              		.loc 1 111 0
 283              		.cfi_startproc
 284              		@ args = 0, pretend = 0, frame = 0
 285              		@ frame_needed = 0, uses_anonymous_args = 0
 286 0000 08B5     		push	{r3, lr}
 287              		.cfi_def_cfa_offset 8
ARM GAS  C:\Users\HPz420\AppData\Local\Temp\ccc7E3PY.s 			page 8


 288              		.cfi_offset 3, -8
 289              		.cfi_offset 14, -4
 112:Z80_6850_Emul.c **** 	M6850_Ctrl = Z80_Data_Out_Read();
 290              		.loc 1 112 0
 291 0002 FFF7FEFF 		bl	Z80_Data_Out_Read
 292              	.LVL14:
 293 0006 024B     		ldr	r3, .L29
 294 0008 1870     		strb	r0, [r3]
 113:Z80_6850_Emul.c **** 	// TBD - This is where the side effects of changing control codes are handled
 114:Z80_6850_Emul.c **** 	ackIO();
 295              		.loc 1 114 0
 296 000a FFF7FEFF 		bl	ackIO
 297              	.LVL15:
 298 000e 08BD     		pop	{r3, pc}
 299              	.L30:
 300              		.align	2
 301              	.L29:
 302 0010 00000000 		.word	M6850_Ctrl
 303              		.cfi_endproc
 304              	.LFE70:
 305              		.size	M6850WriteCtrl, .-M6850WriteCtrl
 306              		.comm	M6850_DataIn,1,1
 307              		.comm	M6850_DataOut,1,1
 308              		.comm	M6850_Status,1,1
 309              		.comm	M6850_Ctrl,1,1
 310              		.text
 311              	.Letext0:
 312              		.file 2 "c:\\program files (x86)\\cypress\\psoc creator\\4.2\\psoc creator\\import\\gnu\\arm\\5.4.
 313              		.file 3 "c:\\program files (x86)\\cypress\\psoc creator\\4.2\\psoc creator\\import\\gnu\\arm\\5.4.
 314              		.file 4 "Generated_Source\\PSoC5/cytypes.h"
 315              		.file 5 "Generated_Source\\PSoC5/core_cm3.h"
 316              		.file 6 "Generated_Source\\PSoC5/Z80_Data_In.h"
 317              		.file 7 "Generated_Source\\PSoC5/INT_n.h"
 318              		.file 8 "./Z80_IO_Handle.h"
 319              		.file 9 "Generated_Source\\PSoC5/USBUART_cdc.h"
 320              		.file 10 "Generated_Source\\PSoC5/Z80_Data_Out.h"