ARM GAS  C:\Users\HPz420\AppData\Local\Temp\ccfvmIQa.s 			page 1


   1              		.syntax unified
   2              		.cpu cortex-m3
   3              		.fpu softvfp
   4              		.eabi_attribute 20, 1
   5              		.eabi_attribute 21, 1
   6              		.eabi_attribute 23, 3
   7              		.eabi_attribute 24, 1
   8              		.eabi_attribute 25, 1
   9              		.eabi_attribute 26, 1
  10              		.eabi_attribute 30, 6
  11              		.eabi_attribute 34, 1
  12              		.eabi_attribute 18, 4
  13              		.thumb
  14              		.syntax unified
  15              		.file	"CyDmac.c"
  16              		.text
  17              	.Ltext0:
  18              		.cfi_sections	.debug_frame
  19              		.data
  20              		.type	CyDmaTdCurrentNumber, %object
  21              		.size	CyDmaTdCurrentNumber, 1
  22              	CyDmaTdCurrentNumber:
  23 0000 80       		.byte	-128
  24              		.type	CyDmaTdFreeIndex, %object
  25              		.size	CyDmaTdFreeIndex, 1
  26              	CyDmaTdFreeIndex:
  27 0001 7F       		.byte	127
  28              		.bss
  29              		.align	2
  30              	CyDmaChannels:
  31 0000 00000000 		.space	4
  32              		.section	.text.CyDmacConfigure,"ax",%progbits
  33              		.align	2
  34              		.global	CyDmacConfigure
  35              		.thumb
  36              		.thumb_func
  37              		.type	CyDmacConfigure, %function
  38              	CyDmacConfigure:
  39              	.LFB0:
  40              		.file 1 "Generated_Source\\PSoC5\\CyDmac.c"
   1:Generated_Source\PSoC5/CyDmac.c **** /***************************************************************************//**
   2:Generated_Source\PSoC5/CyDmac.c **** * \file CyDmac.c
   3:Generated_Source\PSoC5/CyDmac.c **** * \version 5.80
   4:Generated_Source\PSoC5/CyDmac.c **** *
   5:Generated_Source\PSoC5/CyDmac.c **** * \brief
   6:Generated_Source\PSoC5/CyDmac.c **** * Provides an API for the DMAC component. The API includes functions for the
   7:Generated_Source\PSoC5/CyDmac.c **** * DMA controller, DMA channels and Transfer Descriptors. This API is the library
   8:Generated_Source\PSoC5/CyDmac.c **** * version not the auto generated code that gets generated when the user places a
   9:Generated_Source\PSoC5/CyDmac.c **** * DMA component on the schematic.
  10:Generated_Source\PSoC5/CyDmac.c **** *
  11:Generated_Source\PSoC5/CyDmac.c **** * The auto generated code would use the APi's in this module.
  12:Generated_Source\PSoC5/CyDmac.c **** *
  13:Generated_Source\PSoC5/CyDmac.c **** * \note This code is endian agnostic.
  14:Generated_Source\PSoC5/CyDmac.c **** *
  15:Generated_Source\PSoC5/CyDmac.c **** * \note The Transfer Descriptor memory can be used as regular memory if the
  16:Generated_Source\PSoC5/CyDmac.c **** * TD's are not being used.
  17:Generated_Source\PSoC5/CyDmac.c **** *
ARM GAS  C:\Users\HPz420\AppData\Local\Temp\ccfvmIQa.s 			page 2


  18:Generated_Source\PSoC5/CyDmac.c **** * \note This code uses the first byte of each TD to manage the free list of
  19:Generated_Source\PSoC5/CyDmac.c **** * TD's. The user can overwrite this once the TD is allocated.
  20:Generated_Source\PSoC5/CyDmac.c **** *
  21:Generated_Source\PSoC5/CyDmac.c **** ********************************************************************************
  22:Generated_Source\PSoC5/CyDmac.c **** * \copyright
  23:Generated_Source\PSoC5/CyDmac.c **** * Copyright 2008-2018, Cypress Semiconductor Corporation.  All rights reserved.
  24:Generated_Source\PSoC5/CyDmac.c **** * You may use this file only in accordance with the license, terms, conditions,
  25:Generated_Source\PSoC5/CyDmac.c **** * disclaimers, and limitations in the end user license agreement accompanying
  26:Generated_Source\PSoC5/CyDmac.c **** * the software package with which this file was provided.
  27:Generated_Source\PSoC5/CyDmac.c **** *******************************************************************************/
  28:Generated_Source\PSoC5/CyDmac.c **** 
  29:Generated_Source\PSoC5/CyDmac.c **** #include "CyDmac.h"
  30:Generated_Source\PSoC5/CyDmac.c **** 
  31:Generated_Source\PSoC5/CyDmac.c **** 
  32:Generated_Source\PSoC5/CyDmac.c **** /*******************************************************************************
  33:Generated_Source\PSoC5/CyDmac.c **** * The following variables are initialized from CyDmacConfigure() function that
  34:Generated_Source\PSoC5/CyDmac.c **** * is executed from initialize_psoc() at the early initialization stage.
  35:Generated_Source\PSoC5/CyDmac.c **** * In case of IAR EW IDE, initialize_psoc() is executed before the data sections
  36:Generated_Source\PSoC5/CyDmac.c **** * are initialized. To avoid zeroing, these variables should be initialized
  37:Generated_Source\PSoC5/CyDmac.c **** * properly during segments initialization as well.
  38:Generated_Source\PSoC5/CyDmac.c **** *******************************************************************************/
  39:Generated_Source\PSoC5/CyDmac.c **** static uint8  CyDmaTdCurrentNumber = CY_DMA_NUMBEROF_TDS;           /* Current Number of free eleme
  40:Generated_Source\PSoC5/CyDmac.c **** static uint8  CyDmaTdFreeIndex = (uint8)(CY_DMA_NUMBEROF_TDS - 1u); /* Index of first available TD 
  41:Generated_Source\PSoC5/CyDmac.c **** static uint32 CyDmaChannels = DMA_CHANNELS_USED__MASK0;              /* Bit map of DMA channel owne
  42:Generated_Source\PSoC5/CyDmac.c **** 
  43:Generated_Source\PSoC5/CyDmac.c **** 
  44:Generated_Source\PSoC5/CyDmac.c **** /*******************************************************************************
  45:Generated_Source\PSoC5/CyDmac.c **** * Function Name: CyDmacConfigure
  46:Generated_Source\PSoC5/CyDmac.c **** ****************************************************************************//**
  47:Generated_Source\PSoC5/CyDmac.c **** *
  48:Generated_Source\PSoC5/CyDmac.c **** * Creates a linked list of all the TDs to be allocated. This function is called
  49:Generated_Source\PSoC5/CyDmac.c **** * by the startup code; you do not normally need to call it. You can call this
  50:Generated_Source\PSoC5/CyDmac.c **** * function if all of the DMA channels are inactive.
  51:Generated_Source\PSoC5/CyDmac.c **** *
  52:Generated_Source\PSoC5/CyDmac.c **** *******************************************************************************/
  53:Generated_Source\PSoC5/CyDmac.c **** void CyDmacConfigure(void) 
  54:Generated_Source\PSoC5/CyDmac.c **** {
  41              		.loc 1 54 0
  42              		.cfi_startproc
  43              		@ args = 0, pretend = 0, frame = 8
  44              		@ frame_needed = 1, uses_anonymous_args = 0
  45              		@ link register save eliminated.
  46 0000 80B4     		push	{r7}
  47              		.cfi_def_cfa_offset 4
  48              		.cfi_offset 7, -4
  49 0002 83B0     		sub	sp, sp, #12
  50              		.cfi_def_cfa_offset 16
  51 0004 00AF     		add	r7, sp, #0
  52              		.cfi_def_cfa_register 7
  55:Generated_Source\PSoC5/CyDmac.c ****     uint8 dmaIndex;
  56:Generated_Source\PSoC5/CyDmac.c **** 
  57:Generated_Source\PSoC5/CyDmac.c ****     /* Set TD list variables. */
  58:Generated_Source\PSoC5/CyDmac.c ****     CyDmaTdFreeIndex     = (uint8)(CY_DMA_NUMBEROF_TDS - 1u);
  53              		.loc 1 58 0
  54 0006 134B     		ldr	r3, .L4
  55 0008 7F22     		movs	r2, #127
  56 000a 1A70     		strb	r2, [r3]
ARM GAS  C:\Users\HPz420\AppData\Local\Temp\ccfvmIQa.s 			page 3


  59:Generated_Source\PSoC5/CyDmac.c ****     CyDmaTdCurrentNumber = CY_DMA_NUMBEROF_TDS;
  57              		.loc 1 59 0
  58 000c 124B     		ldr	r3, .L4+4
  59 000e 8022     		movs	r2, #128
  60 0010 1A70     		strb	r2, [r3]
  60:Generated_Source\PSoC5/CyDmac.c **** 
  61:Generated_Source\PSoC5/CyDmac.c ****     /* Make TD free list. */
  62:Generated_Source\PSoC5/CyDmac.c ****     for(dmaIndex = (uint8)(CY_DMA_NUMBEROF_TDS - 1u); dmaIndex != 0u; dmaIndex--)
  61              		.loc 1 62 0
  62 0012 7F23     		movs	r3, #127
  63 0014 FB71     		strb	r3, [r7, #7]
  64 0016 0CE0     		b	.L2
  65              	.L3:
  63:Generated_Source\PSoC5/CyDmac.c ****     {
  64:Generated_Source\PSoC5/CyDmac.c ****         CY_DMA_TDMEM_STRUCT_PTR[dmaIndex].TD0[0u] = (uint8)(dmaIndex - 1u);
  66              		.loc 1 64 0 discriminator 3
  67 0018 FB79     		ldrb	r3, [r7, #7]	@ zero_extendqisi2
  68 001a DB00     		lsls	r3, r3, #3
  69 001c 03F18043 		add	r3, r3, #1073741824
  70 0020 03F5F043 		add	r3, r3, #30720
  71 0024 FA79     		ldrb	r2, [r7, #7]
  72 0026 013A     		subs	r2, r2, #1
  73 0028 D2B2     		uxtb	r2, r2
  74 002a 1A70     		strb	r2, [r3]
  62:Generated_Source\PSoC5/CyDmac.c ****     {
  75              		.loc 1 62 0 discriminator 3
  76 002c FB79     		ldrb	r3, [r7, #7]	@ zero_extendqisi2
  77 002e 013B     		subs	r3, r3, #1
  78 0030 FB71     		strb	r3, [r7, #7]
  79              	.L2:
  62:Generated_Source\PSoC5/CyDmac.c ****     {
  80              		.loc 1 62 0 is_stmt 0 discriminator 1
  81 0032 FB79     		ldrb	r3, [r7, #7]	@ zero_extendqisi2
  82 0034 002B     		cmp	r3, #0
  83 0036 EFD1     		bne	.L3
  65:Generated_Source\PSoC5/CyDmac.c ****     }
  66:Generated_Source\PSoC5/CyDmac.c **** 
  67:Generated_Source\PSoC5/CyDmac.c ****     /* Make last one point to zero. */
  68:Generated_Source\PSoC5/CyDmac.c ****     CY_DMA_TDMEM_STRUCT_PTR[dmaIndex].TD0[0u] = 0u;
  84              		.loc 1 68 0 is_stmt 1
  85 0038 FB79     		ldrb	r3, [r7, #7]	@ zero_extendqisi2
  86 003a DB00     		lsls	r3, r3, #3
  87 003c 03F18043 		add	r3, r3, #1073741824
  88 0040 03F5F043 		add	r3, r3, #30720
  89 0044 0022     		movs	r2, #0
  90 0046 1A70     		strb	r2, [r3]
  69:Generated_Source\PSoC5/CyDmac.c **** }
  91              		.loc 1 69 0
  92 0048 00BF     		nop
  93 004a 0C37     		adds	r7, r7, #12
  94              		.cfi_def_cfa_offset 4
  95 004c BD46     		mov	sp, r7
  96              		.cfi_def_cfa_register 13
  97              		@ sp needed
  98 004e 80BC     		pop	{r7}
  99              		.cfi_restore 7
 100              		.cfi_def_cfa_offset 0
ARM GAS  C:\Users\HPz420\AppData\Local\Temp\ccfvmIQa.s 			page 4


 101 0050 7047     		bx	lr
 102              	.L5:
 103 0052 00BF     		.align	2
 104              	.L4:
 105 0054 01000000 		.word	CyDmaTdFreeIndex
 106 0058 00000000 		.word	CyDmaTdCurrentNumber
 107              		.cfi_endproc
 108              	.LFE0:
 109              		.size	CyDmacConfigure, .-CyDmacConfigure
 110              		.section	.text.CyDmacError,"ax",%progbits
 111              		.align	2
 112              		.global	CyDmacError
 113              		.thumb
 114              		.thumb_func
 115              		.type	CyDmacError, %function
 116              	CyDmacError:
 117              	.LFB1:
  70:Generated_Source\PSoC5/CyDmac.c **** 
  71:Generated_Source\PSoC5/CyDmac.c **** 
  72:Generated_Source\PSoC5/CyDmac.c **** /*******************************************************************************
  73:Generated_Source\PSoC5/CyDmac.c **** * Function Name: CyDmacError
  74:Generated_Source\PSoC5/CyDmac.c **** ****************************************************************************//**
  75:Generated_Source\PSoC5/CyDmac.c **** *
  76:Generated_Source\PSoC5/CyDmac.c **** *  Returns errors of the last failed DMA transaction.
  77:Generated_Source\PSoC5/CyDmac.c **** *
  78:Generated_Source\PSoC5/CyDmac.c **** * \return Errors of the last failed DMA transaction.
  79:Generated_Source\PSoC5/CyDmac.c **** *
  80:Generated_Source\PSoC5/CyDmac.c **** *  DMAC_PERIPH_ERR:
  81:Generated_Source\PSoC5/CyDmac.c **** *   Set to 1 when a peripheral responds to a bus transaction with an error
  82:Generated_Source\PSoC5/CyDmac.c **** *   response.
  83:Generated_Source\PSoC5/CyDmac.c **** *
  84:Generated_Source\PSoC5/CyDmac.c **** *  DMAC_UNPOP_ACC:
  85:Generated_Source\PSoC5/CyDmac.c **** *   Set to 1 when an access is attempted to an invalid address.
  86:Generated_Source\PSoC5/CyDmac.c **** *
  87:Generated_Source\PSoC5/CyDmac.c **** *  DMAC_BUS_TIMEOUT:
  88:Generated_Source\PSoC5/CyDmac.c **** *   Set to 1 when a bus timeout occurs. Cleared by writing a 1. Timeout values
  89:Generated_Source\PSoC5/CyDmac.c **** *   are determined by the BUS_TIMEOUT field in the PHUBCFG register.
  90:Generated_Source\PSoC5/CyDmac.c **** *
  91:Generated_Source\PSoC5/CyDmac.c **** * Theory:
  92:Generated_Source\PSoC5/CyDmac.c **** *  Once an error occurs the error bits are sticky and are only cleared by
  93:Generated_Source\PSoC5/CyDmac.c **** *  writing 1 to the error register.
  94:Generated_Source\PSoC5/CyDmac.c **** *
  95:Generated_Source\PSoC5/CyDmac.c **** *******************************************************************************/
  96:Generated_Source\PSoC5/CyDmac.c **** uint8 CyDmacError(void) 
  97:Generated_Source\PSoC5/CyDmac.c **** {
 118              		.loc 1 97 0
 119              		.cfi_startproc
 120              		@ args = 0, pretend = 0, frame = 0
 121              		@ frame_needed = 1, uses_anonymous_args = 0
 122              		@ link register save eliminated.
 123 0000 80B4     		push	{r7}
 124              		.cfi_def_cfa_offset 4
 125              		.cfi_offset 7, -4
 126 0002 00AF     		add	r7, sp, #0
 127              		.cfi_def_cfa_register 7
  98:Generated_Source\PSoC5/CyDmac.c ****     return((uint8)(((uint32) 0x0Eu) & *CY_DMA_ERR_PTR));
 128              		.loc 1 98 0
ARM GAS  C:\Users\HPz420\AppData\Local\Temp\ccfvmIQa.s 			page 5


 129 0004 044B     		ldr	r3, .L8
 130 0006 1B68     		ldr	r3, [r3]
 131 0008 DBB2     		uxtb	r3, r3
 132 000a 03F00E03 		and	r3, r3, #14
 133 000e DBB2     		uxtb	r3, r3
  99:Generated_Source\PSoC5/CyDmac.c **** }
 134              		.loc 1 99 0
 135 0010 1846     		mov	r0, r3
 136 0012 BD46     		mov	sp, r7
 137              		.cfi_def_cfa_register 13
 138              		@ sp needed
 139 0014 80BC     		pop	{r7}
 140              		.cfi_restore 7
 141              		.cfi_def_cfa_offset 0
 142 0016 7047     		bx	lr
 143              	.L9:
 144              		.align	2
 145              	.L8:
 146 0018 04700040 		.word	1073770500
 147              		.cfi_endproc
 148              	.LFE1:
 149              		.size	CyDmacError, .-CyDmacError
 150              		.section	.text.CyDmacClearError,"ax",%progbits
 151              		.align	2
 152              		.global	CyDmacClearError
 153              		.thumb
 154              		.thumb_func
 155              		.type	CyDmacClearError, %function
 156              	CyDmacClearError:
 157              	.LFB2:
 100:Generated_Source\PSoC5/CyDmac.c **** 
 101:Generated_Source\PSoC5/CyDmac.c **** 
 102:Generated_Source\PSoC5/CyDmac.c **** /*******************************************************************************
 103:Generated_Source\PSoC5/CyDmac.c **** * Function Name: CyDmacClearError
 104:Generated_Source\PSoC5/CyDmac.c **** ****************************************************************************//**
 105:Generated_Source\PSoC5/CyDmac.c **** *
 106:Generated_Source\PSoC5/CyDmac.c **** *  Clears the error bits in the error register of the DMAC.
 107:Generated_Source\PSoC5/CyDmac.c **** *
 108:Generated_Source\PSoC5/CyDmac.c **** * \param error:
 109:Generated_Source\PSoC5/CyDmac.c **** *   Clears the error bits in the DMAC error register.
 110:Generated_Source\PSoC5/CyDmac.c **** *
 111:Generated_Source\PSoC5/CyDmac.c **** *  \param DMAC_PERIPH_ERR:
 112:Generated_Source\PSoC5/CyDmac.c **** *   Set to 1 when a peripheral responds to a bus transaction with an error
 113:Generated_Source\PSoC5/CyDmac.c **** *   response.
 114:Generated_Source\PSoC5/CyDmac.c **** *
 115:Generated_Source\PSoC5/CyDmac.c **** *  \param DMAC_UNPOP_ACC:
 116:Generated_Source\PSoC5/CyDmac.c **** *   Set to 1 when an access is attempted to an invalid address.
 117:Generated_Source\PSoC5/CyDmac.c **** *
 118:Generated_Source\PSoC5/CyDmac.c **** *  \param DMAC_BUS_TIMEOUT:
 119:Generated_Source\PSoC5/CyDmac.c **** *   Set to 1 when a bus timeout occurs. Cleared by writing 1. Timeout values
 120:Generated_Source\PSoC5/CyDmac.c **** *   are determined by the BUS_TIMEOUT field in the PHUBCFG register.
 121:Generated_Source\PSoC5/CyDmac.c **** *
 122:Generated_Source\PSoC5/CyDmac.c **** * Theory:
 123:Generated_Source\PSoC5/CyDmac.c **** *  Once an error occurs the error bits are sticky and are only cleared by
 124:Generated_Source\PSoC5/CyDmac.c **** *  writing 1 to the error register.
 125:Generated_Source\PSoC5/CyDmac.c **** *
 126:Generated_Source\PSoC5/CyDmac.c **** *******************************************************************************/
ARM GAS  C:\Users\HPz420\AppData\Local\Temp\ccfvmIQa.s 			page 6


 127:Generated_Source\PSoC5/CyDmac.c **** void CyDmacClearError(uint8 error) 
 128:Generated_Source\PSoC5/CyDmac.c **** {
 158              		.loc 1 128 0
 159              		.cfi_startproc
 160              		@ args = 0, pretend = 0, frame = 8
 161              		@ frame_needed = 1, uses_anonymous_args = 0
 162              		@ link register save eliminated.
 163 0000 80B4     		push	{r7}
 164              		.cfi_def_cfa_offset 4
 165              		.cfi_offset 7, -4
 166 0002 83B0     		sub	sp, sp, #12
 167              		.cfi_def_cfa_offset 16
 168 0004 00AF     		add	r7, sp, #0
 169              		.cfi_def_cfa_register 7
 170 0006 0346     		mov	r3, r0
 171 0008 FB71     		strb	r3, [r7, #7]
 129:Generated_Source\PSoC5/CyDmac.c ****     *CY_DMA_ERR_PTR = (((uint32)0x0Fu) & ((uint32)error));
 172              		.loc 1 129 0
 173 000a 054A     		ldr	r2, .L11
 174 000c FB79     		ldrb	r3, [r7, #7]	@ zero_extendqisi2
 175 000e 03F00F03 		and	r3, r3, #15
 176 0012 1360     		str	r3, [r2]
 130:Generated_Source\PSoC5/CyDmac.c **** }
 177              		.loc 1 130 0
 178 0014 00BF     		nop
 179 0016 0C37     		adds	r7, r7, #12
 180              		.cfi_def_cfa_offset 4
 181 0018 BD46     		mov	sp, r7
 182              		.cfi_def_cfa_register 13
 183              		@ sp needed
 184 001a 80BC     		pop	{r7}
 185              		.cfi_restore 7
 186              		.cfi_def_cfa_offset 0
 187 001c 7047     		bx	lr
 188              	.L12:
 189 001e 00BF     		.align	2
 190              	.L11:
 191 0020 04700040 		.word	1073770500
 192              		.cfi_endproc
 193              	.LFE2:
 194              		.size	CyDmacClearError, .-CyDmacClearError
 195              		.section	.text.CyDmacErrorAddress,"ax",%progbits
 196              		.align	2
 197              		.global	CyDmacErrorAddress
 198              		.thumb
 199              		.thumb_func
 200              		.type	CyDmacErrorAddress, %function
 201              	CyDmacErrorAddress:
 202              	.LFB3:
 131:Generated_Source\PSoC5/CyDmac.c **** 
 132:Generated_Source\PSoC5/CyDmac.c **** 
 133:Generated_Source\PSoC5/CyDmac.c **** /*******************************************************************************
 134:Generated_Source\PSoC5/CyDmac.c **** * Function Name: CyDmacErrorAddress
 135:Generated_Source\PSoC5/CyDmac.c **** ****************************************************************************//**
 136:Generated_Source\PSoC5/CyDmac.c **** *
 137:Generated_Source\PSoC5/CyDmac.c **** *  When DMAC_BUS_TIMEOUT, DMAC_UNPOP_ACC, and DMAC_PERIPH_ERR occur the
 138:Generated_Source\PSoC5/CyDmac.c **** *  address of the error is written to the error address register and can be read
ARM GAS  C:\Users\HPz420\AppData\Local\Temp\ccfvmIQa.s 			page 7


 139:Generated_Source\PSoC5/CyDmac.c **** *  with this function.
 140:Generated_Source\PSoC5/CyDmac.c **** *
 141:Generated_Source\PSoC5/CyDmac.c **** *  If there are multiple errors, only the address of the first is saved.
 142:Generated_Source\PSoC5/CyDmac.c **** *
 143:Generated_Source\PSoC5/CyDmac.c **** * \return The address that caused the error.
 144:Generated_Source\PSoC5/CyDmac.c **** *
 145:Generated_Source\PSoC5/CyDmac.c **** *******************************************************************************/
 146:Generated_Source\PSoC5/CyDmac.c **** uint32 CyDmacErrorAddress(void) 
 147:Generated_Source\PSoC5/CyDmac.c **** {
 203              		.loc 1 147 0
 204              		.cfi_startproc
 205              		@ args = 0, pretend = 0, frame = 0
 206              		@ frame_needed = 1, uses_anonymous_args = 0
 207              		@ link register save eliminated.
 208 0000 80B4     		push	{r7}
 209              		.cfi_def_cfa_offset 4
 210              		.cfi_offset 7, -4
 211 0002 00AF     		add	r7, sp, #0
 212              		.cfi_def_cfa_register 7
 148:Generated_Source\PSoC5/CyDmac.c ****     return(CY_GET_REG32(CY_DMA_ERR_ADR_PTR));
 213              		.loc 1 148 0
 214 0004 024B     		ldr	r3, .L15
 215 0006 1B68     		ldr	r3, [r3]
 149:Generated_Source\PSoC5/CyDmac.c **** }
 216              		.loc 1 149 0
 217 0008 1846     		mov	r0, r3
 218 000a BD46     		mov	sp, r7
 219              		.cfi_def_cfa_register 13
 220              		@ sp needed
 221 000c 80BC     		pop	{r7}
 222              		.cfi_restore 7
 223              		.cfi_def_cfa_offset 0
 224 000e 7047     		bx	lr
 225              	.L16:
 226              		.align	2
 227              	.L15:
 228 0010 08700040 		.word	1073770504
 229              		.cfi_endproc
 230              	.LFE3:
 231              		.size	CyDmacErrorAddress, .-CyDmacErrorAddress
 232              		.section	.text.CyDmaChAlloc,"ax",%progbits
 233              		.align	2
 234              		.global	CyDmaChAlloc
 235              		.thumb
 236              		.thumb_func
 237              		.type	CyDmaChAlloc, %function
 238              	CyDmaChAlloc:
 239              	.LFB4:
 150:Generated_Source\PSoC5/CyDmac.c **** 
 151:Generated_Source\PSoC5/CyDmac.c **** 
 152:Generated_Source\PSoC5/CyDmac.c **** /*******************************************************************************
 153:Generated_Source\PSoC5/CyDmac.c **** * Function Name: CyDmaChAlloc
 154:Generated_Source\PSoC5/CyDmac.c **** ****************************************************************************//**
 155:Generated_Source\PSoC5/CyDmac.c **** *
 156:Generated_Source\PSoC5/CyDmac.c **** *  Allocates a channel from the DMAC to be used in all functions that require a
 157:Generated_Source\PSoC5/CyDmac.c **** *  channel handle.
 158:Generated_Source\PSoC5/CyDmac.c **** *
ARM GAS  C:\Users\HPz420\AppData\Local\Temp\ccfvmIQa.s 			page 8


 159:Generated_Source\PSoC5/CyDmac.c **** * \return The allocated channel number. Zero is a valid channel number.
 160:Generated_Source\PSoC5/CyDmac.c **** *  DMA_INVALID_CHANNEL is returned if there are no channels available.
 161:Generated_Source\PSoC5/CyDmac.c **** *
 162:Generated_Source\PSoC5/CyDmac.c **** *******************************************************************************/
 163:Generated_Source\PSoC5/CyDmac.c **** uint8 CyDmaChAlloc(void) 
 164:Generated_Source\PSoC5/CyDmac.c **** {
 240              		.loc 1 164 0
 241              		.cfi_startproc
 242              		@ args = 0, pretend = 0, frame = 16
 243              		@ frame_needed = 1, uses_anonymous_args = 0
 244 0000 80B5     		push	{r7, lr}
 245              		.cfi_def_cfa_offset 8
 246              		.cfi_offset 7, -8
 247              		.cfi_offset 14, -4
 248 0002 84B0     		sub	sp, sp, #16
 249              		.cfi_def_cfa_offset 24
 250 0004 00AF     		add	r7, sp, #0
 251              		.cfi_def_cfa_register 7
 165:Generated_Source\PSoC5/CyDmac.c ****     uint8 interruptState;
 166:Generated_Source\PSoC5/CyDmac.c ****     uint8 dmaIndex;
 167:Generated_Source\PSoC5/CyDmac.c ****     uint32 channel = 1u;
 252              		.loc 1 167 0
 253 0006 0123     		movs	r3, #1
 254 0008 BB60     		str	r3, [r7, #8]
 168:Generated_Source\PSoC5/CyDmac.c **** 
 169:Generated_Source\PSoC5/CyDmac.c **** 
 170:Generated_Source\PSoC5/CyDmac.c ****     /* Enter critical section! */
 171:Generated_Source\PSoC5/CyDmac.c ****     interruptState = CyEnterCriticalSection();
 255              		.loc 1 171 0
 256 000a FFF7FEFF 		bl	CyEnterCriticalSection
 257 000e 0346     		mov	r3, r0
 258 0010 FB71     		strb	r3, [r7, #7]
 172:Generated_Source\PSoC5/CyDmac.c **** 
 173:Generated_Source\PSoC5/CyDmac.c ****     /* Look for free channel. */
 174:Generated_Source\PSoC5/CyDmac.c ****     for(dmaIndex = 0u; dmaIndex < CY_DMA_NUMBEROF_CHANNELS; dmaIndex++)
 259              		.loc 1 174 0
 260 0012 0023     		movs	r3, #0
 261 0014 FB73     		strb	r3, [r7, #15]
 262 0016 12E0     		b	.L18
 263              	.L21:
 175:Generated_Source\PSoC5/CyDmac.c ****     {
 176:Generated_Source\PSoC5/CyDmac.c ****         if(0uL == (CyDmaChannels & channel))
 264              		.loc 1 176 0
 265 0018 114B     		ldr	r3, .L24
 266 001a 1A68     		ldr	r2, [r3]
 267 001c BB68     		ldr	r3, [r7, #8]
 268 001e 1340     		ands	r3, r3, r2
 269 0020 002B     		cmp	r3, #0
 270 0022 06D1     		bne	.L19
 177:Generated_Source\PSoC5/CyDmac.c ****         {
 178:Generated_Source\PSoC5/CyDmac.c ****             /* Mark channel as used. */
 179:Generated_Source\PSoC5/CyDmac.c ****             CyDmaChannels |= channel;
 271              		.loc 1 179 0
 272 0024 0E4B     		ldr	r3, .L24
 273 0026 1A68     		ldr	r2, [r3]
 274 0028 BB68     		ldr	r3, [r7, #8]
 275 002a 1343     		orrs	r3, r3, r2
ARM GAS  C:\Users\HPz420\AppData\Local\Temp\ccfvmIQa.s 			page 9


 276 002c 0C4A     		ldr	r2, .L24
 277 002e 1360     		str	r3, [r2]
 180:Generated_Source\PSoC5/CyDmac.c ****             break;
 278              		.loc 1 180 0
 279 0030 08E0     		b	.L20
 280              	.L19:
 181:Generated_Source\PSoC5/CyDmac.c ****         }
 182:Generated_Source\PSoC5/CyDmac.c **** 
 183:Generated_Source\PSoC5/CyDmac.c ****         channel <<= 1u;
 281              		.loc 1 183 0 discriminator 2
 282 0032 BB68     		ldr	r3, [r7, #8]
 283 0034 5B00     		lsls	r3, r3, #1
 284 0036 BB60     		str	r3, [r7, #8]
 174:Generated_Source\PSoC5/CyDmac.c ****     {
 285              		.loc 1 174 0 discriminator 2
 286 0038 FB7B     		ldrb	r3, [r7, #15]	@ zero_extendqisi2
 287 003a 0133     		adds	r3, r3, #1
 288 003c FB73     		strb	r3, [r7, #15]
 289              	.L18:
 174:Generated_Source\PSoC5/CyDmac.c ****     {
 290              		.loc 1 174 0 is_stmt 0 discriminator 1
 291 003e FB7B     		ldrb	r3, [r7, #15]	@ zero_extendqisi2
 292 0040 172B     		cmp	r3, #23
 293 0042 E9D9     		bls	.L21
 294              	.L20:
 184:Generated_Source\PSoC5/CyDmac.c ****     }
 185:Generated_Source\PSoC5/CyDmac.c **** 
 186:Generated_Source\PSoC5/CyDmac.c ****     if(dmaIndex >= CY_DMA_NUMBEROF_CHANNELS)
 295              		.loc 1 186 0 is_stmt 1
 296 0044 FB7B     		ldrb	r3, [r7, #15]	@ zero_extendqisi2
 297 0046 172B     		cmp	r3, #23
 298 0048 01D9     		bls	.L22
 187:Generated_Source\PSoC5/CyDmac.c ****     {
 188:Generated_Source\PSoC5/CyDmac.c ****         dmaIndex = CY_DMA_INVALID_CHANNEL;
 299              		.loc 1 188 0
 300 004a FF23     		movs	r3, #255
 301 004c FB73     		strb	r3, [r7, #15]
 302              	.L22:
 189:Generated_Source\PSoC5/CyDmac.c ****     }
 190:Generated_Source\PSoC5/CyDmac.c **** 
 191:Generated_Source\PSoC5/CyDmac.c ****     /* Exit critical section! */
 192:Generated_Source\PSoC5/CyDmac.c ****     CyExitCriticalSection(interruptState);
 303              		.loc 1 192 0
 304 004e FB79     		ldrb	r3, [r7, #7]	@ zero_extendqisi2
 305 0050 1846     		mov	r0, r3
 306 0052 FFF7FEFF 		bl	CyExitCriticalSection
 193:Generated_Source\PSoC5/CyDmac.c **** 
 194:Generated_Source\PSoC5/CyDmac.c ****     return(dmaIndex);
 307              		.loc 1 194 0
 308 0056 FB7B     		ldrb	r3, [r7, #15]	@ zero_extendqisi2
 195:Generated_Source\PSoC5/CyDmac.c **** }
 309              		.loc 1 195 0
 310 0058 1846     		mov	r0, r3
 311 005a 1037     		adds	r7, r7, #16
 312              		.cfi_def_cfa_offset 8
 313 005c BD46     		mov	sp, r7
 314              		.cfi_def_cfa_register 13
ARM GAS  C:\Users\HPz420\AppData\Local\Temp\ccfvmIQa.s 			page 10


 315              		@ sp needed
 316 005e 80BD     		pop	{r7, pc}
 317              	.L25:
 318              		.align	2
 319              	.L24:
 320 0060 00000000 		.word	CyDmaChannels
 321              		.cfi_endproc
 322              	.LFE4:
 323              		.size	CyDmaChAlloc, .-CyDmaChAlloc
 324              		.section	.text.CyDmaChFree,"ax",%progbits
 325              		.align	2
 326              		.global	CyDmaChFree
 327              		.thumb
 328              		.thumb_func
 329              		.type	CyDmaChFree, %function
 330              	CyDmaChFree:
 331              	.LFB5:
 196:Generated_Source\PSoC5/CyDmac.c **** 
 197:Generated_Source\PSoC5/CyDmac.c **** 
 198:Generated_Source\PSoC5/CyDmac.c **** /*******************************************************************************
 199:Generated_Source\PSoC5/CyDmac.c **** * Function Name: CyDmaChFree
 200:Generated_Source\PSoC5/CyDmac.c **** ****************************************************************************//**
 201:Generated_Source\PSoC5/CyDmac.c **** *
 202:Generated_Source\PSoC5/CyDmac.c **** * Frees a channel allocated by \ref DmaChAlloc().
 203:Generated_Source\PSoC5/CyDmac.c **** *
 204:Generated_Source\PSoC5/CyDmac.c **** * \param chHandle The handle previously returned by \ref CyDmaChAlloc() or \ref
 205:Generated_Source\PSoC5/CyDmac.c **** * DMA_DmaInitalize().
 206:Generated_Source\PSoC5/CyDmac.c **** *
 207:Generated_Source\PSoC5/CyDmac.c **** * \return CYRET_SUCCESS if successful.
 208:Generated_Source\PSoC5/CyDmac.c **** * \return CYRET_BAD_PARAM if chHandle is invalid.
 209:Generated_Source\PSoC5/CyDmac.c **** *
 210:Generated_Source\PSoC5/CyDmac.c **** *******************************************************************************/
 211:Generated_Source\PSoC5/CyDmac.c **** cystatus CyDmaChFree(uint8 chHandle) 
 212:Generated_Source\PSoC5/CyDmac.c **** {
 332              		.loc 1 212 0
 333              		.cfi_startproc
 334              		@ args = 0, pretend = 0, frame = 16
 335              		@ frame_needed = 1, uses_anonymous_args = 0
 336 0000 80B5     		push	{r7, lr}
 337              		.cfi_def_cfa_offset 8
 338              		.cfi_offset 7, -8
 339              		.cfi_offset 14, -4
 340 0002 84B0     		sub	sp, sp, #16
 341              		.cfi_def_cfa_offset 24
 342 0004 00AF     		add	r7, sp, #0
 343              		.cfi_def_cfa_register 7
 344 0006 0346     		mov	r3, r0
 345 0008 FB71     		strb	r3, [r7, #7]
 213:Generated_Source\PSoC5/CyDmac.c ****     cystatus status = CYRET_BAD_PARAM;
 346              		.loc 1 213 0
 347 000a 0123     		movs	r3, #1
 348 000c FB60     		str	r3, [r7, #12]
 214:Generated_Source\PSoC5/CyDmac.c ****     uint8 interruptState;
 215:Generated_Source\PSoC5/CyDmac.c **** 
 216:Generated_Source\PSoC5/CyDmac.c ****     if(chHandle < CY_DMA_NUMBEROF_CHANNELS)
 349              		.loc 1 216 0
 350 000e FB79     		ldrb	r3, [r7, #7]	@ zero_extendqisi2
ARM GAS  C:\Users\HPz420\AppData\Local\Temp\ccfvmIQa.s 			page 11


 351 0010 172B     		cmp	r3, #23
 352 0012 13D8     		bhi	.L27
 217:Generated_Source\PSoC5/CyDmac.c ****     {
 218:Generated_Source\PSoC5/CyDmac.c ****         /* Enter critical section */
 219:Generated_Source\PSoC5/CyDmac.c ****         interruptState = CyEnterCriticalSection();
 353              		.loc 1 219 0
 354 0014 FFF7FEFF 		bl	CyEnterCriticalSection
 355 0018 0346     		mov	r3, r0
 356 001a FB72     		strb	r3, [r7, #11]
 220:Generated_Source\PSoC5/CyDmac.c **** 
 221:Generated_Source\PSoC5/CyDmac.c ****         /* Clear bit mask that keeps track of ownership. */
 222:Generated_Source\PSoC5/CyDmac.c ****         CyDmaChannels &= ~(((uint32) 1u) << chHandle);
 357              		.loc 1 222 0
 358 001c FB79     		ldrb	r3, [r7, #7]	@ zero_extendqisi2
 359 001e 0122     		movs	r2, #1
 360 0020 02FA03F3 		lsl	r3, r2, r3
 361 0024 DA43     		mvns	r2, r3
 362 0026 084B     		ldr	r3, .L29
 363 0028 1B68     		ldr	r3, [r3]
 364 002a 1340     		ands	r3, r3, r2
 365 002c 064A     		ldr	r2, .L29
 366 002e 1360     		str	r3, [r2]
 223:Generated_Source\PSoC5/CyDmac.c **** 
 224:Generated_Source\PSoC5/CyDmac.c ****         /* Exit critical section */
 225:Generated_Source\PSoC5/CyDmac.c ****         CyExitCriticalSection(interruptState);
 367              		.loc 1 225 0
 368 0030 FB7A     		ldrb	r3, [r7, #11]	@ zero_extendqisi2
 369 0032 1846     		mov	r0, r3
 370 0034 FFF7FEFF 		bl	CyExitCriticalSection
 226:Generated_Source\PSoC5/CyDmac.c ****         status = CYRET_SUCCESS;
 371              		.loc 1 226 0
 372 0038 0023     		movs	r3, #0
 373 003a FB60     		str	r3, [r7, #12]
 374              	.L27:
 227:Generated_Source\PSoC5/CyDmac.c ****     }
 228:Generated_Source\PSoC5/CyDmac.c **** 
 229:Generated_Source\PSoC5/CyDmac.c ****     return(status);
 375              		.loc 1 229 0
 376 003c FB68     		ldr	r3, [r7, #12]
 230:Generated_Source\PSoC5/CyDmac.c **** }
 377              		.loc 1 230 0
 378 003e 1846     		mov	r0, r3
 379 0040 1037     		adds	r7, r7, #16
 380              		.cfi_def_cfa_offset 8
 381 0042 BD46     		mov	sp, r7
 382              		.cfi_def_cfa_register 13
 383              		@ sp needed
 384 0044 80BD     		pop	{r7, pc}
 385              	.L30:
 386 0046 00BF     		.align	2
 387              	.L29:
 388 0048 00000000 		.word	CyDmaChannels
 389              		.cfi_endproc
 390              	.LFE5:
 391              		.size	CyDmaChFree, .-CyDmaChFree
 392              		.section	.text.CyDmaChEnable,"ax",%progbits
 393              		.align	2
ARM GAS  C:\Users\HPz420\AppData\Local\Temp\ccfvmIQa.s 			page 12


 394              		.global	CyDmaChEnable
 395              		.thumb
 396              		.thumb_func
 397              		.type	CyDmaChEnable, %function
 398              	CyDmaChEnable:
 399              	.LFB6:
 231:Generated_Source\PSoC5/CyDmac.c **** 
 232:Generated_Source\PSoC5/CyDmac.c **** 
 233:Generated_Source\PSoC5/CyDmac.c **** /*******************************************************************************
 234:Generated_Source\PSoC5/CyDmac.c **** * Function Name: CyDmaChEnable
 235:Generated_Source\PSoC5/CyDmac.c **** ****************************************************************************//**
 236:Generated_Source\PSoC5/CyDmac.c **** *
 237:Generated_Source\PSoC5/CyDmac.c **** *  Enables the DMA channel. A software or hardware request still must happen
 238:Generated_Source\PSoC5/CyDmac.c **** *  before the channel is executed.
 239:Generated_Source\PSoC5/CyDmac.c **** *
 240:Generated_Source\PSoC5/CyDmac.c **** *  \param chHandle A handle previously returned by \ref CyDmaChAlloc() or \ref
 241:Generated_Source\PSoC5/CyDmac.c **** *  DMA_DmaInitalize().
 242:Generated_Source\PSoC5/CyDmac.c **** *
 243:Generated_Source\PSoC5/CyDmac.c **** *  \param preserveTds Preserves the original TD state when the TD has completed.
 244:Generated_Source\PSoC5/CyDmac.c **** *  This parameter applies to all TDs in the channel.
 245:Generated_Source\PSoC5/CyDmac.c **** *
 246:Generated_Source\PSoC5/CyDmac.c **** *   0 - When TD is completed, the DMAC leaves the TD configuration values in
 247:Generated_Source\PSoC5/CyDmac.c **** *   their current state, and does not restore them to their original state.
 248:Generated_Source\PSoC5/CyDmac.c **** *
 249:Generated_Source\PSoC5/CyDmac.c **** *   1 - When TD is completed, the DMAC restores the original configuration
 250:Generated_Source\PSoC5/CyDmac.c **** *   values of the TD.
 251:Generated_Source\PSoC5/CyDmac.c **** *
 252:Generated_Source\PSoC5/CyDmac.c **** *  When preserveTds is set, the TD slot that equals the channel number becomes
 253:Generated_Source\PSoC5/CyDmac.c **** *  RESERVED and that becomes where the working registers exist. So, for example,
 254:Generated_Source\PSoC5/CyDmac.c **** *  if you are using CH06 and preserveTds is set, you are not allowed to use TD
 255:Generated_Source\PSoC5/CyDmac.c **** *  slot 6. That is reclaimed by the DMA engine for its private use.
 256:Generated_Source\PSoC5/CyDmac.c **** *
 257:Generated_Source\PSoC5/CyDmac.c **** *  \note Do not chain back to a completed TD if the preserveTds for the channel
 258:Generated_Source\PSoC5/CyDmac.c **** *  is set to 0. When a TD has completed preserveTds for the channel set to 0,
 259:Generated_Source\PSoC5/CyDmac.c **** *  the transfer count will be at 0. If a TD with a transfer count of 0 is
 260:Generated_Source\PSoC5/CyDmac.c **** *  started, the TD will transfer an indefinite amount of data.
 261:Generated_Source\PSoC5/CyDmac.c **** *
 262:Generated_Source\PSoC5/CyDmac.c **** *  Take extra precautions when using the hardware request (DRQ) option when the
 263:Generated_Source\PSoC5/CyDmac.c **** *  preserveTds is set to 0, as you might be requesting the wrong data.
 264:Generated_Source\PSoC5/CyDmac.c **** *
 265:Generated_Source\PSoC5/CyDmac.c **** * \return CYRET_SUCCESS if successful.
 266:Generated_Source\PSoC5/CyDmac.c **** * \return CYRET_BAD_PARAM if chHandle is invalid.
 267:Generated_Source\PSoC5/CyDmac.c **** *
 268:Generated_Source\PSoC5/CyDmac.c **** *******************************************************************************/
 269:Generated_Source\PSoC5/CyDmac.c **** cystatus CyDmaChEnable(uint8 chHandle, uint8 preserveTds) 
 270:Generated_Source\PSoC5/CyDmac.c **** {
 400              		.loc 1 270 0
 401              		.cfi_startproc
 402              		@ args = 0, pretend = 0, frame = 16
 403              		@ frame_needed = 1, uses_anonymous_args = 0
 404              		@ link register save eliminated.
 405 0000 80B4     		push	{r7}
 406              		.cfi_def_cfa_offset 4
 407              		.cfi_offset 7, -4
 408 0002 85B0     		sub	sp, sp, #20
 409              		.cfi_def_cfa_offset 24
 410 0004 00AF     		add	r7, sp, #0
ARM GAS  C:\Users\HPz420\AppData\Local\Temp\ccfvmIQa.s 			page 13


 411              		.cfi_def_cfa_register 7
 412 0006 0346     		mov	r3, r0
 413 0008 0A46     		mov	r2, r1
 414 000a FB71     		strb	r3, [r7, #7]
 415 000c 1346     		mov	r3, r2
 416 000e BB71     		strb	r3, [r7, #6]
 271:Generated_Source\PSoC5/CyDmac.c ****     cystatus status = CYRET_BAD_PARAM;
 417              		.loc 1 271 0
 418 0010 0123     		movs	r3, #1
 419 0012 FB60     		str	r3, [r7, #12]
 272:Generated_Source\PSoC5/CyDmac.c **** 
 273:Generated_Source\PSoC5/CyDmac.c ****     if(chHandle < CY_DMA_NUMBEROF_CHANNELS)
 420              		.loc 1 273 0
 421 0014 FB79     		ldrb	r3, [r7, #7]	@ zero_extendqisi2
 422 0016 172B     		cmp	r3, #23
 423 0018 2FD8     		bhi	.L32
 274:Generated_Source\PSoC5/CyDmac.c ****     {
 275:Generated_Source\PSoC5/CyDmac.c ****         if (0u != preserveTds)
 424              		.loc 1 275 0
 425 001a BB79     		ldrb	r3, [r7, #6]	@ zero_extendqisi2
 426 001c 002B     		cmp	r3, #0
 427 001e 0ED0     		beq	.L33
 276:Generated_Source\PSoC5/CyDmac.c ****         {
 277:Generated_Source\PSoC5/CyDmac.c ****             /* Store intermediate TD states separately in CHn_SEP_TD0/1 to
 278:Generated_Source\PSoC5/CyDmac.c ****             *  preserve original TD chain
 279:Generated_Source\PSoC5/CyDmac.c ****             */
 280:Generated_Source\PSoC5/CyDmac.c ****             CY_DMA_CH_STRUCT_PTR[chHandle].basic_cfg[0u] |= CY_DMA_CH_BASIC_CFG_WORK_SEP;
 428              		.loc 1 280 0
 429 0020 FB79     		ldrb	r3, [r7, #7]	@ zero_extendqisi2
 430 0022 1A01     		lsls	r2, r3, #4
 431 0024 184B     		ldr	r3, .L36
 432 0026 1344     		add	r3, r3, r2
 433 0028 FA79     		ldrb	r2, [r7, #7]	@ zero_extendqisi2
 434 002a 1101     		lsls	r1, r2, #4
 435 002c 164A     		ldr	r2, .L36
 436 002e 0A44     		add	r2, r2, r1
 437 0030 1278     		ldrb	r2, [r2]
 438 0032 D2B2     		uxtb	r2, r2
 439 0034 42F02002 		orr	r2, r2, #32
 440 0038 D2B2     		uxtb	r2, r2
 441 003a 1A70     		strb	r2, [r3]
 442 003c 0DE0     		b	.L34
 443              	.L33:
 281:Generated_Source\PSoC5/CyDmac.c ****         }
 282:Generated_Source\PSoC5/CyDmac.c ****         else
 283:Generated_Source\PSoC5/CyDmac.c ****         {
 284:Generated_Source\PSoC5/CyDmac.c ****             /* Store intermediate and final TD states on top of original TD chain */
 285:Generated_Source\PSoC5/CyDmac.c ****             CY_DMA_CH_STRUCT_PTR[chHandle].basic_cfg[0u] &= (uint8)(~CY_DMA_CH_BASIC_CFG_WORK_SEP);
 444              		.loc 1 285 0
 445 003e FB79     		ldrb	r3, [r7, #7]	@ zero_extendqisi2
 446 0040 1A01     		lsls	r2, r3, #4
 447 0042 114B     		ldr	r3, .L36
 448 0044 1344     		add	r3, r3, r2
 449 0046 FA79     		ldrb	r2, [r7, #7]	@ zero_extendqisi2
 450 0048 1101     		lsls	r1, r2, #4
 451 004a 0F4A     		ldr	r2, .L36
 452 004c 0A44     		add	r2, r2, r1
ARM GAS  C:\Users\HPz420\AppData\Local\Temp\ccfvmIQa.s 			page 14


 453 004e 1278     		ldrb	r2, [r2]
 454 0050 D2B2     		uxtb	r2, r2
 455 0052 22F02002 		bic	r2, r2, #32
 456 0056 D2B2     		uxtb	r2, r2
 457 0058 1A70     		strb	r2, [r3]
 458              	.L34:
 286:Generated_Source\PSoC5/CyDmac.c ****         }
 287:Generated_Source\PSoC5/CyDmac.c **** 
 288:Generated_Source\PSoC5/CyDmac.c ****         /* Enable channel */
 289:Generated_Source\PSoC5/CyDmac.c ****         CY_DMA_CH_STRUCT_PTR[chHandle].basic_cfg[0u] |= CY_DMA_CH_BASIC_CFG_EN;
 459              		.loc 1 289 0
 460 005a FB79     		ldrb	r3, [r7, #7]	@ zero_extendqisi2
 461 005c 1A01     		lsls	r2, r3, #4
 462 005e 0A4B     		ldr	r3, .L36
 463 0060 1344     		add	r3, r3, r2
 464 0062 FA79     		ldrb	r2, [r7, #7]	@ zero_extendqisi2
 465 0064 1101     		lsls	r1, r2, #4
 466 0066 084A     		ldr	r2, .L36
 467 0068 0A44     		add	r2, r2, r1
 468 006a 1278     		ldrb	r2, [r2]
 469 006c D2B2     		uxtb	r2, r2
 470 006e 42F00102 		orr	r2, r2, #1
 471 0072 D2B2     		uxtb	r2, r2
 472 0074 1A70     		strb	r2, [r3]
 290:Generated_Source\PSoC5/CyDmac.c **** 
 291:Generated_Source\PSoC5/CyDmac.c ****         status = CYRET_SUCCESS;
 473              		.loc 1 291 0
 474 0076 0023     		movs	r3, #0
 475 0078 FB60     		str	r3, [r7, #12]
 476              	.L32:
 292:Generated_Source\PSoC5/CyDmac.c ****     }
 293:Generated_Source\PSoC5/CyDmac.c **** 
 294:Generated_Source\PSoC5/CyDmac.c ****     return(status);
 477              		.loc 1 294 0
 478 007a FB68     		ldr	r3, [r7, #12]
 295:Generated_Source\PSoC5/CyDmac.c **** }
 479              		.loc 1 295 0
 480 007c 1846     		mov	r0, r3
 481 007e 1437     		adds	r7, r7, #20
 482              		.cfi_def_cfa_offset 4
 483 0080 BD46     		mov	sp, r7
 484              		.cfi_def_cfa_register 13
 485              		@ sp needed
 486 0082 80BC     		pop	{r7}
 487              		.cfi_restore 7
 488              		.cfi_def_cfa_offset 0
 489 0084 7047     		bx	lr
 490              	.L37:
 491 0086 00BF     		.align	2
 492              	.L36:
 493 0088 10700040 		.word	1073770512
 494              		.cfi_endproc
 495              	.LFE6:
 496              		.size	CyDmaChEnable, .-CyDmaChEnable
 497              		.section	.text.CyDmaChDisable,"ax",%progbits
 498              		.align	2
 499              		.global	CyDmaChDisable
ARM GAS  C:\Users\HPz420\AppData\Local\Temp\ccfvmIQa.s 			page 15


 500              		.thumb
 501              		.thumb_func
 502              		.type	CyDmaChDisable, %function
 503              	CyDmaChDisable:
 504              	.LFB7:
 296:Generated_Source\PSoC5/CyDmac.c **** 
 297:Generated_Source\PSoC5/CyDmac.c **** 
 298:Generated_Source\PSoC5/CyDmac.c **** /*******************************************************************************
 299:Generated_Source\PSoC5/CyDmac.c **** * Function Name: CyDmaChDisable
 300:Generated_Source\PSoC5/CyDmac.c **** ****************************************************************************//**
 301:Generated_Source\PSoC5/CyDmac.c **** *
 302:Generated_Source\PSoC5/CyDmac.c **** * Disables the DMA channel. Once this function is called, CyDmaChStatus() may
 303:Generated_Source\PSoC5/CyDmac.c **** * be called to determine when the channel is disabled and which TDs were being
 304:Generated_Source\PSoC5/CyDmac.c **** * executed.
 305:Generated_Source\PSoC5/CyDmac.c **** *
 306:Generated_Source\PSoC5/CyDmac.c **** * If it is currently executing it will allow the current burst to finish
 307:Generated_Source\PSoC5/CyDmac.c **** * naturally.
 308:Generated_Source\PSoC5/CyDmac.c **** *
 309:Generated_Source\PSoC5/CyDmac.c **** * \param chHandle A handle previously returned by \ref CyDmaChAlloc() or \ref
 310:Generated_Source\PSoC5/CyDmac.c **** * DMA_DmaInitalize().
 311:Generated_Source\PSoC5/CyDmac.c **** *
 312:Generated_Source\PSoC5/CyDmac.c **** * \return CYRET_SUCCESS if successful.
 313:Generated_Source\PSoC5/CyDmac.c **** * \return CYRET_BAD_PARAM if chHandle is invalid.
 314:Generated_Source\PSoC5/CyDmac.c **** *
 315:Generated_Source\PSoC5/CyDmac.c **** *******************************************************************************/
 316:Generated_Source\PSoC5/CyDmac.c **** cystatus CyDmaChDisable(uint8 chHandle) 
 317:Generated_Source\PSoC5/CyDmac.c **** {
 505              		.loc 1 317 0
 506              		.cfi_startproc
 507              		@ args = 0, pretend = 0, frame = 16
 508              		@ frame_needed = 1, uses_anonymous_args = 0
 509              		@ link register save eliminated.
 510 0000 80B4     		push	{r7}
 511              		.cfi_def_cfa_offset 4
 512              		.cfi_offset 7, -4
 513 0002 85B0     		sub	sp, sp, #20
 514              		.cfi_def_cfa_offset 24
 515 0004 00AF     		add	r7, sp, #0
 516              		.cfi_def_cfa_register 7
 517 0006 0346     		mov	r3, r0
 518 0008 FB71     		strb	r3, [r7, #7]
 318:Generated_Source\PSoC5/CyDmac.c ****     cystatus status = CYRET_BAD_PARAM;
 519              		.loc 1 318 0
 520 000a 0123     		movs	r3, #1
 521 000c FB60     		str	r3, [r7, #12]
 319:Generated_Source\PSoC5/CyDmac.c **** 
 320:Generated_Source\PSoC5/CyDmac.c ****     if(chHandle < CY_DMA_NUMBEROF_CHANNELS)
 522              		.loc 1 320 0
 523 000e FB79     		ldrb	r3, [r7, #7]	@ zero_extendqisi2
 524 0010 172B     		cmp	r3, #23
 525 0012 1DD8     		bhi	.L39
 321:Generated_Source\PSoC5/CyDmac.c ****     {
 322:Generated_Source\PSoC5/CyDmac.c ****         /***********************************************************************
 323:Generated_Source\PSoC5/CyDmac.c ****         * Should not change configuration information of a DMA channel when it
 324:Generated_Source\PSoC5/CyDmac.c ****         * is active (or vulnerable to becoming active).
 325:Generated_Source\PSoC5/CyDmac.c ****         ***********************************************************************/
 326:Generated_Source\PSoC5/CyDmac.c **** 
ARM GAS  C:\Users\HPz420\AppData\Local\Temp\ccfvmIQa.s 			page 16


 327:Generated_Source\PSoC5/CyDmac.c ****         /* Disable channel */
 328:Generated_Source\PSoC5/CyDmac.c ****         CY_DMA_CH_STRUCT_PTR[chHandle].basic_cfg[0] &= ((uint8) (~CY_DMA_CH_BASIC_CFG_EN));
 526              		.loc 1 328 0
 527 0014 FB79     		ldrb	r3, [r7, #7]	@ zero_extendqisi2
 528 0016 1A01     		lsls	r2, r3, #4
 529 0018 104B     		ldr	r3, .L41
 530 001a 1344     		add	r3, r3, r2
 531 001c FA79     		ldrb	r2, [r7, #7]	@ zero_extendqisi2
 532 001e 1101     		lsls	r1, r2, #4
 533 0020 0E4A     		ldr	r2, .L41
 534 0022 0A44     		add	r2, r2, r1
 535 0024 1278     		ldrb	r2, [r2]
 536 0026 D2B2     		uxtb	r2, r2
 537 0028 22F00102 		bic	r2, r2, #1
 538 002c D2B2     		uxtb	r2, r2
 539 002e 1A70     		strb	r2, [r3]
 329:Generated_Source\PSoC5/CyDmac.c **** 
 330:Generated_Source\PSoC5/CyDmac.c ****         /* Store intermediate and final TD states on top of original TD chain */
 331:Generated_Source\PSoC5/CyDmac.c ****         CY_DMA_CH_STRUCT_PTR[chHandle].basic_cfg[0] &= ((uint8) (~CY_DMA_CH_BASIC_CFG_WORK_SEP));
 540              		.loc 1 331 0
 541 0030 FB79     		ldrb	r3, [r7, #7]	@ zero_extendqisi2
 542 0032 1A01     		lsls	r2, r3, #4
 543 0034 094B     		ldr	r3, .L41
 544 0036 1344     		add	r3, r3, r2
 545 0038 FA79     		ldrb	r2, [r7, #7]	@ zero_extendqisi2
 546 003a 1101     		lsls	r1, r2, #4
 547 003c 074A     		ldr	r2, .L41
 548 003e 0A44     		add	r2, r2, r1
 549 0040 1278     		ldrb	r2, [r2]
 550 0042 D2B2     		uxtb	r2, r2
 551 0044 22F02002 		bic	r2, r2, #32
 552 0048 D2B2     		uxtb	r2, r2
 553 004a 1A70     		strb	r2, [r3]
 332:Generated_Source\PSoC5/CyDmac.c ****         status = CYRET_SUCCESS;
 554              		.loc 1 332 0
 555 004c 0023     		movs	r3, #0
 556 004e FB60     		str	r3, [r7, #12]
 557              	.L39:
 333:Generated_Source\PSoC5/CyDmac.c ****     }
 334:Generated_Source\PSoC5/CyDmac.c **** 
 335:Generated_Source\PSoC5/CyDmac.c ****     return(status);
 558              		.loc 1 335 0
 559 0050 FB68     		ldr	r3, [r7, #12]
 336:Generated_Source\PSoC5/CyDmac.c **** }
 560              		.loc 1 336 0
 561 0052 1846     		mov	r0, r3
 562 0054 1437     		adds	r7, r7, #20
 563              		.cfi_def_cfa_offset 4
 564 0056 BD46     		mov	sp, r7
 565              		.cfi_def_cfa_register 13
 566              		@ sp needed
 567 0058 80BC     		pop	{r7}
 568              		.cfi_restore 7
 569              		.cfi_def_cfa_offset 0
 570 005a 7047     		bx	lr
 571              	.L42:
 572              		.align	2
ARM GAS  C:\Users\HPz420\AppData\Local\Temp\ccfvmIQa.s 			page 17


 573              	.L41:
 574 005c 10700040 		.word	1073770512
 575              		.cfi_endproc
 576              	.LFE7:
 577              		.size	CyDmaChDisable, .-CyDmaChDisable
 578              		.section	.text.CyDmaClearPendingDrq,"ax",%progbits
 579              		.align	2
 580              		.global	CyDmaClearPendingDrq
 581              		.thumb
 582              		.thumb_func
 583              		.type	CyDmaClearPendingDrq, %function
 584              	CyDmaClearPendingDrq:
 585              	.LFB8:
 337:Generated_Source\PSoC5/CyDmac.c **** 
 338:Generated_Source\PSoC5/CyDmac.c **** 
 339:Generated_Source\PSoC5/CyDmac.c **** /*******************************************************************************
 340:Generated_Source\PSoC5/CyDmac.c **** * Function Name: CyDmaClearPendingDrq
 341:Generated_Source\PSoC5/CyDmac.c **** ****************************************************************************//**
 342:Generated_Source\PSoC5/CyDmac.c **** *
 343:Generated_Source\PSoC5/CyDmac.c **** * Clears pending the DMA data request.
 344:Generated_Source\PSoC5/CyDmac.c **** *
 345:Generated_Source\PSoC5/CyDmac.c **** * \param chHandle Handle to the dma channel.
 346:Generated_Source\PSoC5/CyDmac.c **** *
 347:Generated_Source\PSoC5/CyDmac.c **** * \return CYRET_SUCCESS if successful.
 348:Generated_Source\PSoC5/CyDmac.c **** * \return CYRET_BAD_PARAM if chHandle is invalid.
 349:Generated_Source\PSoC5/CyDmac.c **** *
 350:Generated_Source\PSoC5/CyDmac.c **** *******************************************************************************/
 351:Generated_Source\PSoC5/CyDmac.c **** cystatus CyDmaClearPendingDrq(uint8 chHandle) 
 352:Generated_Source\PSoC5/CyDmac.c **** {
 586              		.loc 1 352 0
 587              		.cfi_startproc
 588              		@ args = 0, pretend = 0, frame = 16
 589              		@ frame_needed = 1, uses_anonymous_args = 0
 590              		@ link register save eliminated.
 591 0000 80B4     		push	{r7}
 592              		.cfi_def_cfa_offset 4
 593              		.cfi_offset 7, -4
 594 0002 85B0     		sub	sp, sp, #20
 595              		.cfi_def_cfa_offset 24
 596 0004 00AF     		add	r7, sp, #0
 597              		.cfi_def_cfa_register 7
 598 0006 0346     		mov	r3, r0
 599 0008 FB71     		strb	r3, [r7, #7]
 353:Generated_Source\PSoC5/CyDmac.c ****     cystatus status = CYRET_BAD_PARAM;
 600              		.loc 1 353 0
 601 000a 0123     		movs	r3, #1
 602 000c FB60     		str	r3, [r7, #12]
 354:Generated_Source\PSoC5/CyDmac.c **** 
 355:Generated_Source\PSoC5/CyDmac.c ****     if(chHandle < CY_DMA_NUMBEROF_CHANNELS)
 603              		.loc 1 355 0
 604 000e FB79     		ldrb	r3, [r7, #7]	@ zero_extendqisi2
 605 0010 172B     		cmp	r3, #23
 606 0012 1DD8     		bhi	.L44
 356:Generated_Source\PSoC5/CyDmac.c ****     {
 357:Generated_Source\PSoC5/CyDmac.c ****         CY_DMA_CH_STRUCT_PTR[chHandle].action[0] |= CY_DMA_CPU_TERM_CHAIN;
 607              		.loc 1 357 0
 608 0014 FB79     		ldrb	r3, [r7, #7]	@ zero_extendqisi2
ARM GAS  C:\Users\HPz420\AppData\Local\Temp\ccfvmIQa.s 			page 18


 609 0016 1A01     		lsls	r2, r3, #4
 610 0018 104B     		ldr	r3, .L46
 611 001a 1344     		add	r3, r3, r2
 612 001c FA79     		ldrb	r2, [r7, #7]	@ zero_extendqisi2
 613 001e 1101     		lsls	r1, r2, #4
 614 0020 0E4A     		ldr	r2, .L46
 615 0022 0A44     		add	r2, r2, r1
 616 0024 1279     		ldrb	r2, [r2, #4]
 617 0026 D2B2     		uxtb	r2, r2
 618 0028 42F00402 		orr	r2, r2, #4
 619 002c D2B2     		uxtb	r2, r2
 620 002e 1A71     		strb	r2, [r3, #4]
 358:Generated_Source\PSoC5/CyDmac.c ****         CY_DMA_CH_STRUCT_PTR[chHandle].basic_cfg[0] |= 0x01u;
 621              		.loc 1 358 0
 622 0030 FB79     		ldrb	r3, [r7, #7]	@ zero_extendqisi2
 623 0032 1A01     		lsls	r2, r3, #4
 624 0034 094B     		ldr	r3, .L46
 625 0036 1344     		add	r3, r3, r2
 626 0038 FA79     		ldrb	r2, [r7, #7]	@ zero_extendqisi2
 627 003a 1101     		lsls	r1, r2, #4
 628 003c 074A     		ldr	r2, .L46
 629 003e 0A44     		add	r2, r2, r1
 630 0040 1278     		ldrb	r2, [r2]
 631 0042 D2B2     		uxtb	r2, r2
 632 0044 42F00102 		orr	r2, r2, #1
 633 0048 D2B2     		uxtb	r2, r2
 634 004a 1A70     		strb	r2, [r3]
 359:Generated_Source\PSoC5/CyDmac.c ****         status = CYRET_SUCCESS;
 635              		.loc 1 359 0
 636 004c 0023     		movs	r3, #0
 637 004e FB60     		str	r3, [r7, #12]
 638              	.L44:
 360:Generated_Source\PSoC5/CyDmac.c ****     }
 361:Generated_Source\PSoC5/CyDmac.c **** 
 362:Generated_Source\PSoC5/CyDmac.c ****     return(status);
 639              		.loc 1 362 0
 640 0050 FB68     		ldr	r3, [r7, #12]
 363:Generated_Source\PSoC5/CyDmac.c **** }
 641              		.loc 1 363 0
 642 0052 1846     		mov	r0, r3
 643 0054 1437     		adds	r7, r7, #20
 644              		.cfi_def_cfa_offset 4
 645 0056 BD46     		mov	sp, r7
 646              		.cfi_def_cfa_register 13
 647              		@ sp needed
 648 0058 80BC     		pop	{r7}
 649              		.cfi_restore 7
 650              		.cfi_def_cfa_offset 0
 651 005a 7047     		bx	lr
 652              	.L47:
 653              		.align	2
 654              	.L46:
 655 005c 10700040 		.word	1073770512
 656              		.cfi_endproc
 657              	.LFE8:
 658              		.size	CyDmaClearPendingDrq, .-CyDmaClearPendingDrq
 659              		.section	.text.CyDmaChPriority,"ax",%progbits
ARM GAS  C:\Users\HPz420\AppData\Local\Temp\ccfvmIQa.s 			page 19


 660              		.align	2
 661              		.global	CyDmaChPriority
 662              		.thumb
 663              		.thumb_func
 664              		.type	CyDmaChPriority, %function
 665              	CyDmaChPriority:
 666              	.LFB9:
 364:Generated_Source\PSoC5/CyDmac.c **** 
 365:Generated_Source\PSoC5/CyDmac.c **** 
 366:Generated_Source\PSoC5/CyDmac.c **** /*******************************************************************************
 367:Generated_Source\PSoC5/CyDmac.c **** * Function Name: CyDmaChPriority
 368:Generated_Source\PSoC5/CyDmac.c **** ****************************************************************************//**
 369:Generated_Source\PSoC5/CyDmac.c **** *
 370:Generated_Source\PSoC5/CyDmac.c **** *  Sets the priority of a DMA channel. You can use this function when you want
 371:Generated_Source\PSoC5/CyDmac.c **** *  to change the priority at run time. If the priority remains the same for a
 372:Generated_Source\PSoC5/CyDmac.c **** *  DMA channel, then you can configure the priority in the .cydwr file.
 373:Generated_Source\PSoC5/CyDmac.c **** *
 374:Generated_Source\PSoC5/CyDmac.c **** *  \param chHandle A handle previously returned by \ref CyDmaChAlloc() or \ref
 375:Generated_Source\PSoC5/CyDmac.c **** *  DMA_DmaInitalize().
 376:Generated_Source\PSoC5/CyDmac.c **** *
 377:Generated_Source\PSoC5/CyDmac.c **** *  \param priority Priority to set the channel to, 0 - 7.
 378:Generated_Source\PSoC5/CyDmac.c **** *
 379:Generated_Source\PSoC5/CyDmac.c **** * \return CYRET_SUCCESS if successful.
 380:Generated_Source\PSoC5/CyDmac.c **** *  \return CYRET_BAD_PARAM if chHandle is invalid.
 381:Generated_Source\PSoC5/CyDmac.c **** *
 382:Generated_Source\PSoC5/CyDmac.c **** *******************************************************************************/
 383:Generated_Source\PSoC5/CyDmac.c **** cystatus CyDmaChPriority(uint8 chHandle, uint8 priority) 
 384:Generated_Source\PSoC5/CyDmac.c **** {
 667              		.loc 1 384 0
 668              		.cfi_startproc
 669              		@ args = 0, pretend = 0, frame = 16
 670              		@ frame_needed = 1, uses_anonymous_args = 0
 671              		@ link register save eliminated.
 672 0000 80B4     		push	{r7}
 673              		.cfi_def_cfa_offset 4
 674              		.cfi_offset 7, -4
 675 0002 85B0     		sub	sp, sp, #20
 676              		.cfi_def_cfa_offset 24
 677 0004 00AF     		add	r7, sp, #0
 678              		.cfi_def_cfa_register 7
 679 0006 0346     		mov	r3, r0
 680 0008 0A46     		mov	r2, r1
 681 000a FB71     		strb	r3, [r7, #7]
 682 000c 1346     		mov	r3, r2
 683 000e BB71     		strb	r3, [r7, #6]
 385:Generated_Source\PSoC5/CyDmac.c ****     uint8 value;
 386:Generated_Source\PSoC5/CyDmac.c ****     cystatus status = CYRET_BAD_PARAM;
 684              		.loc 1 386 0
 685 0010 0123     		movs	r3, #1
 686 0012 FB60     		str	r3, [r7, #12]
 387:Generated_Source\PSoC5/CyDmac.c **** 
 388:Generated_Source\PSoC5/CyDmac.c ****     if(chHandle < CY_DMA_NUMBEROF_CHANNELS)
 687              		.loc 1 388 0
 688 0014 FB79     		ldrb	r3, [r7, #7]	@ zero_extendqisi2
 689 0016 172B     		cmp	r3, #23
 690 0018 1BD8     		bhi	.L49
 389:Generated_Source\PSoC5/CyDmac.c ****     {
ARM GAS  C:\Users\HPz420\AppData\Local\Temp\ccfvmIQa.s 			page 20


 390:Generated_Source\PSoC5/CyDmac.c ****         value = CY_DMA_CH_STRUCT_PTR[chHandle].basic_cfg[0u] & ((uint8)(~(0x0Eu)));
 691              		.loc 1 390 0
 692 001a FB79     		ldrb	r3, [r7, #7]	@ zero_extendqisi2
 693 001c 1A01     		lsls	r2, r3, #4
 694 001e 104B     		ldr	r3, .L51
 695 0020 1344     		add	r3, r3, r2
 696 0022 1B78     		ldrb	r3, [r3]
 697 0024 DBB2     		uxtb	r3, r3
 698 0026 23F00E03 		bic	r3, r3, #14
 699 002a FB72     		strb	r3, [r7, #11]
 391:Generated_Source\PSoC5/CyDmac.c **** 
 392:Generated_Source\PSoC5/CyDmac.c ****         CY_DMA_CH_STRUCT_PTR[chHandle].basic_cfg[0u] = value | ((uint8) ((priority & 0x7u) << 0x01u
 700              		.loc 1 392 0
 701 002c FB79     		ldrb	r3, [r7, #7]	@ zero_extendqisi2
 702 002e 1A01     		lsls	r2, r3, #4
 703 0030 0B4B     		ldr	r3, .L51
 704 0032 1344     		add	r3, r3, r2
 705 0034 BA79     		ldrb	r2, [r7, #6]
 706 0036 5200     		lsls	r2, r2, #1
 707 0038 D2B2     		uxtb	r2, r2
 708 003a 52B2     		sxtb	r2, r2
 709 003c 02F00E02 		and	r2, r2, #14
 710 0040 51B2     		sxtb	r1, r2
 711 0042 97F90B20 		ldrsb	r2, [r7, #11]
 712 0046 0A43     		orrs	r2, r2, r1
 713 0048 52B2     		sxtb	r2, r2
 714 004a D2B2     		uxtb	r2, r2
 715 004c 1A70     		strb	r2, [r3]
 393:Generated_Source\PSoC5/CyDmac.c **** 
 394:Generated_Source\PSoC5/CyDmac.c ****         status = CYRET_SUCCESS;
 716              		.loc 1 394 0
 717 004e 0023     		movs	r3, #0
 718 0050 FB60     		str	r3, [r7, #12]
 719              	.L49:
 395:Generated_Source\PSoC5/CyDmac.c ****     }
 396:Generated_Source\PSoC5/CyDmac.c **** 
 397:Generated_Source\PSoC5/CyDmac.c ****     return(status);
 720              		.loc 1 397 0
 721 0052 FB68     		ldr	r3, [r7, #12]
 398:Generated_Source\PSoC5/CyDmac.c **** }
 722              		.loc 1 398 0
 723 0054 1846     		mov	r0, r3
 724 0056 1437     		adds	r7, r7, #20
 725              		.cfi_def_cfa_offset 4
 726 0058 BD46     		mov	sp, r7
 727              		.cfi_def_cfa_register 13
 728              		@ sp needed
 729 005a 80BC     		pop	{r7}
 730              		.cfi_restore 7
 731              		.cfi_def_cfa_offset 0
 732 005c 7047     		bx	lr
 733              	.L52:
 734 005e 00BF     		.align	2
 735              	.L51:
 736 0060 10700040 		.word	1073770512
 737              		.cfi_endproc
 738              	.LFE9:
ARM GAS  C:\Users\HPz420\AppData\Local\Temp\ccfvmIQa.s 			page 21


 739              		.size	CyDmaChPriority, .-CyDmaChPriority
 740              		.section	.text.CyDmaChSetExtendedAddress,"ax",%progbits
 741              		.align	2
 742              		.global	CyDmaChSetExtendedAddress
 743              		.thumb
 744              		.thumb_func
 745              		.type	CyDmaChSetExtendedAddress, %function
 746              	CyDmaChSetExtendedAddress:
 747              	.LFB10:
 399:Generated_Source\PSoC5/CyDmac.c **** 
 400:Generated_Source\PSoC5/CyDmac.c **** 
 401:Generated_Source\PSoC5/CyDmac.c **** /*******************************************************************************
 402:Generated_Source\PSoC5/CyDmac.c **** * Function Name: CyDmaChSetExtendedAddress
 403:Generated_Source\PSoC5/CyDmac.c **** ****************************************************************************//**
 404:Generated_Source\PSoC5/CyDmac.c **** *
 405:Generated_Source\PSoC5/CyDmac.c **** *  Sets the high 16 bits of the source and destination addresses for the DMA
 406:Generated_Source\PSoC5/CyDmac.c **** *  channel (valid for all TDs in the chain).
 407:Generated_Source\PSoC5/CyDmac.c **** *
 408:Generated_Source\PSoC5/CyDmac.c **** *  \param chHandle A handle previously returned by \ref CyDmaChAlloc() or \ref
 409:Generated_Source\PSoC5/CyDmac.c **** *  DMA_DmaInitalize().
 410:Generated_Source\PSoC5/CyDmac.c **** *
 411:Generated_Source\PSoC5/CyDmac.c **** *  \param source Upper 16 bit address of the DMA transfer source.
 412:Generated_Source\PSoC5/CyDmac.c **** *
 413:Generated_Source\PSoC5/CyDmac.c **** *  \param destination Upper 16 bit address of the DMA transfer destination.
 414:Generated_Source\PSoC5/CyDmac.c **** *
 415:Generated_Source\PSoC5/CyDmac.c **** * \return CYRET_SUCCESS if successful.
 416:Generated_Source\PSoC5/CyDmac.c **** * \return CYRET_BAD_PARAM if chHandle is invalid.
 417:Generated_Source\PSoC5/CyDmac.c **** *
 418:Generated_Source\PSoC5/CyDmac.c **** *******************************************************************************/
 419:Generated_Source\PSoC5/CyDmac.c **** cystatus CyDmaChSetExtendedAddress(uint8 chHandle, uint16 source, uint16 destination) \
 420:Generated_Source\PSoC5/CyDmac.c ****     
 421:Generated_Source\PSoC5/CyDmac.c **** {
 748              		.loc 1 421 0
 749              		.cfi_startproc
 750              		@ args = 0, pretend = 0, frame = 16
 751              		@ frame_needed = 1, uses_anonymous_args = 0
 752              		@ link register save eliminated.
 753 0000 80B4     		push	{r7}
 754              		.cfi_def_cfa_offset 4
 755              		.cfi_offset 7, -4
 756 0002 85B0     		sub	sp, sp, #20
 757              		.cfi_def_cfa_offset 24
 758 0004 00AF     		add	r7, sp, #0
 759              		.cfi_def_cfa_register 7
 760 0006 0346     		mov	r3, r0
 761 0008 FB71     		strb	r3, [r7, #7]
 762 000a 0B46     		mov	r3, r1	@ movhi
 763 000c BB80     		strh	r3, [r7, #4]	@ movhi
 764 000e 1346     		mov	r3, r2	@ movhi
 765 0010 7B80     		strh	r3, [r7, #2]	@ movhi
 422:Generated_Source\PSoC5/CyDmac.c ****     cystatus status = CYRET_BAD_PARAM;
 766              		.loc 1 422 0
 767 0012 0123     		movs	r3, #1
 768 0014 FB60     		str	r3, [r7, #12]
 423:Generated_Source\PSoC5/CyDmac.c ****     reg16 *convert;
 424:Generated_Source\PSoC5/CyDmac.c **** 
 425:Generated_Source\PSoC5/CyDmac.c ****     #if(CY_PSOC5)
ARM GAS  C:\Users\HPz420\AppData\Local\Temp\ccfvmIQa.s 			page 22


 426:Generated_Source\PSoC5/CyDmac.c **** 
 427:Generated_Source\PSoC5/CyDmac.c ****         /* 0x1FFF8000-0x1FFFFFFF needs to use alias at 0x20008000-0x2000FFFF */
 428:Generated_Source\PSoC5/CyDmac.c ****         if(source == 0x1FFFu)
 769              		.loc 1 428 0
 770 0016 BB88     		ldrh	r3, [r7, #4]
 771 0018 41F6FF72 		movw	r2, #8191
 772 001c 9342     		cmp	r3, r2
 773 001e 02D1     		bne	.L54
 429:Generated_Source\PSoC5/CyDmac.c ****         {
 430:Generated_Source\PSoC5/CyDmac.c ****             source = 0x2000u;
 774              		.loc 1 430 0
 775 0020 4FF40053 		mov	r3, #8192
 776 0024 BB80     		strh	r3, [r7, #4]	@ movhi
 777              	.L54:
 431:Generated_Source\PSoC5/CyDmac.c ****         }
 432:Generated_Source\PSoC5/CyDmac.c **** 
 433:Generated_Source\PSoC5/CyDmac.c ****         if(destination == 0x1FFFu)
 778              		.loc 1 433 0
 779 0026 7B88     		ldrh	r3, [r7, #2]
 780 0028 41F6FF72 		movw	r2, #8191
 781 002c 9342     		cmp	r3, r2
 782 002e 02D1     		bne	.L55
 434:Generated_Source\PSoC5/CyDmac.c ****         {
 435:Generated_Source\PSoC5/CyDmac.c ****             destination = 0x2000u;
 783              		.loc 1 435 0
 784 0030 4FF40053 		mov	r3, #8192
 785 0034 7B80     		strh	r3, [r7, #2]	@ movhi
 786              	.L55:
 436:Generated_Source\PSoC5/CyDmac.c ****         }
 437:Generated_Source\PSoC5/CyDmac.c **** 
 438:Generated_Source\PSoC5/CyDmac.c ****     #endif  /* (CY_PSOC5) */
 439:Generated_Source\PSoC5/CyDmac.c **** 
 440:Generated_Source\PSoC5/CyDmac.c **** 
 441:Generated_Source\PSoC5/CyDmac.c ****     if(chHandle < CY_DMA_NUMBEROF_CHANNELS)
 787              		.loc 1 441 0
 788 0036 FB79     		ldrb	r3, [r7, #7]	@ zero_extendqisi2
 789 0038 172B     		cmp	r3, #23
 790 003a 17D8     		bhi	.L56
 442:Generated_Source\PSoC5/CyDmac.c ****     {
 443:Generated_Source\PSoC5/CyDmac.c ****         /* Set source address */
 444:Generated_Source\PSoC5/CyDmac.c ****         convert = (reg16 *) &CY_DMA_CFGMEM_STRUCT_PTR[chHandle].CFG1[0];
 791              		.loc 1 444 0
 792 003c FB79     		ldrb	r3, [r7, #7]	@ zero_extendqisi2
 793 003e DB00     		lsls	r3, r3, #3
 794 0040 03F18043 		add	r3, r3, #1073741824
 795 0044 03F5EC43 		add	r3, r3, #30208
 796 0048 0433     		adds	r3, r3, #4
 797 004a BB60     		str	r3, [r7, #8]
 445:Generated_Source\PSoC5/CyDmac.c ****         CY_SET_REG16(convert, source);
 798              		.loc 1 445 0
 799 004c BB68     		ldr	r3, [r7, #8]
 800 004e BA88     		ldrh	r2, [r7, #4]	@ movhi
 801 0050 1A80     		strh	r2, [r3]	@ movhi
 446:Generated_Source\PSoC5/CyDmac.c **** 
 447:Generated_Source\PSoC5/CyDmac.c ****         /* Set destination address */
 448:Generated_Source\PSoC5/CyDmac.c ****         convert = (reg16 *) &CY_DMA_CFGMEM_STRUCT_PTR[chHandle].CFG1[2u];
 802              		.loc 1 448 0
ARM GAS  C:\Users\HPz420\AppData\Local\Temp\ccfvmIQa.s 			page 23


 803 0052 FB79     		ldrb	r3, [r7, #7]	@ zero_extendqisi2
 804 0054 DB00     		lsls	r3, r3, #3
 805 0056 03F18043 		add	r3, r3, #1073741824
 806 005a 03F5EC43 		add	r3, r3, #30208
 807 005e 0633     		adds	r3, r3, #6
 808 0060 BB60     		str	r3, [r7, #8]
 449:Generated_Source\PSoC5/CyDmac.c ****         CY_SET_REG16(convert, destination);
 809              		.loc 1 449 0
 810 0062 BB68     		ldr	r3, [r7, #8]
 811 0064 7A88     		ldrh	r2, [r7, #2]	@ movhi
 812 0066 1A80     		strh	r2, [r3]	@ movhi
 450:Generated_Source\PSoC5/CyDmac.c ****         status = CYRET_SUCCESS;
 813              		.loc 1 450 0
 814 0068 0023     		movs	r3, #0
 815 006a FB60     		str	r3, [r7, #12]
 816              	.L56:
 451:Generated_Source\PSoC5/CyDmac.c ****     }
 452:Generated_Source\PSoC5/CyDmac.c **** 
 453:Generated_Source\PSoC5/CyDmac.c ****     return(status);
 817              		.loc 1 453 0
 818 006c FB68     		ldr	r3, [r7, #12]
 454:Generated_Source\PSoC5/CyDmac.c **** }
 819              		.loc 1 454 0
 820 006e 1846     		mov	r0, r3
 821 0070 1437     		adds	r7, r7, #20
 822              		.cfi_def_cfa_offset 4
 823 0072 BD46     		mov	sp, r7
 824              		.cfi_def_cfa_register 13
 825              		@ sp needed
 826 0074 80BC     		pop	{r7}
 827              		.cfi_restore 7
 828              		.cfi_def_cfa_offset 0
 829 0076 7047     		bx	lr
 830              		.cfi_endproc
 831              	.LFE10:
 832              		.size	CyDmaChSetExtendedAddress, .-CyDmaChSetExtendedAddress
 833              		.section	.text.CyDmaChSetInitialTd,"ax",%progbits
 834              		.align	2
 835              		.global	CyDmaChSetInitialTd
 836              		.thumb
 837              		.thumb_func
 838              		.type	CyDmaChSetInitialTd, %function
 839              	CyDmaChSetInitialTd:
 840              	.LFB11:
 455:Generated_Source\PSoC5/CyDmac.c **** 
 456:Generated_Source\PSoC5/CyDmac.c **** 
 457:Generated_Source\PSoC5/CyDmac.c **** /*******************************************************************************
 458:Generated_Source\PSoC5/CyDmac.c **** * Function Name: CyDmaChSetInitialTd
 459:Generated_Source\PSoC5/CyDmac.c **** ****************************************************************************//**
 460:Generated_Source\PSoC5/CyDmac.c **** *
 461:Generated_Source\PSoC5/CyDmac.c **** * Sets the initial TD to be executed for the channel when the \ref CyDmaChEnable()
 462:Generated_Source\PSoC5/CyDmac.c **** * function is called.
 463:Generated_Source\PSoC5/CyDmac.c **** *
 464:Generated_Source\PSoC5/CyDmac.c **** * \param chHandle A handle previously returned by \ref CyDmaChAlloc() or
 465:Generated_Source\PSoC5/CyDmac.c **** * \ref DMA_DmaInitialize().
 466:Generated_Source\PSoC5/CyDmac.c **** *
 467:Generated_Source\PSoC5/CyDmac.c **** * \param startTd Set the TD index as the first TD associated with the
ARM GAS  C:\Users\HPz420\AppData\Local\Temp\ccfvmIQa.s 			page 24


 468:Generated_Source\PSoC5/CyDmac.c **** * channel. Zero is a valid TD index.
 469:Generated_Source\PSoC5/CyDmac.c **** *
 470:Generated_Source\PSoC5/CyDmac.c **** * \return CYRET_SUCCESS if successful.
 471:Generated_Source\PSoC5/CyDmac.c **** * \return CYRET_BAD_PARAM if chHandle is invalid.
 472:Generated_Source\PSoC5/CyDmac.c **** *
 473:Generated_Source\PSoC5/CyDmac.c **** *******************************************************************************/
 474:Generated_Source\PSoC5/CyDmac.c **** cystatus CyDmaChSetInitialTd(uint8 chHandle, uint8 startTd) 
 475:Generated_Source\PSoC5/CyDmac.c **** {
 841              		.loc 1 475 0
 842              		.cfi_startproc
 843              		@ args = 0, pretend = 0, frame = 16
 844              		@ frame_needed = 1, uses_anonymous_args = 0
 845              		@ link register save eliminated.
 846 0000 80B4     		push	{r7}
 847              		.cfi_def_cfa_offset 4
 848              		.cfi_offset 7, -4
 849 0002 85B0     		sub	sp, sp, #20
 850              		.cfi_def_cfa_offset 24
 851 0004 00AF     		add	r7, sp, #0
 852              		.cfi_def_cfa_register 7
 853 0006 0346     		mov	r3, r0
 854 0008 0A46     		mov	r2, r1
 855 000a FB71     		strb	r3, [r7, #7]
 856 000c 1346     		mov	r3, r2
 857 000e BB71     		strb	r3, [r7, #6]
 476:Generated_Source\PSoC5/CyDmac.c ****     cystatus status = CYRET_BAD_PARAM;
 858              		.loc 1 476 0
 859 0010 0123     		movs	r3, #1
 860 0012 FB60     		str	r3, [r7, #12]
 477:Generated_Source\PSoC5/CyDmac.c **** 
 478:Generated_Source\PSoC5/CyDmac.c ****     if(chHandle < CY_DMA_NUMBEROF_CHANNELS)
 861              		.loc 1 478 0
 862 0014 FB79     		ldrb	r3, [r7, #7]	@ zero_extendqisi2
 863 0016 172B     		cmp	r3, #23
 864 0018 07D8     		bhi	.L59
 479:Generated_Source\PSoC5/CyDmac.c ****     {
 480:Generated_Source\PSoC5/CyDmac.c ****         CY_DMA_CH_STRUCT_PTR[chHandle].basic_status[1u] = startTd;
 865              		.loc 1 480 0
 866 001a FB79     		ldrb	r3, [r7, #7]	@ zero_extendqisi2
 867 001c 1A01     		lsls	r2, r3, #4
 868 001e 064B     		ldr	r3, .L61
 869 0020 1344     		add	r3, r3, r2
 870 0022 BA79     		ldrb	r2, [r7, #6]
 871 0024 5A72     		strb	r2, [r3, #9]
 481:Generated_Source\PSoC5/CyDmac.c ****         status = CYRET_SUCCESS;
 872              		.loc 1 481 0
 873 0026 0023     		movs	r3, #0
 874 0028 FB60     		str	r3, [r7, #12]
 875              	.L59:
 482:Generated_Source\PSoC5/CyDmac.c ****     }
 483:Generated_Source\PSoC5/CyDmac.c **** 
 484:Generated_Source\PSoC5/CyDmac.c ****     return(status);
 876              		.loc 1 484 0
 877 002a FB68     		ldr	r3, [r7, #12]
 485:Generated_Source\PSoC5/CyDmac.c **** }
 878              		.loc 1 485 0
 879 002c 1846     		mov	r0, r3
ARM GAS  C:\Users\HPz420\AppData\Local\Temp\ccfvmIQa.s 			page 25


 880 002e 1437     		adds	r7, r7, #20
 881              		.cfi_def_cfa_offset 4
 882 0030 BD46     		mov	sp, r7
 883              		.cfi_def_cfa_register 13
 884              		@ sp needed
 885 0032 80BC     		pop	{r7}
 886              		.cfi_restore 7
 887              		.cfi_def_cfa_offset 0
 888 0034 7047     		bx	lr
 889              	.L62:
 890 0036 00BF     		.align	2
 891              	.L61:
 892 0038 10700040 		.word	1073770512
 893              		.cfi_endproc
 894              	.LFE11:
 895              		.size	CyDmaChSetInitialTd, .-CyDmaChSetInitialTd
 896              		.section	.text.CyDmaChSetRequest,"ax",%progbits
 897              		.align	2
 898              		.global	CyDmaChSetRequest
 899              		.thumb
 900              		.thumb_func
 901              		.type	CyDmaChSetRequest, %function
 902              	CyDmaChSetRequest:
 903              	.LFB12:
 486:Generated_Source\PSoC5/CyDmac.c **** 
 487:Generated_Source\PSoC5/CyDmac.c **** 
 488:Generated_Source\PSoC5/CyDmac.c **** /*******************************************************************************
 489:Generated_Source\PSoC5/CyDmac.c **** * Function Name: CyDmaChSetRequest
 490:Generated_Source\PSoC5/CyDmac.c **** ****************************************************************************//**
 491:Generated_Source\PSoC5/CyDmac.c **** *
 492:Generated_Source\PSoC5/CyDmac.c **** *  Allows the caller to terminate a chain of TDs, terminate one TD, or create a
 493:Generated_Source\PSoC5/CyDmac.c **** *  direct request to start the DMA channel.
 494:Generated_Source\PSoC5/CyDmac.c **** *
 495:Generated_Source\PSoC5/CyDmac.c **** *  \param chHandle A handle previously returned by \ref CyDmaChAlloc() or \ref
 496:Generated_Source\PSoC5/CyDmac.c **** *  DMA_DmaInitalize().
 497:Generated_Source\PSoC5/CyDmac.c **** *
 498:Generated_Source\PSoC5/CyDmac.c **** *  \param request One of the following constants. Each of the constants is a
 499:Generated_Source\PSoC5/CyDmac.c **** *  three-bit value.
 500:Generated_Source\PSoC5/CyDmac.c **** *   CPU_REQ         - Create a direct request to start the DMA channel
 501:Generated_Source\PSoC5/CyDmac.c **** *   CPU_TERM_TD     - Terminate one TD
 502:Generated_Source\PSoC5/CyDmac.c **** *   CPU_TERM_CHAIN  - Terminate a chain of TDs
 503:Generated_Source\PSoC5/CyDmac.c **** *
 504:Generated_Source\PSoC5/CyDmac.c **** * \return CYRET_SUCCESS if successful.
 505:Generated_Source\PSoC5/CyDmac.c **** * \return CYRET_BAD_PARAM if chHandle is invalid.
 506:Generated_Source\PSoC5/CyDmac.c **** *
 507:Generated_Source\PSoC5/CyDmac.c **** *******************************************************************************/
 508:Generated_Source\PSoC5/CyDmac.c **** cystatus CyDmaChSetRequest(uint8 chHandle, uint8 request) 
 509:Generated_Source\PSoC5/CyDmac.c **** {
 904              		.loc 1 509 0
 905              		.cfi_startproc
 906              		@ args = 0, pretend = 0, frame = 16
 907              		@ frame_needed = 1, uses_anonymous_args = 0
 908              		@ link register save eliminated.
 909 0000 80B4     		push	{r7}
 910              		.cfi_def_cfa_offset 4
 911              		.cfi_offset 7, -4
 912 0002 85B0     		sub	sp, sp, #20
ARM GAS  C:\Users\HPz420\AppData\Local\Temp\ccfvmIQa.s 			page 26


 913              		.cfi_def_cfa_offset 24
 914 0004 00AF     		add	r7, sp, #0
 915              		.cfi_def_cfa_register 7
 916 0006 0346     		mov	r3, r0
 917 0008 0A46     		mov	r2, r1
 918 000a FB71     		strb	r3, [r7, #7]
 919 000c 1346     		mov	r3, r2
 920 000e BB71     		strb	r3, [r7, #6]
 510:Generated_Source\PSoC5/CyDmac.c ****     cystatus status = CYRET_BAD_PARAM;
 921              		.loc 1 510 0
 922 0010 0123     		movs	r3, #1
 923 0012 FB60     		str	r3, [r7, #12]
 511:Generated_Source\PSoC5/CyDmac.c **** 
 512:Generated_Source\PSoC5/CyDmac.c ****     if(chHandle < CY_DMA_NUMBEROF_CHANNELS)
 924              		.loc 1 512 0
 925 0014 FB79     		ldrb	r3, [r7, #7]	@ zero_extendqisi2
 926 0016 172B     		cmp	r3, #23
 927 0018 15D8     		bhi	.L64
 513:Generated_Source\PSoC5/CyDmac.c ****     {
 514:Generated_Source\PSoC5/CyDmac.c ****         CY_DMA_CH_STRUCT_PTR[chHandle].action[0u] |= (request & (CPU_REQ | CPU_TERM_TD | CPU_TERM_C
 928              		.loc 1 514 0
 929 001a FB79     		ldrb	r3, [r7, #7]	@ zero_extendqisi2
 930 001c 1A01     		lsls	r2, r3, #4
 931 001e 0D4B     		ldr	r3, .L66
 932 0020 1344     		add	r3, r3, r2
 933 0022 FA79     		ldrb	r2, [r7, #7]	@ zero_extendqisi2
 934 0024 1101     		lsls	r1, r2, #4
 935 0026 0B4A     		ldr	r2, .L66
 936 0028 0A44     		add	r2, r2, r1
 937 002a 1279     		ldrb	r2, [r2, #4]
 938 002c D2B2     		uxtb	r2, r2
 939 002e 51B2     		sxtb	r1, r2
 940 0030 97F90620 		ldrsb	r2, [r7, #6]
 941 0034 02F00702 		and	r2, r2, #7
 942 0038 52B2     		sxtb	r2, r2
 943 003a 0A43     		orrs	r2, r2, r1
 944 003c 52B2     		sxtb	r2, r2
 945 003e D2B2     		uxtb	r2, r2
 946 0040 1A71     		strb	r2, [r3, #4]
 515:Generated_Source\PSoC5/CyDmac.c ****         status = CYRET_SUCCESS;
 947              		.loc 1 515 0
 948 0042 0023     		movs	r3, #0
 949 0044 FB60     		str	r3, [r7, #12]
 950              	.L64:
 516:Generated_Source\PSoC5/CyDmac.c ****     }
 517:Generated_Source\PSoC5/CyDmac.c **** 
 518:Generated_Source\PSoC5/CyDmac.c ****     return(status);
 951              		.loc 1 518 0
 952 0046 FB68     		ldr	r3, [r7, #12]
 519:Generated_Source\PSoC5/CyDmac.c **** }
 953              		.loc 1 519 0
 954 0048 1846     		mov	r0, r3
 955 004a 1437     		adds	r7, r7, #20
 956              		.cfi_def_cfa_offset 4
 957 004c BD46     		mov	sp, r7
 958              		.cfi_def_cfa_register 13
 959              		@ sp needed
ARM GAS  C:\Users\HPz420\AppData\Local\Temp\ccfvmIQa.s 			page 27


 960 004e 80BC     		pop	{r7}
 961              		.cfi_restore 7
 962              		.cfi_def_cfa_offset 0
 963 0050 7047     		bx	lr
 964              	.L67:
 965 0052 00BF     		.align	2
 966              	.L66:
 967 0054 10700040 		.word	1073770512
 968              		.cfi_endproc
 969              	.LFE12:
 970              		.size	CyDmaChSetRequest, .-CyDmaChSetRequest
 971              		.section	.text.CyDmaChGetRequest,"ax",%progbits
 972              		.align	2
 973              		.global	CyDmaChGetRequest
 974              		.thumb
 975              		.thumb_func
 976              		.type	CyDmaChGetRequest, %function
 977              	CyDmaChGetRequest:
 978              	.LFB13:
 520:Generated_Source\PSoC5/CyDmac.c **** 
 521:Generated_Source\PSoC5/CyDmac.c **** 
 522:Generated_Source\PSoC5/CyDmac.c **** /*******************************************************************************
 523:Generated_Source\PSoC5/CyDmac.c **** * Function Name: CyDmaChGetRequest
 524:Generated_Source\PSoC5/CyDmac.c **** ****************************************************************************//**
 525:Generated_Source\PSoC5/CyDmac.c **** *
 526:Generated_Source\PSoC5/CyDmac.c **** * This function allows the caller of \ref CyDmaChSetRequest() to determine if the
 527:Generated_Source\PSoC5/CyDmac.c **** * request was completed.
 528:Generated_Source\PSoC5/CyDmac.c **** *
 529:Generated_Source\PSoC5/CyDmac.c **** * \param chHandle A handle previously returned by \ref CyDmaChAlloc() or \ref
 530:Generated_Source\PSoC5/CyDmac.c **** * DMA_DmaInitalize().
 531:Generated_Source\PSoC5/CyDmac.c **** *
 532:Generated_Source\PSoC5/CyDmac.c **** * \return Returns a three-bit field, corresponding to the three bits of the
 533:Generated_Source\PSoC5/CyDmac.c **** * request, which describes the state of the previously posted request. If the
 534:Generated_Source\PSoC5/CyDmac.c **** * value is zero, the request was completed. CY_DMA_INVALID_CHANNEL if the handle
 535:Generated_Source\PSoC5/CyDmac.c **** * is invalid.
 536:Generated_Source\PSoC5/CyDmac.c **** *
 537:Generated_Source\PSoC5/CyDmac.c **** *******************************************************************************/
 538:Generated_Source\PSoC5/CyDmac.c **** cystatus CyDmaChGetRequest(uint8 chHandle) 
 539:Generated_Source\PSoC5/CyDmac.c **** {
 979              		.loc 1 539 0
 980              		.cfi_startproc
 981              		@ args = 0, pretend = 0, frame = 16
 982              		@ frame_needed = 1, uses_anonymous_args = 0
 983              		@ link register save eliminated.
 984 0000 80B4     		push	{r7}
 985              		.cfi_def_cfa_offset 4
 986              		.cfi_offset 7, -4
 987 0002 85B0     		sub	sp, sp, #20
 988              		.cfi_def_cfa_offset 24
 989 0004 00AF     		add	r7, sp, #0
 990              		.cfi_def_cfa_register 7
 991 0006 0346     		mov	r3, r0
 992 0008 FB71     		strb	r3, [r7, #7]
 540:Generated_Source\PSoC5/CyDmac.c ****     cystatus status = CY_DMA_INVALID_CHANNEL;
 993              		.loc 1 540 0
 994 000a FF23     		movs	r3, #255
 995 000c FB60     		str	r3, [r7, #12]
ARM GAS  C:\Users\HPz420\AppData\Local\Temp\ccfvmIQa.s 			page 28


 541:Generated_Source\PSoC5/CyDmac.c **** 
 542:Generated_Source\PSoC5/CyDmac.c ****     if(chHandle < CY_DMA_NUMBEROF_CHANNELS)
 996              		.loc 1 542 0
 997 000e FB79     		ldrb	r3, [r7, #7]	@ zero_extendqisi2
 998 0010 172B     		cmp	r3, #23
 999 0012 08D8     		bhi	.L69
 543:Generated_Source\PSoC5/CyDmac.c ****     {
 544:Generated_Source\PSoC5/CyDmac.c ****         status = (cystatus) ((uint32)CY_DMA_CH_STRUCT_PTR[chHandle].action[0u] &
 1000              		.loc 1 544 0
 1001 0014 FB79     		ldrb	r3, [r7, #7]	@ zero_extendqisi2
 1002 0016 1A01     		lsls	r2, r3, #4
 1003 0018 064B     		ldr	r3, .L71
 1004 001a 1344     		add	r3, r3, r2
 1005 001c 1B79     		ldrb	r3, [r3, #4]
 1006 001e DBB2     		uxtb	r3, r3
 1007 0020 03F00703 		and	r3, r3, #7
 1008 0024 FB60     		str	r3, [r7, #12]
 1009              	.L69:
 545:Generated_Source\PSoC5/CyDmac.c ****                             (uint32)(CY_DMA_CPU_REQ | CY_DMA_CPU_TERM_TD | CY_DMA_CPU_TERM_CHAIN));
 546:Generated_Source\PSoC5/CyDmac.c ****     }
 547:Generated_Source\PSoC5/CyDmac.c **** 
 548:Generated_Source\PSoC5/CyDmac.c ****     return(status);
 1010              		.loc 1 548 0
 1011 0026 FB68     		ldr	r3, [r7, #12]
 549:Generated_Source\PSoC5/CyDmac.c **** }
 1012              		.loc 1 549 0
 1013 0028 1846     		mov	r0, r3
 1014 002a 1437     		adds	r7, r7, #20
 1015              		.cfi_def_cfa_offset 4
 1016 002c BD46     		mov	sp, r7
 1017              		.cfi_def_cfa_register 13
 1018              		@ sp needed
 1019 002e 80BC     		pop	{r7}
 1020              		.cfi_restore 7
 1021              		.cfi_def_cfa_offset 0
 1022 0030 7047     		bx	lr
 1023              	.L72:
 1024 0032 00BF     		.align	2
 1025              	.L71:
 1026 0034 10700040 		.word	1073770512
 1027              		.cfi_endproc
 1028              	.LFE13:
 1029              		.size	CyDmaChGetRequest, .-CyDmaChGetRequest
 1030              		.section	.text.CyDmaChStatus,"ax",%progbits
 1031              		.align	2
 1032              		.global	CyDmaChStatus
 1033              		.thumb
 1034              		.thumb_func
 1035              		.type	CyDmaChStatus, %function
 1036              	CyDmaChStatus:
 1037              	.LFB14:
 550:Generated_Source\PSoC5/CyDmac.c **** 
 551:Generated_Source\PSoC5/CyDmac.c **** 
 552:Generated_Source\PSoC5/CyDmac.c **** /*******************************************************************************
 553:Generated_Source\PSoC5/CyDmac.c **** * Function Name: CyDmaChStatus
 554:Generated_Source\PSoC5/CyDmac.c **** ****************************************************************************//**
 555:Generated_Source\PSoC5/CyDmac.c **** *
ARM GAS  C:\Users\HPz420\AppData\Local\Temp\ccfvmIQa.s 			page 29


 556:Generated_Source\PSoC5/CyDmac.c **** *  Determines the status of the DMA channel.
 557:Generated_Source\PSoC5/CyDmac.c **** *
 558:Generated_Source\PSoC5/CyDmac.c **** *  \param chHandle A handle previously returned by \ref CyDmaChAlloc() or \ref
 559:Generated_Source\PSoC5/CyDmac.c **** *  DMA_DmaInitalize().
 560:Generated_Source\PSoC5/CyDmac.c **** *
 561:Generated_Source\PSoC5/CyDmac.c **** *  \param currentTd The address to store the index of the current TD. Can be NULL
 562:Generated_Source\PSoC5/CyDmac.c **** *  if the value is not needed.
 563:Generated_Source\PSoC5/CyDmac.c **** *
 564:Generated_Source\PSoC5/CyDmac.c **** *  \param state The address to store the state of the channel. Can be NULL if the
 565:Generated_Source\PSoC5/CyDmac.c **** *  value is not needed.
 566:Generated_Source\PSoC5/CyDmac.c **** *
 567:Generated_Source\PSoC5/CyDmac.c **** *   STATUS_TD_ACTIVE
 568:Generated_Source\PSoC5/CyDmac.c **** *    \param 0: Channel is not currently being serviced by DMAC
 569:Generated_Source\PSoC5/CyDmac.c **** *    \param 1: Channel is currently being serviced by DMAC
 570:Generated_Source\PSoC5/CyDmac.c **** *
 571:Generated_Source\PSoC5/CyDmac.c **** *   STATUS_CHAIN_ACTIVE
 572:Generated_Source\PSoC5/CyDmac.c **** *    \param 0: TD chain is inactive; either no DMA requests have triggered a new chain
 573:Generated_Source\PSoC5/CyDmac.c **** *       or the previous chain has completed.
 574:Generated_Source\PSoC5/CyDmac.c **** *    \param 1: TD chain has been triggered by a DMA request
 575:Generated_Source\PSoC5/CyDmac.c **** *
 576:Generated_Source\PSoC5/CyDmac.c **** * \return CYRET_SUCCESS if successful.
 577:Generated_Source\PSoC5/CyDmac.c **** * \return CYRET_BAD_PARAM if chHandle is invalid.
 578:Generated_Source\PSoC5/CyDmac.c **** *
 579:Generated_Source\PSoC5/CyDmac.c **** * Theory:
 580:Generated_Source\PSoC5/CyDmac.c **** *   The caller can check on the activity of the Current TD and the Chain.
 581:Generated_Source\PSoC5/CyDmac.c **** *
 582:Generated_Source\PSoC5/CyDmac.c **** *******************************************************************************/
 583:Generated_Source\PSoC5/CyDmac.c **** cystatus CyDmaChStatus(uint8 chHandle, uint8 * currentTd, uint8 * state) 
 584:Generated_Source\PSoC5/CyDmac.c **** {
 1038              		.loc 1 584 0
 1039              		.cfi_startproc
 1040              		@ args = 0, pretend = 0, frame = 24
 1041              		@ frame_needed = 1, uses_anonymous_args = 0
 1042              		@ link register save eliminated.
 1043 0000 80B4     		push	{r7}
 1044              		.cfi_def_cfa_offset 4
 1045              		.cfi_offset 7, -4
 1046 0002 87B0     		sub	sp, sp, #28
 1047              		.cfi_def_cfa_offset 32
 1048 0004 00AF     		add	r7, sp, #0
 1049              		.cfi_def_cfa_register 7
 1050 0006 0346     		mov	r3, r0
 1051 0008 B960     		str	r1, [r7, #8]
 1052 000a 7A60     		str	r2, [r7, #4]
 1053 000c FB73     		strb	r3, [r7, #15]
 585:Generated_Source\PSoC5/CyDmac.c ****     cystatus status = CYRET_BAD_PARAM;
 1054              		.loc 1 585 0
 1055 000e 0123     		movs	r3, #1
 1056 0010 7B61     		str	r3, [r7, #20]
 586:Generated_Source\PSoC5/CyDmac.c **** 
 587:Generated_Source\PSoC5/CyDmac.c ****     if(chHandle < CY_DMA_NUMBEROF_CHANNELS)
 1057              		.loc 1 587 0
 1058 0012 FB7B     		ldrb	r3, [r7, #15]	@ zero_extendqisi2
 1059 0014 172B     		cmp	r3, #23
 1060 0016 1AD8     		bhi	.L74
 588:Generated_Source\PSoC5/CyDmac.c ****     {
 589:Generated_Source\PSoC5/CyDmac.c ****         if(NULL != currentTd)
ARM GAS  C:\Users\HPz420\AppData\Local\Temp\ccfvmIQa.s 			page 30


 1061              		.loc 1 589 0
 1062 0018 BB68     		ldr	r3, [r7, #8]
 1063 001a 002B     		cmp	r3, #0
 1064 001c 0AD0     		beq	.L75
 590:Generated_Source\PSoC5/CyDmac.c ****         {
 591:Generated_Source\PSoC5/CyDmac.c ****             *currentTd = CY_DMA_CH_STRUCT_PTR[chHandle].basic_status[1] & 0x7Fu;
 1065              		.loc 1 591 0
 1066 001e FB7B     		ldrb	r3, [r7, #15]	@ zero_extendqisi2
 1067 0020 1A01     		lsls	r2, r3, #4
 1068 0022 0E4B     		ldr	r3, .L78
 1069 0024 1344     		add	r3, r3, r2
 1070 0026 5B7A     		ldrb	r3, [r3, #9]
 1071 0028 DBB2     		uxtb	r3, r3
 1072 002a 03F07F03 		and	r3, r3, #127
 1073 002e DAB2     		uxtb	r2, r3
 1074 0030 BB68     		ldr	r3, [r7, #8]
 1075 0032 1A70     		strb	r2, [r3]
 1076              	.L75:
 592:Generated_Source\PSoC5/CyDmac.c ****         }
 593:Generated_Source\PSoC5/CyDmac.c **** 
 594:Generated_Source\PSoC5/CyDmac.c ****         if(NULL != state)
 1077              		.loc 1 594 0
 1078 0034 7B68     		ldr	r3, [r7, #4]
 1079 0036 002B     		cmp	r3, #0
 1080 0038 07D0     		beq	.L76
 595:Generated_Source\PSoC5/CyDmac.c ****         {
 596:Generated_Source\PSoC5/CyDmac.c ****             *state= CY_DMA_CH_STRUCT_PTR[chHandle].basic_status[0];
 1081              		.loc 1 596 0
 1082 003a FB7B     		ldrb	r3, [r7, #15]	@ zero_extendqisi2
 1083 003c 1A01     		lsls	r2, r3, #4
 1084 003e 074B     		ldr	r3, .L78
 1085 0040 1344     		add	r3, r3, r2
 1086 0042 1B7A     		ldrb	r3, [r3, #8]
 1087 0044 DAB2     		uxtb	r2, r3
 1088 0046 7B68     		ldr	r3, [r7, #4]
 1089 0048 1A70     		strb	r2, [r3]
 1090              	.L76:
 597:Generated_Source\PSoC5/CyDmac.c ****         }
 598:Generated_Source\PSoC5/CyDmac.c **** 
 599:Generated_Source\PSoC5/CyDmac.c ****         status = CYRET_SUCCESS;
 1091              		.loc 1 599 0
 1092 004a 0023     		movs	r3, #0
 1093 004c 7B61     		str	r3, [r7, #20]
 1094              	.L74:
 600:Generated_Source\PSoC5/CyDmac.c ****     }
 601:Generated_Source\PSoC5/CyDmac.c **** 
 602:Generated_Source\PSoC5/CyDmac.c ****     return (status);
 1095              		.loc 1 602 0
 1096 004e 7B69     		ldr	r3, [r7, #20]
 603:Generated_Source\PSoC5/CyDmac.c **** }
 1097              		.loc 1 603 0
 1098 0050 1846     		mov	r0, r3
 1099 0052 1C37     		adds	r7, r7, #28
 1100              		.cfi_def_cfa_offset 4
 1101 0054 BD46     		mov	sp, r7
 1102              		.cfi_def_cfa_register 13
 1103              		@ sp needed
ARM GAS  C:\Users\HPz420\AppData\Local\Temp\ccfvmIQa.s 			page 31


 1104 0056 80BC     		pop	{r7}
 1105              		.cfi_restore 7
 1106              		.cfi_def_cfa_offset 0
 1107 0058 7047     		bx	lr
 1108              	.L79:
 1109 005a 00BF     		.align	2
 1110              	.L78:
 1111 005c 10700040 		.word	1073770512
 1112              		.cfi_endproc
 1113              	.LFE14:
 1114              		.size	CyDmaChStatus, .-CyDmaChStatus
 1115              		.section	.text.CyDmaChSetConfiguration,"ax",%progbits
 1116              		.align	2
 1117              		.global	CyDmaChSetConfiguration
 1118              		.thumb
 1119              		.thumb_func
 1120              		.type	CyDmaChSetConfiguration, %function
 1121              	CyDmaChSetConfiguration:
 1122              	.LFB15:
 604:Generated_Source\PSoC5/CyDmac.c **** 
 605:Generated_Source\PSoC5/CyDmac.c **** 
 606:Generated_Source\PSoC5/CyDmac.c **** /*******************************************************************************
 607:Generated_Source\PSoC5/CyDmac.c **** * Function Name: CyDmaChSetConfiguration
 608:Generated_Source\PSoC5/CyDmac.c **** ****************************************************************************//**
 609:Generated_Source\PSoC5/CyDmac.c **** *
 610:Generated_Source\PSoC5/CyDmac.c **** * Sets configuration information of the channel.
 611:Generated_Source\PSoC5/CyDmac.c **** *
 612:Generated_Source\PSoC5/CyDmac.c **** *  \param uint8 chHandle:
 613:Generated_Source\PSoC5/CyDmac.c **** *   A handle previously returned by CyDmaChAlloc() or DMA_DmaInitialize().
 614:Generated_Source\PSoC5/CyDmac.c **** *
 615:Generated_Source\PSoC5/CyDmac.c **** *  \param uint8 burstCount:
 616:Generated_Source\PSoC5/CyDmac.c **** *   Specifies the size of bursts (1 to 127) the data transfer should be divided
 617:Generated_Source\PSoC5/CyDmac.c **** *   into. If this value is zero then the whole transfer is done in one burst.
 618:Generated_Source\PSoC5/CyDmac.c **** *
 619:Generated_Source\PSoC5/CyDmac.c **** *  \param uint8 requestPerBurst:
 620:Generated_Source\PSoC5/CyDmac.c **** *   The whole of the data can be split into multiple bursts, if this is
 621:Generated_Source\PSoC5/CyDmac.c **** *   \param required to complete the transaction:
 622:Generated_Source\PSoC5/CyDmac.c **** *    \param 0: All subsequent bursts after the first burst will be automatically
 623:Generated_Source\PSoC5/CyDmac.c **** *       requested and carried out
 624:Generated_Source\PSoC5/CyDmac.c **** *    \param 1: All subsequent bursts after the first burst must also be individually
 625:Generated_Source\PSoC5/CyDmac.c **** *       requested.
 626:Generated_Source\PSoC5/CyDmac.c **** *
 627:Generated_Source\PSoC5/CyDmac.c **** *  \param uint8 tdDone0:
 628:Generated_Source\PSoC5/CyDmac.c **** *   Selects one of the TERMOUT0 interrupt lines to signal completion. The line
 629:Generated_Source\PSoC5/CyDmac.c **** *   connected to the nrq terminal will determine the TERMOUT0_SEL definition and
 630:Generated_Source\PSoC5/CyDmac.c **** *   should be used as supplied by cyfitter.h
 631:Generated_Source\PSoC5/CyDmac.c **** *
 632:Generated_Source\PSoC5/CyDmac.c **** *  \param uint8 tdDone1:
 633:Generated_Source\PSoC5/CyDmac.c **** *   Selects one of the TERMOUT1 interrupt lines to signal completion. The line
 634:Generated_Source\PSoC5/CyDmac.c **** *   connected to the nrq terminal will determine the TERMOUT1_SEL definition and
 635:Generated_Source\PSoC5/CyDmac.c **** *   should be used as supplied by cyfitter.h
 636:Generated_Source\PSoC5/CyDmac.c **** *
 637:Generated_Source\PSoC5/CyDmac.c **** *  \param uint8 tdStop:
 638:Generated_Source\PSoC5/CyDmac.c **** *   Selects one of the TERMIN interrupt lines to signal to the DMAC that the TD
 639:Generated_Source\PSoC5/CyDmac.c **** *   should terminate. The signal connected to the trq terminal will determine
 640:Generated_Source\PSoC5/CyDmac.c **** *   which TERMIN (termination request) is used.
 641:Generated_Source\PSoC5/CyDmac.c **** *
ARM GAS  C:\Users\HPz420\AppData\Local\Temp\ccfvmIQa.s 			page 32


 642:Generated_Source\PSoC5/CyDmac.c **** * \return
 643:Generated_Source\PSoC5/CyDmac.c **** *  CYRET_SUCCESS if successful.
 644:Generated_Source\PSoC5/CyDmac.c **** *  CYRET_BAD_PARAM if chHandle is invalid.
 645:Generated_Source\PSoC5/CyDmac.c **** *
 646:Generated_Source\PSoC5/CyDmac.c **** *******************************************************************************/
 647:Generated_Source\PSoC5/CyDmac.c **** cystatus CyDmaChSetConfiguration(uint8 chHandle, uint8 burstCount, uint8 requestPerBurst,
 648:Generated_Source\PSoC5/CyDmac.c ****                                  uint8 tdDone0, uint8 tdDone1, uint8 tdStop) 
 649:Generated_Source\PSoC5/CyDmac.c **** {
 1123              		.loc 1 649 0
 1124              		.cfi_startproc
 1125              		@ args = 8, pretend = 0, frame = 16
 1126              		@ frame_needed = 1, uses_anonymous_args = 0
 1127              		@ link register save eliminated.
 1128 0000 90B4     		push	{r4, r7}
 1129              		.cfi_def_cfa_offset 8
 1130              		.cfi_offset 4, -8
 1131              		.cfi_offset 7, -4
 1132 0002 84B0     		sub	sp, sp, #16
 1133              		.cfi_def_cfa_offset 24
 1134 0004 00AF     		add	r7, sp, #0
 1135              		.cfi_def_cfa_register 7
 1136 0006 0446     		mov	r4, r0
 1137 0008 0846     		mov	r0, r1
 1138 000a 1146     		mov	r1, r2
 1139 000c 1A46     		mov	r2, r3
 1140 000e 2346     		mov	r3, r4
 1141 0010 FB71     		strb	r3, [r7, #7]
 1142 0012 0346     		mov	r3, r0
 1143 0014 BB71     		strb	r3, [r7, #6]
 1144 0016 0B46     		mov	r3, r1
 1145 0018 7B71     		strb	r3, [r7, #5]
 1146 001a 1346     		mov	r3, r2
 1147 001c 3B71     		strb	r3, [r7, #4]
 650:Generated_Source\PSoC5/CyDmac.c ****     cystatus status = CYRET_BAD_PARAM;
 1148              		.loc 1 650 0
 1149 001e 0123     		movs	r3, #1
 1150 0020 FB60     		str	r3, [r7, #12]
 651:Generated_Source\PSoC5/CyDmac.c **** 
 652:Generated_Source\PSoC5/CyDmac.c ****     if(chHandle < CY_DMA_NUMBEROF_CHANNELS)
 1151              		.loc 1 652 0
 1152 0022 FB79     		ldrb	r3, [r7, #7]	@ zero_extendqisi2
 1153 0024 172B     		cmp	r3, #23
 1154 0026 34D8     		bhi	.L81
 653:Generated_Source\PSoC5/CyDmac.c ****     {
 654:Generated_Source\PSoC5/CyDmac.c ****         CY_DMA_CFGMEM_STRUCT_PTR[chHandle].CFG0[0] = (burstCount & 0x7Fu) | ((uint8)((requestPerBur
 1155              		.loc 1 654 0
 1156 0028 FB79     		ldrb	r3, [r7, #7]	@ zero_extendqisi2
 1157 002a DB00     		lsls	r3, r3, #3
 1158 002c 03F18043 		add	r3, r3, #1073741824
 1159 0030 03F5EC43 		add	r3, r3, #30208
 1160 0034 BA79     		ldrb	r2, [r7, #6]
 1161 0036 02F07F02 		and	r2, r2, #127
 1162 003a D1B2     		uxtb	r1, r2
 1163 003c 7A79     		ldrb	r2, [r7, #5]
 1164 003e D201     		lsls	r2, r2, #7
 1165 0040 D2B2     		uxtb	r2, r2
 1166 0042 0A43     		orrs	r2, r2, r1
ARM GAS  C:\Users\HPz420\AppData\Local\Temp\ccfvmIQa.s 			page 33


 1167 0044 D2B2     		uxtb	r2, r2
 1168 0046 1A70     		strb	r2, [r3]
 655:Generated_Source\PSoC5/CyDmac.c ****         CY_DMA_CFGMEM_STRUCT_PTR[chHandle].CFG0[1] = ((uint8)((tdDone1 & 0xFu) << 4u)) | (tdDone0 &
 1169              		.loc 1 655 0
 1170 0048 FB79     		ldrb	r3, [r7, #7]	@ zero_extendqisi2
 1171 004a DB00     		lsls	r3, r3, #3
 1172 004c 03F18043 		add	r3, r3, #1073741824
 1173 0050 03F5EC43 		add	r3, r3, #30208
 1174 0054 3A7E     		ldrb	r2, [r7, #24]
 1175 0056 1201     		lsls	r2, r2, #4
 1176 0058 D1B2     		uxtb	r1, r2
 1177 005a 3A79     		ldrb	r2, [r7, #4]
 1178 005c 02F00F02 		and	r2, r2, #15
 1179 0060 D2B2     		uxtb	r2, r2
 1180 0062 0A43     		orrs	r2, r2, r1
 1181 0064 D2B2     		uxtb	r2, r2
 1182 0066 5A70     		strb	r2, [r3, #1]
 656:Generated_Source\PSoC5/CyDmac.c ****         CY_DMA_CFGMEM_STRUCT_PTR[chHandle].CFG0[2] = 0x0Fu & tdStop;
 1183              		.loc 1 656 0
 1184 0068 FB79     		ldrb	r3, [r7, #7]	@ zero_extendqisi2
 1185 006a DB00     		lsls	r3, r3, #3
 1186 006c 03F18043 		add	r3, r3, #1073741824
 1187 0070 03F5EC43 		add	r3, r3, #30208
 1188 0074 3A7F     		ldrb	r2, [r7, #28]
 1189 0076 02F00F02 		and	r2, r2, #15
 1190 007a D2B2     		uxtb	r2, r2
 1191 007c 9A70     		strb	r2, [r3, #2]
 657:Generated_Source\PSoC5/CyDmac.c ****         CY_DMA_CFGMEM_STRUCT_PTR[chHandle].CFG0[3] = 0u; /* burstcount_remain. */
 1192              		.loc 1 657 0
 1193 007e FB79     		ldrb	r3, [r7, #7]	@ zero_extendqisi2
 1194 0080 DB00     		lsls	r3, r3, #3
 1195 0082 03F18043 		add	r3, r3, #1073741824
 1196 0086 03F5EC43 		add	r3, r3, #30208
 1197 008a 0022     		movs	r2, #0
 1198 008c DA70     		strb	r2, [r3, #3]
 658:Generated_Source\PSoC5/CyDmac.c **** 
 659:Generated_Source\PSoC5/CyDmac.c ****         status = CYRET_SUCCESS;
 1199              		.loc 1 659 0
 1200 008e 0023     		movs	r3, #0
 1201 0090 FB60     		str	r3, [r7, #12]
 1202              	.L81:
 660:Generated_Source\PSoC5/CyDmac.c ****     }
 661:Generated_Source\PSoC5/CyDmac.c **** 
 662:Generated_Source\PSoC5/CyDmac.c ****     return (status);
 1203              		.loc 1 662 0
 1204 0092 FB68     		ldr	r3, [r7, #12]
 663:Generated_Source\PSoC5/CyDmac.c **** }
 1205              		.loc 1 663 0
 1206 0094 1846     		mov	r0, r3
 1207 0096 1037     		adds	r7, r7, #16
 1208              		.cfi_def_cfa_offset 8
 1209 0098 BD46     		mov	sp, r7
 1210              		.cfi_def_cfa_register 13
 1211              		@ sp needed
 1212 009a 90BC     		pop	{r4, r7}
 1213              		.cfi_restore 7
 1214              		.cfi_restore 4
ARM GAS  C:\Users\HPz420\AppData\Local\Temp\ccfvmIQa.s 			page 34


 1215              		.cfi_def_cfa_offset 0
 1216 009c 7047     		bx	lr
 1217              		.cfi_endproc
 1218              	.LFE15:
 1219              		.size	CyDmaChSetConfiguration, .-CyDmaChSetConfiguration
 1220 009e 00BF     		.section	.text.CyDmaTdAllocate,"ax",%progbits
 1221              		.align	2
 1222              		.global	CyDmaTdAllocate
 1223              		.thumb
 1224              		.thumb_func
 1225              		.type	CyDmaTdAllocate, %function
 1226              	CyDmaTdAllocate:
 1227              	.LFB16:
 664:Generated_Source\PSoC5/CyDmac.c **** 
 665:Generated_Source\PSoC5/CyDmac.c **** 
 666:Generated_Source\PSoC5/CyDmac.c **** /*******************************************************************************
 667:Generated_Source\PSoC5/CyDmac.c **** * Function Name: CyDmaTdAllocate
 668:Generated_Source\PSoC5/CyDmac.c **** ****************************************************************************//**
 669:Generated_Source\PSoC5/CyDmac.c **** *
 670:Generated_Source\PSoC5/CyDmac.c **** *  Allocates a TD for use with an allocated DMA channel.
 671:Generated_Source\PSoC5/CyDmac.c **** *
 672:Generated_Source\PSoC5/CyDmac.c **** * \return
 673:Generated_Source\PSoC5/CyDmac.c **** *  Zero-based index of the TD to be used by the caller. Since there are 128 TDs
 674:Generated_Source\PSoC5/CyDmac.c **** *  minus the reserved TDs (0 to 23), the value returned would range from 24 to
 675:Generated_Source\PSoC5/CyDmac.c **** *  127 not 24 to 128. DMA_INVALID_TD is returned if there are no free TDs
 676:Generated_Source\PSoC5/CyDmac.c **** *  available.
 677:Generated_Source\PSoC5/CyDmac.c **** *
 678:Generated_Source\PSoC5/CyDmac.c **** *******************************************************************************/
 679:Generated_Source\PSoC5/CyDmac.c **** uint8 CyDmaTdAllocate(void) 
 680:Generated_Source\PSoC5/CyDmac.c **** {
 1228              		.loc 1 680 0
 1229              		.cfi_startproc
 1230              		@ args = 0, pretend = 0, frame = 8
 1231              		@ frame_needed = 1, uses_anonymous_args = 0
 1232 0000 80B5     		push	{r7, lr}
 1233              		.cfi_def_cfa_offset 8
 1234              		.cfi_offset 7, -8
 1235              		.cfi_offset 14, -4
 1236 0002 82B0     		sub	sp, sp, #8
 1237              		.cfi_def_cfa_offset 16
 1238 0004 00AF     		add	r7, sp, #0
 1239              		.cfi_def_cfa_register 7
 681:Generated_Source\PSoC5/CyDmac.c ****     uint8 interruptState;
 682:Generated_Source\PSoC5/CyDmac.c ****     uint8 element = CY_DMA_INVALID_TD;
 1240              		.loc 1 682 0
 1241 0006 FF23     		movs	r3, #255
 1242 0008 FB71     		strb	r3, [r7, #7]
 683:Generated_Source\PSoC5/CyDmac.c **** 
 684:Generated_Source\PSoC5/CyDmac.c ****     /* Enter critical section! */
 685:Generated_Source\PSoC5/CyDmac.c ****     interruptState = CyEnterCriticalSection();
 1243              		.loc 1 685 0
 1244 000a FFF7FEFF 		bl	CyEnterCriticalSection
 1245 000e 0346     		mov	r3, r0
 1246 0010 BB71     		strb	r3, [r7, #6]
 686:Generated_Source\PSoC5/CyDmac.c **** 
 687:Generated_Source\PSoC5/CyDmac.c ****     if(CyDmaTdCurrentNumber > NUMBEROF_CHANNELS)
 1247              		.loc 1 687 0
ARM GAS  C:\Users\HPz420\AppData\Local\Temp\ccfvmIQa.s 			page 35


 1248 0012 104B     		ldr	r3, .L86
 1249 0014 1B78     		ldrb	r3, [r3]	@ zero_extendqisi2
 1250 0016 182B     		cmp	r3, #24
 1251 0018 12D9     		bls	.L84
 688:Generated_Source\PSoC5/CyDmac.c ****     {
 689:Generated_Source\PSoC5/CyDmac.c ****         /* Get pointer to Next available. */
 690:Generated_Source\PSoC5/CyDmac.c ****         element = CyDmaTdFreeIndex;
 1252              		.loc 1 690 0
 1253 001a 0F4B     		ldr	r3, .L86+4
 1254 001c 1B78     		ldrb	r3, [r3]
 1255 001e FB71     		strb	r3, [r7, #7]
 691:Generated_Source\PSoC5/CyDmac.c **** 
 692:Generated_Source\PSoC5/CyDmac.c ****         /* Decrement the count. */
 693:Generated_Source\PSoC5/CyDmac.c ****         CyDmaTdCurrentNumber--;
 1256              		.loc 1 693 0
 1257 0020 0C4B     		ldr	r3, .L86
 1258 0022 1B78     		ldrb	r3, [r3]	@ zero_extendqisi2
 1259 0024 013B     		subs	r3, r3, #1
 1260 0026 DAB2     		uxtb	r2, r3
 1261 0028 0A4B     		ldr	r3, .L86
 1262 002a 1A70     		strb	r2, [r3]
 694:Generated_Source\PSoC5/CyDmac.c **** 
 695:Generated_Source\PSoC5/CyDmac.c ****         /* Update next available pointer. */
 696:Generated_Source\PSoC5/CyDmac.c ****         CyDmaTdFreeIndex = CY_DMA_TDMEM_STRUCT_PTR[element].TD0[0];
 1263              		.loc 1 696 0
 1264 002c FB79     		ldrb	r3, [r7, #7]	@ zero_extendqisi2
 1265 002e DB00     		lsls	r3, r3, #3
 1266 0030 03F18043 		add	r3, r3, #1073741824
 1267 0034 03F5F043 		add	r3, r3, #30720
 1268 0038 1B78     		ldrb	r3, [r3]
 1269 003a DAB2     		uxtb	r2, r3
 1270 003c 064B     		ldr	r3, .L86+4
 1271 003e 1A70     		strb	r2, [r3]
 1272              	.L84:
 697:Generated_Source\PSoC5/CyDmac.c ****     }
 698:Generated_Source\PSoC5/CyDmac.c **** 
 699:Generated_Source\PSoC5/CyDmac.c ****     /* Exit critical section! */
 700:Generated_Source\PSoC5/CyDmac.c ****     CyExitCriticalSection(interruptState);
 1273              		.loc 1 700 0
 1274 0040 BB79     		ldrb	r3, [r7, #6]	@ zero_extendqisi2
 1275 0042 1846     		mov	r0, r3
 1276 0044 FFF7FEFF 		bl	CyExitCriticalSection
 701:Generated_Source\PSoC5/CyDmac.c **** 
 702:Generated_Source\PSoC5/CyDmac.c ****     return(element);
 1277              		.loc 1 702 0
 1278 0048 FB79     		ldrb	r3, [r7, #7]	@ zero_extendqisi2
 703:Generated_Source\PSoC5/CyDmac.c **** }
 1279              		.loc 1 703 0
 1280 004a 1846     		mov	r0, r3
 1281 004c 0837     		adds	r7, r7, #8
 1282              		.cfi_def_cfa_offset 8
 1283 004e BD46     		mov	sp, r7
 1284              		.cfi_def_cfa_register 13
 1285              		@ sp needed
 1286 0050 80BD     		pop	{r7, pc}
 1287              	.L87:
 1288 0052 00BF     		.align	2
ARM GAS  C:\Users\HPz420\AppData\Local\Temp\ccfvmIQa.s 			page 36


 1289              	.L86:
 1290 0054 00000000 		.word	CyDmaTdCurrentNumber
 1291 0058 01000000 		.word	CyDmaTdFreeIndex
 1292              		.cfi_endproc
 1293              	.LFE16:
 1294              		.size	CyDmaTdAllocate, .-CyDmaTdAllocate
 1295              		.section	.text.CyDmaTdFree,"ax",%progbits
 1296              		.align	2
 1297              		.global	CyDmaTdFree
 1298              		.thumb
 1299              		.thumb_func
 1300              		.type	CyDmaTdFree, %function
 1301              	CyDmaTdFree:
 1302              	.LFB17:
 704:Generated_Source\PSoC5/CyDmac.c **** 
 705:Generated_Source\PSoC5/CyDmac.c **** 
 706:Generated_Source\PSoC5/CyDmac.c **** /*******************************************************************************
 707:Generated_Source\PSoC5/CyDmac.c **** * Function Name: CyDmaTdFree
 708:Generated_Source\PSoC5/CyDmac.c **** ****************************************************************************//**
 709:Generated_Source\PSoC5/CyDmac.c **** *
 710:Generated_Source\PSoC5/CyDmac.c **** *  Returns a TD to the free list.
 711:Generated_Source\PSoC5/CyDmac.c **** *
 712:Generated_Source\PSoC5/CyDmac.c **** *  \param uint8 tdHandle:
 713:Generated_Source\PSoC5/CyDmac.c **** *   The TD handle returned by the CyDmaTdAllocate().
 714:Generated_Source\PSoC5/CyDmac.c **** *
 715:Generated_Source\PSoC5/CyDmac.c **** *******************************************************************************/
 716:Generated_Source\PSoC5/CyDmac.c **** void CyDmaTdFree(uint8 tdHandle) 
 717:Generated_Source\PSoC5/CyDmac.c **** {
 1303              		.loc 1 717 0
 1304              		.cfi_startproc
 1305              		@ args = 0, pretend = 0, frame = 16
 1306              		@ frame_needed = 1, uses_anonymous_args = 0
 1307 0000 80B5     		push	{r7, lr}
 1308              		.cfi_def_cfa_offset 8
 1309              		.cfi_offset 7, -8
 1310              		.cfi_offset 14, -4
 1311 0002 84B0     		sub	sp, sp, #16
 1312              		.cfi_def_cfa_offset 24
 1313 0004 00AF     		add	r7, sp, #0
 1314              		.cfi_def_cfa_register 7
 1315 0006 0346     		mov	r3, r0
 1316 0008 FB71     		strb	r3, [r7, #7]
 718:Generated_Source\PSoC5/CyDmac.c ****     if(tdHandle < CY_DMA_NUMBEROF_TDS)
 1317              		.loc 1 718 0
 1318 000a 97F90730 		ldrsb	r3, [r7, #7]
 1319 000e 002B     		cmp	r3, #0
 1320 0010 19DB     		blt	.L90
 1321              	.LBB2:
 719:Generated_Source\PSoC5/CyDmac.c ****     {
 720:Generated_Source\PSoC5/CyDmac.c ****         /* Enter critical section! */
 721:Generated_Source\PSoC5/CyDmac.c ****         uint8 interruptState = CyEnterCriticalSection();
 1322              		.loc 1 721 0
 1323 0012 FFF7FEFF 		bl	CyEnterCriticalSection
 1324 0016 0346     		mov	r3, r0
 1325 0018 FB73     		strb	r3, [r7, #15]
 722:Generated_Source\PSoC5/CyDmac.c **** 
 723:Generated_Source\PSoC5/CyDmac.c ****         /* Get pointer to Next available. */
ARM GAS  C:\Users\HPz420\AppData\Local\Temp\ccfvmIQa.s 			page 37


 724:Generated_Source\PSoC5/CyDmac.c ****         CY_DMA_TDMEM_STRUCT_PTR[tdHandle].TD0[0u] = CyDmaTdFreeIndex;
 1326              		.loc 1 724 0
 1327 001a FB79     		ldrb	r3, [r7, #7]	@ zero_extendqisi2
 1328 001c DB00     		lsls	r3, r3, #3
 1329 001e 03F18043 		add	r3, r3, #1073741824
 1330 0022 03F5F043 		add	r3, r3, #30720
 1331 0026 0A4A     		ldr	r2, .L91
 1332 0028 1278     		ldrb	r2, [r2]	@ zero_extendqisi2
 1333 002a 1A70     		strb	r2, [r3]
 725:Generated_Source\PSoC5/CyDmac.c **** 
 726:Generated_Source\PSoC5/CyDmac.c ****         /* Set new Next Available. */
 727:Generated_Source\PSoC5/CyDmac.c ****         CyDmaTdFreeIndex = tdHandle;
 1334              		.loc 1 727 0
 1335 002c 084A     		ldr	r2, .L91
 1336 002e FB79     		ldrb	r3, [r7, #7]
 1337 0030 1370     		strb	r3, [r2]
 728:Generated_Source\PSoC5/CyDmac.c **** 
 729:Generated_Source\PSoC5/CyDmac.c ****         /* Keep track of how many left. */
 730:Generated_Source\PSoC5/CyDmac.c ****         CyDmaTdCurrentNumber++;
 1338              		.loc 1 730 0
 1339 0032 084B     		ldr	r3, .L91+4
 1340 0034 1B78     		ldrb	r3, [r3]	@ zero_extendqisi2
 1341 0036 0133     		adds	r3, r3, #1
 1342 0038 DAB2     		uxtb	r2, r3
 1343 003a 064B     		ldr	r3, .L91+4
 1344 003c 1A70     		strb	r2, [r3]
 731:Generated_Source\PSoC5/CyDmac.c **** 
 732:Generated_Source\PSoC5/CyDmac.c ****         /* Exit critical section! */
 733:Generated_Source\PSoC5/CyDmac.c ****         CyExitCriticalSection(interruptState);
 1345              		.loc 1 733 0
 1346 003e FB7B     		ldrb	r3, [r7, #15]	@ zero_extendqisi2
 1347 0040 1846     		mov	r0, r3
 1348 0042 FFF7FEFF 		bl	CyExitCriticalSection
 1349              	.L90:
 1350              	.LBE2:
 734:Generated_Source\PSoC5/CyDmac.c ****     }
 735:Generated_Source\PSoC5/CyDmac.c **** }
 1351              		.loc 1 735 0
 1352 0046 00BF     		nop
 1353 0048 1037     		adds	r7, r7, #16
 1354              		.cfi_def_cfa_offset 8
 1355 004a BD46     		mov	sp, r7
 1356              		.cfi_def_cfa_register 13
 1357              		@ sp needed
 1358 004c 80BD     		pop	{r7, pc}
 1359              	.L92:
 1360 004e 00BF     		.align	2
 1361              	.L91:
 1362 0050 01000000 		.word	CyDmaTdFreeIndex
 1363 0054 00000000 		.word	CyDmaTdCurrentNumber
 1364              		.cfi_endproc
 1365              	.LFE17:
 1366              		.size	CyDmaTdFree, .-CyDmaTdFree
 1367              		.section	.text.CyDmaTdFreeCount,"ax",%progbits
 1368              		.align	2
 1369              		.global	CyDmaTdFreeCount
 1370              		.thumb
ARM GAS  C:\Users\HPz420\AppData\Local\Temp\ccfvmIQa.s 			page 38


 1371              		.thumb_func
 1372              		.type	CyDmaTdFreeCount, %function
 1373              	CyDmaTdFreeCount:
 1374              	.LFB18:
 736:Generated_Source\PSoC5/CyDmac.c **** 
 737:Generated_Source\PSoC5/CyDmac.c **** 
 738:Generated_Source\PSoC5/CyDmac.c **** /*******************************************************************************
 739:Generated_Source\PSoC5/CyDmac.c **** * Function Name: CyDmaTdFreeCount
 740:Generated_Source\PSoC5/CyDmac.c **** ****************************************************************************//**
 741:Generated_Source\PSoC5/CyDmac.c **** *
 742:Generated_Source\PSoC5/CyDmac.c **** *  Returns the number of free TDs available to be allocated.
 743:Generated_Source\PSoC5/CyDmac.c **** *
 744:Generated_Source\PSoC5/CyDmac.c **** * \return
 745:Generated_Source\PSoC5/CyDmac.c **** *  The number of free TDs.
 746:Generated_Source\PSoC5/CyDmac.c **** *
 747:Generated_Source\PSoC5/CyDmac.c **** *******************************************************************************/
 748:Generated_Source\PSoC5/CyDmac.c **** uint8 CyDmaTdFreeCount(void) 
 749:Generated_Source\PSoC5/CyDmac.c **** {
 1375              		.loc 1 749 0
 1376              		.cfi_startproc
 1377              		@ args = 0, pretend = 0, frame = 0
 1378              		@ frame_needed = 1, uses_anonymous_args = 0
 1379              		@ link register save eliminated.
 1380 0000 80B4     		push	{r7}
 1381              		.cfi_def_cfa_offset 4
 1382              		.cfi_offset 7, -4
 1383 0002 00AF     		add	r7, sp, #0
 1384              		.cfi_def_cfa_register 7
 750:Generated_Source\PSoC5/CyDmac.c ****     return(CyDmaTdCurrentNumber - CY_DMA_NUMBEROF_CHANNELS);
 1385              		.loc 1 750 0
 1386 0004 034B     		ldr	r3, .L95
 1387 0006 1B78     		ldrb	r3, [r3]	@ zero_extendqisi2
 1388 0008 183B     		subs	r3, r3, #24
 1389 000a DBB2     		uxtb	r3, r3
 751:Generated_Source\PSoC5/CyDmac.c **** }
 1390              		.loc 1 751 0
 1391 000c 1846     		mov	r0, r3
 1392 000e BD46     		mov	sp, r7
 1393              		.cfi_def_cfa_register 13
 1394              		@ sp needed
 1395 0010 80BC     		pop	{r7}
 1396              		.cfi_restore 7
 1397              		.cfi_def_cfa_offset 0
 1398 0012 7047     		bx	lr
 1399              	.L96:
 1400              		.align	2
 1401              	.L95:
 1402 0014 00000000 		.word	CyDmaTdCurrentNumber
 1403              		.cfi_endproc
 1404              	.LFE18:
 1405              		.size	CyDmaTdFreeCount, .-CyDmaTdFreeCount
 1406              		.section	.text.CyDmaTdSetConfiguration,"ax",%progbits
 1407              		.align	2
 1408              		.global	CyDmaTdSetConfiguration
 1409              		.thumb
 1410              		.thumb_func
 1411              		.type	CyDmaTdSetConfiguration, %function
ARM GAS  C:\Users\HPz420\AppData\Local\Temp\ccfvmIQa.s 			page 39


 1412              	CyDmaTdSetConfiguration:
 1413              	.LFB19:
 752:Generated_Source\PSoC5/CyDmac.c **** 
 753:Generated_Source\PSoC5/CyDmac.c **** 
 754:Generated_Source\PSoC5/CyDmac.c **** /*******************************************************************************
 755:Generated_Source\PSoC5/CyDmac.c **** * Function Name: CyDmaTdSetConfiguration
 756:Generated_Source\PSoC5/CyDmac.c **** ****************************************************************************//**
 757:Generated_Source\PSoC5/CyDmac.c **** *
 758:Generated_Source\PSoC5/CyDmac.c **** *  Configures the TD.
 759:Generated_Source\PSoC5/CyDmac.c **** *
 760:Generated_Source\PSoC5/CyDmac.c **** *  \param uint8 tdHandle:
 761:Generated_Source\PSoC5/CyDmac.c **** *   A handle previously returned by CyDmaTdAlloc().
 762:Generated_Source\PSoC5/CyDmac.c **** *
 763:Generated_Source\PSoC5/CyDmac.c **** *  \param uint16 transferCount:
 764:Generated_Source\PSoC5/CyDmac.c **** *   The size of the data transfer (in bytes) for this TD. A size of zero will
 765:Generated_Source\PSoC5/CyDmac.c **** *   cause the transfer to continue indefinitely. This parameter is limited to
 766:Generated_Source\PSoC5/CyDmac.c **** *   4095 bytes; the TD is not initialized at all when a higher value is passed.
 767:Generated_Source\PSoC5/CyDmac.c **** *
 768:Generated_Source\PSoC5/CyDmac.c **** *  \param uint8 nextTd:
 769:Generated_Source\PSoC5/CyDmac.c **** *   Zero based index of the next Transfer Descriptor in the TD chain. Zero is a
 770:Generated_Source\PSoC5/CyDmac.c **** *   valid pointer to the next TD; DMA_END_CHAIN_TD is the end of the chain.
 771:Generated_Source\PSoC5/CyDmac.c **** *   DMA_DISABLE_TD indicates an end to the chain and the DMA is disabled. No
 772:Generated_Source\PSoC5/CyDmac.c **** *   further TDs are fetched. DMA_DISABLE_TD is only supported on PSoC3 and
 773:Generated_Source\PSoC5/CyDmac.c **** *   PSoC 5LP silicons.
 774:Generated_Source\PSoC5/CyDmac.c **** *
 775:Generated_Source\PSoC5/CyDmac.c **** *  \param uint8 configuration:
 776:Generated_Source\PSoC5/CyDmac.c **** *   Stores the Bit field of configuration bits.
 777:Generated_Source\PSoC5/CyDmac.c **** *
 778:Generated_Source\PSoC5/CyDmac.c **** *   CY_DMA_TD_SWAP_EN        - Perform endian swap
 779:Generated_Source\PSoC5/CyDmac.c **** *
 780:Generated_Source\PSoC5/CyDmac.c **** *   CY_DMA_TD_SWAP_SIZE4     - Swap size = 4 bytes
 781:Generated_Source\PSoC5/CyDmac.c **** *
 782:Generated_Source\PSoC5/CyDmac.c **** *   CY_DMA_TD_AUTO_EXEC_NEXT - The next TD in the chain will trigger
 783:Generated_Source\PSoC5/CyDmac.c **** *                              automatically when the current TD completes.
 784:Generated_Source\PSoC5/CyDmac.c **** *
 785:Generated_Source\PSoC5/CyDmac.c **** *   CY_DMA_TD_TERMIN_EN      - Terminate this TD if a positive edge on the trq
 786:Generated_Source\PSoC5/CyDmac.c **** *                              input line occurs. The positive edge must occur
 787:Generated_Source\PSoC5/CyDmac.c **** *                              during a burst. That is the only time the DMAC
 788:Generated_Source\PSoC5/CyDmac.c **** *                              will listen for it.
 789:Generated_Source\PSoC5/CyDmac.c **** *
 790:Generated_Source\PSoC5/CyDmac.c **** *   DMA__TD_TERMOUT_EN       - When this TD completes, the TERMOUT signal will
 791:Generated_Source\PSoC5/CyDmac.c **** *                              generate a pulse. Note that this option is
 792:Generated_Source\PSoC5/CyDmac.c **** *                              instance specific with the instance name followed
 793:Generated_Source\PSoC5/CyDmac.c **** *                              by two underscores. In this example, the instance
 794:Generated_Source\PSoC5/CyDmac.c **** *                              name is DMA.
 795:Generated_Source\PSoC5/CyDmac.c **** *
 796:Generated_Source\PSoC5/CyDmac.c **** *   CY_DMA_TD_INC_DST_ADR    - Increment DST_ADR according to the size of each
 797:Generated_Source\PSoC5/CyDmac.c **** *                              data transaction in the burst.
 798:Generated_Source\PSoC5/CyDmac.c **** *
 799:Generated_Source\PSoC5/CyDmac.c **** *   CY_DMA_TD_INC_SRC_ADR    - Increment SRC_ADR according to the size of each
 800:Generated_Source\PSoC5/CyDmac.c **** *                              data transaction in the burst.
 801:Generated_Source\PSoC5/CyDmac.c **** *
 802:Generated_Source\PSoC5/CyDmac.c **** * \return
 803:Generated_Source\PSoC5/CyDmac.c **** *  CYRET_SUCCESS if successful.
 804:Generated_Source\PSoC5/CyDmac.c **** *  CYRET_BAD_PARAM if tdHandle or transferCount is invalid.
 805:Generated_Source\PSoC5/CyDmac.c **** *
 806:Generated_Source\PSoC5/CyDmac.c **** *******************************************************************************/
ARM GAS  C:\Users\HPz420\AppData\Local\Temp\ccfvmIQa.s 			page 40


 807:Generated_Source\PSoC5/CyDmac.c **** cystatus CyDmaTdSetConfiguration(uint8 tdHandle, uint16 transferCount, uint8 nextTd, uint8 configur
 808:Generated_Source\PSoC5/CyDmac.c ****     
 809:Generated_Source\PSoC5/CyDmac.c **** {
 1414              		.loc 1 809 0
 1415              		.cfi_startproc
 1416              		@ args = 0, pretend = 0, frame = 16
 1417              		@ frame_needed = 1, uses_anonymous_args = 0
 1418              		@ link register save eliminated.
 1419 0000 90B4     		push	{r4, r7}
 1420              		.cfi_def_cfa_offset 8
 1421              		.cfi_offset 4, -8
 1422              		.cfi_offset 7, -4
 1423 0002 84B0     		sub	sp, sp, #16
 1424              		.cfi_def_cfa_offset 24
 1425 0004 00AF     		add	r7, sp, #0
 1426              		.cfi_def_cfa_register 7
 1427 0006 0446     		mov	r4, r0
 1428 0008 0846     		mov	r0, r1
 1429 000a 1146     		mov	r1, r2
 1430 000c 1A46     		mov	r2, r3
 1431 000e 2346     		mov	r3, r4
 1432 0010 FB71     		strb	r3, [r7, #7]
 1433 0012 0346     		mov	r3, r0	@ movhi
 1434 0014 BB80     		strh	r3, [r7, #4]	@ movhi
 1435 0016 0B46     		mov	r3, r1
 1436 0018 BB71     		strb	r3, [r7, #6]
 1437 001a 1346     		mov	r3, r2
 1438 001c FB70     		strb	r3, [r7, #3]
 810:Generated_Source\PSoC5/CyDmac.c ****     cystatus status = CYRET_BAD_PARAM;
 1439              		.loc 1 810 0
 1440 001e 0123     		movs	r3, #1
 1441 0020 FB60     		str	r3, [r7, #12]
 811:Generated_Source\PSoC5/CyDmac.c **** 
 812:Generated_Source\PSoC5/CyDmac.c ****     if((tdHandle < CY_DMA_NUMBEROF_TDS) && (0u == (0xF000u & transferCount)))
 1442              		.loc 1 812 0
 1443 0022 97F90730 		ldrsb	r3, [r7, #7]
 1444 0026 002B     		cmp	r3, #0
 1445 0028 23DB     		blt	.L98
 1446              		.loc 1 812 0 is_stmt 0 discriminator 1
 1447 002a BB88     		ldrh	r3, [r7, #4]	@ movhi
 1448 002c 23F47F63 		bic	r3, r3, #4080
 1449 0030 23F00F03 		bic	r3, r3, #15
 1450 0034 9BB2     		uxth	r3, r3
 1451 0036 002B     		cmp	r3, #0
 1452 0038 1BD1     		bne	.L98
 1453              	.LBB3:
 813:Generated_Source\PSoC5/CyDmac.c ****     {
 814:Generated_Source\PSoC5/CyDmac.c ****         /* Set 12 bits transfer count. */
 815:Generated_Source\PSoC5/CyDmac.c ****         reg16 *convert = (reg16 *) &CY_DMA_TDMEM_STRUCT_PTR[tdHandle].TD0[0u];
 1454              		.loc 1 815 0 is_stmt 1
 1455 003a FB79     		ldrb	r3, [r7, #7]	@ zero_extendqisi2
 1456 003c DB00     		lsls	r3, r3, #3
 1457 003e 03F18043 		add	r3, r3, #1073741824
 1458 0042 03F5F043 		add	r3, r3, #30720
 1459 0046 BB60     		str	r3, [r7, #8]
 816:Generated_Source\PSoC5/CyDmac.c ****         CY_SET_REG16(convert, transferCount);
 1460              		.loc 1 816 0
ARM GAS  C:\Users\HPz420\AppData\Local\Temp\ccfvmIQa.s 			page 41


 1461 0048 BB68     		ldr	r3, [r7, #8]
 1462 004a BA88     		ldrh	r2, [r7, #4]	@ movhi
 1463 004c 1A80     		strh	r2, [r3]	@ movhi
 817:Generated_Source\PSoC5/CyDmac.c **** 
 818:Generated_Source\PSoC5/CyDmac.c ****         /* Set Next TD pointer. */
 819:Generated_Source\PSoC5/CyDmac.c ****         CY_DMA_TDMEM_STRUCT_PTR[tdHandle].TD0[2u] = nextTd;
 1464              		.loc 1 819 0
 1465 004e FB79     		ldrb	r3, [r7, #7]	@ zero_extendqisi2
 1466 0050 DB00     		lsls	r3, r3, #3
 1467 0052 03F18043 		add	r3, r3, #1073741824
 1468 0056 03F5F043 		add	r3, r3, #30720
 1469 005a BA79     		ldrb	r2, [r7, #6]
 1470 005c 9A70     		strb	r2, [r3, #2]
 820:Generated_Source\PSoC5/CyDmac.c **** 
 821:Generated_Source\PSoC5/CyDmac.c ****         /* Configure the TD */
 822:Generated_Source\PSoC5/CyDmac.c ****         CY_DMA_TDMEM_STRUCT_PTR[tdHandle].TD0[3u] = configuration;
 1471              		.loc 1 822 0
 1472 005e FB79     		ldrb	r3, [r7, #7]	@ zero_extendqisi2
 1473 0060 DB00     		lsls	r3, r3, #3
 1474 0062 03F18043 		add	r3, r3, #1073741824
 1475 0066 03F5F043 		add	r3, r3, #30720
 1476 006a FA78     		ldrb	r2, [r7, #3]
 1477 006c DA70     		strb	r2, [r3, #3]
 823:Generated_Source\PSoC5/CyDmac.c **** 
 824:Generated_Source\PSoC5/CyDmac.c ****         status = CYRET_SUCCESS;
 1478              		.loc 1 824 0
 1479 006e 0023     		movs	r3, #0
 1480 0070 FB60     		str	r3, [r7, #12]
 1481              	.L98:
 1482              	.LBE3:
 825:Generated_Source\PSoC5/CyDmac.c ****     }
 826:Generated_Source\PSoC5/CyDmac.c **** 
 827:Generated_Source\PSoC5/CyDmac.c ****     return(status);
 1483              		.loc 1 827 0
 1484 0072 FB68     		ldr	r3, [r7, #12]
 828:Generated_Source\PSoC5/CyDmac.c **** }
 1485              		.loc 1 828 0
 1486 0074 1846     		mov	r0, r3
 1487 0076 1037     		adds	r7, r7, #16
 1488              		.cfi_def_cfa_offset 8
 1489 0078 BD46     		mov	sp, r7
 1490              		.cfi_def_cfa_register 13
 1491              		@ sp needed
 1492 007a 90BC     		pop	{r4, r7}
 1493              		.cfi_restore 7
 1494              		.cfi_restore 4
 1495              		.cfi_def_cfa_offset 0
 1496 007c 7047     		bx	lr
 1497              		.cfi_endproc
 1498              	.LFE19:
 1499              		.size	CyDmaTdSetConfiguration, .-CyDmaTdSetConfiguration
 1500 007e 00BF     		.section	.text.CyDmaTdGetConfiguration,"ax",%progbits
 1501              		.align	2
 1502              		.global	CyDmaTdGetConfiguration
 1503              		.thumb
 1504              		.thumb_func
 1505              		.type	CyDmaTdGetConfiguration, %function
ARM GAS  C:\Users\HPz420\AppData\Local\Temp\ccfvmIQa.s 			page 42


 1506              	CyDmaTdGetConfiguration:
 1507              	.LFB20:
 829:Generated_Source\PSoC5/CyDmac.c **** 
 830:Generated_Source\PSoC5/CyDmac.c **** 
 831:Generated_Source\PSoC5/CyDmac.c **** /*******************************************************************************
 832:Generated_Source\PSoC5/CyDmac.c **** * Function Name: CyDmaTdGetConfiguration
 833:Generated_Source\PSoC5/CyDmac.c **** ****************************************************************************//**
 834:Generated_Source\PSoC5/CyDmac.c **** *
 835:Generated_Source\PSoC5/CyDmac.c **** *  Retrieves the configuration of the TD. If a NULL pointer is passed as a
 836:Generated_Source\PSoC5/CyDmac.c **** *  parameter, that parameter is skipped. You may request only the values you are
 837:Generated_Source\PSoC5/CyDmac.c **** *  interested in.
 838:Generated_Source\PSoC5/CyDmac.c **** *
 839:Generated_Source\PSoC5/CyDmac.c **** *  \param uint8 tdHandle:
 840:Generated_Source\PSoC5/CyDmac.c **** *   A handle previously returned by CyDmaTdAlloc().
 841:Generated_Source\PSoC5/CyDmac.c **** *
 842:Generated_Source\PSoC5/CyDmac.c **** *  \param uint16 * transferCount:
 843:Generated_Source\PSoC5/CyDmac.c **** *   The address to store the size of the data transfer (in bytes) for this TD.
 844:Generated_Source\PSoC5/CyDmac.c **** *   A size of zero could indicate that the TD has completed its transfer, or
 845:Generated_Source\PSoC5/CyDmac.c **** *   that the TD is doing an indefinite transfer.
 846:Generated_Source\PSoC5/CyDmac.c **** *
 847:Generated_Source\PSoC5/CyDmac.c **** *  \param uint8 * nextTd:
 848:Generated_Source\PSoC5/CyDmac.c **** *   The address to store the index of the next TD in the TD chain.
 849:Generated_Source\PSoC5/CyDmac.c **** *
 850:Generated_Source\PSoC5/CyDmac.c **** *  \param uint8 * configuration:
 851:Generated_Source\PSoC5/CyDmac.c **** *   The address to store the Bit field of configuration bits.
 852:Generated_Source\PSoC5/CyDmac.c **** *   See CyDmaTdSetConfiguration() function description.
 853:Generated_Source\PSoC5/CyDmac.c **** *
 854:Generated_Source\PSoC5/CyDmac.c **** * \return
 855:Generated_Source\PSoC5/CyDmac.c **** *  CYRET_SUCCESS if successful.
 856:Generated_Source\PSoC5/CyDmac.c **** *  CYRET_BAD_PARAM if tdHandle is invalid.
 857:Generated_Source\PSoC5/CyDmac.c **** *
 858:Generated_Source\PSoC5/CyDmac.c **** * \sideeffect
 859:Generated_Source\PSoC5/CyDmac.c **** *  If TD has a transfer count of N and is executed, the transfer count becomes
 860:Generated_Source\PSoC5/CyDmac.c **** *  0. If it is reexecuted, the Transfer count of zero will be interpreted as a
 861:Generated_Source\PSoC5/CyDmac.c **** *  request for indefinite transfer. Be careful when requesting TD with a
 862:Generated_Source\PSoC5/CyDmac.c **** *  transfer count of zero.
 863:Generated_Source\PSoC5/CyDmac.c **** *
 864:Generated_Source\PSoC5/CyDmac.c **** *******************************************************************************/
 865:Generated_Source\PSoC5/CyDmac.c **** cystatus CyDmaTdGetConfiguration(uint8 tdHandle, uint16 * transferCount, uint8 * nextTd, uint8 * co
 866:Generated_Source\PSoC5/CyDmac.c ****     
 867:Generated_Source\PSoC5/CyDmac.c **** {
 1508              		.loc 1 867 0
 1509              		.cfi_startproc
 1510              		@ args = 0, pretend = 0, frame = 24
 1511              		@ frame_needed = 1, uses_anonymous_args = 0
 1512              		@ link register save eliminated.
 1513 0000 80B4     		push	{r7}
 1514              		.cfi_def_cfa_offset 4
 1515              		.cfi_offset 7, -4
 1516 0002 87B0     		sub	sp, sp, #28
 1517              		.cfi_def_cfa_offset 32
 1518 0004 00AF     		add	r7, sp, #0
 1519              		.cfi_def_cfa_register 7
 1520 0006 B960     		str	r1, [r7, #8]
 1521 0008 7A60     		str	r2, [r7, #4]
 1522 000a 3B60     		str	r3, [r7]
 1523 000c 0346     		mov	r3, r0
ARM GAS  C:\Users\HPz420\AppData\Local\Temp\ccfvmIQa.s 			page 43


 1524 000e FB73     		strb	r3, [r7, #15]
 868:Generated_Source\PSoC5/CyDmac.c ****     cystatus status = CYRET_BAD_PARAM;
 1525              		.loc 1 868 0
 1526 0010 0123     		movs	r3, #1
 1527 0012 7B61     		str	r3, [r7, #20]
 869:Generated_Source\PSoC5/CyDmac.c **** 
 870:Generated_Source\PSoC5/CyDmac.c ****     if(tdHandle < CY_DMA_NUMBEROF_TDS)
 1528              		.loc 1 870 0
 1529 0014 97F90F30 		ldrsb	r3, [r7, #15]
 1530 0018 002B     		cmp	r3, #0
 1531 001a 2DDB     		blt	.L101
 871:Generated_Source\PSoC5/CyDmac.c ****     {
 872:Generated_Source\PSoC5/CyDmac.c ****         /* If we have pointer */
 873:Generated_Source\PSoC5/CyDmac.c ****         if(NULL != transferCount)
 1532              		.loc 1 873 0
 1533 001c BB68     		ldr	r3, [r7, #8]
 1534 001e 002B     		cmp	r3, #0
 1535 0020 0ED0     		beq	.L102
 1536              	.LBB4:
 874:Generated_Source\PSoC5/CyDmac.c ****         {
 875:Generated_Source\PSoC5/CyDmac.c ****             /* Get 12 bits of transfer count */
 876:Generated_Source\PSoC5/CyDmac.c ****             reg16 *convert = (reg16 *) &CY_DMA_TDMEM_STRUCT_PTR[tdHandle].TD0[0];
 1537              		.loc 1 876 0
 1538 0022 FB7B     		ldrb	r3, [r7, #15]	@ zero_extendqisi2
 1539 0024 DB00     		lsls	r3, r3, #3
 1540 0026 03F18043 		add	r3, r3, #1073741824
 1541 002a 03F5F043 		add	r3, r3, #30720
 1542 002e 3B61     		str	r3, [r7, #16]
 877:Generated_Source\PSoC5/CyDmac.c ****             *transferCount = 0x0FFFu & CY_GET_REG16(convert);
 1543              		.loc 1 877 0
 1544 0030 3B69     		ldr	r3, [r7, #16]
 1545 0032 1B88     		ldrh	r3, [r3]	@ movhi
 1546 0034 9BB2     		uxth	r3, r3
 1547 0036 C3F30B03 		ubfx	r3, r3, #0, #12
 1548 003a 9AB2     		uxth	r2, r3
 1549 003c BB68     		ldr	r3, [r7, #8]
 1550 003e 1A80     		strh	r2, [r3]	@ movhi
 1551              	.L102:
 1552              	.LBE4:
 878:Generated_Source\PSoC5/CyDmac.c ****         }
 879:Generated_Source\PSoC5/CyDmac.c **** 
 880:Generated_Source\PSoC5/CyDmac.c ****         /* If we have pointer */
 881:Generated_Source\PSoC5/CyDmac.c ****         if(NULL != nextTd)
 1553              		.loc 1 881 0
 1554 0040 7B68     		ldr	r3, [r7, #4]
 1555 0042 002B     		cmp	r3, #0
 1556 0044 09D0     		beq	.L103
 882:Generated_Source\PSoC5/CyDmac.c ****         {
 883:Generated_Source\PSoC5/CyDmac.c ****             /* Get Next TD pointer */
 884:Generated_Source\PSoC5/CyDmac.c ****             *nextTd = CY_DMA_TDMEM_STRUCT_PTR[tdHandle].TD0[2u];
 1557              		.loc 1 884 0
 1558 0046 FB7B     		ldrb	r3, [r7, #15]	@ zero_extendqisi2
 1559 0048 DB00     		lsls	r3, r3, #3
 1560 004a 03F18043 		add	r3, r3, #1073741824
 1561 004e 03F5F043 		add	r3, r3, #30720
 1562 0052 9B78     		ldrb	r3, [r3, #2]
 1563 0054 DAB2     		uxtb	r2, r3
ARM GAS  C:\Users\HPz420\AppData\Local\Temp\ccfvmIQa.s 			page 44


 1564 0056 7B68     		ldr	r3, [r7, #4]
 1565 0058 1A70     		strb	r2, [r3]
 1566              	.L103:
 885:Generated_Source\PSoC5/CyDmac.c ****         }
 886:Generated_Source\PSoC5/CyDmac.c **** 
 887:Generated_Source\PSoC5/CyDmac.c ****         /* If we have pointer */
 888:Generated_Source\PSoC5/CyDmac.c ****         if(NULL != configuration)
 1567              		.loc 1 888 0
 1568 005a 3B68     		ldr	r3, [r7]
 1569 005c 002B     		cmp	r3, #0
 1570 005e 09D0     		beq	.L104
 889:Generated_Source\PSoC5/CyDmac.c ****         {
 890:Generated_Source\PSoC5/CyDmac.c ****             /* Get configuration TD */
 891:Generated_Source\PSoC5/CyDmac.c ****             *configuration = CY_DMA_TDMEM_STRUCT_PTR[tdHandle].TD0[3u];
 1571              		.loc 1 891 0
 1572 0060 FB7B     		ldrb	r3, [r7, #15]	@ zero_extendqisi2
 1573 0062 DB00     		lsls	r3, r3, #3
 1574 0064 03F18043 		add	r3, r3, #1073741824
 1575 0068 03F5F043 		add	r3, r3, #30720
 1576 006c DB78     		ldrb	r3, [r3, #3]
 1577 006e DAB2     		uxtb	r2, r3
 1578 0070 3B68     		ldr	r3, [r7]
 1579 0072 1A70     		strb	r2, [r3]
 1580              	.L104:
 892:Generated_Source\PSoC5/CyDmac.c ****         }
 893:Generated_Source\PSoC5/CyDmac.c **** 
 894:Generated_Source\PSoC5/CyDmac.c ****         status = CYRET_SUCCESS;
 1581              		.loc 1 894 0
 1582 0074 0023     		movs	r3, #0
 1583 0076 7B61     		str	r3, [r7, #20]
 1584              	.L101:
 895:Generated_Source\PSoC5/CyDmac.c ****     }
 896:Generated_Source\PSoC5/CyDmac.c **** 
 897:Generated_Source\PSoC5/CyDmac.c ****     return(status);
 1585              		.loc 1 897 0
 1586 0078 7B69     		ldr	r3, [r7, #20]
 898:Generated_Source\PSoC5/CyDmac.c **** }
 1587              		.loc 1 898 0
 1588 007a 1846     		mov	r0, r3
 1589 007c 1C37     		adds	r7, r7, #28
 1590              		.cfi_def_cfa_offset 4
 1591 007e BD46     		mov	sp, r7
 1592              		.cfi_def_cfa_register 13
 1593              		@ sp needed
 1594 0080 80BC     		pop	{r7}
 1595              		.cfi_restore 7
 1596              		.cfi_def_cfa_offset 0
 1597 0082 7047     		bx	lr
 1598              		.cfi_endproc
 1599              	.LFE20:
 1600              		.size	CyDmaTdGetConfiguration, .-CyDmaTdGetConfiguration
 1601              		.section	.text.CyDmaTdSetAddress,"ax",%progbits
 1602              		.align	2
 1603              		.global	CyDmaTdSetAddress
 1604              		.thumb
 1605              		.thumb_func
 1606              		.type	CyDmaTdSetAddress, %function
ARM GAS  C:\Users\HPz420\AppData\Local\Temp\ccfvmIQa.s 			page 45


 1607              	CyDmaTdSetAddress:
 1608              	.LFB21:
 899:Generated_Source\PSoC5/CyDmac.c **** 
 900:Generated_Source\PSoC5/CyDmac.c **** 
 901:Generated_Source\PSoC5/CyDmac.c **** /*******************************************************************************
 902:Generated_Source\PSoC5/CyDmac.c **** * Function Name: CyDmaTdSetAddress
 903:Generated_Source\PSoC5/CyDmac.c **** ****************************************************************************//**
 904:Generated_Source\PSoC5/CyDmac.c **** *
 905:Generated_Source\PSoC5/CyDmac.c **** *  Sets the lower 16 bits of the source and destination addresses for this TD
 906:Generated_Source\PSoC5/CyDmac.c **** *  only.
 907:Generated_Source\PSoC5/CyDmac.c **** *
 908:Generated_Source\PSoC5/CyDmac.c **** *  \param uint8 tdHandle:
 909:Generated_Source\PSoC5/CyDmac.c **** *   A handle previously returned by CyDmaTdAlloc().
 910:Generated_Source\PSoC5/CyDmac.c **** *
 911:Generated_Source\PSoC5/CyDmac.c **** *  \param uint16 source:
 912:Generated_Source\PSoC5/CyDmac.c **** *   The lower 16 address bits of the source of the data transfer.
 913:Generated_Source\PSoC5/CyDmac.c **** *
 914:Generated_Source\PSoC5/CyDmac.c **** *  \param uint16 destination:
 915:Generated_Source\PSoC5/CyDmac.c **** *   The lower 16 address bits of the destination of the data transfer.
 916:Generated_Source\PSoC5/CyDmac.c **** *
 917:Generated_Source\PSoC5/CyDmac.c **** * \return
 918:Generated_Source\PSoC5/CyDmac.c **** *  CYRET_SUCCESS if successful.
 919:Generated_Source\PSoC5/CyDmac.c **** *  CYRET_BAD_PARAM if tdHandle is invalid.
 920:Generated_Source\PSoC5/CyDmac.c **** *
 921:Generated_Source\PSoC5/CyDmac.c **** *******************************************************************************/
 922:Generated_Source\PSoC5/CyDmac.c **** cystatus CyDmaTdSetAddress(uint8 tdHandle, uint16 source, uint16 destination) 
 923:Generated_Source\PSoC5/CyDmac.c **** {
 1609              		.loc 1 923 0
 1610              		.cfi_startproc
 1611              		@ args = 0, pretend = 0, frame = 16
 1612              		@ frame_needed = 1, uses_anonymous_args = 0
 1613              		@ link register save eliminated.
 1614 0000 80B4     		push	{r7}
 1615              		.cfi_def_cfa_offset 4
 1616              		.cfi_offset 7, -4
 1617 0002 85B0     		sub	sp, sp, #20
 1618              		.cfi_def_cfa_offset 24
 1619 0004 00AF     		add	r7, sp, #0
 1620              		.cfi_def_cfa_register 7
 1621 0006 0346     		mov	r3, r0
 1622 0008 FB71     		strb	r3, [r7, #7]
 1623 000a 0B46     		mov	r3, r1	@ movhi
 1624 000c BB80     		strh	r3, [r7, #4]	@ movhi
 1625 000e 1346     		mov	r3, r2	@ movhi
 1626 0010 7B80     		strh	r3, [r7, #2]	@ movhi
 924:Generated_Source\PSoC5/CyDmac.c ****     cystatus status = CYRET_BAD_PARAM;
 1627              		.loc 1 924 0
 1628 0012 0123     		movs	r3, #1
 1629 0014 FB60     		str	r3, [r7, #12]
 925:Generated_Source\PSoC5/CyDmac.c ****     reg16 *convert;
 926:Generated_Source\PSoC5/CyDmac.c **** 
 927:Generated_Source\PSoC5/CyDmac.c ****     if(tdHandle < CY_DMA_NUMBEROF_TDS)
 1630              		.loc 1 927 0
 1631 0016 97F90730 		ldrsb	r3, [r7, #7]
 1632 001a 002B     		cmp	r3, #0
 1633 001c 17DB     		blt	.L107
 928:Generated_Source\PSoC5/CyDmac.c ****     {
ARM GAS  C:\Users\HPz420\AppData\Local\Temp\ccfvmIQa.s 			page 46


 929:Generated_Source\PSoC5/CyDmac.c ****         /* Set source address */
 930:Generated_Source\PSoC5/CyDmac.c ****         convert = (reg16 *) &CY_DMA_TDMEM_STRUCT_PTR[tdHandle].TD1[0u];
 1634              		.loc 1 930 0
 1635 001e FB79     		ldrb	r3, [r7, #7]	@ zero_extendqisi2
 1636 0020 DB00     		lsls	r3, r3, #3
 1637 0022 03F18043 		add	r3, r3, #1073741824
 1638 0026 03F5F043 		add	r3, r3, #30720
 1639 002a 0433     		adds	r3, r3, #4
 1640 002c BB60     		str	r3, [r7, #8]
 931:Generated_Source\PSoC5/CyDmac.c ****         CY_SET_REG16(convert, source);
 1641              		.loc 1 931 0
 1642 002e BB68     		ldr	r3, [r7, #8]
 1643 0030 BA88     		ldrh	r2, [r7, #4]	@ movhi
 1644 0032 1A80     		strh	r2, [r3]	@ movhi
 932:Generated_Source\PSoC5/CyDmac.c **** 
 933:Generated_Source\PSoC5/CyDmac.c ****         /* Set destination address */
 934:Generated_Source\PSoC5/CyDmac.c ****         convert = (reg16 *) &CY_DMA_TDMEM_STRUCT_PTR[tdHandle].TD1[2u];
 1645              		.loc 1 934 0
 1646 0034 FB79     		ldrb	r3, [r7, #7]	@ zero_extendqisi2
 1647 0036 DB00     		lsls	r3, r3, #3
 1648 0038 03F18043 		add	r3, r3, #1073741824
 1649 003c 03F5F043 		add	r3, r3, #30720
 1650 0040 0633     		adds	r3, r3, #6
 1651 0042 BB60     		str	r3, [r7, #8]
 935:Generated_Source\PSoC5/CyDmac.c ****         CY_SET_REG16(convert, destination);
 1652              		.loc 1 935 0
 1653 0044 BB68     		ldr	r3, [r7, #8]
 1654 0046 7A88     		ldrh	r2, [r7, #2]	@ movhi
 1655 0048 1A80     		strh	r2, [r3]	@ movhi
 936:Generated_Source\PSoC5/CyDmac.c **** 
 937:Generated_Source\PSoC5/CyDmac.c ****         status = CYRET_SUCCESS;
 1656              		.loc 1 937 0
 1657 004a 0023     		movs	r3, #0
 1658 004c FB60     		str	r3, [r7, #12]
 1659              	.L107:
 938:Generated_Source\PSoC5/CyDmac.c ****     }
 939:Generated_Source\PSoC5/CyDmac.c **** 
 940:Generated_Source\PSoC5/CyDmac.c ****     return(status);
 1660              		.loc 1 940 0
 1661 004e FB68     		ldr	r3, [r7, #12]
 941:Generated_Source\PSoC5/CyDmac.c **** }
 1662              		.loc 1 941 0
 1663 0050 1846     		mov	r0, r3
 1664 0052 1437     		adds	r7, r7, #20
 1665              		.cfi_def_cfa_offset 4
 1666 0054 BD46     		mov	sp, r7
 1667              		.cfi_def_cfa_register 13
 1668              		@ sp needed
 1669 0056 80BC     		pop	{r7}
 1670              		.cfi_restore 7
 1671              		.cfi_def_cfa_offset 0
 1672 0058 7047     		bx	lr
 1673              		.cfi_endproc
 1674              	.LFE21:
 1675              		.size	CyDmaTdSetAddress, .-CyDmaTdSetAddress
 1676 005a 00BF     		.section	.text.CyDmaTdGetAddress,"ax",%progbits
 1677              		.align	2
ARM GAS  C:\Users\HPz420\AppData\Local\Temp\ccfvmIQa.s 			page 47


 1678              		.global	CyDmaTdGetAddress
 1679              		.thumb
 1680              		.thumb_func
 1681              		.type	CyDmaTdGetAddress, %function
 1682              	CyDmaTdGetAddress:
 1683              	.LFB22:
 942:Generated_Source\PSoC5/CyDmac.c **** 
 943:Generated_Source\PSoC5/CyDmac.c **** 
 944:Generated_Source\PSoC5/CyDmac.c **** /*******************************************************************************
 945:Generated_Source\PSoC5/CyDmac.c **** * Function Name: CyDmaTdGetAddress
 946:Generated_Source\PSoC5/CyDmac.c **** ****************************************************************************//**
 947:Generated_Source\PSoC5/CyDmac.c **** *
 948:Generated_Source\PSoC5/CyDmac.c **** *  Retrieves the lower 16 bits of the source and/or destination addresses for
 949:Generated_Source\PSoC5/CyDmac.c **** *  this TD only. If NULL is passed for a pointer parameter, that value is
 950:Generated_Source\PSoC5/CyDmac.c **** *  skipped. You may request only the values of interest.
 951:Generated_Source\PSoC5/CyDmac.c **** *
 952:Generated_Source\PSoC5/CyDmac.c **** *  \param uint8 tdHandle:
 953:Generated_Source\PSoC5/CyDmac.c **** *   A handle previously returned by CyDmaTdAlloc().
 954:Generated_Source\PSoC5/CyDmac.c **** *
 955:Generated_Source\PSoC5/CyDmac.c **** *  \param uint16 * source:
 956:Generated_Source\PSoC5/CyDmac.c **** *   The address to store the lower 16 address bits of the source of the data
 957:Generated_Source\PSoC5/CyDmac.c **** *   transfer.
 958:Generated_Source\PSoC5/CyDmac.c **** *
 959:Generated_Source\PSoC5/CyDmac.c **** *  \param uint16 * destination:
 960:Generated_Source\PSoC5/CyDmac.c **** *   The address to store the lower 16 address bits of the destination of the
 961:Generated_Source\PSoC5/CyDmac.c **** *   data transfer.
 962:Generated_Source\PSoC5/CyDmac.c **** *
 963:Generated_Source\PSoC5/CyDmac.c **** * \return
 964:Generated_Source\PSoC5/CyDmac.c **** *  CYRET_SUCCESS if successful.
 965:Generated_Source\PSoC5/CyDmac.c **** *  CYRET_BAD_PARAM if tdHandle is invalid.
 966:Generated_Source\PSoC5/CyDmac.c **** *
 967:Generated_Source\PSoC5/CyDmac.c **** *******************************************************************************/
 968:Generated_Source\PSoC5/CyDmac.c **** cystatus CyDmaTdGetAddress(uint8 tdHandle, uint16 * source, uint16 * destination) 
 969:Generated_Source\PSoC5/CyDmac.c **** {
 1684              		.loc 1 969 0
 1685              		.cfi_startproc
 1686              		@ args = 0, pretend = 0, frame = 24
 1687              		@ frame_needed = 1, uses_anonymous_args = 0
 1688              		@ link register save eliminated.
 1689 0000 80B4     		push	{r7}
 1690              		.cfi_def_cfa_offset 4
 1691              		.cfi_offset 7, -4
 1692 0002 87B0     		sub	sp, sp, #28
 1693              		.cfi_def_cfa_offset 32
 1694 0004 00AF     		add	r7, sp, #0
 1695              		.cfi_def_cfa_register 7
 1696 0006 0346     		mov	r3, r0
 1697 0008 B960     		str	r1, [r7, #8]
 1698 000a 7A60     		str	r2, [r7, #4]
 1699 000c FB73     		strb	r3, [r7, #15]
 970:Generated_Source\PSoC5/CyDmac.c ****     cystatus status = CYRET_BAD_PARAM;
 1700              		.loc 1 970 0
 1701 000e 0123     		movs	r3, #1
 1702 0010 7B61     		str	r3, [r7, #20]
 971:Generated_Source\PSoC5/CyDmac.c ****     reg16 *convert;
 972:Generated_Source\PSoC5/CyDmac.c **** 
 973:Generated_Source\PSoC5/CyDmac.c ****     if(tdHandle < CY_DMA_NUMBEROF_TDS)
ARM GAS  C:\Users\HPz420\AppData\Local\Temp\ccfvmIQa.s 			page 48


 1703              		.loc 1 973 0
 1704 0012 97F90F30 		ldrsb	r3, [r7, #15]
 1705 0016 002B     		cmp	r3, #0
 1706 0018 21DB     		blt	.L110
 974:Generated_Source\PSoC5/CyDmac.c ****     {
 975:Generated_Source\PSoC5/CyDmac.c ****         /* If we have a pointer. */
 976:Generated_Source\PSoC5/CyDmac.c ****         if(NULL != source)
 1707              		.loc 1 976 0
 1708 001a BB68     		ldr	r3, [r7, #8]
 1709 001c 002B     		cmp	r3, #0
 1710 001e 0CD0     		beq	.L111
 977:Generated_Source\PSoC5/CyDmac.c ****         {
 978:Generated_Source\PSoC5/CyDmac.c ****             /* Get source address */
 979:Generated_Source\PSoC5/CyDmac.c ****             convert = (reg16 *) &CY_DMA_TDMEM_STRUCT_PTR[tdHandle].TD1[0u];
 1711              		.loc 1 979 0
 1712 0020 FB7B     		ldrb	r3, [r7, #15]	@ zero_extendqisi2
 1713 0022 DB00     		lsls	r3, r3, #3
 1714 0024 03F18043 		add	r3, r3, #1073741824
 1715 0028 03F5F043 		add	r3, r3, #30720
 1716 002c 0433     		adds	r3, r3, #4
 1717 002e 3B61     		str	r3, [r7, #16]
 980:Generated_Source\PSoC5/CyDmac.c ****             *source = CY_GET_REG16(convert);
 1718              		.loc 1 980 0
 1719 0030 3B69     		ldr	r3, [r7, #16]
 1720 0032 1B88     		ldrh	r3, [r3]	@ movhi
 1721 0034 9AB2     		uxth	r2, r3
 1722 0036 BB68     		ldr	r3, [r7, #8]
 1723 0038 1A80     		strh	r2, [r3]	@ movhi
 1724              	.L111:
 981:Generated_Source\PSoC5/CyDmac.c ****         }
 982:Generated_Source\PSoC5/CyDmac.c **** 
 983:Generated_Source\PSoC5/CyDmac.c ****         /* If we have a pointer. */
 984:Generated_Source\PSoC5/CyDmac.c ****         if(NULL != destination)
 1725              		.loc 1 984 0
 1726 003a 7B68     		ldr	r3, [r7, #4]
 1727 003c 002B     		cmp	r3, #0
 1728 003e 0CD0     		beq	.L112
 985:Generated_Source\PSoC5/CyDmac.c ****         {
 986:Generated_Source\PSoC5/CyDmac.c ****             /* Get Destination address. */
 987:Generated_Source\PSoC5/CyDmac.c ****             convert = (reg16 *) &CY_DMA_TDMEM_STRUCT_PTR[tdHandle].TD1[2u];
 1729              		.loc 1 987 0
 1730 0040 FB7B     		ldrb	r3, [r7, #15]	@ zero_extendqisi2
 1731 0042 DB00     		lsls	r3, r3, #3
 1732 0044 03F18043 		add	r3, r3, #1073741824
 1733 0048 03F5F043 		add	r3, r3, #30720
 1734 004c 0633     		adds	r3, r3, #6
 1735 004e 3B61     		str	r3, [r7, #16]
 988:Generated_Source\PSoC5/CyDmac.c ****             *destination = CY_GET_REG16(convert);
 1736              		.loc 1 988 0
 1737 0050 3B69     		ldr	r3, [r7, #16]
 1738 0052 1B88     		ldrh	r3, [r3]	@ movhi
 1739 0054 9AB2     		uxth	r2, r3
 1740 0056 7B68     		ldr	r3, [r7, #4]
 1741 0058 1A80     		strh	r2, [r3]	@ movhi
 1742              	.L112:
 989:Generated_Source\PSoC5/CyDmac.c ****         }
 990:Generated_Source\PSoC5/CyDmac.c **** 
ARM GAS  C:\Users\HPz420\AppData\Local\Temp\ccfvmIQa.s 			page 49


 991:Generated_Source\PSoC5/CyDmac.c ****         status = CYRET_SUCCESS;
 1743              		.loc 1 991 0
 1744 005a 0023     		movs	r3, #0
 1745 005c 7B61     		str	r3, [r7, #20]
 1746              	.L110:
 992:Generated_Source\PSoC5/CyDmac.c ****     }
 993:Generated_Source\PSoC5/CyDmac.c **** 
 994:Generated_Source\PSoC5/CyDmac.c ****     return(status);
 1747              		.loc 1 994 0
 1748 005e 7B69     		ldr	r3, [r7, #20]
 995:Generated_Source\PSoC5/CyDmac.c **** }
 1749              		.loc 1 995 0
 1750 0060 1846     		mov	r0, r3
 1751 0062 1C37     		adds	r7, r7, #28
 1752              		.cfi_def_cfa_offset 4
 1753 0064 BD46     		mov	sp, r7
 1754              		.cfi_def_cfa_register 13
 1755              		@ sp needed
 1756 0066 80BC     		pop	{r7}
 1757              		.cfi_restore 7
 1758              		.cfi_def_cfa_offset 0
 1759 0068 7047     		bx	lr
 1760              		.cfi_endproc
 1761              	.LFE22:
 1762              		.size	CyDmaTdGetAddress, .-CyDmaTdGetAddress
 1763              		.section	.text.CyDmaChRoundRobin,"ax",%progbits
 1764              		.align	2
 1765              		.global	CyDmaChRoundRobin
 1766              		.thumb
 1767              		.thumb_func
 1768              		.type	CyDmaChRoundRobin, %function
 1769              	CyDmaChRoundRobin:
 1770              	.LFB23:
 996:Generated_Source\PSoC5/CyDmac.c **** 
 997:Generated_Source\PSoC5/CyDmac.c **** 
 998:Generated_Source\PSoC5/CyDmac.c **** /*******************************************************************************
 999:Generated_Source\PSoC5/CyDmac.c **** * Function Name: CyDmaChRoundRobin
1000:Generated_Source\PSoC5/CyDmac.c **** ****************************************************************************//**
1001:Generated_Source\PSoC5/CyDmac.c **** *
1002:Generated_Source\PSoC5/CyDmac.c **** * Either enables or disables the Round-Robin scheduling enforcement algorithm.
1003:Generated_Source\PSoC5/CyDmac.c **** * Within a priority level a Round-Robin fairness algorithm is enforced.
1004:Generated_Source\PSoC5/CyDmac.c **** *
1005:Generated_Source\PSoC5/CyDmac.c **** * \param uint8 chHandle:
1006:Generated_Source\PSoC5/CyDmac.c **** *  A handle previously returned by CyDmaChAlloc() or Dma_DmaInitialize().
1007:Generated_Source\PSoC5/CyDmac.c **** *
1008:Generated_Source\PSoC5/CyDmac.c **** * \param uint8 enableRR:
1009:Generated_Source\PSoC5/CyDmac.c **** *  \param 0: Disable Round-Robin fairness algorithm
1010:Generated_Source\PSoC5/CyDmac.c **** *  \param 1: Enable Round-Robin fairness algorithm
1011:Generated_Source\PSoC5/CyDmac.c **** *
1012:Generated_Source\PSoC5/CyDmac.c **** * \return
1013:Generated_Source\PSoC5/CyDmac.c **** * CYRET_SUCCESS if successful.
1014:Generated_Source\PSoC5/CyDmac.c **** * CYRET_BAD_PARAM if chHandle is invalid.
1015:Generated_Source\PSoC5/CyDmac.c **** *
1016:Generated_Source\PSoC5/CyDmac.c **** *******************************************************************************/
1017:Generated_Source\PSoC5/CyDmac.c **** cystatus CyDmaChRoundRobin(uint8 chHandle, uint8 enableRR) 
1018:Generated_Source\PSoC5/CyDmac.c **** {
 1771              		.loc 1 1018 0
ARM GAS  C:\Users\HPz420\AppData\Local\Temp\ccfvmIQa.s 			page 50


 1772              		.cfi_startproc
 1773              		@ args = 0, pretend = 0, frame = 16
 1774              		@ frame_needed = 1, uses_anonymous_args = 0
 1775              		@ link register save eliminated.
 1776 0000 80B4     		push	{r7}
 1777              		.cfi_def_cfa_offset 4
 1778              		.cfi_offset 7, -4
 1779 0002 85B0     		sub	sp, sp, #20
 1780              		.cfi_def_cfa_offset 24
 1781 0004 00AF     		add	r7, sp, #0
 1782              		.cfi_def_cfa_register 7
 1783 0006 0346     		mov	r3, r0
 1784 0008 0A46     		mov	r2, r1
 1785 000a FB71     		strb	r3, [r7, #7]
 1786 000c 1346     		mov	r3, r2
 1787 000e BB71     		strb	r3, [r7, #6]
1019:Generated_Source\PSoC5/CyDmac.c ****     cystatus status = CYRET_BAD_PARAM;
 1788              		.loc 1 1019 0
 1789 0010 0123     		movs	r3, #1
 1790 0012 FB60     		str	r3, [r7, #12]
1020:Generated_Source\PSoC5/CyDmac.c **** 
1021:Generated_Source\PSoC5/CyDmac.c ****     if(chHandle < CY_DMA_NUMBEROF_CHANNELS)
 1791              		.loc 1 1021 0
 1792 0014 FB79     		ldrb	r3, [r7, #7]	@ zero_extendqisi2
 1793 0016 172B     		cmp	r3, #23
 1794 0018 21D8     		bhi	.L115
1022:Generated_Source\PSoC5/CyDmac.c ****     {
1023:Generated_Source\PSoC5/CyDmac.c ****         if (0u != enableRR)
 1795              		.loc 1 1023 0
 1796 001a BB79     		ldrb	r3, [r7, #6]	@ zero_extendqisi2
 1797 001c 002B     		cmp	r3, #0
 1798 001e 0ED0     		beq	.L116
1024:Generated_Source\PSoC5/CyDmac.c ****         {
1025:Generated_Source\PSoC5/CyDmac.c ****             CY_DMA_CH_STRUCT_PTR[chHandle].basic_cfg[0u] |= (uint8)CY_DMA_ROUND_ROBIN_ENABLE;
 1799              		.loc 1 1025 0
 1800 0020 FB79     		ldrb	r3, [r7, #7]	@ zero_extendqisi2
 1801 0022 1A01     		lsls	r2, r3, #4
 1802 0024 114B     		ldr	r3, .L119
 1803 0026 1344     		add	r3, r3, r2
 1804 0028 FA79     		ldrb	r2, [r7, #7]	@ zero_extendqisi2
 1805 002a 1101     		lsls	r1, r2, #4
 1806 002c 0F4A     		ldr	r2, .L119
 1807 002e 0A44     		add	r2, r2, r1
 1808 0030 1278     		ldrb	r2, [r2]
 1809 0032 D2B2     		uxtb	r2, r2
 1810 0034 42F01002 		orr	r2, r2, #16
 1811 0038 D2B2     		uxtb	r2, r2
 1812 003a 1A70     		strb	r2, [r3]
 1813 003c 0DE0     		b	.L117
 1814              	.L116:
1026:Generated_Source\PSoC5/CyDmac.c ****         }
1027:Generated_Source\PSoC5/CyDmac.c ****         else
1028:Generated_Source\PSoC5/CyDmac.c ****         {
1029:Generated_Source\PSoC5/CyDmac.c ****             CY_DMA_CH_STRUCT_PTR[chHandle].basic_cfg[0u] &= (uint8)(~CY_DMA_ROUND_ROBIN_ENABLE);
 1815              		.loc 1 1029 0
 1816 003e FB79     		ldrb	r3, [r7, #7]	@ zero_extendqisi2
 1817 0040 1A01     		lsls	r2, r3, #4
ARM GAS  C:\Users\HPz420\AppData\Local\Temp\ccfvmIQa.s 			page 51


 1818 0042 0A4B     		ldr	r3, .L119
 1819 0044 1344     		add	r3, r3, r2
 1820 0046 FA79     		ldrb	r2, [r7, #7]	@ zero_extendqisi2
 1821 0048 1101     		lsls	r1, r2, #4
 1822 004a 084A     		ldr	r2, .L119
 1823 004c 0A44     		add	r2, r2, r1
 1824 004e 1278     		ldrb	r2, [r2]
 1825 0050 D2B2     		uxtb	r2, r2
 1826 0052 22F01002 		bic	r2, r2, #16
 1827 0056 D2B2     		uxtb	r2, r2
 1828 0058 1A70     		strb	r2, [r3]
 1829              	.L117:
1030:Generated_Source\PSoC5/CyDmac.c ****         }
1031:Generated_Source\PSoC5/CyDmac.c **** 
1032:Generated_Source\PSoC5/CyDmac.c ****         status = CYRET_SUCCESS;
 1830              		.loc 1 1032 0
 1831 005a 0023     		movs	r3, #0
 1832 005c FB60     		str	r3, [r7, #12]
 1833              	.L115:
1033:Generated_Source\PSoC5/CyDmac.c ****     }
1034:Generated_Source\PSoC5/CyDmac.c **** 
1035:Generated_Source\PSoC5/CyDmac.c ****     return(status);
 1834              		.loc 1 1035 0
 1835 005e FB68     		ldr	r3, [r7, #12]
1036:Generated_Source\PSoC5/CyDmac.c **** }
 1836              		.loc 1 1036 0
 1837 0060 1846     		mov	r0, r3
 1838 0062 1437     		adds	r7, r7, #20
 1839              		.cfi_def_cfa_offset 4
 1840 0064 BD46     		mov	sp, r7
 1841              		.cfi_def_cfa_register 13
 1842              		@ sp needed
 1843 0066 80BC     		pop	{r7}
 1844              		.cfi_restore 7
 1845              		.cfi_def_cfa_offset 0
 1846 0068 7047     		bx	lr
 1847              	.L120:
 1848 006a 00BF     		.align	2
 1849              	.L119:
 1850 006c 10700040 		.word	1073770512
 1851              		.cfi_endproc
 1852              	.LFE23:
 1853              		.size	CyDmaChRoundRobin, .-CyDmaChRoundRobin
 1854              		.text
 1855              	.Letext0:
 1856              		.file 2 "Generated_Source\\PSoC5\\cytypes.h"
 1857              		.file 3 "Generated_Source\\PSoC5\\CyDmac.h"
 1858              		.section	.debug_info,"",%progbits
 1859              	.Ldebug_info0:
 1860 0000 BC080000 		.4byte	0x8bc
 1861 0004 0400     		.2byte	0x4
 1862 0006 00000000 		.4byte	.Ldebug_abbrev0
 1863 000a 04       		.byte	0x4
 1864 000b 01       		.uleb128 0x1
 1865 000c 42000000 		.4byte	.LASF86
 1866 0010 0C       		.byte	0xc
 1867 0011 7E020000 		.4byte	.LASF87
ARM GAS  C:\Users\HPz420\AppData\Local\Temp\ccfvmIQa.s 			page 52


 1868 0015 AF020000 		.4byte	.LASF88
 1869 0019 00000000 		.4byte	.Ldebug_ranges0+0
 1870 001d 00000000 		.4byte	0
 1871 0021 00000000 		.4byte	.Ldebug_line0
 1872 0025 02       		.uleb128 0x2
 1873 0026 01       		.byte	0x1
 1874 0027 06       		.byte	0x6
 1875 0028 37010000 		.4byte	.LASF0
 1876 002c 02       		.uleb128 0x2
 1877 002d 01       		.byte	0x1
 1878 002e 08       		.byte	0x8
 1879 002f E7030000 		.4byte	.LASF1
 1880 0033 02       		.uleb128 0x2
 1881 0034 02       		.byte	0x2
 1882 0035 05       		.byte	0x5
 1883 0036 F5030000 		.4byte	.LASF2
 1884 003a 02       		.uleb128 0x2
 1885 003b 02       		.byte	0x2
 1886 003c 07       		.byte	0x7
 1887 003d 51020000 		.4byte	.LASF3
 1888 0041 02       		.uleb128 0x2
 1889 0042 04       		.byte	0x4
 1890 0043 05       		.byte	0x5
 1891 0044 73010000 		.4byte	.LASF4
 1892 0048 02       		.uleb128 0x2
 1893 0049 04       		.byte	0x4
 1894 004a 07       		.byte	0x7
 1895 004b F3010000 		.4byte	.LASF5
 1896 004f 02       		.uleb128 0x2
 1897 0050 08       		.byte	0x8
 1898 0051 05       		.byte	0x5
 1899 0052 29010000 		.4byte	.LASF6
 1900 0056 02       		.uleb128 0x2
 1901 0057 08       		.byte	0x8
 1902 0058 07       		.byte	0x7
 1903 0059 F1000000 		.4byte	.LASF7
 1904 005d 03       		.uleb128 0x3
 1905 005e 04       		.byte	0x4
 1906 005f 05       		.byte	0x5
 1907 0060 696E7400 		.ascii	"int\000"
 1908 0064 02       		.uleb128 0x2
 1909 0065 04       		.byte	0x4
 1910 0066 07       		.byte	0x7
 1911 0067 E6010000 		.4byte	.LASF8
 1912 006b 04       		.uleb128 0x4
 1913 006c 92010000 		.4byte	.LASF9
 1914 0070 02       		.byte	0x2
 1915 0071 E401     		.2byte	0x1e4
 1916 0073 2C000000 		.4byte	0x2c
 1917 0077 04       		.uleb128 0x4
 1918 0078 00000000 		.4byte	.LASF10
 1919 007c 02       		.byte	0x2
 1920 007d E501     		.2byte	0x1e5
 1921 007f 3A000000 		.4byte	0x3a
 1922 0083 04       		.uleb128 0x4
 1923 0084 AD010000 		.4byte	.LASF11
 1924 0088 02       		.byte	0x2
ARM GAS  C:\Users\HPz420\AppData\Local\Temp\ccfvmIQa.s 			page 53


 1925 0089 E601     		.2byte	0x1e6
 1926 008b 48000000 		.4byte	0x48
 1927 008f 02       		.uleb128 0x2
 1928 0090 04       		.byte	0x4
 1929 0091 04       		.byte	0x4
 1930 0092 9B030000 		.4byte	.LASF12
 1931 0096 02       		.uleb128 0x2
 1932 0097 08       		.byte	0x8
 1933 0098 04       		.byte	0x4
 1934 0099 98010000 		.4byte	.LASF13
 1935 009d 02       		.uleb128 0x2
 1936 009e 01       		.byte	0x1
 1937 009f 08       		.byte	0x8
 1938 00a0 59040000 		.4byte	.LASF14
 1939 00a4 04       		.uleb128 0x4
 1940 00a5 16050000 		.4byte	.LASF15
 1941 00a9 02       		.byte	0x2
 1942 00aa 8602     		.2byte	0x286
 1943 00ac 48000000 		.4byte	0x48
 1944 00b0 05       		.uleb128 0x5
 1945 00b1 6B000000 		.4byte	0x6b
 1946 00b5 04       		.uleb128 0x4
 1947 00b6 8C010000 		.4byte	.LASF16
 1948 00ba 02       		.byte	0x2
 1949 00bb 8F02     		.2byte	0x28f
 1950 00bd C1000000 		.4byte	0xc1
 1951 00c1 05       		.uleb128 0x5
 1952 00c2 77000000 		.4byte	0x77
 1953 00c6 04       		.uleb128 0x4
 1954 00c7 1F030000 		.4byte	.LASF17
 1955 00cb 02       		.byte	0x2
 1956 00cc 9002     		.2byte	0x290
 1957 00ce D2000000 		.4byte	0xd2
 1958 00d2 05       		.uleb128 0x5
 1959 00d3 83000000 		.4byte	0x83
 1960 00d7 02       		.uleb128 0x2
 1961 00d8 08       		.byte	0x8
 1962 00d9 04       		.byte	0x4
 1963 00da 42030000 		.4byte	.LASF18
 1964 00de 02       		.uleb128 0x2
 1965 00df 04       		.byte	0x4
 1966 00e0 07       		.byte	0x7
 1967 00e1 39030000 		.4byte	.LASF19
 1968 00e5 06       		.uleb128 0x6
 1969 00e6 D8030000 		.4byte	.LASF25
 1970 00ea 10       		.byte	0x10
 1971 00eb 03       		.byte	0x3
 1972 00ec 47       		.byte	0x47
 1973 00ed 22010000 		.4byte	0x122
 1974 00f1 07       		.uleb128 0x7
 1975 00f2 47020000 		.4byte	.LASF20
 1976 00f6 03       		.byte	0x3
 1977 00f7 49       		.byte	0x49
 1978 00f8 32010000 		.4byte	0x132
 1979 00fc 00       		.byte	0
 1980 00fd 07       		.uleb128 0x7
 1981 00fe B4010000 		.4byte	.LASF21
ARM GAS  C:\Users\HPz420\AppData\Local\Temp\ccfvmIQa.s 			page 54


 1982 0102 03       		.byte	0x3
 1983 0103 4A       		.byte	0x4a
 1984 0104 37010000 		.4byte	0x137
 1985 0108 04       		.byte	0x4
 1986 0109 07       		.uleb128 0x7
 1987 010a 2C030000 		.4byte	.LASF22
 1988 010e 03       		.byte	0x3
 1989 010f 4B       		.byte	0x4b
 1990 0110 3C010000 		.4byte	0x13c
 1991 0114 08       		.byte	0x8
 1992 0115 07       		.uleb128 0x7
 1993 0116 BB010000 		.4byte	.LASF23
 1994 011a 03       		.byte	0x3
 1995 011b 4C       		.byte	0x4c
 1996 011c 41010000 		.4byte	0x141
 1997 0120 0C       		.byte	0xc
 1998 0121 00       		.byte	0
 1999 0122 08       		.uleb128 0x8
 2000 0123 B0000000 		.4byte	0xb0
 2001 0127 32010000 		.4byte	0x132
 2002 012b 09       		.uleb128 0x9
 2003 012c DE000000 		.4byte	0xde
 2004 0130 03       		.byte	0x3
 2005 0131 00       		.byte	0
 2006 0132 05       		.uleb128 0x5
 2007 0133 22010000 		.4byte	0x122
 2008 0137 05       		.uleb128 0x5
 2009 0138 22010000 		.4byte	0x122
 2010 013c 05       		.uleb128 0x5
 2011 013d 22010000 		.4byte	0x122
 2012 0141 05       		.uleb128 0x5
 2013 0142 22010000 		.4byte	0x122
 2014 0146 0A       		.uleb128 0xa
 2015 0147 79040000 		.4byte	.LASF24
 2016 014b 03       		.byte	0x3
 2017 014c 4E       		.byte	0x4e
 2018 014d E5000000 		.4byte	0xe5
 2019 0151 06       		.uleb128 0x6
 2020 0152 05020000 		.4byte	.LASF26
 2021 0156 08       		.byte	0x8
 2022 0157 03       		.byte	0x3
 2023 0158 51       		.byte	0x51
 2024 0159 76010000 		.4byte	0x176
 2025 015d 07       		.uleb128 0x7
 2026 015e D7040000 		.4byte	.LASF27
 2027 0162 03       		.byte	0x3
 2028 0163 53       		.byte	0x53
 2029 0164 76010000 		.4byte	0x176
 2030 0168 00       		.byte	0
 2031 0169 07       		.uleb128 0x7
 2032 016a DC040000 		.4byte	.LASF28
 2033 016e 03       		.byte	0x3
 2034 016f 54       		.byte	0x54
 2035 0170 7B010000 		.4byte	0x17b
 2036 0174 04       		.byte	0x4
 2037 0175 00       		.byte	0
 2038 0176 05       		.uleb128 0x5
ARM GAS  C:\Users\HPz420\AppData\Local\Temp\ccfvmIQa.s 			page 55


 2039 0177 22010000 		.4byte	0x122
 2040 017b 05       		.uleb128 0x5
 2041 017c 22010000 		.4byte	0x122
 2042 0180 0A       		.uleb128 0xa
 2043 0181 07000000 		.4byte	.LASF29
 2044 0185 03       		.byte	0x3
 2045 0186 56       		.byte	0x56
 2046 0187 51010000 		.4byte	0x151
 2047 018b 06       		.uleb128 0x6
 2048 018c 5B010000 		.4byte	.LASF30
 2049 0190 08       		.byte	0x8
 2050 0191 03       		.byte	0x3
 2051 0192 59       		.byte	0x59
 2052 0193 B0010000 		.4byte	0x1b0
 2053 0197 0B       		.uleb128 0xb
 2054 0198 54443000 		.ascii	"TD0\000"
 2055 019c 03       		.byte	0x3
 2056 019d 5B       		.byte	0x5b
 2057 019e B0010000 		.4byte	0x1b0
 2058 01a2 00       		.byte	0
 2059 01a3 0B       		.uleb128 0xb
 2060 01a4 54443100 		.ascii	"TD1\000"
 2061 01a8 03       		.byte	0x3
 2062 01a9 5C       		.byte	0x5c
 2063 01aa B5010000 		.4byte	0x1b5
 2064 01ae 04       		.byte	0x4
 2065 01af 00       		.byte	0
 2066 01b0 05       		.uleb128 0x5
 2067 01b1 22010000 		.4byte	0x122
 2068 01b5 05       		.uleb128 0x5
 2069 01b6 22010000 		.4byte	0x122
 2070 01ba 0A       		.uleb128 0xa
 2071 01bb A5040000 		.4byte	.LASF31
 2072 01bf 03       		.byte	0x3
 2073 01c0 5E       		.byte	0x5e
 2074 01c1 8B010000 		.4byte	0x18b
 2075 01c5 0C       		.uleb128 0xc
 2076 01c6 E1000000 		.4byte	.LASF32
 2077 01ca 01       		.byte	0x1
 2078 01cb 35       		.byte	0x35
 2079 01cc 00000000 		.4byte	.LFB0
 2080 01d0 5C000000 		.4byte	.LFE0-.LFB0
 2081 01d4 01       		.uleb128 0x1
 2082 01d5 9C       		.byte	0x9c
 2083 01d6 E9010000 		.4byte	0x1e9
 2084 01da 0D       		.uleb128 0xd
 2085 01db 72030000 		.4byte	.LASF36
 2086 01df 01       		.byte	0x1
 2087 01e0 37       		.byte	0x37
 2088 01e1 6B000000 		.4byte	0x6b
 2089 01e5 02       		.uleb128 0x2
 2090 01e6 91       		.byte	0x91
 2091 01e7 77       		.sleb128 -9
 2092 01e8 00       		.byte	0
 2093 01e9 0E       		.uleb128 0xe
 2094 01ea 72020000 		.4byte	.LASF34
 2095 01ee 01       		.byte	0x1
ARM GAS  C:\Users\HPz420\AppData\Local\Temp\ccfvmIQa.s 			page 56


 2096 01ef 60       		.byte	0x60
 2097 01f0 6B000000 		.4byte	0x6b
 2098 01f4 00000000 		.4byte	.LFB1
 2099 01f8 1C000000 		.4byte	.LFE1-.LFB1
 2100 01fc 01       		.uleb128 0x1
 2101 01fd 9C       		.byte	0x9c
 2102 01fe 0C       		.uleb128 0xc
 2103 01ff 9E020000 		.4byte	.LASF33
 2104 0203 01       		.byte	0x1
 2105 0204 7F       		.byte	0x7f
 2106 0205 00000000 		.4byte	.LFB2
 2107 0209 24000000 		.4byte	.LFE2-.LFB2
 2108 020d 01       		.uleb128 0x1
 2109 020e 9C       		.byte	0x9c
 2110 020f 22020000 		.4byte	0x222
 2111 0213 0F       		.uleb128 0xf
 2112 0214 A1030000 		.4byte	.LASF41
 2113 0218 01       		.byte	0x1
 2114 0219 7F       		.byte	0x7f
 2115 021a 6B000000 		.4byte	0x6b
 2116 021e 02       		.uleb128 0x2
 2117 021f 91       		.byte	0x91
 2118 0220 77       		.sleb128 -9
 2119 0221 00       		.byte	0
 2120 0222 0E       		.uleb128 0xe
 2121 0223 13000000 		.4byte	.LASF35
 2122 0227 01       		.byte	0x1
 2123 0228 92       		.byte	0x92
 2124 0229 83000000 		.4byte	0x83
 2125 022d 00000000 		.4byte	.LFB3
 2126 0231 14000000 		.4byte	.LFE3-.LFB3
 2127 0235 01       		.uleb128 0x1
 2128 0236 9C       		.byte	0x9c
 2129 0237 10       		.uleb128 0x10
 2130 0238 42040000 		.4byte	.LASF39
 2131 023c 01       		.byte	0x1
 2132 023d A3       		.byte	0xa3
 2133 023e 6B000000 		.4byte	0x6b
 2134 0242 00000000 		.4byte	.LFB4
 2135 0246 64000000 		.4byte	.LFE4-.LFB4
 2136 024a 01       		.uleb128 0x1
 2137 024b 9C       		.byte	0x9c
 2138 024c 7B020000 		.4byte	0x27b
 2139 0250 0D       		.uleb128 0xd
 2140 0251 43010000 		.4byte	.LASF37
 2141 0255 01       		.byte	0x1
 2142 0256 A5       		.byte	0xa5
 2143 0257 6B000000 		.4byte	0x6b
 2144 025b 02       		.uleb128 0x2
 2145 025c 91       		.byte	0x91
 2146 025d 6F       		.sleb128 -17
 2147 025e 0D       		.uleb128 0xd
 2148 025f 72030000 		.4byte	.LASF36
 2149 0263 01       		.byte	0x1
 2150 0264 A6       		.byte	0xa6
 2151 0265 6B000000 		.4byte	0x6b
 2152 0269 02       		.uleb128 0x2
ARM GAS  C:\Users\HPz420\AppData\Local\Temp\ccfvmIQa.s 			page 57


 2153 026a 91       		.byte	0x91
 2154 026b 77       		.sleb128 -9
 2155 026c 0D       		.uleb128 0xd
 2156 026d 1D040000 		.4byte	.LASF38
 2157 0271 01       		.byte	0x1
 2158 0272 A7       		.byte	0xa7
 2159 0273 83000000 		.4byte	0x83
 2160 0277 02       		.uleb128 0x2
 2161 0278 91       		.byte	0x91
 2162 0279 70       		.sleb128 -16
 2163 027a 00       		.byte	0
 2164 027b 10       		.uleb128 0x10
 2165 027c 3F050000 		.4byte	.LASF40
 2166 0280 01       		.byte	0x1
 2167 0281 D3       		.byte	0xd3
 2168 0282 A4000000 		.4byte	0xa4
 2169 0286 00000000 		.4byte	.LFB5
 2170 028a 4C000000 		.4byte	.LFE5-.LFB5
 2171 028e 01       		.uleb128 0x1
 2172 028f 9C       		.byte	0x9c
 2173 0290 BF020000 		.4byte	0x2bf
 2174 0294 0F       		.uleb128 0xf
 2175 0295 14040000 		.4byte	.LASF42
 2176 0299 01       		.byte	0x1
 2177 029a D3       		.byte	0xd3
 2178 029b 6B000000 		.4byte	0x6b
 2179 029f 02       		.uleb128 0x2
 2180 02a0 91       		.byte	0x91
 2181 02a1 6F       		.sleb128 -17
 2182 02a2 0D       		.uleb128 0xd
 2183 02a3 E1040000 		.4byte	.LASF43
 2184 02a7 01       		.byte	0x1
 2185 02a8 D5       		.byte	0xd5
 2186 02a9 A4000000 		.4byte	0xa4
 2187 02ad 02       		.uleb128 0x2
 2188 02ae 91       		.byte	0x91
 2189 02af 74       		.sleb128 -12
 2190 02b0 0D       		.uleb128 0xd
 2191 02b1 43010000 		.4byte	.LASF37
 2192 02b5 01       		.byte	0x1
 2193 02b6 D6       		.byte	0xd6
 2194 02b7 6B000000 		.4byte	0x6b
 2195 02bb 02       		.uleb128 0x2
 2196 02bc 91       		.byte	0x91
 2197 02bd 73       		.sleb128 -13
 2198 02be 00       		.byte	0
 2199 02bf 11       		.uleb128 0x11
 2200 02c0 FF030000 		.4byte	.LASF44
 2201 02c4 01       		.byte	0x1
 2202 02c5 0D01     		.2byte	0x10d
 2203 02c7 A4000000 		.4byte	0xa4
 2204 02cb 00000000 		.4byte	.LFB6
 2205 02cf 8C000000 		.4byte	.LFE6-.LFB6
 2206 02d3 01       		.uleb128 0x1
 2207 02d4 9C       		.byte	0x9c
 2208 02d5 07030000 		.4byte	0x307
 2209 02d9 12       		.uleb128 0x12
ARM GAS  C:\Users\HPz420\AppData\Local\Temp\ccfvmIQa.s 			page 58


 2210 02da 14040000 		.4byte	.LASF42
 2211 02de 01       		.byte	0x1
 2212 02df 0D01     		.2byte	0x10d
 2213 02e1 6B000000 		.4byte	0x6b
 2214 02e5 02       		.uleb128 0x2
 2215 02e6 91       		.byte	0x91
 2216 02e7 6F       		.sleb128 -17
 2217 02e8 12       		.uleb128 0x12
 2218 02e9 91040000 		.4byte	.LASF45
 2219 02ed 01       		.byte	0x1
 2220 02ee 0D01     		.2byte	0x10d
 2221 02f0 6B000000 		.4byte	0x6b
 2222 02f4 02       		.uleb128 0x2
 2223 02f5 91       		.byte	0x91
 2224 02f6 6E       		.sleb128 -18
 2225 02f7 13       		.uleb128 0x13
 2226 02f8 E1040000 		.4byte	.LASF43
 2227 02fc 01       		.byte	0x1
 2228 02fd 0F01     		.2byte	0x10f
 2229 02ff A4000000 		.4byte	0xa4
 2230 0303 02       		.uleb128 0x2
 2231 0304 91       		.byte	0x91
 2232 0305 74       		.sleb128 -12
 2233 0306 00       		.byte	0
 2234 0307 11       		.uleb128 0x11
 2235 0308 33040000 		.4byte	.LASF46
 2236 030c 01       		.byte	0x1
 2237 030d 3C01     		.2byte	0x13c
 2238 030f A4000000 		.4byte	0xa4
 2239 0313 00000000 		.4byte	.LFB7
 2240 0317 60000000 		.4byte	.LFE7-.LFB7
 2241 031b 01       		.uleb128 0x1
 2242 031c 9C       		.byte	0x9c
 2243 031d 40030000 		.4byte	0x340
 2244 0321 12       		.uleb128 0x12
 2245 0322 14040000 		.4byte	.LASF42
 2246 0326 01       		.byte	0x1
 2247 0327 3C01     		.2byte	0x13c
 2248 0329 6B000000 		.4byte	0x6b
 2249 032d 02       		.uleb128 0x2
 2250 032e 91       		.byte	0x91
 2251 032f 6F       		.sleb128 -17
 2252 0330 13       		.uleb128 0x13
 2253 0331 E1040000 		.4byte	.LASF43
 2254 0335 01       		.byte	0x1
 2255 0336 3E01     		.2byte	0x13e
 2256 0338 A4000000 		.4byte	0xa4
 2257 033c 02       		.uleb128 0x2
 2258 033d 91       		.byte	0x91
 2259 033e 74       		.sleb128 -12
 2260 033f 00       		.byte	0
 2261 0340 11       		.uleb128 0x11
 2262 0341 7B030000 		.4byte	.LASF47
 2263 0345 01       		.byte	0x1
 2264 0346 5F01     		.2byte	0x15f
 2265 0348 A4000000 		.4byte	0xa4
 2266 034c 00000000 		.4byte	.LFB8
ARM GAS  C:\Users\HPz420\AppData\Local\Temp\ccfvmIQa.s 			page 59


 2267 0350 60000000 		.4byte	.LFE8-.LFB8
 2268 0354 01       		.uleb128 0x1
 2269 0355 9C       		.byte	0x9c
 2270 0356 79030000 		.4byte	0x379
 2271 035a 12       		.uleb128 0x12
 2272 035b 14040000 		.4byte	.LASF42
 2273 035f 01       		.byte	0x1
 2274 0360 5F01     		.2byte	0x15f
 2275 0362 6B000000 		.4byte	0x6b
 2276 0366 02       		.uleb128 0x2
 2277 0367 91       		.byte	0x91
 2278 0368 6F       		.sleb128 -17
 2279 0369 13       		.uleb128 0x13
 2280 036a E1040000 		.4byte	.LASF43
 2281 036e 01       		.byte	0x1
 2282 036f 6101     		.2byte	0x161
 2283 0371 A4000000 		.4byte	0xa4
 2284 0375 02       		.uleb128 0x2
 2285 0376 91       		.byte	0x91
 2286 0377 74       		.sleb128 -12
 2287 0378 00       		.byte	0
 2288 0379 11       		.uleb128 0x11
 2289 037a D6010000 		.4byte	.LASF48
 2290 037e 01       		.byte	0x1
 2291 037f 7F01     		.2byte	0x17f
 2292 0381 A4000000 		.4byte	0xa4
 2293 0385 00000000 		.4byte	.LFB9
 2294 0389 64000000 		.4byte	.LFE9-.LFB9
 2295 038d 01       		.uleb128 0x1
 2296 038e 9C       		.byte	0x9c
 2297 038f D0030000 		.4byte	0x3d0
 2298 0393 12       		.uleb128 0x12
 2299 0394 14040000 		.4byte	.LASF42
 2300 0398 01       		.byte	0x1
 2301 0399 7F01     		.2byte	0x17f
 2302 039b 6B000000 		.4byte	0x6b
 2303 039f 02       		.uleb128 0x2
 2304 03a0 91       		.byte	0x91
 2305 03a1 6F       		.sleb128 -17
 2306 03a2 12       		.uleb128 0x12
 2307 03a3 5E040000 		.4byte	.LASF49
 2308 03a7 01       		.byte	0x1
 2309 03a8 7F01     		.2byte	0x17f
 2310 03aa 6B000000 		.4byte	0x6b
 2311 03ae 02       		.uleb128 0x2
 2312 03af 91       		.byte	0x91
 2313 03b0 6E       		.sleb128 -18
 2314 03b1 13       		.uleb128 0x13
 2315 03b2 C4010000 		.4byte	.LASF50
 2316 03b6 01       		.byte	0x1
 2317 03b7 8101     		.2byte	0x181
 2318 03b9 6B000000 		.4byte	0x6b
 2319 03bd 02       		.uleb128 0x2
 2320 03be 91       		.byte	0x91
 2321 03bf 73       		.sleb128 -13
 2322 03c0 13       		.uleb128 0x13
 2323 03c1 E1040000 		.4byte	.LASF43
ARM GAS  C:\Users\HPz420\AppData\Local\Temp\ccfvmIQa.s 			page 60


 2324 03c5 01       		.byte	0x1
 2325 03c6 8201     		.2byte	0x182
 2326 03c8 A4000000 		.4byte	0xa4
 2327 03cc 02       		.uleb128 0x2
 2328 03cd 91       		.byte	0x91
 2329 03ce 74       		.sleb128 -12
 2330 03cf 00       		.byte	0
 2331 03d0 11       		.uleb128 0x11
 2332 03d1 18020000 		.4byte	.LASF51
 2333 03d5 01       		.byte	0x1
 2334 03d6 A301     		.2byte	0x1a3
 2335 03d8 A4000000 		.4byte	0xa4
 2336 03dc 00000000 		.4byte	.LFB10
 2337 03e0 78000000 		.4byte	.LFE10-.LFB10
 2338 03e4 01       		.uleb128 0x1
 2339 03e5 9C       		.byte	0x9c
 2340 03e6 36040000 		.4byte	0x436
 2341 03ea 12       		.uleb128 0x12
 2342 03eb 14040000 		.4byte	.LASF42
 2343 03ef 01       		.byte	0x1
 2344 03f0 A301     		.2byte	0x1a3
 2345 03f2 6B000000 		.4byte	0x6b
 2346 03f6 02       		.uleb128 0x2
 2347 03f7 91       		.byte	0x91
 2348 03f8 6F       		.sleb128 -17
 2349 03f9 12       		.uleb128 0x12
 2350 03fa 25030000 		.4byte	.LASF52
 2351 03fe 01       		.byte	0x1
 2352 03ff A301     		.2byte	0x1a3
 2353 0401 77000000 		.4byte	0x77
 2354 0405 02       		.uleb128 0x2
 2355 0406 91       		.byte	0x91
 2356 0407 6C       		.sleb128 -20
 2357 0408 12       		.uleb128 0x12
 2358 0409 CA010000 		.4byte	.LASF53
 2359 040d 01       		.byte	0x1
 2360 040e A301     		.2byte	0x1a3
 2361 0410 77000000 		.4byte	0x77
 2362 0414 02       		.uleb128 0x2
 2363 0415 91       		.byte	0x91
 2364 0416 6A       		.sleb128 -22
 2365 0417 13       		.uleb128 0x13
 2366 0418 E1040000 		.4byte	.LASF43
 2367 041c 01       		.byte	0x1
 2368 041d A601     		.2byte	0x1a6
 2369 041f A4000000 		.4byte	0xa4
 2370 0423 02       		.uleb128 0x2
 2371 0424 91       		.byte	0x91
 2372 0425 74       		.sleb128 -12
 2373 0426 13       		.uleb128 0x13
 2374 0427 9D040000 		.4byte	.LASF54
 2375 042b 01       		.byte	0x1
 2376 042c A701     		.2byte	0x1a7
 2377 042e 36040000 		.4byte	0x436
 2378 0432 02       		.uleb128 0x2
 2379 0433 91       		.byte	0x91
 2380 0434 70       		.sleb128 -16
ARM GAS  C:\Users\HPz420\AppData\Local\Temp\ccfvmIQa.s 			page 61


 2381 0435 00       		.byte	0
 2382 0436 14       		.uleb128 0x14
 2383 0437 04       		.byte	0x4
 2384 0438 B5000000 		.4byte	0xb5
 2385 043c 11       		.uleb128 0x11
 2386 043d 02050000 		.4byte	.LASF55
 2387 0441 01       		.byte	0x1
 2388 0442 DA01     		.2byte	0x1da
 2389 0444 A4000000 		.4byte	0xa4
 2390 0448 00000000 		.4byte	.LFB11
 2391 044c 3C000000 		.4byte	.LFE11-.LFB11
 2392 0450 01       		.uleb128 0x1
 2393 0451 9C       		.byte	0x9c
 2394 0452 84040000 		.4byte	0x484
 2395 0456 12       		.uleb128 0x12
 2396 0457 14040000 		.4byte	.LASF42
 2397 045b 01       		.byte	0x1
 2398 045c DA01     		.2byte	0x1da
 2399 045e 6B000000 		.4byte	0x6b
 2400 0462 02       		.uleb128 0x2
 2401 0463 91       		.byte	0x91
 2402 0464 6F       		.sleb128 -17
 2403 0465 12       		.uleb128 0x12
 2404 0466 B0040000 		.4byte	.LASF56
 2405 046a 01       		.byte	0x1
 2406 046b DA01     		.2byte	0x1da
 2407 046d 6B000000 		.4byte	0x6b
 2408 0471 02       		.uleb128 0x2
 2409 0472 91       		.byte	0x91
 2410 0473 6E       		.sleb128 -18
 2411 0474 13       		.uleb128 0x13
 2412 0475 E1040000 		.4byte	.LASF43
 2413 0479 01       		.byte	0x1
 2414 047a DC01     		.2byte	0x1dc
 2415 047c A4000000 		.4byte	0xa4
 2416 0480 02       		.uleb128 0x2
 2417 0481 91       		.byte	0x91
 2418 0482 74       		.sleb128 -12
 2419 0483 00       		.byte	0
 2420 0484 11       		.uleb128 0x11
 2421 0485 C6030000 		.4byte	.LASF57
 2422 0489 01       		.byte	0x1
 2423 048a FC01     		.2byte	0x1fc
 2424 048c A4000000 		.4byte	0xa4
 2425 0490 00000000 		.4byte	.LFB12
 2426 0494 58000000 		.4byte	.LFE12-.LFB12
 2427 0498 01       		.uleb128 0x1
 2428 0499 9C       		.byte	0x9c
 2429 049a CC040000 		.4byte	0x4cc
 2430 049e 12       		.uleb128 0x12
 2431 049f 14040000 		.4byte	.LASF42
 2432 04a3 01       		.byte	0x1
 2433 04a4 FC01     		.2byte	0x1fc
 2434 04a6 6B000000 		.4byte	0x6b
 2435 04aa 02       		.uleb128 0x2
 2436 04ab 91       		.byte	0x91
 2437 04ac 6F       		.sleb128 -17
ARM GAS  C:\Users\HPz420\AppData\Local\Temp\ccfvmIQa.s 			page 62


 2438 04ad 12       		.uleb128 0x12
 2439 04ae FA040000 		.4byte	.LASF58
 2440 04b2 01       		.byte	0x1
 2441 04b3 FC01     		.2byte	0x1fc
 2442 04b5 6B000000 		.4byte	0x6b
 2443 04b9 02       		.uleb128 0x2
 2444 04ba 91       		.byte	0x91
 2445 04bb 6E       		.sleb128 -18
 2446 04bc 13       		.uleb128 0x13
 2447 04bd E1040000 		.4byte	.LASF43
 2448 04c1 01       		.byte	0x1
 2449 04c2 FE01     		.2byte	0x1fe
 2450 04c4 A4000000 		.4byte	0xa4
 2451 04c8 02       		.uleb128 0x2
 2452 04c9 91       		.byte	0x91
 2453 04ca 74       		.sleb128 -12
 2454 04cb 00       		.byte	0
 2455 04cc 11       		.uleb128 0x11
 2456 04cd E8040000 		.4byte	.LASF59
 2457 04d1 01       		.byte	0x1
 2458 04d2 1A02     		.2byte	0x21a
 2459 04d4 A4000000 		.4byte	0xa4
 2460 04d8 00000000 		.4byte	.LFB13
 2461 04dc 38000000 		.4byte	.LFE13-.LFB13
 2462 04e0 01       		.uleb128 0x1
 2463 04e1 9C       		.byte	0x9c
 2464 04e2 05050000 		.4byte	0x505
 2465 04e6 12       		.uleb128 0x12
 2466 04e7 14040000 		.4byte	.LASF42
 2467 04eb 01       		.byte	0x1
 2468 04ec 1A02     		.2byte	0x21a
 2469 04ee 6B000000 		.4byte	0x6b
 2470 04f2 02       		.uleb128 0x2
 2471 04f3 91       		.byte	0x91
 2472 04f4 6F       		.sleb128 -17
 2473 04f5 13       		.uleb128 0x13
 2474 04f6 E1040000 		.4byte	.LASF43
 2475 04fa 01       		.byte	0x1
 2476 04fb 1C02     		.2byte	0x21c
 2477 04fd A4000000 		.4byte	0xa4
 2478 0501 02       		.uleb128 0x2
 2479 0502 91       		.byte	0x91
 2480 0503 74       		.sleb128 -12
 2481 0504 00       		.byte	0
 2482 0505 11       		.uleb128 0x11
 2483 0506 25040000 		.4byte	.LASF60
 2484 050a 01       		.byte	0x1
 2485 050b 4702     		.2byte	0x247
 2486 050d A4000000 		.4byte	0xa4
 2487 0511 00000000 		.4byte	.LFB14
 2488 0515 60000000 		.4byte	.LFE14-.LFB14
 2489 0519 01       		.uleb128 0x1
 2490 051a 9C       		.byte	0x9c
 2491 051b 5C050000 		.4byte	0x55c
 2492 051f 12       		.uleb128 0x12
 2493 0520 14040000 		.4byte	.LASF42
 2494 0524 01       		.byte	0x1
ARM GAS  C:\Users\HPz420\AppData\Local\Temp\ccfvmIQa.s 			page 63


 2495 0525 4702     		.2byte	0x247
 2496 0527 6B000000 		.4byte	0x6b
 2497 052b 02       		.uleb128 0x2
 2498 052c 91       		.byte	0x91
 2499 052d 6F       		.sleb128 -17
 2500 052e 12       		.uleb128 0x12
 2501 052f 4F040000 		.4byte	.LASF61
 2502 0533 01       		.byte	0x1
 2503 0534 4702     		.2byte	0x247
 2504 0536 5C050000 		.4byte	0x55c
 2505 053a 02       		.uleb128 0x2
 2506 053b 91       		.byte	0x91
 2507 053c 68       		.sleb128 -24
 2508 053d 12       		.uleb128 0x12
 2509 053e 6D010000 		.4byte	.LASF62
 2510 0542 01       		.byte	0x1
 2511 0543 4702     		.2byte	0x247
 2512 0545 5C050000 		.4byte	0x55c
 2513 0549 02       		.uleb128 0x2
 2514 054a 91       		.byte	0x91
 2515 054b 64       		.sleb128 -28
 2516 054c 13       		.uleb128 0x13
 2517 054d E1040000 		.4byte	.LASF43
 2518 0551 01       		.byte	0x1
 2519 0552 4902     		.2byte	0x249
 2520 0554 A4000000 		.4byte	0xa4
 2521 0558 02       		.uleb128 0x2
 2522 0559 91       		.byte	0x91
 2523 055a 74       		.sleb128 -12
 2524 055b 00       		.byte	0
 2525 055c 14       		.uleb128 0x14
 2526 055d 04       		.byte	0x4
 2527 055e 6B000000 		.4byte	0x6b
 2528 0562 11       		.uleb128 0x11
 2529 0563 1F050000 		.4byte	.LASF63
 2530 0567 01       		.byte	0x1
 2531 0568 8702     		.2byte	0x287
 2532 056a A4000000 		.4byte	0xa4
 2533 056e 00000000 		.4byte	.LFB15
 2534 0572 9E000000 		.4byte	.LFE15-.LFB15
 2535 0576 01       		.uleb128 0x1
 2536 0577 9C       		.byte	0x9c
 2537 0578 E6050000 		.4byte	0x5e6
 2538 057c 12       		.uleb128 0x12
 2539 057d 14040000 		.4byte	.LASF42
 2540 0581 01       		.byte	0x1
 2541 0582 8702     		.2byte	0x287
 2542 0584 6B000000 		.4byte	0x6b
 2543 0588 02       		.uleb128 0x2
 2544 0589 91       		.byte	0x91
 2545 058a 6F       		.sleb128 -17
 2546 058b 12       		.uleb128 0x12
 2547 058c 90030000 		.4byte	.LASF64
 2548 0590 01       		.byte	0x1
 2549 0591 8702     		.2byte	0x287
 2550 0593 6B000000 		.4byte	0x6b
 2551 0597 02       		.uleb128 0x2
ARM GAS  C:\Users\HPz420\AppData\Local\Temp\ccfvmIQa.s 			page 64


 2552 0598 91       		.byte	0x91
 2553 0599 6E       		.sleb128 -18
 2554 059a 12       		.uleb128 0x12
 2555 059b 81040000 		.4byte	.LASF65
 2556 059f 01       		.byte	0x1
 2557 05a0 8702     		.2byte	0x287
 2558 05a2 6B000000 		.4byte	0x6b
 2559 05a6 02       		.uleb128 0x2
 2560 05a7 91       		.byte	0x91
 2561 05a8 6D       		.sleb128 -19
 2562 05a9 12       		.uleb128 0x12
 2563 05aa 7C010000 		.4byte	.LASF66
 2564 05ae 01       		.byte	0x1
 2565 05af 8802     		.2byte	0x288
 2566 05b1 6B000000 		.4byte	0x6b
 2567 05b5 02       		.uleb128 0x2
 2568 05b6 91       		.byte	0x91
 2569 05b7 6C       		.sleb128 -20
 2570 05b8 12       		.uleb128 0x12
 2571 05b9 84010000 		.4byte	.LASF67
 2572 05bd 01       		.byte	0x1
 2573 05be 8802     		.2byte	0x288
 2574 05c0 6B000000 		.4byte	0x6b
 2575 05c4 02       		.uleb128 0x2
 2576 05c5 91       		.byte	0x91
 2577 05c6 00       		.sleb128 0
 2578 05c7 12       		.uleb128 0x12
 2579 05c8 0D040000 		.4byte	.LASF68
 2580 05cc 01       		.byte	0x1
 2581 05cd 8802     		.2byte	0x288
 2582 05cf 6B000000 		.4byte	0x6b
 2583 05d3 02       		.uleb128 0x2
 2584 05d4 91       		.byte	0x91
 2585 05d5 04       		.sleb128 4
 2586 05d6 13       		.uleb128 0x13
 2587 05d7 E1040000 		.4byte	.LASF43
 2588 05db 01       		.byte	0x1
 2589 05dc 8A02     		.2byte	0x28a
 2590 05de A4000000 		.4byte	0xa4
 2591 05e2 02       		.uleb128 0x2
 2592 05e3 91       		.byte	0x91
 2593 05e4 74       		.sleb128 -12
 2594 05e5 00       		.byte	0
 2595 05e6 15       		.uleb128 0x15
 2596 05e7 26000000 		.4byte	.LASF69
 2597 05eb 01       		.byte	0x1
 2598 05ec A702     		.2byte	0x2a7
 2599 05ee 6B000000 		.4byte	0x6b
 2600 05f2 00000000 		.4byte	.LFB16
 2601 05f6 5C000000 		.4byte	.LFE16-.LFB16
 2602 05fa 01       		.uleb128 0x1
 2603 05fb 9C       		.byte	0x9c
 2604 05fc 1F060000 		.4byte	0x61f
 2605 0600 13       		.uleb128 0x13
 2606 0601 43010000 		.4byte	.LASF37
 2607 0605 01       		.byte	0x1
 2608 0606 A902     		.2byte	0x2a9
ARM GAS  C:\Users\HPz420\AppData\Local\Temp\ccfvmIQa.s 			page 65


 2609 0608 6B000000 		.4byte	0x6b
 2610 060c 02       		.uleb128 0x2
 2611 060d 91       		.byte	0x91
 2612 060e 76       		.sleb128 -10
 2613 060f 13       		.uleb128 0x13
 2614 0610 37050000 		.4byte	.LASF70
 2615 0614 01       		.byte	0x1
 2616 0615 AA02     		.2byte	0x2aa
 2617 0617 6B000000 		.4byte	0x6b
 2618 061b 02       		.uleb128 0x2
 2619 061c 91       		.byte	0x91
 2620 061d 77       		.sleb128 -9
 2621 061e 00       		.byte	0
 2622 061f 16       		.uleb128 0x16
 2623 0620 36000000 		.4byte	.LASF71
 2624 0624 01       		.byte	0x1
 2625 0625 CC02     		.2byte	0x2cc
 2626 0627 00000000 		.4byte	.LFB17
 2627 062b 58000000 		.4byte	.LFE17-.LFB17
 2628 062f 01       		.uleb128 0x1
 2629 0630 9C       		.byte	0x9c
 2630 0631 5E060000 		.4byte	0x65e
 2631 0635 12       		.uleb128 0x12
 2632 0636 20010000 		.4byte	.LASF72
 2633 063a 01       		.byte	0x1
 2634 063b CC02     		.2byte	0x2cc
 2635 063d 6B000000 		.4byte	0x6b
 2636 0641 02       		.uleb128 0x2
 2637 0642 91       		.byte	0x91
 2638 0643 6F       		.sleb128 -17
 2639 0644 17       		.uleb128 0x17
 2640 0645 12000000 		.4byte	.LBB2
 2641 0649 34000000 		.4byte	.LBE2-.LBB2
 2642 064d 13       		.uleb128 0x13
 2643 064e 43010000 		.4byte	.LASF37
 2644 0652 01       		.byte	0x1
 2645 0653 D102     		.2byte	0x2d1
 2646 0655 6B000000 		.4byte	0x6b
 2647 0659 02       		.uleb128 0x2
 2648 065a 91       		.byte	0x91
 2649 065b 77       		.sleb128 -9
 2650 065c 00       		.byte	0
 2651 065d 00       		.byte	0
 2652 065e 18       		.uleb128 0x18
 2653 065f D0000000 		.4byte	.LASF73
 2654 0663 01       		.byte	0x1
 2655 0664 EC02     		.2byte	0x2ec
 2656 0666 6B000000 		.4byte	0x6b
 2657 066a 00000000 		.4byte	.LFB18
 2658 066e 18000000 		.4byte	.LFE18-.LFB18
 2659 0672 01       		.uleb128 0x1
 2660 0673 9C       		.byte	0x9c
 2661 0674 11       		.uleb128 0x11
 2662 0675 08010000 		.4byte	.LASF74
 2663 0679 01       		.byte	0x1
 2664 067a 2703     		.2byte	0x327
 2665 067c A4000000 		.4byte	0xa4
ARM GAS  C:\Users\HPz420\AppData\Local\Temp\ccfvmIQa.s 			page 66


 2666 0680 00000000 		.4byte	.LFB19
 2667 0684 7E000000 		.4byte	.LFE19-.LFB19
 2668 0688 01       		.uleb128 0x1
 2669 0689 9C       		.byte	0x9c
 2670 068a F3060000 		.4byte	0x6f3
 2671 068e 12       		.uleb128 0x12
 2672 068f 20010000 		.4byte	.LASF72
 2673 0693 01       		.byte	0x1
 2674 0694 2703     		.2byte	0x327
 2675 0696 6B000000 		.4byte	0x6b
 2676 069a 02       		.uleb128 0x2
 2677 069b 91       		.byte	0x91
 2678 069c 6F       		.sleb128 -17
 2679 069d 12       		.uleb128 0x12
 2680 069e C9040000 		.4byte	.LASF75
 2681 06a2 01       		.byte	0x1
 2682 06a3 2703     		.2byte	0x327
 2683 06a5 77000000 		.4byte	0x77
 2684 06a9 02       		.uleb128 0x2
 2685 06aa 91       		.byte	0x91
 2686 06ab 6C       		.sleb128 -20
 2687 06ac 12       		.uleb128 0x12
 2688 06ad BF030000 		.4byte	.LASF76
 2689 06b1 01       		.byte	0x1
 2690 06b2 2703     		.2byte	0x327
 2691 06b4 6B000000 		.4byte	0x6b
 2692 06b8 02       		.uleb128 0x2
 2693 06b9 91       		.byte	0x91
 2694 06ba 6E       		.sleb128 -18
 2695 06bb 12       		.uleb128 0x12
 2696 06bc 64020000 		.4byte	.LASF77
 2697 06c0 01       		.byte	0x1
 2698 06c1 2703     		.2byte	0x327
 2699 06c3 6B000000 		.4byte	0x6b
 2700 06c7 02       		.uleb128 0x2
 2701 06c8 91       		.byte	0x91
 2702 06c9 6B       		.sleb128 -21
 2703 06ca 13       		.uleb128 0x13
 2704 06cb E1040000 		.4byte	.LASF43
 2705 06cf 01       		.byte	0x1
 2706 06d0 2A03     		.2byte	0x32a
 2707 06d2 A4000000 		.4byte	0xa4
 2708 06d6 02       		.uleb128 0x2
 2709 06d7 91       		.byte	0x91
 2710 06d8 74       		.sleb128 -12
 2711 06d9 17       		.uleb128 0x17
 2712 06da 3A000000 		.4byte	.LBB3
 2713 06de 38000000 		.4byte	.LBE3-.LBB3
 2714 06e2 13       		.uleb128 0x13
 2715 06e3 9D040000 		.4byte	.LASF54
 2716 06e7 01       		.byte	0x1
 2717 06e8 2F03     		.2byte	0x32f
 2718 06ea 36040000 		.4byte	0x436
 2719 06ee 02       		.uleb128 0x2
 2720 06ef 91       		.byte	0x91
 2721 06f0 70       		.sleb128 -16
 2722 06f1 00       		.byte	0
ARM GAS  C:\Users\HPz420\AppData\Local\Temp\ccfvmIQa.s 			page 67


 2723 06f2 00       		.byte	0
 2724 06f3 11       		.uleb128 0x11
 2725 06f4 A7030000 		.4byte	.LASF78
 2726 06f8 01       		.byte	0x1
 2727 06f9 6103     		.2byte	0x361
 2728 06fb A4000000 		.4byte	0xa4
 2729 06ff 00000000 		.4byte	.LFB20
 2730 0703 84000000 		.4byte	.LFE20-.LFB20
 2731 0707 01       		.uleb128 0x1
 2732 0708 9C       		.byte	0x9c
 2733 0709 72070000 		.4byte	0x772
 2734 070d 12       		.uleb128 0x12
 2735 070e 20010000 		.4byte	.LASF72
 2736 0712 01       		.byte	0x1
 2737 0713 6103     		.2byte	0x361
 2738 0715 6B000000 		.4byte	0x6b
 2739 0719 02       		.uleb128 0x2
 2740 071a 91       		.byte	0x91
 2741 071b 6F       		.sleb128 -17
 2742 071c 12       		.uleb128 0x12
 2743 071d C9040000 		.4byte	.LASF75
 2744 0721 01       		.byte	0x1
 2745 0722 6103     		.2byte	0x361
 2746 0724 72070000 		.4byte	0x772
 2747 0728 02       		.uleb128 0x2
 2748 0729 91       		.byte	0x91
 2749 072a 68       		.sleb128 -24
 2750 072b 12       		.uleb128 0x12
 2751 072c BF030000 		.4byte	.LASF76
 2752 0730 01       		.byte	0x1
 2753 0731 6103     		.2byte	0x361
 2754 0733 5C050000 		.4byte	0x55c
 2755 0737 02       		.uleb128 0x2
 2756 0738 91       		.byte	0x91
 2757 0739 64       		.sleb128 -28
 2758 073a 12       		.uleb128 0x12
 2759 073b 64020000 		.4byte	.LASF77
 2760 073f 01       		.byte	0x1
 2761 0740 6103     		.2byte	0x361
 2762 0742 5C050000 		.4byte	0x55c
 2763 0746 02       		.uleb128 0x2
 2764 0747 91       		.byte	0x91
 2765 0748 60       		.sleb128 -32
 2766 0749 13       		.uleb128 0x13
 2767 074a E1040000 		.4byte	.LASF43
 2768 074e 01       		.byte	0x1
 2769 074f 6403     		.2byte	0x364
 2770 0751 A4000000 		.4byte	0xa4
 2771 0755 02       		.uleb128 0x2
 2772 0756 91       		.byte	0x91
 2773 0757 74       		.sleb128 -12
 2774 0758 17       		.uleb128 0x17
 2775 0759 22000000 		.4byte	.LBB4
 2776 075d 1E000000 		.4byte	.LBE4-.LBB4
 2777 0761 13       		.uleb128 0x13
 2778 0762 9D040000 		.4byte	.LASF54
 2779 0766 01       		.byte	0x1
ARM GAS  C:\Users\HPz420\AppData\Local\Temp\ccfvmIQa.s 			page 68


 2780 0767 6C03     		.2byte	0x36c
 2781 0769 36040000 		.4byte	0x436
 2782 076d 02       		.uleb128 0x2
 2783 076e 91       		.byte	0x91
 2784 076f 70       		.sleb128 -16
 2785 0770 00       		.byte	0
 2786 0771 00       		.byte	0
 2787 0772 14       		.uleb128 0x14
 2788 0773 04       		.byte	0x4
 2789 0774 77000000 		.4byte	0x77
 2790 0778 11       		.uleb128 0x11
 2791 0779 60030000 		.4byte	.LASF79
 2792 077d 01       		.byte	0x1
 2793 077e 9A03     		.2byte	0x39a
 2794 0780 A4000000 		.4byte	0xa4
 2795 0784 00000000 		.4byte	.LFB21
 2796 0788 5A000000 		.4byte	.LFE21-.LFB21
 2797 078c 01       		.uleb128 0x1
 2798 078d 9C       		.byte	0x9c
 2799 078e DE070000 		.4byte	0x7de
 2800 0792 12       		.uleb128 0x12
 2801 0793 20010000 		.4byte	.LASF72
 2802 0797 01       		.byte	0x1
 2803 0798 9A03     		.2byte	0x39a
 2804 079a 6B000000 		.4byte	0x6b
 2805 079e 02       		.uleb128 0x2
 2806 079f 91       		.byte	0x91
 2807 07a0 6F       		.sleb128 -17
 2808 07a1 12       		.uleb128 0x12
 2809 07a2 25030000 		.4byte	.LASF52
 2810 07a6 01       		.byte	0x1
 2811 07a7 9A03     		.2byte	0x39a
 2812 07a9 77000000 		.4byte	0x77
 2813 07ad 02       		.uleb128 0x2
 2814 07ae 91       		.byte	0x91
 2815 07af 6C       		.sleb128 -20
 2816 07b0 12       		.uleb128 0x12
 2817 07b1 CA010000 		.4byte	.LASF53
 2818 07b5 01       		.byte	0x1
 2819 07b6 9A03     		.2byte	0x39a
 2820 07b8 77000000 		.4byte	0x77
 2821 07bc 02       		.uleb128 0x2
 2822 07bd 91       		.byte	0x91
 2823 07be 6A       		.sleb128 -22
 2824 07bf 13       		.uleb128 0x13
 2825 07c0 E1040000 		.4byte	.LASF43
 2826 07c4 01       		.byte	0x1
 2827 07c5 9C03     		.2byte	0x39c
 2828 07c7 A4000000 		.4byte	0xa4
 2829 07cb 02       		.uleb128 0x2
 2830 07cc 91       		.byte	0x91
 2831 07cd 74       		.sleb128 -12
 2832 07ce 13       		.uleb128 0x13
 2833 07cf 9D040000 		.4byte	.LASF54
 2834 07d3 01       		.byte	0x1
 2835 07d4 9D03     		.2byte	0x39d
 2836 07d6 36040000 		.4byte	0x436
ARM GAS  C:\Users\HPz420\AppData\Local\Temp\ccfvmIQa.s 			page 69


 2837 07da 02       		.uleb128 0x2
 2838 07db 91       		.byte	0x91
 2839 07dc 70       		.sleb128 -16
 2840 07dd 00       		.byte	0
 2841 07de 11       		.uleb128 0x11
 2842 07df 67040000 		.4byte	.LASF80
 2843 07e3 01       		.byte	0x1
 2844 07e4 C803     		.2byte	0x3c8
 2845 07e6 A4000000 		.4byte	0xa4
 2846 07ea 00000000 		.4byte	.LFB22
 2847 07ee 6A000000 		.4byte	.LFE22-.LFB22
 2848 07f2 01       		.uleb128 0x1
 2849 07f3 9C       		.byte	0x9c
 2850 07f4 44080000 		.4byte	0x844
 2851 07f8 12       		.uleb128 0x12
 2852 07f9 20010000 		.4byte	.LASF72
 2853 07fd 01       		.byte	0x1
 2854 07fe C803     		.2byte	0x3c8
 2855 0800 6B000000 		.4byte	0x6b
 2856 0804 02       		.uleb128 0x2
 2857 0805 91       		.byte	0x91
 2858 0806 6F       		.sleb128 -17
 2859 0807 12       		.uleb128 0x12
 2860 0808 25030000 		.4byte	.LASF52
 2861 080c 01       		.byte	0x1
 2862 080d C803     		.2byte	0x3c8
 2863 080f 72070000 		.4byte	0x772
 2864 0813 02       		.uleb128 0x2
 2865 0814 91       		.byte	0x91
 2866 0815 68       		.sleb128 -24
 2867 0816 12       		.uleb128 0x12
 2868 0817 CA010000 		.4byte	.LASF53
 2869 081b 01       		.byte	0x1
 2870 081c C803     		.2byte	0x3c8
 2871 081e 72070000 		.4byte	0x772
 2872 0822 02       		.uleb128 0x2
 2873 0823 91       		.byte	0x91
 2874 0824 64       		.sleb128 -28
 2875 0825 13       		.uleb128 0x13
 2876 0826 E1040000 		.4byte	.LASF43
 2877 082a 01       		.byte	0x1
 2878 082b CA03     		.2byte	0x3ca
 2879 082d A4000000 		.4byte	0xa4
 2880 0831 02       		.uleb128 0x2
 2881 0832 91       		.byte	0x91
 2882 0833 74       		.sleb128 -12
 2883 0834 13       		.uleb128 0x13
 2884 0835 9D040000 		.4byte	.LASF54
 2885 0839 01       		.byte	0x1
 2886 083a CB03     		.2byte	0x3cb
 2887 083c 36040000 		.4byte	0x436
 2888 0840 02       		.uleb128 0x2
 2889 0841 91       		.byte	0x91
 2890 0842 70       		.sleb128 -16
 2891 0843 00       		.byte	0
 2892 0844 11       		.uleb128 0x11
 2893 0845 4E030000 		.4byte	.LASF81
ARM GAS  C:\Users\HPz420\AppData\Local\Temp\ccfvmIQa.s 			page 70


 2894 0849 01       		.byte	0x1
 2895 084a F903     		.2byte	0x3f9
 2896 084c A4000000 		.4byte	0xa4
 2897 0850 00000000 		.4byte	.LFB23
 2898 0854 70000000 		.4byte	.LFE23-.LFB23
 2899 0858 01       		.uleb128 0x1
 2900 0859 9C       		.byte	0x9c
 2901 085a 8C080000 		.4byte	0x88c
 2902 085e 12       		.uleb128 0x12
 2903 085f 14040000 		.4byte	.LASF42
 2904 0863 01       		.byte	0x1
 2905 0864 F903     		.2byte	0x3f9
 2906 0866 6B000000 		.4byte	0x6b
 2907 086a 02       		.uleb128 0x2
 2908 086b 91       		.byte	0x91
 2909 086c 6F       		.sleb128 -17
 2910 086d 12       		.uleb128 0x12
 2911 086e 52010000 		.4byte	.LASF82
 2912 0872 01       		.byte	0x1
 2913 0873 F903     		.2byte	0x3f9
 2914 0875 6B000000 		.4byte	0x6b
 2915 0879 02       		.uleb128 0x2
 2916 087a 91       		.byte	0x91
 2917 087b 6E       		.sleb128 -18
 2918 087c 13       		.uleb128 0x13
 2919 087d E1040000 		.4byte	.LASF43
 2920 0881 01       		.byte	0x1
 2921 0882 FB03     		.2byte	0x3fb
 2922 0884 A4000000 		.4byte	0xa4
 2923 0888 02       		.uleb128 0x2
 2924 0889 91       		.byte	0x91
 2925 088a 74       		.sleb128 -12
 2926 088b 00       		.byte	0
 2927 088c 0D       		.uleb128 0xd
 2928 088d 32020000 		.4byte	.LASF83
 2929 0891 01       		.byte	0x1
 2930 0892 27       		.byte	0x27
 2931 0893 6B000000 		.4byte	0x6b
 2932 0897 05       		.uleb128 0x5
 2933 0898 03       		.byte	0x3
 2934 0899 00000000 		.4byte	CyDmaTdCurrentNumber
 2935 089d 0D       		.uleb128 0xd
 2936 089e B8040000 		.4byte	.LASF84
 2937 08a2 01       		.byte	0x1
 2938 08a3 28       		.byte	0x28
 2939 08a4 6B000000 		.4byte	0x6b
 2940 08a8 05       		.uleb128 0x5
 2941 08a9 03       		.byte	0x3
 2942 08aa 01000000 		.4byte	CyDmaTdFreeIndex
 2943 08ae 0D       		.uleb128 0xd
 2944 08af 9F010000 		.4byte	.LASF85
 2945 08b3 01       		.byte	0x1
 2946 08b4 29       		.byte	0x29
 2947 08b5 83000000 		.4byte	0x83
 2948 08b9 05       		.uleb128 0x5
 2949 08ba 03       		.byte	0x3
 2950 08bb 00000000 		.4byte	CyDmaChannels
ARM GAS  C:\Users\HPz420\AppData\Local\Temp\ccfvmIQa.s 			page 71


 2951 08bf 00       		.byte	0
 2952              		.section	.debug_abbrev,"",%progbits
 2953              	.Ldebug_abbrev0:
 2954 0000 01       		.uleb128 0x1
 2955 0001 11       		.uleb128 0x11
 2956 0002 01       		.byte	0x1
 2957 0003 25       		.uleb128 0x25
 2958 0004 0E       		.uleb128 0xe
 2959 0005 13       		.uleb128 0x13
 2960 0006 0B       		.uleb128 0xb
 2961 0007 03       		.uleb128 0x3
 2962 0008 0E       		.uleb128 0xe
 2963 0009 1B       		.uleb128 0x1b
 2964 000a 0E       		.uleb128 0xe
 2965 000b 55       		.uleb128 0x55
 2966 000c 17       		.uleb128 0x17
 2967 000d 11       		.uleb128 0x11
 2968 000e 01       		.uleb128 0x1
 2969 000f 10       		.uleb128 0x10
 2970 0010 17       		.uleb128 0x17
 2971 0011 00       		.byte	0
 2972 0012 00       		.byte	0
 2973 0013 02       		.uleb128 0x2
 2974 0014 24       		.uleb128 0x24
 2975 0015 00       		.byte	0
 2976 0016 0B       		.uleb128 0xb
 2977 0017 0B       		.uleb128 0xb
 2978 0018 3E       		.uleb128 0x3e
 2979 0019 0B       		.uleb128 0xb
 2980 001a 03       		.uleb128 0x3
 2981 001b 0E       		.uleb128 0xe
 2982 001c 00       		.byte	0
 2983 001d 00       		.byte	0
 2984 001e 03       		.uleb128 0x3
 2985 001f 24       		.uleb128 0x24
 2986 0020 00       		.byte	0
 2987 0021 0B       		.uleb128 0xb
 2988 0022 0B       		.uleb128 0xb
 2989 0023 3E       		.uleb128 0x3e
 2990 0024 0B       		.uleb128 0xb
 2991 0025 03       		.uleb128 0x3
 2992 0026 08       		.uleb128 0x8
 2993 0027 00       		.byte	0
 2994 0028 00       		.byte	0
 2995 0029 04       		.uleb128 0x4
 2996 002a 16       		.uleb128 0x16
 2997 002b 00       		.byte	0
 2998 002c 03       		.uleb128 0x3
 2999 002d 0E       		.uleb128 0xe
 3000 002e 3A       		.uleb128 0x3a
 3001 002f 0B       		.uleb128 0xb
 3002 0030 3B       		.uleb128 0x3b
 3003 0031 05       		.uleb128 0x5
 3004 0032 49       		.uleb128 0x49
 3005 0033 13       		.uleb128 0x13
 3006 0034 00       		.byte	0
 3007 0035 00       		.byte	0
ARM GAS  C:\Users\HPz420\AppData\Local\Temp\ccfvmIQa.s 			page 72


 3008 0036 05       		.uleb128 0x5
 3009 0037 35       		.uleb128 0x35
 3010 0038 00       		.byte	0
 3011 0039 49       		.uleb128 0x49
 3012 003a 13       		.uleb128 0x13
 3013 003b 00       		.byte	0
 3014 003c 00       		.byte	0
 3015 003d 06       		.uleb128 0x6
 3016 003e 13       		.uleb128 0x13
 3017 003f 01       		.byte	0x1
 3018 0040 03       		.uleb128 0x3
 3019 0041 0E       		.uleb128 0xe
 3020 0042 0B       		.uleb128 0xb
 3021 0043 0B       		.uleb128 0xb
 3022 0044 3A       		.uleb128 0x3a
 3023 0045 0B       		.uleb128 0xb
 3024 0046 3B       		.uleb128 0x3b
 3025 0047 0B       		.uleb128 0xb
 3026 0048 01       		.uleb128 0x1
 3027 0049 13       		.uleb128 0x13
 3028 004a 00       		.byte	0
 3029 004b 00       		.byte	0
 3030 004c 07       		.uleb128 0x7
 3031 004d 0D       		.uleb128 0xd
 3032 004e 00       		.byte	0
 3033 004f 03       		.uleb128 0x3
 3034 0050 0E       		.uleb128 0xe
 3035 0051 3A       		.uleb128 0x3a
 3036 0052 0B       		.uleb128 0xb
 3037 0053 3B       		.uleb128 0x3b
 3038 0054 0B       		.uleb128 0xb
 3039 0055 49       		.uleb128 0x49
 3040 0056 13       		.uleb128 0x13
 3041 0057 38       		.uleb128 0x38
 3042 0058 0B       		.uleb128 0xb
 3043 0059 00       		.byte	0
 3044 005a 00       		.byte	0
 3045 005b 08       		.uleb128 0x8
 3046 005c 01       		.uleb128 0x1
 3047 005d 01       		.byte	0x1
 3048 005e 49       		.uleb128 0x49
 3049 005f 13       		.uleb128 0x13
 3050 0060 01       		.uleb128 0x1
 3051 0061 13       		.uleb128 0x13
 3052 0062 00       		.byte	0
 3053 0063 00       		.byte	0
 3054 0064 09       		.uleb128 0x9
 3055 0065 21       		.uleb128 0x21
 3056 0066 00       		.byte	0
 3057 0067 49       		.uleb128 0x49
 3058 0068 13       		.uleb128 0x13
 3059 0069 2F       		.uleb128 0x2f
 3060 006a 0B       		.uleb128 0xb
 3061 006b 00       		.byte	0
 3062 006c 00       		.byte	0
 3063 006d 0A       		.uleb128 0xa
 3064 006e 16       		.uleb128 0x16
ARM GAS  C:\Users\HPz420\AppData\Local\Temp\ccfvmIQa.s 			page 73


 3065 006f 00       		.byte	0
 3066 0070 03       		.uleb128 0x3
 3067 0071 0E       		.uleb128 0xe
 3068 0072 3A       		.uleb128 0x3a
 3069 0073 0B       		.uleb128 0xb
 3070 0074 3B       		.uleb128 0x3b
 3071 0075 0B       		.uleb128 0xb
 3072 0076 49       		.uleb128 0x49
 3073 0077 13       		.uleb128 0x13
 3074 0078 00       		.byte	0
 3075 0079 00       		.byte	0
 3076 007a 0B       		.uleb128 0xb
 3077 007b 0D       		.uleb128 0xd
 3078 007c 00       		.byte	0
 3079 007d 03       		.uleb128 0x3
 3080 007e 08       		.uleb128 0x8
 3081 007f 3A       		.uleb128 0x3a
 3082 0080 0B       		.uleb128 0xb
 3083 0081 3B       		.uleb128 0x3b
 3084 0082 0B       		.uleb128 0xb
 3085 0083 49       		.uleb128 0x49
 3086 0084 13       		.uleb128 0x13
 3087 0085 38       		.uleb128 0x38
 3088 0086 0B       		.uleb128 0xb
 3089 0087 00       		.byte	0
 3090 0088 00       		.byte	0
 3091 0089 0C       		.uleb128 0xc
 3092 008a 2E       		.uleb128 0x2e
 3093 008b 01       		.byte	0x1
 3094 008c 3F       		.uleb128 0x3f
 3095 008d 19       		.uleb128 0x19
 3096 008e 03       		.uleb128 0x3
 3097 008f 0E       		.uleb128 0xe
 3098 0090 3A       		.uleb128 0x3a
 3099 0091 0B       		.uleb128 0xb
 3100 0092 3B       		.uleb128 0x3b
 3101 0093 0B       		.uleb128 0xb
 3102 0094 27       		.uleb128 0x27
 3103 0095 19       		.uleb128 0x19
 3104 0096 11       		.uleb128 0x11
 3105 0097 01       		.uleb128 0x1
 3106 0098 12       		.uleb128 0x12
 3107 0099 06       		.uleb128 0x6
 3108 009a 40       		.uleb128 0x40
 3109 009b 18       		.uleb128 0x18
 3110 009c 9742     		.uleb128 0x2117
 3111 009e 19       		.uleb128 0x19
 3112 009f 01       		.uleb128 0x1
 3113 00a0 13       		.uleb128 0x13
 3114 00a1 00       		.byte	0
 3115 00a2 00       		.byte	0
 3116 00a3 0D       		.uleb128 0xd
 3117 00a4 34       		.uleb128 0x34
 3118 00a5 00       		.byte	0
 3119 00a6 03       		.uleb128 0x3
 3120 00a7 0E       		.uleb128 0xe
 3121 00a8 3A       		.uleb128 0x3a
ARM GAS  C:\Users\HPz420\AppData\Local\Temp\ccfvmIQa.s 			page 74


 3122 00a9 0B       		.uleb128 0xb
 3123 00aa 3B       		.uleb128 0x3b
 3124 00ab 0B       		.uleb128 0xb
 3125 00ac 49       		.uleb128 0x49
 3126 00ad 13       		.uleb128 0x13
 3127 00ae 02       		.uleb128 0x2
 3128 00af 18       		.uleb128 0x18
 3129 00b0 00       		.byte	0
 3130 00b1 00       		.byte	0
 3131 00b2 0E       		.uleb128 0xe
 3132 00b3 2E       		.uleb128 0x2e
 3133 00b4 00       		.byte	0
 3134 00b5 3F       		.uleb128 0x3f
 3135 00b6 19       		.uleb128 0x19
 3136 00b7 03       		.uleb128 0x3
 3137 00b8 0E       		.uleb128 0xe
 3138 00b9 3A       		.uleb128 0x3a
 3139 00ba 0B       		.uleb128 0xb
 3140 00bb 3B       		.uleb128 0x3b
 3141 00bc 0B       		.uleb128 0xb
 3142 00bd 27       		.uleb128 0x27
 3143 00be 19       		.uleb128 0x19
 3144 00bf 49       		.uleb128 0x49
 3145 00c0 13       		.uleb128 0x13
 3146 00c1 11       		.uleb128 0x11
 3147 00c2 01       		.uleb128 0x1
 3148 00c3 12       		.uleb128 0x12
 3149 00c4 06       		.uleb128 0x6
 3150 00c5 40       		.uleb128 0x40
 3151 00c6 18       		.uleb128 0x18
 3152 00c7 9742     		.uleb128 0x2117
 3153 00c9 19       		.uleb128 0x19
 3154 00ca 00       		.byte	0
 3155 00cb 00       		.byte	0
 3156 00cc 0F       		.uleb128 0xf
 3157 00cd 05       		.uleb128 0x5
 3158 00ce 00       		.byte	0
 3159 00cf 03       		.uleb128 0x3
 3160 00d0 0E       		.uleb128 0xe
 3161 00d1 3A       		.uleb128 0x3a
 3162 00d2 0B       		.uleb128 0xb
 3163 00d3 3B       		.uleb128 0x3b
 3164 00d4 0B       		.uleb128 0xb
 3165 00d5 49       		.uleb128 0x49
 3166 00d6 13       		.uleb128 0x13
 3167 00d7 02       		.uleb128 0x2
 3168 00d8 18       		.uleb128 0x18
 3169 00d9 00       		.byte	0
 3170 00da 00       		.byte	0
 3171 00db 10       		.uleb128 0x10
 3172 00dc 2E       		.uleb128 0x2e
 3173 00dd 01       		.byte	0x1
 3174 00de 3F       		.uleb128 0x3f
 3175 00df 19       		.uleb128 0x19
 3176 00e0 03       		.uleb128 0x3
 3177 00e1 0E       		.uleb128 0xe
 3178 00e2 3A       		.uleb128 0x3a
ARM GAS  C:\Users\HPz420\AppData\Local\Temp\ccfvmIQa.s 			page 75


 3179 00e3 0B       		.uleb128 0xb
 3180 00e4 3B       		.uleb128 0x3b
 3181 00e5 0B       		.uleb128 0xb
 3182 00e6 27       		.uleb128 0x27
 3183 00e7 19       		.uleb128 0x19
 3184 00e8 49       		.uleb128 0x49
 3185 00e9 13       		.uleb128 0x13
 3186 00ea 11       		.uleb128 0x11
 3187 00eb 01       		.uleb128 0x1
 3188 00ec 12       		.uleb128 0x12
 3189 00ed 06       		.uleb128 0x6
 3190 00ee 40       		.uleb128 0x40
 3191 00ef 18       		.uleb128 0x18
 3192 00f0 9642     		.uleb128 0x2116
 3193 00f2 19       		.uleb128 0x19
 3194 00f3 01       		.uleb128 0x1
 3195 00f4 13       		.uleb128 0x13
 3196 00f5 00       		.byte	0
 3197 00f6 00       		.byte	0
 3198 00f7 11       		.uleb128 0x11
 3199 00f8 2E       		.uleb128 0x2e
 3200 00f9 01       		.byte	0x1
 3201 00fa 3F       		.uleb128 0x3f
 3202 00fb 19       		.uleb128 0x19
 3203 00fc 03       		.uleb128 0x3
 3204 00fd 0E       		.uleb128 0xe
 3205 00fe 3A       		.uleb128 0x3a
 3206 00ff 0B       		.uleb128 0xb
 3207 0100 3B       		.uleb128 0x3b
 3208 0101 05       		.uleb128 0x5
 3209 0102 27       		.uleb128 0x27
 3210 0103 19       		.uleb128 0x19
 3211 0104 49       		.uleb128 0x49
 3212 0105 13       		.uleb128 0x13
 3213 0106 11       		.uleb128 0x11
 3214 0107 01       		.uleb128 0x1
 3215 0108 12       		.uleb128 0x12
 3216 0109 06       		.uleb128 0x6
 3217 010a 40       		.uleb128 0x40
 3218 010b 18       		.uleb128 0x18
 3219 010c 9742     		.uleb128 0x2117
 3220 010e 19       		.uleb128 0x19
 3221 010f 01       		.uleb128 0x1
 3222 0110 13       		.uleb128 0x13
 3223 0111 00       		.byte	0
 3224 0112 00       		.byte	0
 3225 0113 12       		.uleb128 0x12
 3226 0114 05       		.uleb128 0x5
 3227 0115 00       		.byte	0
 3228 0116 03       		.uleb128 0x3
 3229 0117 0E       		.uleb128 0xe
 3230 0118 3A       		.uleb128 0x3a
 3231 0119 0B       		.uleb128 0xb
 3232 011a 3B       		.uleb128 0x3b
 3233 011b 05       		.uleb128 0x5
 3234 011c 49       		.uleb128 0x49
 3235 011d 13       		.uleb128 0x13
ARM GAS  C:\Users\HPz420\AppData\Local\Temp\ccfvmIQa.s 			page 76


 3236 011e 02       		.uleb128 0x2
 3237 011f 18       		.uleb128 0x18
 3238 0120 00       		.byte	0
 3239 0121 00       		.byte	0
 3240 0122 13       		.uleb128 0x13
 3241 0123 34       		.uleb128 0x34
 3242 0124 00       		.byte	0
 3243 0125 03       		.uleb128 0x3
 3244 0126 0E       		.uleb128 0xe
 3245 0127 3A       		.uleb128 0x3a
 3246 0128 0B       		.uleb128 0xb
 3247 0129 3B       		.uleb128 0x3b
 3248 012a 05       		.uleb128 0x5
 3249 012b 49       		.uleb128 0x49
 3250 012c 13       		.uleb128 0x13
 3251 012d 02       		.uleb128 0x2
 3252 012e 18       		.uleb128 0x18
 3253 012f 00       		.byte	0
 3254 0130 00       		.byte	0
 3255 0131 14       		.uleb128 0x14
 3256 0132 0F       		.uleb128 0xf
 3257 0133 00       		.byte	0
 3258 0134 0B       		.uleb128 0xb
 3259 0135 0B       		.uleb128 0xb
 3260 0136 49       		.uleb128 0x49
 3261 0137 13       		.uleb128 0x13
 3262 0138 00       		.byte	0
 3263 0139 00       		.byte	0
 3264 013a 15       		.uleb128 0x15
 3265 013b 2E       		.uleb128 0x2e
 3266 013c 01       		.byte	0x1
 3267 013d 3F       		.uleb128 0x3f
 3268 013e 19       		.uleb128 0x19
 3269 013f 03       		.uleb128 0x3
 3270 0140 0E       		.uleb128 0xe
 3271 0141 3A       		.uleb128 0x3a
 3272 0142 0B       		.uleb128 0xb
 3273 0143 3B       		.uleb128 0x3b
 3274 0144 05       		.uleb128 0x5
 3275 0145 27       		.uleb128 0x27
 3276 0146 19       		.uleb128 0x19
 3277 0147 49       		.uleb128 0x49
 3278 0148 13       		.uleb128 0x13
 3279 0149 11       		.uleb128 0x11
 3280 014a 01       		.uleb128 0x1
 3281 014b 12       		.uleb128 0x12
 3282 014c 06       		.uleb128 0x6
 3283 014d 40       		.uleb128 0x40
 3284 014e 18       		.uleb128 0x18
 3285 014f 9642     		.uleb128 0x2116
 3286 0151 19       		.uleb128 0x19
 3287 0152 01       		.uleb128 0x1
 3288 0153 13       		.uleb128 0x13
 3289 0154 00       		.byte	0
 3290 0155 00       		.byte	0
 3291 0156 16       		.uleb128 0x16
 3292 0157 2E       		.uleb128 0x2e
ARM GAS  C:\Users\HPz420\AppData\Local\Temp\ccfvmIQa.s 			page 77


 3293 0158 01       		.byte	0x1
 3294 0159 3F       		.uleb128 0x3f
 3295 015a 19       		.uleb128 0x19
 3296 015b 03       		.uleb128 0x3
 3297 015c 0E       		.uleb128 0xe
 3298 015d 3A       		.uleb128 0x3a
 3299 015e 0B       		.uleb128 0xb
 3300 015f 3B       		.uleb128 0x3b
 3301 0160 05       		.uleb128 0x5
 3302 0161 27       		.uleb128 0x27
 3303 0162 19       		.uleb128 0x19
 3304 0163 11       		.uleb128 0x11
 3305 0164 01       		.uleb128 0x1
 3306 0165 12       		.uleb128 0x12
 3307 0166 06       		.uleb128 0x6
 3308 0167 40       		.uleb128 0x40
 3309 0168 18       		.uleb128 0x18
 3310 0169 9642     		.uleb128 0x2116
 3311 016b 19       		.uleb128 0x19
 3312 016c 01       		.uleb128 0x1
 3313 016d 13       		.uleb128 0x13
 3314 016e 00       		.byte	0
 3315 016f 00       		.byte	0
 3316 0170 17       		.uleb128 0x17
 3317 0171 0B       		.uleb128 0xb
 3318 0172 01       		.byte	0x1
 3319 0173 11       		.uleb128 0x11
 3320 0174 01       		.uleb128 0x1
 3321 0175 12       		.uleb128 0x12
 3322 0176 06       		.uleb128 0x6
 3323 0177 00       		.byte	0
 3324 0178 00       		.byte	0
 3325 0179 18       		.uleb128 0x18
 3326 017a 2E       		.uleb128 0x2e
 3327 017b 00       		.byte	0
 3328 017c 3F       		.uleb128 0x3f
 3329 017d 19       		.uleb128 0x19
 3330 017e 03       		.uleb128 0x3
 3331 017f 0E       		.uleb128 0xe
 3332 0180 3A       		.uleb128 0x3a
 3333 0181 0B       		.uleb128 0xb
 3334 0182 3B       		.uleb128 0x3b
 3335 0183 05       		.uleb128 0x5
 3336 0184 27       		.uleb128 0x27
 3337 0185 19       		.uleb128 0x19
 3338 0186 49       		.uleb128 0x49
 3339 0187 13       		.uleb128 0x13
 3340 0188 11       		.uleb128 0x11
 3341 0189 01       		.uleb128 0x1
 3342 018a 12       		.uleb128 0x12
 3343 018b 06       		.uleb128 0x6
 3344 018c 40       		.uleb128 0x40
 3345 018d 18       		.uleb128 0x18
 3346 018e 9742     		.uleb128 0x2117
 3347 0190 19       		.uleb128 0x19
 3348 0191 00       		.byte	0
 3349 0192 00       		.byte	0
ARM GAS  C:\Users\HPz420\AppData\Local\Temp\ccfvmIQa.s 			page 78


 3350 0193 00       		.byte	0
 3351              		.section	.debug_aranges,"",%progbits
 3352 0000 D4000000 		.4byte	0xd4
 3353 0004 0200     		.2byte	0x2
 3354 0006 00000000 		.4byte	.Ldebug_info0
 3355 000a 04       		.byte	0x4
 3356 000b 00       		.byte	0
 3357 000c 0000     		.2byte	0
 3358 000e 0000     		.2byte	0
 3359 0010 00000000 		.4byte	.LFB0
 3360 0014 5C000000 		.4byte	.LFE0-.LFB0
 3361 0018 00000000 		.4byte	.LFB1
 3362 001c 1C000000 		.4byte	.LFE1-.LFB1
 3363 0020 00000000 		.4byte	.LFB2
 3364 0024 24000000 		.4byte	.LFE2-.LFB2
 3365 0028 00000000 		.4byte	.LFB3
 3366 002c 14000000 		.4byte	.LFE3-.LFB3
 3367 0030 00000000 		.4byte	.LFB4
 3368 0034 64000000 		.4byte	.LFE4-.LFB4
 3369 0038 00000000 		.4byte	.LFB5
 3370 003c 4C000000 		.4byte	.LFE5-.LFB5
 3371 0040 00000000 		.4byte	.LFB6
 3372 0044 8C000000 		.4byte	.LFE6-.LFB6
 3373 0048 00000000 		.4byte	.LFB7
 3374 004c 60000000 		.4byte	.LFE7-.LFB7
 3375 0050 00000000 		.4byte	.LFB8
 3376 0054 60000000 		.4byte	.LFE8-.LFB8
 3377 0058 00000000 		.4byte	.LFB9
 3378 005c 64000000 		.4byte	.LFE9-.LFB9
 3379 0060 00000000 		.4byte	.LFB10
 3380 0064 78000000 		.4byte	.LFE10-.LFB10
 3381 0068 00000000 		.4byte	.LFB11
 3382 006c 3C000000 		.4byte	.LFE11-.LFB11
 3383 0070 00000000 		.4byte	.LFB12
 3384 0074 58000000 		.4byte	.LFE12-.LFB12
 3385 0078 00000000 		.4byte	.LFB13
 3386 007c 38000000 		.4byte	.LFE13-.LFB13
 3387 0080 00000000 		.4byte	.LFB14
 3388 0084 60000000 		.4byte	.LFE14-.LFB14
 3389 0088 00000000 		.4byte	.LFB15
 3390 008c 9E000000 		.4byte	.LFE15-.LFB15
 3391 0090 00000000 		.4byte	.LFB16
 3392 0094 5C000000 		.4byte	.LFE16-.LFB16
 3393 0098 00000000 		.4byte	.LFB17
 3394 009c 58000000 		.4byte	.LFE17-.LFB17
 3395 00a0 00000000 		.4byte	.LFB18
 3396 00a4 18000000 		.4byte	.LFE18-.LFB18
 3397 00a8 00000000 		.4byte	.LFB19
 3398 00ac 7E000000 		.4byte	.LFE19-.LFB19
 3399 00b0 00000000 		.4byte	.LFB20
 3400 00b4 84000000 		.4byte	.LFE20-.LFB20
 3401 00b8 00000000 		.4byte	.LFB21
 3402 00bc 5A000000 		.4byte	.LFE21-.LFB21
 3403 00c0 00000000 		.4byte	.LFB22
 3404 00c4 6A000000 		.4byte	.LFE22-.LFB22
 3405 00c8 00000000 		.4byte	.LFB23
 3406 00cc 70000000 		.4byte	.LFE23-.LFB23
ARM GAS  C:\Users\HPz420\AppData\Local\Temp\ccfvmIQa.s 			page 79


 3407 00d0 00000000 		.4byte	0
 3408 00d4 00000000 		.4byte	0
 3409              		.section	.debug_ranges,"",%progbits
 3410              	.Ldebug_ranges0:
 3411 0000 00000000 		.4byte	.LFB0
 3412 0004 5C000000 		.4byte	.LFE0
 3413 0008 00000000 		.4byte	.LFB1
 3414 000c 1C000000 		.4byte	.LFE1
 3415 0010 00000000 		.4byte	.LFB2
 3416 0014 24000000 		.4byte	.LFE2
 3417 0018 00000000 		.4byte	.LFB3
 3418 001c 14000000 		.4byte	.LFE3
 3419 0020 00000000 		.4byte	.LFB4
 3420 0024 64000000 		.4byte	.LFE4
 3421 0028 00000000 		.4byte	.LFB5
 3422 002c 4C000000 		.4byte	.LFE5
 3423 0030 00000000 		.4byte	.LFB6
 3424 0034 8C000000 		.4byte	.LFE6
 3425 0038 00000000 		.4byte	.LFB7
 3426 003c 60000000 		.4byte	.LFE7
 3427 0040 00000000 		.4byte	.LFB8
 3428 0044 60000000 		.4byte	.LFE8
 3429 0048 00000000 		.4byte	.LFB9
 3430 004c 64000000 		.4byte	.LFE9
 3431 0050 00000000 		.4byte	.LFB10
 3432 0054 78000000 		.4byte	.LFE10
 3433 0058 00000000 		.4byte	.LFB11
 3434 005c 3C000000 		.4byte	.LFE11
 3435 0060 00000000 		.4byte	.LFB12
 3436 0064 58000000 		.4byte	.LFE12
 3437 0068 00000000 		.4byte	.LFB13
 3438 006c 38000000 		.4byte	.LFE13
 3439 0070 00000000 		.4byte	.LFB14
 3440 0074 60000000 		.4byte	.LFE14
 3441 0078 00000000 		.4byte	.LFB15
 3442 007c 9E000000 		.4byte	.LFE15
 3443 0080 00000000 		.4byte	.LFB16
 3444 0084 5C000000 		.4byte	.LFE16
 3445 0088 00000000 		.4byte	.LFB17
 3446 008c 58000000 		.4byte	.LFE17
 3447 0090 00000000 		.4byte	.LFB18
 3448 0094 18000000 		.4byte	.LFE18
 3449 0098 00000000 		.4byte	.LFB19
 3450 009c 7E000000 		.4byte	.LFE19
 3451 00a0 00000000 		.4byte	.LFB20
 3452 00a4 84000000 		.4byte	.LFE20
 3453 00a8 00000000 		.4byte	.LFB21
 3454 00ac 5A000000 		.4byte	.LFE21
 3455 00b0 00000000 		.4byte	.LFB22
 3456 00b4 6A000000 		.4byte	.LFE22
 3457 00b8 00000000 		.4byte	.LFB23
 3458 00bc 70000000 		.4byte	.LFE23
 3459 00c0 00000000 		.4byte	0
 3460 00c4 00000000 		.4byte	0
 3461              		.section	.debug_line,"",%progbits
 3462              	.Ldebug_line0:
 3463 0000 B2020000 		.section	.debug_str,"MS",%progbits,1
ARM GAS  C:\Users\HPz420\AppData\Local\Temp\ccfvmIQa.s 			page 80


 3463      02004F00 
 3463      00000201 
 3463      FB0E0D00 
 3463      01010101 
 3464              	.LASF10:
 3465 0000 75696E74 		.ascii	"uint16\000"
 3465      313600
 3466              	.LASF29:
 3467 0007 646D6163 		.ascii	"dmac_cfgmem\000"
 3467      5F636667 
 3467      6D656D00 
 3468              	.LASF35:
 3469 0013 4379446D 		.ascii	"CyDmacErrorAddress\000"
 3469      61634572 
 3469      726F7241 
 3469      64647265 
 3469      737300
 3470              	.LASF69:
 3471 0026 4379446D 		.ascii	"CyDmaTdAllocate\000"
 3471      61546441 
 3471      6C6C6F63 
 3471      61746500 
 3472              	.LASF71:
 3473 0036 4379446D 		.ascii	"CyDmaTdFree\000"
 3473      61546446 
 3473      72656500 
 3474              	.LASF86:
 3475 0042 474E5520 		.ascii	"GNU C11 5.4.1 20160609 (release) [ARM/embedded-5-br"
 3475      43313120 
 3475      352E342E 
 3475      31203230 
 3475      31363036 
 3476 0075 616E6368 		.ascii	"anch revision 237715] -mcpu=cortex-m3 -mthumb -g -O"
 3476      20726576 
 3476      6973696F 
 3476      6E203233 
 3476      37373135 
 3477 00a8 30202D66 		.ascii	"0 -ffunction-sections -ffat-lto-objects\000"
 3477      66756E63 
 3477      74696F6E 
 3477      2D736563 
 3477      74696F6E 
 3478              	.LASF73:
 3479 00d0 4379446D 		.ascii	"CyDmaTdFreeCount\000"
 3479      61546446 
 3479      72656543 
 3479      6F756E74 
 3479      00
 3480              	.LASF32:
 3481 00e1 4379446D 		.ascii	"CyDmacConfigure\000"
 3481      6163436F 
 3481      6E666967 
 3481      75726500 
 3482              	.LASF7:
 3483 00f1 6C6F6E67 		.ascii	"long long unsigned int\000"
 3483      206C6F6E 
 3483      6720756E 
ARM GAS  C:\Users\HPz420\AppData\Local\Temp\ccfvmIQa.s 			page 81


 3483      7369676E 
 3483      65642069 
 3484              	.LASF74:
 3485 0108 4379446D 		.ascii	"CyDmaTdSetConfiguration\000"
 3485      61546453 
 3485      6574436F 
 3485      6E666967 
 3485      75726174 
 3486              	.LASF72:
 3487 0120 74644861 		.ascii	"tdHandle\000"
 3487      6E646C65 
 3487      00
 3488              	.LASF6:
 3489 0129 6C6F6E67 		.ascii	"long long int\000"
 3489      206C6F6E 
 3489      6720696E 
 3489      7400
 3490              	.LASF0:
 3491 0137 7369676E 		.ascii	"signed char\000"
 3491      65642063 
 3491      68617200 
 3492              	.LASF37:
 3493 0143 696E7465 		.ascii	"interruptState\000"
 3493      72727570 
 3493      74537461 
 3493      746500
 3494              	.LASF82:
 3495 0152 656E6162 		.ascii	"enableRR\000"
 3495      6C655252 
 3495      00
 3496              	.LASF30:
 3497 015b 646D6163 		.ascii	"dmac_tdmem_struct\000"
 3497      5F74646D 
 3497      656D5F73 
 3497      74727563 
 3497      7400
 3498              	.LASF62:
 3499 016d 73746174 		.ascii	"state\000"
 3499      6500
 3500              	.LASF4:
 3501 0173 6C6F6E67 		.ascii	"long int\000"
 3501      20696E74 
 3501      00
 3502              	.LASF66:
 3503 017c 7464446F 		.ascii	"tdDone0\000"
 3503      6E653000 
 3504              	.LASF67:
 3505 0184 7464446F 		.ascii	"tdDone1\000"
 3505      6E653100 
 3506              	.LASF16:
 3507 018c 72656731 		.ascii	"reg16\000"
 3507      3600
 3508              	.LASF9:
 3509 0192 75696E74 		.ascii	"uint8\000"
 3509      3800
 3510              	.LASF13:
 3511 0198 646F7562 		.ascii	"double\000"
ARM GAS  C:\Users\HPz420\AppData\Local\Temp\ccfvmIQa.s 			page 82


 3511      6C6500
 3512              	.LASF85:
 3513 019f 4379446D 		.ascii	"CyDmaChannels\000"
 3513      61436861 
 3513      6E6E656C 
 3513      7300
 3514              	.LASF11:
 3515 01ad 75696E74 		.ascii	"uint32\000"
 3515      333200
 3516              	.LASF21:
 3517 01b4 61637469 		.ascii	"action\000"
 3517      6F6E00
 3518              	.LASF23:
 3519 01bb 72657365 		.ascii	"reserved\000"
 3519      72766564 
 3519      00
 3520              	.LASF50:
 3521 01c4 76616C75 		.ascii	"value\000"
 3521      6500
 3522              	.LASF53:
 3523 01ca 64657374 		.ascii	"destination\000"
 3523      696E6174 
 3523      696F6E00 
 3524              	.LASF48:
 3525 01d6 4379446D 		.ascii	"CyDmaChPriority\000"
 3525      61436850 
 3525      72696F72 
 3525      69747900 
 3526              	.LASF8:
 3527 01e6 756E7369 		.ascii	"unsigned int\000"
 3527      676E6564 
 3527      20696E74 
 3527      00
 3528              	.LASF5:
 3529 01f3 6C6F6E67 		.ascii	"long unsigned int\000"
 3529      20756E73 
 3529      69676E65 
 3529      6420696E 
 3529      7400
 3530              	.LASF26:
 3531 0205 646D6163 		.ascii	"dmac_cfgmem_struct\000"
 3531      5F636667 
 3531      6D656D5F 
 3531      73747275 
 3531      637400
 3532              	.LASF51:
 3533 0218 4379446D 		.ascii	"CyDmaChSetExtendedAddress\000"
 3533      61436853 
 3533      65744578 
 3533      74656E64 
 3533      65644164 
 3534              	.LASF83:
 3535 0232 4379446D 		.ascii	"CyDmaTdCurrentNumber\000"
 3535      61546443 
 3535      75727265 
 3535      6E744E75 
 3535      6D626572 
ARM GAS  C:\Users\HPz420\AppData\Local\Temp\ccfvmIQa.s 			page 83


 3536              	.LASF20:
 3537 0247 62617369 		.ascii	"basic_cfg\000"
 3537      635F6366 
 3537      6700
 3538              	.LASF3:
 3539 0251 73686F72 		.ascii	"short unsigned int\000"
 3539      7420756E 
 3539      7369676E 
 3539      65642069 
 3539      6E7400
 3540              	.LASF77:
 3541 0264 636F6E66 		.ascii	"configuration\000"
 3541      69677572 
 3541      6174696F 
 3541      6E00
 3542              	.LASF34:
 3543 0272 4379446D 		.ascii	"CyDmacError\000"
 3543      61634572 
 3543      726F7200 
 3544              	.LASF87:
 3545 027e 47656E65 		.ascii	"Generated_Source\\PSoC5\\CyDmac.c\000"
 3545      72617465 
 3545      645F536F 
 3545      75726365 
 3545      5C50536F 
 3546              	.LASF33:
 3547 029e 4379446D 		.ascii	"CyDmacClearError\000"
 3547      6163436C 
 3547      65617245 
 3547      72726F72 
 3547      00
 3548              	.LASF88:
 3549 02af 433A5C55 		.ascii	"C:\\Users\\HPz420\\Documents\\GitHub\\Retro-Compute"
 3549      73657273 
 3549      5C48507A 
 3549      3432305C 
 3549      446F6375 
 3550 02dd 72735C5A 		.ascii	"rs\\Z80\\PSOC\\PSOC_Design_Files\\FrontPanelI2CIO8\\"
 3550      38305C50 
 3550      534F435C 
 3550      50534F43 
 3550      5F446573 
 3551 030c 55534246 		.ascii	"USBFS_UART01.cydsn\000"
 3551      535F5541 
 3551      52543031 
 3551      2E637964 
 3551      736E00
 3552              	.LASF17:
 3553 031f 72656733 		.ascii	"reg32\000"
 3553      3200
 3554              	.LASF52:
 3555 0325 736F7572 		.ascii	"source\000"
 3555      636500
 3556              	.LASF22:
 3557 032c 62617369 		.ascii	"basic_status\000"
 3557      635F7374 
 3557      61747573 
ARM GAS  C:\Users\HPz420\AppData\Local\Temp\ccfvmIQa.s 			page 84


 3557      00
 3558              	.LASF19:
 3559 0339 73697A65 		.ascii	"sizetype\000"
 3559      74797065 
 3559      00
 3560              	.LASF18:
 3561 0342 6C6F6E67 		.ascii	"long double\000"
 3561      20646F75 
 3561      626C6500 
 3562              	.LASF81:
 3563 034e 4379446D 		.ascii	"CyDmaChRoundRobin\000"
 3563      61436852 
 3563      6F756E64 
 3563      526F6269 
 3563      6E00
 3564              	.LASF79:
 3565 0360 4379446D 		.ascii	"CyDmaTdSetAddress\000"
 3565      61546453 
 3565      65744164 
 3565      64726573 
 3565      7300
 3566              	.LASF36:
 3567 0372 646D6149 		.ascii	"dmaIndex\000"
 3567      6E646578 
 3567      00
 3568              	.LASF47:
 3569 037b 4379446D 		.ascii	"CyDmaClearPendingDrq\000"
 3569      61436C65 
 3569      61725065 
 3569      6E64696E 
 3569      67447271 
 3570              	.LASF64:
 3571 0390 62757273 		.ascii	"burstCount\000"
 3571      74436F75 
 3571      6E7400
 3572              	.LASF12:
 3573 039b 666C6F61 		.ascii	"float\000"
 3573      7400
 3574              	.LASF41:
 3575 03a1 6572726F 		.ascii	"error\000"
 3575      7200
 3576              	.LASF78:
 3577 03a7 4379446D 		.ascii	"CyDmaTdGetConfiguration\000"
 3577      61546447 
 3577      6574436F 
 3577      6E666967 
 3577      75726174 
 3578              	.LASF76:
 3579 03bf 6E657874 		.ascii	"nextTd\000"
 3579      546400
 3580              	.LASF57:
 3581 03c6 4379446D 		.ascii	"CyDmaChSetRequest\000"
 3581      61436853 
 3581      65745265 
 3581      71756573 
 3581      7400
 3582              	.LASF25:
ARM GAS  C:\Users\HPz420\AppData\Local\Temp\ccfvmIQa.s 			page 85


 3583 03d8 646D6163 		.ascii	"dmac_ch_struct\000"
 3583      5F63685F 
 3583      73747275 
 3583      637400
 3584              	.LASF1:
 3585 03e7 756E7369 		.ascii	"unsigned char\000"
 3585      676E6564 
 3585      20636861 
 3585      7200
 3586              	.LASF2:
 3587 03f5 73686F72 		.ascii	"short int\000"
 3587      7420696E 
 3587      7400
 3588              	.LASF44:
 3589 03ff 4379446D 		.ascii	"CyDmaChEnable\000"
 3589      61436845 
 3589      6E61626C 
 3589      6500
 3590              	.LASF68:
 3591 040d 74645374 		.ascii	"tdStop\000"
 3591      6F7000
 3592              	.LASF42:
 3593 0414 63684861 		.ascii	"chHandle\000"
 3593      6E646C65 
 3593      00
 3594              	.LASF38:
 3595 041d 6368616E 		.ascii	"channel\000"
 3595      6E656C00 
 3596              	.LASF60:
 3597 0425 4379446D 		.ascii	"CyDmaChStatus\000"
 3597      61436853 
 3597      74617475 
 3597      7300
 3598              	.LASF46:
 3599 0433 4379446D 		.ascii	"CyDmaChDisable\000"
 3599      61436844 
 3599      69736162 
 3599      6C6500
 3600              	.LASF39:
 3601 0442 4379446D 		.ascii	"CyDmaChAlloc\000"
 3601      61436841 
 3601      6C6C6F63 
 3601      00
 3602              	.LASF61:
 3603 044f 63757272 		.ascii	"currentTd\000"
 3603      656E7454 
 3603      6400
 3604              	.LASF14:
 3605 0459 63686172 		.ascii	"char\000"
 3605      00
 3606              	.LASF49:
 3607 045e 7072696F 		.ascii	"priority\000"
 3607      72697479 
 3607      00
 3608              	.LASF80:
 3609 0467 4379446D 		.ascii	"CyDmaTdGetAddress\000"
 3609      61546447 
ARM GAS  C:\Users\HPz420\AppData\Local\Temp\ccfvmIQa.s 			page 86


 3609      65744164 
 3609      64726573 
 3609      7300
 3610              	.LASF24:
 3611 0479 646D6163 		.ascii	"dmac_ch\000"
 3611      5F636800 
 3612              	.LASF65:
 3613 0481 72657175 		.ascii	"requestPerBurst\000"
 3613      65737450 
 3613      65724275 
 3613      72737400 
 3614              	.LASF45:
 3615 0491 70726573 		.ascii	"preserveTds\000"
 3615      65727665 
 3615      54647300 
 3616              	.LASF54:
 3617 049d 636F6E76 		.ascii	"convert\000"
 3617      65727400 
 3618              	.LASF31:
 3619 04a5 646D6163 		.ascii	"dmac_tdmem\000"
 3619      5F74646D 
 3619      656D00
 3620              	.LASF56:
 3621 04b0 73746172 		.ascii	"startTd\000"
 3621      74546400 
 3622              	.LASF84:
 3623 04b8 4379446D 		.ascii	"CyDmaTdFreeIndex\000"
 3623      61546446 
 3623      72656549 
 3623      6E646578 
 3623      00
 3624              	.LASF75:
 3625 04c9 7472616E 		.ascii	"transferCount\000"
 3625      73666572 
 3625      436F756E 
 3625      7400
 3626              	.LASF27:
 3627 04d7 43464730 		.ascii	"CFG0\000"
 3627      00
 3628              	.LASF28:
 3629 04dc 43464731 		.ascii	"CFG1\000"
 3629      00
 3630              	.LASF43:
 3631 04e1 73746174 		.ascii	"status\000"
 3631      757300
 3632              	.LASF59:
 3633 04e8 4379446D 		.ascii	"CyDmaChGetRequest\000"
 3633      61436847 
 3633      65745265 
 3633      71756573 
 3633      7400
 3634              	.LASF58:
 3635 04fa 72657175 		.ascii	"request\000"
 3635      65737400 
 3636              	.LASF55:
 3637 0502 4379446D 		.ascii	"CyDmaChSetInitialTd\000"
 3637      61436853 
ARM GAS  C:\Users\HPz420\AppData\Local\Temp\ccfvmIQa.s 			page 87


 3637      6574496E 
 3637      69746961 
 3637      6C546400 
 3638              	.LASF15:
 3639 0516 63797374 		.ascii	"cystatus\000"
 3639      61747573 
 3639      00
 3640              	.LASF63:
 3641 051f 4379446D 		.ascii	"CyDmaChSetConfiguration\000"
 3641      61436853 
 3641      6574436F 
 3641      6E666967 
 3641      75726174 
 3642              	.LASF70:
 3643 0537 656C656D 		.ascii	"element\000"
 3643      656E7400 
 3644              	.LASF40:
 3645 053f 4379446D 		.ascii	"CyDmaChFree\000"
 3645      61436846 
 3645      72656500 
 3646              		.ident	"GCC: (GNU Tools for ARM Embedded Processors) 5.4.1 20160609 (release) [ARM/embedded-5-bran
