ARM GAS  C:\Users\HPz420\AppData\Local\Temp\ccTXWFfp.s 			page 1


   1              		.syntax unified
   2              		.cpu cortex-m3
   3              		.fpu softvfp
   4              		.eabi_attribute 20, 1
   5              		.eabi_attribute 21, 1
   6              		.eabi_attribute 23, 3
   7              		.eabi_attribute 24, 1
   8              		.eabi_attribute 25, 1
   9              		.eabi_attribute 26, 1
  10              		.eabi_attribute 30, 6
  11              		.eabi_attribute 34, 1
  12              		.eabi_attribute 18, 4
  13              		.thumb
  14              		.syntax unified
  15              		.file	"CyFlash.c"
  16              		.text
  17              	.Ltext0:
  18              		.cfi_sections	.debug_frame
  19              		.comm	dieTemperature,2,4
  20              		.bss
  21              		.align	2
  22              	rowBuffer:
  23 0000 00000000 		.space	4
  24              		.section	.text.CyFlash_Start,"ax",%progbits
  25              		.align	2
  26              		.global	CyFlash_Start
  27              		.thumb
  28              		.thumb_func
  29              		.type	CyFlash_Start, %function
  30              	CyFlash_Start:
  31              	.LFB0:
  32              		.file 1 "Generated_Source\\PSoC5\\CyFlash.c"
   1:Generated_Source\PSoC5/CyFlash.c **** /***************************************************************************//**
   2:Generated_Source\PSoC5/CyFlash.c **** * \file CyFlash.c
   3:Generated_Source\PSoC5/CyFlash.c **** * \version 5.80
   4:Generated_Source\PSoC5/CyFlash.c **** *
   5:Generated_Source\PSoC5/CyFlash.c **** * \brief Provides an API for the FLASH/EEPROM.
   6:Generated_Source\PSoC5/CyFlash.c **** *
   7:Generated_Source\PSoC5/CyFlash.c **** * \note This code is endian agnostic.
   8:Generated_Source\PSoC5/CyFlash.c **** *
   9:Generated_Source\PSoC5/CyFlash.c **** * \note Documentation of the API's in this file is located in the System
  10:Generated_Source\PSoC5/CyFlash.c **** * Reference Guide provided with PSoC Creator.
  11:Generated_Source\PSoC5/CyFlash.c **** *
  12:Generated_Source\PSoC5/CyFlash.c **** ********************************************************************************
  13:Generated_Source\PSoC5/CyFlash.c **** * \copyright
  14:Generated_Source\PSoC5/CyFlash.c **** * Copyright 2008-2018, Cypress Semiconductor Corporation. All rights reserved.
  15:Generated_Source\PSoC5/CyFlash.c **** * You may use this file only in accordance with the license, terms, conditions,
  16:Generated_Source\PSoC5/CyFlash.c **** * disclaimers, and limitations in the end user license agreement accompanying
  17:Generated_Source\PSoC5/CyFlash.c **** * the software package with which this file was provided.
  18:Generated_Source\PSoC5/CyFlash.c **** *******************************************************************************/
  19:Generated_Source\PSoC5/CyFlash.c **** 
  20:Generated_Source\PSoC5/CyFlash.c **** #include "CyFlash.h"
  21:Generated_Source\PSoC5/CyFlash.c **** 
  22:Generated_Source\PSoC5/CyFlash.c **** /*  The number of EEPROM arrays */
  23:Generated_Source\PSoC5/CyFlash.c **** #define CY_FLASH_EEPROM_NUMBER_ARRAYS                 (1u)
  24:Generated_Source\PSoC5/CyFlash.c **** 
  25:Generated_Source\PSoC5/CyFlash.c **** 
ARM GAS  C:\Users\HPz420\AppData\Local\Temp\ccTXWFfp.s 			page 2


  26:Generated_Source\PSoC5/CyFlash.c **** /*******************************************************************************
  27:Generated_Source\PSoC5/CyFlash.c **** * Holds the die temperature, updated by CySetTemp(). Used for flash writing.
  28:Generated_Source\PSoC5/CyFlash.c **** * The first byte is the sign of the temperature (0 = negative, 1 = positive).
  29:Generated_Source\PSoC5/CyFlash.c **** * The second byte is the magnitude.
  30:Generated_Source\PSoC5/CyFlash.c **** *******************************************************************************/
  31:Generated_Source\PSoC5/CyFlash.c **** uint8 dieTemperature[CY_FLASH_DIE_TEMP_DATA_SIZE];
  32:Generated_Source\PSoC5/CyFlash.c **** 
  33:Generated_Source\PSoC5/CyFlash.c **** #if(CYDEV_ECC_ENABLE == 0)
  34:Generated_Source\PSoC5/CyFlash.c ****     static uint8 * rowBuffer = 0;
  35:Generated_Source\PSoC5/CyFlash.c **** #endif  /* (CYDEV_ECC_ENABLE == 0) */
  36:Generated_Source\PSoC5/CyFlash.c **** 
  37:Generated_Source\PSoC5/CyFlash.c **** 
  38:Generated_Source\PSoC5/CyFlash.c **** static cystatus CySetTempInt(void);
  39:Generated_Source\PSoC5/CyFlash.c **** 
  40:Generated_Source\PSoC5/CyFlash.c **** 
  41:Generated_Source\PSoC5/CyFlash.c **** /*******************************************************************************
  42:Generated_Source\PSoC5/CyFlash.c **** * Function Name: CyFlash_Start
  43:Generated_Source\PSoC5/CyFlash.c **** ****************************************************************************//**
  44:Generated_Source\PSoC5/CyFlash.c **** *
  45:Generated_Source\PSoC5/CyFlash.c **** *  Enable the Flash.
  46:Generated_Source\PSoC5/CyFlash.c **** *
  47:Generated_Source\PSoC5/CyFlash.c **** *******************************************************************************/
  48:Generated_Source\PSoC5/CyFlash.c **** void CyFlash_Start(void) 
  49:Generated_Source\PSoC5/CyFlash.c **** {
  33              		.loc 1 49 0
  34              		.cfi_startproc
  35              		@ args = 0, pretend = 0, frame = 8
  36              		@ frame_needed = 1, uses_anonymous_args = 0
  37 0000 80B5     		push	{r7, lr}
  38              		.cfi_def_cfa_offset 8
  39              		.cfi_offset 7, -8
  40              		.cfi_offset 14, -4
  41 0002 82B0     		sub	sp, sp, #8
  42              		.cfi_def_cfa_offset 16
  43 0004 00AF     		add	r7, sp, #0
  44              		.cfi_def_cfa_register 7
  50:Generated_Source\PSoC5/CyFlash.c ****     uint8 interruptState;
  51:Generated_Source\PSoC5/CyFlash.c **** 
  52:Generated_Source\PSoC5/CyFlash.c ****     interruptState = CyEnterCriticalSection();
  45              		.loc 1 52 0
  46 0006 FFF7FEFF 		bl	CyEnterCriticalSection
  47 000a 0346     		mov	r3, r0
  48 000c FB71     		strb	r3, [r7, #7]
  53:Generated_Source\PSoC5/CyFlash.c **** 
  54:Generated_Source\PSoC5/CyFlash.c **** 
  55:Generated_Source\PSoC5/CyFlash.c ****     /***************************************************************************
  56:Generated_Source\PSoC5/CyFlash.c ****     * Enable SPC clock. This also internally enables the 36MHz IMO, since this
  57:Generated_Source\PSoC5/CyFlash.c ****     * is required for the SPC to function.
  58:Generated_Source\PSoC5/CyFlash.c ****     ***************************************************************************/
  59:Generated_Source\PSoC5/CyFlash.c ****     CY_FLASH_PM_ACT_CFG0_REG    |= CY_FLASH_PM_ACT_CFG0_EN_CLK_SPC;
  49              		.loc 1 59 0
  50 000e 194A     		ldr	r2, .L3
  51 0010 184B     		ldr	r3, .L3
  52 0012 1B78     		ldrb	r3, [r3]
  53 0014 DBB2     		uxtb	r3, r3
  54 0016 43F00803 		orr	r3, r3, #8
  55 001a DBB2     		uxtb	r3, r3
ARM GAS  C:\Users\HPz420\AppData\Local\Temp\ccTXWFfp.s 			page 3


  56 001c 1370     		strb	r3, [r2]
  60:Generated_Source\PSoC5/CyFlash.c ****     CY_FLASH_PM_ALTACT_CFG0_REG |= CY_FLASH_PM_ALTACT_CFG0_EN_CLK_SPC;
  57              		.loc 1 60 0
  58 001e 164A     		ldr	r2, .L3+4
  59 0020 154B     		ldr	r3, .L3+4
  60 0022 1B78     		ldrb	r3, [r3]
  61 0024 DBB2     		uxtb	r3, r3
  62 0026 43F00803 		orr	r3, r3, #8
  63 002a DBB2     		uxtb	r3, r3
  64 002c 1370     		strb	r3, [r2]
  61:Generated_Source\PSoC5/CyFlash.c **** 
  62:Generated_Source\PSoC5/CyFlash.c **** 
  63:Generated_Source\PSoC5/CyFlash.c ****     /***************************************************************************
  64:Generated_Source\PSoC5/CyFlash.c ****     * The wake count defines the number of Bus Clock cycles it takes for the
  65:Generated_Source\PSoC5/CyFlash.c ****     * flash or eeprom to wake up from a low power mode independent of the chip
  66:Generated_Source\PSoC5/CyFlash.c ****     * power mode. Wake up time for these blocks is 5 us.
  67:Generated_Source\PSoC5/CyFlash.c ****     * The granularity of this register is 2 Bus Clock cycles, so a value of 0x1E
  68:Generated_Source\PSoC5/CyFlash.c ****     * (30d) defines the wake up time as 60 cycles of the Bus Clock.
  69:Generated_Source\PSoC5/CyFlash.c ****     * This register needs to be written with a value dependent on the Bus Clock
  70:Generated_Source\PSoC5/CyFlash.c ****     * frequency so that the duration of the cycles is equal to or greater than
  71:Generated_Source\PSoC5/CyFlash.c ****     * the 5 us delay required.
  72:Generated_Source\PSoC5/CyFlash.c ****     ***************************************************************************/
  73:Generated_Source\PSoC5/CyFlash.c ****     CY_FLASH_SPC_FM_EE_WAKE_CNT_REG = CY_FLASH_SPC_FM_EE_WAKE_CNT_80MHZ;
  65              		.loc 1 73 0
  66 002e 134B     		ldr	r3, .L3+8
  67 0030 C822     		movs	r2, #200
  68 0032 1A70     		strb	r2, [r3]
  74:Generated_Source\PSoC5/CyFlash.c **** 
  75:Generated_Source\PSoC5/CyFlash.c **** 
  76:Generated_Source\PSoC5/CyFlash.c ****     /***************************************************************************
  77:Generated_Source\PSoC5/CyFlash.c ****     * Enable flash. Active flash macros consume current, but re-enabling a
  78:Generated_Source\PSoC5/CyFlash.c ****     * disabled flash macro takes 5us. If the CPU attempts to fetch out of the
  79:Generated_Source\PSoC5/CyFlash.c ****     * macro during that time, it will be stalled. This bit allows the flash to
  80:Generated_Source\PSoC5/CyFlash.c ****     * be enabled even if the CPU is disabled, which allows a quicker return to
  81:Generated_Source\PSoC5/CyFlash.c ****     * code execution.
  82:Generated_Source\PSoC5/CyFlash.c ****     ***************************************************************************/
  83:Generated_Source\PSoC5/CyFlash.c ****     CY_FLASH_PM_ACT_CFG12_REG    |= CY_FLASH_PM_ACT_CFG12_EN_FM;
  69              		.loc 1 83 0
  70 0034 124A     		ldr	r2, .L3+12
  71 0036 124B     		ldr	r3, .L3+12
  72 0038 1B78     		ldrb	r3, [r3]
  73 003a DBB2     		uxtb	r3, r3
  74 003c 43F00F03 		orr	r3, r3, #15
  75 0040 DBB2     		uxtb	r3, r3
  76 0042 1370     		strb	r3, [r2]
  84:Generated_Source\PSoC5/CyFlash.c ****     CY_FLASH_PM_ALTACT_CFG12_REG |= CY_FLASH_PM_ALTACT_CFG12_EN_FM;
  77              		.loc 1 84 0
  78 0044 0F4A     		ldr	r2, .L3+16
  79 0046 0F4B     		ldr	r3, .L3+16
  80 0048 1B78     		ldrb	r3, [r3]
  81 004a DBB2     		uxtb	r3, r3
  82 004c 43F00F03 		orr	r3, r3, #15
  83 0050 DBB2     		uxtb	r3, r3
  84 0052 1370     		strb	r3, [r2]
  85:Generated_Source\PSoC5/CyFlash.c **** 
  86:Generated_Source\PSoC5/CyFlash.c ****     while(0u == (CY_FLASH_SPC_FM_EE_CR_REG & CY_FLASH_EE_EE_AWAKE))
  85              		.loc 1 86 0
ARM GAS  C:\Users\HPz420\AppData\Local\Temp\ccTXWFfp.s 			page 4


  86 0054 00BF     		nop
  87              	.L2:
  88              		.loc 1 86 0 is_stmt 0 discriminator 1
  89 0056 0C4B     		ldr	r3, .L3+20
  90 0058 1B78     		ldrb	r3, [r3]
  91 005a DBB2     		uxtb	r3, r3
  92 005c 03F02003 		and	r3, r3, #32
  93 0060 002B     		cmp	r3, #0
  94 0062 F8D0     		beq	.L2
  87:Generated_Source\PSoC5/CyFlash.c ****     {
  88:Generated_Source\PSoC5/CyFlash.c ****         /* Non-zero status denotes that the EEPROM/Flash is awake & powered. */
  89:Generated_Source\PSoC5/CyFlash.c ****     }
  90:Generated_Source\PSoC5/CyFlash.c **** 
  91:Generated_Source\PSoC5/CyFlash.c ****     CyExitCriticalSection(interruptState);
  95              		.loc 1 91 0 is_stmt 1
  96 0064 FB79     		ldrb	r3, [r7, #7]	@ zero_extendqisi2
  97 0066 1846     		mov	r0, r3
  98 0068 FFF7FEFF 		bl	CyExitCriticalSection
  92:Generated_Source\PSoC5/CyFlash.c **** }
  99              		.loc 1 92 0
 100 006c 00BF     		nop
 101 006e 0837     		adds	r7, r7, #8
 102              		.cfi_def_cfa_offset 8
 103 0070 BD46     		mov	sp, r7
 104              		.cfi_def_cfa_register 13
 105              		@ sp needed
 106 0072 80BD     		pop	{r7, pc}
 107              	.L4:
 108              		.align	2
 109              	.L3:
 110 0074 A0430040 		.word	1073759136
 111 0078 B0430040 		.word	1073759152
 112 007c 01470040 		.word	1073760001
 113 0080 AC430040 		.word	1073759148
 114 0084 BC430040 		.word	1073759164
 115 0088 00470040 		.word	1073760000
 116              		.cfi_endproc
 117              	.LFE0:
 118              		.size	CyFlash_Start, .-CyFlash_Start
 119              		.section	.text.CyFlash_Stop,"ax",%progbits
 120              		.align	2
 121              		.global	CyFlash_Stop
 122              		.thumb
 123              		.thumb_func
 124              		.type	CyFlash_Stop, %function
 125              	CyFlash_Stop:
 126              	.LFB1:
  93:Generated_Source\PSoC5/CyFlash.c **** 
  94:Generated_Source\PSoC5/CyFlash.c **** 
  95:Generated_Source\PSoC5/CyFlash.c **** /*******************************************************************************
  96:Generated_Source\PSoC5/CyFlash.c **** * Function Name: CyFlash_Stop
  97:Generated_Source\PSoC5/CyFlash.c **** ****************************************************************************//**
  98:Generated_Source\PSoC5/CyFlash.c **** *
  99:Generated_Source\PSoC5/CyFlash.c **** *  Disable the Flash.
 100:Generated_Source\PSoC5/CyFlash.c **** *
 101:Generated_Source\PSoC5/CyFlash.c **** * \sideeffect
 102:Generated_Source\PSoC5/CyFlash.c **** *  This setting is ignored as long as the CPU is currently running.  This will
ARM GAS  C:\Users\HPz420\AppData\Local\Temp\ccTXWFfp.s 			page 5


 103:Generated_Source\PSoC5/CyFlash.c **** *  only take effect when the CPU is later disabled.
 104:Generated_Source\PSoC5/CyFlash.c **** *
 105:Generated_Source\PSoC5/CyFlash.c **** *******************************************************************************/
 106:Generated_Source\PSoC5/CyFlash.c **** void CyFlash_Stop(void) 
 107:Generated_Source\PSoC5/CyFlash.c **** {
 127              		.loc 1 107 0
 128              		.cfi_startproc
 129              		@ args = 0, pretend = 0, frame = 8
 130              		@ frame_needed = 1, uses_anonymous_args = 0
 131 0000 80B5     		push	{r7, lr}
 132              		.cfi_def_cfa_offset 8
 133              		.cfi_offset 7, -8
 134              		.cfi_offset 14, -4
 135 0002 82B0     		sub	sp, sp, #8
 136              		.cfi_def_cfa_offset 16
 137 0004 00AF     		add	r7, sp, #0
 138              		.cfi_def_cfa_register 7
 108:Generated_Source\PSoC5/CyFlash.c ****     uint8 interruptState;
 109:Generated_Source\PSoC5/CyFlash.c **** 
 110:Generated_Source\PSoC5/CyFlash.c ****     interruptState = CyEnterCriticalSection();
 139              		.loc 1 110 0
 140 0006 FFF7FEFF 		bl	CyEnterCriticalSection
 141 000a 0346     		mov	r3, r0
 142 000c FB71     		strb	r3, [r7, #7]
 111:Generated_Source\PSoC5/CyFlash.c **** 
 112:Generated_Source\PSoC5/CyFlash.c ****     CY_FLASH_PM_ACT_CFG12_REG    &= ((uint8)(~CY_FLASH_PM_ACT_CFG12_EN_FM));
 143              		.loc 1 112 0
 144 000e 0C4A     		ldr	r2, .L6
 145 0010 0B4B     		ldr	r3, .L6
 146 0012 1B78     		ldrb	r3, [r3]
 147 0014 DBB2     		uxtb	r3, r3
 148 0016 23F00F03 		bic	r3, r3, #15
 149 001a DBB2     		uxtb	r3, r3
 150 001c 1370     		strb	r3, [r2]
 113:Generated_Source\PSoC5/CyFlash.c ****     CY_FLASH_PM_ALTACT_CFG12_REG &= ((uint8)(~CY_FLASH_PM_ALTACT_CFG12_EN_FM));
 151              		.loc 1 113 0
 152 001e 094A     		ldr	r2, .L6+4
 153 0020 084B     		ldr	r3, .L6+4
 154 0022 1B78     		ldrb	r3, [r3]
 155 0024 DBB2     		uxtb	r3, r3
 156 0026 23F00F03 		bic	r3, r3, #15
 157 002a DBB2     		uxtb	r3, r3
 158 002c 1370     		strb	r3, [r2]
 114:Generated_Source\PSoC5/CyFlash.c **** 
 115:Generated_Source\PSoC5/CyFlash.c ****     CyExitCriticalSection(interruptState);
 159              		.loc 1 115 0
 160 002e FB79     		ldrb	r3, [r7, #7]	@ zero_extendqisi2
 161 0030 1846     		mov	r0, r3
 162 0032 FFF7FEFF 		bl	CyExitCriticalSection
 116:Generated_Source\PSoC5/CyFlash.c **** }
 163              		.loc 1 116 0
 164 0036 00BF     		nop
 165 0038 0837     		adds	r7, r7, #8
 166              		.cfi_def_cfa_offset 8
 167 003a BD46     		mov	sp, r7
 168              		.cfi_def_cfa_register 13
 169              		@ sp needed
ARM GAS  C:\Users\HPz420\AppData\Local\Temp\ccTXWFfp.s 			page 6


 170 003c 80BD     		pop	{r7, pc}
 171              	.L7:
 172 003e 00BF     		.align	2
 173              	.L6:
 174 0040 AC430040 		.word	1073759148
 175 0044 BC430040 		.word	1073759164
 176              		.cfi_endproc
 177              	.LFE1:
 178              		.size	CyFlash_Stop, .-CyFlash_Stop
 179              		.section	.text.CyFlash_EraseRow,"ax",%progbits
 180              		.align	2
 181              		.global	CyFlash_EraseRow
 182              		.thumb
 183              		.thumb_func
 184              		.type	CyFlash_EraseRow, %function
 185              	CyFlash_EraseRow:
 186              	.LFB2:
 117:Generated_Source\PSoC5/CyFlash.c **** 
 118:Generated_Source\PSoC5/CyFlash.c **** 
 119:Generated_Source\PSoC5/CyFlash.c **** /*******************************************************************************
 120:Generated_Source\PSoC5/CyFlash.c **** * Function Name: CyFlash_EraseRow
 121:Generated_Source\PSoC5/CyFlash.c **** ****************************************************************************//**
 122:Generated_Source\PSoC5/CyFlash.c **** *
 123:Generated_Source\PSoC5/CyFlash.c **** *  Erases a single row of flash. Reports success or reason for failure. 
 124:Generated_Source\PSoC5/CyFlash.c **** *  The API does not return until the erase operation is complete.
 125:Generated_Source\PSoC5/CyFlash.c **** *
 126:Generated_Source\PSoC5/CyFlash.c **** *  \param arrayID:    ID of the array to erase.
 127:Generated_Source\PSoC5/CyFlash.c **** *   The arrays in the part are sequential starting at the first ID for the
 128:Generated_Source\PSoC5/CyFlash.c **** *   Flash memory type. 
 129:Generated_Source\PSoC5/CyFlash.c **** *  \param rowAddress: Row address within the specified arrayId.
 130:Generated_Source\PSoC5/CyFlash.c **** *
 131:Generated_Source\PSoC5/CyFlash.c **** *  \return
 132:Generated_Source\PSoC5/CyFlash.c **** *  status:
 133:Generated_Source\PSoC5/CyFlash.c **** *   CYRET_SUCCESS if successful.
 134:Generated_Source\PSoC5/CyFlash.c **** *   CYRET_LOCKED if the SPC is already in use.
 135:Generated_Source\PSoC5/CyFlash.c **** *   CYRET_CANCELED if command not accepted
 136:Generated_Source\PSoC5/CyFlash.c **** *   CYRET_UNKNOWN if there was an SPC error.
 137:Generated_Source\PSoC5/CyFlash.c **** *   CYRET_BAD_PARAM if one or more invalid parameters
 138:Generated_Source\PSoC5/CyFlash.c **** *
 139:Generated_Source\PSoC5/CyFlash.c **** *******************************************************************************/
 140:Generated_Source\PSoC5/CyFlash.c **** cystatus CyFlash_EraseRow(uint8 arrayId, uint16 rowAddress)
 141:Generated_Source\PSoC5/CyFlash.c **** {
 187              		.loc 1 141 0
 188              		.cfi_startproc
 189              		@ args = 0, pretend = 0, frame = 16
 190              		@ frame_needed = 1, uses_anonymous_args = 0
 191 0000 80B5     		push	{r7, lr}
 192              		.cfi_def_cfa_offset 8
 193              		.cfi_offset 7, -8
 194              		.cfi_offset 14, -4
 195 0002 84B0     		sub	sp, sp, #16
 196              		.cfi_def_cfa_offset 24
 197 0004 00AF     		add	r7, sp, #0
 198              		.cfi_def_cfa_register 7
 199 0006 0346     		mov	r3, r0
 200 0008 0A46     		mov	r2, r1
 201 000a FB71     		strb	r3, [r7, #7]
ARM GAS  C:\Users\HPz420\AppData\Local\Temp\ccTXWFfp.s 			page 7


 202 000c 1346     		mov	r3, r2	@ movhi
 203 000e BB80     		strh	r3, [r7, #4]	@ movhi
 142:Generated_Source\PSoC5/CyFlash.c ****     cystatus status = CYRET_SUCCESS;
 204              		.loc 1 142 0
 205 0010 0023     		movs	r3, #0
 206 0012 FB60     		str	r3, [r7, #12]
 143:Generated_Source\PSoC5/CyFlash.c **** 
 144:Generated_Source\PSoC5/CyFlash.c ****     if (arrayId > CY_SPC_LAST_FLASH_ARRAYID)
 207              		.loc 1 144 0
 208 0014 FB79     		ldrb	r3, [r7, #7]	@ zero_extendqisi2
 209 0016 3F2B     		cmp	r3, #63
 210 0018 02D9     		bls	.L9
 145:Generated_Source\PSoC5/CyFlash.c ****     {
 146:Generated_Source\PSoC5/CyFlash.c ****         status = CYRET_BAD_PARAM;
 211              		.loc 1 146 0
 212 001a 0123     		movs	r3, #1
 213 001c FB60     		str	r3, [r7, #12]
 214 001e 3EE0     		b	.L10
 215              	.L9:
 147:Generated_Source\PSoC5/CyFlash.c ****     }
 148:Generated_Source\PSoC5/CyFlash.c ****     else if(rowAddress > (CY_FLASH_NUMBER_ROWS/CY_FLASH_NUMBER_ARRAYS))
 216              		.loc 1 148 0
 217 0020 BB88     		ldrh	r3, [r7, #4]
 218 0022 B3F5807F 		cmp	r3, #256
 219 0026 02D9     		bls	.L11
 149:Generated_Source\PSoC5/CyFlash.c ****     {
 150:Generated_Source\PSoC5/CyFlash.c ****         status = CYRET_BAD_PARAM;
 220              		.loc 1 150 0
 221 0028 0123     		movs	r3, #1
 222 002a FB60     		str	r3, [r7, #12]
 223 002c 37E0     		b	.L10
 224              	.L11:
 151:Generated_Source\PSoC5/CyFlash.c ****     }        
 152:Generated_Source\PSoC5/CyFlash.c ****     else
 153:Generated_Source\PSoC5/CyFlash.c ****     {
 154:Generated_Source\PSoC5/CyFlash.c ****         if(CySpcLock() == CYRET_SUCCESS)
 225              		.loc 1 154 0
 226 002e FFF7FEFF 		bl	CySpcLock
 227 0032 0346     		mov	r3, r0
 228 0034 002B     		cmp	r3, #0
 229 0036 30D1     		bne	.L12
 155:Generated_Source\PSoC5/CyFlash.c ****         {
 156:Generated_Source\PSoC5/CyFlash.c ****             /* Erase flash row */
 157:Generated_Source\PSoC5/CyFlash.c ****             status = CySpcEraseRow(arrayId, rowAddress, dieTemperature[0u], dieTemperature[1u]);
 230              		.loc 1 157 0
 231 0038 1B4B     		ldr	r3, .L20
 232 003a 1A78     		ldrb	r2, [r3]	@ zero_extendqisi2
 233 003c 1A4B     		ldr	r3, .L20
 234 003e 5B78     		ldrb	r3, [r3, #1]	@ zero_extendqisi2
 235 0040 B988     		ldrh	r1, [r7, #4]
 236 0042 F879     		ldrb	r0, [r7, #7]	@ zero_extendqisi2
 237 0044 FFF7FEFF 		bl	CySpcEraseRow
 238 0048 F860     		str	r0, [r7, #12]
 158:Generated_Source\PSoC5/CyFlash.c ****             
 159:Generated_Source\PSoC5/CyFlash.c ****             if(CYRET_STARTED == status)
 239              		.loc 1 159 0
 240 004a FB68     		ldr	r3, [r7, #12]
ARM GAS  C:\Users\HPz420\AppData\Local\Temp\ccTXWFfp.s 			page 8


 241 004c 072B     		cmp	r3, #7
 242 004e 1FD1     		bne	.L13
 160:Generated_Source\PSoC5/CyFlash.c ****             {
 161:Generated_Source\PSoC5/CyFlash.c ****                 while(CY_SPC_BUSY)
 243              		.loc 1 161 0
 244 0050 02E0     		b	.L14
 245              	.L15:
 162:Generated_Source\PSoC5/CyFlash.c ****                 {
 163:Generated_Source\PSoC5/CyFlash.c ****                     /* Wait for SPC to finish and get SPC status */
 164:Generated_Source\PSoC5/CyFlash.c ****                     CyDelayUs(1u);
 246              		.loc 1 164 0
 247 0052 0120     		movs	r0, #1
 248 0054 FFF7FEFF 		bl	CyDelayUs
 249              	.L14:
 161:Generated_Source\PSoC5/CyFlash.c ****                 {
 250              		.loc 1 161 0
 251 0058 144B     		ldr	r3, .L20+4
 252 005a 1B78     		ldrb	r3, [r3]
 253 005c DBB2     		uxtb	r3, r3
 254 005e 03F00203 		and	r3, r3, #2
 255 0062 002B     		cmp	r3, #0
 256 0064 F5D0     		beq	.L15
 165:Generated_Source\PSoC5/CyFlash.c ****                 }
 166:Generated_Source\PSoC5/CyFlash.c ****                 
 167:Generated_Source\PSoC5/CyFlash.c ****                 /* Hide SPC status */
 168:Generated_Source\PSoC5/CyFlash.c ****                 if(CY_SPC_STATUS_SUCCESS == CY_SPC_READ_STATUS)
 257              		.loc 1 168 0
 258 0066 114B     		ldr	r3, .L20+4
 259 0068 1B78     		ldrb	r3, [r3]
 260 006a DBB2     		uxtb	r3, r3
 261 006c 03F00203 		and	r3, r3, #2
 262 0070 002B     		cmp	r3, #0
 263 0072 09D0     		beq	.L16
 264              		.loc 1 168 0 is_stmt 0 discriminator 1
 265 0074 0D4B     		ldr	r3, .L20+4
 266 0076 1B78     		ldrb	r3, [r3]
 267 0078 DBB2     		uxtb	r3, r3
 268 007a 9B08     		lsrs	r3, r3, #2
 269 007c DBB2     		uxtb	r3, r3
 270 007e 002B     		cmp	r3, #0
 271 0080 02D1     		bne	.L16
 169:Generated_Source\PSoC5/CyFlash.c ****                 {
 170:Generated_Source\PSoC5/CyFlash.c ****                     status = CYRET_SUCCESS;
 272              		.loc 1 170 0 is_stmt 1
 273 0082 0023     		movs	r3, #0
 274 0084 FB60     		str	r3, [r7, #12]
 275 0086 05E0     		b	.L18
 276              	.L16:
 171:Generated_Source\PSoC5/CyFlash.c ****                 }
 172:Generated_Source\PSoC5/CyFlash.c ****                 else
 173:Generated_Source\PSoC5/CyFlash.c ****                 {
 174:Generated_Source\PSoC5/CyFlash.c ****                     status = CYRET_UNKNOWN;
 277              		.loc 1 174 0
 278 0088 4FF0FF33 		mov	r3, #-1
 279 008c FB60     		str	r3, [r7, #12]
 280 008e 01E0     		b	.L18
 281              	.L13:
ARM GAS  C:\Users\HPz420\AppData\Local\Temp\ccTXWFfp.s 			page 9


 175:Generated_Source\PSoC5/CyFlash.c ****                 }
 176:Generated_Source\PSoC5/CyFlash.c ****             }
 177:Generated_Source\PSoC5/CyFlash.c **** 	        else
 178:Generated_Source\PSoC5/CyFlash.c ****             {
 179:Generated_Source\PSoC5/CyFlash.c ****                 status = CYRET_CANCELED;
 282              		.loc 1 179 0
 283 0090 0923     		movs	r3, #9
 284 0092 FB60     		str	r3, [r7, #12]
 285              	.L18:
 180:Generated_Source\PSoC5/CyFlash.c ****             }
 181:Generated_Source\PSoC5/CyFlash.c ****             CySpcUnlock();
 286              		.loc 1 181 0
 287 0094 FFF7FEFF 		bl	CySpcUnlock
 288 0098 01E0     		b	.L10
 289              	.L12:
 182:Generated_Source\PSoC5/CyFlash.c ****         }
 183:Generated_Source\PSoC5/CyFlash.c ****         else 
 184:Generated_Source\PSoC5/CyFlash.c ****         {
 185:Generated_Source\PSoC5/CyFlash.c ****             status = CYRET_LOCKED;
 290              		.loc 1 185 0
 291 009a 0423     		movs	r3, #4
 292 009c FB60     		str	r3, [r7, #12]
 293              	.L10:
 186:Generated_Source\PSoC5/CyFlash.c ****         }
 187:Generated_Source\PSoC5/CyFlash.c ****     }
 188:Generated_Source\PSoC5/CyFlash.c ****     
 189:Generated_Source\PSoC5/CyFlash.c ****     return(status);
 294              		.loc 1 189 0
 295 009e FB68     		ldr	r3, [r7, #12]
 190:Generated_Source\PSoC5/CyFlash.c **** }
 296              		.loc 1 190 0
 297 00a0 1846     		mov	r0, r3
 298 00a2 1037     		adds	r7, r7, #16
 299              		.cfi_def_cfa_offset 8
 300 00a4 BD46     		mov	sp, r7
 301              		.cfi_def_cfa_register 13
 302              		@ sp needed
 303 00a6 80BD     		pop	{r7, pc}
 304              	.L21:
 305              		.align	2
 306              	.L20:
 307 00a8 00000000 		.word	dieTemperature
 308 00ac 22470040 		.word	1073760034
 309              		.cfi_endproc
 310              	.LFE2:
 311              		.size	CyFlash_EraseRow, .-CyFlash_EraseRow
 312              		.section	.text.CySetTempInt,"ax",%progbits
 313              		.align	2
 314              		.thumb
 315              		.thumb_func
 316              		.type	CySetTempInt, %function
 317              	CySetTempInt:
 318              	.LFB3:
 191:Generated_Source\PSoC5/CyFlash.c **** 
 192:Generated_Source\PSoC5/CyFlash.c **** 
 193:Generated_Source\PSoC5/CyFlash.c **** /*******************************************************************************
 194:Generated_Source\PSoC5/CyFlash.c **** * Function Name: CySetTempInt
ARM GAS  C:\Users\HPz420\AppData\Local\Temp\ccTXWFfp.s 			page 10


 195:Generated_Source\PSoC5/CyFlash.c **** ****************************************************************************//**
 196:Generated_Source\PSoC5/CyFlash.c **** *
 197:Generated_Source\PSoC5/CyFlash.c **** *  Sends a command to the SPC to read the die temperature. Sets a global value
 198:Generated_Source\PSoC5/CyFlash.c **** *  used by the Write function. This function must be called once before
 199:Generated_Source\PSoC5/CyFlash.c **** *  executing a series of Flash writing functions.
 200:Generated_Source\PSoC5/CyFlash.c **** *
 201:Generated_Source\PSoC5/CyFlash.c **** * \return
 202:Generated_Source\PSoC5/CyFlash.c **** *  status:
 203:Generated_Source\PSoC5/CyFlash.c **** *   CYRET_SUCCESS - if successful
 204:Generated_Source\PSoC5/CyFlash.c **** *   CYRET_LOCKED  - if Flash writing already in use
 205:Generated_Source\PSoC5/CyFlash.c **** *   CYRET_UNKNOWN - if there was an SPC error
 206:Generated_Source\PSoC5/CyFlash.c **** *
 207:Generated_Source\PSoC5/CyFlash.c **** *******************************************************************************/
 208:Generated_Source\PSoC5/CyFlash.c **** static cystatus CySetTempInt(void) 
 209:Generated_Source\PSoC5/CyFlash.c **** {
 319              		.loc 1 209 0
 320              		.cfi_startproc
 321              		@ args = 0, pretend = 0, frame = 8
 322              		@ frame_needed = 1, uses_anonymous_args = 0
 323 0000 80B5     		push	{r7, lr}
 324              		.cfi_def_cfa_offset 8
 325              		.cfi_offset 7, -8
 326              		.cfi_offset 14, -4
 327 0002 82B0     		sub	sp, sp, #8
 328              		.cfi_def_cfa_offset 16
 329 0004 00AF     		add	r7, sp, #0
 330              		.cfi_def_cfa_register 7
 210:Generated_Source\PSoC5/CyFlash.c ****     cystatus status;
 211:Generated_Source\PSoC5/CyFlash.c **** 
 212:Generated_Source\PSoC5/CyFlash.c ****     /* Make sure SPC is powered */
 213:Generated_Source\PSoC5/CyFlash.c ****     CySpcStart();
 331              		.loc 1 213 0
 332 0006 FFF7FEFF 		bl	CySpcStart
 214:Generated_Source\PSoC5/CyFlash.c **** 
 215:Generated_Source\PSoC5/CyFlash.c ****     /* Plan for failure. */
 216:Generated_Source\PSoC5/CyFlash.c ****     status = CYRET_UNKNOWN;
 333              		.loc 1 216 0
 334 000a 4FF0FF33 		mov	r3, #-1
 335 000e 7B60     		str	r3, [r7, #4]
 217:Generated_Source\PSoC5/CyFlash.c **** 
 218:Generated_Source\PSoC5/CyFlash.c ****     if(CySpcLock() == CYRET_SUCCESS)
 336              		.loc 1 218 0
 337 0010 FFF7FEFF 		bl	CySpcLock
 338 0014 0346     		mov	r3, r0
 339 0016 002B     		cmp	r3, #0
 340 0018 24D1     		bne	.L23
 219:Generated_Source\PSoC5/CyFlash.c ****     {
 220:Generated_Source\PSoC5/CyFlash.c ****         /* Write the command. */
 221:Generated_Source\PSoC5/CyFlash.c ****         if(CYRET_STARTED == CySpcGetTemp(CY_TEMP_NUMBER_OF_SAMPLES))
 341              		.loc 1 221 0
 342 001a 0120     		movs	r0, #1
 343 001c FFF7FEFF 		bl	CySpcGetTemp
 344 0020 0346     		mov	r3, r0
 345 0022 072B     		cmp	r3, #7
 346 0024 1BD1     		bne	.L24
 347              	.L28:
 222:Generated_Source\PSoC5/CyFlash.c ****         {
ARM GAS  C:\Users\HPz420\AppData\Local\Temp\ccTXWFfp.s 			page 11


 223:Generated_Source\PSoC5/CyFlash.c ****             do
 224:Generated_Source\PSoC5/CyFlash.c ****             {
 225:Generated_Source\PSoC5/CyFlash.c ****                 if(CySpcReadData(dieTemperature, CY_FLASH_DIE_TEMP_DATA_SIZE) == CY_FLASH_DIE_TEMP_
 348              		.loc 1 225 0
 349 0026 0221     		movs	r1, #2
 350 0028 1248     		ldr	r0, .L31
 351 002a FFF7FEFF 		bl	CySpcReadData
 352 002e 0346     		mov	r3, r0
 353 0030 022B     		cmp	r3, #2
 354 0032 0DD1     		bne	.L25
 226:Generated_Source\PSoC5/CyFlash.c ****                 {
 227:Generated_Source\PSoC5/CyFlash.c ****                     status = CYRET_SUCCESS;
 355              		.loc 1 227 0
 356 0034 0023     		movs	r3, #0
 357 0036 7B60     		str	r3, [r7, #4]
 228:Generated_Source\PSoC5/CyFlash.c **** 
 229:Generated_Source\PSoC5/CyFlash.c ****                     while(CY_SPC_BUSY)
 358              		.loc 1 229 0
 359 0038 02E0     		b	.L26
 360              	.L27:
 230:Generated_Source\PSoC5/CyFlash.c ****                     {
 231:Generated_Source\PSoC5/CyFlash.c ****                         /* Spin until idle. */
 232:Generated_Source\PSoC5/CyFlash.c ****                         CyDelayUs(1u);
 361              		.loc 1 232 0
 362 003a 0120     		movs	r0, #1
 363 003c FFF7FEFF 		bl	CyDelayUs
 364              	.L26:
 229:Generated_Source\PSoC5/CyFlash.c ****                     {
 365              		.loc 1 229 0
 366 0040 0D4B     		ldr	r3, .L31+4
 367 0042 1B78     		ldrb	r3, [r3]
 368 0044 DBB2     		uxtb	r3, r3
 369 0046 03F00203 		and	r3, r3, #2
 370 004a 002B     		cmp	r3, #0
 371 004c F5D0     		beq	.L27
 233:Generated_Source\PSoC5/CyFlash.c ****                     }
 234:Generated_Source\PSoC5/CyFlash.c ****                     break;
 372              		.loc 1 234 0
 373 004e 06E0     		b	.L24
 374              	.L25:
 235:Generated_Source\PSoC5/CyFlash.c ****                 }
 236:Generated_Source\PSoC5/CyFlash.c **** 
 237:Generated_Source\PSoC5/CyFlash.c ****             } while(CY_SPC_BUSY);
 375              		.loc 1 237 0
 376 0050 094B     		ldr	r3, .L31+4
 377 0052 1B78     		ldrb	r3, [r3]
 378 0054 DBB2     		uxtb	r3, r3
 379 0056 03F00203 		and	r3, r3, #2
 380 005a 002B     		cmp	r3, #0
 381 005c E3D0     		beq	.L28
 382              	.L24:
 238:Generated_Source\PSoC5/CyFlash.c ****         }
 239:Generated_Source\PSoC5/CyFlash.c **** 
 240:Generated_Source\PSoC5/CyFlash.c ****         CySpcUnlock();
 383              		.loc 1 240 0
 384 005e FFF7FEFF 		bl	CySpcUnlock
 385 0062 01E0     		b	.L29
ARM GAS  C:\Users\HPz420\AppData\Local\Temp\ccTXWFfp.s 			page 12


 386              	.L23:
 241:Generated_Source\PSoC5/CyFlash.c ****     }
 242:Generated_Source\PSoC5/CyFlash.c ****     else
 243:Generated_Source\PSoC5/CyFlash.c ****     {
 244:Generated_Source\PSoC5/CyFlash.c ****         status = CYRET_LOCKED;
 387              		.loc 1 244 0
 388 0064 0423     		movs	r3, #4
 389 0066 7B60     		str	r3, [r7, #4]
 390              	.L29:
 245:Generated_Source\PSoC5/CyFlash.c ****     }
 246:Generated_Source\PSoC5/CyFlash.c **** 
 247:Generated_Source\PSoC5/CyFlash.c ****     return (status);
 391              		.loc 1 247 0
 392 0068 7B68     		ldr	r3, [r7, #4]
 248:Generated_Source\PSoC5/CyFlash.c **** }
 393              		.loc 1 248 0
 394 006a 1846     		mov	r0, r3
 395 006c 0837     		adds	r7, r7, #8
 396              		.cfi_def_cfa_offset 8
 397 006e BD46     		mov	sp, r7
 398              		.cfi_def_cfa_register 13
 399              		@ sp needed
 400 0070 80BD     		pop	{r7, pc}
 401              	.L32:
 402 0072 00BF     		.align	2
 403              	.L31:
 404 0074 00000000 		.word	dieTemperature
 405 0078 22470040 		.word	1073760034
 406              		.cfi_endproc
 407              	.LFE3:
 408              		.size	CySetTempInt, .-CySetTempInt
 409              		.section	.text.CyFlashGetSpcAlgorithm,"ax",%progbits
 410              		.align	2
 411              		.global	CyFlashGetSpcAlgorithm
 412              		.thumb
 413              		.thumb_func
 414              		.type	CyFlashGetSpcAlgorithm, %function
 415              	CyFlashGetSpcAlgorithm:
 416              	.LFB4:
 249:Generated_Source\PSoC5/CyFlash.c **** 
 250:Generated_Source\PSoC5/CyFlash.c **** 
 251:Generated_Source\PSoC5/CyFlash.c **** /*******************************************************************************
 252:Generated_Source\PSoC5/CyFlash.c **** * Function Name: CyFlashGetSpcAlgorithm
 253:Generated_Source\PSoC5/CyFlash.c **** ****************************************************************************//**
 254:Generated_Source\PSoC5/CyFlash.c **** *
 255:Generated_Source\PSoC5/CyFlash.c **** *  Sends a command to the SPC to download code into RAM.
 256:Generated_Source\PSoC5/CyFlash.c **** *
 257:Generated_Source\PSoC5/CyFlash.c **** * \return
 258:Generated_Source\PSoC5/CyFlash.c **** *  status:
 259:Generated_Source\PSoC5/CyFlash.c **** *   CYRET_SUCCESS - if successful
 260:Generated_Source\PSoC5/CyFlash.c **** *   CYRET_LOCKED  - if Flash writing already in use
 261:Generated_Source\PSoC5/CyFlash.c **** *   CYRET_UNKNOWN - if there was an SPC error
 262:Generated_Source\PSoC5/CyFlash.c **** *
 263:Generated_Source\PSoC5/CyFlash.c **** *******************************************************************************/
 264:Generated_Source\PSoC5/CyFlash.c **** cystatus CyFlashGetSpcAlgorithm(void) 
 265:Generated_Source\PSoC5/CyFlash.c **** {
 417              		.loc 1 265 0
ARM GAS  C:\Users\HPz420\AppData\Local\Temp\ccTXWFfp.s 			page 13


 418              		.cfi_startproc
 419              		@ args = 0, pretend = 0, frame = 8
 420              		@ frame_needed = 1, uses_anonymous_args = 0
 421 0000 80B5     		push	{r7, lr}
 422              		.cfi_def_cfa_offset 8
 423              		.cfi_offset 7, -8
 424              		.cfi_offset 14, -4
 425 0002 82B0     		sub	sp, sp, #8
 426              		.cfi_def_cfa_offset 16
 427 0004 00AF     		add	r7, sp, #0
 428              		.cfi_def_cfa_register 7
 266:Generated_Source\PSoC5/CyFlash.c ****     cystatus status;
 267:Generated_Source\PSoC5/CyFlash.c **** 
 268:Generated_Source\PSoC5/CyFlash.c ****     /* Make sure SPC is powered */
 269:Generated_Source\PSoC5/CyFlash.c ****     CySpcStart();
 429              		.loc 1 269 0
 430 0006 FFF7FEFF 		bl	CySpcStart
 270:Generated_Source\PSoC5/CyFlash.c **** 
 271:Generated_Source\PSoC5/CyFlash.c ****     if(CySpcLock() == CYRET_SUCCESS)
 431              		.loc 1 271 0
 432 000a FFF7FEFF 		bl	CySpcLock
 433 000e 0346     		mov	r3, r0
 434 0010 002B     		cmp	r3, #0
 435 0012 23D1     		bne	.L34
 272:Generated_Source\PSoC5/CyFlash.c ****     {
 273:Generated_Source\PSoC5/CyFlash.c ****         status = CySpcGetAlgorithm();
 436              		.loc 1 273 0
 437 0014 FFF7FEFF 		bl	CySpcGetAlgorithm
 438 0018 7860     		str	r0, [r7, #4]
 274:Generated_Source\PSoC5/CyFlash.c **** 
 275:Generated_Source\PSoC5/CyFlash.c ****         if(CYRET_STARTED == status)
 439              		.loc 1 275 0
 440 001a 7B68     		ldr	r3, [r7, #4]
 441 001c 072B     		cmp	r3, #7
 442 001e 1AD1     		bne	.L35
 276:Generated_Source\PSoC5/CyFlash.c ****         {
 277:Generated_Source\PSoC5/CyFlash.c ****             while(CY_SPC_BUSY)
 443              		.loc 1 277 0
 444 0020 02E0     		b	.L36
 445              	.L37:
 278:Generated_Source\PSoC5/CyFlash.c ****             {
 279:Generated_Source\PSoC5/CyFlash.c ****                 /* Spin until idle. */
 280:Generated_Source\PSoC5/CyFlash.c ****                 CyDelayUs(1u);
 446              		.loc 1 280 0
 447 0022 0120     		movs	r0, #1
 448 0024 FFF7FEFF 		bl	CyDelayUs
 449              	.L36:
 277:Generated_Source\PSoC5/CyFlash.c ****             {
 450              		.loc 1 277 0
 451 0028 104B     		ldr	r3, .L40
 452 002a 1B78     		ldrb	r3, [r3]
 453 002c DBB2     		uxtb	r3, r3
 454 002e 03F00203 		and	r3, r3, #2
 455 0032 002B     		cmp	r3, #0
 456 0034 F5D0     		beq	.L37
 281:Generated_Source\PSoC5/CyFlash.c ****             }
 282:Generated_Source\PSoC5/CyFlash.c **** 
ARM GAS  C:\Users\HPz420\AppData\Local\Temp\ccTXWFfp.s 			page 14


 283:Generated_Source\PSoC5/CyFlash.c ****             if(CY_SPC_STATUS_SUCCESS == CY_SPC_READ_STATUS)
 457              		.loc 1 283 0
 458 0036 0D4B     		ldr	r3, .L40
 459 0038 1B78     		ldrb	r3, [r3]
 460 003a DBB2     		uxtb	r3, r3
 461 003c 03F00203 		and	r3, r3, #2
 462 0040 002B     		cmp	r3, #0
 463 0042 08D0     		beq	.L35
 464              		.loc 1 283 0 is_stmt 0 discriminator 1
 465 0044 094B     		ldr	r3, .L40
 466 0046 1B78     		ldrb	r3, [r3]
 467 0048 DBB2     		uxtb	r3, r3
 468 004a 9B08     		lsrs	r3, r3, #2
 469 004c DBB2     		uxtb	r3, r3
 470 004e 002B     		cmp	r3, #0
 471 0050 01D1     		bne	.L35
 284:Generated_Source\PSoC5/CyFlash.c ****             {
 285:Generated_Source\PSoC5/CyFlash.c ****                 status = CYRET_SUCCESS;
 472              		.loc 1 285 0 is_stmt 1
 473 0052 0023     		movs	r3, #0
 474 0054 7B60     		str	r3, [r7, #4]
 475              	.L35:
 286:Generated_Source\PSoC5/CyFlash.c ****             }
 287:Generated_Source\PSoC5/CyFlash.c ****         }
 288:Generated_Source\PSoC5/CyFlash.c ****         CySpcUnlock();
 476              		.loc 1 288 0
 477 0056 FFF7FEFF 		bl	CySpcUnlock
 478 005a 01E0     		b	.L38
 479              	.L34:
 289:Generated_Source\PSoC5/CyFlash.c ****     }
 290:Generated_Source\PSoC5/CyFlash.c ****     else
 291:Generated_Source\PSoC5/CyFlash.c ****     {
 292:Generated_Source\PSoC5/CyFlash.c ****         status = CYRET_LOCKED;
 480              		.loc 1 292 0
 481 005c 0423     		movs	r3, #4
 482 005e 7B60     		str	r3, [r7, #4]
 483              	.L38:
 293:Generated_Source\PSoC5/CyFlash.c ****     }
 294:Generated_Source\PSoC5/CyFlash.c **** 
 295:Generated_Source\PSoC5/CyFlash.c ****     return (status);
 484              		.loc 1 295 0
 485 0060 7B68     		ldr	r3, [r7, #4]
 296:Generated_Source\PSoC5/CyFlash.c **** }
 486              		.loc 1 296 0
 487 0062 1846     		mov	r0, r3
 488 0064 0837     		adds	r7, r7, #8
 489              		.cfi_def_cfa_offset 8
 490 0066 BD46     		mov	sp, r7
 491              		.cfi_def_cfa_register 13
 492              		@ sp needed
 493 0068 80BD     		pop	{r7, pc}
 494              	.L41:
 495 006a 00BF     		.align	2
 496              	.L40:
 497 006c 22470040 		.word	1073760034
 498              		.cfi_endproc
 499              	.LFE4:
ARM GAS  C:\Users\HPz420\AppData\Local\Temp\ccTXWFfp.s 			page 15


 500              		.size	CyFlashGetSpcAlgorithm, .-CyFlashGetSpcAlgorithm
 501              		.section	.text.CySetTemp,"ax",%progbits
 502              		.align	2
 503              		.global	CySetTemp
 504              		.thumb
 505              		.thumb_func
 506              		.type	CySetTemp, %function
 507              	CySetTemp:
 508              	.LFB5:
 297:Generated_Source\PSoC5/CyFlash.c **** 
 298:Generated_Source\PSoC5/CyFlash.c **** 
 299:Generated_Source\PSoC5/CyFlash.c **** /*******************************************************************************
 300:Generated_Source\PSoC5/CyFlash.c **** * Function Name: CySetTemp
 301:Generated_Source\PSoC5/CyFlash.c **** ****************************************************************************//**
 302:Generated_Source\PSoC5/CyFlash.c **** *
 303:Generated_Source\PSoC5/CyFlash.c **** *  This is a wraparound for CySetTempInt(). It is used to return the second
 304:Generated_Source\PSoC5/CyFlash.c **** *  successful read of the temperature value.
 305:Generated_Source\PSoC5/CyFlash.c **** *
 306:Generated_Source\PSoC5/CyFlash.c **** * \return
 307:Generated_Source\PSoC5/CyFlash.c **** *  status:
 308:Generated_Source\PSoC5/CyFlash.c **** *   CYRET_SUCCESS if successful.
 309:Generated_Source\PSoC5/CyFlash.c **** *   CYRET_LOCKED  if Flash writing already in use
 310:Generated_Source\PSoC5/CyFlash.c **** *   CYRET_UNKNOWN if there was an SPC error.
 311:Generated_Source\PSoC5/CyFlash.c **** *
 312:Generated_Source\PSoC5/CyFlash.c **** *  uint8 dieTemperature[2]:
 313:Generated_Source\PSoC5/CyFlash.c **** *   Holds the die temperature for the flash writing algorithm. The first byte is
 314:Generated_Source\PSoC5/CyFlash.c **** *   the sign of the temperature (0 = negative, 1 = positive). The second byte is
 315:Generated_Source\PSoC5/CyFlash.c **** *   the magnitude.
 316:Generated_Source\PSoC5/CyFlash.c **** *
 317:Generated_Source\PSoC5/CyFlash.c **** *******************************************************************************/
 318:Generated_Source\PSoC5/CyFlash.c **** cystatus CySetTemp(void) 
 319:Generated_Source\PSoC5/CyFlash.c **** {
 509              		.loc 1 319 0
 510              		.cfi_startproc
 511              		@ args = 0, pretend = 0, frame = 8
 512              		@ frame_needed = 1, uses_anonymous_args = 0
 513 0000 80B5     		push	{r7, lr}
 514              		.cfi_def_cfa_offset 8
 515              		.cfi_offset 7, -8
 516              		.cfi_offset 14, -4
 517 0002 82B0     		sub	sp, sp, #8
 518              		.cfi_def_cfa_offset 16
 519 0004 00AF     		add	r7, sp, #0
 520              		.cfi_def_cfa_register 7
 320:Generated_Source\PSoC5/CyFlash.c ****     cystatus status = CyFlashGetSpcAlgorithm();
 521              		.loc 1 320 0
 522 0006 FFF7FEFF 		bl	CyFlashGetSpcAlgorithm
 523 000a 7860     		str	r0, [r7, #4]
 321:Generated_Source\PSoC5/CyFlash.c **** 
 322:Generated_Source\PSoC5/CyFlash.c ****     if(status == CYRET_SUCCESS)
 524              		.loc 1 322 0
 525 000c 7B68     		ldr	r3, [r7, #4]
 526 000e 002B     		cmp	r3, #0
 527 0010 02D1     		bne	.L43
 323:Generated_Source\PSoC5/CyFlash.c ****     {
 324:Generated_Source\PSoC5/CyFlash.c ****         status = CySetTempInt();
 528              		.loc 1 324 0
ARM GAS  C:\Users\HPz420\AppData\Local\Temp\ccTXWFfp.s 			page 16


 529 0012 FFF7FEFF 		bl	CySetTempInt
 530 0016 7860     		str	r0, [r7, #4]
 531              	.L43:
 325:Generated_Source\PSoC5/CyFlash.c ****     }
 326:Generated_Source\PSoC5/CyFlash.c **** 
 327:Generated_Source\PSoC5/CyFlash.c ****     return (status);
 532              		.loc 1 327 0
 533 0018 7B68     		ldr	r3, [r7, #4]
 328:Generated_Source\PSoC5/CyFlash.c **** }
 534              		.loc 1 328 0
 535 001a 1846     		mov	r0, r3
 536 001c 0837     		adds	r7, r7, #8
 537              		.cfi_def_cfa_offset 8
 538 001e BD46     		mov	sp, r7
 539              		.cfi_def_cfa_register 13
 540              		@ sp needed
 541 0020 80BD     		pop	{r7, pc}
 542              		.cfi_endproc
 543              	.LFE5:
 544              		.size	CySetTemp, .-CySetTemp
 545 0022 00BF     		.section	.text.CySetFlashEEBuffer,"ax",%progbits
 546              		.align	2
 547              		.global	CySetFlashEEBuffer
 548              		.thumb
 549              		.thumb_func
 550              		.type	CySetFlashEEBuffer, %function
 551              	CySetFlashEEBuffer:
 552              	.LFB6:
 329:Generated_Source\PSoC5/CyFlash.c **** 
 330:Generated_Source\PSoC5/CyFlash.c **** 
 331:Generated_Source\PSoC5/CyFlash.c **** /*******************************************************************************
 332:Generated_Source\PSoC5/CyFlash.c **** * Function Name: CySetFlashEEBuffer
 333:Generated_Source\PSoC5/CyFlash.c **** ****************************************************************************//**
 334:Generated_Source\PSoC5/CyFlash.c **** *
 335:Generated_Source\PSoC5/CyFlash.c **** *  Sets the user supplied temporary buffer to store SPC data while performing
 336:Generated_Source\PSoC5/CyFlash.c **** *  Flash and EEPROM commands. This buffer is only necessary when the Flash ECC
 337:Generated_Source\PSoC5/CyFlash.c **** *  is disabled.
 338:Generated_Source\PSoC5/CyFlash.c **** *
 339:Generated_Source\PSoC5/CyFlash.c **** *  \param buffer:
 340:Generated_Source\PSoC5/CyFlash.c **** *   The address of a block of memory to store temporary memory. The size of the
 341:Generated_Source\PSoC5/CyFlash.c **** *   block of memory is CYDEV_FLS_ROW_SIZE + CYDEV_ECC_ROW_SIZE.
 342:Generated_Source\PSoC5/CyFlash.c **** *
 343:Generated_Source\PSoC5/CyFlash.c **** * \return
 344:Generated_Source\PSoC5/CyFlash.c **** *  status:
 345:Generated_Source\PSoC5/CyFlash.c **** *   CYRET_SUCCESS if successful.
 346:Generated_Source\PSoC5/CyFlash.c **** *   CYRET_BAD_PARAM if the buffer is NULL
 347:Generated_Source\PSoC5/CyFlash.c **** *
 348:Generated_Source\PSoC5/CyFlash.c **** *******************************************************************************/
 349:Generated_Source\PSoC5/CyFlash.c **** cystatus CySetFlashEEBuffer(uint8 * buffer) 
 350:Generated_Source\PSoC5/CyFlash.c **** {
 553              		.loc 1 350 0
 554              		.cfi_startproc
 555              		@ args = 0, pretend = 0, frame = 16
 556              		@ frame_needed = 1, uses_anonymous_args = 0
 557 0000 80B5     		push	{r7, lr}
 558              		.cfi_def_cfa_offset 8
 559              		.cfi_offset 7, -8
ARM GAS  C:\Users\HPz420\AppData\Local\Temp\ccTXWFfp.s 			page 17


 560              		.cfi_offset 14, -4
 561 0002 84B0     		sub	sp, sp, #16
 562              		.cfi_def_cfa_offset 24
 563 0004 00AF     		add	r7, sp, #0
 564              		.cfi_def_cfa_register 7
 565 0006 7860     		str	r0, [r7, #4]
 351:Generated_Source\PSoC5/CyFlash.c ****     cystatus status = CYRET_SUCCESS;
 566              		.loc 1 351 0
 567 0008 0023     		movs	r3, #0
 568 000a FB60     		str	r3, [r7, #12]
 352:Generated_Source\PSoC5/CyFlash.c **** 
 353:Generated_Source\PSoC5/CyFlash.c ****     CySpcStart();
 569              		.loc 1 353 0
 570 000c FFF7FEFF 		bl	CySpcStart
 354:Generated_Source\PSoC5/CyFlash.c **** 
 355:Generated_Source\PSoC5/CyFlash.c ****     #if(CYDEV_ECC_ENABLE == 0)
 356:Generated_Source\PSoC5/CyFlash.c **** 
 357:Generated_Source\PSoC5/CyFlash.c ****         if(NULL == buffer)
 571              		.loc 1 357 0
 572 0010 7B68     		ldr	r3, [r7, #4]
 573 0012 002B     		cmp	r3, #0
 574 0014 06D1     		bne	.L46
 358:Generated_Source\PSoC5/CyFlash.c ****         {
 359:Generated_Source\PSoC5/CyFlash.c ****             rowBuffer = rowBuffer;
 575              		.loc 1 359 0
 576 0016 0E4B     		ldr	r3, .L50
 577 0018 1B68     		ldr	r3, [r3]
 578 001a 0D4A     		ldr	r2, .L50
 579 001c 1360     		str	r3, [r2]
 360:Generated_Source\PSoC5/CyFlash.c ****             status = CYRET_BAD_PARAM;
 580              		.loc 1 360 0
 581 001e 0123     		movs	r3, #1
 582 0020 FB60     		str	r3, [r7, #12]
 583 0022 10E0     		b	.L47
 584              	.L46:
 361:Generated_Source\PSoC5/CyFlash.c ****         }
 362:Generated_Source\PSoC5/CyFlash.c ****         else if(CySpcLock() != CYRET_SUCCESS)
 585              		.loc 1 362 0
 586 0024 FFF7FEFF 		bl	CySpcLock
 587 0028 0346     		mov	r3, r0
 588 002a 002B     		cmp	r3, #0
 589 002c 06D0     		beq	.L48
 363:Generated_Source\PSoC5/CyFlash.c ****         {
 364:Generated_Source\PSoC5/CyFlash.c ****             rowBuffer = rowBuffer;
 590              		.loc 1 364 0
 591 002e 084B     		ldr	r3, .L50
 592 0030 1B68     		ldr	r3, [r3]
 593 0032 074A     		ldr	r2, .L50
 594 0034 1360     		str	r3, [r2]
 365:Generated_Source\PSoC5/CyFlash.c ****             status = CYRET_LOCKED;
 595              		.loc 1 365 0
 596 0036 0423     		movs	r3, #4
 597 0038 FB60     		str	r3, [r7, #12]
 598 003a 04E0     		b	.L47
 599              	.L48:
 366:Generated_Source\PSoC5/CyFlash.c ****         }
 367:Generated_Source\PSoC5/CyFlash.c ****         else
ARM GAS  C:\Users\HPz420\AppData\Local\Temp\ccTXWFfp.s 			page 18


 368:Generated_Source\PSoC5/CyFlash.c ****         {
 369:Generated_Source\PSoC5/CyFlash.c ****             rowBuffer = buffer;
 600              		.loc 1 369 0
 601 003c 044A     		ldr	r2, .L50
 602 003e 7B68     		ldr	r3, [r7, #4]
 603 0040 1360     		str	r3, [r2]
 370:Generated_Source\PSoC5/CyFlash.c ****             CySpcUnlock();
 604              		.loc 1 370 0
 605 0042 FFF7FEFF 		bl	CySpcUnlock
 606              	.L47:
 371:Generated_Source\PSoC5/CyFlash.c ****         }
 372:Generated_Source\PSoC5/CyFlash.c **** 
 373:Generated_Source\PSoC5/CyFlash.c ****     #else
 374:Generated_Source\PSoC5/CyFlash.c **** 
 375:Generated_Source\PSoC5/CyFlash.c ****         /* To suppress warning */
 376:Generated_Source\PSoC5/CyFlash.c ****         buffer = buffer;
 377:Generated_Source\PSoC5/CyFlash.c **** 
 378:Generated_Source\PSoC5/CyFlash.c ****     #endif  /* (CYDEV_ECC_ENABLE == 0u) */
 379:Generated_Source\PSoC5/CyFlash.c **** 
 380:Generated_Source\PSoC5/CyFlash.c ****     return(status);
 607              		.loc 1 380 0
 608 0046 FB68     		ldr	r3, [r7, #12]
 381:Generated_Source\PSoC5/CyFlash.c **** }
 609              		.loc 1 381 0
 610 0048 1846     		mov	r0, r3
 611 004a 1037     		adds	r7, r7, #16
 612              		.cfi_def_cfa_offset 8
 613 004c BD46     		mov	sp, r7
 614              		.cfi_def_cfa_register 13
 615              		@ sp needed
 616 004e 80BD     		pop	{r7, pc}
 617              	.L51:
 618              		.align	2
 619              	.L50:
 620 0050 00000000 		.word	rowBuffer
 621              		.cfi_endproc
 622              	.LFE6:
 623              		.size	CySetFlashEEBuffer, .-CySetFlashEEBuffer
 624              		.section	.text.CyWriteRowData,"ax",%progbits
 625              		.align	2
 626              		.global	CyWriteRowData
 627              		.thumb
 628              		.thumb_func
 629              		.type	CyWriteRowData, %function
 630              	CyWriteRowData:
 631              	.LFB7:
 382:Generated_Source\PSoC5/CyFlash.c **** 
 383:Generated_Source\PSoC5/CyFlash.c **** 
 384:Generated_Source\PSoC5/CyFlash.c **** /*******************************************************************************
 385:Generated_Source\PSoC5/CyFlash.c **** * Function Name: CyWriteRowData
 386:Generated_Source\PSoC5/CyFlash.c **** ****************************************************************************//**
 387:Generated_Source\PSoC5/CyFlash.c **** *
 388:Generated_Source\PSoC5/CyFlash.c **** *  Sends a command to the SPC to load and program a row of data in
 389:Generated_Source\PSoC5/CyFlash.c **** *  Flash or EEPROM.
 390:Generated_Source\PSoC5/CyFlash.c **** *
 391:Generated_Source\PSoC5/CyFlash.c **** *  \param arrayID:    ID of the array to write.
 392:Generated_Source\PSoC5/CyFlash.c **** *   The type of write, Flash or EEPROM, is determined from the array ID.
ARM GAS  C:\Users\HPz420\AppData\Local\Temp\ccTXWFfp.s 			page 19


 393:Generated_Source\PSoC5/CyFlash.c **** *   The arrays in the part are sequential starting at the first ID for the
 394:Generated_Source\PSoC5/CyFlash.c **** *   specific memory type. The array ID for the Flash memory lasts from 0x00 to
 395:Generated_Source\PSoC5/CyFlash.c **** *   0x3F and for the EEPROM memory it lasts from 0x40 to 0x7F.
 396:Generated_Source\PSoC5/CyFlash.c **** *  \param rowAddress: rowAddress of flash row to program.
 397:Generated_Source\PSoC5/CyFlash.c **** *  \param rowData:    Array of bytes to write.
 398:Generated_Source\PSoC5/CyFlash.c **** *
 399:Generated_Source\PSoC5/CyFlash.c **** * \return
 400:Generated_Source\PSoC5/CyFlash.c **** *  status:
 401:Generated_Source\PSoC5/CyFlash.c **** *   CYRET_SUCCESS if successful.
 402:Generated_Source\PSoC5/CyFlash.c **** *   CYRET_LOCKED if the SPC is already in use.
 403:Generated_Source\PSoC5/CyFlash.c **** *   CYRET_CANCELED if command not accepted
 404:Generated_Source\PSoC5/CyFlash.c **** *   CYRET_UNKNOWN if there was an SPC error.
 405:Generated_Source\PSoC5/CyFlash.c **** *
 406:Generated_Source\PSoC5/CyFlash.c **** *******************************************************************************/
 407:Generated_Source\PSoC5/CyFlash.c **** cystatus CyWriteRowData(uint8 arrayId, uint16 rowAddress, const uint8 * rowData) 
 408:Generated_Source\PSoC5/CyFlash.c **** {
 632              		.loc 1 408 0
 633              		.cfi_startproc
 634              		@ args = 0, pretend = 0, frame = 16
 635              		@ frame_needed = 1, uses_anonymous_args = 0
 636 0000 80B5     		push	{r7, lr}
 637              		.cfi_def_cfa_offset 8
 638              		.cfi_offset 7, -8
 639              		.cfi_offset 14, -4
 640 0002 84B0     		sub	sp, sp, #16
 641              		.cfi_def_cfa_offset 24
 642 0004 00AF     		add	r7, sp, #0
 643              		.cfi_def_cfa_register 7
 644 0006 0346     		mov	r3, r0
 645 0008 3A60     		str	r2, [r7]
 646 000a FB71     		strb	r3, [r7, #7]
 647 000c 0B46     		mov	r3, r1	@ movhi
 648 000e BB80     		strh	r3, [r7, #4]	@ movhi
 409:Generated_Source\PSoC5/CyFlash.c ****     uint16 rowSize;
 410:Generated_Source\PSoC5/CyFlash.c ****     cystatus status;
 411:Generated_Source\PSoC5/CyFlash.c **** 
 412:Generated_Source\PSoC5/CyFlash.c ****     rowSize = (arrayId > CY_SPC_LAST_FLASH_ARRAYID) ? CYDEV_EEPROM_ROW_SIZE : CYDEV_FLS_ROW_SIZE;
 649              		.loc 1 412 0
 650 0010 FB79     		ldrb	r3, [r7, #7]	@ zero_extendqisi2
 651 0012 3F2B     		cmp	r3, #63
 652 0014 01D9     		bls	.L53
 653              		.loc 1 412 0 is_stmt 0 discriminator 1
 654 0016 1023     		movs	r3, #16
 655 0018 01E0     		b	.L54
 656              	.L53:
 657              		.loc 1 412 0 discriminator 2
 658 001a 4FF48073 		mov	r3, #256
 659              	.L54:
 660              		.loc 1 412 0 discriminator 4
 661 001e FB81     		strh	r3, [r7, #14]	@ movhi
 413:Generated_Source\PSoC5/CyFlash.c ****     status = CyWriteRowFull(arrayId, rowAddress, rowData, rowSize);
 662              		.loc 1 413 0 is_stmt 1 discriminator 4
 663 0020 FB89     		ldrh	r3, [r7, #14]
 664 0022 B988     		ldrh	r1, [r7, #4]
 665 0024 F879     		ldrb	r0, [r7, #7]	@ zero_extendqisi2
 666 0026 3A68     		ldr	r2, [r7]
 667 0028 FFF7FEFF 		bl	CyWriteRowFull
ARM GAS  C:\Users\HPz420\AppData\Local\Temp\ccTXWFfp.s 			page 20


 668 002c B860     		str	r0, [r7, #8]
 414:Generated_Source\PSoC5/CyFlash.c **** 
 415:Generated_Source\PSoC5/CyFlash.c ****     return(status);
 669              		.loc 1 415 0 discriminator 4
 670 002e BB68     		ldr	r3, [r7, #8]
 416:Generated_Source\PSoC5/CyFlash.c **** }
 671              		.loc 1 416 0 discriminator 4
 672 0030 1846     		mov	r0, r3
 673 0032 1037     		adds	r7, r7, #16
 674              		.cfi_def_cfa_offset 8
 675 0034 BD46     		mov	sp, r7
 676              		.cfi_def_cfa_register 13
 677              		@ sp needed
 678 0036 80BD     		pop	{r7, pc}
 679              		.cfi_endproc
 680              	.LFE7:
 681              		.size	CyWriteRowData, .-CyWriteRowData
 682              		.section	.text.CyWriteRowConfig,"ax",%progbits
 683              		.align	2
 684              		.global	CyWriteRowConfig
 685              		.thumb
 686              		.thumb_func
 687              		.type	CyWriteRowConfig, %function
 688              	CyWriteRowConfig:
 689              	.LFB8:
 417:Generated_Source\PSoC5/CyFlash.c **** 
 418:Generated_Source\PSoC5/CyFlash.c **** 
 419:Generated_Source\PSoC5/CyFlash.c **** /*******************************************************************
 420:Generated_Source\PSoC5/CyFlash.c **** * If "Enable Error Correcting Code (ECC)" and "Store Configuration
 421:Generated_Source\PSoC5/CyFlash.c **** * Data in ECC" DWR options are disabled, ECC section is available
 422:Generated_Source\PSoC5/CyFlash.c **** * for user data.
 423:Generated_Source\PSoC5/CyFlash.c **** *******************************************************************/
 424:Generated_Source\PSoC5/CyFlash.c **** #if ((CYDEV_ECC_ENABLE == 0u) && (CYDEV_CONFIGURATION_ECC == 0u))
 425:Generated_Source\PSoC5/CyFlash.c **** 
 426:Generated_Source\PSoC5/CyFlash.c ****     /*******************************************************************************
 427:Generated_Source\PSoC5/CyFlash.c ****     * Function Name: CyWriteRowConfig
 428:Generated_Source\PSoC5/CyFlash.c ****     ****************************************************************************//**
 429:Generated_Source\PSoC5/CyFlash.c ****     *
 430:Generated_Source\PSoC5/CyFlash.c ****     *  Sends a command to the SPC to load and program a row of config data in the
 431:Generated_Source\PSoC5/CyFlash.c ****     *  Flash. This function is only valid for Flash array IDs (not for EEPROM).
 432:Generated_Source\PSoC5/CyFlash.c ****     *
 433:Generated_Source\PSoC5/CyFlash.c ****     *  \param arrayId:      ID of the array to write
 434:Generated_Source\PSoC5/CyFlash.c ****     *   The arrays in the part are sequential starting at the first ID for the
 435:Generated_Source\PSoC5/CyFlash.c ****     *   specific memory type. The array ID for the Flash memory lasts
 436:Generated_Source\PSoC5/CyFlash.c ****     *   from 0x00 to 0x3F.
 437:Generated_Source\PSoC5/CyFlash.c ****     *  \param rowAddress:   The address of the sector to erase.
 438:Generated_Source\PSoC5/CyFlash.c ****     *  \param rowECC:       The array of bytes to write.
 439:Generated_Source\PSoC5/CyFlash.c ****     *
 440:Generated_Source\PSoC5/CyFlash.c ****     * \return
 441:Generated_Source\PSoC5/CyFlash.c ****     *  status:
 442:Generated_Source\PSoC5/CyFlash.c ****     *   CYRET_SUCCESS if successful.
 443:Generated_Source\PSoC5/CyFlash.c ****     *   CYRET_LOCKED if the SPC is already in use.
 444:Generated_Source\PSoC5/CyFlash.c ****     *   CYRET_CANCELED if command not accepted
 445:Generated_Source\PSoC5/CyFlash.c ****     *   CYRET_UNKNOWN if there was an SPC error.
 446:Generated_Source\PSoC5/CyFlash.c ****     *
 447:Generated_Source\PSoC5/CyFlash.c ****     *******************************************************************************/
 448:Generated_Source\PSoC5/CyFlash.c ****     cystatus CyWriteRowConfig(uint8 arrayId, uint16 rowAddress, const uint8 * rowECC)\
ARM GAS  C:\Users\HPz420\AppData\Local\Temp\ccTXWFfp.s 			page 21


 449:Generated_Source\PSoC5/CyFlash.c ****     
 450:Generated_Source\PSoC5/CyFlash.c ****     {
 690              		.loc 1 450 0
 691              		.cfi_startproc
 692              		@ args = 0, pretend = 0, frame = 16
 693              		@ frame_needed = 1, uses_anonymous_args = 0
 694 0000 80B5     		push	{r7, lr}
 695              		.cfi_def_cfa_offset 8
 696              		.cfi_offset 7, -8
 697              		.cfi_offset 14, -4
 698 0002 84B0     		sub	sp, sp, #16
 699              		.cfi_def_cfa_offset 24
 700 0004 00AF     		add	r7, sp, #0
 701              		.cfi_def_cfa_register 7
 702 0006 0346     		mov	r3, r0
 703 0008 3A60     		str	r2, [r7]
 704 000a FB71     		strb	r3, [r7, #7]
 705 000c 0B46     		mov	r3, r1	@ movhi
 706 000e BB80     		strh	r3, [r7, #4]	@ movhi
 451:Generated_Source\PSoC5/CyFlash.c ****         cystatus status;
 452:Generated_Source\PSoC5/CyFlash.c **** 
 453:Generated_Source\PSoC5/CyFlash.c ****         status = CyWriteRowFull(arrayId, rowAddress, rowECC, CYDEV_ECC_ROW_SIZE);
 707              		.loc 1 453 0
 708 0010 B988     		ldrh	r1, [r7, #4]
 709 0012 F879     		ldrb	r0, [r7, #7]	@ zero_extendqisi2
 710 0014 2023     		movs	r3, #32
 711 0016 3A68     		ldr	r2, [r7]
 712 0018 FFF7FEFF 		bl	CyWriteRowFull
 713 001c F860     		str	r0, [r7, #12]
 454:Generated_Source\PSoC5/CyFlash.c **** 
 455:Generated_Source\PSoC5/CyFlash.c ****         return (status);
 714              		.loc 1 455 0
 715 001e FB68     		ldr	r3, [r7, #12]
 456:Generated_Source\PSoC5/CyFlash.c ****     }
 716              		.loc 1 456 0
 717 0020 1846     		mov	r0, r3
 718 0022 1037     		adds	r7, r7, #16
 719              		.cfi_def_cfa_offset 8
 720 0024 BD46     		mov	sp, r7
 721              		.cfi_def_cfa_register 13
 722              		@ sp needed
 723 0026 80BD     		pop	{r7, pc}
 724              		.cfi_endproc
 725              	.LFE8:
 726              		.size	CyWriteRowConfig, .-CyWriteRowConfig
 727              		.section	.text.CyWriteRowFull,"ax",%progbits
 728              		.align	2
 729              		.global	CyWriteRowFull
 730              		.thumb
 731              		.thumb_func
 732              		.type	CyWriteRowFull, %function
 733              	CyWriteRowFull:
 734              	.LFB9:
 457:Generated_Source\PSoC5/CyFlash.c **** 
 458:Generated_Source\PSoC5/CyFlash.c **** #endif  /* ((CYDEV_ECC_ENABLE == 0u) && (CYDEV_CONFIGURATION_ECC == 0u)) */
 459:Generated_Source\PSoC5/CyFlash.c **** 
 460:Generated_Source\PSoC5/CyFlash.c **** 
ARM GAS  C:\Users\HPz420\AppData\Local\Temp\ccTXWFfp.s 			page 22


 461:Generated_Source\PSoC5/CyFlash.c **** 
 462:Generated_Source\PSoC5/CyFlash.c **** /*******************************************************************************
 463:Generated_Source\PSoC5/CyFlash.c **** * Function Name: CyWriteRowFull
 464:Generated_Source\PSoC5/CyFlash.c **** ****************************************************************************//**
 465:Generated_Source\PSoC5/CyFlash.c **** *  Sends a command to the SPC to load and program a row of data in the Flash.
 466:Generated_Source\PSoC5/CyFlash.c **** *  rowData array is expected to contain Flash and ECC data if needed.
 467:Generated_Source\PSoC5/CyFlash.c **** *
 468:Generated_Source\PSoC5/CyFlash.c **** *  \param arrayId:    FLASH or EEPROM array id.
 469:Generated_Source\PSoC5/CyFlash.c **** *  \param rowData:    Pointer to a row of data to write.
 470:Generated_Source\PSoC5/CyFlash.c **** *  \param rowNumber:  Zero based number of the row.
 471:Generated_Source\PSoC5/CyFlash.c **** *  \param rowSize:    Size of the row.
 472:Generated_Source\PSoC5/CyFlash.c **** *
 473:Generated_Source\PSoC5/CyFlash.c **** * \return
 474:Generated_Source\PSoC5/CyFlash.c **** *  CYRET_SUCCESS if successful.
 475:Generated_Source\PSoC5/CyFlash.c **** *  CYRET_LOCKED if the SPC is already in use.
 476:Generated_Source\PSoC5/CyFlash.c **** *  CYRET_CANCELED if command not accepted
 477:Generated_Source\PSoC5/CyFlash.c **** *  CYRET_UNKNOWN if there was an SPC error.
 478:Generated_Source\PSoC5/CyFlash.c **** *
 479:Generated_Source\PSoC5/CyFlash.c **** *******************************************************************************/
 480:Generated_Source\PSoC5/CyFlash.c **** cystatus CyWriteRowFull(uint8 arrayId, uint16 rowNumber, const uint8* rowData, uint16 rowSize) \
 481:Generated_Source\PSoC5/CyFlash.c ****         
 482:Generated_Source\PSoC5/CyFlash.c **** {
 735              		.loc 1 482 0
 736              		.cfi_startproc
 737              		@ args = 0, pretend = 0, frame = 24
 738              		@ frame_needed = 1, uses_anonymous_args = 0
 739 0000 80B5     		push	{r7, lr}
 740              		.cfi_def_cfa_offset 8
 741              		.cfi_offset 7, -8
 742              		.cfi_offset 14, -4
 743 0002 86B0     		sub	sp, sp, #24
 744              		.cfi_def_cfa_offset 32
 745 0004 00AF     		add	r7, sp, #0
 746              		.cfi_def_cfa_register 7
 747 0006 BA60     		str	r2, [r7, #8]
 748 0008 1A46     		mov	r2, r3
 749 000a 0346     		mov	r3, r0
 750 000c FB73     		strb	r3, [r7, #15]
 751 000e 0B46     		mov	r3, r1	@ movhi
 752 0010 BB81     		strh	r3, [r7, #12]	@ movhi
 753 0012 1346     		mov	r3, r2	@ movhi
 754 0014 FB80     		strh	r3, [r7, #6]	@ movhi
 483:Generated_Source\PSoC5/CyFlash.c ****     cystatus status = CYRET_SUCCESS;
 755              		.loc 1 483 0
 756 0016 0023     		movs	r3, #0
 757 0018 7B61     		str	r3, [r7, #20]
 484:Generated_Source\PSoC5/CyFlash.c **** 
 485:Generated_Source\PSoC5/CyFlash.c ****     if((arrayId <=  CY_SPC_LAST_FLASH_ARRAYID) && (arrayId > (CY_FLASH_NUMBER_ARRAYS  + CY_SPC_FIRS
 758              		.loc 1 485 0
 759 001a FB7B     		ldrb	r3, [r7, #15]	@ zero_extendqisi2
 760 001c 3F2B     		cmp	r3, #63
 761 001e 04D8     		bhi	.L59
 762              		.loc 1 485 0 is_stmt 0 discriminator 1
 763 0020 FB7B     		ldrb	r3, [r7, #15]	@ zero_extendqisi2
 764 0022 022B     		cmp	r3, #2
 765 0024 01D9     		bls	.L59
 486:Generated_Source\PSoC5/CyFlash.c ****     {
ARM GAS  C:\Users\HPz420\AppData\Local\Temp\ccTXWFfp.s 			page 23


 487:Generated_Source\PSoC5/CyFlash.c ****         status = CYRET_BAD_PARAM;
 766              		.loc 1 487 0 is_stmt 1
 767 0026 0123     		movs	r3, #1
 768 0028 7B61     		str	r3, [r7, #20]
 769              	.L59:
 488:Generated_Source\PSoC5/CyFlash.c ****     }
 489:Generated_Source\PSoC5/CyFlash.c **** 
 490:Generated_Source\PSoC5/CyFlash.c ****     if(arrayId > CY_SPC_LAST_EE_ARRAYID)
 770              		.loc 1 490 0
 771 002a 97F90F30 		ldrsb	r3, [r7, #15]
 772 002e 002B     		cmp	r3, #0
 773 0030 01DA     		bge	.L60
 491:Generated_Source\PSoC5/CyFlash.c ****     {
 492:Generated_Source\PSoC5/CyFlash.c ****         status = CYRET_BAD_PARAM;
 774              		.loc 1 492 0
 775 0032 0123     		movs	r3, #1
 776 0034 7B61     		str	r3, [r7, #20]
 777              	.L60:
 493:Generated_Source\PSoC5/CyFlash.c ****     }
 494:Generated_Source\PSoC5/CyFlash.c **** 
 495:Generated_Source\PSoC5/CyFlash.c ****     if((arrayId >= CY_SPC_FIRST_EE_ARRAYID) && (arrayId > (CY_FLASH_EEPROM_NUMBER_ARRAYS + CY_SPC_F
 778              		.loc 1 495 0
 779 0036 FB7B     		ldrb	r3, [r7, #15]	@ zero_extendqisi2
 780 0038 3F2B     		cmp	r3, #63
 781 003a 04D9     		bls	.L61
 782              		.loc 1 495 0 is_stmt 0 discriminator 1
 783 003c FB7B     		ldrb	r3, [r7, #15]	@ zero_extendqisi2
 784 003e 412B     		cmp	r3, #65
 785 0040 01D9     		bls	.L61
 496:Generated_Source\PSoC5/CyFlash.c ****     {
 497:Generated_Source\PSoC5/CyFlash.c ****         status = CYRET_BAD_PARAM;
 786              		.loc 1 497 0 is_stmt 1
 787 0042 0123     		movs	r3, #1
 788 0044 7B61     		str	r3, [r7, #20]
 789              	.L61:
 498:Generated_Source\PSoC5/CyFlash.c ****     }
 499:Generated_Source\PSoC5/CyFlash.c **** 
 500:Generated_Source\PSoC5/CyFlash.c ****     if(arrayId <=  CY_SPC_LAST_FLASH_ARRAYID)
 790              		.loc 1 500 0
 791 0046 FB7B     		ldrb	r3, [r7, #15]	@ zero_extendqisi2
 792 0048 3F2B     		cmp	r3, #63
 793 004a 06D8     		bhi	.L62
 501:Generated_Source\PSoC5/CyFlash.c ****     {
 502:Generated_Source\PSoC5/CyFlash.c ****         /* Flash */
 503:Generated_Source\PSoC5/CyFlash.c ****         if(rowNumber > (CY_FLASH_NUMBER_ROWS/CY_FLASH_NUMBER_ARRAYS))
 794              		.loc 1 503 0
 795 004c BB89     		ldrh	r3, [r7, #12]
 796 004e B3F5807F 		cmp	r3, #256
 797 0052 0CD9     		bls	.L64
 504:Generated_Source\PSoC5/CyFlash.c ****         {
 505:Generated_Source\PSoC5/CyFlash.c ****             status = CYRET_BAD_PARAM;
 798              		.loc 1 505 0
 799 0054 0123     		movs	r3, #1
 800 0056 7B61     		str	r3, [r7, #20]
 801 0058 09E0     		b	.L64
 802              	.L62:
 506:Generated_Source\PSoC5/CyFlash.c ****         }
ARM GAS  C:\Users\HPz420\AppData\Local\Temp\ccTXWFfp.s 			page 24


 507:Generated_Source\PSoC5/CyFlash.c ****     }
 508:Generated_Source\PSoC5/CyFlash.c ****     else
 509:Generated_Source\PSoC5/CyFlash.c ****     {
 510:Generated_Source\PSoC5/CyFlash.c ****         /* EEPROM */
 511:Generated_Source\PSoC5/CyFlash.c ****         if(rowNumber > (CY_EEPROM_NUMBER_ROWS/CY_FLASH_EEPROM_NUMBER_ARRAYS))
 803              		.loc 1 511 0
 804 005a BB89     		ldrh	r3, [r7, #12]
 805 005c 802B     		cmp	r3, #128
 806 005e 01D9     		bls	.L65
 512:Generated_Source\PSoC5/CyFlash.c ****         {
 513:Generated_Source\PSoC5/CyFlash.c ****             status = CYRET_BAD_PARAM;
 807              		.loc 1 513 0
 808 0060 0123     		movs	r3, #1
 809 0062 7B61     		str	r3, [r7, #20]
 810              	.L65:
 514:Generated_Source\PSoC5/CyFlash.c ****         }
 515:Generated_Source\PSoC5/CyFlash.c **** 
 516:Generated_Source\PSoC5/CyFlash.c ****         if(CY_EEPROM_SIZEOF_ROW != rowSize)
 811              		.loc 1 516 0
 812 0064 FB88     		ldrh	r3, [r7, #6]
 813 0066 102B     		cmp	r3, #16
 814 0068 01D0     		beq	.L64
 517:Generated_Source\PSoC5/CyFlash.c ****         {
 518:Generated_Source\PSoC5/CyFlash.c ****             status = CYRET_BAD_PARAM;
 815              		.loc 1 518 0
 816 006a 0123     		movs	r3, #1
 817 006c 7B61     		str	r3, [r7, #20]
 818              	.L64:
 519:Generated_Source\PSoC5/CyFlash.c ****         }
 520:Generated_Source\PSoC5/CyFlash.c ****     }
 521:Generated_Source\PSoC5/CyFlash.c **** 
 522:Generated_Source\PSoC5/CyFlash.c ****     if(rowData == NULL)
 819              		.loc 1 522 0
 820 006e BB68     		ldr	r3, [r7, #8]
 821 0070 002B     		cmp	r3, #0
 822 0072 01D1     		bne	.L66
 523:Generated_Source\PSoC5/CyFlash.c ****     {
 524:Generated_Source\PSoC5/CyFlash.c ****         status = CYRET_BAD_PARAM;
 823              		.loc 1 524 0
 824 0074 0123     		movs	r3, #1
 825 0076 7B61     		str	r3, [r7, #20]
 826              	.L66:
 525:Generated_Source\PSoC5/CyFlash.c ****     }
 526:Generated_Source\PSoC5/CyFlash.c **** 
 527:Generated_Source\PSoC5/CyFlash.c **** 
 528:Generated_Source\PSoC5/CyFlash.c ****     if(status == CYRET_SUCCESS)
 827              		.loc 1 528 0
 828 0078 7B69     		ldr	r3, [r7, #20]
 829 007a 002B     		cmp	r3, #0
 830 007c 60D1     		bne	.L67
 529:Generated_Source\PSoC5/CyFlash.c ****     {
 530:Generated_Source\PSoC5/CyFlash.c ****         if(CySpcLock() == CYRET_SUCCESS)
 831              		.loc 1 530 0
 832 007e FFF7FEFF 		bl	CySpcLock
 833 0082 0346     		mov	r3, r0
 834 0084 002B     		cmp	r3, #0
 835 0086 59D1     		bne	.L68
ARM GAS  C:\Users\HPz420\AppData\Local\Temp\ccTXWFfp.s 			page 25


 531:Generated_Source\PSoC5/CyFlash.c ****         {
 532:Generated_Source\PSoC5/CyFlash.c ****             /* Load row data into SPC internal latch */
 533:Generated_Source\PSoC5/CyFlash.c ****             status = CySpcLoadRowFull(arrayId, rowNumber, rowData, rowSize);
 836              		.loc 1 533 0
 837 0088 FB88     		ldrh	r3, [r7, #6]
 838 008a B989     		ldrh	r1, [r7, #12]
 839 008c F87B     		ldrb	r0, [r7, #15]	@ zero_extendqisi2
 840 008e BA68     		ldr	r2, [r7, #8]
 841 0090 FFF7FEFF 		bl	CySpcLoadRowFull
 842 0094 7861     		str	r0, [r7, #20]
 534:Generated_Source\PSoC5/CyFlash.c **** 
 535:Generated_Source\PSoC5/CyFlash.c ****             if(CYRET_STARTED == status)
 843              		.loc 1 535 0
 844 0096 7B69     		ldr	r3, [r7, #20]
 845 0098 072B     		cmp	r3, #7
 846 009a 4CD1     		bne	.L69
 536:Generated_Source\PSoC5/CyFlash.c ****             {
 537:Generated_Source\PSoC5/CyFlash.c ****                 while(CY_SPC_BUSY)
 847              		.loc 1 537 0
 848 009c 02E0     		b	.L70
 849              	.L71:
 538:Generated_Source\PSoC5/CyFlash.c ****                 {
 539:Generated_Source\PSoC5/CyFlash.c ****                     /* Wait for SPC to finish and get SPC status */
 540:Generated_Source\PSoC5/CyFlash.c ****                     CyDelayUs(1u);
 850              		.loc 1 540 0
 851 009e 0120     		movs	r0, #1
 852 00a0 FFF7FEFF 		bl	CyDelayUs
 853              	.L70:
 537:Generated_Source\PSoC5/CyFlash.c ****                 {
 854              		.loc 1 537 0
 855 00a4 294B     		ldr	r3, .L78
 856 00a6 1B78     		ldrb	r3, [r3]
 857 00a8 DBB2     		uxtb	r3, r3
 858 00aa 03F00203 		and	r3, r3, #2
 859 00ae 002B     		cmp	r3, #0
 860 00b0 F5D0     		beq	.L71
 541:Generated_Source\PSoC5/CyFlash.c ****                 }
 542:Generated_Source\PSoC5/CyFlash.c **** 
 543:Generated_Source\PSoC5/CyFlash.c ****                 /* Hide SPC status */
 544:Generated_Source\PSoC5/CyFlash.c ****                 if(CY_SPC_STATUS_SUCCESS == CY_SPC_READ_STATUS)
 861              		.loc 1 544 0
 862 00b2 264B     		ldr	r3, .L78
 863 00b4 1B78     		ldrb	r3, [r3]
 864 00b6 DBB2     		uxtb	r3, r3
 865 00b8 03F00203 		and	r3, r3, #2
 866 00bc 002B     		cmp	r3, #0
 867 00be 09D0     		beq	.L72
 868              		.loc 1 544 0 is_stmt 0 discriminator 1
 869 00c0 224B     		ldr	r3, .L78
 870 00c2 1B78     		ldrb	r3, [r3]
 871 00c4 DBB2     		uxtb	r3, r3
 872 00c6 9B08     		lsrs	r3, r3, #2
 873 00c8 DBB2     		uxtb	r3, r3
 874 00ca 002B     		cmp	r3, #0
 875 00cc 02D1     		bne	.L72
 545:Generated_Source\PSoC5/CyFlash.c ****                 {
 546:Generated_Source\PSoC5/CyFlash.c ****                     status = CYRET_SUCCESS;
ARM GAS  C:\Users\HPz420\AppData\Local\Temp\ccTXWFfp.s 			page 26


 876              		.loc 1 546 0 is_stmt 1
 877 00ce 0023     		movs	r3, #0
 878 00d0 7B61     		str	r3, [r7, #20]
 879 00d2 02E0     		b	.L73
 880              	.L72:
 547:Generated_Source\PSoC5/CyFlash.c ****                 }
 548:Generated_Source\PSoC5/CyFlash.c ****                 else
 549:Generated_Source\PSoC5/CyFlash.c ****                 {
 550:Generated_Source\PSoC5/CyFlash.c ****                     status = CYRET_UNKNOWN;
 881              		.loc 1 550 0
 882 00d4 4FF0FF33 		mov	r3, #-1
 883 00d8 7B61     		str	r3, [r7, #20]
 884              	.L73:
 551:Generated_Source\PSoC5/CyFlash.c ****                 }
 552:Generated_Source\PSoC5/CyFlash.c **** 
 553:Generated_Source\PSoC5/CyFlash.c ****                 if(CYRET_SUCCESS == status)
 885              		.loc 1 553 0
 886 00da 7B69     		ldr	r3, [r7, #20]
 887 00dc 002B     		cmp	r3, #0
 888 00de 2AD1     		bne	.L69
 554:Generated_Source\PSoC5/CyFlash.c ****                 {
 555:Generated_Source\PSoC5/CyFlash.c ****                     /* Erase and program flash with data from SPC interval latch */
 556:Generated_Source\PSoC5/CyFlash.c ****                     status = CySpcWriteRow(arrayId, rowNumber, dieTemperature[0u], dieTemperature[1
 889              		.loc 1 556 0
 890 00e0 1B4B     		ldr	r3, .L78+4
 891 00e2 1A78     		ldrb	r2, [r3]	@ zero_extendqisi2
 892 00e4 1A4B     		ldr	r3, .L78+4
 893 00e6 5B78     		ldrb	r3, [r3, #1]	@ zero_extendqisi2
 894 00e8 B989     		ldrh	r1, [r7, #12]
 895 00ea F87B     		ldrb	r0, [r7, #15]	@ zero_extendqisi2
 896 00ec FFF7FEFF 		bl	CySpcWriteRow
 897 00f0 7861     		str	r0, [r7, #20]
 557:Generated_Source\PSoC5/CyFlash.c **** 
 558:Generated_Source\PSoC5/CyFlash.c ****                     if(CYRET_STARTED == status)
 898              		.loc 1 558 0
 899 00f2 7B69     		ldr	r3, [r7, #20]
 900 00f4 072B     		cmp	r3, #7
 901 00f6 1ED1     		bne	.L69
 559:Generated_Source\PSoC5/CyFlash.c ****                     {
 560:Generated_Source\PSoC5/CyFlash.c ****                         while(CY_SPC_BUSY)
 902              		.loc 1 560 0
 903 00f8 02E0     		b	.L74
 904              	.L75:
 561:Generated_Source\PSoC5/CyFlash.c ****                         {
 562:Generated_Source\PSoC5/CyFlash.c ****                             /* Wait for SPC to finish and get SPC status */
 563:Generated_Source\PSoC5/CyFlash.c ****                             CyDelayUs(1u);
 905              		.loc 1 563 0
 906 00fa 0120     		movs	r0, #1
 907 00fc FFF7FEFF 		bl	CyDelayUs
 908              	.L74:
 560:Generated_Source\PSoC5/CyFlash.c ****                         {
 909              		.loc 1 560 0
 910 0100 124B     		ldr	r3, .L78
 911 0102 1B78     		ldrb	r3, [r3]
 912 0104 DBB2     		uxtb	r3, r3
 913 0106 03F00203 		and	r3, r3, #2
 914 010a 002B     		cmp	r3, #0
ARM GAS  C:\Users\HPz420\AppData\Local\Temp\ccTXWFfp.s 			page 27


 915 010c F5D0     		beq	.L75
 564:Generated_Source\PSoC5/CyFlash.c ****                         }
 565:Generated_Source\PSoC5/CyFlash.c **** 
 566:Generated_Source\PSoC5/CyFlash.c ****                         /* Hide SPC status */
 567:Generated_Source\PSoC5/CyFlash.c ****                         if(CY_SPC_STATUS_SUCCESS == CY_SPC_READ_STATUS)
 916              		.loc 1 567 0
 917 010e 0F4B     		ldr	r3, .L78
 918 0110 1B78     		ldrb	r3, [r3]
 919 0112 DBB2     		uxtb	r3, r3
 920 0114 03F00203 		and	r3, r3, #2
 921 0118 002B     		cmp	r3, #0
 922 011a 09D0     		beq	.L76
 923              		.loc 1 567 0 is_stmt 0 discriminator 1
 924 011c 0B4B     		ldr	r3, .L78
 925 011e 1B78     		ldrb	r3, [r3]
 926 0120 DBB2     		uxtb	r3, r3
 927 0122 9B08     		lsrs	r3, r3, #2
 928 0124 DBB2     		uxtb	r3, r3
 929 0126 002B     		cmp	r3, #0
 930 0128 02D1     		bne	.L76
 568:Generated_Source\PSoC5/CyFlash.c ****                         {
 569:Generated_Source\PSoC5/CyFlash.c ****                             status = CYRET_SUCCESS;
 931              		.loc 1 569 0 is_stmt 1
 932 012a 0023     		movs	r3, #0
 933 012c 7B61     		str	r3, [r7, #20]
 934 012e 02E0     		b	.L69
 935              	.L76:
 570:Generated_Source\PSoC5/CyFlash.c ****                         }
 571:Generated_Source\PSoC5/CyFlash.c ****                         else
 572:Generated_Source\PSoC5/CyFlash.c ****                         {
 573:Generated_Source\PSoC5/CyFlash.c ****                             status = CYRET_UNKNOWN;
 936              		.loc 1 573 0
 937 0130 4FF0FF33 		mov	r3, #-1
 938 0134 7B61     		str	r3, [r7, #20]
 939              	.L69:
 574:Generated_Source\PSoC5/CyFlash.c ****                         }
 575:Generated_Source\PSoC5/CyFlash.c ****                     }
 576:Generated_Source\PSoC5/CyFlash.c ****                 }
 577:Generated_Source\PSoC5/CyFlash.c ****             }
 578:Generated_Source\PSoC5/CyFlash.c ****             CySpcUnlock();
 940              		.loc 1 578 0
 941 0136 FFF7FEFF 		bl	CySpcUnlock
 942 013a 01E0     		b	.L67
 943              	.L68:
 579:Generated_Source\PSoC5/CyFlash.c ****         }   /* if(CySpcLock() == CYRET_SUCCESS) */
 580:Generated_Source\PSoC5/CyFlash.c ****         else
 581:Generated_Source\PSoC5/CyFlash.c ****         {
 582:Generated_Source\PSoC5/CyFlash.c ****             status = CYRET_LOCKED;
 944              		.loc 1 582 0
 945 013c 0423     		movs	r3, #4
 946 013e 7B61     		str	r3, [r7, #20]
 947              	.L67:
 583:Generated_Source\PSoC5/CyFlash.c ****         }
 584:Generated_Source\PSoC5/CyFlash.c ****     }
 585:Generated_Source\PSoC5/CyFlash.c **** 
 586:Generated_Source\PSoC5/CyFlash.c ****     return(status);
 948              		.loc 1 586 0
ARM GAS  C:\Users\HPz420\AppData\Local\Temp\ccTXWFfp.s 			page 28


 949 0140 7B69     		ldr	r3, [r7, #20]
 587:Generated_Source\PSoC5/CyFlash.c **** }
 950              		.loc 1 587 0
 951 0142 1846     		mov	r0, r3
 952 0144 1837     		adds	r7, r7, #24
 953              		.cfi_def_cfa_offset 8
 954 0146 BD46     		mov	sp, r7
 955              		.cfi_def_cfa_register 13
 956              		@ sp needed
 957 0148 80BD     		pop	{r7, pc}
 958              	.L79:
 959 014a 00BF     		.align	2
 960              	.L78:
 961 014c 22470040 		.word	1073760034
 962 0150 00000000 		.word	dieTemperature
 963              		.cfi_endproc
 964              	.LFE9:
 965              		.size	CyWriteRowFull, .-CyWriteRowFull
 966              		.section	.text.CyFlash_SetWaitCycles,"ax",%progbits
 967              		.align	2
 968              		.global	CyFlash_SetWaitCycles
 969              		.thumb
 970              		.thumb_func
 971              		.type	CyFlash_SetWaitCycles, %function
 972              	CyFlash_SetWaitCycles:
 973              	.LFB10:
 588:Generated_Source\PSoC5/CyFlash.c **** 
 589:Generated_Source\PSoC5/CyFlash.c **** 
 590:Generated_Source\PSoC5/CyFlash.c **** /*******************************************************************************
 591:Generated_Source\PSoC5/CyFlash.c **** * Function Name: CyFlash_SetWaitCycles
 592:Generated_Source\PSoC5/CyFlash.c **** ****************************************************************************//**
 593:Generated_Source\PSoC5/CyFlash.c **** *
 594:Generated_Source\PSoC5/CyFlash.c **** *  Sets the number of clock cycles the cache will wait before it samples data
 595:Generated_Source\PSoC5/CyFlash.c **** *  coming back from the Flash. This function must be called before increasing
 596:Generated_Source\PSoC5/CyFlash.c **** *  the CPU clock frequency. It can optionally be called after lowering the CPU
 597:Generated_Source\PSoC5/CyFlash.c **** *  clock frequency in order to improve the CPU performance.
 598:Generated_Source\PSoC5/CyFlash.c **** *
 599:Generated_Source\PSoC5/CyFlash.c **** *  \param uint8 freq:
 600:Generated_Source\PSoC5/CyFlash.c **** *   Frequency of operation in Megahertz.
 601:Generated_Source\PSoC5/CyFlash.c **** *
 602:Generated_Source\PSoC5/CyFlash.c **** *******************************************************************************/
 603:Generated_Source\PSoC5/CyFlash.c **** void CyFlash_SetWaitCycles(uint8 freq) 
 604:Generated_Source\PSoC5/CyFlash.c **** {
 974              		.loc 1 604 0
 975              		.cfi_startproc
 976              		@ args = 0, pretend = 0, frame = 16
 977              		@ frame_needed = 1, uses_anonymous_args = 0
 978 0000 80B5     		push	{r7, lr}
 979              		.cfi_def_cfa_offset 8
 980              		.cfi_offset 7, -8
 981              		.cfi_offset 14, -4
 982 0002 84B0     		sub	sp, sp, #16
 983              		.cfi_def_cfa_offset 24
 984 0004 00AF     		add	r7, sp, #0
 985              		.cfi_def_cfa_register 7
 986 0006 0346     		mov	r3, r0
 987 0008 FB71     		strb	r3, [r7, #7]
ARM GAS  C:\Users\HPz420\AppData\Local\Temp\ccTXWFfp.s 			page 29


 605:Generated_Source\PSoC5/CyFlash.c ****     uint8 interruptState;
 606:Generated_Source\PSoC5/CyFlash.c **** 
 607:Generated_Source\PSoC5/CyFlash.c ****     /* Save current global interrupt enable and disable it */
 608:Generated_Source\PSoC5/CyFlash.c ****     interruptState = CyEnterCriticalSection();
 988              		.loc 1 608 0
 989 000a FFF7FEFF 		bl	CyEnterCriticalSection
 990 000e 0346     		mov	r3, r0
 991 0010 FB73     		strb	r3, [r7, #15]
 609:Generated_Source\PSoC5/CyFlash.c **** 
 610:Generated_Source\PSoC5/CyFlash.c ****     /***************************************************************************
 611:Generated_Source\PSoC5/CyFlash.c ****     * The number of clock cycles the cache will wait before it samples data
 612:Generated_Source\PSoC5/CyFlash.c ****     * coming back from the Flash must be equal or greater to to the CPU frequency
 613:Generated_Source\PSoC5/CyFlash.c ****     * outlined in clock cycles.
 614:Generated_Source\PSoC5/CyFlash.c ****     ***************************************************************************/
 615:Generated_Source\PSoC5/CyFlash.c **** 
 616:Generated_Source\PSoC5/CyFlash.c ****     if (freq < CY_FLASH_CACHE_WS_1_FREQ_MAX)
 992              		.loc 1 616 0
 993 0012 FB79     		ldrb	r3, [r7, #7]	@ zero_extendqisi2
 994 0014 0F2B     		cmp	r3, #15
 995 0016 0BD8     		bhi	.L81
 617:Generated_Source\PSoC5/CyFlash.c ****     {
 618:Generated_Source\PSoC5/CyFlash.c ****         CY_FLASH_CONTROL_REG = (CY_FLASH_CONTROL_REG & (uint8)(~CY_FLASH_CACHE_WS_VALUE_MASK)) |
 996              		.loc 1 618 0
 997 0018 274A     		ldr	r2, .L87
 998 001a 274B     		ldr	r3, .L87
 999 001c 1B78     		ldrb	r3, [r3]
 1000 001e DBB2     		uxtb	r3, r3
 1001 0020 03F01F03 		and	r3, r3, #31
 1002 0024 DBB2     		uxtb	r3, r3
 1003 0026 43F04003 		orr	r3, r3, #64
 1004 002a DBB2     		uxtb	r3, r3
 1005 002c 1370     		strb	r3, [r2]
 1006 002e 3BE0     		b	.L82
 1007              	.L81:
 619:Generated_Source\PSoC5/CyFlash.c ****                                     CY_FLASH_CACHE_WS_1_VALUE_MASK;
 620:Generated_Source\PSoC5/CyFlash.c ****     }
 621:Generated_Source\PSoC5/CyFlash.c ****     else if (freq < CY_FLASH_CACHE_WS_2_FREQ_MAX)
 1008              		.loc 1 621 0
 1009 0030 FB79     		ldrb	r3, [r7, #7]	@ zero_extendqisi2
 1010 0032 202B     		cmp	r3, #32
 1011 0034 0BD8     		bhi	.L83
 622:Generated_Source\PSoC5/CyFlash.c ****     {
 623:Generated_Source\PSoC5/CyFlash.c ****         CY_FLASH_CONTROL_REG = (CY_FLASH_CONTROL_REG & (uint8)(~CY_FLASH_CACHE_WS_VALUE_MASK)) |
 1012              		.loc 1 623 0
 1013 0036 204A     		ldr	r2, .L87
 1014 0038 1F4B     		ldr	r3, .L87
 1015 003a 1B78     		ldrb	r3, [r3]
 1016 003c DBB2     		uxtb	r3, r3
 1017 003e 03F01F03 		and	r3, r3, #31
 1018 0042 DBB2     		uxtb	r3, r3
 1019 0044 63F07F03 		orn	r3, r3, #127
 1020 0048 DBB2     		uxtb	r3, r3
 1021 004a 1370     		strb	r3, [r2]
 1022 004c 2CE0     		b	.L82
 1023              	.L83:
 624:Generated_Source\PSoC5/CyFlash.c ****                                     CY_FLASH_CACHE_WS_2_VALUE_MASK;
 625:Generated_Source\PSoC5/CyFlash.c ****     }
ARM GAS  C:\Users\HPz420\AppData\Local\Temp\ccTXWFfp.s 			page 30


 626:Generated_Source\PSoC5/CyFlash.c ****     else if (freq < CY_FLASH_CACHE_WS_3_FREQ_MAX)
 1024              		.loc 1 626 0
 1025 004e FB79     		ldrb	r3, [r7, #7]	@ zero_extendqisi2
 1026 0050 312B     		cmp	r3, #49
 1027 0052 0BD8     		bhi	.L84
 627:Generated_Source\PSoC5/CyFlash.c ****     {
 628:Generated_Source\PSoC5/CyFlash.c ****         CY_FLASH_CONTROL_REG = (CY_FLASH_CONTROL_REG & (uint8)(~CY_FLASH_CACHE_WS_VALUE_MASK)) |
 1028              		.loc 1 628 0
 1029 0054 184A     		ldr	r2, .L87
 1030 0056 184B     		ldr	r3, .L87
 1031 0058 1B78     		ldrb	r3, [r3]
 1032 005a DBB2     		uxtb	r3, r3
 1033 005c 03F01F03 		and	r3, r3, #31
 1034 0060 DBB2     		uxtb	r3, r3
 1035 0062 63F03F03 		orn	r3, r3, #63
 1036 0066 DBB2     		uxtb	r3, r3
 1037 0068 1370     		strb	r3, [r2]
 1038 006a 1DE0     		b	.L82
 1039              	.L84:
 629:Generated_Source\PSoC5/CyFlash.c ****                                     CY_FLASH_CACHE_WS_3_VALUE_MASK;
 630:Generated_Source\PSoC5/CyFlash.c ****     }
 631:Generated_Source\PSoC5/CyFlash.c **** #if (CY_PSOC5)
 632:Generated_Source\PSoC5/CyFlash.c ****     else if (freq < CY_FLASH_CACHE_WS_4_FREQ_MAX)
 1040              		.loc 1 632 0
 1041 006c FB79     		ldrb	r3, [r7, #7]	@ zero_extendqisi2
 1042 006e 422B     		cmp	r3, #66
 1043 0070 08D8     		bhi	.L85
 633:Generated_Source\PSoC5/CyFlash.c ****     {
 634:Generated_Source\PSoC5/CyFlash.c ****         CY_FLASH_CONTROL_REG = (CY_FLASH_CONTROL_REG & (uint8)(~CY_FLASH_CACHE_WS_VALUE_MASK)) |
 1044              		.loc 1 634 0
 1045 0072 114A     		ldr	r2, .L87
 1046 0074 104B     		ldr	r3, .L87
 1047 0076 1B78     		ldrb	r3, [r3]
 1048 0078 DBB2     		uxtb	r3, r3
 1049 007a 03F01F03 		and	r3, r3, #31
 1050 007e DBB2     		uxtb	r3, r3
 1051 0080 1370     		strb	r3, [r2]
 1052 0082 11E0     		b	.L82
 1053              	.L85:
 635:Generated_Source\PSoC5/CyFlash.c ****                                     CY_FLASH_CACHE_WS_4_VALUE_MASK;
 636:Generated_Source\PSoC5/CyFlash.c ****     }
 637:Generated_Source\PSoC5/CyFlash.c ****     else if (freq <= CY_FLASH_CACHE_WS_5_FREQ_MAX)
 1054              		.loc 1 637 0
 1055 0084 FB79     		ldrb	r3, [r7, #7]	@ zero_extendqisi2
 1056 0086 532B     		cmp	r3, #83
 1057 0088 0BD8     		bhi	.L86
 638:Generated_Source\PSoC5/CyFlash.c ****     {
 639:Generated_Source\PSoC5/CyFlash.c ****         CY_FLASH_CONTROL_REG = (CY_FLASH_CONTROL_REG & (uint8)(~CY_FLASH_CACHE_WS_VALUE_MASK)) |
 1058              		.loc 1 639 0
 1059 008a 0B4A     		ldr	r2, .L87
 1060 008c 0A4B     		ldr	r3, .L87
 1061 008e 1B78     		ldrb	r3, [r3]
 1062 0090 DBB2     		uxtb	r3, r3
 1063 0092 03F01F03 		and	r3, r3, #31
 1064 0096 DBB2     		uxtb	r3, r3
 1065 0098 43F02003 		orr	r3, r3, #32
 1066 009c DBB2     		uxtb	r3, r3
ARM GAS  C:\Users\HPz420\AppData\Local\Temp\ccTXWFfp.s 			page 31


 1067 009e 1370     		strb	r3, [r2]
 1068 00a0 02E0     		b	.L82
 1069              	.L86:
 640:Generated_Source\PSoC5/CyFlash.c ****                                     CY_FLASH_CACHE_WS_5_VALUE_MASK;
 641:Generated_Source\PSoC5/CyFlash.c ****     }
 642:Generated_Source\PSoC5/CyFlash.c **** #endif  /* (CY_PSOC5) */
 643:Generated_Source\PSoC5/CyFlash.c ****     else
 644:Generated_Source\PSoC5/CyFlash.c ****     {
 645:Generated_Source\PSoC5/CyFlash.c ****         /* Halt CPU in debug mode if frequency is invalid */
 646:Generated_Source\PSoC5/CyFlash.c ****         CYASSERT(0u != 0u);
 1070              		.loc 1 646 0 discriminator 1
 1071 00a2 0020     		movs	r0, #0
 1072 00a4 FFF7FEFF 		bl	CyHalt
 1073              	.L82:
 647:Generated_Source\PSoC5/CyFlash.c ****     }
 648:Generated_Source\PSoC5/CyFlash.c **** 
 649:Generated_Source\PSoC5/CyFlash.c ****     /* Restore global interrupt enable state */
 650:Generated_Source\PSoC5/CyFlash.c ****     CyExitCriticalSection(interruptState);
 1074              		.loc 1 650 0
 1075 00a8 FB7B     		ldrb	r3, [r7, #15]	@ zero_extendqisi2
 1076 00aa 1846     		mov	r0, r3
 1077 00ac FFF7FEFF 		bl	CyExitCriticalSection
 651:Generated_Source\PSoC5/CyFlash.c **** }
 1078              		.loc 1 651 0
 1079 00b0 00BF     		nop
 1080 00b2 1037     		adds	r7, r7, #16
 1081              		.cfi_def_cfa_offset 8
 1082 00b4 BD46     		mov	sp, r7
 1083              		.cfi_def_cfa_register 13
 1084              		@ sp needed
 1085 00b6 80BD     		pop	{r7, pc}
 1086              	.L88:
 1087              		.align	2
 1088              	.L87:
 1089 00b8 00480040 		.word	1073760256
 1090              		.cfi_endproc
 1091              	.LFE10:
 1092              		.size	CyFlash_SetWaitCycles, .-CyFlash_SetWaitCycles
 1093              		.section	.text.CyEEPROM_Start,"ax",%progbits
 1094              		.align	2
 1095              		.global	CyEEPROM_Start
 1096              		.thumb
 1097              		.thumb_func
 1098              		.type	CyEEPROM_Start, %function
 1099              	CyEEPROM_Start:
 1100              	.LFB11:
 652:Generated_Source\PSoC5/CyFlash.c **** 
 653:Generated_Source\PSoC5/CyFlash.c **** 
 654:Generated_Source\PSoC5/CyFlash.c **** /*******************************************************************************
 655:Generated_Source\PSoC5/CyFlash.c **** * Function Name: CyEEPROM_Start
 656:Generated_Source\PSoC5/CyFlash.c **** ****************************************************************************//**
 657:Generated_Source\PSoC5/CyFlash.c **** *
 658:Generated_Source\PSoC5/CyFlash.c **** *  Enable the EEPROM.
 659:Generated_Source\PSoC5/CyFlash.c **** *
 660:Generated_Source\PSoC5/CyFlash.c **** *******************************************************************************/
 661:Generated_Source\PSoC5/CyFlash.c **** void CyEEPROM_Start(void) 
 662:Generated_Source\PSoC5/CyFlash.c **** {
ARM GAS  C:\Users\HPz420\AppData\Local\Temp\ccTXWFfp.s 			page 32


 1101              		.loc 1 662 0
 1102              		.cfi_startproc
 1103              		@ args = 0, pretend = 0, frame = 8
 1104              		@ frame_needed = 1, uses_anonymous_args = 0
 1105 0000 80B5     		push	{r7, lr}
 1106              		.cfi_def_cfa_offset 8
 1107              		.cfi_offset 7, -8
 1108              		.cfi_offset 14, -4
 1109 0002 82B0     		sub	sp, sp, #8
 1110              		.cfi_def_cfa_offset 16
 1111 0004 00AF     		add	r7, sp, #0
 1112              		.cfi_def_cfa_register 7
 663:Generated_Source\PSoC5/CyFlash.c ****     uint8 interruptState;
 664:Generated_Source\PSoC5/CyFlash.c **** 
 665:Generated_Source\PSoC5/CyFlash.c ****     interruptState = CyEnterCriticalSection();
 1113              		.loc 1 665 0
 1114 0006 FFF7FEFF 		bl	CyEnterCriticalSection
 1115 000a 0346     		mov	r3, r0
 1116 000c FB71     		strb	r3, [r7, #7]
 666:Generated_Source\PSoC5/CyFlash.c **** 
 667:Generated_Source\PSoC5/CyFlash.c **** 
 668:Generated_Source\PSoC5/CyFlash.c ****     /***************************************************************************
 669:Generated_Source\PSoC5/CyFlash.c ****     * Enable SPC clock. This also internally enables the 36MHz IMO, since this
 670:Generated_Source\PSoC5/CyFlash.c ****     * is required for the SPC to function.
 671:Generated_Source\PSoC5/CyFlash.c ****     ***************************************************************************/
 672:Generated_Source\PSoC5/CyFlash.c ****     CY_FLASH_PM_ACT_CFG0_REG    |= CY_FLASH_PM_ACT_CFG0_EN_CLK_SPC;
 1117              		.loc 1 672 0
 1118 000e 194A     		ldr	r2, .L91
 1119 0010 184B     		ldr	r3, .L91
 1120 0012 1B78     		ldrb	r3, [r3]
 1121 0014 DBB2     		uxtb	r3, r3
 1122 0016 43F00803 		orr	r3, r3, #8
 1123 001a DBB2     		uxtb	r3, r3
 1124 001c 1370     		strb	r3, [r2]
 673:Generated_Source\PSoC5/CyFlash.c ****     CY_FLASH_PM_ALTACT_CFG0_REG |= CY_FLASH_PM_ALTACT_CFG0_EN_CLK_SPC;
 1125              		.loc 1 673 0
 1126 001e 164A     		ldr	r2, .L91+4
 1127 0020 154B     		ldr	r3, .L91+4
 1128 0022 1B78     		ldrb	r3, [r3]
 1129 0024 DBB2     		uxtb	r3, r3
 1130 0026 43F00803 		orr	r3, r3, #8
 1131 002a DBB2     		uxtb	r3, r3
 1132 002c 1370     		strb	r3, [r2]
 674:Generated_Source\PSoC5/CyFlash.c **** 
 675:Generated_Source\PSoC5/CyFlash.c **** 
 676:Generated_Source\PSoC5/CyFlash.c ****     /***************************************************************************
 677:Generated_Source\PSoC5/CyFlash.c ****     * The wake count defines the number of Bus Clock cycles it takes for the
 678:Generated_Source\PSoC5/CyFlash.c ****     * flash or EEPROM to wake up from a low power mode independent of the chip
 679:Generated_Source\PSoC5/CyFlash.c ****     * power mode. Wake up time for these blocks is 5 us.
 680:Generated_Source\PSoC5/CyFlash.c ****     * The granularity of this register is 2 Bus Clock cycles, so a value of 0x1E
 681:Generated_Source\PSoC5/CyFlash.c ****     * (30d) defines the wake up time as 60 cycles of the Bus Clock.
 682:Generated_Source\PSoC5/CyFlash.c ****     * This register needs to be written with a value dependent on the Bus Clock
 683:Generated_Source\PSoC5/CyFlash.c ****     * frequency so that the duration of the cycles is equal to or greater than
 684:Generated_Source\PSoC5/CyFlash.c ****     * the 5 us delay required.
 685:Generated_Source\PSoC5/CyFlash.c ****     ***************************************************************************/
 686:Generated_Source\PSoC5/CyFlash.c ****     CY_FLASH_SPC_FM_EE_WAKE_CNT_REG = CY_FLASH_SPC_FM_EE_WAKE_CNT_80MHZ;
 1133              		.loc 1 686 0
ARM GAS  C:\Users\HPz420\AppData\Local\Temp\ccTXWFfp.s 			page 33


 1134 002e 134B     		ldr	r3, .L91+8
 1135 0030 C822     		movs	r2, #200
 1136 0032 1A70     		strb	r2, [r3]
 687:Generated_Source\PSoC5/CyFlash.c **** 
 688:Generated_Source\PSoC5/CyFlash.c **** 
 689:Generated_Source\PSoC5/CyFlash.c ****     /***************************************************************************
 690:Generated_Source\PSoC5/CyFlash.c ****     * Enable EEPROM. Re-enabling an EEPROM macro takes 5us. During this time,
 691:Generated_Source\PSoC5/CyFlash.c ****     * the EE will not acknowledge a PHUB request.
 692:Generated_Source\PSoC5/CyFlash.c ****     ***************************************************************************/
 693:Generated_Source\PSoC5/CyFlash.c ****     CY_FLASH_PM_ACT_CFG12_REG    |= CY_FLASH_PM_ACT_CFG12_EN_EE;
 1137              		.loc 1 693 0
 1138 0034 124A     		ldr	r2, .L91+12
 1139 0036 124B     		ldr	r3, .L91+12
 1140 0038 1B78     		ldrb	r3, [r3]
 1141 003a DBB2     		uxtb	r3, r3
 1142 003c 43F01003 		orr	r3, r3, #16
 1143 0040 DBB2     		uxtb	r3, r3
 1144 0042 1370     		strb	r3, [r2]
 694:Generated_Source\PSoC5/CyFlash.c ****     CY_FLASH_PM_ALTACT_CFG12_REG |= CY_FLASH_PM_ALTACT_CFG12_EN_EE;
 1145              		.loc 1 694 0
 1146 0044 0F4A     		ldr	r2, .L91+16
 1147 0046 0F4B     		ldr	r3, .L91+16
 1148 0048 1B78     		ldrb	r3, [r3]
 1149 004a DBB2     		uxtb	r3, r3
 1150 004c 43F01003 		orr	r3, r3, #16
 1151 0050 DBB2     		uxtb	r3, r3
 1152 0052 1370     		strb	r3, [r2]
 695:Generated_Source\PSoC5/CyFlash.c **** 
 696:Generated_Source\PSoC5/CyFlash.c ****     while(0u == (CY_FLASH_SPC_FM_EE_CR_REG & CY_FLASH_EE_EE_AWAKE))
 1153              		.loc 1 696 0
 1154 0054 00BF     		nop
 1155              	.L90:
 1156              		.loc 1 696 0 is_stmt 0 discriminator 1
 1157 0056 0C4B     		ldr	r3, .L91+20
 1158 0058 1B78     		ldrb	r3, [r3]
 1159 005a DBB2     		uxtb	r3, r3
 1160 005c 03F02003 		and	r3, r3, #32
 1161 0060 002B     		cmp	r3, #0
 1162 0062 F8D0     		beq	.L90
 697:Generated_Source\PSoC5/CyFlash.c ****     {
 698:Generated_Source\PSoC5/CyFlash.c ****         /* Non-zero status denotes that the EEPROM/Flash is awake & powered. */
 699:Generated_Source\PSoC5/CyFlash.c ****     }
 700:Generated_Source\PSoC5/CyFlash.c **** 
 701:Generated_Source\PSoC5/CyFlash.c ****     CyExitCriticalSection(interruptState);
 1163              		.loc 1 701 0 is_stmt 1
 1164 0064 FB79     		ldrb	r3, [r7, #7]	@ zero_extendqisi2
 1165 0066 1846     		mov	r0, r3
 1166 0068 FFF7FEFF 		bl	CyExitCriticalSection
 702:Generated_Source\PSoC5/CyFlash.c **** }
 1167              		.loc 1 702 0
 1168 006c 00BF     		nop
 1169 006e 0837     		adds	r7, r7, #8
 1170              		.cfi_def_cfa_offset 8
 1171 0070 BD46     		mov	sp, r7
 1172              		.cfi_def_cfa_register 13
 1173              		@ sp needed
 1174 0072 80BD     		pop	{r7, pc}
ARM GAS  C:\Users\HPz420\AppData\Local\Temp\ccTXWFfp.s 			page 34


 1175              	.L92:
 1176              		.align	2
 1177              	.L91:
 1178 0074 A0430040 		.word	1073759136
 1179 0078 B0430040 		.word	1073759152
 1180 007c 01470040 		.word	1073760001
 1181 0080 AC430040 		.word	1073759148
 1182 0084 BC430040 		.word	1073759164
 1183 0088 00470040 		.word	1073760000
 1184              		.cfi_endproc
 1185              	.LFE11:
 1186              		.size	CyEEPROM_Start, .-CyEEPROM_Start
 1187              		.section	.text.CyEEPROM_Stop,"ax",%progbits
 1188              		.align	2
 1189              		.global	CyEEPROM_Stop
 1190              		.thumb
 1191              		.thumb_func
 1192              		.type	CyEEPROM_Stop, %function
 1193              	CyEEPROM_Stop:
 1194              	.LFB12:
 703:Generated_Source\PSoC5/CyFlash.c **** 
 704:Generated_Source\PSoC5/CyFlash.c **** 
 705:Generated_Source\PSoC5/CyFlash.c **** /*******************************************************************************
 706:Generated_Source\PSoC5/CyFlash.c **** * Function Name: CyEEPROM_Stop
 707:Generated_Source\PSoC5/CyFlash.c **** ****************************************************************************//**
 708:Generated_Source\PSoC5/CyFlash.c **** *
 709:Generated_Source\PSoC5/CyFlash.c **** *  Disable the EEPROM.
 710:Generated_Source\PSoC5/CyFlash.c **** *
 711:Generated_Source\PSoC5/CyFlash.c **** *******************************************************************************/
 712:Generated_Source\PSoC5/CyFlash.c **** void CyEEPROM_Stop (void) 
 713:Generated_Source\PSoC5/CyFlash.c **** {
 1195              		.loc 1 713 0
 1196              		.cfi_startproc
 1197              		@ args = 0, pretend = 0, frame = 8
 1198              		@ frame_needed = 1, uses_anonymous_args = 0
 1199 0000 80B5     		push	{r7, lr}
 1200              		.cfi_def_cfa_offset 8
 1201              		.cfi_offset 7, -8
 1202              		.cfi_offset 14, -4
 1203 0002 82B0     		sub	sp, sp, #8
 1204              		.cfi_def_cfa_offset 16
 1205 0004 00AF     		add	r7, sp, #0
 1206              		.cfi_def_cfa_register 7
 714:Generated_Source\PSoC5/CyFlash.c ****     uint8 interruptState;
 715:Generated_Source\PSoC5/CyFlash.c **** 
 716:Generated_Source\PSoC5/CyFlash.c ****     interruptState = CyEnterCriticalSection();
 1207              		.loc 1 716 0
 1208 0006 FFF7FEFF 		bl	CyEnterCriticalSection
 1209 000a 0346     		mov	r3, r0
 1210 000c FB71     		strb	r3, [r7, #7]
 717:Generated_Source\PSoC5/CyFlash.c **** 
 718:Generated_Source\PSoC5/CyFlash.c ****     CY_FLASH_PM_ACT_CFG12_REG    &= ((uint8)(~CY_FLASH_PM_ACT_CFG12_EN_EE));
 1211              		.loc 1 718 0
 1212 000e 0C4A     		ldr	r2, .L94
 1213 0010 0B4B     		ldr	r3, .L94
 1214 0012 1B78     		ldrb	r3, [r3]
 1215 0014 DBB2     		uxtb	r3, r3
ARM GAS  C:\Users\HPz420\AppData\Local\Temp\ccTXWFfp.s 			page 35


 1216 0016 23F01003 		bic	r3, r3, #16
 1217 001a DBB2     		uxtb	r3, r3
 1218 001c 1370     		strb	r3, [r2]
 719:Generated_Source\PSoC5/CyFlash.c ****     CY_FLASH_PM_ALTACT_CFG12_REG &= ((uint8)(~CY_FLASH_PM_ALTACT_CFG12_EN_EE));
 1219              		.loc 1 719 0
 1220 001e 094A     		ldr	r2, .L94+4
 1221 0020 084B     		ldr	r3, .L94+4
 1222 0022 1B78     		ldrb	r3, [r3]
 1223 0024 DBB2     		uxtb	r3, r3
 1224 0026 23F01003 		bic	r3, r3, #16
 1225 002a DBB2     		uxtb	r3, r3
 1226 002c 1370     		strb	r3, [r2]
 720:Generated_Source\PSoC5/CyFlash.c **** 
 721:Generated_Source\PSoC5/CyFlash.c ****     CyExitCriticalSection(interruptState);
 1227              		.loc 1 721 0
 1228 002e FB79     		ldrb	r3, [r7, #7]	@ zero_extendqisi2
 1229 0030 1846     		mov	r0, r3
 1230 0032 FFF7FEFF 		bl	CyExitCriticalSection
 722:Generated_Source\PSoC5/CyFlash.c **** }
 1231              		.loc 1 722 0
 1232 0036 00BF     		nop
 1233 0038 0837     		adds	r7, r7, #8
 1234              		.cfi_def_cfa_offset 8
 1235 003a BD46     		mov	sp, r7
 1236              		.cfi_def_cfa_register 13
 1237              		@ sp needed
 1238 003c 80BD     		pop	{r7, pc}
 1239              	.L95:
 1240 003e 00BF     		.align	2
 1241              	.L94:
 1242 0040 AC430040 		.word	1073759148
 1243 0044 BC430040 		.word	1073759164
 1244              		.cfi_endproc
 1245              	.LFE12:
 1246              		.size	CyEEPROM_Stop, .-CyEEPROM_Stop
 1247              		.section	.text.CyEEPROM_ReadReserve,"ax",%progbits
 1248              		.align	2
 1249              		.global	CyEEPROM_ReadReserve
 1250              		.thumb
 1251              		.thumb_func
 1252              		.type	CyEEPROM_ReadReserve, %function
 1253              	CyEEPROM_ReadReserve:
 1254              	.LFB13:
 723:Generated_Source\PSoC5/CyFlash.c **** 
 724:Generated_Source\PSoC5/CyFlash.c **** 
 725:Generated_Source\PSoC5/CyFlash.c **** /*******************************************************************************
 726:Generated_Source\PSoC5/CyFlash.c **** * Function Name: CyEEPROM_ReadReserve
 727:Generated_Source\PSoC5/CyFlash.c **** ****************************************************************************//**
 728:Generated_Source\PSoC5/CyFlash.c **** *
 729:Generated_Source\PSoC5/CyFlash.c **** *  Request access to the EEPROM for reading and wait until access is available.
 730:Generated_Source\PSoC5/CyFlash.c **** *
 731:Generated_Source\PSoC5/CyFlash.c **** *******************************************************************************/
 732:Generated_Source\PSoC5/CyFlash.c **** void CyEEPROM_ReadReserve(void) 
 733:Generated_Source\PSoC5/CyFlash.c **** {
 1255              		.loc 1 733 0
 1256              		.cfi_startproc
 1257              		@ args = 0, pretend = 0, frame = 0
ARM GAS  C:\Users\HPz420\AppData\Local\Temp\ccTXWFfp.s 			page 36


 1258              		@ frame_needed = 1, uses_anonymous_args = 0
 1259              		@ link register save eliminated.
 1260 0000 80B4     		push	{r7}
 1261              		.cfi_def_cfa_offset 4
 1262              		.cfi_offset 7, -4
 1263 0002 00AF     		add	r7, sp, #0
 1264              		.cfi_def_cfa_register 7
 734:Generated_Source\PSoC5/CyFlash.c ****     /* Make request for PHUB to have access */
 735:Generated_Source\PSoC5/CyFlash.c ****     CY_FLASH_EE_SCR_REG |= CY_FLASH_EE_SCR_AHB_EE_REQ;
 1265              		.loc 1 735 0
 1266 0004 094A     		ldr	r2, .L98
 1267 0006 094B     		ldr	r3, .L98
 1268 0008 1B78     		ldrb	r3, [r3]
 1269 000a DBB2     		uxtb	r3, r3
 1270 000c 43F00103 		orr	r3, r3, #1
 1271 0010 DBB2     		uxtb	r3, r3
 1272 0012 1370     		strb	r3, [r2]
 736:Generated_Source\PSoC5/CyFlash.c **** 
 737:Generated_Source\PSoC5/CyFlash.c ****     while (0u == (CY_FLASH_EE_SCR_REG & CY_FLASH_EE_SCR_AHB_EE_ACK))
 1273              		.loc 1 737 0
 1274 0014 00BF     		nop
 1275              	.L97:
 1276              		.loc 1 737 0 is_stmt 0 discriminator 1
 1277 0016 054B     		ldr	r3, .L98
 1278 0018 1B78     		ldrb	r3, [r3]
 1279 001a DBB2     		uxtb	r3, r3
 1280 001c 03F00203 		and	r3, r3, #2
 1281 0020 002B     		cmp	r3, #0
 1282 0022 F8D0     		beq	.L97
 738:Generated_Source\PSoC5/CyFlash.c ****     {
 739:Generated_Source\PSoC5/CyFlash.c ****         /* Wait for acknowledgment from PHUB */
 740:Generated_Source\PSoC5/CyFlash.c ****     }
 741:Generated_Source\PSoC5/CyFlash.c **** }
 1283              		.loc 1 741 0 is_stmt 1
 1284 0024 00BF     		nop
 1285 0026 BD46     		mov	sp, r7
 1286              		.cfi_def_cfa_register 13
 1287              		@ sp needed
 1288 0028 80BC     		pop	{r7}
 1289              		.cfi_restore 7
 1290              		.cfi_def_cfa_offset 0
 1291 002a 7047     		bx	lr
 1292              	.L99:
 1293              		.align	2
 1294              	.L98:
 1295 002c 02470040 		.word	1073760002
 1296              		.cfi_endproc
 1297              	.LFE13:
 1298              		.size	CyEEPROM_ReadReserve, .-CyEEPROM_ReadReserve
 1299              		.section	.text.CyEEPROM_ReadRelease,"ax",%progbits
 1300              		.align	2
 1301              		.global	CyEEPROM_ReadRelease
 1302              		.thumb
 1303              		.thumb_func
 1304              		.type	CyEEPROM_ReadRelease, %function
 1305              	CyEEPROM_ReadRelease:
 1306              	.LFB14:
ARM GAS  C:\Users\HPz420\AppData\Local\Temp\ccTXWFfp.s 			page 37


 742:Generated_Source\PSoC5/CyFlash.c **** 
 743:Generated_Source\PSoC5/CyFlash.c **** 
 744:Generated_Source\PSoC5/CyFlash.c **** /*******************************************************************************
 745:Generated_Source\PSoC5/CyFlash.c **** * Function Name: CyEEPROM_ReadRelease
 746:Generated_Source\PSoC5/CyFlash.c **** ****************************************************************************//**
 747:Generated_Source\PSoC5/CyFlash.c **** *
 748:Generated_Source\PSoC5/CyFlash.c **** *  Release the read reservation of the EEPROM.
 749:Generated_Source\PSoC5/CyFlash.c **** *
 750:Generated_Source\PSoC5/CyFlash.c **** *******************************************************************************/
 751:Generated_Source\PSoC5/CyFlash.c **** void CyEEPROM_ReadRelease(void) 
 752:Generated_Source\PSoC5/CyFlash.c **** {
 1307              		.loc 1 752 0
 1308              		.cfi_startproc
 1309              		@ args = 0, pretend = 0, frame = 0
 1310              		@ frame_needed = 1, uses_anonymous_args = 0
 1311              		@ link register save eliminated.
 1312 0000 80B4     		push	{r7}
 1313              		.cfi_def_cfa_offset 4
 1314              		.cfi_offset 7, -4
 1315 0002 00AF     		add	r7, sp, #0
 1316              		.cfi_def_cfa_register 7
 753:Generated_Source\PSoC5/CyFlash.c ****     CY_FLASH_EE_SCR_REG &= (uint8)(~CY_FLASH_EE_SCR_AHB_EE_REQ);
 1317              		.loc 1 753 0
 1318 0004 054A     		ldr	r2, .L101
 1319 0006 054B     		ldr	r3, .L101
 1320 0008 1B78     		ldrb	r3, [r3]
 1321 000a DBB2     		uxtb	r3, r3
 1322 000c 23F00103 		bic	r3, r3, #1
 1323 0010 DBB2     		uxtb	r3, r3
 1324 0012 1370     		strb	r3, [r2]
 754:Generated_Source\PSoC5/CyFlash.c **** }
 1325              		.loc 1 754 0
 1326 0014 00BF     		nop
 1327 0016 BD46     		mov	sp, r7
 1328              		.cfi_def_cfa_register 13
 1329              		@ sp needed
 1330 0018 80BC     		pop	{r7}
 1331              		.cfi_restore 7
 1332              		.cfi_def_cfa_offset 0
 1333 001a 7047     		bx	lr
 1334              	.L102:
 1335              		.align	2
 1336              	.L101:
 1337 001c 02470040 		.word	1073760002
 1338              		.cfi_endproc
 1339              	.LFE14:
 1340              		.size	CyEEPROM_ReadRelease, .-CyEEPROM_ReadRelease
 1341              		.text
 1342              	.Letext0:
 1343              		.file 2 "Generated_Source\\PSoC5\\cytypes.h"