ARM GAS  C:\Users\HPz420\AppData\Local\Temp\ccB4XkpA.s 			page 1


   1              		.syntax unified
   2              		.cpu cortex-m3
   3              		.fpu softvfp
   4              		.eabi_attribute 20, 1
   5              		.eabi_attribute 21, 1
   6              		.eabi_attribute 23, 3
   7              		.eabi_attribute 24, 1
   8              		.eabi_attribute 25, 1
   9              		.eabi_attribute 26, 1
  10              		.eabi_attribute 30, 6
  11              		.eabi_attribute 34, 1
  12              		.eabi_attribute 18, 4
  13              		.thumb
  14              		.syntax unified
  15              		.file	"FrontPanelI2C.c"
  16              		.text
  17              	.Ltext0:
  18              		.cfi_sections	.debug_frame
  19              		.global	ledsVal
  20              		.bss
  21              		.align	2
  22              		.type	ledsVal, %object
  23              		.size	ledsVal, 4
  24              	ledsVal:
  25 0000 00000000 		.space	4
  26              		.section	.text.initFrontPanelI2CIO8,"ax",%progbits
  27              		.align	2
  28              		.global	initFrontPanelI2CIO8
  29              		.thumb
  30              		.thumb_func
  31              		.type	initFrontPanelI2CIO8, %function
  32              	initFrontPanelI2CIO8:
  33              	.LFB64:
  34              		.file 1 "FrontPanelI2C.c"
   1:FrontPanelI2C.c **** /* ========================================
   2:FrontPanelI2C.c ****  *
   3:FrontPanelI2C.c ****  * Copyright YOUR COMPANY, THE YEAR
   4:FrontPanelI2C.c ****  * All Rights Reserved
   5:FrontPanelI2C.c ****  * UNPUBLISHED, LICENSED SOFTWARE.
   6:FrontPanelI2C.c ****  *
   7:FrontPanelI2C.c ****  * CONFIDENTIAL AND PROPRIETARY INFORMATION
   8:FrontPanelI2C.c ****  * WHICH IS THE PROPERTY OF your company.
   9:FrontPanelI2C.c ****  *
  10:FrontPanelI2C.c ****  * ========================================
  11:FrontPanelI2C.c **** */
  12:FrontPanelI2C.c **** 
  13:FrontPanelI2C.c **** #include <project.h>
  14:FrontPanelI2C.c **** #include "stdio.h"
  15:FrontPanelI2C.c **** 
  16:FrontPanelI2C.c **** uint32 ledsVal = 0;
  17:FrontPanelI2C.c **** 
  18:FrontPanelI2C.c **** void initDIGIO8Card(void);
  19:FrontPanelI2C.c **** void writeDIGIO8Card(uint8 outData);
  20:FrontPanelI2C.c **** uint8 readDIGIO8Card(void);
  21:FrontPanelI2C.c **** 
  22:FrontPanelI2C.c **** void initFrontPanelI2CIO8(void)
  23:FrontPanelI2C.c **** {
ARM GAS  C:\Users\HPz420\AppData\Local\Temp\ccB4XkpA.s 			page 2


  35              		.loc 1 23 0
  36              		.cfi_startproc
  37              		@ args = 0, pretend = 0, frame = 0
  38              		@ frame_needed = 1, uses_anonymous_args = 0
  39 0000 80B5     		push	{r7, lr}
  40              		.cfi_def_cfa_offset 8
  41              		.cfi_offset 7, -8
  42              		.cfi_offset 14, -4
  43 0002 00AF     		add	r7, sp, #0
  44              		.cfi_def_cfa_register 7
  24:FrontPanelI2C.c ****     ledsVal = 0;
  45              		.loc 1 24 0
  46 0004 054B     		ldr	r3, .L2
  47 0006 0022     		movs	r2, #0
  48 0008 1A60     		str	r2, [r3]
  25:FrontPanelI2C.c ****     writeDIGIO8Card(ledsVal);
  49              		.loc 1 25 0
  50 000a 044B     		ldr	r3, .L2
  51 000c 1B68     		ldr	r3, [r3]
  52 000e DBB2     		uxtb	r3, r3
  53 0010 1846     		mov	r0, r3
  54 0012 FFF7FEFF 		bl	writeDIGIO8Card
  26:FrontPanelI2C.c **** }
  55              		.loc 1 26 0
  56 0016 00BF     		nop
  57 0018 80BD     		pop	{r7, pc}
  58              	.L3:
  59 001a 00BF     		.align	2
  60              	.L2:
  61 001c 00000000 		.word	ledsVal
  62              		.cfi_endproc
  63              	.LFE64:
  64              		.size	initFrontPanelI2CIO8, .-initFrontPanelI2CIO8
  65              		.section	.text.keysAndLEDs,"ax",%progbits
  66              		.align	2
  67              		.global	keysAndLEDs
  68              		.thumb
  69              		.thumb_func
  70              		.type	keysAndLEDs, %function
  71              	keysAndLEDs:
  72              	.LFB65:
  27:FrontPanelI2C.c **** 
  28:FrontPanelI2C.c **** void keysAndLEDs(void)
  29:FrontPanelI2C.c **** {
  73              		.loc 1 29 0
  74              		.cfi_startproc
  75              		@ args = 0, pretend = 0, frame = 24
  76              		@ frame_needed = 1, uses_anonymous_args = 0
  77 0000 80B5     		push	{r7, lr}
  78              		.cfi_def_cfa_offset 8
  79              		.cfi_offset 7, -8
  80              		.cfi_offset 14, -4
  81 0002 86B0     		sub	sp, sp, #24
  82              		.cfi_def_cfa_offset 32
  83 0004 00AF     		add	r7, sp, #0
  84              		.cfi_def_cfa_register 7
  30:FrontPanelI2C.c ****     uint32 rdVal;
ARM GAS  C:\Users\HPz420\AppData\Local\Temp\ccB4XkpA.s 			page 3


  31:FrontPanelI2C.c ****     uint32 valMin1, valMin2,valMin3;
  32:FrontPanelI2C.c ****     uint8 keyPressed = 0; 
  85              		.loc 1 32 0
  86 0006 0023     		movs	r3, #0
  87 0008 FB73     		strb	r3, [r7, #15]
  33:FrontPanelI2C.c ****     rdVal = readDIGIO8Card() ^ 0x0f;
  88              		.loc 1 33 0
  89 000a FFF7FEFF 		bl	readDIGIO8Card
  90 000e 0346     		mov	r3, r0
  91 0010 83F00F03 		eor	r3, r3, #15
  92 0014 DBB2     		uxtb	r3, r3
  93 0016 BB60     		str	r3, [r7, #8]
  34:FrontPanelI2C.c ****     if (rdVal  == 0x00)     // No key is pressed at this polling
  94              		.loc 1 34 0
  95 0018 BB68     		ldr	r3, [r7, #8]
  96 001a 002B     		cmp	r3, #0
  97 001c 09D1     		bne	.L5
  35:FrontPanelI2C.c ****     {
  36:FrontPanelI2C.c ****         if (keyPressed == 0)    // No key press is in progress
  98              		.loc 1 36 0
  99 001e FB7B     		ldrb	r3, [r7, #15]	@ zero_extendqisi2
 100 0020 002B     		cmp	r3, #0
 101 0022 41D0     		beq	.L12
  37:FrontPanelI2C.c ****             return;
  38:FrontPanelI2C.c ****         else    // key was pressed in the past but is no longer pressed
  39:FrontPanelI2C.c ****         {
  40:FrontPanelI2C.c ****             valMin1 = 0;
 102              		.loc 1 40 0
 103 0024 0023     		movs	r3, #0
 104 0026 7B61     		str	r3, [r7, #20]
  41:FrontPanelI2C.c ****             valMin2 = 0;
 105              		.loc 1 41 0
 106 0028 0023     		movs	r3, #0
 107 002a 3B61     		str	r3, [r7, #16]
  42:FrontPanelI2C.c ****             valMin3 = 0;
 108              		.loc 1 42 0
 109 002c 0023     		movs	r3, #0
 110 002e 7B60     		str	r3, [r7, #4]
  43:FrontPanelI2C.c ****             return;
 111              		.loc 1 43 0
 112 0030 3BE0     		b	.L4
 113              	.L5:
  44:FrontPanelI2C.c ****         }
  45:FrontPanelI2C.c ****     }
  46:FrontPanelI2C.c ****     else    // key is now pressed
  47:FrontPanelI2C.c ****     {
  48:FrontPanelI2C.c ****         keyPressed = 1;
 114              		.loc 1 48 0
 115 0032 0123     		movs	r3, #1
 116 0034 FB73     		strb	r3, [r7, #15]
  49:FrontPanelI2C.c ****         while (keyPressed)  // stick around until key is no longer pressed
 117              		.loc 1 49 0
 118 0036 33E0     		b	.L8
 119              	.L11:
  50:FrontPanelI2C.c ****         {
  51:FrontPanelI2C.c ****             rdVal = readDIGIO8Card() ^ 0x0f;
 120              		.loc 1 51 0
ARM GAS  C:\Users\HPz420\AppData\Local\Temp\ccB4XkpA.s 			page 4


 121 0038 FFF7FEFF 		bl	readDIGIO8Card
 122 003c 0346     		mov	r3, r0
 123 003e 83F00F03 		eor	r3, r3, #15
 124 0042 DBB2     		uxtb	r3, r3
 125 0044 BB60     		str	r3, [r7, #8]
  52:FrontPanelI2C.c ****             if (rdVal == 0)
 126              		.loc 1 52 0
 127 0046 BB68     		ldr	r3, [r7, #8]
 128 0048 002B     		cmp	r3, #0
 129 004a 08D1     		bne	.L9
  53:FrontPanelI2C.c ****             {
  54:FrontPanelI2C.c ****                 keyPressed = 0;
 130              		.loc 1 54 0
 131 004c 0023     		movs	r3, #0
 132 004e FB73     		strb	r3, [r7, #15]
  55:FrontPanelI2C.c ****                 valMin1 = 0;
 133              		.loc 1 55 0
 134 0050 0023     		movs	r3, #0
 135 0052 7B61     		str	r3, [r7, #20]
  56:FrontPanelI2C.c ****                 valMin2 = 0;
 136              		.loc 1 56 0
 137 0054 0023     		movs	r3, #0
 138 0056 3B61     		str	r3, [r7, #16]
  57:FrontPanelI2C.c ****                 valMin3 = 0;
 139              		.loc 1 57 0
 140 0058 0023     		movs	r3, #0
 141 005a 7B60     		str	r3, [r7, #4]
  58:FrontPanelI2C.c ****                 return;
 142              		.loc 1 58 0
 143 005c 25E0     		b	.L4
 144              	.L9:
  59:FrontPanelI2C.c ****             }
  60:FrontPanelI2C.c ****             valMin3 = valMin2;
 145              		.loc 1 60 0
 146 005e 3B69     		ldr	r3, [r7, #16]
 147 0060 7B60     		str	r3, [r7, #4]
  61:FrontPanelI2C.c ****             valMin2 = valMin1;
 148              		.loc 1 61 0
 149 0062 7B69     		ldr	r3, [r7, #20]
 150 0064 3B61     		str	r3, [r7, #16]
  62:FrontPanelI2C.c ****             valMin1 = rdVal;
 151              		.loc 1 62 0
 152 0066 BB68     		ldr	r3, [r7, #8]
 153 0068 7B61     		str	r3, [r7, #20]
  63:FrontPanelI2C.c ****             if ((valMin3 == 0) && (valMin2 != 0) && (valMin1 != 0) && (rdVal != 0))
 154              		.loc 1 63 0
 155 006a 7B68     		ldr	r3, [r7, #4]
 156 006c 002B     		cmp	r3, #0
 157 006e 14D1     		bne	.L10
 158              		.loc 1 63 0 is_stmt 0 discriminator 1
 159 0070 3B69     		ldr	r3, [r7, #16]
 160 0072 002B     		cmp	r3, #0
 161 0074 11D0     		beq	.L10
 162              		.loc 1 63 0 discriminator 2
 163 0076 7B69     		ldr	r3, [r7, #20]
 164 0078 002B     		cmp	r3, #0
 165 007a 0ED0     		beq	.L10
ARM GAS  C:\Users\HPz420\AppData\Local\Temp\ccB4XkpA.s 			page 5


 166              		.loc 1 63 0 discriminator 3
 167 007c BB68     		ldr	r3, [r7, #8]
 168 007e 002B     		cmp	r3, #0
 169 0080 0BD0     		beq	.L10
  64:FrontPanelI2C.c ****             {
  65:FrontPanelI2C.c ****                 ledsVal ^= rdVal;   // toggle the read value 3 samples later
 170              		.loc 1 65 0 is_stmt 1
 171 0082 0B4B     		ldr	r3, .L13
 172 0084 1A68     		ldr	r2, [r3]
 173 0086 BB68     		ldr	r3, [r7, #8]
 174 0088 5340     		eors	r3, r3, r2
 175 008a 094A     		ldr	r2, .L13
 176 008c 1360     		str	r3, [r2]
  66:FrontPanelI2C.c ****                 writeDIGIO8Card(ledsVal);
 177              		.loc 1 66 0
 178 008e 084B     		ldr	r3, .L13
 179 0090 1B68     		ldr	r3, [r3]
 180 0092 DBB2     		uxtb	r3, r3
 181 0094 1846     		mov	r0, r3
 182 0096 FFF7FEFF 		bl	writeDIGIO8Card
 183              	.L10:
  67:FrontPanelI2C.c ****             }
  68:FrontPanelI2C.c ****             CyDelay(25);    // 10 mS sampling for debouncing
 184              		.loc 1 68 0
 185 009a 1920     		movs	r0, #25
 186 009c FFF7FEFF 		bl	CyDelay
 187              	.L8:
  49:FrontPanelI2C.c ****         {
 188              		.loc 1 49 0
 189 00a0 FB7B     		ldrb	r3, [r7, #15]	@ zero_extendqisi2
 190 00a2 002B     		cmp	r3, #0
 191 00a4 C8D1     		bne	.L11
 192 00a6 00E0     		b	.L4
 193              	.L12:
  37:FrontPanelI2C.c ****         else    // key was pressed in the past but is no longer pressed
 194              		.loc 1 37 0
 195 00a8 00BF     		nop
 196              	.L4:
  69:FrontPanelI2C.c ****         }
  70:FrontPanelI2C.c ****     }
  71:FrontPanelI2C.c **** }
 197              		.loc 1 71 0
 198 00aa 1837     		adds	r7, r7, #24
 199              		.cfi_def_cfa_offset 8
 200 00ac BD46     		mov	sp, r7
 201              		.cfi_def_cfa_register 13
 202              		@ sp needed
 203 00ae 80BD     		pop	{r7, pc}
 204              	.L14:
 205              		.align	2
 206              	.L13:
 207 00b0 00000000 		.word	ledsVal
 208              		.cfi_endproc
 209              	.LFE65:
 210              		.size	keysAndLEDs, .-keysAndLEDs
 211              		.text
 212              	.Letext0:
ARM GAS  C:\Users\HPz420\AppData\Local\Temp\ccB4XkpA.s 			page 6


 213              		.file 2 "c:\\program files (x86)\\cypress\\psoc creator\\4.2\\psoc creator\\import\\gnu\\arm\\5.4.
 214              		.file 3 "c:\\program files (x86)\\cypress\\psoc creator\\4.2\\psoc creator\\import\\gnu\\arm\\5.4.
 215              		.file 4 "Generated_Source\\PSoC5/cytypes.h"
 216              		.file 5 "Generated_Source\\PSoC5/core_cm3.h"