ARM GAS  C:\Users\HPz420\AppData\Local\Temp\ccMm01Ag.s 			page 1


   1              		.syntax unified
   2              		.cpu cortex-m3
   3              		.fpu softvfp
   4              		.eabi_attribute 20, 1
   5              		.eabi_attribute 21, 1
   6              		.eabi_attribute 23, 3
   7              		.eabi_attribute 24, 1
   8              		.eabi_attribute 25, 1
   9              		.eabi_attribute 26, 1
  10              		.eabi_attribute 30, 6
  11              		.eabi_attribute 34, 1
  12              		.eabi_attribute 18, 4
  13              		.thumb
  14              		.syntax unified
  15              		.file	"I2C_MASTER.c"
  16              		.text
  17              	.Ltext0:
  18              		.cfi_sections	.debug_frame
  19              		.comm	I2C_mstrStatus,1,1
  20              		.comm	I2C_mstrControl,1,1
  21              		.comm	I2C_mstrRdBufPtr,4,4
  22              		.comm	I2C_mstrRdBufSize,1,1
  23              		.comm	I2C_mstrRdBufIndex,1,1
  24              		.comm	I2C_mstrWrBufPtr,4,4
  25              		.comm	I2C_mstrWrBufSize,1,1
  26              		.comm	I2C_mstrWrBufIndex,1,1
  27              		.section	.text.I2C_MasterWriteBuf,"ax",%progbits
  28              		.align	2
  29              		.global	I2C_MasterWriteBuf
  30              		.thumb
  31              		.thumb_func
  32              		.type	I2C_MasterWriteBuf, %function
  33              	I2C_MasterWriteBuf:
  34              	.LFB0:
  35              		.file 1 "Generated_Source\\PSoC5\\I2C_MASTER.c"
   1:Generated_Source\PSoC5/I2C_MASTER.c **** /*******************************************************************************
   2:Generated_Source\PSoC5/I2C_MASTER.c **** * File Name: I2C_MASTER.c
   3:Generated_Source\PSoC5/I2C_MASTER.c **** * Version 3.50
   4:Generated_Source\PSoC5/I2C_MASTER.c **** *
   5:Generated_Source\PSoC5/I2C_MASTER.c **** * Description:
   6:Generated_Source\PSoC5/I2C_MASTER.c **** *  This file provides the source code of APIs for the I2C component master mode.
   7:Generated_Source\PSoC5/I2C_MASTER.c **** *
   8:Generated_Source\PSoC5/I2C_MASTER.c **** *******************************************************************************
   9:Generated_Source\PSoC5/I2C_MASTER.c **** * Copyright 2012-2015, Cypress Semiconductor Corporation. All rights reserved.
  10:Generated_Source\PSoC5/I2C_MASTER.c **** * You may use this file only in accordance with the license, terms, conditions,
  11:Generated_Source\PSoC5/I2C_MASTER.c **** * disclaimers, and limitations in the end user license agreement accompanying
  12:Generated_Source\PSoC5/I2C_MASTER.c **** * the software package with which this file was provided.
  13:Generated_Source\PSoC5/I2C_MASTER.c **** *******************************************************************************/
  14:Generated_Source\PSoC5/I2C_MASTER.c **** 
  15:Generated_Source\PSoC5/I2C_MASTER.c **** #include "I2C_PVT.h"
  16:Generated_Source\PSoC5/I2C_MASTER.c **** 
  17:Generated_Source\PSoC5/I2C_MASTER.c **** #if(I2C_MODE_MASTER_ENABLED)
  18:Generated_Source\PSoC5/I2C_MASTER.c **** 
  19:Generated_Source\PSoC5/I2C_MASTER.c **** /**********************************
  20:Generated_Source\PSoC5/I2C_MASTER.c **** *      System variables
  21:Generated_Source\PSoC5/I2C_MASTER.c **** **********************************/
  22:Generated_Source\PSoC5/I2C_MASTER.c **** 
ARM GAS  C:\Users\HPz420\AppData\Local\Temp\ccMm01Ag.s 			page 2


  23:Generated_Source\PSoC5/I2C_MASTER.c **** volatile uint8 I2C_mstrStatus;     /* Master Status byte  */
  24:Generated_Source\PSoC5/I2C_MASTER.c **** volatile uint8 I2C_mstrControl;    /* Master Control byte */
  25:Generated_Source\PSoC5/I2C_MASTER.c **** 
  26:Generated_Source\PSoC5/I2C_MASTER.c **** /* Transmit buffer variables */
  27:Generated_Source\PSoC5/I2C_MASTER.c **** volatile uint8 * I2C_mstrRdBufPtr;     /* Pointer to Master Read buffer */
  28:Generated_Source\PSoC5/I2C_MASTER.c **** volatile uint8   I2C_mstrRdBufSize;    /* Master Read buffer size       */
  29:Generated_Source\PSoC5/I2C_MASTER.c **** volatile uint8   I2C_mstrRdBufIndex;   /* Master Read buffer Index      */
  30:Generated_Source\PSoC5/I2C_MASTER.c **** 
  31:Generated_Source\PSoC5/I2C_MASTER.c **** /* Receive buffer variables */
  32:Generated_Source\PSoC5/I2C_MASTER.c **** volatile uint8 * I2C_mstrWrBufPtr;     /* Pointer to Master Write buffer */
  33:Generated_Source\PSoC5/I2C_MASTER.c **** volatile uint8   I2C_mstrWrBufSize;    /* Master Write buffer size       */
  34:Generated_Source\PSoC5/I2C_MASTER.c **** volatile uint8   I2C_mstrWrBufIndex;   /* Master Write buffer Index      */
  35:Generated_Source\PSoC5/I2C_MASTER.c **** 
  36:Generated_Source\PSoC5/I2C_MASTER.c **** 
  37:Generated_Source\PSoC5/I2C_MASTER.c **** /*******************************************************************************
  38:Generated_Source\PSoC5/I2C_MASTER.c **** * Function Name: I2C_MasterWriteBuf
  39:Generated_Source\PSoC5/I2C_MASTER.c **** ********************************************************************************
  40:Generated_Source\PSoC5/I2C_MASTER.c **** *
  41:Generated_Source\PSoC5/I2C_MASTER.c **** * Summary:
  42:Generated_Source\PSoC5/I2C_MASTER.c **** *  Automatically writes an entire buffer of data to a slave device. Once the
  43:Generated_Source\PSoC5/I2C_MASTER.c **** *  data transfer is initiated by this function, further data transfer is handled
  44:Generated_Source\PSoC5/I2C_MASTER.c **** *  by the included ISR in byte by byte mode.
  45:Generated_Source\PSoC5/I2C_MASTER.c **** *
  46:Generated_Source\PSoC5/I2C_MASTER.c **** * Parameters:
  47:Generated_Source\PSoC5/I2C_MASTER.c **** *  slaveAddr: 7-bit slave address.
  48:Generated_Source\PSoC5/I2C_MASTER.c **** *  xferData:  Pointer to buffer of data to be sent.
  49:Generated_Source\PSoC5/I2C_MASTER.c **** *  cnt:       Size of buffer to send.
  50:Generated_Source\PSoC5/I2C_MASTER.c **** *  mode:      Transfer mode defines: start or restart condition generation at
  51:Generated_Source\PSoC5/I2C_MASTER.c **** *             begin of the transfer and complete the transfer or halt before
  52:Generated_Source\PSoC5/I2C_MASTER.c **** *             generating a stop.
  53:Generated_Source\PSoC5/I2C_MASTER.c **** *
  54:Generated_Source\PSoC5/I2C_MASTER.c **** * Return:
  55:Generated_Source\PSoC5/I2C_MASTER.c **** *  Status error - Zero means no errors.
  56:Generated_Source\PSoC5/I2C_MASTER.c **** *
  57:Generated_Source\PSoC5/I2C_MASTER.c **** * Side Effects:
  58:Generated_Source\PSoC5/I2C_MASTER.c **** *  The included ISR will start a transfer after a start or restart condition is
  59:Generated_Source\PSoC5/I2C_MASTER.c **** *  generated.
  60:Generated_Source\PSoC5/I2C_MASTER.c **** *
  61:Generated_Source\PSoC5/I2C_MASTER.c **** * Global variables:
  62:Generated_Source\PSoC5/I2C_MASTER.c **** *  I2C_mstrStatus  - The global variable used to store a current
  63:Generated_Source\PSoC5/I2C_MASTER.c **** *                                 status of the I2C Master.
  64:Generated_Source\PSoC5/I2C_MASTER.c **** *  I2C_state       - The global variable used to store a current
  65:Generated_Source\PSoC5/I2C_MASTER.c **** *                                 state of the software FSM.
  66:Generated_Source\PSoC5/I2C_MASTER.c **** *  I2C_mstrControl - The global variable used to control the master
  67:Generated_Source\PSoC5/I2C_MASTER.c **** *                                 end of a transaction with or without Stop
  68:Generated_Source\PSoC5/I2C_MASTER.c **** *                                 generation.
  69:Generated_Source\PSoC5/I2C_MASTER.c **** *  I2C_mstrWrBufPtr - The global variable used to store a pointer
  70:Generated_Source\PSoC5/I2C_MASTER.c **** *                                  to the master write buffer.
  71:Generated_Source\PSoC5/I2C_MASTER.c **** *  I2C_mstrWrBufIndex - The global variable used to store current
  72:Generated_Source\PSoC5/I2C_MASTER.c **** *                                    index within the master write buffer.
  73:Generated_Source\PSoC5/I2C_MASTER.c **** *  I2C_mstrWrBufSize - The global variable used to store a master
  74:Generated_Source\PSoC5/I2C_MASTER.c **** *                                   write buffer size.
  75:Generated_Source\PSoC5/I2C_MASTER.c **** *
  76:Generated_Source\PSoC5/I2C_MASTER.c **** * Reentrant:
  77:Generated_Source\PSoC5/I2C_MASTER.c **** *  No
  78:Generated_Source\PSoC5/I2C_MASTER.c **** *
  79:Generated_Source\PSoC5/I2C_MASTER.c **** *******************************************************************************/
ARM GAS  C:\Users\HPz420\AppData\Local\Temp\ccMm01Ag.s 			page 3


  80:Generated_Source\PSoC5/I2C_MASTER.c **** uint8 I2C_MasterWriteBuf(uint8 slaveAddress, uint8 * wrData, uint8 cnt, uint8 mode)
  81:Generated_Source\PSoC5/I2C_MASTER.c ****       
  82:Generated_Source\PSoC5/I2C_MASTER.c **** {
  36              		.loc 1 82 0
  37              		.cfi_startproc
  38              		@ args = 0, pretend = 0, frame = 16
  39              		@ frame_needed = 1, uses_anonymous_args = 0
  40              		@ link register save eliminated.
  41 0000 80B4     		push	{r7}
  42              		.cfi_def_cfa_offset 4
  43              		.cfi_offset 7, -4
  44 0002 85B0     		sub	sp, sp, #20
  45              		.cfi_def_cfa_offset 24
  46 0004 00AF     		add	r7, sp, #0
  47              		.cfi_def_cfa_register 7
  48 0006 3960     		str	r1, [r7]
  49 0008 1146     		mov	r1, r2
  50 000a 1A46     		mov	r2, r3
  51 000c 0346     		mov	r3, r0
  52 000e FB71     		strb	r3, [r7, #7]
  53 0010 0B46     		mov	r3, r1
  54 0012 BB71     		strb	r3, [r7, #6]
  55 0014 1346     		mov	r3, r2
  56 0016 7B71     		strb	r3, [r7, #5]
  83:Generated_Source\PSoC5/I2C_MASTER.c ****     uint8 errStatus;
  84:Generated_Source\PSoC5/I2C_MASTER.c **** 
  85:Generated_Source\PSoC5/I2C_MASTER.c ****     errStatus = I2C_MSTR_NOT_READY;
  57              		.loc 1 85 0
  58 0018 0223     		movs	r3, #2
  59 001a FB73     		strb	r3, [r7, #15]
  86:Generated_Source\PSoC5/I2C_MASTER.c **** 
  87:Generated_Source\PSoC5/I2C_MASTER.c ****     if(NULL != wrData)
  60              		.loc 1 87 0
  61 001c 3B68     		ldr	r3, [r7]
  62 001e 002B     		cmp	r3, #0
  63 0020 56D0     		beq	.L2
  88:Generated_Source\PSoC5/I2C_MASTER.c ****     {
  89:Generated_Source\PSoC5/I2C_MASTER.c ****         /* Check I2C state to allow transfer: valid states are IDLE or HALT */
  90:Generated_Source\PSoC5/I2C_MASTER.c ****         if(I2C_SM_IDLE == I2C_state)
  64              		.loc 1 90 0
  65 0022 2E4B     		ldr	r3, .L10
  66 0024 1B78     		ldrb	r3, [r3]
  67 0026 DBB2     		uxtb	r3, r3
  68 0028 102B     		cmp	r3, #16
  69 002a 0CD1     		bne	.L3
  91:Generated_Source\PSoC5/I2C_MASTER.c ****         {
  92:Generated_Source\PSoC5/I2C_MASTER.c ****             /* Master is ready for transaction: check if bus is free */
  93:Generated_Source\PSoC5/I2C_MASTER.c ****             if(I2C_CHECK_BUS_FREE(I2C_MCSR_REG))
  70              		.loc 1 93 0
  71 002c 2C4B     		ldr	r3, .L10+4
  72 002e 1B78     		ldrb	r3, [r3]
  73 0030 DBB2     		uxtb	r3, r3
  74 0032 03F00803 		and	r3, r3, #8
  75 0036 002B     		cmp	r3, #0
  76 0038 02D1     		bne	.L4
  94:Generated_Source\PSoC5/I2C_MASTER.c ****             {
  95:Generated_Source\PSoC5/I2C_MASTER.c ****                 errStatus = I2C_MSTR_NO_ERROR;
ARM GAS  C:\Users\HPz420\AppData\Local\Temp\ccMm01Ag.s 			page 4


  77              		.loc 1 95 0
  78 003a 0023     		movs	r3, #0
  79 003c FB73     		strb	r3, [r7, #15]
  80 003e 15E0     		b	.L6
  81              	.L4:
  96:Generated_Source\PSoC5/I2C_MASTER.c ****             }
  97:Generated_Source\PSoC5/I2C_MASTER.c ****             else
  98:Generated_Source\PSoC5/I2C_MASTER.c ****             {
  99:Generated_Source\PSoC5/I2C_MASTER.c ****                 errStatus = I2C_MSTR_BUS_BUSY;
  82              		.loc 1 99 0
  83 0040 0123     		movs	r3, #1
  84 0042 FB73     		strb	r3, [r7, #15]
  85 0044 12E0     		b	.L6
  86              	.L3:
 100:Generated_Source\PSoC5/I2C_MASTER.c ****             }
 101:Generated_Source\PSoC5/I2C_MASTER.c ****         }
 102:Generated_Source\PSoC5/I2C_MASTER.c ****         else if(I2C_SM_MSTR_HALT == I2C_state)
  87              		.loc 1 102 0
  88 0046 254B     		ldr	r3, .L10
  89 0048 1B78     		ldrb	r3, [r3]
  90 004a DBB2     		uxtb	r3, r3
  91 004c 602B     		cmp	r3, #96
  92 004e 0DD1     		bne	.L6
 103:Generated_Source\PSoC5/I2C_MASTER.c ****         {
 104:Generated_Source\PSoC5/I2C_MASTER.c ****             /* Master is ready and waiting for ReStart */
 105:Generated_Source\PSoC5/I2C_MASTER.c ****             errStatus = I2C_MSTR_NO_ERROR;
  93              		.loc 1 105 0
  94 0050 0023     		movs	r3, #0
  95 0052 FB73     		strb	r3, [r7, #15]
 106:Generated_Source\PSoC5/I2C_MASTER.c **** 
 107:Generated_Source\PSoC5/I2C_MASTER.c ****             I2C_ClearPendingInt();
  96              		.loc 1 107 0
  97 0054 234B     		ldr	r3, .L10+8
  98 0056 4FF40042 		mov	r2, #32768
  99 005a 1A60     		str	r2, [r3]
 108:Generated_Source\PSoC5/I2C_MASTER.c ****             I2C_mstrStatus &= (uint8) ~I2C_MSTAT_XFER_HALT;
 100              		.loc 1 108 0
 101 005c 224B     		ldr	r3, .L10+12
 102 005e 1B78     		ldrb	r3, [r3]
 103 0060 DBB2     		uxtb	r3, r3
 104 0062 23F00803 		bic	r3, r3, #8
 105 0066 DAB2     		uxtb	r2, r3
 106 0068 1F4B     		ldr	r3, .L10+12
 107 006a 1A70     		strb	r2, [r3]
 108              	.L6:
 109:Generated_Source\PSoC5/I2C_MASTER.c ****         }
 110:Generated_Source\PSoC5/I2C_MASTER.c ****         else
 111:Generated_Source\PSoC5/I2C_MASTER.c ****         {
 112:Generated_Source\PSoC5/I2C_MASTER.c ****             /* errStatus = I2C_MSTR_NOT_READY was send before */
 113:Generated_Source\PSoC5/I2C_MASTER.c ****         }
 114:Generated_Source\PSoC5/I2C_MASTER.c **** 
 115:Generated_Source\PSoC5/I2C_MASTER.c ****         if(I2C_MSTR_NO_ERROR == errStatus)
 109              		.loc 1 115 0
 110 006c FB7B     		ldrb	r3, [r7, #15]	@ zero_extendqisi2
 111 006e 002B     		cmp	r3, #0
 112 0070 2ED1     		bne	.L2
 116:Generated_Source\PSoC5/I2C_MASTER.c ****         {
ARM GAS  C:\Users\HPz420\AppData\Local\Temp\ccMm01Ag.s 			page 5


 117:Generated_Source\PSoC5/I2C_MASTER.c ****             /* Set state to start write transaction */
 118:Generated_Source\PSoC5/I2C_MASTER.c ****             I2C_state = I2C_SM_MSTR_WR_ADDR;
 113              		.loc 1 118 0
 114 0072 1A4B     		ldr	r3, .L10
 115 0074 4522     		movs	r2, #69
 116 0076 1A70     		strb	r2, [r3]
 119:Generated_Source\PSoC5/I2C_MASTER.c **** 
 120:Generated_Source\PSoC5/I2C_MASTER.c ****             /* Prepare write buffer */
 121:Generated_Source\PSoC5/I2C_MASTER.c ****             I2C_mstrWrBufIndex = 0u;
 117              		.loc 1 121 0
 118 0078 1C4B     		ldr	r3, .L10+16
 119 007a 0022     		movs	r2, #0
 120 007c 1A70     		strb	r2, [r3]
 122:Generated_Source\PSoC5/I2C_MASTER.c ****             I2C_mstrWrBufSize  = cnt;
 121              		.loc 1 122 0
 122 007e 1C4A     		ldr	r2, .L10+20
 123 0080 BB79     		ldrb	r3, [r7, #6]
 124 0082 1370     		strb	r3, [r2]
 123:Generated_Source\PSoC5/I2C_MASTER.c ****             I2C_mstrWrBufPtr   = (volatile uint8 *) wrData;
 125              		.loc 1 123 0
 126 0084 1B4A     		ldr	r2, .L10+24
 127 0086 3B68     		ldr	r3, [r7]
 128 0088 1360     		str	r3, [r2]
 124:Generated_Source\PSoC5/I2C_MASTER.c **** 
 125:Generated_Source\PSoC5/I2C_MASTER.c ****             /* Set end of transaction flag: Stop or Halt (following ReStart) */
 126:Generated_Source\PSoC5/I2C_MASTER.c ****             I2C_mstrControl = mode;
 129              		.loc 1 126 0
 130 008a 1B4A     		ldr	r2, .L10+28
 131 008c 7B79     		ldrb	r3, [r7, #5]
 132 008e 1370     		strb	r3, [r2]
 127:Generated_Source\PSoC5/I2C_MASTER.c **** 
 128:Generated_Source\PSoC5/I2C_MASTER.c ****             /* Clear write status history */
 129:Generated_Source\PSoC5/I2C_MASTER.c ****             I2C_mstrStatus &= (uint8) ~I2C_MSTAT_WR_CMPLT;
 133              		.loc 1 129 0
 134 0090 154B     		ldr	r3, .L10+12
 135 0092 1B78     		ldrb	r3, [r3]
 136 0094 DBB2     		uxtb	r3, r3
 137 0096 23F00203 		bic	r3, r3, #2
 138 009a DAB2     		uxtb	r2, r3
 139 009c 124B     		ldr	r3, .L10+12
 140 009e 1A70     		strb	r2, [r3]
 130:Generated_Source\PSoC5/I2C_MASTER.c **** 
 131:Generated_Source\PSoC5/I2C_MASTER.c ****             /* Hardware actions: write address and generate Start or ReStart */
 132:Generated_Source\PSoC5/I2C_MASTER.c ****             I2C_DATA_REG = (uint8) (slaveAddress << I2C_SLAVE_ADDR_SHIFT);
 141              		.loc 1 132 0
 142 00a0 164A     		ldr	r2, .L10+32
 143 00a2 FB79     		ldrb	r3, [r7, #7]
 144 00a4 5B00     		lsls	r3, r3, #1
 145 00a6 DBB2     		uxtb	r3, r3
 146 00a8 1370     		strb	r3, [r2]
 133:Generated_Source\PSoC5/I2C_MASTER.c **** 
 134:Generated_Source\PSoC5/I2C_MASTER.c ****             if(I2C_CHECK_RESTART(mode))
 147              		.loc 1 134 0
 148 00aa 7B79     		ldrb	r3, [r7, #5]	@ zero_extendqisi2
 149 00ac 03F00103 		and	r3, r3, #1
 150 00b0 002B     		cmp	r3, #0
 151 00b2 06D0     		beq	.L7
ARM GAS  C:\Users\HPz420\AppData\Local\Temp\ccMm01Ag.s 			page 6


 135:Generated_Source\PSoC5/I2C_MASTER.c ****             {
 136:Generated_Source\PSoC5/I2C_MASTER.c ****                 I2C_GENERATE_RESTART;
 152              		.loc 1 136 0
 153 00b4 0A4B     		ldr	r3, .L10+4
 154 00b6 1222     		movs	r2, #18
 155 00b8 1A70     		strb	r2, [r3]
 156 00ba 114B     		ldr	r3, .L10+36
 157 00bc 0422     		movs	r2, #4
 158 00be 1A70     		strb	r2, [r3]
 159 00c0 02E0     		b	.L8
 160              	.L7:
 137:Generated_Source\PSoC5/I2C_MASTER.c ****             }
 138:Generated_Source\PSoC5/I2C_MASTER.c ****             else
 139:Generated_Source\PSoC5/I2C_MASTER.c ****             {
 140:Generated_Source\PSoC5/I2C_MASTER.c ****                 I2C_GENERATE_START;
 161              		.loc 1 140 0
 162 00c2 074B     		ldr	r3, .L10+4
 163 00c4 0122     		movs	r2, #1
 164 00c6 1A70     		strb	r2, [r3]
 165              	.L8:
 141:Generated_Source\PSoC5/I2C_MASTER.c ****             }
 142:Generated_Source\PSoC5/I2C_MASTER.c **** 
 143:Generated_Source\PSoC5/I2C_MASTER.c ****             /* Enable interrupt to complete transfer */
 144:Generated_Source\PSoC5/I2C_MASTER.c ****             I2C_EnableInt();
 166              		.loc 1 144 0
 167 00c8 0E4B     		ldr	r3, .L10+40
 168 00ca 4FF40042 		mov	r2, #32768
 169 00ce 1A60     		str	r2, [r3]
 170              	.L2:
 145:Generated_Source\PSoC5/I2C_MASTER.c ****         }
 146:Generated_Source\PSoC5/I2C_MASTER.c ****     }
 147:Generated_Source\PSoC5/I2C_MASTER.c **** 
 148:Generated_Source\PSoC5/I2C_MASTER.c ****     return(errStatus);
 171              		.loc 1 148 0
 172 00d0 FB7B     		ldrb	r3, [r7, #15]	@ zero_extendqisi2
 149:Generated_Source\PSoC5/I2C_MASTER.c **** }
 173              		.loc 1 149 0
 174 00d2 1846     		mov	r0, r3
 175 00d4 1437     		adds	r7, r7, #20
 176              		.cfi_def_cfa_offset 4
 177 00d6 BD46     		mov	sp, r7
 178              		.cfi_def_cfa_register 13
 179              		@ sp needed
 180 00d8 80BC     		pop	{r7}
 181              		.cfi_restore 7
 182              		.cfi_def_cfa_offset 0
 183 00da 7047     		bx	lr
 184              	.L11:
 185              		.align	2
 186              	.L10:
 187 00dc 00000000 		.word	I2C_state
 188 00e0 D9490040 		.word	1073760729
 189 00e4 80E200E0 		.word	-536812928
 190 00e8 00000000 		.word	I2C_mstrStatus
 191 00ec 00000000 		.word	I2C_mstrWrBufIndex
 192 00f0 00000000 		.word	I2C_mstrWrBufSize
 193 00f4 00000000 		.word	I2C_mstrWrBufPtr
ARM GAS  C:\Users\HPz420\AppData\Local\Temp\ccMm01Ag.s 			page 7


 194 00f8 00000000 		.word	I2C_mstrControl
 195 00fc D8490040 		.word	1073760728
 196 0100 D7490040 		.word	1073760727
 197 0104 00E100E0 		.word	-536813312
 198              		.cfi_endproc
 199              	.LFE0:
 200              		.size	I2C_MasterWriteBuf, .-I2C_MasterWriteBuf
 201              		.section	.text.I2C_MasterReadBuf,"ax",%progbits
 202              		.align	2
 203              		.global	I2C_MasterReadBuf
 204              		.thumb
 205              		.thumb_func
 206              		.type	I2C_MasterReadBuf, %function
 207              	I2C_MasterReadBuf:
 208              	.LFB1:
 150:Generated_Source\PSoC5/I2C_MASTER.c **** 
 151:Generated_Source\PSoC5/I2C_MASTER.c **** 
 152:Generated_Source\PSoC5/I2C_MASTER.c **** /*******************************************************************************
 153:Generated_Source\PSoC5/I2C_MASTER.c **** * Function Name: I2C_MasterReadBuf
 154:Generated_Source\PSoC5/I2C_MASTER.c **** ********************************************************************************
 155:Generated_Source\PSoC5/I2C_MASTER.c **** *
 156:Generated_Source\PSoC5/I2C_MASTER.c **** * Summary:
 157:Generated_Source\PSoC5/I2C_MASTER.c **** *  Automatically writes an entire buffer of data to a slave device. Once the
 158:Generated_Source\PSoC5/I2C_MASTER.c **** *  data transfer is initiated by this function, further data transfer is handled
 159:Generated_Source\PSoC5/I2C_MASTER.c **** *  by the included ISR in byte by byte mode.
 160:Generated_Source\PSoC5/I2C_MASTER.c **** *
 161:Generated_Source\PSoC5/I2C_MASTER.c **** * Parameters:
 162:Generated_Source\PSoC5/I2C_MASTER.c **** *  slaveAddr: 7-bit slave address.
 163:Generated_Source\PSoC5/I2C_MASTER.c **** *  xferData:  Pointer to buffer where to put data from slave.
 164:Generated_Source\PSoC5/I2C_MASTER.c **** *  cnt:       Size of buffer to read.
 165:Generated_Source\PSoC5/I2C_MASTER.c **** *  mode:      Transfer mode defines: start or restart condition generation at
 166:Generated_Source\PSoC5/I2C_MASTER.c **** *             begin of the transfer and complete the transfer or halt before
 167:Generated_Source\PSoC5/I2C_MASTER.c **** *             generating a stop.
 168:Generated_Source\PSoC5/I2C_MASTER.c **** *
 169:Generated_Source\PSoC5/I2C_MASTER.c **** * Return:
 170:Generated_Source\PSoC5/I2C_MASTER.c **** *  Status error - Zero means no errors.
 171:Generated_Source\PSoC5/I2C_MASTER.c **** *
 172:Generated_Source\PSoC5/I2C_MASTER.c **** * Side Effects:
 173:Generated_Source\PSoC5/I2C_MASTER.c **** *  The included ISR will start a transfer after start or restart condition is
 174:Generated_Source\PSoC5/I2C_MASTER.c **** *  generated.
 175:Generated_Source\PSoC5/I2C_MASTER.c **** *
 176:Generated_Source\PSoC5/I2C_MASTER.c **** * Global variables:
 177:Generated_Source\PSoC5/I2C_MASTER.c **** *  I2C_mstrStatus  - The global variable used to store a current
 178:Generated_Source\PSoC5/I2C_MASTER.c **** *                                 status of the I2C Master.
 179:Generated_Source\PSoC5/I2C_MASTER.c **** *  I2C_state       - The global variable used to store a current
 180:Generated_Source\PSoC5/I2C_MASTER.c **** *                                 state of the software FSM.
 181:Generated_Source\PSoC5/I2C_MASTER.c **** *  I2C_mstrControl - The global variable used to control the master
 182:Generated_Source\PSoC5/I2C_MASTER.c **** *                                 end of a transaction with or without
 183:Generated_Source\PSoC5/I2C_MASTER.c **** *                                 Stop generation.
 184:Generated_Source\PSoC5/I2C_MASTER.c **** *  I2C_mstrRdBufPtr - The global variable used to store a pointer
 185:Generated_Source\PSoC5/I2C_MASTER.c **** *                                  to the master write buffer.
 186:Generated_Source\PSoC5/I2C_MASTER.c **** *  I2C_mstrRdBufIndex - The global variable  used to store a
 187:Generated_Source\PSoC5/I2C_MASTER.c **** *                                    current index within the master
 188:Generated_Source\PSoC5/I2C_MASTER.c **** *                                    write buffer.
 189:Generated_Source\PSoC5/I2C_MASTER.c **** *  I2C_mstrRdBufSize - The global variable used to store a master
 190:Generated_Source\PSoC5/I2C_MASTER.c **** *                                   write buffer size.
 191:Generated_Source\PSoC5/I2C_MASTER.c **** *
ARM GAS  C:\Users\HPz420\AppData\Local\Temp\ccMm01Ag.s 			page 8


 192:Generated_Source\PSoC5/I2C_MASTER.c **** * Reentrant:
 193:Generated_Source\PSoC5/I2C_MASTER.c **** *  No.
 194:Generated_Source\PSoC5/I2C_MASTER.c **** *
 195:Generated_Source\PSoC5/I2C_MASTER.c **** *******************************************************************************/
 196:Generated_Source\PSoC5/I2C_MASTER.c **** uint8 I2C_MasterReadBuf(uint8 slaveAddress, uint8 * rdData, uint8 cnt, uint8 mode)
 197:Generated_Source\PSoC5/I2C_MASTER.c ****       
 198:Generated_Source\PSoC5/I2C_MASTER.c **** {
 209              		.loc 1 198 0
 210              		.cfi_startproc
 211              		@ args = 0, pretend = 0, frame = 16
 212              		@ frame_needed = 1, uses_anonymous_args = 0
 213              		@ link register save eliminated.
 214 0000 80B4     		push	{r7}
 215              		.cfi_def_cfa_offset 4
 216              		.cfi_offset 7, -4
 217 0002 85B0     		sub	sp, sp, #20
 218              		.cfi_def_cfa_offset 24
 219 0004 00AF     		add	r7, sp, #0
 220              		.cfi_def_cfa_register 7
 221 0006 3960     		str	r1, [r7]
 222 0008 1146     		mov	r1, r2
 223 000a 1A46     		mov	r2, r3
 224 000c 0346     		mov	r3, r0
 225 000e FB71     		strb	r3, [r7, #7]
 226 0010 0B46     		mov	r3, r1
 227 0012 BB71     		strb	r3, [r7, #6]
 228 0014 1346     		mov	r3, r2
 229 0016 7B71     		strb	r3, [r7, #5]
 199:Generated_Source\PSoC5/I2C_MASTER.c ****     uint8 errStatus;
 200:Generated_Source\PSoC5/I2C_MASTER.c **** 
 201:Generated_Source\PSoC5/I2C_MASTER.c ****     errStatus = I2C_MSTR_NOT_READY;
 230              		.loc 1 201 0
 231 0018 0223     		movs	r3, #2
 232 001a FB73     		strb	r3, [r7, #15]
 202:Generated_Source\PSoC5/I2C_MASTER.c **** 
 203:Generated_Source\PSoC5/I2C_MASTER.c ****     if(NULL != rdData)
 233              		.loc 1 203 0
 234 001c 3B68     		ldr	r3, [r7]
 235 001e 002B     		cmp	r3, #0
 236 0020 59D0     		beq	.L13
 204:Generated_Source\PSoC5/I2C_MASTER.c ****     {
 205:Generated_Source\PSoC5/I2C_MASTER.c ****         /* Check I2C state to allow transfer: valid states are IDLE or HALT */
 206:Generated_Source\PSoC5/I2C_MASTER.c ****         if(I2C_SM_IDLE == I2C_state)
 237              		.loc 1 206 0
 238 0022 304B     		ldr	r3, .L21
 239 0024 1B78     		ldrb	r3, [r3]
 240 0026 DBB2     		uxtb	r3, r3
 241 0028 102B     		cmp	r3, #16
 242 002a 0CD1     		bne	.L14
 207:Generated_Source\PSoC5/I2C_MASTER.c ****         {
 208:Generated_Source\PSoC5/I2C_MASTER.c ****             /* Master is ready to transaction: check if bus is free */
 209:Generated_Source\PSoC5/I2C_MASTER.c ****             if(I2C_CHECK_BUS_FREE(I2C_MCSR_REG))
 243              		.loc 1 209 0
 244 002c 2E4B     		ldr	r3, .L21+4
 245 002e 1B78     		ldrb	r3, [r3]
 246 0030 DBB2     		uxtb	r3, r3
 247 0032 03F00803 		and	r3, r3, #8
ARM GAS  C:\Users\HPz420\AppData\Local\Temp\ccMm01Ag.s 			page 9


 248 0036 002B     		cmp	r3, #0
 249 0038 02D1     		bne	.L15
 210:Generated_Source\PSoC5/I2C_MASTER.c ****             {
 211:Generated_Source\PSoC5/I2C_MASTER.c ****                 errStatus = I2C_MSTR_NO_ERROR;
 250              		.loc 1 211 0
 251 003a 0023     		movs	r3, #0
 252 003c FB73     		strb	r3, [r7, #15]
 253 003e 15E0     		b	.L17
 254              	.L15:
 212:Generated_Source\PSoC5/I2C_MASTER.c ****             }
 213:Generated_Source\PSoC5/I2C_MASTER.c ****             else
 214:Generated_Source\PSoC5/I2C_MASTER.c ****             {
 215:Generated_Source\PSoC5/I2C_MASTER.c ****                 errStatus = I2C_MSTR_BUS_BUSY;
 255              		.loc 1 215 0
 256 0040 0123     		movs	r3, #1
 257 0042 FB73     		strb	r3, [r7, #15]
 258 0044 12E0     		b	.L17
 259              	.L14:
 216:Generated_Source\PSoC5/I2C_MASTER.c ****             }
 217:Generated_Source\PSoC5/I2C_MASTER.c ****         }
 218:Generated_Source\PSoC5/I2C_MASTER.c ****         else if(I2C_SM_MSTR_HALT == I2C_state)
 260              		.loc 1 218 0
 261 0046 274B     		ldr	r3, .L21
 262 0048 1B78     		ldrb	r3, [r3]
 263 004a DBB2     		uxtb	r3, r3
 264 004c 602B     		cmp	r3, #96
 265 004e 0DD1     		bne	.L17
 219:Generated_Source\PSoC5/I2C_MASTER.c ****         {
 220:Generated_Source\PSoC5/I2C_MASTER.c ****             /* Master is ready and waiting for ReStart */
 221:Generated_Source\PSoC5/I2C_MASTER.c ****             errStatus = I2C_MSTR_NO_ERROR;
 266              		.loc 1 221 0
 267 0050 0023     		movs	r3, #0
 268 0052 FB73     		strb	r3, [r7, #15]
 222:Generated_Source\PSoC5/I2C_MASTER.c **** 
 223:Generated_Source\PSoC5/I2C_MASTER.c ****             I2C_ClearPendingInt();
 269              		.loc 1 223 0
 270 0054 254B     		ldr	r3, .L21+8
 271 0056 4FF40042 		mov	r2, #32768
 272 005a 1A60     		str	r2, [r3]
 224:Generated_Source\PSoC5/I2C_MASTER.c ****             I2C_mstrStatus &= (uint8) ~I2C_MSTAT_XFER_HALT;
 273              		.loc 1 224 0
 274 005c 244B     		ldr	r3, .L21+12
 275 005e 1B78     		ldrb	r3, [r3]
 276 0060 DBB2     		uxtb	r3, r3
 277 0062 23F00803 		bic	r3, r3, #8
 278 0066 DAB2     		uxtb	r2, r3
 279 0068 214B     		ldr	r3, .L21+12
 280 006a 1A70     		strb	r2, [r3]
 281              	.L17:
 225:Generated_Source\PSoC5/I2C_MASTER.c ****         }
 226:Generated_Source\PSoC5/I2C_MASTER.c ****         else
 227:Generated_Source\PSoC5/I2C_MASTER.c ****         {
 228:Generated_Source\PSoC5/I2C_MASTER.c ****             /* errStatus = I2C_MSTR_NOT_READY was set before */
 229:Generated_Source\PSoC5/I2C_MASTER.c ****         }
 230:Generated_Source\PSoC5/I2C_MASTER.c **** 
 231:Generated_Source\PSoC5/I2C_MASTER.c ****         if(I2C_MSTR_NO_ERROR == errStatus)
 282              		.loc 1 231 0
ARM GAS  C:\Users\HPz420\AppData\Local\Temp\ccMm01Ag.s 			page 10


 283 006c FB7B     		ldrb	r3, [r7, #15]	@ zero_extendqisi2
 284 006e 002B     		cmp	r3, #0
 285 0070 31D1     		bne	.L13
 232:Generated_Source\PSoC5/I2C_MASTER.c ****         {
 233:Generated_Source\PSoC5/I2C_MASTER.c ****             /* Set state to start write transaction */
 234:Generated_Source\PSoC5/I2C_MASTER.c ****             I2C_state = I2C_SM_MSTR_RD_ADDR;
 286              		.loc 1 234 0
 287 0072 1C4B     		ldr	r3, .L21
 288 0074 4922     		movs	r2, #73
 289 0076 1A70     		strb	r2, [r3]
 235:Generated_Source\PSoC5/I2C_MASTER.c **** 
 236:Generated_Source\PSoC5/I2C_MASTER.c ****             /* Prepare read buffer */
 237:Generated_Source\PSoC5/I2C_MASTER.c ****             I2C_mstrRdBufIndex  = 0u;
 290              		.loc 1 237 0
 291 0078 1E4B     		ldr	r3, .L21+16
 292 007a 0022     		movs	r2, #0
 293 007c 1A70     		strb	r2, [r3]
 238:Generated_Source\PSoC5/I2C_MASTER.c ****             I2C_mstrRdBufSize   = cnt;
 294              		.loc 1 238 0
 295 007e 1E4A     		ldr	r2, .L21+20
 296 0080 BB79     		ldrb	r3, [r7, #6]
 297 0082 1370     		strb	r3, [r2]
 239:Generated_Source\PSoC5/I2C_MASTER.c ****             I2C_mstrRdBufPtr    = (volatile uint8 *) rdData;
 298              		.loc 1 239 0
 299 0084 1D4A     		ldr	r2, .L21+24
 300 0086 3B68     		ldr	r3, [r7]
 301 0088 1360     		str	r3, [r2]
 240:Generated_Source\PSoC5/I2C_MASTER.c **** 
 241:Generated_Source\PSoC5/I2C_MASTER.c ****             /* Set end of transaction flag: Stop or Halt (following ReStart) */
 242:Generated_Source\PSoC5/I2C_MASTER.c ****             I2C_mstrControl = mode;
 302              		.loc 1 242 0
 303 008a 1D4A     		ldr	r2, .L21+28
 304 008c 7B79     		ldrb	r3, [r7, #5]
 305 008e 1370     		strb	r3, [r2]
 243:Generated_Source\PSoC5/I2C_MASTER.c **** 
 244:Generated_Source\PSoC5/I2C_MASTER.c ****             /* Clear read status history */
 245:Generated_Source\PSoC5/I2C_MASTER.c ****             I2C_mstrStatus &= (uint8) ~I2C_MSTAT_RD_CMPLT;
 306              		.loc 1 245 0
 307 0090 174B     		ldr	r3, .L21+12
 308 0092 1B78     		ldrb	r3, [r3]
 309 0094 DBB2     		uxtb	r3, r3
 310 0096 23F00103 		bic	r3, r3, #1
 311 009a DAB2     		uxtb	r2, r3
 312 009c 144B     		ldr	r3, .L21+12
 313 009e 1A70     		strb	r2, [r3]
 246:Generated_Source\PSoC5/I2C_MASTER.c **** 
 247:Generated_Source\PSoC5/I2C_MASTER.c ****             /* Hardware actions: write address and generate Start or ReStart */
 248:Generated_Source\PSoC5/I2C_MASTER.c ****             I2C_DATA_REG = ((uint8) (slaveAddress << I2C_SLAVE_ADDR_SHIFT) |
 314              		.loc 1 248 0
 315 00a0 184A     		ldr	r2, .L21+32
 316 00a2 FB79     		ldrb	r3, [r7, #7]
 317 00a4 5B00     		lsls	r3, r3, #1
 318 00a6 DBB2     		uxtb	r3, r3
 319 00a8 43F00103 		orr	r3, r3, #1
 320 00ac DBB2     		uxtb	r3, r3
 321 00ae 1370     		strb	r3, [r2]
 249:Generated_Source\PSoC5/I2C_MASTER.c ****                                                   I2C_READ_FLAG);
ARM GAS  C:\Users\HPz420\AppData\Local\Temp\ccMm01Ag.s 			page 11


 250:Generated_Source\PSoC5/I2C_MASTER.c **** 
 251:Generated_Source\PSoC5/I2C_MASTER.c ****             if(I2C_CHECK_RESTART(mode))
 322              		.loc 1 251 0
 323 00b0 7B79     		ldrb	r3, [r7, #5]	@ zero_extendqisi2
 324 00b2 03F00103 		and	r3, r3, #1
 325 00b6 002B     		cmp	r3, #0
 326 00b8 06D0     		beq	.L18
 252:Generated_Source\PSoC5/I2C_MASTER.c ****             {
 253:Generated_Source\PSoC5/I2C_MASTER.c ****                 I2C_GENERATE_RESTART;
 327              		.loc 1 253 0
 328 00ba 0B4B     		ldr	r3, .L21+4
 329 00bc 1222     		movs	r2, #18
 330 00be 1A70     		strb	r2, [r3]
 331 00c0 114B     		ldr	r3, .L21+36
 332 00c2 0422     		movs	r2, #4
 333 00c4 1A70     		strb	r2, [r3]
 334 00c6 02E0     		b	.L19
 335              	.L18:
 254:Generated_Source\PSoC5/I2C_MASTER.c ****             }
 255:Generated_Source\PSoC5/I2C_MASTER.c ****             else
 256:Generated_Source\PSoC5/I2C_MASTER.c ****             {
 257:Generated_Source\PSoC5/I2C_MASTER.c ****                 I2C_GENERATE_START;
 336              		.loc 1 257 0
 337 00c8 074B     		ldr	r3, .L21+4
 338 00ca 0122     		movs	r2, #1
 339 00cc 1A70     		strb	r2, [r3]
 340              	.L19:
 258:Generated_Source\PSoC5/I2C_MASTER.c ****             }
 259:Generated_Source\PSoC5/I2C_MASTER.c **** 
 260:Generated_Source\PSoC5/I2C_MASTER.c ****             /* Enable interrupt to complete transfer */
 261:Generated_Source\PSoC5/I2C_MASTER.c ****             I2C_EnableInt();
 341              		.loc 1 261 0
 342 00ce 0F4B     		ldr	r3, .L21+40
 343 00d0 4FF40042 		mov	r2, #32768
 344 00d4 1A60     		str	r2, [r3]
 345              	.L13:
 262:Generated_Source\PSoC5/I2C_MASTER.c ****         }
 263:Generated_Source\PSoC5/I2C_MASTER.c ****     }
 264:Generated_Source\PSoC5/I2C_MASTER.c **** 
 265:Generated_Source\PSoC5/I2C_MASTER.c ****     return(errStatus);
 346              		.loc 1 265 0
 347 00d6 FB7B     		ldrb	r3, [r7, #15]	@ zero_extendqisi2
 266:Generated_Source\PSoC5/I2C_MASTER.c **** }
 348              		.loc 1 266 0
 349 00d8 1846     		mov	r0, r3
 350 00da 1437     		adds	r7, r7, #20
 351              		.cfi_def_cfa_offset 4
 352 00dc BD46     		mov	sp, r7
 353              		.cfi_def_cfa_register 13
 354              		@ sp needed
 355 00de 80BC     		pop	{r7}
 356              		.cfi_restore 7
 357              		.cfi_def_cfa_offset 0
 358 00e0 7047     		bx	lr
 359              	.L22:
 360 00e2 00BF     		.align	2
 361              	.L21:
ARM GAS  C:\Users\HPz420\AppData\Local\Temp\ccMm01Ag.s 			page 12


 362 00e4 00000000 		.word	I2C_state
 363 00e8 D9490040 		.word	1073760729
 364 00ec 80E200E0 		.word	-536812928
 365 00f0 00000000 		.word	I2C_mstrStatus
 366 00f4 00000000 		.word	I2C_mstrRdBufIndex
 367 00f8 00000000 		.word	I2C_mstrRdBufSize
 368 00fc 00000000 		.word	I2C_mstrRdBufPtr
 369 0100 00000000 		.word	I2C_mstrControl
 370 0104 D8490040 		.word	1073760728
 371 0108 D7490040 		.word	1073760727
 372 010c 00E100E0 		.word	-536813312
 373              		.cfi_endproc
 374              	.LFE1:
 375              		.size	I2C_MasterReadBuf, .-I2C_MasterReadBuf
 376              		.section	.text.I2C_MasterSendStart,"ax",%progbits
 377              		.align	2
 378              		.global	I2C_MasterSendStart
 379              		.thumb
 380              		.thumb_func
 381              		.type	I2C_MasterSendStart, %function
 382              	I2C_MasterSendStart:
 383              	.LFB2:
 267:Generated_Source\PSoC5/I2C_MASTER.c **** 
 268:Generated_Source\PSoC5/I2C_MASTER.c **** 
 269:Generated_Source\PSoC5/I2C_MASTER.c **** /*******************************************************************************
 270:Generated_Source\PSoC5/I2C_MASTER.c **** * Function Name: I2C_MasterSendStart
 271:Generated_Source\PSoC5/I2C_MASTER.c **** ********************************************************************************
 272:Generated_Source\PSoC5/I2C_MASTER.c **** *
 273:Generated_Source\PSoC5/I2C_MASTER.c **** * Summary:
 274:Generated_Source\PSoC5/I2C_MASTER.c **** *  Generates Start condition and sends slave address with read/write bit.
 275:Generated_Source\PSoC5/I2C_MASTER.c **** *
 276:Generated_Source\PSoC5/I2C_MASTER.c **** * Parameters:
 277:Generated_Source\PSoC5/I2C_MASTER.c **** *  slaveAddress:  7-bit slave address.
 278:Generated_Source\PSoC5/I2C_MASTER.c **** *  R_nW:          Zero, send write command, non-zero send read command.
 279:Generated_Source\PSoC5/I2C_MASTER.c **** *
 280:Generated_Source\PSoC5/I2C_MASTER.c **** * Return:
 281:Generated_Source\PSoC5/I2C_MASTER.c **** *  Status error - Zero means no errors.
 282:Generated_Source\PSoC5/I2C_MASTER.c **** *
 283:Generated_Source\PSoC5/I2C_MASTER.c **** * Side Effects:
 284:Generated_Source\PSoC5/I2C_MASTER.c **** *  This function is entered without a "byte complete" bit set in the I2C_CSR
 285:Generated_Source\PSoC5/I2C_MASTER.c **** *  register. It does not exit until it is set.
 286:Generated_Source\PSoC5/I2C_MASTER.c **** *
 287:Generated_Source\PSoC5/I2C_MASTER.c **** * Global variables:
 288:Generated_Source\PSoC5/I2C_MASTER.c **** *  I2C_state - The global variable used to store a current state of
 289:Generated_Source\PSoC5/I2C_MASTER.c **** *                           the software FSM.
 290:Generated_Source\PSoC5/I2C_MASTER.c **** *
 291:Generated_Source\PSoC5/I2C_MASTER.c **** * Reentrant:
 292:Generated_Source\PSoC5/I2C_MASTER.c **** *  No.
 293:Generated_Source\PSoC5/I2C_MASTER.c **** *
 294:Generated_Source\PSoC5/I2C_MASTER.c **** *******************************************************************************/
 295:Generated_Source\PSoC5/I2C_MASTER.c **** uint8 I2C_MasterSendStart(uint8 slaveAddress, uint8 R_nW)
 296:Generated_Source\PSoC5/I2C_MASTER.c ****       
 297:Generated_Source\PSoC5/I2C_MASTER.c **** {
 384              		.loc 1 297 0
 385              		.cfi_startproc
 386              		@ args = 0, pretend = 0, frame = 16
 387              		@ frame_needed = 1, uses_anonymous_args = 0
ARM GAS  C:\Users\HPz420\AppData\Local\Temp\ccMm01Ag.s 			page 13


 388              		@ link register save eliminated.
 389 0000 80B4     		push	{r7}
 390              		.cfi_def_cfa_offset 4
 391              		.cfi_offset 7, -4
 392 0002 85B0     		sub	sp, sp, #20
 393              		.cfi_def_cfa_offset 24
 394 0004 00AF     		add	r7, sp, #0
 395              		.cfi_def_cfa_register 7
 396 0006 0346     		mov	r3, r0
 397 0008 0A46     		mov	r2, r1
 398 000a FB71     		strb	r3, [r7, #7]
 399 000c 1346     		mov	r3, r2
 400 000e BB71     		strb	r3, [r7, #6]
 298:Generated_Source\PSoC5/I2C_MASTER.c ****     uint8 errStatus;
 299:Generated_Source\PSoC5/I2C_MASTER.c **** 
 300:Generated_Source\PSoC5/I2C_MASTER.c ****     errStatus = I2C_MSTR_NOT_READY;
 401              		.loc 1 300 0
 402 0010 0223     		movs	r3, #2
 403 0012 FB73     		strb	r3, [r7, #15]
 301:Generated_Source\PSoC5/I2C_MASTER.c **** 
 302:Generated_Source\PSoC5/I2C_MASTER.c ****     /* If IDLE, check if bus is free */
 303:Generated_Source\PSoC5/I2C_MASTER.c ****     if(I2C_SM_IDLE == I2C_state)
 404              		.loc 1 303 0
 405 0014 234B     		ldr	r3, .L32
 406 0016 1B78     		ldrb	r3, [r3]
 407 0018 DBB2     		uxtb	r3, r3
 408 001a 102B     		cmp	r3, #16
 409 001c 3CD1     		bne	.L24
 304:Generated_Source\PSoC5/I2C_MASTER.c ****     {
 305:Generated_Source\PSoC5/I2C_MASTER.c ****         /* If bus is free, generate Start condition */
 306:Generated_Source\PSoC5/I2C_MASTER.c ****         if(I2C_CHECK_BUS_FREE(I2C_MCSR_REG))
 410              		.loc 1 306 0
 411 001e 224B     		ldr	r3, .L32+4
 412 0020 1B78     		ldrb	r3, [r3]
 413 0022 DBB2     		uxtb	r3, r3
 414 0024 03F00803 		and	r3, r3, #8
 415 0028 002B     		cmp	r3, #0
 416 002a 33D1     		bne	.L25
 307:Generated_Source\PSoC5/I2C_MASTER.c ****         {
 308:Generated_Source\PSoC5/I2C_MASTER.c ****             /* Disable interrupt for manual master operation */
 309:Generated_Source\PSoC5/I2C_MASTER.c ****             I2C_DisableInt();
 417              		.loc 1 309 0
 418 002c 1F4B     		ldr	r3, .L32+8
 419 002e 4FF40042 		mov	r2, #32768
 420 0032 1A60     		str	r2, [r3]
 310:Generated_Source\PSoC5/I2C_MASTER.c **** 
 311:Generated_Source\PSoC5/I2C_MASTER.c ****             /* Set address and read/write flag */
 312:Generated_Source\PSoC5/I2C_MASTER.c ****             slaveAddress = (uint8) (slaveAddress << I2C_SLAVE_ADDR_SHIFT);
 421              		.loc 1 312 0
 422 0034 FB79     		ldrb	r3, [r7, #7]
 423 0036 5B00     		lsls	r3, r3, #1
 424 0038 FB71     		strb	r3, [r7, #7]
 313:Generated_Source\PSoC5/I2C_MASTER.c ****             if(0u != R_nW)
 425              		.loc 1 313 0
 426 003a BB79     		ldrb	r3, [r7, #6]	@ zero_extendqisi2
 427 003c 002B     		cmp	r3, #0
 428 003e 07D0     		beq	.L26
ARM GAS  C:\Users\HPz420\AppData\Local\Temp\ccMm01Ag.s 			page 14


 314:Generated_Source\PSoC5/I2C_MASTER.c ****             {
 315:Generated_Source\PSoC5/I2C_MASTER.c ****                 slaveAddress |= I2C_READ_FLAG;
 429              		.loc 1 315 0
 430 0040 FB79     		ldrb	r3, [r7, #7]
 431 0042 43F00103 		orr	r3, r3, #1
 432 0046 FB71     		strb	r3, [r7, #7]
 316:Generated_Source\PSoC5/I2C_MASTER.c ****                 I2C_state = I2C_SM_MSTR_RD_ADDR;
 433              		.loc 1 316 0
 434 0048 164B     		ldr	r3, .L32
 435 004a 4922     		movs	r2, #73
 436 004c 1A70     		strb	r2, [r3]
 437 004e 02E0     		b	.L27
 438              	.L26:
 317:Generated_Source\PSoC5/I2C_MASTER.c ****             }
 318:Generated_Source\PSoC5/I2C_MASTER.c ****             else
 319:Generated_Source\PSoC5/I2C_MASTER.c ****             {
 320:Generated_Source\PSoC5/I2C_MASTER.c ****                 I2C_state = I2C_SM_MSTR_WR_ADDR;
 439              		.loc 1 320 0
 440 0050 144B     		ldr	r3, .L32
 441 0052 4522     		movs	r2, #69
 442 0054 1A70     		strb	r2, [r3]
 443              	.L27:
 321:Generated_Source\PSoC5/I2C_MASTER.c ****             }
 322:Generated_Source\PSoC5/I2C_MASTER.c **** 
 323:Generated_Source\PSoC5/I2C_MASTER.c ****             /* Hardware actions: write address and generate Start */
 324:Generated_Source\PSoC5/I2C_MASTER.c ****             I2C_DATA_REG = slaveAddress;
 444              		.loc 1 324 0
 445 0056 164A     		ldr	r2, .L32+12
 446 0058 FB79     		ldrb	r3, [r7, #7]
 447 005a 1370     		strb	r3, [r2]
 325:Generated_Source\PSoC5/I2C_MASTER.c ****             I2C_GENERATE_START_MANUAL;
 448              		.loc 1 325 0
 449 005c 124B     		ldr	r3, .L32+4
 450 005e 0122     		movs	r2, #1
 451 0060 1A70     		strb	r2, [r3]
 326:Generated_Source\PSoC5/I2C_MASTER.c **** 
 327:Generated_Source\PSoC5/I2C_MASTER.c ****             /* Wait until address is transferred */
 328:Generated_Source\PSoC5/I2C_MASTER.c ****             while(I2C_WAIT_BYTE_COMPLETE(I2C_CSR_REG))
 452              		.loc 1 328 0
 453 0062 00BF     		nop
 454              	.L28:
 455              		.loc 1 328 0 is_stmt 0 discriminator 1
 456 0064 134B     		ldr	r3, .L32+16
 457 0066 1B78     		ldrb	r3, [r3]
 458 0068 DBB2     		uxtb	r3, r3
 459 006a 03F00103 		and	r3, r3, #1
 460 006e 002B     		cmp	r3, #0
 461 0070 F8D0     		beq	.L28
 329:Generated_Source\PSoC5/I2C_MASTER.c ****             {
 330:Generated_Source\PSoC5/I2C_MASTER.c ****             }
 331:Generated_Source\PSoC5/I2C_MASTER.c **** 
 332:Generated_Source\PSoC5/I2C_MASTER.c ****         #if(I2C_MODE_MULTI_MASTER_SLAVE_ENABLED)
 333:Generated_Source\PSoC5/I2C_MASTER.c ****             if(I2C_CHECK_START_GEN(I2C_MCSR_REG))
 334:Generated_Source\PSoC5/I2C_MASTER.c ****             {
 335:Generated_Source\PSoC5/I2C_MASTER.c ****                 I2C_CLEAR_START_GEN;
 336:Generated_Source\PSoC5/I2C_MASTER.c **** 
 337:Generated_Source\PSoC5/I2C_MASTER.c ****                 /* Start condition was not generated: reset FSM to IDLE */
ARM GAS  C:\Users\HPz420\AppData\Local\Temp\ccMm01Ag.s 			page 15


 338:Generated_Source\PSoC5/I2C_MASTER.c ****                 I2C_state = I2C_SM_IDLE;
 339:Generated_Source\PSoC5/I2C_MASTER.c ****                 errStatus = I2C_MSTR_ERR_ABORT_START_GEN;
 340:Generated_Source\PSoC5/I2C_MASTER.c ****             }
 341:Generated_Source\PSoC5/I2C_MASTER.c ****             else
 342:Generated_Source\PSoC5/I2C_MASTER.c ****         #endif /* (I2C_MODE_MULTI_MASTER_SLAVE_ENABLED) */
 343:Generated_Source\PSoC5/I2C_MASTER.c **** 
 344:Generated_Source\PSoC5/I2C_MASTER.c ****         #if(I2C_MODE_MULTI_MASTER_ENABLED)
 345:Generated_Source\PSoC5/I2C_MASTER.c ****             if(I2C_CHECK_LOST_ARB(I2C_CSR_REG))
 346:Generated_Source\PSoC5/I2C_MASTER.c ****             {
 347:Generated_Source\PSoC5/I2C_MASTER.c ****                 I2C_BUS_RELEASE_MANUAL;
 348:Generated_Source\PSoC5/I2C_MASTER.c **** 
 349:Generated_Source\PSoC5/I2C_MASTER.c ****                 /* Master lost arbitrage: reset FSM to IDLE */
 350:Generated_Source\PSoC5/I2C_MASTER.c ****                 I2C_state = I2C_SM_IDLE;
 351:Generated_Source\PSoC5/I2C_MASTER.c ****                 errStatus = I2C_MSTR_ERR_ARB_LOST;
 352:Generated_Source\PSoC5/I2C_MASTER.c ****             }
 353:Generated_Source\PSoC5/I2C_MASTER.c ****             else
 354:Generated_Source\PSoC5/I2C_MASTER.c ****         #endif /* (I2C_MODE_MULTI_MASTER_ENABLED) */
 355:Generated_Source\PSoC5/I2C_MASTER.c **** 
 356:Generated_Source\PSoC5/I2C_MASTER.c ****             if(I2C_CHECK_ADDR_NAK(I2C_CSR_REG))
 462              		.loc 1 356 0 is_stmt 1
 463 0072 104B     		ldr	r3, .L32+16
 464 0074 1B78     		ldrb	r3, [r3]
 465 0076 DBB2     		uxtb	r3, r3
 466 0078 03F00A03 		and	r3, r3, #10
 467 007c DBB2     		uxtb	r3, r3
 468 007e 0A2B     		cmp	r3, #10
 469 0080 05D1     		bne	.L29
 357:Generated_Source\PSoC5/I2C_MASTER.c ****             {
 358:Generated_Source\PSoC5/I2C_MASTER.c ****                 /* Address has been NACKed: reset FSM to IDLE */
 359:Generated_Source\PSoC5/I2C_MASTER.c ****                 I2C_state = I2C_SM_IDLE;
 470              		.loc 1 359 0
 471 0082 084B     		ldr	r3, .L32
 472 0084 1022     		movs	r2, #16
 473 0086 1A70     		strb	r2, [r3]
 360:Generated_Source\PSoC5/I2C_MASTER.c ****                 errStatus = I2C_MSTR_ERR_LB_NAK;
 474              		.loc 1 360 0
 475 0088 0323     		movs	r3, #3
 476 008a FB73     		strb	r3, [r7, #15]
 477 008c 04E0     		b	.L24
 478              	.L29:
 361:Generated_Source\PSoC5/I2C_MASTER.c ****             }
 362:Generated_Source\PSoC5/I2C_MASTER.c ****             else
 363:Generated_Source\PSoC5/I2C_MASTER.c ****             {
 364:Generated_Source\PSoC5/I2C_MASTER.c ****                 /* Start was sent without errors */
 365:Generated_Source\PSoC5/I2C_MASTER.c ****                 errStatus = I2C_MSTR_NO_ERROR;
 479              		.loc 1 365 0
 480 008e 0023     		movs	r3, #0
 481 0090 FB73     		strb	r3, [r7, #15]
 482 0092 01E0     		b	.L24
 483              	.L25:
 366:Generated_Source\PSoC5/I2C_MASTER.c ****             }
 367:Generated_Source\PSoC5/I2C_MASTER.c ****         }
 368:Generated_Source\PSoC5/I2C_MASTER.c ****         else
 369:Generated_Source\PSoC5/I2C_MASTER.c ****         {
 370:Generated_Source\PSoC5/I2C_MASTER.c ****             errStatus = I2C_MSTR_BUS_BUSY;
 484              		.loc 1 370 0
 485 0094 0123     		movs	r3, #1
ARM GAS  C:\Users\HPz420\AppData\Local\Temp\ccMm01Ag.s 			page 16


 486 0096 FB73     		strb	r3, [r7, #15]
 487              	.L24:
 371:Generated_Source\PSoC5/I2C_MASTER.c ****         }
 372:Generated_Source\PSoC5/I2C_MASTER.c ****     }
 373:Generated_Source\PSoC5/I2C_MASTER.c **** 
 374:Generated_Source\PSoC5/I2C_MASTER.c ****     return(errStatus);
 488              		.loc 1 374 0
 489 0098 FB7B     		ldrb	r3, [r7, #15]	@ zero_extendqisi2
 375:Generated_Source\PSoC5/I2C_MASTER.c **** }
 490              		.loc 1 375 0
 491 009a 1846     		mov	r0, r3
 492 009c 1437     		adds	r7, r7, #20
 493              		.cfi_def_cfa_offset 4
 494 009e BD46     		mov	sp, r7
 495              		.cfi_def_cfa_register 13
 496              		@ sp needed
 497 00a0 80BC     		pop	{r7}
 498              		.cfi_restore 7
 499              		.cfi_def_cfa_offset 0
 500 00a2 7047     		bx	lr
 501              	.L33:
 502              		.align	2
 503              	.L32:
 504 00a4 00000000 		.word	I2C_state
 505 00a8 D9490040 		.word	1073760729
 506 00ac 80E100E0 		.word	-536813184
 507 00b0 D8490040 		.word	1073760728
 508 00b4 D7490040 		.word	1073760727
 509              		.cfi_endproc
 510              	.LFE2:
 511              		.size	I2C_MasterSendStart, .-I2C_MasterSendStart
 512              		.section	.text.I2C_MasterSendRestart,"ax",%progbits
 513              		.align	2
 514              		.global	I2C_MasterSendRestart
 515              		.thumb
 516              		.thumb_func
 517              		.type	I2C_MasterSendRestart, %function
 518              	I2C_MasterSendRestart:
 519              	.LFB3:
 376:Generated_Source\PSoC5/I2C_MASTER.c **** 
 377:Generated_Source\PSoC5/I2C_MASTER.c **** 
 378:Generated_Source\PSoC5/I2C_MASTER.c **** /*******************************************************************************
 379:Generated_Source\PSoC5/I2C_MASTER.c **** * Function Name: I2C_MasterSendRestart
 380:Generated_Source\PSoC5/I2C_MASTER.c **** ********************************************************************************
 381:Generated_Source\PSoC5/I2C_MASTER.c **** *
 382:Generated_Source\PSoC5/I2C_MASTER.c **** * Summary:
 383:Generated_Source\PSoC5/I2C_MASTER.c **** *  Generates ReStart condition and sends slave address with read/write bit.
 384:Generated_Source\PSoC5/I2C_MASTER.c **** *
 385:Generated_Source\PSoC5/I2C_MASTER.c **** * Parameters:
 386:Generated_Source\PSoC5/I2C_MASTER.c **** *  slaveAddress:  7-bit slave address.
 387:Generated_Source\PSoC5/I2C_MASTER.c **** *  R_nW:          Zero, send write command, non-zero send read command.
 388:Generated_Source\PSoC5/I2C_MASTER.c **** *
 389:Generated_Source\PSoC5/I2C_MASTER.c **** * Return:
 390:Generated_Source\PSoC5/I2C_MASTER.c **** *  Status error - Zero means no errors.
 391:Generated_Source\PSoC5/I2C_MASTER.c **** *
 392:Generated_Source\PSoC5/I2C_MASTER.c **** * Side Effects:
 393:Generated_Source\PSoC5/I2C_MASTER.c **** *  This function is entered without a "byte complete" bit set in the I2C_CSR
ARM GAS  C:\Users\HPz420\AppData\Local\Temp\ccMm01Ag.s 			page 17


 394:Generated_Source\PSoC5/I2C_MASTER.c **** *  register. It does not exit until it is set.
 395:Generated_Source\PSoC5/I2C_MASTER.c **** *
 396:Generated_Source\PSoC5/I2C_MASTER.c **** * Global variables:
 397:Generated_Source\PSoC5/I2C_MASTER.c **** *  I2C_state - The global variable used to store a current state of
 398:Generated_Source\PSoC5/I2C_MASTER.c **** *                           the software FSM.
 399:Generated_Source\PSoC5/I2C_MASTER.c **** *
 400:Generated_Source\PSoC5/I2C_MASTER.c **** * Reentrant:
 401:Generated_Source\PSoC5/I2C_MASTER.c **** *  No.
 402:Generated_Source\PSoC5/I2C_MASTER.c **** *
 403:Generated_Source\PSoC5/I2C_MASTER.c **** *******************************************************************************/
 404:Generated_Source\PSoC5/I2C_MASTER.c **** uint8 I2C_MasterSendRestart(uint8 slaveAddress, uint8 R_nW)
 405:Generated_Source\PSoC5/I2C_MASTER.c ****       
 406:Generated_Source\PSoC5/I2C_MASTER.c **** {
 520              		.loc 1 406 0
 521              		.cfi_startproc
 522              		@ args = 0, pretend = 0, frame = 16
 523              		@ frame_needed = 1, uses_anonymous_args = 0
 524              		@ link register save eliminated.
 525 0000 80B4     		push	{r7}
 526              		.cfi_def_cfa_offset 4
 527              		.cfi_offset 7, -4
 528 0002 85B0     		sub	sp, sp, #20
 529              		.cfi_def_cfa_offset 24
 530 0004 00AF     		add	r7, sp, #0
 531              		.cfi_def_cfa_register 7
 532 0006 0346     		mov	r3, r0
 533 0008 0A46     		mov	r2, r1
 534 000a FB71     		strb	r3, [r7, #7]
 535 000c 1346     		mov	r3, r2
 536 000e BB71     		strb	r3, [r7, #6]
 407:Generated_Source\PSoC5/I2C_MASTER.c ****     uint8 errStatus;
 408:Generated_Source\PSoC5/I2C_MASTER.c **** 
 409:Generated_Source\PSoC5/I2C_MASTER.c ****     errStatus = I2C_MSTR_NOT_READY;
 537              		.loc 1 409 0
 538 0010 0223     		movs	r3, #2
 539 0012 FB73     		strb	r3, [r7, #15]
 410:Generated_Source\PSoC5/I2C_MASTER.c **** 
 411:Generated_Source\PSoC5/I2C_MASTER.c ****     /* Check if START condition was generated */
 412:Generated_Source\PSoC5/I2C_MASTER.c ****     if(I2C_CHECK_MASTER_MODE(I2C_MCSR_REG))
 540              		.loc 1 412 0
 541 0014 1F4B     		ldr	r3, .L41
 542 0016 1B78     		ldrb	r3, [r3]
 543 0018 DBB2     		uxtb	r3, r3
 544 001a 03F00403 		and	r3, r3, #4
 545 001e 002B     		cmp	r3, #0
 546 0020 31D0     		beq	.L35
 413:Generated_Source\PSoC5/I2C_MASTER.c ****     {
 414:Generated_Source\PSoC5/I2C_MASTER.c ****         /* Set address and read/write flag */
 415:Generated_Source\PSoC5/I2C_MASTER.c ****         slaveAddress = (uint8) (slaveAddress << I2C_SLAVE_ADDR_SHIFT);
 547              		.loc 1 415 0
 548 0022 FB79     		ldrb	r3, [r7, #7]
 549 0024 5B00     		lsls	r3, r3, #1
 550 0026 FB71     		strb	r3, [r7, #7]
 416:Generated_Source\PSoC5/I2C_MASTER.c ****         if(0u != R_nW)
 551              		.loc 1 416 0
 552 0028 BB79     		ldrb	r3, [r7, #6]	@ zero_extendqisi2
 553 002a 002B     		cmp	r3, #0
ARM GAS  C:\Users\HPz420\AppData\Local\Temp\ccMm01Ag.s 			page 18


 554 002c 07D0     		beq	.L36
 417:Generated_Source\PSoC5/I2C_MASTER.c ****         {
 418:Generated_Source\PSoC5/I2C_MASTER.c ****             slaveAddress |= I2C_READ_FLAG;
 555              		.loc 1 418 0
 556 002e FB79     		ldrb	r3, [r7, #7]
 557 0030 43F00103 		orr	r3, r3, #1
 558 0034 FB71     		strb	r3, [r7, #7]
 419:Generated_Source\PSoC5/I2C_MASTER.c ****             I2C_state = I2C_SM_MSTR_RD_ADDR;
 559              		.loc 1 419 0
 560 0036 184B     		ldr	r3, .L41+4
 561 0038 4922     		movs	r2, #73
 562 003a 1A70     		strb	r2, [r3]
 563 003c 02E0     		b	.L37
 564              	.L36:
 420:Generated_Source\PSoC5/I2C_MASTER.c ****         }
 421:Generated_Source\PSoC5/I2C_MASTER.c ****         else
 422:Generated_Source\PSoC5/I2C_MASTER.c ****         {
 423:Generated_Source\PSoC5/I2C_MASTER.c ****             I2C_state = I2C_SM_MSTR_WR_ADDR;
 565              		.loc 1 423 0
 566 003e 164B     		ldr	r3, .L41+4
 567 0040 4522     		movs	r2, #69
 568 0042 1A70     		strb	r2, [r3]
 569              	.L37:
 424:Generated_Source\PSoC5/I2C_MASTER.c ****         }
 425:Generated_Source\PSoC5/I2C_MASTER.c **** 
 426:Generated_Source\PSoC5/I2C_MASTER.c ****         /* Hardware actions: write address and generate ReStart */
 427:Generated_Source\PSoC5/I2C_MASTER.c ****         I2C_DATA_REG = slaveAddress;
 570              		.loc 1 427 0
 571 0044 154A     		ldr	r2, .L41+8
 572 0046 FB79     		ldrb	r3, [r7, #7]
 573 0048 1370     		strb	r3, [r2]
 428:Generated_Source\PSoC5/I2C_MASTER.c ****         I2C_GENERATE_RESTART_MANUAL;
 574              		.loc 1 428 0
 575 004a 124B     		ldr	r3, .L41
 576 004c 1222     		movs	r2, #18
 577 004e 1A70     		strb	r2, [r3]
 578 0050 134B     		ldr	r3, .L41+12
 579 0052 0422     		movs	r2, #4
 580 0054 1A70     		strb	r2, [r3]
 429:Generated_Source\PSoC5/I2C_MASTER.c **** 
 430:Generated_Source\PSoC5/I2C_MASTER.c ****         /* Wait until address has been transferred */
 431:Generated_Source\PSoC5/I2C_MASTER.c ****         while(I2C_WAIT_BYTE_COMPLETE(I2C_CSR_REG))
 581              		.loc 1 431 0
 582 0056 00BF     		nop
 583              	.L38:
 584              		.loc 1 431 0 is_stmt 0 discriminator 1
 585 0058 114B     		ldr	r3, .L41+12
 586 005a 1B78     		ldrb	r3, [r3]
 587 005c DBB2     		uxtb	r3, r3
 588 005e 03F00103 		and	r3, r3, #1
 589 0062 002B     		cmp	r3, #0
 590 0064 F8D0     		beq	.L38
 432:Generated_Source\PSoC5/I2C_MASTER.c ****         {
 433:Generated_Source\PSoC5/I2C_MASTER.c ****         }
 434:Generated_Source\PSoC5/I2C_MASTER.c **** 
 435:Generated_Source\PSoC5/I2C_MASTER.c ****     #if(I2C_MODE_MULTI_MASTER_ENABLED)
 436:Generated_Source\PSoC5/I2C_MASTER.c ****         if(I2C_CHECK_LOST_ARB(I2C_CSR_REG))
ARM GAS  C:\Users\HPz420\AppData\Local\Temp\ccMm01Ag.s 			page 19


 437:Generated_Source\PSoC5/I2C_MASTER.c ****         {
 438:Generated_Source\PSoC5/I2C_MASTER.c ****             I2C_BUS_RELEASE_MANUAL;
 439:Generated_Source\PSoC5/I2C_MASTER.c **** 
 440:Generated_Source\PSoC5/I2C_MASTER.c ****             /* Master lost arbitrage: reset FSM to IDLE */
 441:Generated_Source\PSoC5/I2C_MASTER.c ****             I2C_state = I2C_SM_IDLE;
 442:Generated_Source\PSoC5/I2C_MASTER.c ****             errStatus = I2C_MSTR_ERR_ARB_LOST;
 443:Generated_Source\PSoC5/I2C_MASTER.c ****         }
 444:Generated_Source\PSoC5/I2C_MASTER.c ****         else
 445:Generated_Source\PSoC5/I2C_MASTER.c ****     #endif /* (I2C_MODE_MULTI_MASTER_ENABLED) */
 446:Generated_Source\PSoC5/I2C_MASTER.c **** 
 447:Generated_Source\PSoC5/I2C_MASTER.c ****         if(I2C_CHECK_ADDR_NAK(I2C_CSR_REG))
 591              		.loc 1 447 0 is_stmt 1
 592 0066 0E4B     		ldr	r3, .L41+12
 593 0068 1B78     		ldrb	r3, [r3]
 594 006a DBB2     		uxtb	r3, r3
 595 006c 03F00A03 		and	r3, r3, #10
 596 0070 DBB2     		uxtb	r3, r3
 597 0072 0A2B     		cmp	r3, #10
 598 0074 05D1     		bne	.L39
 448:Generated_Source\PSoC5/I2C_MASTER.c ****         {
 449:Generated_Source\PSoC5/I2C_MASTER.c ****             /* Address has been NACKed: reset FSM to IDLE */
 450:Generated_Source\PSoC5/I2C_MASTER.c ****             I2C_state = I2C_SM_IDLE;
 599              		.loc 1 450 0
 600 0076 084B     		ldr	r3, .L41+4
 601 0078 1022     		movs	r2, #16
 602 007a 1A70     		strb	r2, [r3]
 451:Generated_Source\PSoC5/I2C_MASTER.c ****             errStatus = I2C_MSTR_ERR_LB_NAK;
 603              		.loc 1 451 0
 604 007c 0323     		movs	r3, #3
 605 007e FB73     		strb	r3, [r7, #15]
 606 0080 01E0     		b	.L35
 607              	.L39:
 452:Generated_Source\PSoC5/I2C_MASTER.c ****         }
 453:Generated_Source\PSoC5/I2C_MASTER.c ****         else
 454:Generated_Source\PSoC5/I2C_MASTER.c ****         {
 455:Generated_Source\PSoC5/I2C_MASTER.c ****             /* ReStart was sent without errors */
 456:Generated_Source\PSoC5/I2C_MASTER.c ****             errStatus = I2C_MSTR_NO_ERROR;
 608              		.loc 1 456 0
 609 0082 0023     		movs	r3, #0
 610 0084 FB73     		strb	r3, [r7, #15]
 611              	.L35:
 457:Generated_Source\PSoC5/I2C_MASTER.c ****         }
 458:Generated_Source\PSoC5/I2C_MASTER.c ****     }
 459:Generated_Source\PSoC5/I2C_MASTER.c **** 
 460:Generated_Source\PSoC5/I2C_MASTER.c ****     return(errStatus);
 612              		.loc 1 460 0
 613 0086 FB7B     		ldrb	r3, [r7, #15]	@ zero_extendqisi2
 461:Generated_Source\PSoC5/I2C_MASTER.c **** }
 614              		.loc 1 461 0
 615 0088 1846     		mov	r0, r3
 616 008a 1437     		adds	r7, r7, #20
 617              		.cfi_def_cfa_offset 4
 618 008c BD46     		mov	sp, r7
 619              		.cfi_def_cfa_register 13
 620              		@ sp needed
 621 008e 80BC     		pop	{r7}
 622              		.cfi_restore 7
ARM GAS  C:\Users\HPz420\AppData\Local\Temp\ccMm01Ag.s 			page 20


 623              		.cfi_def_cfa_offset 0
 624 0090 7047     		bx	lr
 625              	.L42:
 626 0092 00BF     		.align	2
 627              	.L41:
 628 0094 D9490040 		.word	1073760729
 629 0098 00000000 		.word	I2C_state
 630 009c D8490040 		.word	1073760728
 631 00a0 D7490040 		.word	1073760727
 632              		.cfi_endproc
 633              	.LFE3:
 634              		.size	I2C_MasterSendRestart, .-I2C_MasterSendRestart
 635              		.section	.text.I2C_MasterSendStop,"ax",%progbits
 636              		.align	2
 637              		.global	I2C_MasterSendStop
 638              		.thumb
 639              		.thumb_func
 640              		.type	I2C_MasterSendStop, %function
 641              	I2C_MasterSendStop:
 642              	.LFB4:
 462:Generated_Source\PSoC5/I2C_MASTER.c **** 
 463:Generated_Source\PSoC5/I2C_MASTER.c **** 
 464:Generated_Source\PSoC5/I2C_MASTER.c **** /*******************************************************************************
 465:Generated_Source\PSoC5/I2C_MASTER.c **** * Function Name: I2C_MasterSendStop
 466:Generated_Source\PSoC5/I2C_MASTER.c **** ********************************************************************************
 467:Generated_Source\PSoC5/I2C_MASTER.c **** *
 468:Generated_Source\PSoC5/I2C_MASTER.c **** * Summary:
 469:Generated_Source\PSoC5/I2C_MASTER.c **** *  Generates I2C Stop condition on bus. Function do nothing if Start or Restart
 470:Generated_Source\PSoC5/I2C_MASTER.c **** *  condition was failed before call this function.
 471:Generated_Source\PSoC5/I2C_MASTER.c **** *
 472:Generated_Source\PSoC5/I2C_MASTER.c **** * Parameters:
 473:Generated_Source\PSoC5/I2C_MASTER.c **** *  None.
 474:Generated_Source\PSoC5/I2C_MASTER.c **** *
 475:Generated_Source\PSoC5/I2C_MASTER.c **** * Return:
 476:Generated_Source\PSoC5/I2C_MASTER.c **** *  Status error - Zero means no errors.
 477:Generated_Source\PSoC5/I2C_MASTER.c **** *
 478:Generated_Source\PSoC5/I2C_MASTER.c **** * Side Effects:
 479:Generated_Source\PSoC5/I2C_MASTER.c **** *  Stop generation is required to complete the transaction.
 480:Generated_Source\PSoC5/I2C_MASTER.c **** *  This function does not wait until a Stop condition is generated.
 481:Generated_Source\PSoC5/I2C_MASTER.c **** *
 482:Generated_Source\PSoC5/I2C_MASTER.c **** * Global variables:
 483:Generated_Source\PSoC5/I2C_MASTER.c **** *  I2C_state - The global variable used to store a current state of
 484:Generated_Source\PSoC5/I2C_MASTER.c **** *                           the software FSM.
 485:Generated_Source\PSoC5/I2C_MASTER.c **** *
 486:Generated_Source\PSoC5/I2C_MASTER.c **** * Reentrant:
 487:Generated_Source\PSoC5/I2C_MASTER.c **** *  No.
 488:Generated_Source\PSoC5/I2C_MASTER.c **** *
 489:Generated_Source\PSoC5/I2C_MASTER.c **** *******************************************************************************/
 490:Generated_Source\PSoC5/I2C_MASTER.c **** uint8 I2C_MasterSendStop(void) 
 491:Generated_Source\PSoC5/I2C_MASTER.c **** {
 643              		.loc 1 491 0
 644              		.cfi_startproc
 645              		@ args = 0, pretend = 0, frame = 8
 646              		@ frame_needed = 1, uses_anonymous_args = 0
 647              		@ link register save eliminated.
 648 0000 80B4     		push	{r7}
 649              		.cfi_def_cfa_offset 4
ARM GAS  C:\Users\HPz420\AppData\Local\Temp\ccMm01Ag.s 			page 21


 650              		.cfi_offset 7, -4
 651 0002 83B0     		sub	sp, sp, #12
 652              		.cfi_def_cfa_offset 16
 653 0004 00AF     		add	r7, sp, #0
 654              		.cfi_def_cfa_register 7
 492:Generated_Source\PSoC5/I2C_MASTER.c ****     uint8 errStatus;
 493:Generated_Source\PSoC5/I2C_MASTER.c **** 
 494:Generated_Source\PSoC5/I2C_MASTER.c ****     errStatus = I2C_MSTR_NOT_READY;
 655              		.loc 1 494 0
 656 0006 0223     		movs	r3, #2
 657 0008 FB71     		strb	r3, [r7, #7]
 495:Generated_Source\PSoC5/I2C_MASTER.c **** 
 496:Generated_Source\PSoC5/I2C_MASTER.c ****     /* Check if master is active on bus */
 497:Generated_Source\PSoC5/I2C_MASTER.c ****     if(I2C_CHECK_MASTER_MODE(I2C_MCSR_REG))
 658              		.loc 1 497 0
 659 000a 104B     		ldr	r3, .L47
 660 000c 1B78     		ldrb	r3, [r3]
 661 000e DBB2     		uxtb	r3, r3
 662 0010 03F00403 		and	r3, r3, #4
 663 0014 002B     		cmp	r3, #0
 664 0016 12D0     		beq	.L44
 498:Generated_Source\PSoC5/I2C_MASTER.c ****     {
 499:Generated_Source\PSoC5/I2C_MASTER.c ****         I2C_GENERATE_STOP_MANUAL;
 665              		.loc 1 499 0
 666 0018 0C4B     		ldr	r3, .L47
 667 001a 1022     		movs	r2, #16
 668 001c 1A70     		strb	r2, [r3]
 669 001e 0C4B     		ldr	r3, .L47+4
 670 0020 0422     		movs	r2, #4
 671 0022 1A70     		strb	r2, [r3]
 500:Generated_Source\PSoC5/I2C_MASTER.c ****         I2C_state = I2C_SM_IDLE;
 672              		.loc 1 500 0
 673 0024 0B4B     		ldr	r3, .L47+8
 674 0026 1022     		movs	r2, #16
 675 0028 1A70     		strb	r2, [r3]
 501:Generated_Source\PSoC5/I2C_MASTER.c **** 
 502:Generated_Source\PSoC5/I2C_MASTER.c ****         /* Wait until stop has been generated */
 503:Generated_Source\PSoC5/I2C_MASTER.c ****         while(I2C_WAIT_STOP_COMPLETE(I2C_CSR_REG))
 676              		.loc 1 503 0
 677 002a 00BF     		nop
 678              	.L45:
 679              		.loc 1 503 0 is_stmt 0 discriminator 1
 680 002c 084B     		ldr	r3, .L47+4
 681 002e 1B78     		ldrb	r3, [r3]
 682 0030 DBB2     		uxtb	r3, r3
 683 0032 03F02103 		and	r3, r3, #33
 684 0036 002B     		cmp	r3, #0
 685 0038 F8D0     		beq	.L45
 504:Generated_Source\PSoC5/I2C_MASTER.c ****         {
 505:Generated_Source\PSoC5/I2C_MASTER.c ****         }
 506:Generated_Source\PSoC5/I2C_MASTER.c **** 
 507:Generated_Source\PSoC5/I2C_MASTER.c ****         errStatus = I2C_MSTR_NO_ERROR;
 686              		.loc 1 507 0 is_stmt 1
 687 003a 0023     		movs	r3, #0
 688 003c FB71     		strb	r3, [r7, #7]
 689              	.L44:
 508:Generated_Source\PSoC5/I2C_MASTER.c **** 
ARM GAS  C:\Users\HPz420\AppData\Local\Temp\ccMm01Ag.s 			page 22


 509:Generated_Source\PSoC5/I2C_MASTER.c ****     #if(I2C_MODE_MULTI_MASTER_ENABLED)
 510:Generated_Source\PSoC5/I2C_MASTER.c ****         if(I2C_CHECK_LOST_ARB(I2C_CSR_REG))
 511:Generated_Source\PSoC5/I2C_MASTER.c ****         {
 512:Generated_Source\PSoC5/I2C_MASTER.c ****             I2C_BUS_RELEASE_MANUAL;
 513:Generated_Source\PSoC5/I2C_MASTER.c **** 
 514:Generated_Source\PSoC5/I2C_MASTER.c ****             /* NACK was generated by instead Stop */
 515:Generated_Source\PSoC5/I2C_MASTER.c ****             errStatus = I2C_MSTR_ERR_ARB_LOST;
 516:Generated_Source\PSoC5/I2C_MASTER.c ****         }
 517:Generated_Source\PSoC5/I2C_MASTER.c ****     #endif /* (I2C_MODE_MULTI_MASTER_ENABLED) */
 518:Generated_Source\PSoC5/I2C_MASTER.c ****     }
 519:Generated_Source\PSoC5/I2C_MASTER.c **** 
 520:Generated_Source\PSoC5/I2C_MASTER.c ****     return(errStatus);
 690              		.loc 1 520 0
 691 003e FB79     		ldrb	r3, [r7, #7]	@ zero_extendqisi2
 521:Generated_Source\PSoC5/I2C_MASTER.c **** }
 692              		.loc 1 521 0
 693 0040 1846     		mov	r0, r3
 694 0042 0C37     		adds	r7, r7, #12
 695              		.cfi_def_cfa_offset 4
 696 0044 BD46     		mov	sp, r7
 697              		.cfi_def_cfa_register 13
 698              		@ sp needed
 699 0046 80BC     		pop	{r7}
 700              		.cfi_restore 7
 701              		.cfi_def_cfa_offset 0
 702 0048 7047     		bx	lr
 703              	.L48:
 704 004a 00BF     		.align	2
 705              	.L47:
 706 004c D9490040 		.word	1073760729
 707 0050 D7490040 		.word	1073760727
 708 0054 00000000 		.word	I2C_state
 709              		.cfi_endproc
 710              	.LFE4:
 711              		.size	I2C_MasterSendStop, .-I2C_MasterSendStop
 712              		.section	.text.I2C_MasterWriteByte,"ax",%progbits
 713              		.align	2
 714              		.global	I2C_MasterWriteByte
 715              		.thumb
 716              		.thumb_func
 717              		.type	I2C_MasterWriteByte, %function
 718              	I2C_MasterWriteByte:
 719              	.LFB5:
 522:Generated_Source\PSoC5/I2C_MASTER.c **** 
 523:Generated_Source\PSoC5/I2C_MASTER.c **** 
 524:Generated_Source\PSoC5/I2C_MASTER.c **** /*******************************************************************************
 525:Generated_Source\PSoC5/I2C_MASTER.c **** * Function Name: I2C_MasterWriteByte
 526:Generated_Source\PSoC5/I2C_MASTER.c **** ********************************************************************************
 527:Generated_Source\PSoC5/I2C_MASTER.c **** *
 528:Generated_Source\PSoC5/I2C_MASTER.c **** * Summary:
 529:Generated_Source\PSoC5/I2C_MASTER.c **** *  Sends one byte to a slave. A valid Start or ReStart condition must be
 530:Generated_Source\PSoC5/I2C_MASTER.c **** *  generated before this call this function. Function do nothing if Start or
 531:Generated_Source\PSoC5/I2C_MASTER.c **** *  Restart condition was failed before call this function.
 532:Generated_Source\PSoC5/I2C_MASTER.c **** *
 533:Generated_Source\PSoC5/I2C_MASTER.c **** * Parameters:
 534:Generated_Source\PSoC5/I2C_MASTER.c **** *  data:  The data byte to send to the slave.
 535:Generated_Source\PSoC5/I2C_MASTER.c **** *
ARM GAS  C:\Users\HPz420\AppData\Local\Temp\ccMm01Ag.s 			page 23


 536:Generated_Source\PSoC5/I2C_MASTER.c **** * Return:
 537:Generated_Source\PSoC5/I2C_MASTER.c **** *  Status error - Zero means no errors.
 538:Generated_Source\PSoC5/I2C_MASTER.c **** *
 539:Generated_Source\PSoC5/I2C_MASTER.c **** * Side Effects:
 540:Generated_Source\PSoC5/I2C_MASTER.c **** *  This function is entered without a "byte complete" bit set in the I2C_CSR
 541:Generated_Source\PSoC5/I2C_MASTER.c **** *  register. It does not exit until it is set.
 542:Generated_Source\PSoC5/I2C_MASTER.c **** *
 543:Generated_Source\PSoC5/I2C_MASTER.c **** * Global variables:
 544:Generated_Source\PSoC5/I2C_MASTER.c **** *  I2C_state - The global variable used to store a current state of
 545:Generated_Source\PSoC5/I2C_MASTER.c **** *                           the software FSM.
 546:Generated_Source\PSoC5/I2C_MASTER.c **** *
 547:Generated_Source\PSoC5/I2C_MASTER.c **** *******************************************************************************/
 548:Generated_Source\PSoC5/I2C_MASTER.c **** uint8 I2C_MasterWriteByte(uint8 theByte) 
 549:Generated_Source\PSoC5/I2C_MASTER.c **** {
 720              		.loc 1 549 0
 721              		.cfi_startproc
 722              		@ args = 0, pretend = 0, frame = 16
 723              		@ frame_needed = 1, uses_anonymous_args = 0
 724              		@ link register save eliminated.
 725 0000 80B4     		push	{r7}
 726              		.cfi_def_cfa_offset 4
 727              		.cfi_offset 7, -4
 728 0002 85B0     		sub	sp, sp, #20
 729              		.cfi_def_cfa_offset 24
 730 0004 00AF     		add	r7, sp, #0
 731              		.cfi_def_cfa_register 7
 732 0006 0346     		mov	r3, r0
 733 0008 FB71     		strb	r3, [r7, #7]
 550:Generated_Source\PSoC5/I2C_MASTER.c ****     uint8 errStatus;
 551:Generated_Source\PSoC5/I2C_MASTER.c **** 
 552:Generated_Source\PSoC5/I2C_MASTER.c ****     errStatus = I2C_MSTR_NOT_READY;
 734              		.loc 1 552 0
 735 000a 0223     		movs	r3, #2
 736 000c FB73     		strb	r3, [r7, #15]
 553:Generated_Source\PSoC5/I2C_MASTER.c **** 
 554:Generated_Source\PSoC5/I2C_MASTER.c ****     /* Check if START condition was generated */
 555:Generated_Source\PSoC5/I2C_MASTER.c ****     if(I2C_CHECK_MASTER_MODE(I2C_MCSR_REG))
 737              		.loc 1 555 0
 738 000e 184B     		ldr	r3, .L54
 739 0010 1B78     		ldrb	r3, [r3]
 740 0012 DBB2     		uxtb	r3, r3
 741 0014 03F00403 		and	r3, r3, #4
 742 0018 002B     		cmp	r3, #0
 743 001a 22D0     		beq	.L50
 556:Generated_Source\PSoC5/I2C_MASTER.c ****     {
 557:Generated_Source\PSoC5/I2C_MASTER.c ****         I2C_DATA_REG = theByte;   /* Write DATA register */
 744              		.loc 1 557 0
 745 001c 154A     		ldr	r2, .L54+4
 746 001e FB79     		ldrb	r3, [r7, #7]
 747 0020 1370     		strb	r3, [r2]
 558:Generated_Source\PSoC5/I2C_MASTER.c ****         I2C_TRANSMIT_DATA_MANUAL; /* Set transmit mode   */
 748              		.loc 1 558 0
 749 0022 154B     		ldr	r3, .L54+8
 750 0024 0422     		movs	r2, #4
 751 0026 1A70     		strb	r2, [r3]
 559:Generated_Source\PSoC5/I2C_MASTER.c ****         I2C_state = I2C_SM_MSTR_WR_DATA;
 752              		.loc 1 559 0
ARM GAS  C:\Users\HPz420\AppData\Local\Temp\ccMm01Ag.s 			page 24


 753 0028 144B     		ldr	r3, .L54+12
 754 002a 4622     		movs	r2, #70
 755 002c 1A70     		strb	r2, [r3]
 560:Generated_Source\PSoC5/I2C_MASTER.c **** 
 561:Generated_Source\PSoC5/I2C_MASTER.c ****         /* Wait until data byte has been transmitted */
 562:Generated_Source\PSoC5/I2C_MASTER.c ****         while(I2C_WAIT_BYTE_COMPLETE(I2C_CSR_REG))
 756              		.loc 1 562 0
 757 002e 00BF     		nop
 758              	.L51:
 759              		.loc 1 562 0 is_stmt 0 discriminator 1
 760 0030 114B     		ldr	r3, .L54+8
 761 0032 1B78     		ldrb	r3, [r3]
 762 0034 DBB2     		uxtb	r3, r3
 763 0036 03F00103 		and	r3, r3, #1
 764 003a 002B     		cmp	r3, #0
 765 003c F8D0     		beq	.L51
 563:Generated_Source\PSoC5/I2C_MASTER.c ****         {
 564:Generated_Source\PSoC5/I2C_MASTER.c ****         }
 565:Generated_Source\PSoC5/I2C_MASTER.c **** 
 566:Generated_Source\PSoC5/I2C_MASTER.c ****     #if(I2C_MODE_MULTI_MASTER_ENABLED)
 567:Generated_Source\PSoC5/I2C_MASTER.c ****         if(I2C_CHECK_LOST_ARB(I2C_CSR_REG))
 568:Generated_Source\PSoC5/I2C_MASTER.c ****         {
 569:Generated_Source\PSoC5/I2C_MASTER.c ****             I2C_BUS_RELEASE_MANUAL;
 570:Generated_Source\PSoC5/I2C_MASTER.c **** 
 571:Generated_Source\PSoC5/I2C_MASTER.c ****             /* Master lost arbitrage: reset FSM to IDLE */
 572:Generated_Source\PSoC5/I2C_MASTER.c ****             I2C_state = I2C_SM_IDLE;
 573:Generated_Source\PSoC5/I2C_MASTER.c ****             errStatus = I2C_MSTR_ERR_ARB_LOST;
 574:Generated_Source\PSoC5/I2C_MASTER.c ****         }
 575:Generated_Source\PSoC5/I2C_MASTER.c ****         /* Check LRB bit */
 576:Generated_Source\PSoC5/I2C_MASTER.c ****         else
 577:Generated_Source\PSoC5/I2C_MASTER.c ****     #endif /* (I2C_MODE_MULTI_MASTER_ENABLED) */
 578:Generated_Source\PSoC5/I2C_MASTER.c **** 
 579:Generated_Source\PSoC5/I2C_MASTER.c ****         if(I2C_CHECK_DATA_ACK(I2C_CSR_REG))
 766              		.loc 1 579 0 is_stmt 1
 767 003e 0E4B     		ldr	r3, .L54+8
 768 0040 1B78     		ldrb	r3, [r3]
 769 0042 DBB2     		uxtb	r3, r3
 770 0044 03F00203 		and	r3, r3, #2
 771 0048 002B     		cmp	r3, #0
 772 004a 05D1     		bne	.L52
 580:Generated_Source\PSoC5/I2C_MASTER.c ****         {
 581:Generated_Source\PSoC5/I2C_MASTER.c ****             I2C_state = I2C_SM_MSTR_HALT;
 773              		.loc 1 581 0
 774 004c 0B4B     		ldr	r3, .L54+12
 775 004e 6022     		movs	r2, #96
 776 0050 1A70     		strb	r2, [r3]
 582:Generated_Source\PSoC5/I2C_MASTER.c ****             errStatus = I2C_MSTR_NO_ERROR;
 777              		.loc 1 582 0
 778 0052 0023     		movs	r3, #0
 779 0054 FB73     		strb	r3, [r7, #15]
 780 0056 04E0     		b	.L50
 781              	.L52:
 583:Generated_Source\PSoC5/I2C_MASTER.c ****         }
 584:Generated_Source\PSoC5/I2C_MASTER.c ****         else
 585:Generated_Source\PSoC5/I2C_MASTER.c ****         {
 586:Generated_Source\PSoC5/I2C_MASTER.c ****             I2C_state = I2C_SM_MSTR_HALT;
 782              		.loc 1 586 0
ARM GAS  C:\Users\HPz420\AppData\Local\Temp\ccMm01Ag.s 			page 25


 783 0058 084B     		ldr	r3, .L54+12
 784 005a 6022     		movs	r2, #96
 785 005c 1A70     		strb	r2, [r3]
 587:Generated_Source\PSoC5/I2C_MASTER.c ****             errStatus = I2C_MSTR_ERR_LB_NAK;
 786              		.loc 1 587 0
 787 005e 0323     		movs	r3, #3
 788 0060 FB73     		strb	r3, [r7, #15]
 789              	.L50:
 588:Generated_Source\PSoC5/I2C_MASTER.c ****         }
 589:Generated_Source\PSoC5/I2C_MASTER.c ****     }
 590:Generated_Source\PSoC5/I2C_MASTER.c **** 
 591:Generated_Source\PSoC5/I2C_MASTER.c ****     return(errStatus);
 790              		.loc 1 591 0
 791 0062 FB7B     		ldrb	r3, [r7, #15]	@ zero_extendqisi2
 592:Generated_Source\PSoC5/I2C_MASTER.c **** }
 792              		.loc 1 592 0
 793 0064 1846     		mov	r0, r3
 794 0066 1437     		adds	r7, r7, #20
 795              		.cfi_def_cfa_offset 4
 796 0068 BD46     		mov	sp, r7
 797              		.cfi_def_cfa_register 13
 798              		@ sp needed
 799 006a 80BC     		pop	{r7}
 800              		.cfi_restore 7
 801              		.cfi_def_cfa_offset 0
 802 006c 7047     		bx	lr
 803              	.L55:
 804 006e 00BF     		.align	2
 805              	.L54:
 806 0070 D9490040 		.word	1073760729
 807 0074 D8490040 		.word	1073760728
 808 0078 D7490040 		.word	1073760727
 809 007c 00000000 		.word	I2C_state
 810              		.cfi_endproc
 811              	.LFE5:
 812              		.size	I2C_MasterWriteByte, .-I2C_MasterWriteByte
 813              		.section	.text.I2C_MasterReadByte,"ax",%progbits
 814              		.align	2
 815              		.global	I2C_MasterReadByte
 816              		.thumb
 817              		.thumb_func
 818              		.type	I2C_MasterReadByte, %function
 819              	I2C_MasterReadByte:
 820              	.LFB6:
 593:Generated_Source\PSoC5/I2C_MASTER.c **** 
 594:Generated_Source\PSoC5/I2C_MASTER.c **** 
 595:Generated_Source\PSoC5/I2C_MASTER.c **** /*******************************************************************************
 596:Generated_Source\PSoC5/I2C_MASTER.c **** * Function Name: I2C_MasterReadByte
 597:Generated_Source\PSoC5/I2C_MASTER.c **** ********************************************************************************
 598:Generated_Source\PSoC5/I2C_MASTER.c **** *
 599:Generated_Source\PSoC5/I2C_MASTER.c **** * Summary:
 600:Generated_Source\PSoC5/I2C_MASTER.c **** *  Reads one byte from a slave and ACK or NACK the transfer. A valid Start or
 601:Generated_Source\PSoC5/I2C_MASTER.c **** *  ReStart condition must be generated before this call this function. Function
 602:Generated_Source\PSoC5/I2C_MASTER.c **** *  do nothing if Start or Restart condition was failed before call this
 603:Generated_Source\PSoC5/I2C_MASTER.c **** *  function.
 604:Generated_Source\PSoC5/I2C_MASTER.c **** *
 605:Generated_Source\PSoC5/I2C_MASTER.c **** * Parameters:
ARM GAS  C:\Users\HPz420\AppData\Local\Temp\ccMm01Ag.s 			page 26


 606:Generated_Source\PSoC5/I2C_MASTER.c **** *  acknNack:  Zero, response with NACK, if non-zero response with ACK.
 607:Generated_Source\PSoC5/I2C_MASTER.c **** *
 608:Generated_Source\PSoC5/I2C_MASTER.c **** * Return:
 609:Generated_Source\PSoC5/I2C_MASTER.c **** *  Byte read from slave.
 610:Generated_Source\PSoC5/I2C_MASTER.c **** *
 611:Generated_Source\PSoC5/I2C_MASTER.c **** * Side Effects:
 612:Generated_Source\PSoC5/I2C_MASTER.c **** *  This function is entered without a "byte complete" bit set in the I2C_CSR
 613:Generated_Source\PSoC5/I2C_MASTER.c **** *  register. It does not exit until it is set.
 614:Generated_Source\PSoC5/I2C_MASTER.c **** *
 615:Generated_Source\PSoC5/I2C_MASTER.c **** * Global variables:
 616:Generated_Source\PSoC5/I2C_MASTER.c **** *  I2C_state - The global variable used to store a current
 617:Generated_Source\PSoC5/I2C_MASTER.c **** *                           state of the software FSM.
 618:Generated_Source\PSoC5/I2C_MASTER.c **** *
 619:Generated_Source\PSoC5/I2C_MASTER.c **** * Reentrant:
 620:Generated_Source\PSoC5/I2C_MASTER.c **** *  No.
 621:Generated_Source\PSoC5/I2C_MASTER.c **** *
 622:Generated_Source\PSoC5/I2C_MASTER.c **** *******************************************************************************/
 623:Generated_Source\PSoC5/I2C_MASTER.c **** uint8 I2C_MasterReadByte(uint8 acknNak) 
 624:Generated_Source\PSoC5/I2C_MASTER.c **** {
 821              		.loc 1 624 0
 822              		.cfi_startproc
 823              		@ args = 0, pretend = 0, frame = 16
 824              		@ frame_needed = 1, uses_anonymous_args = 0
 825              		@ link register save eliminated.
 826 0000 80B4     		push	{r7}
 827              		.cfi_def_cfa_offset 4
 828              		.cfi_offset 7, -4
 829 0002 85B0     		sub	sp, sp, #20
 830              		.cfi_def_cfa_offset 24
 831 0004 00AF     		add	r7, sp, #0
 832              		.cfi_def_cfa_register 7
 833 0006 0346     		mov	r3, r0
 834 0008 FB71     		strb	r3, [r7, #7]
 625:Generated_Source\PSoC5/I2C_MASTER.c ****     uint8 theByte;
 626:Generated_Source\PSoC5/I2C_MASTER.c **** 
 627:Generated_Source\PSoC5/I2C_MASTER.c ****     theByte = 0u;
 835              		.loc 1 627 0
 836 000a 0023     		movs	r3, #0
 837 000c FB73     		strb	r3, [r7, #15]
 628:Generated_Source\PSoC5/I2C_MASTER.c **** 
 629:Generated_Source\PSoC5/I2C_MASTER.c ****     /* Check if START condition was generated */
 630:Generated_Source\PSoC5/I2C_MASTER.c ****     if(I2C_CHECK_MASTER_MODE(I2C_MCSR_REG))
 838              		.loc 1 630 0
 839 000e 164B     		ldr	r3, .L63
 840 0010 1B78     		ldrb	r3, [r3]
 841 0012 DBB2     		uxtb	r3, r3
 842 0014 03F00403 		and	r3, r3, #4
 843 0018 002B     		cmp	r3, #0
 844 001a 1FD0     		beq	.L57
 631:Generated_Source\PSoC5/I2C_MASTER.c ****     {
 632:Generated_Source\PSoC5/I2C_MASTER.c ****         /* When address phase needs to release bus and receive byte,
 633:Generated_Source\PSoC5/I2C_MASTER.c ****         * then decide ACK or NACK
 634:Generated_Source\PSoC5/I2C_MASTER.c ****         */
 635:Generated_Source\PSoC5/I2C_MASTER.c ****         if(I2C_SM_MSTR_RD_ADDR == I2C_state)
 845              		.loc 1 635 0
 846 001c 134B     		ldr	r3, .L63+4
 847 001e 1B78     		ldrb	r3, [r3]
ARM GAS  C:\Users\HPz420\AppData\Local\Temp\ccMm01Ag.s 			page 27


 848 0020 DBB2     		uxtb	r3, r3
 849 0022 492B     		cmp	r3, #73
 850 0024 05D1     		bne	.L62
 636:Generated_Source\PSoC5/I2C_MASTER.c ****         {
 637:Generated_Source\PSoC5/I2C_MASTER.c ****             I2C_READY_TO_READ_MANUAL;
 851              		.loc 1 637 0
 852 0026 124B     		ldr	r3, .L63+8
 853 0028 0022     		movs	r2, #0
 854 002a 1A70     		strb	r2, [r3]
 638:Generated_Source\PSoC5/I2C_MASTER.c ****             I2C_state = I2C_SM_MSTR_RD_DATA;
 855              		.loc 1 638 0
 856 002c 0F4B     		ldr	r3, .L63+4
 857 002e 4A22     		movs	r2, #74
 858 0030 1A70     		strb	r2, [r3]
 859              	.L62:
 639:Generated_Source\PSoC5/I2C_MASTER.c ****         }
 640:Generated_Source\PSoC5/I2C_MASTER.c **** 
 641:Generated_Source\PSoC5/I2C_MASTER.c ****         /* Wait until data byte has been received */
 642:Generated_Source\PSoC5/I2C_MASTER.c ****         while(I2C_WAIT_BYTE_COMPLETE(I2C_CSR_REG))
 860              		.loc 1 642 0
 861 0032 00BF     		nop
 862              	.L59:
 863              		.loc 1 642 0 is_stmt 0 discriminator 1
 864 0034 0E4B     		ldr	r3, .L63+8
 865 0036 1B78     		ldrb	r3, [r3]
 866 0038 DBB2     		uxtb	r3, r3
 867 003a 03F00103 		and	r3, r3, #1
 868 003e 002B     		cmp	r3, #0
 869 0040 F8D0     		beq	.L59
 643:Generated_Source\PSoC5/I2C_MASTER.c ****         {
 644:Generated_Source\PSoC5/I2C_MASTER.c ****         }
 645:Generated_Source\PSoC5/I2C_MASTER.c **** 
 646:Generated_Source\PSoC5/I2C_MASTER.c ****         theByte = I2C_DATA_REG;
 870              		.loc 1 646 0 is_stmt 1
 871 0042 0C4B     		ldr	r3, .L63+12
 872 0044 1B78     		ldrb	r3, [r3]
 873 0046 FB73     		strb	r3, [r7, #15]
 647:Generated_Source\PSoC5/I2C_MASTER.c **** 
 648:Generated_Source\PSoC5/I2C_MASTER.c ****         /* Command ACK to receive next byte and continue transfer.
 649:Generated_Source\PSoC5/I2C_MASTER.c ****         *  Do nothing for NACK. The NACK will be generated by
 650:Generated_Source\PSoC5/I2C_MASTER.c ****         *  Stop or ReStart routine.
 651:Generated_Source\PSoC5/I2C_MASTER.c ****         */
 652:Generated_Source\PSoC5/I2C_MASTER.c ****         if(acknNak != 0u) /* Generate ACK */
 874              		.loc 1 652 0
 875 0048 FB79     		ldrb	r3, [r7, #7]	@ zero_extendqisi2
 876 004a 002B     		cmp	r3, #0
 877 004c 03D0     		beq	.L60
 653:Generated_Source\PSoC5/I2C_MASTER.c ****         {
 654:Generated_Source\PSoC5/I2C_MASTER.c ****             I2C_ACK_AND_RECEIVE_MANUAL;
 878              		.loc 1 654 0
 879 004e 084B     		ldr	r3, .L63+8
 880 0050 1022     		movs	r2, #16
 881 0052 1A70     		strb	r2, [r3]
 882 0054 02E0     		b	.L57
 883              	.L60:
 655:Generated_Source\PSoC5/I2C_MASTER.c ****         }
 656:Generated_Source\PSoC5/I2C_MASTER.c ****         else              /* Do nothing for the follwong NACK */
ARM GAS  C:\Users\HPz420\AppData\Local\Temp\ccMm01Ag.s 			page 28


 657:Generated_Source\PSoC5/I2C_MASTER.c ****         {
 658:Generated_Source\PSoC5/I2C_MASTER.c ****             I2C_state = I2C_SM_MSTR_HALT;
 884              		.loc 1 658 0
 885 0056 054B     		ldr	r3, .L63+4
 886 0058 6022     		movs	r2, #96
 887 005a 1A70     		strb	r2, [r3]
 888              	.L57:
 659:Generated_Source\PSoC5/I2C_MASTER.c ****         }
 660:Generated_Source\PSoC5/I2C_MASTER.c ****     }
 661:Generated_Source\PSoC5/I2C_MASTER.c **** 
 662:Generated_Source\PSoC5/I2C_MASTER.c ****     return(theByte);
 889              		.loc 1 662 0
 890 005c FB7B     		ldrb	r3, [r7, #15]	@ zero_extendqisi2
 663:Generated_Source\PSoC5/I2C_MASTER.c **** }
 891              		.loc 1 663 0
 892 005e 1846     		mov	r0, r3
 893 0060 1437     		adds	r7, r7, #20
 894              		.cfi_def_cfa_offset 4
 895 0062 BD46     		mov	sp, r7
 896              		.cfi_def_cfa_register 13
 897              		@ sp needed
 898 0064 80BC     		pop	{r7}
 899              		.cfi_restore 7
 900              		.cfi_def_cfa_offset 0
 901 0066 7047     		bx	lr
 902              	.L64:
 903              		.align	2
 904              	.L63:
 905 0068 D9490040 		.word	1073760729
 906 006c 00000000 		.word	I2C_state
 907 0070 D7490040 		.word	1073760727
 908 0074 D8490040 		.word	1073760728
 909              		.cfi_endproc
 910              	.LFE6:
 911              		.size	I2C_MasterReadByte, .-I2C_MasterReadByte
 912              		.section	.text.I2C_MasterStatus,"ax",%progbits
 913              		.align	2
 914              		.global	I2C_MasterStatus
 915              		.thumb
 916              		.thumb_func
 917              		.type	I2C_MasterStatus, %function
 918              	I2C_MasterStatus:
 919              	.LFB7:
 664:Generated_Source\PSoC5/I2C_MASTER.c **** 
 665:Generated_Source\PSoC5/I2C_MASTER.c **** 
 666:Generated_Source\PSoC5/I2C_MASTER.c **** /*******************************************************************************
 667:Generated_Source\PSoC5/I2C_MASTER.c **** * Function Name: I2C_MasterStatus
 668:Generated_Source\PSoC5/I2C_MASTER.c **** ********************************************************************************
 669:Generated_Source\PSoC5/I2C_MASTER.c **** *
 670:Generated_Source\PSoC5/I2C_MASTER.c **** * Summary:
 671:Generated_Source\PSoC5/I2C_MASTER.c **** *  Returns the master's communication status.
 672:Generated_Source\PSoC5/I2C_MASTER.c **** *
 673:Generated_Source\PSoC5/I2C_MASTER.c **** * Parameters:
 674:Generated_Source\PSoC5/I2C_MASTER.c **** *  None.
 675:Generated_Source\PSoC5/I2C_MASTER.c **** *
 676:Generated_Source\PSoC5/I2C_MASTER.c **** * Return:
 677:Generated_Source\PSoC5/I2C_MASTER.c **** *  Current status of I2C master.
ARM GAS  C:\Users\HPz420\AppData\Local\Temp\ccMm01Ag.s 			page 29


 678:Generated_Source\PSoC5/I2C_MASTER.c **** *
 679:Generated_Source\PSoC5/I2C_MASTER.c **** * Global variables:
 680:Generated_Source\PSoC5/I2C_MASTER.c **** *  I2C_mstrStatus - The global variable used to store a current
 681:Generated_Source\PSoC5/I2C_MASTER.c **** *                                status of the I2C Master.
 682:Generated_Source\PSoC5/I2C_MASTER.c **** *
 683:Generated_Source\PSoC5/I2C_MASTER.c **** *******************************************************************************/
 684:Generated_Source\PSoC5/I2C_MASTER.c **** uint8 I2C_MasterStatus(void) 
 685:Generated_Source\PSoC5/I2C_MASTER.c **** {
 920              		.loc 1 685 0
 921              		.cfi_startproc
 922              		@ args = 0, pretend = 0, frame = 8
 923              		@ frame_needed = 1, uses_anonymous_args = 0
 924              		@ link register save eliminated.
 925 0000 80B4     		push	{r7}
 926              		.cfi_def_cfa_offset 4
 927              		.cfi_offset 7, -4
 928 0002 83B0     		sub	sp, sp, #12
 929              		.cfi_def_cfa_offset 16
 930 0004 00AF     		add	r7, sp, #0
 931              		.cfi_def_cfa_register 7
 686:Generated_Source\PSoC5/I2C_MASTER.c ****     uint8 status;
 687:Generated_Source\PSoC5/I2C_MASTER.c **** 
 688:Generated_Source\PSoC5/I2C_MASTER.c ****     I2C_DisableInt(); /* Lock from interrupt */
 932              		.loc 1 688 0
 933 0006 0E4B     		ldr	r3, .L68
 934 0008 4FF40042 		mov	r2, #32768
 935 000c 1A60     		str	r2, [r3]
 689:Generated_Source\PSoC5/I2C_MASTER.c **** 
 690:Generated_Source\PSoC5/I2C_MASTER.c ****     /* Read master status */
 691:Generated_Source\PSoC5/I2C_MASTER.c ****     status = I2C_mstrStatus;
 936              		.loc 1 691 0
 937 000e 0D4B     		ldr	r3, .L68+4
 938 0010 1B78     		ldrb	r3, [r3]
 939 0012 FB71     		strb	r3, [r7, #7]
 692:Generated_Source\PSoC5/I2C_MASTER.c **** 
 693:Generated_Source\PSoC5/I2C_MASTER.c ****     if (I2C_CHECK_SM_MASTER)
 940              		.loc 1 693 0
 941 0014 0C4B     		ldr	r3, .L68+8
 942 0016 1B78     		ldrb	r3, [r3]
 943 0018 DBB2     		uxtb	r3, r3
 944 001a 03F04003 		and	r3, r3, #64
 945 001e DBB2     		uxtb	r3, r3
 946 0020 002B     		cmp	r3, #0
 947 0022 03D0     		beq	.L66
 694:Generated_Source\PSoC5/I2C_MASTER.c ****     {
 695:Generated_Source\PSoC5/I2C_MASTER.c ****         /* Set transfer in progress flag in status */
 696:Generated_Source\PSoC5/I2C_MASTER.c ****         status |= I2C_MSTAT_XFER_INP;
 948              		.loc 1 696 0
 949 0024 FB79     		ldrb	r3, [r7, #7]
 950 0026 43F00403 		orr	r3, r3, #4
 951 002a FB71     		strb	r3, [r7, #7]
 952              	.L66:
 697:Generated_Source\PSoC5/I2C_MASTER.c ****     }
 698:Generated_Source\PSoC5/I2C_MASTER.c **** 
 699:Generated_Source\PSoC5/I2C_MASTER.c ****     I2C_EnableInt(); /* Release lock */
 953              		.loc 1 699 0
 954 002c 074B     		ldr	r3, .L68+12
ARM GAS  C:\Users\HPz420\AppData\Local\Temp\ccMm01Ag.s 			page 30


 955 002e 4FF40042 		mov	r2, #32768
 956 0032 1A60     		str	r2, [r3]
 700:Generated_Source\PSoC5/I2C_MASTER.c **** 
 701:Generated_Source\PSoC5/I2C_MASTER.c ****     return (status);
 957              		.loc 1 701 0
 958 0034 FB79     		ldrb	r3, [r7, #7]	@ zero_extendqisi2
 702:Generated_Source\PSoC5/I2C_MASTER.c **** }
 959              		.loc 1 702 0
 960 0036 1846     		mov	r0, r3
 961 0038 0C37     		adds	r7, r7, #12
 962              		.cfi_def_cfa_offset 4
 963 003a BD46     		mov	sp, r7
 964              		.cfi_def_cfa_register 13
 965              		@ sp needed
 966 003c 80BC     		pop	{r7}
 967              		.cfi_restore 7
 968              		.cfi_def_cfa_offset 0
 969 003e 7047     		bx	lr
 970              	.L69:
 971              		.align	2
 972              	.L68:
 973 0040 80E100E0 		.word	-536813184
 974 0044 00000000 		.word	I2C_mstrStatus
 975 0048 00000000 		.word	I2C_state
 976 004c 00E100E0 		.word	-536813312
 977              		.cfi_endproc
 978              	.LFE7:
 979              		.size	I2C_MasterStatus, .-I2C_MasterStatus
 980              		.section	.text.I2C_MasterClearStatus,"ax",%progbits
 981              		.align	2
 982              		.global	I2C_MasterClearStatus
 983              		.thumb
 984              		.thumb_func
 985              		.type	I2C_MasterClearStatus, %function
 986              	I2C_MasterClearStatus:
 987              	.LFB8:
 703:Generated_Source\PSoC5/I2C_MASTER.c **** 
 704:Generated_Source\PSoC5/I2C_MASTER.c **** 
 705:Generated_Source\PSoC5/I2C_MASTER.c **** /*******************************************************************************
 706:Generated_Source\PSoC5/I2C_MASTER.c **** * Function Name: I2C_MasterClearStatus
 707:Generated_Source\PSoC5/I2C_MASTER.c **** ********************************************************************************
 708:Generated_Source\PSoC5/I2C_MASTER.c **** *
 709:Generated_Source\PSoC5/I2C_MASTER.c **** * Summary:
 710:Generated_Source\PSoC5/I2C_MASTER.c **** *  Clears all status flags and returns the master status.
 711:Generated_Source\PSoC5/I2C_MASTER.c **** *
 712:Generated_Source\PSoC5/I2C_MASTER.c **** * Parameters:
 713:Generated_Source\PSoC5/I2C_MASTER.c **** *  None.
 714:Generated_Source\PSoC5/I2C_MASTER.c **** *
 715:Generated_Source\PSoC5/I2C_MASTER.c **** * Return:
 716:Generated_Source\PSoC5/I2C_MASTER.c **** *  Current status of I2C master.
 717:Generated_Source\PSoC5/I2C_MASTER.c **** *
 718:Generated_Source\PSoC5/I2C_MASTER.c **** * Global variables:
 719:Generated_Source\PSoC5/I2C_MASTER.c **** *  I2C_mstrStatus - The global variable used to store a current
 720:Generated_Source\PSoC5/I2C_MASTER.c **** *                                status of the I2C Master.
 721:Generated_Source\PSoC5/I2C_MASTER.c **** *
 722:Generated_Source\PSoC5/I2C_MASTER.c **** * Reentrant:
 723:Generated_Source\PSoC5/I2C_MASTER.c **** *  No.
ARM GAS  C:\Users\HPz420\AppData\Local\Temp\ccMm01Ag.s 			page 31


 724:Generated_Source\PSoC5/I2C_MASTER.c **** *
 725:Generated_Source\PSoC5/I2C_MASTER.c **** *******************************************************************************/
 726:Generated_Source\PSoC5/I2C_MASTER.c **** uint8 I2C_MasterClearStatus(void) 
 727:Generated_Source\PSoC5/I2C_MASTER.c **** {
 988              		.loc 1 727 0
 989              		.cfi_startproc
 990              		@ args = 0, pretend = 0, frame = 8
 991              		@ frame_needed = 1, uses_anonymous_args = 0
 992              		@ link register save eliminated.
 993 0000 80B4     		push	{r7}
 994              		.cfi_def_cfa_offset 4
 995              		.cfi_offset 7, -4
 996 0002 83B0     		sub	sp, sp, #12
 997              		.cfi_def_cfa_offset 16
 998 0004 00AF     		add	r7, sp, #0
 999              		.cfi_def_cfa_register 7
 728:Generated_Source\PSoC5/I2C_MASTER.c ****     uint8 status;
 729:Generated_Source\PSoC5/I2C_MASTER.c **** 
 730:Generated_Source\PSoC5/I2C_MASTER.c ****     I2C_DisableInt(); /* Lock from interrupt */
 1000              		.loc 1 730 0
 1001 0006 0A4B     		ldr	r3, .L72
 1002 0008 4FF40042 		mov	r2, #32768
 1003 000c 1A60     		str	r2, [r3]
 731:Generated_Source\PSoC5/I2C_MASTER.c **** 
 732:Generated_Source\PSoC5/I2C_MASTER.c ****     /* Read and clear master status */
 733:Generated_Source\PSoC5/I2C_MASTER.c ****     status = I2C_mstrStatus;
 1004              		.loc 1 733 0
 1005 000e 094B     		ldr	r3, .L72+4
 1006 0010 1B78     		ldrb	r3, [r3]
 1007 0012 FB71     		strb	r3, [r7, #7]
 734:Generated_Source\PSoC5/I2C_MASTER.c ****     I2C_mstrStatus = I2C_MSTAT_CLEAR;
 1008              		.loc 1 734 0
 1009 0014 074B     		ldr	r3, .L72+4
 1010 0016 0022     		movs	r2, #0
 1011 0018 1A70     		strb	r2, [r3]
 735:Generated_Source\PSoC5/I2C_MASTER.c **** 
 736:Generated_Source\PSoC5/I2C_MASTER.c ****     I2C_EnableInt(); /* Release lock */
 1012              		.loc 1 736 0
 1013 001a 074B     		ldr	r3, .L72+8
 1014 001c 4FF40042 		mov	r2, #32768
 1015 0020 1A60     		str	r2, [r3]
 737:Generated_Source\PSoC5/I2C_MASTER.c **** 
 738:Generated_Source\PSoC5/I2C_MASTER.c ****     return (status);
 1016              		.loc 1 738 0
 1017 0022 FB79     		ldrb	r3, [r7, #7]	@ zero_extendqisi2
 739:Generated_Source\PSoC5/I2C_MASTER.c **** }
 1018              		.loc 1 739 0
 1019 0024 1846     		mov	r0, r3
 1020 0026 0C37     		adds	r7, r7, #12
 1021              		.cfi_def_cfa_offset 4
 1022 0028 BD46     		mov	sp, r7
 1023              		.cfi_def_cfa_register 13
 1024              		@ sp needed
 1025 002a 80BC     		pop	{r7}
 1026              		.cfi_restore 7
 1027              		.cfi_def_cfa_offset 0
 1028 002c 7047     		bx	lr
ARM GAS  C:\Users\HPz420\AppData\Local\Temp\ccMm01Ag.s 			page 32


 1029              	.L73:
 1030 002e 00BF     		.align	2
 1031              	.L72:
 1032 0030 80E100E0 		.word	-536813184
 1033 0034 00000000 		.word	I2C_mstrStatus
 1034 0038 00E100E0 		.word	-536813312
 1035              		.cfi_endproc
 1036              	.LFE8:
 1037              		.size	I2C_MasterClearStatus, .-I2C_MasterClearStatus
 1038              		.section	.text.I2C_MasterGetReadBufSize,"ax",%progbits
 1039              		.align	2
 1040              		.global	I2C_MasterGetReadBufSize
 1041              		.thumb
 1042              		.thumb_func
 1043              		.type	I2C_MasterGetReadBufSize, %function
 1044              	I2C_MasterGetReadBufSize:
 1045              	.LFB9:
 740:Generated_Source\PSoC5/I2C_MASTER.c **** 
 741:Generated_Source\PSoC5/I2C_MASTER.c **** 
 742:Generated_Source\PSoC5/I2C_MASTER.c **** /*******************************************************************************
 743:Generated_Source\PSoC5/I2C_MASTER.c **** * Function Name: I2C_MasterGetReadBufSize
 744:Generated_Source\PSoC5/I2C_MASTER.c **** ********************************************************************************
 745:Generated_Source\PSoC5/I2C_MASTER.c **** *
 746:Generated_Source\PSoC5/I2C_MASTER.c **** * Summary:
 747:Generated_Source\PSoC5/I2C_MASTER.c **** *  Returns the amount of bytes that has been transferred with an
 748:Generated_Source\PSoC5/I2C_MASTER.c **** *  I2C_MasterReadBuf command.
 749:Generated_Source\PSoC5/I2C_MASTER.c **** *
 750:Generated_Source\PSoC5/I2C_MASTER.c **** * Parameters:
 751:Generated_Source\PSoC5/I2C_MASTER.c **** *  None.
 752:Generated_Source\PSoC5/I2C_MASTER.c **** *
 753:Generated_Source\PSoC5/I2C_MASTER.c **** * Return:
 754:Generated_Source\PSoC5/I2C_MASTER.c **** *  Byte count of transfer. If the transfer is not yet complete, it will return
 755:Generated_Source\PSoC5/I2C_MASTER.c **** *  the byte count transferred so far.
 756:Generated_Source\PSoC5/I2C_MASTER.c **** *
 757:Generated_Source\PSoC5/I2C_MASTER.c **** * Global variables:
 758:Generated_Source\PSoC5/I2C_MASTER.c **** *  I2C_mstrRdBufIndex - The global variable stores current index
 759:Generated_Source\PSoC5/I2C_MASTER.c **** *                                    within the master read buffer.
 760:Generated_Source\PSoC5/I2C_MASTER.c **** *
 761:Generated_Source\PSoC5/I2C_MASTER.c **** *******************************************************************************/
 762:Generated_Source\PSoC5/I2C_MASTER.c **** uint8 I2C_MasterGetReadBufSize(void) 
 763:Generated_Source\PSoC5/I2C_MASTER.c **** {
 1046              		.loc 1 763 0
 1047              		.cfi_startproc
 1048              		@ args = 0, pretend = 0, frame = 0
 1049              		@ frame_needed = 1, uses_anonymous_args = 0
 1050              		@ link register save eliminated.
 1051 0000 80B4     		push	{r7}
 1052              		.cfi_def_cfa_offset 4
 1053              		.cfi_offset 7, -4
 1054 0002 00AF     		add	r7, sp, #0
 1055              		.cfi_def_cfa_register 7
 764:Generated_Source\PSoC5/I2C_MASTER.c ****     return (I2C_mstrRdBufIndex);
 1056              		.loc 1 764 0
 1057 0004 034B     		ldr	r3, .L76
 1058 0006 1B78     		ldrb	r3, [r3]
 1059 0008 DBB2     		uxtb	r3, r3
 765:Generated_Source\PSoC5/I2C_MASTER.c **** }
ARM GAS  C:\Users\HPz420\AppData\Local\Temp\ccMm01Ag.s 			page 33


 1060              		.loc 1 765 0
 1061 000a 1846     		mov	r0, r3
 1062 000c BD46     		mov	sp, r7
 1063              		.cfi_def_cfa_register 13
 1064              		@ sp needed
 1065 000e 80BC     		pop	{r7}
 1066              		.cfi_restore 7
 1067              		.cfi_def_cfa_offset 0
 1068 0010 7047     		bx	lr
 1069              	.L77:
 1070 0012 00BF     		.align	2
 1071              	.L76:
 1072 0014 00000000 		.word	I2C_mstrRdBufIndex
 1073              		.cfi_endproc
 1074              	.LFE9:
 1075              		.size	I2C_MasterGetReadBufSize, .-I2C_MasterGetReadBufSize
 1076              		.section	.text.I2C_MasterGetWriteBufSize,"ax",%progbits
 1077              		.align	2
 1078              		.global	I2C_MasterGetWriteBufSize
 1079              		.thumb
 1080              		.thumb_func
 1081              		.type	I2C_MasterGetWriteBufSize, %function
 1082              	I2C_MasterGetWriteBufSize:
 1083              	.LFB10:
 766:Generated_Source\PSoC5/I2C_MASTER.c **** 
 767:Generated_Source\PSoC5/I2C_MASTER.c **** 
 768:Generated_Source\PSoC5/I2C_MASTER.c **** /*******************************************************************************
 769:Generated_Source\PSoC5/I2C_MASTER.c **** * Function Name: I2C_MasterGetWriteBufSize
 770:Generated_Source\PSoC5/I2C_MASTER.c **** ********************************************************************************
 771:Generated_Source\PSoC5/I2C_MASTER.c **** *
 772:Generated_Source\PSoC5/I2C_MASTER.c **** * Summary:
 773:Generated_Source\PSoC5/I2C_MASTER.c **** *  Returns the amount of bytes that has been transferred with an
 774:Generated_Source\PSoC5/I2C_MASTER.c **** *  I2C_MasterWriteBuf command.
 775:Generated_Source\PSoC5/I2C_MASTER.c **** *
 776:Generated_Source\PSoC5/I2C_MASTER.c **** * Parameters:
 777:Generated_Source\PSoC5/I2C_MASTER.c **** *  None.
 778:Generated_Source\PSoC5/I2C_MASTER.c **** *
 779:Generated_Source\PSoC5/I2C_MASTER.c **** * Return:
 780:Generated_Source\PSoC5/I2C_MASTER.c **** *  Byte count of transfer. If the transfer is not yet complete, it will return
 781:Generated_Source\PSoC5/I2C_MASTER.c **** *  the byte count transferred so far.
 782:Generated_Source\PSoC5/I2C_MASTER.c **** *
 783:Generated_Source\PSoC5/I2C_MASTER.c **** * Global variables:
 784:Generated_Source\PSoC5/I2C_MASTER.c **** *  I2C_mstrWrBufIndex -  The global variable used to stores current
 785:Generated_Source\PSoC5/I2C_MASTER.c **** *                                     index within master write buffer.
 786:Generated_Source\PSoC5/I2C_MASTER.c **** *
 787:Generated_Source\PSoC5/I2C_MASTER.c **** *******************************************************************************/
 788:Generated_Source\PSoC5/I2C_MASTER.c **** uint8 I2C_MasterGetWriteBufSize(void) 
 789:Generated_Source\PSoC5/I2C_MASTER.c **** {
 1084              		.loc 1 789 0
 1085              		.cfi_startproc
 1086              		@ args = 0, pretend = 0, frame = 0
 1087              		@ frame_needed = 1, uses_anonymous_args = 0
 1088              		@ link register save eliminated.
 1089 0000 80B4     		push	{r7}
 1090              		.cfi_def_cfa_offset 4
 1091              		.cfi_offset 7, -4
 1092 0002 00AF     		add	r7, sp, #0
ARM GAS  C:\Users\HPz420\AppData\Local\Temp\ccMm01Ag.s 			page 34


 1093              		.cfi_def_cfa_register 7
 790:Generated_Source\PSoC5/I2C_MASTER.c ****     return (I2C_mstrWrBufIndex);
 1094              		.loc 1 790 0
 1095 0004 034B     		ldr	r3, .L80
 1096 0006 1B78     		ldrb	r3, [r3]
 1097 0008 DBB2     		uxtb	r3, r3
 791:Generated_Source\PSoC5/I2C_MASTER.c **** }
 1098              		.loc 1 791 0
 1099 000a 1846     		mov	r0, r3
 1100 000c BD46     		mov	sp, r7
 1101              		.cfi_def_cfa_register 13
 1102              		@ sp needed
 1103 000e 80BC     		pop	{r7}
 1104              		.cfi_restore 7
 1105              		.cfi_def_cfa_offset 0
 1106 0010 7047     		bx	lr
 1107              	.L81:
 1108 0012 00BF     		.align	2
 1109              	.L80:
 1110 0014 00000000 		.word	I2C_mstrWrBufIndex
 1111              		.cfi_endproc
 1112              	.LFE10:
 1113              		.size	I2C_MasterGetWriteBufSize, .-I2C_MasterGetWriteBufSize
 1114              		.section	.text.I2C_MasterClearReadBuf,"ax",%progbits
 1115              		.align	2
 1116              		.global	I2C_MasterClearReadBuf
 1117              		.thumb
 1118              		.thumb_func
 1119              		.type	I2C_MasterClearReadBuf, %function
 1120              	I2C_MasterClearReadBuf:
 1121              	.LFB11:
 792:Generated_Source\PSoC5/I2C_MASTER.c **** 
 793:Generated_Source\PSoC5/I2C_MASTER.c **** 
 794:Generated_Source\PSoC5/I2C_MASTER.c **** /*******************************************************************************
 795:Generated_Source\PSoC5/I2C_MASTER.c **** * Function Name: I2C_MasterClearReadBuf
 796:Generated_Source\PSoC5/I2C_MASTER.c **** ********************************************************************************
 797:Generated_Source\PSoC5/I2C_MASTER.c **** *
 798:Generated_Source\PSoC5/I2C_MASTER.c **** * Summary:
 799:Generated_Source\PSoC5/I2C_MASTER.c **** *  Resets the read buffer pointer back to the first byte in the buffer.
 800:Generated_Source\PSoC5/I2C_MASTER.c **** *
 801:Generated_Source\PSoC5/I2C_MASTER.c **** * Parameters:
 802:Generated_Source\PSoC5/I2C_MASTER.c **** *  None.
 803:Generated_Source\PSoC5/I2C_MASTER.c **** *
 804:Generated_Source\PSoC5/I2C_MASTER.c **** * Return:
 805:Generated_Source\PSoC5/I2C_MASTER.c **** *  None.
 806:Generated_Source\PSoC5/I2C_MASTER.c **** *
 807:Generated_Source\PSoC5/I2C_MASTER.c **** * Global variables:
 808:Generated_Source\PSoC5/I2C_MASTER.c **** *  I2C_mstrRdBufIndex - The global variable used to stores current
 809:Generated_Source\PSoC5/I2C_MASTER.c **** *                                    index within master read buffer.
 810:Generated_Source\PSoC5/I2C_MASTER.c **** *  I2C_mstrStatus - The global variable used to store a current
 811:Generated_Source\PSoC5/I2C_MASTER.c **** *                                status of the I2C Master.
 812:Generated_Source\PSoC5/I2C_MASTER.c **** *
 813:Generated_Source\PSoC5/I2C_MASTER.c **** * Reentrant:
 814:Generated_Source\PSoC5/I2C_MASTER.c **** *  No.
 815:Generated_Source\PSoC5/I2C_MASTER.c **** *
 816:Generated_Source\PSoC5/I2C_MASTER.c **** *******************************************************************************/
 817:Generated_Source\PSoC5/I2C_MASTER.c **** void I2C_MasterClearReadBuf(void) 
ARM GAS  C:\Users\HPz420\AppData\Local\Temp\ccMm01Ag.s 			page 35


 818:Generated_Source\PSoC5/I2C_MASTER.c **** {
 1122              		.loc 1 818 0
 1123              		.cfi_startproc
 1124              		@ args = 0, pretend = 0, frame = 0
 1125              		@ frame_needed = 1, uses_anonymous_args = 0
 1126              		@ link register save eliminated.
 1127 0000 80B4     		push	{r7}
 1128              		.cfi_def_cfa_offset 4
 1129              		.cfi_offset 7, -4
 1130 0002 00AF     		add	r7, sp, #0
 1131              		.cfi_def_cfa_register 7
 819:Generated_Source\PSoC5/I2C_MASTER.c ****     I2C_DisableInt(); /* Lock from interrupt */
 1132              		.loc 1 819 0
 1133 0004 0B4B     		ldr	r3, .L83
 1134 0006 4FF40042 		mov	r2, #32768
 1135 000a 1A60     		str	r2, [r3]
 820:Generated_Source\PSoC5/I2C_MASTER.c **** 
 821:Generated_Source\PSoC5/I2C_MASTER.c ****     I2C_mstrRdBufIndex = 0u;
 1136              		.loc 1 821 0
 1137 000c 0A4B     		ldr	r3, .L83+4
 1138 000e 0022     		movs	r2, #0
 1139 0010 1A70     		strb	r2, [r3]
 822:Generated_Source\PSoC5/I2C_MASTER.c ****     I2C_mstrStatus    &= (uint8) ~I2C_MSTAT_RD_CMPLT;
 1140              		.loc 1 822 0
 1141 0012 0A4B     		ldr	r3, .L83+8
 1142 0014 1B78     		ldrb	r3, [r3]
 1143 0016 DBB2     		uxtb	r3, r3
 1144 0018 23F00103 		bic	r3, r3, #1
 1145 001c DAB2     		uxtb	r2, r3
 1146 001e 074B     		ldr	r3, .L83+8
 1147 0020 1A70     		strb	r2, [r3]
 823:Generated_Source\PSoC5/I2C_MASTER.c **** 
 824:Generated_Source\PSoC5/I2C_MASTER.c ****     I2C_EnableInt(); /* Release lock */
 1148              		.loc 1 824 0
 1149 0022 074B     		ldr	r3, .L83+12
 1150 0024 4FF40042 		mov	r2, #32768
 1151 0028 1A60     		str	r2, [r3]
 825:Generated_Source\PSoC5/I2C_MASTER.c **** }
 1152              		.loc 1 825 0
 1153 002a 00BF     		nop
 1154 002c BD46     		mov	sp, r7
 1155              		.cfi_def_cfa_register 13
 1156              		@ sp needed
 1157 002e 80BC     		pop	{r7}
 1158              		.cfi_restore 7
 1159              		.cfi_def_cfa_offset 0
 1160 0030 7047     		bx	lr
 1161              	.L84:
 1162 0032 00BF     		.align	2
 1163              	.L83:
 1164 0034 80E100E0 		.word	-536813184
 1165 0038 00000000 		.word	I2C_mstrRdBufIndex
 1166 003c 00000000 		.word	I2C_mstrStatus
 1167 0040 00E100E0 		.word	-536813312
 1168              		.cfi_endproc
 1169              	.LFE11:
 1170              		.size	I2C_MasterClearReadBuf, .-I2C_MasterClearReadBuf
ARM GAS  C:\Users\HPz420\AppData\Local\Temp\ccMm01Ag.s 			page 36


 1171              		.section	.text.I2C_MasterClearWriteBuf,"ax",%progbits
 1172              		.align	2
 1173              		.global	I2C_MasterClearWriteBuf
 1174              		.thumb
 1175              		.thumb_func
 1176              		.type	I2C_MasterClearWriteBuf, %function
 1177              	I2C_MasterClearWriteBuf:
 1178              	.LFB12:
 826:Generated_Source\PSoC5/I2C_MASTER.c **** 
 827:Generated_Source\PSoC5/I2C_MASTER.c **** 
 828:Generated_Source\PSoC5/I2C_MASTER.c **** /*******************************************************************************
 829:Generated_Source\PSoC5/I2C_MASTER.c **** * Function Name: I2C_MasterClearWriteBuf
 830:Generated_Source\PSoC5/I2C_MASTER.c **** ********************************************************************************
 831:Generated_Source\PSoC5/I2C_MASTER.c **** *
 832:Generated_Source\PSoC5/I2C_MASTER.c **** * Summary:
 833:Generated_Source\PSoC5/I2C_MASTER.c **** *  Resets the write buffer pointer back to the first byte in the buffer.
 834:Generated_Source\PSoC5/I2C_MASTER.c **** *
 835:Generated_Source\PSoC5/I2C_MASTER.c **** * Parameters:
 836:Generated_Source\PSoC5/I2C_MASTER.c **** *  None.
 837:Generated_Source\PSoC5/I2C_MASTER.c **** *
 838:Generated_Source\PSoC5/I2C_MASTER.c **** * Return:
 839:Generated_Source\PSoC5/I2C_MASTER.c **** *  None.
 840:Generated_Source\PSoC5/I2C_MASTER.c **** *
 841:Generated_Source\PSoC5/I2C_MASTER.c **** * Global variables:
 842:Generated_Source\PSoC5/I2C_MASTER.c **** *  I2C_mstrRdBufIndex - The global variable used to stote current
 843:Generated_Source\PSoC5/I2C_MASTER.c **** *                                    index within master read buffer.
 844:Generated_Source\PSoC5/I2C_MASTER.c **** *  I2C_mstrStatus - The global variable used to store a current
 845:Generated_Source\PSoC5/I2C_MASTER.c **** *                                status of the I2C Master.
 846:Generated_Source\PSoC5/I2C_MASTER.c **** *
 847:Generated_Source\PSoC5/I2C_MASTER.c **** * Reentrant:
 848:Generated_Source\PSoC5/I2C_MASTER.c **** *  No.
 849:Generated_Source\PSoC5/I2C_MASTER.c **** *
 850:Generated_Source\PSoC5/I2C_MASTER.c **** *******************************************************************************/
 851:Generated_Source\PSoC5/I2C_MASTER.c **** void I2C_MasterClearWriteBuf(void) 
 852:Generated_Source\PSoC5/I2C_MASTER.c **** {
 1179              		.loc 1 852 0
 1180              		.cfi_startproc
 1181              		@ args = 0, pretend = 0, frame = 0
 1182              		@ frame_needed = 1, uses_anonymous_args = 0
 1183              		@ link register save eliminated.
 1184 0000 80B4     		push	{r7}
 1185              		.cfi_def_cfa_offset 4
 1186              		.cfi_offset 7, -4
 1187 0002 00AF     		add	r7, sp, #0
 1188              		.cfi_def_cfa_register 7
 853:Generated_Source\PSoC5/I2C_MASTER.c ****     I2C_DisableInt(); /* Lock from interrupt */
 1189              		.loc 1 853 0
 1190 0004 0B4B     		ldr	r3, .L86
 1191 0006 4FF40042 		mov	r2, #32768
 1192 000a 1A60     		str	r2, [r3]
 854:Generated_Source\PSoC5/I2C_MASTER.c **** 
 855:Generated_Source\PSoC5/I2C_MASTER.c ****     I2C_mstrWrBufIndex = 0u;
 1193              		.loc 1 855 0
 1194 000c 0A4B     		ldr	r3, .L86+4
 1195 000e 0022     		movs	r2, #0
 1196 0010 1A70     		strb	r2, [r3]
 856:Generated_Source\PSoC5/I2C_MASTER.c ****     I2C_mstrStatus    &= (uint8) ~I2C_MSTAT_WR_CMPLT;
ARM GAS  C:\Users\HPz420\AppData\Local\Temp\ccMm01Ag.s 			page 37


 1197              		.loc 1 856 0
 1198 0012 0A4B     		ldr	r3, .L86+8
 1199 0014 1B78     		ldrb	r3, [r3]
 1200 0016 DBB2     		uxtb	r3, r3
 1201 0018 23F00203 		bic	r3, r3, #2
 1202 001c DAB2     		uxtb	r2, r3
 1203 001e 074B     		ldr	r3, .L86+8
 1204 0020 1A70     		strb	r2, [r3]
 857:Generated_Source\PSoC5/I2C_MASTER.c **** 
 858:Generated_Source\PSoC5/I2C_MASTER.c ****     I2C_EnableInt(); /* Release lock */
 1205              		.loc 1 858 0
 1206 0022 074B     		ldr	r3, .L86+12
 1207 0024 4FF40042 		mov	r2, #32768
 1208 0028 1A60     		str	r2, [r3]
 859:Generated_Source\PSoC5/I2C_MASTER.c **** }
 1209              		.loc 1 859 0
 1210 002a 00BF     		nop
 1211 002c BD46     		mov	sp, r7
 1212              		.cfi_def_cfa_register 13
 1213              		@ sp needed
 1214 002e 80BC     		pop	{r7}
 1215              		.cfi_restore 7
 1216              		.cfi_def_cfa_offset 0
 1217 0030 7047     		bx	lr
 1218              	.L87:
 1219 0032 00BF     		.align	2
 1220              	.L86:
 1221 0034 80E100E0 		.word	-536813184
 1222 0038 00000000 		.word	I2C_mstrWrBufIndex
 1223 003c 00000000 		.word	I2C_mstrStatus
 1224 0040 00E100E0 		.word	-536813312
 1225              		.cfi_endproc
 1226              	.LFE12:
 1227              		.size	I2C_MasterClearWriteBuf, .-I2C_MasterClearWriteBuf
 1228              		.text
 1229              	.Letext0:
 1230              		.file 2 "Generated_Source\\PSoC5\\cytypes.h"
 1231              		.file 3 "Generated_Source\\PSoC5\\I2C_PVT.h"