ARM GAS  C:\Users\HPz420\AppData\Local\Temp\ccVry06E.s 			page 1


   1              		.syntax unified
   2              		.cpu cortex-m3
   3              		.fpu softvfp
   4              		.eabi_attribute 20, 1
   5              		.eabi_attribute 21, 1
   6              		.eabi_attribute 23, 3
   7              		.eabi_attribute 24, 1
   8              		.eabi_attribute 25, 1
   9              		.eabi_attribute 26, 1
  10              		.eabi_attribute 30, 6
  11              		.eabi_attribute 34, 1
  12              		.eabi_attribute 18, 4
  13              		.thumb
  14              		.syntax unified
  15              		.file	"I2C_INT.c"
  16              		.text
  17              	.Ltext0:
  18              		.cfi_sections	.debug_frame
  19              		.section	.text.I2C_ISR,"ax",%progbits
  20              		.align	2
  21              		.global	I2C_ISR
  22              		.thumb
  23              		.thumb_func
  24              		.type	I2C_ISR, %function
  25              	I2C_ISR:
  26              	.LFB0:
  27              		.file 1 "Generated_Source\\PSoC5\\I2C_INT.c"
   1:Generated_Source\PSoC5/I2C_INT.c **** /*******************************************************************************
   2:Generated_Source\PSoC5/I2C_INT.c **** * File Name: I2C_INT.c
   3:Generated_Source\PSoC5/I2C_INT.c **** * Version 3.50
   4:Generated_Source\PSoC5/I2C_INT.c **** *
   5:Generated_Source\PSoC5/I2C_INT.c **** * Description:
   6:Generated_Source\PSoC5/I2C_INT.c **** *  This file provides the source code of Interrupt Service Routine (ISR)
   7:Generated_Source\PSoC5/I2C_INT.c **** *  for the I2C component.
   8:Generated_Source\PSoC5/I2C_INT.c **** *
   9:Generated_Source\PSoC5/I2C_INT.c **** ********************************************************************************
  10:Generated_Source\PSoC5/I2C_INT.c **** * Copyright 2008-2015, Cypress Semiconductor Corporation. All rights reserved.
  11:Generated_Source\PSoC5/I2C_INT.c **** * You may use this file only in accordance with the license, terms, conditions,
  12:Generated_Source\PSoC5/I2C_INT.c **** * disclaimers, and limitations in the end user license agreement accompanying
  13:Generated_Source\PSoC5/I2C_INT.c **** * the software package with which this file was provided.
  14:Generated_Source\PSoC5/I2C_INT.c **** *******************************************************************************/
  15:Generated_Source\PSoC5/I2C_INT.c **** 
  16:Generated_Source\PSoC5/I2C_INT.c **** #include "I2C_PVT.h"
  17:Generated_Source\PSoC5/I2C_INT.c **** #include "cyapicallbacks.h"
  18:Generated_Source\PSoC5/I2C_INT.c **** 
  19:Generated_Source\PSoC5/I2C_INT.c **** 
  20:Generated_Source\PSoC5/I2C_INT.c **** /*******************************************************************************
  21:Generated_Source\PSoC5/I2C_INT.c **** *  Place your includes, defines and code here.
  22:Generated_Source\PSoC5/I2C_INT.c **** ********************************************************************************/
  23:Generated_Source\PSoC5/I2C_INT.c **** /* `#START I2C_ISR_intc` */
  24:Generated_Source\PSoC5/I2C_INT.c **** 
  25:Generated_Source\PSoC5/I2C_INT.c **** /* `#END` */
  26:Generated_Source\PSoC5/I2C_INT.c **** 
  27:Generated_Source\PSoC5/I2C_INT.c **** 
  28:Generated_Source\PSoC5/I2C_INT.c **** /*******************************************************************************
  29:Generated_Source\PSoC5/I2C_INT.c **** * Function Name: I2C_ISR
  30:Generated_Source\PSoC5/I2C_INT.c **** ********************************************************************************
ARM GAS  C:\Users\HPz420\AppData\Local\Temp\ccVry06E.s 			page 2


  31:Generated_Source\PSoC5/I2C_INT.c **** *
  32:Generated_Source\PSoC5/I2C_INT.c **** * Summary:
  33:Generated_Source\PSoC5/I2C_INT.c **** *  The handler for the I2C interrupt. The slave and master operations are
  34:Generated_Source\PSoC5/I2C_INT.c **** *  handled here.
  35:Generated_Source\PSoC5/I2C_INT.c **** *
  36:Generated_Source\PSoC5/I2C_INT.c **** * Parameters:
  37:Generated_Source\PSoC5/I2C_INT.c **** *  None.
  38:Generated_Source\PSoC5/I2C_INT.c **** *
  39:Generated_Source\PSoC5/I2C_INT.c **** * Return:
  40:Generated_Source\PSoC5/I2C_INT.c **** *  None.
  41:Generated_Source\PSoC5/I2C_INT.c **** *
  42:Generated_Source\PSoC5/I2C_INT.c **** * Reentrant:
  43:Generated_Source\PSoC5/I2C_INT.c **** *  No.
  44:Generated_Source\PSoC5/I2C_INT.c **** *
  45:Generated_Source\PSoC5/I2C_INT.c **** *******************************************************************************/
  46:Generated_Source\PSoC5/I2C_INT.c **** CY_ISR(I2C_ISR)
  47:Generated_Source\PSoC5/I2C_INT.c **** {
  28              		.loc 1 47 0
  29              		.cfi_startproc
  30              		@ args = 0, pretend = 0, frame = 8
  31              		@ frame_needed = 1, uses_anonymous_args = 0
  32 0000 80B5     		push	{r7, lr}
  33              		.cfi_def_cfa_offset 8
  34              		.cfi_offset 7, -8
  35              		.cfi_offset 14, -4
  36 0002 82B0     		sub	sp, sp, #8
  37              		.cfi_def_cfa_offset 16
  38 0004 00AF     		add	r7, sp, #0
  39              		.cfi_def_cfa_register 7
  48:Generated_Source\PSoC5/I2C_INT.c **** #if (I2C_MODE_SLAVE_ENABLED)
  49:Generated_Source\PSoC5/I2C_INT.c ****    uint8  tmp8;
  50:Generated_Source\PSoC5/I2C_INT.c **** #endif  /* (I2C_MODE_SLAVE_ENABLED) */
  51:Generated_Source\PSoC5/I2C_INT.c **** 
  52:Generated_Source\PSoC5/I2C_INT.c ****     uint8  tmpCsr;
  53:Generated_Source\PSoC5/I2C_INT.c ****     
  54:Generated_Source\PSoC5/I2C_INT.c **** #ifdef I2C_ISR_ENTRY_CALLBACK
  55:Generated_Source\PSoC5/I2C_INT.c ****     I2C_ISR_EntryCallback();
  56:Generated_Source\PSoC5/I2C_INT.c **** #endif /* I2C_ISR_ENTRY_CALLBACK */
  57:Generated_Source\PSoC5/I2C_INT.c ****     
  58:Generated_Source\PSoC5/I2C_INT.c **** 
  59:Generated_Source\PSoC5/I2C_INT.c **** #if(I2C_TIMEOUT_FF_ENABLED)
  60:Generated_Source\PSoC5/I2C_INT.c ****     if(0u != I2C_TimeoutGetStatus())
  61:Generated_Source\PSoC5/I2C_INT.c ****     {
  62:Generated_Source\PSoC5/I2C_INT.c ****         I2C_TimeoutReset();
  63:Generated_Source\PSoC5/I2C_INT.c ****         I2C_state = I2C_SM_EXIT_IDLE;
  64:Generated_Source\PSoC5/I2C_INT.c ****         /* I2C_CSR_REG should be cleared after reset */
  65:Generated_Source\PSoC5/I2C_INT.c ****     }
  66:Generated_Source\PSoC5/I2C_INT.c **** #endif /* (I2C_TIMEOUT_FF_ENABLED) */
  67:Generated_Source\PSoC5/I2C_INT.c **** 
  68:Generated_Source\PSoC5/I2C_INT.c **** 
  69:Generated_Source\PSoC5/I2C_INT.c ****     tmpCsr = I2C_CSR_REG;      /* Make copy as interrupts clear */
  40              		.loc 1 69 0
  41 0006 A74B     		ldr	r3, .L35
  42 0008 1B78     		ldrb	r3, [r3]
  43 000a FB71     		strb	r3, [r7, #7]
  70:Generated_Source\PSoC5/I2C_INT.c **** 
  71:Generated_Source\PSoC5/I2C_INT.c **** #if(I2C_MODE_MULTI_MASTER_SLAVE_ENABLED)
ARM GAS  C:\Users\HPz420\AppData\Local\Temp\ccVry06E.s 			page 3


  72:Generated_Source\PSoC5/I2C_INT.c ****     if(I2C_CHECK_START_GEN(I2C_MCSR_REG))
  73:Generated_Source\PSoC5/I2C_INT.c ****     {
  74:Generated_Source\PSoC5/I2C_INT.c ****         I2C_CLEAR_START_GEN;
  75:Generated_Source\PSoC5/I2C_INT.c **** 
  76:Generated_Source\PSoC5/I2C_INT.c ****         /* Set transfer complete and error flags */
  77:Generated_Source\PSoC5/I2C_INT.c ****         I2C_mstrStatus |= (I2C_MSTAT_ERR_XFER |
  78:Generated_Source\PSoC5/I2C_INT.c ****                                         I2C_GET_MSTAT_CMPLT);
  79:Generated_Source\PSoC5/I2C_INT.c **** 
  80:Generated_Source\PSoC5/I2C_INT.c ****         /* Slave was addressed */
  81:Generated_Source\PSoC5/I2C_INT.c ****         I2C_state = I2C_SM_SLAVE;
  82:Generated_Source\PSoC5/I2C_INT.c ****     }
  83:Generated_Source\PSoC5/I2C_INT.c **** #endif /* (I2C_MODE_MULTI_MASTER_SLAVE_ENABLED) */
  84:Generated_Source\PSoC5/I2C_INT.c **** 
  85:Generated_Source\PSoC5/I2C_INT.c **** 
  86:Generated_Source\PSoC5/I2C_INT.c **** #if(I2C_MODE_MULTI_MASTER_ENABLED)
  87:Generated_Source\PSoC5/I2C_INT.c ****     if(I2C_CHECK_LOST_ARB(tmpCsr))
  88:Generated_Source\PSoC5/I2C_INT.c ****     {
  89:Generated_Source\PSoC5/I2C_INT.c ****         /* Set errors */
  90:Generated_Source\PSoC5/I2C_INT.c ****         I2C_mstrStatus |= (I2C_MSTAT_ERR_XFER     |
  91:Generated_Source\PSoC5/I2C_INT.c ****                                         I2C_MSTAT_ERR_ARB_LOST |
  92:Generated_Source\PSoC5/I2C_INT.c ****                                         I2C_GET_MSTAT_CMPLT);
  93:Generated_Source\PSoC5/I2C_INT.c **** 
  94:Generated_Source\PSoC5/I2C_INT.c ****         I2C_DISABLE_INT_ON_STOP; /* Interrupt on Stop is enabled by write */
  95:Generated_Source\PSoC5/I2C_INT.c **** 
  96:Generated_Source\PSoC5/I2C_INT.c ****         #if(I2C_MODE_MULTI_MASTER_SLAVE_ENABLED)
  97:Generated_Source\PSoC5/I2C_INT.c ****             if(I2C_CHECK_ADDRESS_STS(tmpCsr))
  98:Generated_Source\PSoC5/I2C_INT.c ****             {
  99:Generated_Source\PSoC5/I2C_INT.c ****                 /* Slave was addressed */
 100:Generated_Source\PSoC5/I2C_INT.c ****                 I2C_state = I2C_SM_SLAVE;
 101:Generated_Source\PSoC5/I2C_INT.c ****             }
 102:Generated_Source\PSoC5/I2C_INT.c ****             else
 103:Generated_Source\PSoC5/I2C_INT.c ****             {
 104:Generated_Source\PSoC5/I2C_INT.c ****                 I2C_BUS_RELEASE;
 105:Generated_Source\PSoC5/I2C_INT.c **** 
 106:Generated_Source\PSoC5/I2C_INT.c ****                 I2C_state = I2C_SM_EXIT_IDLE;
 107:Generated_Source\PSoC5/I2C_INT.c ****             }
 108:Generated_Source\PSoC5/I2C_INT.c ****         #else
 109:Generated_Source\PSoC5/I2C_INT.c ****             I2C_BUS_RELEASE;
 110:Generated_Source\PSoC5/I2C_INT.c **** 
 111:Generated_Source\PSoC5/I2C_INT.c ****             I2C_state = I2C_SM_EXIT_IDLE;
 112:Generated_Source\PSoC5/I2C_INT.c **** 
 113:Generated_Source\PSoC5/I2C_INT.c ****         #endif /* (I2C_MODE_MULTI_MASTER_SLAVE_ENABLED) */
 114:Generated_Source\PSoC5/I2C_INT.c ****     }
 115:Generated_Source\PSoC5/I2C_INT.c **** #endif /* (I2C_MODE_MULTI_MASTER_ENABLED) */
 116:Generated_Source\PSoC5/I2C_INT.c **** 
 117:Generated_Source\PSoC5/I2C_INT.c ****     /* Check for master operation mode */
 118:Generated_Source\PSoC5/I2C_INT.c ****     if(I2C_CHECK_SM_MASTER)
  44              		.loc 1 118 0
  45 000c A64B     		ldr	r3, .L35+4
  46 000e 1B78     		ldrb	r3, [r3]
  47 0010 DBB2     		uxtb	r3, r3
  48 0012 03F04003 		and	r3, r3, #64
  49 0016 DBB2     		uxtb	r3, r3
  50 0018 002B     		cmp	r3, #0
  51 001a 00F0A981 		beq	.L2
 119:Generated_Source\PSoC5/I2C_INT.c ****     {
 120:Generated_Source\PSoC5/I2C_INT.c ****     #if(I2C_MODE_MASTER_ENABLED)
ARM GAS  C:\Users\HPz420\AppData\Local\Temp\ccVry06E.s 			page 4


 121:Generated_Source\PSoC5/I2C_INT.c ****         if(I2C_CHECK_BYTE_COMPLETE(tmpCsr))
  52              		.loc 1 121 0
  53 001e FB79     		ldrb	r3, [r7, #7]	@ zero_extendqisi2
  54 0020 03F00103 		and	r3, r3, #1
  55 0024 002B     		cmp	r3, #0
  56 0026 00F08081 		beq	.L3
 122:Generated_Source\PSoC5/I2C_INT.c ****         {
 123:Generated_Source\PSoC5/I2C_INT.c ****             switch (I2C_state)
  57              		.loc 1 123 0
  58 002a 9F4B     		ldr	r3, .L35+4
  59 002c 1B78     		ldrb	r3, [r3]
  60 002e DBB2     		uxtb	r3, r3
  61 0030 453B     		subs	r3, r3, #69
  62 0032 052B     		cmp	r3, #5
  63 0034 00F27581 		bhi	.L4
  64 0038 01A2     		adr	r2, .L6
  65 003a 52F823F0 		ldr	pc, [r2, r3, lsl #2]
  66 003e 00BF     		.p2align 2
  67              	.L6:
  68 0040 59000000 		.word	.L5+1
  69 0044 7F010000 		.word	.L7+1
  70 0048 23030000 		.word	.L4+1
  71 004c 23030000 		.word	.L4+1
  72 0050 59000000 		.word	.L5+1
  73 0054 6B020000 		.word	.L8+1
  74              		.p2align 1
  75              	.L5:
 124:Generated_Source\PSoC5/I2C_INT.c ****             {
 125:Generated_Source\PSoC5/I2C_INT.c ****             case I2C_SM_MSTR_WR_ADDR:  /* After address is sent, write data */
 126:Generated_Source\PSoC5/I2C_INT.c ****             case I2C_SM_MSTR_RD_ADDR:  /* After address is sent, read data */
 127:Generated_Source\PSoC5/I2C_INT.c **** 
 128:Generated_Source\PSoC5/I2C_INT.c ****                 tmpCsr &= ((uint8) ~I2C_CSR_STOP_STATUS); /* Clear Stop bit history on address phas
  76              		.loc 1 128 0
  77 0058 FB79     		ldrb	r3, [r7, #7]
  78 005a 23F02003 		bic	r3, r3, #32
  79 005e FB71     		strb	r3, [r7, #7]
 129:Generated_Source\PSoC5/I2C_INT.c **** 
 130:Generated_Source\PSoC5/I2C_INT.c ****                 if(I2C_CHECK_ADDR_ACK(tmpCsr))
  80              		.loc 1 130 0
  81 0060 FB79     		ldrb	r3, [r7, #7]
  82 0062 03F00A03 		and	r3, r3, #10
  83 0066 DBB2     		uxtb	r3, r3
  84 0068 082B     		cmp	r3, #8
  85 006a 46D1     		bne	.L9
 131:Generated_Source\PSoC5/I2C_INT.c ****                 {
 132:Generated_Source\PSoC5/I2C_INT.c ****                     /* Setup for transmit or receive of data */
 133:Generated_Source\PSoC5/I2C_INT.c ****                     if(I2C_state == I2C_SM_MSTR_WR_ADDR)   /* TRANSMIT data */
  86              		.loc 1 133 0
  87 006c 8E4B     		ldr	r3, .L35+4
  88 006e 1B78     		ldrb	r3, [r3]
  89 0070 DBB2     		uxtb	r3, r3
  90 0072 452B     		cmp	r3, #69
  91 0074 3AD1     		bne	.L10
 134:Generated_Source\PSoC5/I2C_INT.c ****                     {
 135:Generated_Source\PSoC5/I2C_INT.c ****                         /* Check if at least one byte to transfer */
 136:Generated_Source\PSoC5/I2C_INT.c ****                         if(I2C_mstrWrBufSize > 0u)
  92              		.loc 1 136 0
ARM GAS  C:\Users\HPz420\AppData\Local\Temp\ccVry06E.s 			page 5


  93 0076 8D4B     		ldr	r3, .L35+8
  94 0078 1B78     		ldrb	r3, [r3]
  95 007a DBB2     		uxtb	r3, r3
  96 007c 002B     		cmp	r3, #0
  97 007e 0FD0     		beq	.L11
 137:Generated_Source\PSoC5/I2C_INT.c ****                         {
 138:Generated_Source\PSoC5/I2C_INT.c ****                             /* Load the 1st data byte */
 139:Generated_Source\PSoC5/I2C_INT.c ****                             I2C_DATA_REG = I2C_mstrWrBufPtr[0u];
  98              		.loc 1 139 0
  99 0080 8B4A     		ldr	r2, .L35+12
 100 0082 8C4B     		ldr	r3, .L35+16
 101 0084 1B68     		ldr	r3, [r3]
 102 0086 1B78     		ldrb	r3, [r3]
 103 0088 DBB2     		uxtb	r3, r3
 104 008a 1370     		strb	r3, [r2]
 140:Generated_Source\PSoC5/I2C_INT.c ****                             I2C_TRANSMIT_DATA;
 105              		.loc 1 140 0
 106 008c 854B     		ldr	r3, .L35
 107 008e 0422     		movs	r2, #4
 108 0090 1A70     		strb	r2, [r3]
 141:Generated_Source\PSoC5/I2C_INT.c ****                             I2C_mstrWrBufIndex = 1u;   /* Set index to 2nd element */
 109              		.loc 1 141 0
 110 0092 894B     		ldr	r3, .L35+20
 111 0094 0122     		movs	r2, #1
 112 0096 1A70     		strb	r2, [r3]
 142:Generated_Source\PSoC5/I2C_INT.c **** 
 143:Generated_Source\PSoC5/I2C_INT.c ****                             /* Set transmit state until done */
 144:Generated_Source\PSoC5/I2C_INT.c ****                             I2C_state = I2C_SM_MSTR_WR_DATA;
 113              		.loc 1 144 0
 114 0098 834B     		ldr	r3, .L35+4
 115 009a 4622     		movs	r2, #70
 116 009c 1A70     		strb	r2, [r3]
 145:Generated_Source\PSoC5/I2C_INT.c ****                         }
 146:Generated_Source\PSoC5/I2C_INT.c ****                         /* End of buffer: complete writing */
 147:Generated_Source\PSoC5/I2C_INT.c ****                         else if(I2C_CHECK_NO_STOP(I2C_mstrControl))
 148:Generated_Source\PSoC5/I2C_INT.c ****                         {
 149:Generated_Source\PSoC5/I2C_INT.c ****                             /* Set write complete and master halted */
 150:Generated_Source\PSoC5/I2C_INT.c ****                             I2C_mstrStatus |= (I2C_MSTAT_XFER_HALT |
 151:Generated_Source\PSoC5/I2C_INT.c ****                                                             I2C_MSTAT_WR_CMPLT);
 152:Generated_Source\PSoC5/I2C_INT.c **** 
 153:Generated_Source\PSoC5/I2C_INT.c ****                             I2C_state = I2C_SM_MSTR_HALT; /* Expect ReStart */
 154:Generated_Source\PSoC5/I2C_INT.c ****                             I2C_DisableInt();
 155:Generated_Source\PSoC5/I2C_INT.c ****                         }
 156:Generated_Source\PSoC5/I2C_INT.c ****                         else
 157:Generated_Source\PSoC5/I2C_INT.c ****                         {
 158:Generated_Source\PSoC5/I2C_INT.c ****                             I2C_ENABLE_INT_ON_STOP; /* Enable interrupt on Stop, to catch it */
 159:Generated_Source\PSoC5/I2C_INT.c ****                             I2C_GENERATE_STOP;
 160:Generated_Source\PSoC5/I2C_INT.c ****                         }
 161:Generated_Source\PSoC5/I2C_INT.c ****                     }
 162:Generated_Source\PSoC5/I2C_INT.c ****                     else  /* Master receive data */
 163:Generated_Source\PSoC5/I2C_INT.c ****                     {
 164:Generated_Source\PSoC5/I2C_INT.c ****                         I2C_READY_TO_READ; /* Release bus to read data */
 165:Generated_Source\PSoC5/I2C_INT.c **** 
 166:Generated_Source\PSoC5/I2C_INT.c ****                         I2C_state  = I2C_SM_MSTR_RD_DATA;
 167:Generated_Source\PSoC5/I2C_INT.c ****                     }
 168:Generated_Source\PSoC5/I2C_INT.c ****                 }
 169:Generated_Source\PSoC5/I2C_INT.c ****                 /* Address is NACKed */
ARM GAS  C:\Users\HPz420\AppData\Local\Temp\ccVry06E.s 			page 6


 170:Generated_Source\PSoC5/I2C_INT.c ****                 else if(I2C_CHECK_ADDR_NAK(tmpCsr))
 171:Generated_Source\PSoC5/I2C_INT.c ****                 {
 172:Generated_Source\PSoC5/I2C_INT.c ****                     /* Set Address NAK error */
 173:Generated_Source\PSoC5/I2C_INT.c ****                     I2C_mstrStatus |= (I2C_MSTAT_ERR_XFER |
 174:Generated_Source\PSoC5/I2C_INT.c ****                                                     I2C_MSTAT_ERR_ADDR_NAK);
 175:Generated_Source\PSoC5/I2C_INT.c **** 
 176:Generated_Source\PSoC5/I2C_INT.c ****                     if(I2C_CHECK_NO_STOP(I2C_mstrControl))
 177:Generated_Source\PSoC5/I2C_INT.c ****                     {
 178:Generated_Source\PSoC5/I2C_INT.c ****                         I2C_mstrStatus |= (I2C_MSTAT_XFER_HALT |
 179:Generated_Source\PSoC5/I2C_INT.c ****                                                         I2C_GET_MSTAT_CMPLT);
 180:Generated_Source\PSoC5/I2C_INT.c **** 
 181:Generated_Source\PSoC5/I2C_INT.c ****                         I2C_state = I2C_SM_MSTR_HALT; /* Expect RESTART */
 182:Generated_Source\PSoC5/I2C_INT.c ****                         I2C_DisableInt();
 183:Generated_Source\PSoC5/I2C_INT.c ****                     }
 184:Generated_Source\PSoC5/I2C_INT.c ****                     else  /* Do normal Stop */
 185:Generated_Source\PSoC5/I2C_INT.c ****                     {
 186:Generated_Source\PSoC5/I2C_INT.c ****                         I2C_ENABLE_INT_ON_STOP; /* Enable interrupt on Stop, to catch it */
 187:Generated_Source\PSoC5/I2C_INT.c ****                         I2C_GENERATE_STOP;
 188:Generated_Source\PSoC5/I2C_INT.c ****                     }
 189:Generated_Source\PSoC5/I2C_INT.c ****                 }
 190:Generated_Source\PSoC5/I2C_INT.c ****                 else
 191:Generated_Source\PSoC5/I2C_INT.c ****                 {
 192:Generated_Source\PSoC5/I2C_INT.c ****                     /* Address phase is not set for some reason: error */
 193:Generated_Source\PSoC5/I2C_INT.c ****                     #if(I2C_TIMEOUT_ENABLED)
 194:Generated_Source\PSoC5/I2C_INT.c ****                         /* Exit interrupt to take chance for timeout timer to handle this case */
 195:Generated_Source\PSoC5/I2C_INT.c ****                         I2C_DisableInt();
 196:Generated_Source\PSoC5/I2C_INT.c ****                         I2C_ClearPendingInt();
 197:Generated_Source\PSoC5/I2C_INT.c ****                     #else
 198:Generated_Source\PSoC5/I2C_INT.c ****                         /* Block execution flow: unexpected condition */
 199:Generated_Source\PSoC5/I2C_INT.c ****                         CYASSERT(0u != 0u);
 200:Generated_Source\PSoC5/I2C_INT.c ****                     #endif /* (I2C_TIMEOUT_ENABLED) */
 201:Generated_Source\PSoC5/I2C_INT.c ****                 }
 202:Generated_Source\PSoC5/I2C_INT.c ****                 break;
 117              		.loc 1 202 0
 118 009e 44E1     		b	.L3
 119              	.L11:
 147:Generated_Source\PSoC5/I2C_INT.c ****                         {
 120              		.loc 1 147 0
 121 00a0 864B     		ldr	r3, .L35+24
 122 00a2 1B78     		ldrb	r3, [r3]
 123 00a4 DBB2     		uxtb	r3, r3
 124 00a6 03F00203 		and	r3, r3, #2
 125 00aa 002B     		cmp	r3, #0
 126 00ac 0FD0     		beq	.L13
 150:Generated_Source\PSoC5/I2C_INT.c ****                                                             I2C_MSTAT_WR_CMPLT);
 127              		.loc 1 150 0
 128 00ae 844B     		ldr	r3, .L35+28
 129 00b0 1B78     		ldrb	r3, [r3]
 130 00b2 DBB2     		uxtb	r3, r3
 131 00b4 43F00A03 		orr	r3, r3, #10
 132 00b8 DAB2     		uxtb	r2, r3
 133 00ba 814B     		ldr	r3, .L35+28
 134 00bc 1A70     		strb	r2, [r3]
 153:Generated_Source\PSoC5/I2C_INT.c ****                             I2C_DisableInt();
 135              		.loc 1 153 0
 136 00be 7A4B     		ldr	r3, .L35+4
 137 00c0 6022     		movs	r2, #96
ARM GAS  C:\Users\HPz420\AppData\Local\Temp\ccVry06E.s 			page 7


 138 00c2 1A70     		strb	r2, [r3]
 154:Generated_Source\PSoC5/I2C_INT.c ****                         }
 139              		.loc 1 154 0
 140 00c4 7F4B     		ldr	r3, .L35+32
 141 00c6 4FF40042 		mov	r2, #32768
 142 00ca 1A60     		str	r2, [r3]
 143              		.loc 1 202 0
 144 00cc 2DE1     		b	.L3
 145              	.L13:
 158:Generated_Source\PSoC5/I2C_INT.c ****                             I2C_GENERATE_STOP;
 146              		.loc 1 158 0
 147 00ce 7E4A     		ldr	r2, .L35+36
 148 00d0 7D4B     		ldr	r3, .L35+36
 149 00d2 1B78     		ldrb	r3, [r3]
 150 00d4 DBB2     		uxtb	r3, r3
 151 00d6 43F01003 		orr	r3, r3, #16
 152 00da DBB2     		uxtb	r3, r3
 153 00dc 1370     		strb	r3, [r2]
 159:Generated_Source\PSoC5/I2C_INT.c ****                         }
 154              		.loc 1 159 0
 155 00de 7B4B     		ldr	r3, .L35+40
 156 00e0 1022     		movs	r2, #16
 157 00e2 1A70     		strb	r2, [r3]
 158 00e4 6F4B     		ldr	r3, .L35
 159 00e6 0422     		movs	r2, #4
 160 00e8 1A70     		strb	r2, [r3]
 161              		.loc 1 202 0
 162 00ea 1EE1     		b	.L3
 163              	.L10:
 164:Generated_Source\PSoC5/I2C_INT.c **** 
 164              		.loc 1 164 0
 165 00ec 6D4B     		ldr	r3, .L35
 166 00ee 0022     		movs	r2, #0
 167 00f0 1A70     		strb	r2, [r3]
 166:Generated_Source\PSoC5/I2C_INT.c ****                     }
 168              		.loc 1 166 0
 169 00f2 6D4B     		ldr	r3, .L35+4
 170 00f4 4A22     		movs	r2, #74
 171 00f6 1A70     		strb	r2, [r3]
 172              		.loc 1 202 0
 173 00f8 17E1     		b	.L3
 174              	.L9:
 170:Generated_Source\PSoC5/I2C_INT.c ****                 {
 175              		.loc 1 170 0
 176 00fa FB79     		ldrb	r3, [r7, #7]
 177 00fc 03F00A03 		and	r3, r3, #10
 178 0100 DBB2     		uxtb	r3, r3
 179 0102 0A2B     		cmp	r3, #10
 180 0104 37D1     		bne	.L16
 173:Generated_Source\PSoC5/I2C_INT.c ****                                                     I2C_MSTAT_ERR_ADDR_NAK);
 181              		.loc 1 173 0
 182 0106 6E4B     		ldr	r3, .L35+28
 183 0108 1B78     		ldrb	r3, [r3]
 184 010a DBB2     		uxtb	r3, r3
 185 010c 63F05F03 		orn	r3, r3, #95
 186 0110 DAB2     		uxtb	r2, r3
 187 0112 6B4B     		ldr	r3, .L35+28
ARM GAS  C:\Users\HPz420\AppData\Local\Temp\ccVry06E.s 			page 8


 188 0114 1A70     		strb	r2, [r3]
 176:Generated_Source\PSoC5/I2C_INT.c ****                     {
 189              		.loc 1 176 0
 190 0116 694B     		ldr	r3, .L35+24
 191 0118 1B78     		ldrb	r3, [r3]
 192 011a DBB2     		uxtb	r3, r3
 193 011c 03F00203 		and	r3, r3, #2
 194 0120 002B     		cmp	r3, #0
 195 0122 19D0     		beq	.L17
 179:Generated_Source\PSoC5/I2C_INT.c **** 
 196              		.loc 1 179 0
 197 0124 604B     		ldr	r3, .L35+4
 198 0126 1B78     		ldrb	r3, [r3]
 199 0128 DBB2     		uxtb	r3, r3
 200 012a 03F00803 		and	r3, r3, #8
 178:Generated_Source\PSoC5/I2C_INT.c ****                                                         I2C_GET_MSTAT_CMPLT);
 201              		.loc 1 178 0
 202 012e 002B     		cmp	r3, #0
 203 0130 01D0     		beq	.L18
 178:Generated_Source\PSoC5/I2C_INT.c ****                                                         I2C_GET_MSTAT_CMPLT);
 204              		.loc 1 178 0 is_stmt 0 discriminator 1
 205 0132 0923     		movs	r3, #9
 206 0134 00E0     		b	.L19
 207              	.L18:
 178:Generated_Source\PSoC5/I2C_INT.c ****                                                         I2C_GET_MSTAT_CMPLT);
 208              		.loc 1 178 0 discriminator 2
 209 0136 0A23     		movs	r3, #10
 210              	.L19:
 178:Generated_Source\PSoC5/I2C_INT.c ****                                                         I2C_GET_MSTAT_CMPLT);
 211              		.loc 1 178 0 discriminator 4
 212 0138 DAB2     		uxtb	r2, r3
 213 013a 614B     		ldr	r3, .L35+28
 214 013c 1B78     		ldrb	r3, [r3]
 215 013e DBB2     		uxtb	r3, r3
 216 0140 1343     		orrs	r3, r3, r2
 217 0142 DAB2     		uxtb	r2, r3
 218 0144 5E4B     		ldr	r3, .L35+28
 219 0146 1A70     		strb	r2, [r3]
 181:Generated_Source\PSoC5/I2C_INT.c ****                         I2C_DisableInt();
 220              		.loc 1 181 0 is_stmt 1 discriminator 4
 221 0148 574B     		ldr	r3, .L35+4
 222 014a 6022     		movs	r2, #96
 223 014c 1A70     		strb	r2, [r3]
 182:Generated_Source\PSoC5/I2C_INT.c ****                     }
 224              		.loc 1 182 0 discriminator 4
 225 014e 5D4B     		ldr	r3, .L35+32
 226 0150 4FF40042 		mov	r2, #32768
 227 0154 1A60     		str	r2, [r3]
 228              		.loc 1 202 0 discriminator 4
 229 0156 E8E0     		b	.L3
 230              	.L17:
 186:Generated_Source\PSoC5/I2C_INT.c ****                         I2C_GENERATE_STOP;
 231              		.loc 1 186 0
 232 0158 5B4A     		ldr	r2, .L35+36
 233 015a 5B4B     		ldr	r3, .L35+36
 234 015c 1B78     		ldrb	r3, [r3]
 235 015e DBB2     		uxtb	r3, r3
ARM GAS  C:\Users\HPz420\AppData\Local\Temp\ccVry06E.s 			page 9


 236 0160 43F01003 		orr	r3, r3, #16
 237 0164 DBB2     		uxtb	r3, r3
 238 0166 1370     		strb	r3, [r2]
 187:Generated_Source\PSoC5/I2C_INT.c ****                     }
 239              		.loc 1 187 0
 240 0168 584B     		ldr	r3, .L35+40
 241 016a 1022     		movs	r2, #16
 242 016c 1A70     		strb	r2, [r3]
 243 016e 4D4B     		ldr	r3, .L35
 244 0170 0422     		movs	r2, #4
 245 0172 1A70     		strb	r2, [r3]
 246              		.loc 1 202 0
 247 0174 D9E0     		b	.L3
 248              	.L16:
 199:Generated_Source\PSoC5/I2C_INT.c ****                     #endif /* (I2C_TIMEOUT_ENABLED) */
 249              		.loc 1 199 0 discriminator 1
 250 0176 0020     		movs	r0, #0
 251 0178 FFF7FEFF 		bl	CyHalt
 252              		.loc 1 202 0 discriminator 1
 253 017c D5E0     		b	.L3
 254              	.L7:
 203:Generated_Source\PSoC5/I2C_INT.c **** 
 204:Generated_Source\PSoC5/I2C_INT.c ****             case I2C_SM_MSTR_WR_DATA:
 205:Generated_Source\PSoC5/I2C_INT.c **** 
 206:Generated_Source\PSoC5/I2C_INT.c ****                 if(I2C_CHECK_DATA_ACK(tmpCsr))
 255              		.loc 1 206 0
 256 017e FB79     		ldrb	r3, [r7, #7]	@ zero_extendqisi2
 257 0180 03F00203 		and	r3, r3, #2
 258 0184 002B     		cmp	r3, #0
 259 0186 42D1     		bne	.L21
 207:Generated_Source\PSoC5/I2C_INT.c ****                 {
 208:Generated_Source\PSoC5/I2C_INT.c ****                     /* Check if end of buffer */
 209:Generated_Source\PSoC5/I2C_INT.c ****                     if(I2C_mstrWrBufIndex  < I2C_mstrWrBufSize)
 260              		.loc 1 209 0
 261 0188 4B4B     		ldr	r3, .L35+20
 262 018a 1B78     		ldrb	r3, [r3]
 263 018c DAB2     		uxtb	r2, r3
 264 018e 474B     		ldr	r3, .L35+8
 265 0190 1B78     		ldrb	r3, [r3]
 266 0192 DBB2     		uxtb	r3, r3
 267 0194 9A42     		cmp	r2, r3
 268 0196 14D2     		bcs	.L22
 210:Generated_Source\PSoC5/I2C_INT.c ****                     {
 211:Generated_Source\PSoC5/I2C_INT.c ****                         I2C_DATA_REG =
 269              		.loc 1 211 0
 270 0198 454A     		ldr	r2, .L35+12
 212:Generated_Source\PSoC5/I2C_INT.c ****                                                  I2C_mstrWrBufPtr[I2C_mstrWrBufIndex];
 271              		.loc 1 212 0
 272 019a 464B     		ldr	r3, .L35+16
 273 019c 1B68     		ldr	r3, [r3]
 274 019e 4649     		ldr	r1, .L35+20
 275 01a0 0978     		ldrb	r1, [r1]
 276 01a2 C9B2     		uxtb	r1, r1
 277 01a4 0B44     		add	r3, r3, r1
 278 01a6 1B78     		ldrb	r3, [r3]
 279 01a8 DBB2     		uxtb	r3, r3
 211:Generated_Source\PSoC5/I2C_INT.c ****                                                  I2C_mstrWrBufPtr[I2C_mstrWrBufIndex];
ARM GAS  C:\Users\HPz420\AppData\Local\Temp\ccVry06E.s 			page 10


 280              		.loc 1 211 0
 281 01aa 1370     		strb	r3, [r2]
 213:Generated_Source\PSoC5/I2C_INT.c ****                         I2C_TRANSMIT_DATA;
 282              		.loc 1 213 0
 283 01ac 3D4B     		ldr	r3, .L35
 284 01ae 0422     		movs	r2, #4
 285 01b0 1A70     		strb	r2, [r3]
 214:Generated_Source\PSoC5/I2C_INT.c ****                         I2C_mstrWrBufIndex++;
 286              		.loc 1 214 0
 287 01b2 414B     		ldr	r3, .L35+20
 288 01b4 1B78     		ldrb	r3, [r3]
 289 01b6 DBB2     		uxtb	r3, r3
 290 01b8 0133     		adds	r3, r3, #1
 291 01ba DAB2     		uxtb	r2, r3
 292 01bc 3E4B     		ldr	r3, .L35+20
 293 01be 1A70     		strb	r2, [r3]
 215:Generated_Source\PSoC5/I2C_INT.c ****                     }
 216:Generated_Source\PSoC5/I2C_INT.c ****                     /* End of buffer: complete writing */
 217:Generated_Source\PSoC5/I2C_INT.c ****                     else if(I2C_CHECK_NO_STOP(I2C_mstrControl))
 218:Generated_Source\PSoC5/I2C_INT.c ****                     {
 219:Generated_Source\PSoC5/I2C_INT.c ****                         /* Set write complete and master halted */
 220:Generated_Source\PSoC5/I2C_INT.c ****                         I2C_mstrStatus |= (I2C_MSTAT_XFER_HALT |
 221:Generated_Source\PSoC5/I2C_INT.c ****                                                         I2C_MSTAT_WR_CMPLT);
 222:Generated_Source\PSoC5/I2C_INT.c **** 
 223:Generated_Source\PSoC5/I2C_INT.c ****                         I2C_state = I2C_SM_MSTR_HALT;    /* Expect restart */
 224:Generated_Source\PSoC5/I2C_INT.c ****                         I2C_DisableInt();
 225:Generated_Source\PSoC5/I2C_INT.c ****                     }
 226:Generated_Source\PSoC5/I2C_INT.c ****                     else  /* Do normal Stop */
 227:Generated_Source\PSoC5/I2C_INT.c ****                     {
 228:Generated_Source\PSoC5/I2C_INT.c ****                         I2C_ENABLE_INT_ON_STOP;    /* Enable interrupt on Stop, to catch it */
 229:Generated_Source\PSoC5/I2C_INT.c ****                         I2C_GENERATE_STOP;
 230:Generated_Source\PSoC5/I2C_INT.c ****                     }
 231:Generated_Source\PSoC5/I2C_INT.c ****                 }
 232:Generated_Source\PSoC5/I2C_INT.c ****                 /* Last byte NAKed: end writing */
 233:Generated_Source\PSoC5/I2C_INT.c ****                 else if(I2C_CHECK_NO_STOP(I2C_mstrControl))
 234:Generated_Source\PSoC5/I2C_INT.c ****                 {
 235:Generated_Source\PSoC5/I2C_INT.c ****                     /* Set write complete, short transfer and master halted */
 236:Generated_Source\PSoC5/I2C_INT.c ****                     I2C_mstrStatus |= (I2C_MSTAT_ERR_XFER       |
 237:Generated_Source\PSoC5/I2C_INT.c ****                                                     I2C_MSTAT_ERR_SHORT_XFER |
 238:Generated_Source\PSoC5/I2C_INT.c ****                                                     I2C_MSTAT_XFER_HALT      |
 239:Generated_Source\PSoC5/I2C_INT.c ****                                                     I2C_MSTAT_WR_CMPLT);
 240:Generated_Source\PSoC5/I2C_INT.c **** 
 241:Generated_Source\PSoC5/I2C_INT.c ****                     I2C_state = I2C_SM_MSTR_HALT;    /* Expect ReStart */
 242:Generated_Source\PSoC5/I2C_INT.c ****                     I2C_DisableInt();
 243:Generated_Source\PSoC5/I2C_INT.c ****                 }
 244:Generated_Source\PSoC5/I2C_INT.c ****                 else  /* Do normal Stop */
 245:Generated_Source\PSoC5/I2C_INT.c ****                 {
 246:Generated_Source\PSoC5/I2C_INT.c ****                     I2C_ENABLE_INT_ON_STOP;    /* Enable interrupt on Stop, to catch it */
 247:Generated_Source\PSoC5/I2C_INT.c ****                     I2C_GENERATE_STOP;
 248:Generated_Source\PSoC5/I2C_INT.c **** 
 249:Generated_Source\PSoC5/I2C_INT.c ****                     /* Set short transfer and error flag */
 250:Generated_Source\PSoC5/I2C_INT.c ****                     I2C_mstrStatus |= (I2C_MSTAT_ERR_SHORT_XFER |
 251:Generated_Source\PSoC5/I2C_INT.c ****                                                     I2C_MSTAT_ERR_XFER);
 252:Generated_Source\PSoC5/I2C_INT.c ****                 }
 253:Generated_Source\PSoC5/I2C_INT.c **** 
 254:Generated_Source\PSoC5/I2C_INT.c ****                 break;
 294              		.loc 1 254 0
ARM GAS  C:\Users\HPz420\AppData\Local\Temp\ccVry06E.s 			page 11


 295 01c0 B3E0     		b	.L3
 296              	.L22:
 217:Generated_Source\PSoC5/I2C_INT.c ****                     {
 297              		.loc 1 217 0
 298 01c2 3E4B     		ldr	r3, .L35+24
 299 01c4 1B78     		ldrb	r3, [r3]
 300 01c6 DBB2     		uxtb	r3, r3
 301 01c8 03F00203 		and	r3, r3, #2
 302 01cc 002B     		cmp	r3, #0
 303 01ce 0FD0     		beq	.L24
 220:Generated_Source\PSoC5/I2C_INT.c ****                                                         I2C_MSTAT_WR_CMPLT);
 304              		.loc 1 220 0
 305 01d0 3B4B     		ldr	r3, .L35+28
 306 01d2 1B78     		ldrb	r3, [r3]
 307 01d4 DBB2     		uxtb	r3, r3
 308 01d6 43F00A03 		orr	r3, r3, #10
 309 01da DAB2     		uxtb	r2, r3
 310 01dc 384B     		ldr	r3, .L35+28
 311 01de 1A70     		strb	r2, [r3]
 223:Generated_Source\PSoC5/I2C_INT.c ****                         I2C_DisableInt();
 312              		.loc 1 223 0
 313 01e0 314B     		ldr	r3, .L35+4
 314 01e2 6022     		movs	r2, #96
 315 01e4 1A70     		strb	r2, [r3]
 224:Generated_Source\PSoC5/I2C_INT.c ****                     }
 316              		.loc 1 224 0
 317 01e6 374B     		ldr	r3, .L35+32
 318 01e8 4FF40042 		mov	r2, #32768
 319 01ec 1A60     		str	r2, [r3]
 320              		.loc 1 254 0
 321 01ee 9CE0     		b	.L3
 322              	.L24:
 228:Generated_Source\PSoC5/I2C_INT.c ****                         I2C_GENERATE_STOP;
 323              		.loc 1 228 0
 324 01f0 354A     		ldr	r2, .L35+36
 325 01f2 354B     		ldr	r3, .L35+36
 326 01f4 1B78     		ldrb	r3, [r3]
 327 01f6 DBB2     		uxtb	r3, r3
 328 01f8 43F01003 		orr	r3, r3, #16
 329 01fc DBB2     		uxtb	r3, r3
 330 01fe 1370     		strb	r3, [r2]
 229:Generated_Source\PSoC5/I2C_INT.c ****                     }
 331              		.loc 1 229 0
 332 0200 324B     		ldr	r3, .L35+40
 333 0202 1022     		movs	r2, #16
 334 0204 1A70     		strb	r2, [r3]
 335 0206 274B     		ldr	r3, .L35
 336 0208 0422     		movs	r2, #4
 337 020a 1A70     		strb	r2, [r3]
 338              		.loc 1 254 0
 339 020c 8DE0     		b	.L3
 340              	.L21:
 233:Generated_Source\PSoC5/I2C_INT.c ****                 {
 341              		.loc 1 233 0
 342 020e 2B4B     		ldr	r3, .L35+24
 343 0210 1B78     		ldrb	r3, [r3]
 344 0212 DBB2     		uxtb	r3, r3
ARM GAS  C:\Users\HPz420\AppData\Local\Temp\ccVry06E.s 			page 12


 345 0214 03F00203 		and	r3, r3, #2
 346 0218 002B     		cmp	r3, #0
 347 021a 0FD0     		beq	.L26
 236:Generated_Source\PSoC5/I2C_INT.c ****                                                     I2C_MSTAT_ERR_SHORT_XFER |
 348              		.loc 1 236 0
 349 021c 284B     		ldr	r3, .L35+28
 350 021e 1B78     		ldrb	r3, [r3]
 351 0220 DBB2     		uxtb	r3, r3
 352 0222 63F06503 		orn	r3, r3, #101
 353 0226 DAB2     		uxtb	r2, r3
 354 0228 254B     		ldr	r3, .L35+28
 355 022a 1A70     		strb	r2, [r3]
 241:Generated_Source\PSoC5/I2C_INT.c ****                     I2C_DisableInt();
 356              		.loc 1 241 0
 357 022c 1E4B     		ldr	r3, .L35+4
 358 022e 6022     		movs	r2, #96
 359 0230 1A70     		strb	r2, [r3]
 242:Generated_Source\PSoC5/I2C_INT.c ****                 }
 360              		.loc 1 242 0
 361 0232 244B     		ldr	r3, .L35+32
 362 0234 4FF40042 		mov	r2, #32768
 363 0238 1A60     		str	r2, [r3]
 364              		.loc 1 254 0
 365 023a 76E0     		b	.L3
 366              	.L26:
 246:Generated_Source\PSoC5/I2C_INT.c ****                     I2C_GENERATE_STOP;
 367              		.loc 1 246 0
 368 023c 224A     		ldr	r2, .L35+36
 369 023e 224B     		ldr	r3, .L35+36
 370 0240 1B78     		ldrb	r3, [r3]
 371 0242 DBB2     		uxtb	r3, r3
 372 0244 43F01003 		orr	r3, r3, #16
 373 0248 DBB2     		uxtb	r3, r3
 374 024a 1370     		strb	r3, [r2]
 247:Generated_Source\PSoC5/I2C_INT.c **** 
 375              		.loc 1 247 0
 376 024c 1F4B     		ldr	r3, .L35+40
 377 024e 1022     		movs	r2, #16
 378 0250 1A70     		strb	r2, [r3]
 379 0252 144B     		ldr	r3, .L35
 380 0254 0422     		movs	r2, #4
 381 0256 1A70     		strb	r2, [r3]
 250:Generated_Source\PSoC5/I2C_INT.c ****                                                     I2C_MSTAT_ERR_XFER);
 382              		.loc 1 250 0
 383 0258 194B     		ldr	r3, .L35+28
 384 025a 1B78     		ldrb	r3, [r3]
 385 025c DBB2     		uxtb	r3, r3
 386 025e 63F06F03 		orn	r3, r3, #111
 387 0262 DAB2     		uxtb	r2, r3
 388 0264 164B     		ldr	r3, .L35+28
 389 0266 1A70     		strb	r2, [r3]
 390              		.loc 1 254 0
 391 0268 5FE0     		b	.L3
 392              	.L8:
 255:Generated_Source\PSoC5/I2C_INT.c **** 
 256:Generated_Source\PSoC5/I2C_INT.c ****             case I2C_SM_MSTR_RD_DATA:
 257:Generated_Source\PSoC5/I2C_INT.c **** 
ARM GAS  C:\Users\HPz420\AppData\Local\Temp\ccVry06E.s 			page 13


 258:Generated_Source\PSoC5/I2C_INT.c ****                 I2C_mstrRdBufPtr[I2C_mstrRdBufIndex] = I2C_DATA_REG;
 393              		.loc 1 258 0
 394 026a 194B     		ldr	r3, .L35+44
 395 026c 1B68     		ldr	r3, [r3]
 396 026e 194A     		ldr	r2, .L35+48
 397 0270 1278     		ldrb	r2, [r2]
 398 0272 D2B2     		uxtb	r2, r2
 399 0274 1344     		add	r3, r3, r2
 400 0276 0E4A     		ldr	r2, .L35+12
 401 0278 1278     		ldrb	r2, [r2]
 402 027a D2B2     		uxtb	r2, r2
 403 027c 1A70     		strb	r2, [r3]
 259:Generated_Source\PSoC5/I2C_INT.c ****                 I2C_mstrRdBufIndex++;
 404              		.loc 1 259 0
 405 027e 154B     		ldr	r3, .L35+48
 406 0280 1B78     		ldrb	r3, [r3]
 407 0282 DBB2     		uxtb	r3, r3
 408 0284 0133     		adds	r3, r3, #1
 409 0286 DAB2     		uxtb	r2, r3
 410 0288 124B     		ldr	r3, .L35+48
 411 028a 1A70     		strb	r2, [r3]
 260:Generated_Source\PSoC5/I2C_INT.c **** 
 261:Generated_Source\PSoC5/I2C_INT.c ****                 /* Check if end of buffer */
 262:Generated_Source\PSoC5/I2C_INT.c ****                 if(I2C_mstrRdBufIndex < I2C_mstrRdBufSize)
 412              		.loc 1 262 0
 413 028c 114B     		ldr	r3, .L35+48
 414 028e 1B78     		ldrb	r3, [r3]
 415 0290 DAB2     		uxtb	r2, r3
 416 0292 114B     		ldr	r3, .L35+52
 417 0294 1B78     		ldrb	r3, [r3]
 418 0296 DBB2     		uxtb	r3, r3
 419 0298 9A42     		cmp	r2, r3
 420 029a 1FD2     		bcs	.L27
 263:Generated_Source\PSoC5/I2C_INT.c ****                 {
 264:Generated_Source\PSoC5/I2C_INT.c ****                     I2C_ACK_AND_RECEIVE;       /* ACK and receive byte */
 421              		.loc 1 264 0
 422 029c 014B     		ldr	r3, .L35
 423 029e 1022     		movs	r2, #16
 424 02a0 1A70     		strb	r2, [r3]
 265:Generated_Source\PSoC5/I2C_INT.c ****                 }
 266:Generated_Source\PSoC5/I2C_INT.c ****                 /* End of buffer: complete reading */
 267:Generated_Source\PSoC5/I2C_INT.c ****                 else if(I2C_CHECK_NO_STOP(I2C_mstrControl))
 268:Generated_Source\PSoC5/I2C_INT.c ****                 {
 269:Generated_Source\PSoC5/I2C_INT.c ****                     /* Set read complete and master halted */
 270:Generated_Source\PSoC5/I2C_INT.c ****                     I2C_mstrStatus |= (I2C_MSTAT_XFER_HALT |
 271:Generated_Source\PSoC5/I2C_INT.c ****                                                     I2C_MSTAT_RD_CMPLT);
 272:Generated_Source\PSoC5/I2C_INT.c **** 
 273:Generated_Source\PSoC5/I2C_INT.c ****                     I2C_state = I2C_SM_MSTR_HALT;    /* Expect ReStart */
 274:Generated_Source\PSoC5/I2C_INT.c ****                     I2C_DisableInt();
 275:Generated_Source\PSoC5/I2C_INT.c ****                 }
 276:Generated_Source\PSoC5/I2C_INT.c ****                 else
 277:Generated_Source\PSoC5/I2C_INT.c ****                 {
 278:Generated_Source\PSoC5/I2C_INT.c ****                     I2C_ENABLE_INT_ON_STOP;
 279:Generated_Source\PSoC5/I2C_INT.c ****                     I2C_NAK_AND_RECEIVE;       /* NACK and TRY to generate Stop */
 280:Generated_Source\PSoC5/I2C_INT.c ****                 }
 281:Generated_Source\PSoC5/I2C_INT.c ****                 break;
 425              		.loc 1 281 0
ARM GAS  C:\Users\HPz420\AppData\Local\Temp\ccVry06E.s 			page 14


 426 02a2 42E0     		b	.L3
 427              	.L36:
 428              		.align	2
 429              	.L35:
 430 02a4 D7490040 		.word	1073760727
 431 02a8 00000000 		.word	I2C_state
 432 02ac 00000000 		.word	I2C_mstrWrBufSize
 433 02b0 D8490040 		.word	1073760728
 434 02b4 00000000 		.word	I2C_mstrWrBufPtr
 435 02b8 00000000 		.word	I2C_mstrWrBufIndex
 436 02bc 00000000 		.word	I2C_mstrControl
 437 02c0 00000000 		.word	I2C_mstrStatus
 438 02c4 80E100E0 		.word	-536813184
 439 02c8 D6490040 		.word	1073760726
 440 02cc D9490040 		.word	1073760729
 441 02d0 00000000 		.word	I2C_mstrRdBufPtr
 442 02d4 00000000 		.word	I2C_mstrRdBufIndex
 443 02d8 00000000 		.word	I2C_mstrRdBufSize
 444              	.L27:
 267:Generated_Source\PSoC5/I2C_INT.c ****                 {
 445              		.loc 1 267 0
 446 02dc 2C4B     		ldr	r3, .L37
 447 02de 1B78     		ldrb	r3, [r3]
 448 02e0 DBB2     		uxtb	r3, r3
 449 02e2 03F00203 		and	r3, r3, #2
 450 02e6 002B     		cmp	r3, #0
 451 02e8 0FD0     		beq	.L29
 270:Generated_Source\PSoC5/I2C_INT.c ****                                                     I2C_MSTAT_RD_CMPLT);
 452              		.loc 1 270 0
 453 02ea 2A4B     		ldr	r3, .L37+4
 454 02ec 1B78     		ldrb	r3, [r3]
 455 02ee DBB2     		uxtb	r3, r3
 456 02f0 43F00903 		orr	r3, r3, #9
 457 02f4 DAB2     		uxtb	r2, r3
 458 02f6 274B     		ldr	r3, .L37+4
 459 02f8 1A70     		strb	r2, [r3]
 273:Generated_Source\PSoC5/I2C_INT.c ****                     I2C_DisableInt();
 460              		.loc 1 273 0
 461 02fa 274B     		ldr	r3, .L37+8
 462 02fc 6022     		movs	r2, #96
 463 02fe 1A70     		strb	r2, [r3]
 274:Generated_Source\PSoC5/I2C_INT.c ****                 }
 464              		.loc 1 274 0
 465 0300 264B     		ldr	r3, .L37+12
 466 0302 4FF40042 		mov	r2, #32768
 467 0306 1A60     		str	r2, [r3]
 468              		.loc 1 281 0
 469 0308 0FE0     		b	.L3
 470              	.L29:
 278:Generated_Source\PSoC5/I2C_INT.c ****                     I2C_NAK_AND_RECEIVE;       /* NACK and TRY to generate Stop */
 471              		.loc 1 278 0
 472 030a 254A     		ldr	r2, .L37+16
 473 030c 244B     		ldr	r3, .L37+16
 474 030e 1B78     		ldrb	r3, [r3]
 475 0310 DBB2     		uxtb	r3, r3
 476 0312 43F01003 		orr	r3, r3, #16
 477 0316 DBB2     		uxtb	r3, r3
ARM GAS  C:\Users\HPz420\AppData\Local\Temp\ccVry06E.s 			page 15


 478 0318 1370     		strb	r3, [r2]
 279:Generated_Source\PSoC5/I2C_INT.c ****                 }
 479              		.loc 1 279 0
 480 031a 224B     		ldr	r3, .L37+20
 481 031c 0022     		movs	r2, #0
 482 031e 1A70     		strb	r2, [r3]
 483              		.loc 1 281 0
 484 0320 03E0     		b	.L3
 485              	.L4:
 282:Generated_Source\PSoC5/I2C_INT.c **** 
 283:Generated_Source\PSoC5/I2C_INT.c ****             default: /* This is an invalid state and should not occur */
 284:Generated_Source\PSoC5/I2C_INT.c **** 
 285:Generated_Source\PSoC5/I2C_INT.c ****             #if(I2C_TIMEOUT_ENABLED)
 286:Generated_Source\PSoC5/I2C_INT.c ****                 /* Exit interrupt to take chance for timeout timer to handles this case */
 287:Generated_Source\PSoC5/I2C_INT.c ****                 I2C_DisableInt();
 288:Generated_Source\PSoC5/I2C_INT.c ****                 I2C_ClearPendingInt();
 289:Generated_Source\PSoC5/I2C_INT.c ****             #else
 290:Generated_Source\PSoC5/I2C_INT.c ****                 /* Block execution flow: unexpected condition */
 291:Generated_Source\PSoC5/I2C_INT.c ****                 CYASSERT(0u != 0u);
 486              		.loc 1 291 0
 487 0322 0020     		movs	r0, #0
 488 0324 FFF7FEFF 		bl	CyHalt
 292:Generated_Source\PSoC5/I2C_INT.c ****             #endif /* (I2C_TIMEOUT_ENABLED) */
 293:Generated_Source\PSoC5/I2C_INT.c **** 
 294:Generated_Source\PSoC5/I2C_INT.c ****                 break;
 489              		.loc 1 294 0
 490 0328 00BF     		nop
 491              	.L3:
 295:Generated_Source\PSoC5/I2C_INT.c ****             }
 296:Generated_Source\PSoC5/I2C_INT.c ****         }
 297:Generated_Source\PSoC5/I2C_INT.c **** 
 298:Generated_Source\PSoC5/I2C_INT.c ****         /* Catches Stop: end of transaction */
 299:Generated_Source\PSoC5/I2C_INT.c ****         if(I2C_CHECK_STOP_STS(tmpCsr))
 492              		.loc 1 299 0
 493 032a FB79     		ldrb	r3, [r7, #7]	@ zero_extendqisi2
 494 032c 03F02003 		and	r3, r3, #32
 495 0330 002B     		cmp	r3, #0
 496 0332 28D0     		beq	.L34
 300:Generated_Source\PSoC5/I2C_INT.c ****         {
 301:Generated_Source\PSoC5/I2C_INT.c ****             I2C_mstrStatus |= I2C_GET_MSTAT_CMPLT;
 497              		.loc 1 301 0
 498 0334 184B     		ldr	r3, .L37+8
 499 0336 1B78     		ldrb	r3, [r3]
 500 0338 DBB2     		uxtb	r3, r3
 501 033a 03F00803 		and	r3, r3, #8
 502 033e 002B     		cmp	r3, #0
 503 0340 01D0     		beq	.L31
 504              		.loc 1 301 0 is_stmt 0 discriminator 1
 505 0342 0123     		movs	r3, #1
 506 0344 00E0     		b	.L32
 507              	.L31:
 508              		.loc 1 301 0 discriminator 2
 509 0346 0223     		movs	r3, #2
 510              	.L32:
 511              		.loc 1 301 0 discriminator 4
 512 0348 DAB2     		uxtb	r2, r3
 513 034a 124B     		ldr	r3, .L37+4
ARM GAS  C:\Users\HPz420\AppData\Local\Temp\ccVry06E.s 			page 16


 514 034c 1B78     		ldrb	r3, [r3]
 515 034e DBB2     		uxtb	r3, r3
 516 0350 1343     		orrs	r3, r3, r2
 517 0352 DAB2     		uxtb	r2, r3
 518 0354 0F4B     		ldr	r3, .L37+4
 519 0356 1A70     		strb	r2, [r3]
 302:Generated_Source\PSoC5/I2C_INT.c **** 
 303:Generated_Source\PSoC5/I2C_INT.c ****             I2C_DISABLE_INT_ON_STOP;
 520              		.loc 1 303 0 is_stmt 1 discriminator 4
 521 0358 114A     		ldr	r2, .L37+16
 522 035a 114B     		ldr	r3, .L37+16
 523 035c 1B78     		ldrb	r3, [r3]
 524 035e DBB2     		uxtb	r3, r3
 525 0360 23F01003 		bic	r3, r3, #16
 526 0364 DBB2     		uxtb	r3, r3
 527 0366 1370     		strb	r3, [r2]
 304:Generated_Source\PSoC5/I2C_INT.c ****             I2C_state = I2C_SM_IDLE;
 528              		.loc 1 304 0 discriminator 4
 529 0368 0B4B     		ldr	r3, .L37+8
 530 036a 1022     		movs	r2, #16
 531 036c 1A70     		strb	r2, [r3]
 305:Generated_Source\PSoC5/I2C_INT.c ****         }
 306:Generated_Source\PSoC5/I2C_INT.c ****     #endif /* (I2C_MODE_MASTER_ENABLED) */
 307:Generated_Source\PSoC5/I2C_INT.c ****     }
 308:Generated_Source\PSoC5/I2C_INT.c ****     else if(I2C_CHECK_SM_SLAVE)
 309:Generated_Source\PSoC5/I2C_INT.c ****     {
 310:Generated_Source\PSoC5/I2C_INT.c ****     #if(I2C_MODE_SLAVE_ENABLED)
 311:Generated_Source\PSoC5/I2C_INT.c **** 
 312:Generated_Source\PSoC5/I2C_INT.c ****         if((I2C_CHECK_STOP_STS(tmpCsr)) || /* Stop || Restart */
 313:Generated_Source\PSoC5/I2C_INT.c ****            (I2C_CHECK_BYTE_COMPLETE(tmpCsr) && I2C_CHECK_ADDRESS_STS(tmpCsr)))
 314:Generated_Source\PSoC5/I2C_INT.c ****         {
 315:Generated_Source\PSoC5/I2C_INT.c ****             /* Catch end of master write transaction: use interrupt on Stop */
 316:Generated_Source\PSoC5/I2C_INT.c ****             /* The Stop bit history on address phase does not have correct state */
 317:Generated_Source\PSoC5/I2C_INT.c ****             if(I2C_SM_SL_WR_DATA == I2C_state)
 318:Generated_Source\PSoC5/I2C_INT.c ****             {
 319:Generated_Source\PSoC5/I2C_INT.c ****                 I2C_DISABLE_INT_ON_STOP;
 320:Generated_Source\PSoC5/I2C_INT.c **** 
 321:Generated_Source\PSoC5/I2C_INT.c ****                 I2C_slStatus &= ((uint8) ~I2C_SSTAT_WR_BUSY);
 322:Generated_Source\PSoC5/I2C_INT.c ****                 I2C_slStatus |= ((uint8)  I2C_SSTAT_WR_CMPLT);
 323:Generated_Source\PSoC5/I2C_INT.c **** 
 324:Generated_Source\PSoC5/I2C_INT.c ****                 I2C_state = I2C_SM_IDLE;
 325:Generated_Source\PSoC5/I2C_INT.c ****             }
 326:Generated_Source\PSoC5/I2C_INT.c ****         }
 327:Generated_Source\PSoC5/I2C_INT.c **** 
 328:Generated_Source\PSoC5/I2C_INT.c ****         if(I2C_CHECK_BYTE_COMPLETE(tmpCsr))
 329:Generated_Source\PSoC5/I2C_INT.c ****         {
 330:Generated_Source\PSoC5/I2C_INT.c ****             /* The address only issued after Start or ReStart: so check the address
 331:Generated_Source\PSoC5/I2C_INT.c ****                to catch these events:
 332:Generated_Source\PSoC5/I2C_INT.c ****                 FF : sets an address phase with a byte_complete interrupt trigger.
 333:Generated_Source\PSoC5/I2C_INT.c ****                 UDB: sets an address phase immediately after Start or ReStart. */
 334:Generated_Source\PSoC5/I2C_INT.c ****             if(I2C_CHECK_ADDRESS_STS(tmpCsr))
 335:Generated_Source\PSoC5/I2C_INT.c ****             {
 336:Generated_Source\PSoC5/I2C_INT.c ****             /* Check for software address detection */
 337:Generated_Source\PSoC5/I2C_INT.c ****             #if(I2C_SW_ADRR_DECODE)
 338:Generated_Source\PSoC5/I2C_INT.c ****                 tmp8 = I2C_GET_SLAVE_ADDR(I2C_DATA_REG);
 339:Generated_Source\PSoC5/I2C_INT.c **** 
 340:Generated_Source\PSoC5/I2C_INT.c ****                 if(tmp8 == I2C_slAddress)   /* Check for address match */
ARM GAS  C:\Users\HPz420\AppData\Local\Temp\ccVry06E.s 			page 17


 341:Generated_Source\PSoC5/I2C_INT.c ****                 {
 342:Generated_Source\PSoC5/I2C_INT.c ****                     if(0u != (I2C_DATA_REG & I2C_READ_FLAG))
 343:Generated_Source\PSoC5/I2C_INT.c ****                     {
 344:Generated_Source\PSoC5/I2C_INT.c ****                         /* Place code to prepare read buffer here                  */
 345:Generated_Source\PSoC5/I2C_INT.c ****                         /* `#START I2C_SW_PREPARE_READ_BUF_interrupt` */
 346:Generated_Source\PSoC5/I2C_INT.c **** 
 347:Generated_Source\PSoC5/I2C_INT.c ****                         /* `#END` */
 348:Generated_Source\PSoC5/I2C_INT.c **** 
 349:Generated_Source\PSoC5/I2C_INT.c ****                     #ifdef I2C_SW_PREPARE_READ_BUF_CALLBACK
 350:Generated_Source\PSoC5/I2C_INT.c ****                         I2C_SwPrepareReadBuf_Callback();
 351:Generated_Source\PSoC5/I2C_INT.c ****                     #endif /* I2C_SW_PREPARE_READ_BUF_CALLBACK */
 352:Generated_Source\PSoC5/I2C_INT.c ****                         
 353:Generated_Source\PSoC5/I2C_INT.c ****                         /* Prepare next operation to read, get data and place in data register */
 354:Generated_Source\PSoC5/I2C_INT.c ****                         if(I2C_slRdBufIndex < I2C_slRdBufSize)
 355:Generated_Source\PSoC5/I2C_INT.c ****                         {
 356:Generated_Source\PSoC5/I2C_INT.c ****                             /* Load first data byte from array */
 357:Generated_Source\PSoC5/I2C_INT.c ****                             I2C_DATA_REG = I2C_slRdBufPtr[I2C_slRdBufIndex];
 358:Generated_Source\PSoC5/I2C_INT.c ****                             I2C_ACK_AND_TRANSMIT;
 359:Generated_Source\PSoC5/I2C_INT.c ****                             I2C_slRdBufIndex++;
 360:Generated_Source\PSoC5/I2C_INT.c **** 
 361:Generated_Source\PSoC5/I2C_INT.c ****                             I2C_slStatus |= I2C_SSTAT_RD_BUSY;
 362:Generated_Source\PSoC5/I2C_INT.c ****                         }
 363:Generated_Source\PSoC5/I2C_INT.c ****                         else    /* Overflow: provide 0xFF on bus */
 364:Generated_Source\PSoC5/I2C_INT.c ****                         {
 365:Generated_Source\PSoC5/I2C_INT.c ****                             I2C_DATA_REG = I2C_OVERFLOW_RETURN;
 366:Generated_Source\PSoC5/I2C_INT.c ****                             I2C_ACK_AND_TRANSMIT;
 367:Generated_Source\PSoC5/I2C_INT.c **** 
 368:Generated_Source\PSoC5/I2C_INT.c ****                             I2C_slStatus  |= (I2C_SSTAT_RD_BUSY |
 369:Generated_Source\PSoC5/I2C_INT.c ****                                                            I2C_SSTAT_RD_ERR_OVFL);
 370:Generated_Source\PSoC5/I2C_INT.c ****                         }
 371:Generated_Source\PSoC5/I2C_INT.c **** 
 372:Generated_Source\PSoC5/I2C_INT.c ****                         I2C_state = I2C_SM_SL_RD_DATA;
 373:Generated_Source\PSoC5/I2C_INT.c ****                     }
 374:Generated_Source\PSoC5/I2C_INT.c ****                     else  /* Write transaction: receive 1st byte */
 375:Generated_Source\PSoC5/I2C_INT.c ****                     {
 376:Generated_Source\PSoC5/I2C_INT.c ****                         I2C_ACK_AND_RECEIVE;
 377:Generated_Source\PSoC5/I2C_INT.c ****                         I2C_state = I2C_SM_SL_WR_DATA;
 378:Generated_Source\PSoC5/I2C_INT.c **** 
 379:Generated_Source\PSoC5/I2C_INT.c ****                         I2C_slStatus |= I2C_SSTAT_WR_BUSY;
 380:Generated_Source\PSoC5/I2C_INT.c ****                         I2C_ENABLE_INT_ON_STOP;
 381:Generated_Source\PSoC5/I2C_INT.c ****                     }
 382:Generated_Source\PSoC5/I2C_INT.c ****                 }
 383:Generated_Source\PSoC5/I2C_INT.c ****                 else
 384:Generated_Source\PSoC5/I2C_INT.c ****                 {
 385:Generated_Source\PSoC5/I2C_INT.c ****                     /*     Place code to compare for additional address here    */
 386:Generated_Source\PSoC5/I2C_INT.c ****                     /* `#START I2C_SW_ADDR_COMPARE_interruptStart` */
 387:Generated_Source\PSoC5/I2C_INT.c **** 
 388:Generated_Source\PSoC5/I2C_INT.c ****                     /* `#END` */
 389:Generated_Source\PSoC5/I2C_INT.c **** 
 390:Generated_Source\PSoC5/I2C_INT.c ****                 #ifdef I2C_SW_ADDR_COMPARE_ENTRY_CALLBACK
 391:Generated_Source\PSoC5/I2C_INT.c ****                     I2C_SwAddrCompare_EntryCallback();
 392:Generated_Source\PSoC5/I2C_INT.c ****                 #endif /* I2C_SW_ADDR_COMPARE_ENTRY_CALLBACK */
 393:Generated_Source\PSoC5/I2C_INT.c ****                     
 394:Generated_Source\PSoC5/I2C_INT.c ****                     I2C_NAK_AND_RECEIVE;   /* NACK address */
 395:Generated_Source\PSoC5/I2C_INT.c **** 
 396:Generated_Source\PSoC5/I2C_INT.c ****                     /* Place code to end of condition for NACK generation here */
 397:Generated_Source\PSoC5/I2C_INT.c ****                     /* `#START I2C_SW_ADDR_COMPARE_interruptEnd`  */
ARM GAS  C:\Users\HPz420\AppData\Local\Temp\ccVry06E.s 			page 18


 398:Generated_Source\PSoC5/I2C_INT.c **** 
 399:Generated_Source\PSoC5/I2C_INT.c ****                     /* `#END` */
 400:Generated_Source\PSoC5/I2C_INT.c **** 
 401:Generated_Source\PSoC5/I2C_INT.c ****                 #ifdef I2C_SW_ADDR_COMPARE_EXIT_CALLBACK
 402:Generated_Source\PSoC5/I2C_INT.c ****                     I2C_SwAddrCompare_ExitCallback();
 403:Generated_Source\PSoC5/I2C_INT.c ****                 #endif /* I2C_SW_ADDR_COMPARE_EXIT_CALLBACK */
 404:Generated_Source\PSoC5/I2C_INT.c ****                 }
 405:Generated_Source\PSoC5/I2C_INT.c **** 
 406:Generated_Source\PSoC5/I2C_INT.c ****             #else /* (I2C_HW_ADRR_DECODE) */
 407:Generated_Source\PSoC5/I2C_INT.c **** 
 408:Generated_Source\PSoC5/I2C_INT.c ****                 if(0u != (I2C_DATA_REG & I2C_READ_FLAG))
 409:Generated_Source\PSoC5/I2C_INT.c ****                 {
 410:Generated_Source\PSoC5/I2C_INT.c ****                     /* Place code to prepare read buffer here                  */
 411:Generated_Source\PSoC5/I2C_INT.c ****                     /* `#START I2C_HW_PREPARE_READ_BUF_interrupt` */
 412:Generated_Source\PSoC5/I2C_INT.c **** 
 413:Generated_Source\PSoC5/I2C_INT.c ****                     /* `#END` */
 414:Generated_Source\PSoC5/I2C_INT.c ****                     
 415:Generated_Source\PSoC5/I2C_INT.c ****                 #ifdef I2C_HW_PREPARE_READ_BUF_CALLBACK
 416:Generated_Source\PSoC5/I2C_INT.c ****                     I2C_HwPrepareReadBuf_Callback();
 417:Generated_Source\PSoC5/I2C_INT.c ****                 #endif /* I2C_HW_PREPARE_READ_BUF_CALLBACK */
 418:Generated_Source\PSoC5/I2C_INT.c **** 
 419:Generated_Source\PSoC5/I2C_INT.c ****                     /* Prepare next operation to read, get data and place in data register */
 420:Generated_Source\PSoC5/I2C_INT.c ****                     if(I2C_slRdBufIndex < I2C_slRdBufSize)
 421:Generated_Source\PSoC5/I2C_INT.c ****                     {
 422:Generated_Source\PSoC5/I2C_INT.c ****                         /* Load first data byte from array */
 423:Generated_Source\PSoC5/I2C_INT.c ****                         I2C_DATA_REG = I2C_slRdBufPtr[I2C_slRdBufIndex];
 424:Generated_Source\PSoC5/I2C_INT.c ****                         I2C_ACK_AND_TRANSMIT;
 425:Generated_Source\PSoC5/I2C_INT.c ****                         I2C_slRdBufIndex++;
 426:Generated_Source\PSoC5/I2C_INT.c **** 
 427:Generated_Source\PSoC5/I2C_INT.c ****                         I2C_slStatus |= I2C_SSTAT_RD_BUSY;
 428:Generated_Source\PSoC5/I2C_INT.c ****                     }
 429:Generated_Source\PSoC5/I2C_INT.c ****                     else    /* Overflow: provide 0xFF on bus */
 430:Generated_Source\PSoC5/I2C_INT.c ****                     {
 431:Generated_Source\PSoC5/I2C_INT.c ****                         I2C_DATA_REG = I2C_OVERFLOW_RETURN;
 432:Generated_Source\PSoC5/I2C_INT.c ****                         I2C_ACK_AND_TRANSMIT;
 433:Generated_Source\PSoC5/I2C_INT.c **** 
 434:Generated_Source\PSoC5/I2C_INT.c ****                         I2C_slStatus  |= (I2C_SSTAT_RD_BUSY |
 435:Generated_Source\PSoC5/I2C_INT.c ****                                                        I2C_SSTAT_RD_ERR_OVFL);
 436:Generated_Source\PSoC5/I2C_INT.c ****                     }
 437:Generated_Source\PSoC5/I2C_INT.c **** 
 438:Generated_Source\PSoC5/I2C_INT.c ****                     I2C_state = I2C_SM_SL_RD_DATA;
 439:Generated_Source\PSoC5/I2C_INT.c ****                 }
 440:Generated_Source\PSoC5/I2C_INT.c ****                 else  /* Write transaction: receive 1st byte */
 441:Generated_Source\PSoC5/I2C_INT.c ****                 {
 442:Generated_Source\PSoC5/I2C_INT.c ****                     I2C_ACK_AND_RECEIVE;
 443:Generated_Source\PSoC5/I2C_INT.c ****                     I2C_state = I2C_SM_SL_WR_DATA;
 444:Generated_Source\PSoC5/I2C_INT.c **** 
 445:Generated_Source\PSoC5/I2C_INT.c ****                     I2C_slStatus |= I2C_SSTAT_WR_BUSY;
 446:Generated_Source\PSoC5/I2C_INT.c ****                     I2C_ENABLE_INT_ON_STOP;
 447:Generated_Source\PSoC5/I2C_INT.c ****                 }
 448:Generated_Source\PSoC5/I2C_INT.c **** 
 449:Generated_Source\PSoC5/I2C_INT.c ****             #endif /* (I2C_SW_ADRR_DECODE) */
 450:Generated_Source\PSoC5/I2C_INT.c ****             }
 451:Generated_Source\PSoC5/I2C_INT.c ****             /* Data states */
 452:Generated_Source\PSoC5/I2C_INT.c ****             /* Data master writes into slave */
 453:Generated_Source\PSoC5/I2C_INT.c ****             else if(I2C_state == I2C_SM_SL_WR_DATA)
 454:Generated_Source\PSoC5/I2C_INT.c ****             {
ARM GAS  C:\Users\HPz420\AppData\Local\Temp\ccVry06E.s 			page 19


 455:Generated_Source\PSoC5/I2C_INT.c ****                 if(I2C_slWrBufIndex < I2C_slWrBufSize)
 456:Generated_Source\PSoC5/I2C_INT.c ****                 {
 457:Generated_Source\PSoC5/I2C_INT.c ****                     tmp8 = I2C_DATA_REG;
 458:Generated_Source\PSoC5/I2C_INT.c ****                     I2C_ACK_AND_RECEIVE;
 459:Generated_Source\PSoC5/I2C_INT.c ****                     I2C_slWrBufPtr[I2C_slWrBufIndex] = tmp8;
 460:Generated_Source\PSoC5/I2C_INT.c ****                     I2C_slWrBufIndex++;
 461:Generated_Source\PSoC5/I2C_INT.c ****                 }
 462:Generated_Source\PSoC5/I2C_INT.c ****                 else  /* of array: complete write, send NACK */
 463:Generated_Source\PSoC5/I2C_INT.c ****                 {
 464:Generated_Source\PSoC5/I2C_INT.c ****                     I2C_NAK_AND_RECEIVE;
 465:Generated_Source\PSoC5/I2C_INT.c **** 
 466:Generated_Source\PSoC5/I2C_INT.c ****                     I2C_slStatus |= I2C_SSTAT_WR_ERR_OVFL;
 467:Generated_Source\PSoC5/I2C_INT.c ****                 }
 468:Generated_Source\PSoC5/I2C_INT.c ****             }
 469:Generated_Source\PSoC5/I2C_INT.c ****             /* Data master reads from slave */
 470:Generated_Source\PSoC5/I2C_INT.c ****             else if(I2C_state == I2C_SM_SL_RD_DATA)
 471:Generated_Source\PSoC5/I2C_INT.c ****             {
 472:Generated_Source\PSoC5/I2C_INT.c ****                 if(I2C_CHECK_DATA_ACK(tmpCsr))
 473:Generated_Source\PSoC5/I2C_INT.c ****                 {
 474:Generated_Source\PSoC5/I2C_INT.c ****                     if(I2C_slRdBufIndex < I2C_slRdBufSize)
 475:Generated_Source\PSoC5/I2C_INT.c ****                     {
 476:Generated_Source\PSoC5/I2C_INT.c ****                          /* Get data from array */
 477:Generated_Source\PSoC5/I2C_INT.c ****                         I2C_DATA_REG = I2C_slRdBufPtr[I2C_slRdBufIndex];
 478:Generated_Source\PSoC5/I2C_INT.c ****                         I2C_TRANSMIT_DATA;
 479:Generated_Source\PSoC5/I2C_INT.c ****                         I2C_slRdBufIndex++;
 480:Generated_Source\PSoC5/I2C_INT.c ****                     }
 481:Generated_Source\PSoC5/I2C_INT.c ****                     else   /* Overflow: provide 0xFF on bus */
 482:Generated_Source\PSoC5/I2C_INT.c ****                     {
 483:Generated_Source\PSoC5/I2C_INT.c ****                         I2C_DATA_REG = I2C_OVERFLOW_RETURN;
 484:Generated_Source\PSoC5/I2C_INT.c ****                         I2C_TRANSMIT_DATA;
 485:Generated_Source\PSoC5/I2C_INT.c **** 
 486:Generated_Source\PSoC5/I2C_INT.c ****                         I2C_slStatus |= I2C_SSTAT_RD_ERR_OVFL;
 487:Generated_Source\PSoC5/I2C_INT.c ****                     }
 488:Generated_Source\PSoC5/I2C_INT.c ****                 }
 489:Generated_Source\PSoC5/I2C_INT.c ****                 else  /* Last byte was NACKed: read complete */
 490:Generated_Source\PSoC5/I2C_INT.c ****                 {
 491:Generated_Source\PSoC5/I2C_INT.c ****                     /* Only NACK appears on bus */
 492:Generated_Source\PSoC5/I2C_INT.c ****                     I2C_DATA_REG = I2C_OVERFLOW_RETURN;
 493:Generated_Source\PSoC5/I2C_INT.c ****                     I2C_NAK_AND_TRANSMIT;
 494:Generated_Source\PSoC5/I2C_INT.c **** 
 495:Generated_Source\PSoC5/I2C_INT.c ****                     I2C_slStatus &= ((uint8) ~I2C_SSTAT_RD_BUSY);
 496:Generated_Source\PSoC5/I2C_INT.c ****                     I2C_slStatus |= ((uint8)  I2C_SSTAT_RD_CMPLT);
 497:Generated_Source\PSoC5/I2C_INT.c **** 
 498:Generated_Source\PSoC5/I2C_INT.c ****                     I2C_state = I2C_SM_IDLE;
 499:Generated_Source\PSoC5/I2C_INT.c ****                 }
 500:Generated_Source\PSoC5/I2C_INT.c ****             }
 501:Generated_Source\PSoC5/I2C_INT.c ****             else
 502:Generated_Source\PSoC5/I2C_INT.c ****             {
 503:Generated_Source\PSoC5/I2C_INT.c ****             #if(I2C_TIMEOUT_ENABLED)
 504:Generated_Source\PSoC5/I2C_INT.c ****                 /* Exit interrupt to take chance for timeout timer to handle this case */
 505:Generated_Source\PSoC5/I2C_INT.c ****                 I2C_DisableInt();
 506:Generated_Source\PSoC5/I2C_INT.c ****                 I2C_ClearPendingInt();
 507:Generated_Source\PSoC5/I2C_INT.c ****             #else
 508:Generated_Source\PSoC5/I2C_INT.c ****                 /* Block execution flow: unexpected condition */
 509:Generated_Source\PSoC5/I2C_INT.c ****                 CYASSERT(0u != 0u);
 510:Generated_Source\PSoC5/I2C_INT.c ****             #endif /* (I2C_TIMEOUT_ENABLED) */
 511:Generated_Source\PSoC5/I2C_INT.c ****             }
ARM GAS  C:\Users\HPz420\AppData\Local\Temp\ccVry06E.s 			page 20


 512:Generated_Source\PSoC5/I2C_INT.c ****         }
 513:Generated_Source\PSoC5/I2C_INT.c ****     #endif /* (I2C_MODE_SLAVE_ENABLED) */
 514:Generated_Source\PSoC5/I2C_INT.c ****     }
 515:Generated_Source\PSoC5/I2C_INT.c ****     else
 516:Generated_Source\PSoC5/I2C_INT.c ****     {
 517:Generated_Source\PSoC5/I2C_INT.c ****         /* The FSM skips master and slave processing: return to IDLE */
 518:Generated_Source\PSoC5/I2C_INT.c ****         I2C_state = I2C_SM_IDLE;
 519:Generated_Source\PSoC5/I2C_INT.c ****     }
 520:Generated_Source\PSoC5/I2C_INT.c **** 
 521:Generated_Source\PSoC5/I2C_INT.c **** #ifdef I2C_ISR_EXIT_CALLBACK
 522:Generated_Source\PSoC5/I2C_INT.c ****     I2C_ISR_ExitCallback();
 523:Generated_Source\PSoC5/I2C_INT.c **** #endif /* I2C_ISR_EXIT_CALLBACK */    
 524:Generated_Source\PSoC5/I2C_INT.c **** }
 532              		.loc 1 524 0 discriminator 4
 533 036e 0AE0     		b	.L34
 534              	.L2:
 308:Generated_Source\PSoC5/I2C_INT.c ****     {
 535              		.loc 1 308 0
 536 0370 094B     		ldr	r3, .L37+8
 537 0372 1B78     		ldrb	r3, [r3]
 538 0374 DBB2     		uxtb	r3, r3
 539 0376 03F01003 		and	r3, r3, #16
 540 037a DBB2     		uxtb	r3, r3
 541 037c 002B     		cmp	r3, #0
 542 037e 02D1     		bne	.L34
 518:Generated_Source\PSoC5/I2C_INT.c ****     }
 543              		.loc 1 518 0
 544 0380 054B     		ldr	r3, .L37+8
 545 0382 1022     		movs	r2, #16
 546 0384 1A70     		strb	r2, [r3]
 547              	.L34:
 548              		.loc 1 524 0
 549 0386 00BF     		nop
 550 0388 0837     		adds	r7, r7, #8
 551              		.cfi_def_cfa_offset 8
 552 038a BD46     		mov	sp, r7
 553              		.cfi_def_cfa_register 13
 554              		@ sp needed
 555 038c 80BD     		pop	{r7, pc}
 556              	.L38:
 557 038e 00BF     		.align	2
 558              	.L37:
 559 0390 00000000 		.word	I2C_mstrControl
 560 0394 00000000 		.word	I2C_mstrStatus
 561 0398 00000000 		.word	I2C_state
 562 039c 80E100E0 		.word	-536813184
 563 03a0 D6490040 		.word	1073760726
 564 03a4 D7490040 		.word	1073760727
 565              		.cfi_endproc
 566              	.LFE0:
 567              		.size	I2C_ISR, .-I2C_ISR
 568              		.text
 569              	.Letext0:
 570              		.file 2 "Generated_Source\\PSoC5\\cytypes.h"
 571              		.file 3 "Generated_Source\\PSoC5\\I2C_PVT.h"