ARM GAS  C:\Users\HPz420\AppData\Local\Temp\ccVry06E.s 			page 1


   1              		.syntax unified
   2              		.cpu cortex-m3
   3              		.fpu softvfp
   4              		.eabi_attribute 20, 1
   5              		.eabi_attribute 21, 1
   6              		.eabi_attribute 23, 3
   7              		.eabi_attribute 24, 1
   8              		.eabi_attribute 25, 1
   9              		.eabi_attribute 26, 1
  10              		.eabi_attribute 30, 6
  11              		.eabi_attribute 34, 1
  12              		.eabi_attribute 18, 4
  13              		.thumb
  14              		.syntax unified
  15              		.file	"I2C_INT.c"
  16              		.text
  17              	.Ltext0:
  18              		.cfi_sections	.debug_frame
  19              		.section	.text.I2C_ISR,"ax",%progbits
  20              		.align	2
  21              		.global	I2C_ISR
  22              		.thumb
  23              		.thumb_func
  24              		.type	I2C_ISR, %function
  25              	I2C_ISR:
  26              	.LFB0:
  27              		.file 1 "Generated_Source\\PSoC5\\I2C_INT.c"
   1:Generated_Source\PSoC5/I2C_INT.c **** /*******************************************************************************
   2:Generated_Source\PSoC5/I2C_INT.c **** * File Name: I2C_INT.c
   3:Generated_Source\PSoC5/I2C_INT.c **** * Version 3.50
   4:Generated_Source\PSoC5/I2C_INT.c **** *
   5:Generated_Source\PSoC5/I2C_INT.c **** * Description:
   6:Generated_Source\PSoC5/I2C_INT.c **** *  This file provides the source code of Interrupt Service Routine (ISR)
   7:Generated_Source\PSoC5/I2C_INT.c **** *  for the I2C component.
   8:Generated_Source\PSoC5/I2C_INT.c **** *
   9:Generated_Source\PSoC5/I2C_INT.c **** ********************************************************************************
  10:Generated_Source\PSoC5/I2C_INT.c **** * Copyright 2008-2015, Cypress Semiconductor Corporation. All rights reserved.
  11:Generated_Source\PSoC5/I2C_INT.c **** * You may use this file only in accordance with the license, terms, conditions,
  12:Generated_Source\PSoC5/I2C_INT.c **** * disclaimers, and limitations in the end user license agreement accompanying
  13:Generated_Source\PSoC5/I2C_INT.c **** * the software package with which this file was provided.
  14:Generated_Source\PSoC5/I2C_INT.c **** *******************************************************************************/
  15:Generated_Source\PSoC5/I2C_INT.c **** 
  16:Generated_Source\PSoC5/I2C_INT.c **** #include "I2C_PVT.h"
  17:Generated_Source\PSoC5/I2C_INT.c **** #include "cyapicallbacks.h"
  18:Generated_Source\PSoC5/I2C_INT.c **** 
  19:Generated_Source\PSoC5/I2C_INT.c **** 
  20:Generated_Source\PSoC5/I2C_INT.c **** /*******************************************************************************
  21:Generated_Source\PSoC5/I2C_INT.c **** *  Place your includes, defines and code here.
  22:Generated_Source\PSoC5/I2C_INT.c **** ********************************************************************************/
  23:Generated_Source\PSoC5/I2C_INT.c **** /* `#START I2C_ISR_intc` */
  24:Generated_Source\PSoC5/I2C_INT.c **** 
  25:Generated_Source\PSoC5/I2C_INT.c **** /* `#END` */
  26:Generated_Source\PSoC5/I2C_INT.c **** 
  27:Generated_Source\PSoC5/I2C_INT.c **** 
  28:Generated_Source\PSoC5/I2C_INT.c **** /*******************************************************************************
  29:Generated_Source\PSoC5/I2C_INT.c **** * Function Name: I2C_ISR
  30:Generated_Source\PSoC5/I2C_INT.c **** ********************************************************************************
ARM GAS  C:\Users\HPz420\AppData\Local\Temp\ccVry06E.s 			page 2


  31:Generated_Source\PSoC5/I2C_INT.c **** *
  32:Generated_Source\PSoC5/I2C_INT.c **** * Summary:
  33:Generated_Source\PSoC5/I2C_INT.c **** *  The handler for the I2C interrupt. The slave and master operations are
  34:Generated_Source\PSoC5/I2C_INT.c **** *  handled here.
  35:Generated_Source\PSoC5/I2C_INT.c **** *
  36:Generated_Source\PSoC5/I2C_INT.c **** * Parameters:
  37:Generated_Source\PSoC5/I2C_INT.c **** *  None.
  38:Generated_Source\PSoC5/I2C_INT.c **** *
  39:Generated_Source\PSoC5/I2C_INT.c **** * Return:
  40:Generated_Source\PSoC5/I2C_INT.c **** *  None.
  41:Generated_Source\PSoC5/I2C_INT.c **** *
  42:Generated_Source\PSoC5/I2C_INT.c **** * Reentrant:
  43:Generated_Source\PSoC5/I2C_INT.c **** *  No.
  44:Generated_Source\PSoC5/I2C_INT.c **** *
  45:Generated_Source\PSoC5/I2C_INT.c **** *******************************************************************************/
  46:Generated_Source\PSoC5/I2C_INT.c **** CY_ISR(I2C_ISR)
  47:Generated_Source\PSoC5/I2C_INT.c **** {
  28              		.loc 1 47 0
  29              		.cfi_startproc
  30              		@ args = 0, pretend = 0, frame = 8
  31              		@ frame_needed = 1, uses_anonymous_args = 0
  32 0000 80B5     		push	{r7, lr}
  33              		.cfi_def_cfa_offset 8
  34              		.cfi_offset 7, -8
  35              		.cfi_offset 14, -4
  36 0002 82B0     		sub	sp, sp, #8
  37              		.cfi_def_cfa_offset 16
  38 0004 00AF     		add	r7, sp, #0
  39              		.cfi_def_cfa_register 7
  48:Generated_Source\PSoC5/I2C_INT.c **** #if (I2C_MODE_SLAVE_ENABLED)
  49:Generated_Source\PSoC5/I2C_INT.c ****    uint8  tmp8;
  50:Generated_Source\PSoC5/I2C_INT.c **** #endif  /* (I2C_MODE_SLAVE_ENABLED) */
  51:Generated_Source\PSoC5/I2C_INT.c **** 
  52:Generated_Source\PSoC5/I2C_INT.c ****     uint8  tmpCsr;
  53:Generated_Source\PSoC5/I2C_INT.c ****     
  54:Generated_Source\PSoC5/I2C_INT.c **** #ifdef I2C_ISR_ENTRY_CALLBACK
  55:Generated_Source\PSoC5/I2C_INT.c ****     I2C_ISR_EntryCallback();
  56:Generated_Source\PSoC5/I2C_INT.c **** #endif /* I2C_ISR_ENTRY_CALLBACK */
  57:Generated_Source\PSoC5/I2C_INT.c ****     
  58:Generated_Source\PSoC5/I2C_INT.c **** 
  59:Generated_Source\PSoC5/I2C_INT.c **** #if(I2C_TIMEOUT_FF_ENABLED)
  60:Generated_Source\PSoC5/I2C_INT.c ****     if(0u != I2C_TimeoutGetStatus())
  61:Generated_Source\PSoC5/I2C_INT.c ****     {
  62:Generated_Source\PSoC5/I2C_INT.c ****         I2C_TimeoutReset();
  63:Generated_Source\PSoC5/I2C_INT.c ****         I2C_state = I2C_SM_EXIT_IDLE;
  64:Generated_Source\PSoC5/I2C_INT.c ****         /* I2C_CSR_REG should be cleared after reset */
  65:Generated_Source\PSoC5/I2C_INT.c ****     }
  66:Generated_Source\PSoC5/I2C_INT.c **** #endif /* (I2C_TIMEOUT_FF_ENABLED) */
  67:Generated_Source\PSoC5/I2C_INT.c **** 
  68:Generated_Source\PSoC5/I2C_INT.c **** 
  69:Generated_Source\PSoC5/I2C_INT.c ****     tmpCsr = I2C_CSR_REG;      /* Make copy as interrupts clear */
  40              		.loc 1 69 0
  41 0006 A74B     		ldr	r3, .L35
  42 0008 1B78     		ldrb	r3, [r3]
  43 000a FB71     		strb	r3, [r7, #7]
  70:Generated_Source\PSoC5/I2C_INT.c **** 
  71:Generated_Source\PSoC5/I2C_INT.c **** #if(I2C_MODE_MULTI_MASTER_SLAVE_ENABLED)
ARM GAS  C:\Users\HPz420\AppData\Local\Temp\ccVry06E.s 			page 3


  72:Generated_Source\PSoC5/I2C_INT.c ****     if(I2C_CHECK_START_GEN(I2C_MCSR_REG))
  73:Generated_Source\PSoC5/I2C_INT.c ****     {
  74:Generated_Source\PSoC5/I2C_INT.c ****         I2C_CLEAR_START_GEN;
  75:Generated_Source\PSoC5/I2C_INT.c **** 
  76:Generated_Source\PSoC5/I2C_INT.c ****         /* Set transfer complete and error flags */
  77:Generated_Source\PSoC5/I2C_INT.c ****         I2C_mstrStatus |= (I2C_MSTAT_ERR_XFER |
  78:Generated_Source\PSoC5/I2C_INT.c ****                                         I2C_GET_MSTAT_CMPLT);
  79:Generated_Source\PSoC5/I2C_INT.c **** 
  80:Generated_Source\PSoC5/I2C_INT.c ****         /* Slave was addressed */
  81:Generated_Source\PSoC5/I2C_INT.c ****         I2C_state = I2C_SM_SLAVE;
  82:Generated_Source\PSoC5/I2C_INT.c ****     }
  83:Generated_Source\PSoC5/I2C_INT.c **** #endif /* (I2C_MODE_MULTI_MASTER_SLAVE_ENABLED) */
  84:Generated_Source\PSoC5/I2C_INT.c **** 
  85:Generated_Source\PSoC5/I2C_INT.c **** 
  86:Generated_Source\PSoC5/I2C_INT.c **** #if(I2C_MODE_MULTI_MASTER_ENABLED)
  87:Generated_Source\PSoC5/I2C_INT.c ****     if(I2C_CHECK_LOST_ARB(tmpCsr))
  88:Generated_Source\PSoC5/I2C_INT.c ****     {
  89:Generated_Source\PSoC5/I2C_INT.c ****         /* Set errors */
  90:Generated_Source\PSoC5/I2C_INT.c ****         I2C_mstrStatus |= (I2C_MSTAT_ERR_XFER     |
  91:Generated_Source\PSoC5/I2C_INT.c ****                                         I2C_MSTAT_ERR_ARB_LOST |
  92:Generated_Source\PSoC5/I2C_INT.c ****                                         I2C_GET_MSTAT_CMPLT);
  93:Generated_Source\PSoC5/I2C_INT.c **** 
  94:Generated_Source\PSoC5/I2C_INT.c ****         I2C_DISABLE_INT_ON_STOP; /* Interrupt on Stop is enabled by write */
  95:Generated_Source\PSoC5/I2C_INT.c **** 
  96:Generated_Source\PSoC5/I2C_INT.c ****         #if(I2C_MODE_MULTI_MASTER_SLAVE_ENABLED)
  97:Generated_Source\PSoC5/I2C_INT.c ****             if(I2C_CHECK_ADDRESS_STS(tmpCsr))
  98:Generated_Source\PSoC5/I2C_INT.c ****             {
  99:Generated_Source\PSoC5/I2C_INT.c ****                 /* Slave was addressed */
 100:Generated_Source\PSoC5/I2C_INT.c ****                 I2C_state = I2C_SM_SLAVE;
 101:Generated_Source\PSoC5/I2C_INT.c ****             }
 102:Generated_Source\PSoC5/I2C_INT.c ****             else
 103:Generated_Source\PSoC5/I2C_INT.c ****             {
 104:Generated_Source\PSoC5/I2C_INT.c ****                 I2C_BUS_RELEASE;
 105:Generated_Source\PSoC5/I2C_INT.c **** 
 106:Generated_Source\PSoC5/I2C_INT.c ****                 I2C_state = I2C_SM_EXIT_IDLE;
 107:Generated_Source\PSoC5/I2C_INT.c ****             }
 108:Generated_Source\PSoC5/I2C_INT.c ****         #else
 109:Generated_Source\PSoC5/I2C_INT.c ****             I2C_BUS_RELEASE;
 110:Generated_Source\PSoC5/I2C_INT.c **** 
 111:Generated_Source\PSoC5/I2C_INT.c ****             I2C_state = I2C_SM_EXIT_IDLE;
 112:Generated_Source\PSoC5/I2C_INT.c **** 
 113:Generated_Source\PSoC5/I2C_INT.c ****         #endif /* (I2C_MODE_MULTI_MASTER_SLAVE_ENABLED) */
 114:Generated_Source\PSoC5/I2C_INT.c ****     }
 115:Generated_Source\PSoC5/I2C_INT.c **** #endif /* (I2C_MODE_MULTI_MASTER_ENABLED) */
 116:Generated_Source\PSoC5/I2C_INT.c **** 
 117:Generated_Source\PSoC5/I2C_INT.c ****     /* Check for master operation mode */
 118:Generated_Source\PSoC5/I2C_INT.c ****     if(I2C_CHECK_SM_MASTER)
  44              		.loc 1 118 0
  45 000c A64B     		ldr	r3, .L35+4
  46 000e 1B78     		ldrb	r3, [r3]
  47 0010 DBB2     		uxtb	r3, r3
  48 0012 03F04003 		and	r3, r3, #64
  49 0016 DBB2     		uxtb	r3, r3
  50 0018 002B     		cmp	r3, #0
  51 001a 00F0A981 		beq	.L2
 119:Generated_Source\PSoC5/I2C_INT.c ****     {
 120:Generated_Source\PSoC5/I2C_INT.c ****     #if(I2C_MODE_MASTER_ENABLED)
ARM GAS  C:\Users\HPz420\AppData\Local\Temp\ccVry06E.s 			page 4


 121:Generated_Source\PSoC5/I2C_INT.c ****         if(I2C_CHECK_BYTE_COMPLETE(tmpCsr))
  52              		.loc 1 121 0
  53 001e FB79     		ldrb	r3, [r7, #7]	@ zero_extendqisi2
  54 0020 03F00103 		and	r3, r3, #1
  55 0024 002B     		cmp	r3, #0
  56 0026 00F08081 		beq	.L3
 122:Generated_Source\PSoC5/I2C_INT.c ****         {
 123:Generated_Source\PSoC5/I2C_INT.c ****             switch (I2C_state)
  57              		.loc 1 123 0
  58 002a 9F4B     		ldr	r3, .L35+4
  59 002c 1B78     		ldrb	r3, [r3]
  60 002e DBB2     		uxtb	r3, r3
  61 0030 453B     		subs	r3, r3, #69
  62 0032 052B     		cmp	r3, #5
  63 0034 00F27581 		bhi	.L4
  64 0038 01A2     		adr	r2, .L6
  65 003a 52F823F0 		ldr	pc, [r2, r3, lsl #2]
  66 003e 00BF     		.p2align 2
  67              	.L6:
  68 0040 59000000 		.word	.L5+1
  69 0044 7F010000 		.word	.L7+1
  70 0048 23030000 		.word	.L4+1
  71 004c 23030000 		.word	.L4+1
  72 0050 59000000 		.word	.L5+1
  73 0054 6B020000 		.word	.L8+1
  74              		.p2align 1
  75              	.L5:
 124:Generated_Source\PSoC5/I2C_INT.c ****             {
 125:Generated_Source\PSoC5/I2C_INT.c ****             case I2C_SM_MSTR_WR_ADDR:  /* After address is sent, write data */
 126:Generated_Source\PSoC5/I2C_INT.c ****             case I2C_SM_MSTR_RD_ADDR:  /* After address is sent, read data */
 127:Generated_Source\PSoC5/I2C_INT.c **** 
 128:Generated_Source\PSoC5/I2C_INT.c ****                 tmpCsr &= ((uint8) ~I2C_CSR_STOP_STATUS); /* Clear Stop bit history on address phas
  76              		.loc 1 128 0
  77 0058 FB79     		ldrb	r3, [r7, #7]
  78 005a 23F02003 		bic	r3, r3, #32
  79 005e FB71     		strb	r3, [r7, #7]
 129:Generated_Source\PSoC5/I2C_INT.c **** 
 130:Generated_Source\PSoC5/I2C_INT.c ****                 if(I2C_CHECK_ADDR_ACK(tmpCsr))
  80              		.loc 1 130 0
  81 0060 FB79     		ldrb	r3, [r7, #7]
  82 0062 03F00A03 		and	r3, r3, #10
  83 0066 DBB2     		uxtb	r3, r3
  84 0068 082B     		cmp	r3, #8
  85 006a 46D1     		bne	.L9
 131:Generated_Source\PSoC5/I2C_INT.c ****                 {
 132:Generated_Source\PSoC5/I2C_INT.c ****                     /* Setup for transmit or receive of data */
 133:Generated_Source\PSoC5/I2C_INT.c ****                     if(I2C_state == I2C_SM_MSTR_WR_ADDR)   /* TRANSMIT data */
  86              		.loc 1 133 0
  87 006c 8E4B     		ldr	r3, .L35+4
  88 006e 1B78     		ldrb	r3, [r3]
  89 0070 DBB2     		uxtb	r3, r3
  90 0072 452B     		cmp	r3, #69
  91 0074 3AD1     		bne	.L10
 134:Generated_Source\PSoC5/I2C_INT.c ****                     {
 135:Generated_Source\PSoC5/I2C_INT.c ****                         /* Check if at least one byte to transfer */
 136:Generated_Source\PSoC5/I2C_INT.c ****                         if(I2C_mstrWrBufSize > 0u)
  92              		.loc 1 136 0
ARM GAS  C:\Users\HPz420\AppData\Local\Temp\ccVry06E.s 			page 5


  93 0076 8D4B     		ldr	r3, .L35+8
  94 0078 1B78     		ldrb	r3, [r3]
  95 007a DBB2     		uxtb	r3, r3
  96 007c 002B     		cmp	r3, #0
  97 007e 0FD0     		beq	.L11
 137:Generated_Source\PSoC5/I2C_INT.c ****                         {
 138:Generated_Source\PSoC5/I2C_INT.c ****                             /* Load the 1st data byte */
 139:Generated_Source\PSoC5/I2C_INT.c ****                             I2C_DATA_REG = I2C_mstrWrBufPtr[0u];
  98              		.loc 1 139 0
  99 0080 8B4A     		ldr	r2, .L35+12
 100 0082 8C4B     		ldr	r3, .L35+16
 101 0084 1B68     		ldr	r3, [r3]
 102 0086 1B78     		ldrb	r3, [r3]
 103 0088 DBB2     		uxtb	r3, r3
 104 008a 1370     		strb	r3, [r2]
 140:Generated_Source\PSoC5/I2C_INT.c ****                             I2C_TRANSMIT_DATA;
 105              		.loc 1 140 0
 106 008c 854B     		ldr	r3, .L35
 107 008e 0422     		movs	r2, #4
 108 0090 1A70     		strb	r2, [r3]
 141:Generated_Source\PSoC5/I2C_INT.c ****                             I2C_mstrWrBufIndex = 1u;   /* Set index to 2nd element */
 109              		.loc 1 141 0
 110 0092 894B     		ldr	r3, .L35+20
 111 0094 0122     		movs	r2, #1
 112 0096 1A70     		strb	r2, [r3]
 142:Generated_Source\PSoC5/I2C_INT.c **** 
 143:Generated_Source\PSoC5/I2C_INT.c ****                             /* Set transmit state until done */
 144:Generated_Source\PSoC5/I2C_INT.c ****                             I2C_state = I2C_SM_MSTR_WR_DATA;
 113              		.loc 1 144 0
 114 0098 834B     		ldr	r3, .L35+4
 115 009a 4622     		movs	r2, #70
 116 009c 1A70     		strb	r2, [r3]
 145:Generated_Source\PSoC5/I2C_INT.c ****                         }
 146:Generated_Source\PSoC5/I2C_INT.c ****                         /* End of buffer: complete writing */
 147:Generated_Source\PSoC5/I2C_INT.c ****                         else if(I2C_CHECK_NO_STOP(I2C_mstrControl))
 148:Generated_Source\PSoC5/I2C_INT.c ****                         {
 149:Generated_Source\PSoC5/I2C_INT.c ****                             /* Set write complete and master halted */
 150:Generated_Source\PSoC5/I2C_INT.c ****                             I2C_mstrStatus |= (I2C_MSTAT_XFER_HALT |
 151:Generated_Source\PSoC5/I2C_INT.c ****                                                             I2C_MSTAT_WR_CMPLT);
 152:Generated_Source\PSoC5/I2C_INT.c **** 
 153:Generated_Source\PSoC5/I2C_INT.c ****                             I2C_state = I2C_SM_MSTR_HALT; /* Expect ReStart */
 154:Generated_Source\PSoC5/I2C_INT.c ****                             I2C_DisableInt();
 155:Generated_Source\PSoC5/I2C_INT.c ****                         }
 156:Generated_Source\PSoC5/I2C_INT.c ****                         else
 157:Generated_Source\PSoC5/I2C_INT.c ****                         {
 158:Generated_Source\PSoC5/I2C_INT.c ****                             I2C_ENABLE_INT_ON_STOP; /* Enable interrupt on Stop, to catch it */
 159:Generated_Source\PSoC5/I2C_INT.c ****                             I2C_GENERATE_STOP;
 160:Generated_Source\PSoC5/I2C_INT.c ****                         }
 161:Generated_Source\PSoC5/I2C_INT.c ****                     }
 162:Generated_Source\PSoC5/I2C_INT.c ****                     else  /* Master receive data */
 163:Generated_Source\PSoC5/I2C_INT.c ****                     {
 164:Generated_Source\PSoC5/I2C_INT.c ****                         I2C_READY_TO_READ; /* Release bus to read data */
 165:Generated_Source\PSoC5/I2C_INT.c **** 
 166:Generated_Source\PSoC5/I2C_INT.c ****                         I2C_state  = I2C_SM_MSTR_RD_DATA;
 167:Generated_Source\PSoC5/I2C_INT.c ****                     }
 168:Generated_Source\PSoC5/I2C_INT.c ****                 }
 169:Generated_Source\PSoC5/I2C_INT.c ****                 /* Address is NACKed */
ARM GAS  C:\Users\HPz420\AppData\Local\Temp\ccVry06E.s 			page 6


 170:Generated_Source\PSoC5/I2C_INT.c ****                 else if(I2C_CHECK_ADDR_NAK(tmpCsr))
 171:Generated_Source\PSoC5/I2C_INT.c ****                 {
 172:Generated_Source\PSoC5/I2C_INT.c ****                     /* Set Address NAK error */
 173:Generated_Source\PSoC5/I2C_INT.c ****                     I2C_mstrStatus |= (I2C_MSTAT_ERR_XFER |
 174:Generated_Source\PSoC5/I2C_INT.c ****                                                     I2C_MSTAT_ERR_ADDR_NAK);
 175:Generated_Source\PSoC5/I2C_INT.c **** 
 176:Generated_Source\PSoC5/I2C_INT.c ****                     if(I2C_CHECK_NO_STOP(I2C_mstrControl))
 177:Generated_Source\PSoC5/I2C_INT.c ****                     {
 178:Generated_Source\PSoC5/I2C_INT.c ****                         I2C_mstrStatus |= (I2C_MSTAT_XFER_HALT |
 179:Generated_Source\PSoC5/I2C_INT.c ****                                                         I2C_GET_MSTAT_CMPLT);
 180:Generated_Source\PSoC5/I2C_INT.c **** 
 181:Generated_Source\PSoC5/I2C_INT.c ****                         I2C_state = I2C_SM_MSTR_HALT; /* Expect RESTART */
 182:Generated_Source\PSoC5/I2C_INT.c ****                         I2C_DisableInt();
 183:Generated_Source\PSoC5/I2C_INT.c ****                     }
 184:Generated_Source\PSoC5/I2C_INT.c ****                     else  /* Do normal Stop */
 185:Generated_Source\PSoC5/I2C_INT.c ****                     {
 186:Generated_Source\PSoC5/I2C_INT.c ****                         I2C_ENABLE_INT_ON_STOP; /* Enable interrupt on Stop, to catch it */
 187:Generated_Source\PSoC5/I2C_INT.c ****                         I2C_GENERATE_STOP;
 188:Generated_Source\PSoC5/I2C_INT.c ****                     }
 189:Generated_Source\PSoC5/I2C_INT.c ****                 }
 190:Generated_Source\PSoC5/I2C_INT.c ****                 else
 191:Generated_Source\PSoC5/I2C_INT.c ****                 {
 192:Generated_Source\PSoC5/I2C_INT.c ****                     /* Address phase is not set for some reason: error */
 193:Generated_Source\PSoC5/I2C_INT.c ****                     #if(I2C_TIMEOUT_ENABLED)
 194:Generated_Source\PSoC5/I2C_INT.c ****                         /* Exit interrupt to take chance for timeout timer to handle this case */
 195:Generated_Source\PSoC5/I2C_INT.c ****                         I2C_DisableInt();
 196:Generated_Source\PSoC5/I2C_INT.c ****                         I2C_ClearPendingInt();
 197:Generated_Source\PSoC5/I2C_INT.c ****                     #else
 198:Generated_Source\PSoC5/I2C_INT.c ****                         /* Block execution flow: unexpected condition */
 199:Generated_Source\PSoC5/I2C_INT.c ****                         CYASSERT(0u != 0u);
 200:Generated_Source\PSoC5/I2C_INT.c ****                     #endif /* (I2C_TIMEOUT_ENABLED) */
 201:Generated_Source\PSoC5/I2C_INT.c ****                 }
 202:Generated_Source\PSoC5/I2C_INT.c ****                 break;
 117              		.loc 1 202 0
 118 009e 44E1     		b	.L3
 119              	.L11:
 147:Generated_Source\PSoC5/I2C_INT.c ****                         {
 120              		.loc 1 147 0
 121 00a0 864B     		ldr	r3, .L35+24
 122 00a2 1B78     		ldrb	r3, [r3]
 123 00a4 DBB2     		uxtb	r3, r3
 124 00a6 03F00203 		and	r3, r3, #2
 125 00aa 002B     		cmp	r3, #0
 126 00ac 0FD0     		beq	.L13
 150:Generated_Source\PSoC5/I2C_INT.c ****                                                             I2C_MSTAT_WR_CMPLT);
 127              		.loc 1 150 0
 128 00ae 844B     		ldr	r3, .L35+28
 129 00b0 1B78     		ldrb	r3, [r3]
 130 00b2 DBB2     		uxtb	r3, r3
 131 00b4 43F00A03 		orr	r3, r3, #10
 132 00b8 DAB2     		uxtb	r2, r3
 133 00ba 814B     		ldr	r3, .L35+28
 134 00bc 1A70     		strb	r2, [r3]
 153:Generated_Source\PSoC5/I2C_INT.c ****                             I2C_DisableInt();
 135              		.loc 1 153 0
 136 00be 7A4B     		ldr	r3, .L35+4
 137 00c0 6022     		movs	r2, #96
ARM GAS  C:\Users\HPz420\AppData\Local\Temp\ccVry06E.s 			page 7


 138 00c2 1A70     		strb	r2, [r3]
 154:Generated_Source\PSoC5/I2C_INT.c ****                         }
 139              		.loc 1 154 0
 140 00c4 7F4B     		ldr	r3, .L35+32
 141 00c6 4FF40042 		mov	r2, #32768
 142 00ca 1A60     		str	r2, [r3]
 143              		.loc 1 202 0
 144 00cc 2DE1     		b	.L3
 145              	.L13:
 158:Generated_Source\PSoC5/I2C_INT.c ****                             I2C_GENERATE_STOP;
 146              		.loc 1 158 0
 147 00ce 7E4A     		ldr	r2, .L35+36
 148 00d0 7D4B     		ldr	r3, .L35+36
 149 00d2 1B78     		ldrb	r3, [r3]
 150 00d4 DBB2     		uxtb	r3, r3
 151 00d6 43F01003 		orr	r3, r3, #16
 152 00da DBB2     		uxtb	r3, r3
 153 00dc 1370     		strb	r3, [r2]
 159:Generated_Source\PSoC5/I2C_INT.c ****                         }
 154              		.loc 1 159 0
 155 00de 7B4B     		ldr	r3, .L35+40
 156 00e0 1022     		movs	r2, #16
 157 00e2 1A70     		strb	r2, [r3]
 158 00e4 6F4B     		ldr	r3, .L35
 159 00e6 0422     		movs	r2, #4
 160 00e8 1A70     		strb	r2, [r3]
 161              		.loc 1 202 0
 162 00ea 1EE1     		b	.L3
 163              	.L10:
 164:Generated_Source\PSoC5/I2C_INT.c **** 
 164              		.loc 1 164 0
 165 00ec 6D4B     		ldr	r3, .L35
 166 00ee 0022     		movs	r2, #0
 167 00f0 1A70     		strb	r2, [r3]
 166:Generated_Source\PSoC5/I2C_INT.c ****                     }
 168              		.loc 1 166 0
 169 00f2 6D4B     		ldr	r3, .L35+4
 170 00f4 4A22     		movs	r2, #74
 171 00f6 1A70     		strb	r2, [r3]
 172              		.loc 1 202 0
 173 00f8 17E1     		b	.L3
 174              	.L9:
 170:Generated_Source\PSoC5/I2C_INT.c ****                 {
 175              		.loc 1 170 0
 176 00fa FB79     		ldrb	r3, [r7, #7]
 177 00fc 03F00A03 		and	r3, r3, #10
 178 0100 DBB2     		uxtb	r3, r3
 179 0102 0A2B     		cmp	r3, #10
 180 0104 37D1     		bne	.L16
 173:Generated_Source\PSoC5/I2C_INT.c ****                                                     I2C_MSTAT_ERR_ADDR_NAK);
 181              		.loc 1 173 0
 182 0106 6E4B     		ldr	r3, .L35+28
 183 0108 1B78     		ldrb	r3, [r3]
 184 010a DBB2     		uxtb	r3, r3
 185 010c 63F05F03 		orn	r3, r3, #95
 186 0110 DAB2     		uxtb	r2, r3
 187 0112 6B4B     		ldr	r3, .L35+28
ARM GAS  C:\Users\HPz420\AppData\Local\Temp\ccVry06E.s 			page 8


 188 0114 1A70     		strb	r2, [r3]
 176:Generated_Source\PSoC5/I2C_INT.c ****                     {
 189              		.loc 1 176 0
 190 0116 694B     		ldr	r3, .L35+24
 191 0118 1B78     		ldrb	r3, [r3]
 192 011a DBB2     		uxtb	r3, r3
 193 011c 03F00203 		and	r3, r3, #2
 194 0120 002B     		cmp	r3, #0
 195 0122 19D0     		beq	.L17
 179:Generated_Source\PSoC5/I2C_INT.c **** 
 196              		.loc 1 179 0
 197 0124 604B     		ldr	r3, .L35+4
 198 0126 1B78     		ldrb	r3, [r3]
 199 0128 DBB2     		uxtb	r3, r3
 200 012a 03F00803 		and	r3, r3, #8
 178:Generated_Source\PSoC5/I2C_INT.c ****                                                         I2C_GET_MSTAT_CMPLT);
 201              		.loc 1 178 0
 202 012e 002B     		cmp	r3, #0
 203 0130 01D0     		beq	.L18
 178:Generated_Source\PSoC5/I2C_INT.c ****                                                         I2C_GET_MSTAT_CMPLT);
 204              		.loc 1 178 0 is_stmt 0 discriminator 1
 205 0132 0923     		movs	r3, #9
 206 0134 00E0     		b	.L19
 207              	.L18:
 178:Generated_Source\PSoC5/I2C_INT.c ****                                                         I2C_GET_MSTAT_CMPLT);
 208              		.loc 1 178 0 discriminator 2
 209 0136 0A23     		movs	r3, #10
 210              	.L19:
 178:Generated_Source\PSoC5/I2C_INT.c ****                                                         I2C_GET_MSTAT_CMPLT);
 211              		.loc 1 178 0 discriminator 4
 212 0138 DAB2     		uxtb	r2, r3
 213 013a 614B     		ldr	r3, .L35+28
 214 013c 1B78     		ldrb	r3, [r3]
 215 013e DBB2     		uxtb	r3, r3
 216 0140 1343     		orrs	r3, r3, r2
 217 0142 DAB2     		uxtb	r2, r3
 218 0144 5E4B     		ldr	r3, .L35+28
 219 0146 1A70     		strb	r2, [r3]
 181:Generated_Source\PSoC5/I2C_INT.c ****                         I2C_DisableInt();
 220              		.loc 1 181 0 is_stmt 1 discriminator 4
 221 0148 574B     		ldr	r3, .L35+4
 222 014a 6022     		movs	r2, #96
 223 014c 1A70     		strb	r2, [r3]
 182:Generated_Source\PSoC5/I2C_INT.c ****                     }
 224              		.loc 1 182 0 discriminator 4
 225 014e 5D4B     		ldr	r3, .L35+32
 226 0150 4FF40042 		mov	r2, #32768
 227 0154 1A60     		str	r2, [r3]
 228              		.loc 1 202 0 discriminator 4
 229 0156 E8E0     		b	.L3
 230              	.L17:
 186:Generated_Source\PSoC5/I2C_INT.c ****                         I2C_GENERATE_STOP;
 231              		.loc 1 186 0
 232 0158 5B4A     		ldr	r2, .L35+36
 233 015a 5B4B     		ldr	r3, .L35+36
 234 015c 1B78     		ldrb	r3, [r3]
 235 015e DBB2     		uxtb	r3, r3
ARM GAS  C:\Users\HPz420\AppData\Local\Temp\ccVry06E.s 			page 9


 236 0160 43F01003 		orr	r3, r3, #16
 237 0164 DBB2     		uxtb	r3, r3
 238 0166 1370     		strb	r3, [r2]
 187:Generated_Source\PSoC5/I2C_INT.c ****                     }
 239              		.loc 1 187 0
 240 0168 584B     		ldr	r3, .L35+40
 241 016a 1022     		movs	r2, #16
 242 016c 1A70     		strb	r2, [r3]
 243 016e 4D4B     		ldr	r3, .L35
 244 0170 0422     		movs	r2, #4
 245 0172 1A70     		strb	r2, [r3]
 246              		.loc 1 202 0
 247 0174 D9E0     		b	.L3
 248              	.L16:
 199:Generated_Source\PSoC5/I2C_INT.c ****                     #endif /* (I2C_TIMEOUT_ENABLED) */
 249              		.loc 1 199 0 discriminator 1
 250 0176 0020     		movs	r0, #0
 251 0178 FFF7FEFF 		bl	CyHalt
 252              		.loc 1 202 0 discriminator 1
 253 017c D5E0     		b	.L3
 254              	.L7:
 203:Generated_Source\PSoC5/I2C_INT.c **** 
 204:Generated_Source\PSoC5/I2C_INT.c ****             case I2C_SM_MSTR_WR_DATA:
 205:Generated_Source\PSoC5/I2C_INT.c **** 
 206:Generated_Source\PSoC5/I2C_INT.c ****                 if(I2C_CHECK_DATA_ACK(tmpCsr))
 255              		.loc 1 206 0
 256 017e FB79     		ldrb	r3, [r7, #7]	@ zero_extendqisi2
 257 0180 03F00203 		and	r3, r3, #2
 258 0184 002B     		cmp	r3, #0
 259 0186 42D1     		bne	.L21
 207:Generated_Source\PSoC5/I2C_INT.c ****                 {
 208:Generated_Source\PSoC5/I2C_INT.c ****                     /* Check if end of buffer */
 209:Generated_Source\PSoC5/I2C_INT.c ****                     if(I2C_mstrWrBufIndex  < I2C_mstrWrBufSize)
 260              		.loc 1 209 0
 261 0188 4B4B     		ldr	r3, .L35+20
 262 018a 1B78     		ldrb	r3, [r3]
 263 018c DAB2     		uxtb	r2, r3
 264 018e 474B     		ldr	r3, .L35+8
 265 0190 1B78     		ldrb	r3, [r3]
 266 0192 DBB2     		uxtb	r3, r3
 267 0194 9A42     		cmp	r2, r3
 268 0196 14D2     		bcs	.L22
 210:Generated_Source\PSoC5/I2C_INT.c ****                     {
 211:Generated_Source\PSoC5/I2C_INT.c ****                         I2C_DATA_REG =
 269              		.loc 1 211 0
 270 0198 454A     		ldr	r2, .L35+12
 212:Generated_Source\PSoC5/I2C_INT.c ****                                                  I2C_mstrWrBufPtr[I2C_mstrWrBufIndex];
 271              		.loc 1 212 0
 272 019a 464B     		ldr	r3, .L35+16
 273 019c 1B68     		ldr	r3, [r3]
 274 019e 4649     		ldr	r1, .L35+20
 275 01a0 0978     		ldrb	r1, [r1]
 276 01a2 C9B2     		uxtb	r1, r1
 277 01a4 0B44     		add	r3, r3, r1
 278 01a6 1B78     		ldrb	r3, [r3]
 279 01a8 DBB2     		uxtb	r3, r3
 211:Generated_Source\PSoC5/I2C_INT.c ****                                                  I2C_mstrWrBufPtr[I2C_mstrWrBufIndex];
ARM GAS  C:\Users\HPz420\AppData\Local\Temp\ccVry06E.s 			page 10


 280              		.loc 1 211 0
 281 01aa 1370     		strb	r3, [r2]
 213:Generated_Source\PSoC5/I2C_INT.c ****                         I2C_TRANSMIT_DATA;
 282              		.loc 1 213 0
 283 01ac 3D4B     		ldr	r3, .L35
 284 01ae 0422     		movs	r2, #4
 285 01b0 1A70     		strb	r2, [r3]
 214:Generated_Source\PSoC5/I2C_INT.c ****                         I2C_mstrWrBufIndex++;
 286              		.loc 1 214 0
 287 01b2 414B     		ldr	r3, .L35+20
 288 01b4 1B78     		ldrb	r3, [r3]
 289 01b6 DBB2     		uxtb	r3, r3
 290 01b8 0133     		adds	r3, r3, #1
 291 01ba DAB2     		uxtb	r2, r3
 292 01bc 3E4B     		ldr	r3, .L35+20
 293 01be 1A70     		strb	r2, [r3]
 215:Generated_Source\PSoC5/I2C_INT.c ****                     }
 216:Generated_Source\PSoC5/I2C_INT.c ****                     /* End of buffer: complete writing */
 217:Generated_Source\PSoC5/I2C_INT.c ****                     else if(I2C_CHECK_NO_STOP(I2C_mstrControl))
 218:Generated_Source\PSoC5/I2C_INT.c ****                     {
 219:Generated_Source\PSoC5/I2C_INT.c ****                         /* Set write complete and master halted */
 220:Generated_Source\PSoC5/I2C_INT.c ****                         I2C_mstrStatus |= (I2C_MSTAT_XFER_HALT |
 221:Generated_Source\PSoC5/I2C_INT.c ****                                                         I2C_MSTAT_WR_CMPLT);
 222:Generated_Source\PSoC5/I2C_INT.c **** 
 223:Generated_Source\PSoC5/I2C_INT.c ****                         I2C_state = I2C_SM_MSTR_HALT;    /* Expect restart */
 224:Generated_Source\PSoC5/I2C_INT.c ****                         I2C_DisableInt();
 225:Generated_Source\PSoC5/I2C_INT.c ****                     }
 226:Generated_Source\PSoC5/I2C_INT.c ****                     else  /* Do normal Stop */
 227:Generated_Source\PSoC5/I2C_INT.c ****                     {
 228:Generated_Source\PSoC5/I2C_INT.c ****                         I2C_ENABLE_INT_ON_STOP;    /* Enable interrupt on Stop, to catch it */
 229:Generated_Source\PSoC5/I2C_INT.c ****                         I2C_GENERATE_STOP;
 230:Generated_Source\PSoC5/I2C_INT.c ****                     }
 231:Generated_Source\PSoC5/I2C_INT.c ****                 }
 232:Generated_Source\PSoC5/I2C_INT.c ****                 /* Last byte NAKed: end writing */
 233:Generated_Source\PSoC5/I2C_INT.c ****                 else if(I2C_CHECK_NO_STOP(I2C_mstrControl))
 234:Generated_Source\PSoC5/I2C_INT.c ****                 {
 235:Generated_Source\PSoC5/I2C_INT.c ****                     /* Set write complete, short transfer and master halted */
 236:Generated_Source\PSoC5/I2C_INT.c ****                     I2C_mstrStatus |= (I2C_MSTAT_ERR_XFER       |
 237:Generated_Source\PSoC5/I2C_INT.c ****                                                     I2C_MSTAT_ERR_SHORT_XFER |
 238:Generated_Source\PSoC5/I2C_INT.c ****                                                     I2C_MSTAT_XFER_HALT      |
 239:Generated_Source\PSoC5/I2C_INT.c ****                                                     I2C_MSTAT_WR_CMPLT);
 240:Generated_Source\PSoC5/I2C_INT.c **** 
 241:Generated_Source\PSoC5/I2C_INT.c ****                     I2C_state = I2C_SM_MSTR_HALT;    /* Expect ReStart */
 242:Generated_Source\PSoC5/I2C_INT.c ****                     I2C_DisableInt();
 243:Generated_Source\PSoC5/I2C_INT.c ****                 }
 244:Generated_Source\PSoC5/I2C_INT.c ****                 else  /* Do normal Stop */
 245:Generated_Source\PSoC5/I2C_INT.c ****                 {
 246:Generated_Source\PSoC5/I2C_INT.c ****                     I2C_ENABLE_INT_ON_STOP;    /* Enable interrupt on Stop, to catch it */
 247:Generated_Source\PSoC5/I2C_INT.c ****                     I2C_GENERATE_STOP;
 248:Generated_Source\PSoC5/I2C_INT.c **** 
 249:Generated_Source\PSoC5/I2C_INT.c ****                     /* Set short transfer and error flag */
 250:Generated_Source\PSoC5/I2C_INT.c ****                     I2C_mstrStatus |= (I2C_MSTAT_ERR_SHORT_XFER |
 251:Generated_Source\PSoC5/I2C_INT.c ****                                                     I2C_MSTAT_ERR_XFER);
 252:Generated_Source\PSoC5/I2C_INT.c ****                 }
 253:Generated_Source\PSoC5/I2C_INT.c **** 
 254:Generated_Source\PSoC5/I2C_INT.c ****                 break;
 294              		.loc 1 254 0
ARM GAS  C:\Users\HPz420\AppData\Local\Temp\ccVry06E.s 			page 11


 295 01c0 B3E0     		b	.L3
 296              	.L22:
 217:Generated_Source\PSoC5/I2C_INT.c ****                     {
 297              		.loc 1 217 0
 298 01c2 3E4B     		ldr	r3, .L35+24
 299 01c4 1B78     		ldrb	r3, [r3]
 300 01c6 DBB2     		uxtb	r3, r3
 301 01c8 03F00203 		and	r3, r3, #2
 302 01cc 002B     		cmp	r3, #0
 303 01ce 0FD0     		beq	.L24
 220:Generated_Source\PSoC5/I2C_INT.c ****                                                         I2C_MSTAT_WR_CMPLT);
 304              		.loc 1 220 0
 305 01d0 3B4B     		ldr	r3, .L35+28
 306 01d2 1B78     		ldrb	r3, [r3]
 307 01d4 DBB2     		uxtb	r3, r3
 308 01d6 43F00A03 		orr	r3, r3, #10
 309 01da DAB2     		uxtb	r2, r3
 310 01dc 384B     		ldr	r3, .L35+28
 311 01de 1A70     		strb	r2, [r3]
 223:Generated_Source\PSoC5/I2C_INT.c ****                         I2C_DisableInt();
 312              		.loc 1 223 0
 313 01e0 314B     		ldr	r3, .L35+4
 314 01e2 6022     		movs	r2, #96
 315 01e4 1A70     		strb	r2, [r3]
 224:Generated_Source\PSoC5/I2C_INT.c ****                     }
 316              		.loc 1 224 0
 317 01e6 374B     		ldr	r3, .L35+32
 318 01e8 4FF40042 		mov	r2, #32768
 319 01ec 1A60     		str	r2, [r3]
 320              		.loc 1 254 0
 321 01ee 9CE0     		b	.L3
 322              	.L24:
 228:Generated_Source\PSoC5/I2C_INT.c ****                         I2C_GENERATE_STOP;
 323              		.loc 1 228 0
 324 01f0 354A     		ldr	r2, .L35+36
 325 01f2 354B     		ldr	r3, .L35+36
 326 01f4 1B78     		ldrb	r3, [r3]
 327 01f6 DBB2     		uxtb	r3, r3
 328 01f8 43F01003 		orr	r3, r3, #16
 329 01fc DBB2     		uxtb	r3, r3
 330 01fe 1370     		strb	r3, [r2]
 229:Generated_Source\PSoC5/I2C_INT.c ****                     }
 331              		.loc 1 229 0
 332 0200 324B     		ldr	r3, .L35+40
 333 0202 1022     		movs	r2, #16
 334 0204 1A70     		strb	r2, [r3]
 335 0206 274B     		ldr	r3, .L35
 336 0208 0422     		movs	r2, #4
 337 020a 1A70     		strb	r2, [r3]
 338              		.loc 1 254 0
 339 020c 8DE0     		b	.L3
 340              	.L21:
 233:Generated_Source\PSoC5/I2C_INT.c ****                 {
 341              		.loc 1 233 0
 342 020e 2B4B     		ldr	r3, .L35+24
 343 0210 1B78     		ldrb	r3, [r3]
 344 0212 DBB2     		uxtb	r3, r3
ARM GAS  C:\Users\HPz420\AppData\Local\Temp\ccVry06E.s 			page 12


 345 0214 03F00203 		and	r3, r3, #2
 346 0218 002B     		cmp	r3, #0
 347 021a 0FD0     		beq	.L26
 236:Generated_Source\PSoC5/I2C_INT.c ****                                                     I2C_MSTAT_ERR_SHORT_XFER |
 348              		.loc 1 236 0
 349 021c 284B     		ldr	r3, .L35+28
 350 021e 1B78     		ldrb	r3, [r3]
 351 0220 DBB2     		uxtb	r3, r3
 352 0222 63F06503 		orn	r3, r3, #101
 353 0226 DAB2     		uxtb	r2, r3
 354 0228 254B     		ldr	r3, .L35+28
 355 022a 1A70     		strb	r2, [r3]
 241:Generated_Source\PSoC5/I2C_INT.c ****                     I2C_DisableInt();
 356              		.loc 1 241 0
 357 022c 1E4B     		ldr	r3, .L35+4
 358 022e 6022     		movs	r2, #96
 359 0230 1A70     		strb	r2, [r3]
 242:Generated_Source\PSoC5/I2C_INT.c ****                 }
 360              		.loc 1 242 0
 361 0232 244B     		ldr	r3, .L35+32
 362 0234 4FF40042 		mov	r2, #32768
 363 0238 1A60     		str	r2, [r3]
 364              		.loc 1 254 0
 365 023a 76E0     		b	.L3
 366              	.L26:
 246:Generated_Source\PSoC5/I2C_INT.c ****                     I2C_GENERATE_STOP;
 367              		.loc 1 246 0
 368 023c 224A     		ldr	r2, .L35+36
 369 023e 224B     		ldr	r3, .L35+36
 370 0240 1B78     		ldrb	r3, [r3]
 371 0242 DBB2     		uxtb	r3, r3
 372 0244 43F01003 		orr	r3, r3, #16
 373 0248 DBB2     		uxtb	r3, r3
 374 024a 1370     		strb	r3, [r2]
 247:Generated_Source\PSoC5/I2C_INT.c **** 
 375              		.loc 1 247 0
 376 024c 1F4B     		ldr	r3, .L35+40
 377 024e 1022     		movs	r2, #16
 378 0250 1A70     		strb	r2, [r3]
 379 0252 144B     		ldr	r3, .L35
 380 0254 0422     		movs	r2, #4
 381 0256 1A70     		strb	r2, [r3]
 250:Generated_Source\PSoC5/I2C_INT.c ****                                                     I2C_MSTAT_ERR_XFER);
 382              		.loc 1 250 0
 383 0258 194B     		ldr	r3, .L35+28
 384 025a 1B78     		ldrb	r3, [r3]
 385 025c DBB2     		uxtb	r3, r3
 386 025e 63F06F03 		orn	r3, r3, #111
 387 0262 DAB2     		uxtb	r2, r3
 388 0264 164B     		ldr	r3, .L35+28
 389 0266 1A70     		strb	r2, [r3]
 390              		.loc 1 254 0
 391 0268 5FE0     		b	.L3
 392              	.L8:
 255:Generated_Source\PSoC5/I2C_INT.c **** 
 256:Generated_Source\PSoC5/I2C_INT.c ****             case I2C_SM_MSTR_RD_DATA:
 257:Generated_Source\PSoC5/I2C_INT.c **** 
ARM GAS  C:\Users\HPz420\AppData\Local\Temp\ccVry06E.s 			page 13


 258:Generated_Source\PSoC5/I2C_INT.c ****                 I2C_mstrRdBufPtr[I2C_mstrRdBufIndex] = I2C_DATA_REG;
 393              		.loc 1 258 0
 394 026a 194B     		ldr	r3, .L35+44
 395 026c 1B68     		ldr	r3, [r3]
 396 026e 194A     		ldr	r2, .L35+48
 397 0270 1278     		ldrb	r2, [r2]
 398 0272 D2B2     		uxtb	r2, r2
 399 0274 1344     		add	r3, r3, r2
 400 0276 0E4A     		ldr	r2, .L35+12
 401 0278 1278     		ldrb	r2, [r2]
 402 027a D2B2     		uxtb	r2, r2
 403 027c 1A70     		strb	r2, [r3]
 259:Generated_Source\PSoC5/I2C_INT.c ****                 I2C_mstrRdBufIndex++;
 404              		.loc 1 259 0
 405 027e 154B     		ldr	r3, .L35+48
 406 0280 1B78     		ldrb	r3, [r3]
 407 0282 DBB2     		uxtb	r3, r3
 408 0284 0133     		adds	r3, r3, #1
 409 0286 DAB2     		uxtb	r2, r3
 410 0288 124B     		ldr	r3, .L35+48
 411 028a 1A70     		strb	r2, [r3]
 260:Generated_Source\PSoC5/I2C_INT.c **** 
 261:Generated_Source\PSoC5/I2C_INT.c ****                 /* Check if end of buffer */
 262:Generated_Source\PSoC5/I2C_INT.c ****                 if(I2C_mstrRdBufIndex < I2C_mstrRdBufSize)
 412              		.loc 1 262 0
 413 028c 114B     		ldr	r3, .L35+48
 414 028e 1B78     		ldrb	r3, [r3]
 415 0290 DAB2     		uxtb	r2, r3
 416 0292 114B     		ldr	r3, .L35+52
 417 0294 1B78     		ldrb	r3, [r3]
 418 0296 DBB2     		uxtb	r3, r3
 419 0298 9A42     		cmp	r2, r3
 420 029a 1FD2     		bcs	.L27
 263:Generated_Source\PSoC5/I2C_INT.c ****                 {
 264:Generated_Source\PSoC5/I2C_INT.c ****                     I2C_ACK_AND_RECEIVE;       /* ACK and receive byte */
 421              		.loc 1 264 0
 422 029c 014B     		ldr	r3, .L35
 423 029e 1022     		movs	r2, #16
 424 02a0 1A70     		strb	r2, [r3]
 265:Generated_Source\PSoC5/I2C_INT.c ****                 }
 266:Generated_Source\PSoC5/I2C_INT.c ****                 /* End of buffer: complete reading */
 267:Generated_Source\PSoC5/I2C_INT.c ****                 else if(I2C_CHECK_NO_STOP(I2C_mstrControl))
 268:Generated_Source\PSoC5/I2C_INT.c ****                 {
 269:Generated_Source\PSoC5/I2C_INT.c ****                     /* Set read complete and master halted */
 270:Generated_Source\PSoC5/I2C_INT.c ****                     I2C_mstrStatus |= (I2C_MSTAT_XFER_HALT |
 271:Generated_Source\PSoC5/I2C_INT.c ****                                                     I2C_MSTAT_RD_CMPLT);
 272:Generated_Source\PSoC5/I2C_INT.c **** 
 273:Generated_Source\PSoC5/I2C_INT.c ****                     I2C_state = I2C_SM_MSTR_HALT;    /* Expect ReStart */
 274:Generated_Source\PSoC5/I2C_INT.c ****                     I2C_DisableInt();
 275:Generated_Source\PSoC5/I2C_INT.c ****                 }
 276:Generated_Source\PSoC5/I2C_INT.c ****                 else
 277:Generated_Source\PSoC5/I2C_INT.c ****                 {
 278:Generated_Source\PSoC5/I2C_INT.c ****                     I2C_ENABLE_INT_ON_STOP;
 279:Generated_Source\PSoC5/I2C_INT.c ****                     I2C_NAK_AND_RECEIVE;       /* NACK and TRY to generate Stop */
 280:Generated_Source\PSoC5/I2C_INT.c ****                 }
 281:Generated_Source\PSoC5/I2C_INT.c ****                 break;
 425              		.loc 1 281 0
ARM GAS  C:\Users\HPz420\AppData\Local\Temp\ccVry06E.s 			page 14


 426 02a2 42E0     		b	.L3
 427              	.L36:
 428              		.align	2
 429              	.L35:
 430 02a4 D7490040 		.word	1073760727
 431 02a8 00000000 		.word	I2C_state
 432 02ac 00000000 		.word	I2C_mstrWrBufSize
 433 02b0 D8490040 		.word	1073760728
 434 02b4 00000000 		.word	I2C_mstrWrBufPtr
 435 02b8 00000000 		.word	I2C_mstrWrBufIndex
 436 02bc 00000000 		.word	I2C_mstrControl
 437 02c0 00000000 		.word	I2C_mstrStatus
 438 02c4 80E100E0 		.word	-536813184
 439 02c8 D6490040 		.word	1073760726
 440 02cc D9490040 		.word	1073760729
 441 02d0 00000000 		.word	I2C_mstrRdBufPtr
 442 02d4 00000000 		.word	I2C_mstrRdBufIndex
 443 02d8 00000000 		.word	I2C_mstrRdBufSize
 444              	.L27:
 267:Generated_Source\PSoC5/I2C_INT.c ****                 {
 445              		.loc 1 267 0
 446 02dc 2C4B     		ldr	r3, .L37
 447 02de 1B78     		ldrb	r3, [r3]
 448 02e0 DBB2     		uxtb	r3, r3
 449 02e2 03F00203 		and	r3, r3, #2
 450 02e6 002B     		cmp	r3, #0
 451 02e8 0FD0     		beq	.L29
 270:Generated_Source\PSoC5/I2C_INT.c ****                                                     I2C_MSTAT_RD_CMPLT);
 452              		.loc 1 270 0
 453 02ea 2A4B     		ldr	r3, .L37+4
 454 02ec 1B78     		ldrb	r3, [r3]
 455 02ee DBB2     		uxtb	r3, r3
 456 02f0 43F00903 		orr	r3, r3, #9
 457 02f4 DAB2     		uxtb	r2, r3
 458 02f6 274B     		ldr	r3, .L37+4
 459 02f8 1A70     		strb	r2, [r3]
 273:Generated_Source\PSoC5/I2C_INT.c ****                     I2C_DisableInt();
 460              		.loc 1 273 0
 461 02fa 274B     		ldr	r3, .L37+8
 462 02fc 6022     		movs	r2, #96
 463 02fe 1A70     		strb	r2, [r3]
 274:Generated_Source\PSoC5/I2C_INT.c ****                 }
 464              		.loc 1 274 0
 465 0300 264B     		ldr	r3, .L37+12
 466 0302 4FF40042 		mov	r2, #32768
 467 0306 1A60     		str	r2, [r3]
 468              		.loc 1 281 0
 469 0308 0FE0     		b	.L3
 470              	.L29:
 278:Generated_Source\PSoC5/I2C_INT.c ****                     I2C_NAK_AND_RECEIVE;       /* NACK and TRY to generate Stop */
 471              		.loc 1 278 0
 472 030a 254A     		ldr	r2, .L37+16
 473 030c 244B     		ldr	r3, .L37+16
 474 030e 1B78     		ldrb	r3, [r3]
 475 0310 DBB2     		uxtb	r3, r3
 476 0312 43F01003 		orr	r3, r3, #16
 477 0316 DBB2     		uxtb	r3, r3
ARM GAS  C:\Users\HPz420\AppData\Local\Temp\ccVry06E.s 			page 15


 478 0318 1370     		strb	r3, [r2]
 279:Generated_Source\PSoC5/I2C_INT.c ****                 }
 479              		.loc 1 279 0
 480 031a 224B     		ldr	r3, .L37+20
 481 031c 0022     		movs	r2, #0
 482 031e 1A70     		strb	r2, [r3]
 483              		.loc 1 281 0
 484 0320 03E0     		b	.L3
 485              	.L4:
 282:Generated_Source\PSoC5/I2C_INT.c **** 
 283:Generated_Source\PSoC5/I2C_INT.c ****             default: /* This is an invalid state and should not occur */
 284:Generated_Source\PSoC5/I2C_INT.c **** 
 285:Generated_Source\PSoC5/I2C_INT.c ****             #if(I2C_TIMEOUT_ENABLED)
 286:Generated_Source\PSoC5/I2C_INT.c ****                 /* Exit interrupt to take chance for timeout timer to handles this case */
 287:Generated_Source\PSoC5/I2C_INT.c ****                 I2C_DisableInt();
 288:Generated_Source\PSoC5/I2C_INT.c ****                 I2C_ClearPendingInt();
 289:Generated_Source\PSoC5/I2C_INT.c ****             #else
 290:Generated_Source\PSoC5/I2C_INT.c ****                 /* Block execution flow: unexpected condition */
 291:Generated_Source\PSoC5/I2C_INT.c ****                 CYASSERT(0u != 0u);
 486              		.loc 1 291 0
 487 0322 0020     		movs	r0, #0
 488 0324 FFF7FEFF 		bl	CyHalt
 292:Generated_Source\PSoC5/I2C_INT.c ****             #endif /* (I2C_TIMEOUT_ENABLED) */
 293:Generated_Source\PSoC5/I2C_INT.c **** 
 294:Generated_Source\PSoC5/I2C_INT.c ****                 break;
 489              		.loc 1 294 0
 490 0328 00BF     		nop
 491              	.L3:
 295:Generated_Source\PSoC5/I2C_INT.c ****             }
 296:Generated_Source\PSoC5/I2C_INT.c ****         }
 297:Generated_Source\PSoC5/I2C_INT.c **** 
 298:Generated_Source\PSoC5/I2C_INT.c ****         /* Catches Stop: end of transaction */
 299:Generated_Source\PSoC5/I2C_INT.c ****         if(I2C_CHECK_STOP_STS(tmpCsr))
 492              		.loc 1 299 0
 493 032a FB79     		ldrb	r3, [r7, #7]	@ zero_extendqisi2
 494 032c 03F02003 		and	r3, r3, #32
 495 0330 002B     		cmp	r3, #0
 496 0332 28D0     		beq	.L34
 300:Generated_Source\PSoC5/I2C_INT.c ****         {
 301:Generated_Source\PSoC5/I2C_INT.c ****             I2C_mstrStatus |= I2C_GET_MSTAT_CMPLT;
 497              		.loc 1 301 0
 498 0334 184B     		ldr	r3, .L37+8
 499 0336 1B78     		ldrb	r3, [r3]
 500 0338 DBB2     		uxtb	r3, r3
 501 033a 03F00803 		and	r3, r3, #8
 502 033e 002B     		cmp	r3, #0
 503 0340 01D0     		beq	.L31
 504              		.loc 1 301 0 is_stmt 0 discriminator 1
 505 0342 0123     		movs	r3, #1
 506 0344 00E0     		b	.L32
 507              	.L31:
 508              		.loc 1 301 0 discriminator 2
 509 0346 0223     		movs	r3, #2
 510              	.L32:
 511              		.loc 1 301 0 discriminator 4
 512 0348 DAB2     		uxtb	r2, r3
 513 034a 124B     		ldr	r3, .L37+4
ARM GAS  C:\Users\HPz420\AppData\Local\Temp\ccVry06E.s 			page 16


 514 034c 1B78     		ldrb	r3, [r3]
 515 034e DBB2     		uxtb	r3, r3
 516 0350 1343     		orrs	r3, r3, r2
 517 0352 DAB2     		uxtb	r2, r3
 518 0354 0F4B     		ldr	r3, .L37+4
 519 0356 1A70     		strb	r2, [r3]
 302:Generated_Source\PSoC5/I2C_INT.c **** 
 303:Generated_Source\PSoC5/I2C_INT.c ****             I2C_DISABLE_INT_ON_STOP;
 520              		.loc 1 303 0 is_stmt 1 discriminator 4
 521 0358 114A     		ldr	r2, .L37+16
 522 035a 114B     		ldr	r3, .L37+16
 523 035c 1B78     		ldrb	r3, [r3]
 524 035e DBB2     		uxtb	r3, r3
 525 0360 23F01003 		bic	r3, r3, #16
 526 0364 DBB2     		uxtb	r3, r3
 527 0366 1370     		strb	r3, [r2]
 304:Generated_Source\PSoC5/I2C_INT.c ****             I2C_state = I2C_SM_IDLE;
 528              		.loc 1 304 0 discriminator 4
 529 0368 0B4B     		ldr	r3, .L37+8
 530 036a 1022     		movs	r2, #16
 531 036c 1A70     		strb	r2, [r3]
 305:Generated_Source\PSoC5/I2C_INT.c ****         }
 306:Generated_Source\PSoC5/I2C_INT.c ****     #endif /* (I2C_MODE_MASTER_ENABLED) */
 307:Generated_Source\PSoC5/I2C_INT.c ****     }
 308:Generated_Source\PSoC5/I2C_INT.c ****     else if(I2C_CHECK_SM_SLAVE)
 309:Generated_Source\PSoC5/I2C_INT.c ****     {
 310:Generated_Source\PSoC5/I2C_INT.c ****     #if(I2C_MODE_SLAVE_ENABLED)
 311:Generated_Source\PSoC5/I2C_INT.c **** 
 312:Generated_Source\PSoC5/I2C_INT.c ****         if((I2C_CHECK_STOP_STS(tmpCsr)) || /* Stop || Restart */
 313:Generated_Source\PSoC5/I2C_INT.c ****            (I2C_CHECK_BYTE_COMPLETE(tmpCsr) && I2C_CHECK_ADDRESS_STS(tmpCsr)))
 314:Generated_Source\PSoC5/I2C_INT.c ****         {
 315:Generated_Source\PSoC5/I2C_INT.c ****             /* Catch end of master write transaction: use interrupt on Stop */
 316:Generated_Source\PSoC5/I2C_INT.c ****             /* The Stop bit history on address phase does not have correct state */
 317:Generated_Source\PSoC5/I2C_INT.c ****             if(I2C_SM_SL_WR_DATA == I2C_state)
 318:Generated_Source\PSoC5/I2C_INT.c ****             {
 319:Generated_Source\PSoC5/I2C_INT.c ****                 I2C_DISABLE_INT_ON_STOP;
 320:Generated_Source\PSoC5/I2C_INT.c **** 
 321:Generated_Source\PSoC5/I2C_INT.c ****                 I2C_slStatus &= ((uint8) ~I2C_SSTAT_WR_BUSY);
 322:Generated_Source\PSoC5/I2C_INT.c ****                 I2C_slStatus |= ((uint8)  I2C_SSTAT_WR_CMPLT);
 323:Generated_Source\PSoC5/I2C_INT.c **** 
 324:Generated_Source\PSoC5/I2C_INT.c ****                 I2C_state = I2C_SM_IDLE;
 325:Generated_Source\PSoC5/I2C_INT.c ****             }
 326:Generated_Source\PSoC5/I2C_INT.c ****         }
 327:Generated_Source\PSoC5/I2C_INT.c **** 
 328:Generated_Source\PSoC5/I2C_INT.c ****         if(I2C_CHECK_BYTE_COMPLETE(tmpCsr))
 329:Generated_Source\PSoC5/I2C_INT.c ****         {
 330:Generated_Source\PSoC5/I2C_INT.c ****             /* The address only issued after Start or ReStart: so check the address
 331:Generated_Source\PSoC5/I2C_INT.c ****                to catch these events:
 332:Generated_Source\PSoC5/I2C_INT.c ****                 FF : sets an address phase with a byte_complete interrupt trigger.
 333:Generated_Source\PSoC5/I2C_INT.c ****                 UDB: sets an address phase immediately after Start or ReStart. */
 334:Generated_Source\PSoC5/I2C_INT.c ****             if(I2C_CHECK_ADDRESS_STS(tmpCsr))
 335:Generated_Source\PSoC5/I2C_INT.c ****             {
 336:Generated_Source\PSoC5/I2C_INT.c ****             /* Check for software address detection */
 337:Generated_Source\PSoC5/I2C_INT.c ****             #if(I2C_SW_ADRR_DECODE)
 338:Generated_Source\PSoC5/I2C_INT.c ****                 tmp8 = I2C_GET_SLAVE_ADDR(I2C_DATA_REG);
 339:Generated_Source\PSoC5/I2C_INT.c **** 
 340:Generated_Source\PSoC5/I2C_INT.c ****                 if(tmp8 == I2C_slAddress)   /* Check for address match */
ARM GAS  C:\Users\HPz420\AppData\Local\Temp\ccVry06E.s 			page 17


 341:Generated_Source\PSoC5/I2C_INT.c ****                 {
 342:Generated_Source\PSoC5/I2C_INT.c ****                     if(0u != (I2C_DATA_REG & I2C_READ_FLAG))
 343:Generated_Source\PSoC5/I2C_INT.c ****                     {
 344:Generated_Source\PSoC5/I2C_INT.c ****                         /* Place code to prepare read buffer here                  */
 345:Generated_Source\PSoC5/I2C_INT.c ****                         /* `#START I2C_SW_PREPARE_READ_BUF_interrupt` */
 346:Generated_Source\PSoC5/I2C_INT.c **** 
 347:Generated_Source\PSoC5/I2C_INT.c ****                         /* `#END` */
 348:Generated_Source\PSoC5/I2C_INT.c **** 
 349:Generated_Source\PSoC5/I2C_INT.c ****                     #ifdef I2C_SW_PREPARE_READ_BUF_CALLBACK
 350:Generated_Source\PSoC5/I2C_INT.c ****                         I2C_SwPrepareReadBuf_Callback();
 351:Generated_Source\PSoC5/I2C_INT.c ****                     #endif /* I2C_SW_PREPARE_READ_BUF_CALLBACK */
 352:Generated_Source\PSoC5/I2C_INT.c ****                         
 353:Generated_Source\PSoC5/I2C_INT.c ****                         /* Prepare next operation to read, get data and place in data register */
 354:Generated_Source\PSoC5/I2C_INT.c ****                         if(I2C_slRdBufIndex < I2C_slRdBufSize)
 355:Generated_Source\PSoC5/I2C_INT.c ****                         {
 356:Generated_Source\PSoC5/I2C_INT.c ****                             /* Load first data byte from array */
 357:Generated_Source\PSoC5/I2C_INT.c ****                             I2C_DATA_REG = I2C_slRdBufPtr[I2C_slRdBufIndex];
 358:Generated_Source\PSoC5/I2C_INT.c ****                             I2C_ACK_AND_TRANSMIT;
 359:Generated_Source\PSoC5/I2C_INT.c ****                             I2C_slRdBufIndex++;
 360:Generated_Source\PSoC5/I2C_INT.c **** 
 361:Generated_Source\PSoC5/I2C_INT.c ****                             I2C_slStatus |= I2C_SSTAT_RD_BUSY;
 362:Generated_Source\PSoC5/I2C_INT.c ****                         }
 363:Generated_Source\PSoC5/I2C_INT.c ****                         else    /* Overflow: provide 0xFF on bus */
 364:Generated_Source\PSoC5/I2C_INT.c ****                         {
 365:Generated_Source\PSoC5/I2C_INT.c ****                             I2C_DATA_REG = I2C_OVERFLOW_RETURN;
 366:Generated_Source\PSoC5/I2C_INT.c ****                             I2C_ACK_AND_TRANSMIT;
 367:Generated_Source\PSoC5/I2C_INT.c **** 
 368:Generated_Source\PSoC5/I2C_INT.c ****                             I2C_slStatus  |= (I2C_SSTAT_RD_BUSY |
 369:Generated_Source\PSoC5/I2C_INT.c ****                                                            I2C_SSTAT_RD_ERR_OVFL);
 370:Generated_Source\PSoC5/I2C_INT.c ****                         }
 371:Generated_Source\PSoC5/I2C_INT.c **** 
 372:Generated_Source\PSoC5/I2C_INT.c ****                         I2C_state = I2C_SM_SL_RD_DATA;
 373:Generated_Source\PSoC5/I2C_INT.c ****                     }
 374:Generated_Source\PSoC5/I2C_INT.c ****                     else  /* Write transaction: receive 1st byte */
 375:Generated_Source\PSoC5/I2C_INT.c ****                     {
 376:Generated_Source\PSoC5/I2C_INT.c ****                         I2C_ACK_AND_RECEIVE;
 377:Generated_Source\PSoC5/I2C_INT.c ****                         I2C_state = I2C_SM_SL_WR_DATA;
 378:Generated_Source\PSoC5/I2C_INT.c **** 
 379:Generated_Source\PSoC5/I2C_INT.c ****                         I2C_slStatus |= I2C_SSTAT_WR_BUSY;
 380:Generated_Source\PSoC5/I2C_INT.c ****                         I2C_ENABLE_INT_ON_STOP;
 381:Generated_Source\PSoC5/I2C_INT.c ****                     }
 382:Generated_Source\PSoC5/I2C_INT.c ****                 }
 383:Generated_Source\PSoC5/I2C_INT.c ****                 else
 384:Generated_Source\PSoC5/I2C_INT.c ****                 {
 385:Generated_Source\PSoC5/I2C_INT.c ****                     /*     Place code to compare for additional address here    */
 386:Generated_Source\PSoC5/I2C_INT.c ****                     /* `#START I2C_SW_ADDR_COMPARE_interruptStart` */
 387:Generated_Source\PSoC5/I2C_INT.c **** 
 388:Generated_Source\PSoC5/I2C_INT.c ****                     /* `#END` */
 389:Generated_Source\PSoC5/I2C_INT.c **** 
 390:Generated_Source\PSoC5/I2C_INT.c ****                 #ifdef I2C_SW_ADDR_COMPARE_ENTRY_CALLBACK
 391:Generated_Source\PSoC5/I2C_INT.c ****                     I2C_SwAddrCompare_EntryCallback();
 392:Generated_Source\PSoC5/I2C_INT.c ****                 #endif /* I2C_SW_ADDR_COMPARE_ENTRY_CALLBACK */
 393:Generated_Source\PSoC5/I2C_INT.c ****                     
 394:Generated_Source\PSoC5/I2C_INT.c ****                     I2C_NAK_AND_RECEIVE;   /* NACK address */
 395:Generated_Source\PSoC5/I2C_INT.c **** 
 396:Generated_Source\PSoC5/I2C_INT.c ****                     /* Place code to end of condition for NACK generation here */
 397:Generated_Source\PSoC5/I2C_INT.c ****                     /* `#START I2C_SW_ADDR_COMPARE_interruptEnd`  */
ARM GAS  C:\Users\HPz420\AppData\Local\Temp\ccVry06E.s 			page 18


 398:Generated_Source\PSoC5/I2C_INT.c **** 
 399:Generated_Source\PSoC5/I2C_INT.c ****                     /* `#END` */
 400:Generated_Source\PSoC5/I2C_INT.c **** 
 401:Generated_Source\PSoC5/I2C_INT.c ****                 #ifdef I2C_SW_ADDR_COMPARE_EXIT_CALLBACK
 402:Generated_Source\PSoC5/I2C_INT.c ****                     I2C_SwAddrCompare_ExitCallback();
 403:Generated_Source\PSoC5/I2C_INT.c ****                 #endif /* I2C_SW_ADDR_COMPARE_EXIT_CALLBACK */
 404:Generated_Source\PSoC5/I2C_INT.c ****                 }
 405:Generated_Source\PSoC5/I2C_INT.c **** 
 406:Generated_Source\PSoC5/I2C_INT.c ****             #else /* (I2C_HW_ADRR_DECODE) */
 407:Generated_Source\PSoC5/I2C_INT.c **** 
 408:Generated_Source\PSoC5/I2C_INT.c ****                 if(0u != (I2C_DATA_REG & I2C_READ_FLAG))
 409:Generated_Source\PSoC5/I2C_INT.c ****                 {
 410:Generated_Source\PSoC5/I2C_INT.c ****                     /* Place code to prepare read buffer here                  */
 411:Generated_Source\PSoC5/I2C_INT.c ****                     /* `#START I2C_HW_PREPARE_READ_BUF_interrupt` */
 412:Generated_Source\PSoC5/I2C_INT.c **** 
 413:Generated_Source\PSoC5/I2C_INT.c ****                     /* `#END` */
 414:Generated_Source\PSoC5/I2C_INT.c ****                     
 415:Generated_Source\PSoC5/I2C_INT.c ****                 #ifdef I2C_HW_PREPARE_READ_BUF_CALLBACK
 416:Generated_Source\PSoC5/I2C_INT.c ****                     I2C_HwPrepareReadBuf_Callback();
 417:Generated_Source\PSoC5/I2C_INT.c ****                 #endif /* I2C_HW_PREPARE_READ_BUF_CALLBACK */
 418:Generated_Source\PSoC5/I2C_INT.c **** 
 419:Generated_Source\PSoC5/I2C_INT.c ****                     /* Prepare next operation to read, get data and place in data register */
 420:Generated_Source\PSoC5/I2C_INT.c ****                     if(I2C_slRdBufIndex < I2C_slRdBufSize)
 421:Generated_Source\PSoC5/I2C_INT.c ****                     {
 422:Generated_Source\PSoC5/I2C_INT.c ****                         /* Load first data byte from array */
 423:Generated_Source\PSoC5/I2C_INT.c ****                         I2C_DATA_REG = I2C_slRdBufPtr[I2C_slRdBufIndex];
 424:Generated_Source\PSoC5/I2C_INT.c ****                         I2C_ACK_AND_TRANSMIT;
 425:Generated_Source\PSoC5/I2C_INT.c ****                         I2C_slRdBufIndex++;
 426:Generated_Source\PSoC5/I2C_INT.c **** 
 427:Generated_Source\PSoC5/I2C_INT.c ****                         I2C_slStatus |= I2C_SSTAT_RD_BUSY;
 428:Generated_Source\PSoC5/I2C_INT.c ****                     }
 429:Generated_Source\PSoC5/I2C_INT.c ****                     else    /* Overflow: provide 0xFF on bus */
 430:Generated_Source\PSoC5/I2C_INT.c ****                     {
 431:Generated_Source\PSoC5/I2C_INT.c ****                         I2C_DATA_REG = I2C_OVERFLOW_RETURN;
 432:Generated_Source\PSoC5/I2C_INT.c ****                         I2C_ACK_AND_TRANSMIT;
 433:Generated_Source\PSoC5/I2C_INT.c **** 
 434:Generated_Source\PSoC5/I2C_INT.c ****                         I2C_slStatus  |= (I2C_SSTAT_RD_BUSY |
 435:Generated_Source\PSoC5/I2C_INT.c ****                                                        I2C_SSTAT_RD_ERR_OVFL);
 436:Generated_Source\PSoC5/I2C_INT.c ****                     }
 437:Generated_Source\PSoC5/I2C_INT.c **** 
 438:Generated_Source\PSoC5/I2C_INT.c ****                     I2C_state = I2C_SM_SL_RD_DATA;
 439:Generated_Source\PSoC5/I2C_INT.c ****                 }
 440:Generated_Source\PSoC5/I2C_INT.c ****                 else  /* Write transaction: receive 1st byte */
 441:Generated_Source\PSoC5/I2C_INT.c ****                 {
 442:Generated_Source\PSoC5/I2C_INT.c ****                     I2C_ACK_AND_RECEIVE;
 443:Generated_Source\PSoC5/I2C_INT.c ****                     I2C_state = I2C_SM_SL_WR_DATA;
 444:Generated_Source\PSoC5/I2C_INT.c **** 
 445:Generated_Source\PSoC5/I2C_INT.c ****                     I2C_slStatus |= I2C_SSTAT_WR_BUSY;
 446:Generated_Source\PSoC5/I2C_INT.c ****                     I2C_ENABLE_INT_ON_STOP;
 447:Generated_Source\PSoC5/I2C_INT.c ****                 }
 448:Generated_Source\PSoC5/I2C_INT.c **** 
 449:Generated_Source\PSoC5/I2C_INT.c ****             #endif /* (I2C_SW_ADRR_DECODE) */
 450:Generated_Source\PSoC5/I2C_INT.c ****             }
 451:Generated_Source\PSoC5/I2C_INT.c ****             /* Data states */
 452:Generated_Source\PSoC5/I2C_INT.c ****             /* Data master writes into slave */
 453:Generated_Source\PSoC5/I2C_INT.c ****             else if(I2C_state == I2C_SM_SL_WR_DATA)
 454:Generated_Source\PSoC5/I2C_INT.c ****             {
ARM GAS  C:\Users\HPz420\AppData\Local\Temp\ccVry06E.s 			page 19


 455:Generated_Source\PSoC5/I2C_INT.c ****                 if(I2C_slWrBufIndex < I2C_slWrBufSize)
 456:Generated_Source\PSoC5/I2C_INT.c ****                 {
 457:Generated_Source\PSoC5/I2C_INT.c ****                     tmp8 = I2C_DATA_REG;
 458:Generated_Source\PSoC5/I2C_INT.c ****                     I2C_ACK_AND_RECEIVE;
 459:Generated_Source\PSoC5/I2C_INT.c ****                     I2C_slWrBufPtr[I2C_slWrBufIndex] = tmp8;
 460:Generated_Source\PSoC5/I2C_INT.c ****                     I2C_slWrBufIndex++;
 461:Generated_Source\PSoC5/I2C_INT.c ****                 }
 462:Generated_Source\PSoC5/I2C_INT.c ****                 else  /* of array: complete write, send NACK */
 463:Generated_Source\PSoC5/I2C_INT.c ****                 {
 464:Generated_Source\PSoC5/I2C_INT.c ****                     I2C_NAK_AND_RECEIVE;
 465:Generated_Source\PSoC5/I2C_INT.c **** 
 466:Generated_Source\PSoC5/I2C_INT.c ****                     I2C_slStatus |= I2C_SSTAT_WR_ERR_OVFL;
 467:Generated_Source\PSoC5/I2C_INT.c ****                 }
 468:Generated_Source\PSoC5/I2C_INT.c ****             }
 469:Generated_Source\PSoC5/I2C_INT.c ****             /* Data master reads from slave */
 470:Generated_Source\PSoC5/I2C_INT.c ****             else if(I2C_state == I2C_SM_SL_RD_DATA)
 471:Generated_Source\PSoC5/I2C_INT.c ****             {
 472:Generated_Source\PSoC5/I2C_INT.c ****                 if(I2C_CHECK_DATA_ACK(tmpCsr))
 473:Generated_Source\PSoC5/I2C_INT.c ****                 {
 474:Generated_Source\PSoC5/I2C_INT.c ****                     if(I2C_slRdBufIndex < I2C_slRdBufSize)
 475:Generated_Source\PSoC5/I2C_INT.c ****                     {
 476:Generated_Source\PSoC5/I2C_INT.c ****                          /* Get data from array */
 477:Generated_Source\PSoC5/I2C_INT.c ****                         I2C_DATA_REG = I2C_slRdBufPtr[I2C_slRdBufIndex];
 478:Generated_Source\PSoC5/I2C_INT.c ****                         I2C_TRANSMIT_DATA;
 479:Generated_Source\PSoC5/I2C_INT.c ****                         I2C_slRdBufIndex++;
 480:Generated_Source\PSoC5/I2C_INT.c ****                     }
 481:Generated_Source\PSoC5/I2C_INT.c ****                     else   /* Overflow: provide 0xFF on bus */
 482:Generated_Source\PSoC5/I2C_INT.c ****                     {
 483:Generated_Source\PSoC5/I2C_INT.c ****                         I2C_DATA_REG = I2C_OVERFLOW_RETURN;
 484:Generated_Source\PSoC5/I2C_INT.c ****                         I2C_TRANSMIT_DATA;
 485:Generated_Source\PSoC5/I2C_INT.c **** 
 486:Generated_Source\PSoC5/I2C_INT.c ****                         I2C_slStatus |= I2C_SSTAT_RD_ERR_OVFL;
 487:Generated_Source\PSoC5/I2C_INT.c ****                     }
 488:Generated_Source\PSoC5/I2C_INT.c ****                 }
 489:Generated_Source\PSoC5/I2C_INT.c ****                 else  /* Last byte was NACKed: read complete */
 490:Generated_Source\PSoC5/I2C_INT.c ****                 {
 491:Generated_Source\PSoC5/I2C_INT.c ****                     /* Only NACK appears on bus */
 492:Generated_Source\PSoC5/I2C_INT.c ****                     I2C_DATA_REG = I2C_OVERFLOW_RETURN;
 493:Generated_Source\PSoC5/I2C_INT.c ****                     I2C_NAK_AND_TRANSMIT;
 494:Generated_Source\PSoC5/I2C_INT.c **** 
 495:Generated_Source\PSoC5/I2C_INT.c ****                     I2C_slStatus &= ((uint8) ~I2C_SSTAT_RD_BUSY);
 496:Generated_Source\PSoC5/I2C_INT.c ****                     I2C_slStatus |= ((uint8)  I2C_SSTAT_RD_CMPLT);
 497:Generated_Source\PSoC5/I2C_INT.c **** 
 498:Generated_Source\PSoC5/I2C_INT.c ****                     I2C_state = I2C_SM_IDLE;
 499:Generated_Source\PSoC5/I2C_INT.c ****                 }
 500:Generated_Source\PSoC5/I2C_INT.c ****             }
 501:Generated_Source\PSoC5/I2C_INT.c ****             else
 502:Generated_Source\PSoC5/I2C_INT.c ****             {
 503:Generated_Source\PSoC5/I2C_INT.c ****             #if(I2C_TIMEOUT_ENABLED)
 504:Generated_Source\PSoC5/I2C_INT.c ****                 /* Exit interrupt to take chance for timeout timer to handle this case */
 505:Generated_Source\PSoC5/I2C_INT.c ****                 I2C_DisableInt();
 506:Generated_Source\PSoC5/I2C_INT.c ****                 I2C_ClearPendingInt();
 507:Generated_Source\PSoC5/I2C_INT.c ****             #else
 508:Generated_Source\PSoC5/I2C_INT.c ****                 /* Block execution flow: unexpected condition */
 509:Generated_Source\PSoC5/I2C_INT.c ****                 CYASSERT(0u != 0u);
 510:Generated_Source\PSoC5/I2C_INT.c ****             #endif /* (I2C_TIMEOUT_ENABLED) */
 511:Generated_Source\PSoC5/I2C_INT.c ****             }
ARM GAS  C:\Users\HPz420\AppData\Local\Temp\ccVry06E.s 			page 20


 512:Generated_Source\PSoC5/I2C_INT.c ****         }
 513:Generated_Source\PSoC5/I2C_INT.c ****     #endif /* (I2C_MODE_SLAVE_ENABLED) */
 514:Generated_Source\PSoC5/I2C_INT.c ****     }
 515:Generated_Source\PSoC5/I2C_INT.c ****     else
 516:Generated_Source\PSoC5/I2C_INT.c ****     {
 517:Generated_Source\PSoC5/I2C_INT.c ****         /* The FSM skips master and slave processing: return to IDLE */
 518:Generated_Source\PSoC5/I2C_INT.c ****         I2C_state = I2C_SM_IDLE;
 519:Generated_Source\PSoC5/I2C_INT.c ****     }
 520:Generated_Source\PSoC5/I2C_INT.c **** 
 521:Generated_Source\PSoC5/I2C_INT.c **** #ifdef I2C_ISR_EXIT_CALLBACK
 522:Generated_Source\PSoC5/I2C_INT.c ****     I2C_ISR_ExitCallback();
 523:Generated_Source\PSoC5/I2C_INT.c **** #endif /* I2C_ISR_EXIT_CALLBACK */    
 524:Generated_Source\PSoC5/I2C_INT.c **** }
 532              		.loc 1 524 0 discriminator 4
 533 036e 0AE0     		b	.L34
 534              	.L2:
 308:Generated_Source\PSoC5/I2C_INT.c ****     {
 535              		.loc 1 308 0
 536 0370 094B     		ldr	r3, .L37+8
 537 0372 1B78     		ldrb	r3, [r3]
 538 0374 DBB2     		uxtb	r3, r3
 539 0376 03F01003 		and	r3, r3, #16
 540 037a DBB2     		uxtb	r3, r3
 541 037c 002B     		cmp	r3, #0
 542 037e 02D1     		bne	.L34
 518:Generated_Source\PSoC5/I2C_INT.c ****     }
 543              		.loc 1 518 0
 544 0380 054B     		ldr	r3, .L37+8
 545 0382 1022     		movs	r2, #16
 546 0384 1A70     		strb	r2, [r3]
 547              	.L34:
 548              		.loc 1 524 0
 549 0386 00BF     		nop
 550 0388 0837     		adds	r7, r7, #8
 551              		.cfi_def_cfa_offset 8
 552 038a BD46     		mov	sp, r7
 553              		.cfi_def_cfa_register 13
 554              		@ sp needed
 555 038c 80BD     		pop	{r7, pc}
 556              	.L38:
 557 038e 00BF     		.align	2
 558              	.L37:
 559 0390 00000000 		.word	I2C_mstrControl
 560 0394 00000000 		.word	I2C_mstrStatus
 561 0398 00000000 		.word	I2C_state
 562 039c 80E100E0 		.word	-536813184
 563 03a0 D6490040 		.word	1073760726
 564 03a4 D7490040 		.word	1073760727
 565              		.cfi_endproc
 566              	.LFE0:
 567              		.size	I2C_ISR, .-I2C_ISR
 568              		.text
 569              	.Letext0:
 570              		.file 2 "Generated_Source\\PSoC5\\cytypes.h"
 571              		.file 3 "Generated_Source\\PSoC5\\I2C_PVT.h"
 572              		.section	.debug_info,"",%progbits
 573              	.Ldebug_info0:
ARM GAS  C:\Users\HPz420\AppData\Local\Temp\ccVry06E.s 			page 21


 574 0000 52010000 		.4byte	0x152
 575 0004 0400     		.2byte	0x4
 576 0006 00000000 		.4byte	.Ldebug_abbrev0
 577 000a 04       		.byte	0x4
 578 000b 01       		.uleb128 0x1
 579 000c 0D000000 		.4byte	.LASF27
 580 0010 0C       		.byte	0xc
 581 0011 2A020000 		.4byte	.LASF28
 582 0015 1F010000 		.4byte	.LASF29
 583 0019 00000000 		.4byte	.Ldebug_ranges0+0
 584 001d 00000000 		.4byte	0
 585 0021 00000000 		.4byte	.Ldebug_line0
 586 0025 02       		.uleb128 0x2
 587 0026 01       		.byte	0x1
 588 0027 06       		.byte	0x6
 589 0028 D8000000 		.4byte	.LASF0
 590 002c 02       		.uleb128 0x2
 591 002d 01       		.byte	0x1
 592 002e 08       		.byte	0x8
 593 002f E4000000 		.4byte	.LASF1
 594 0033 02       		.uleb128 0x2
 595 0034 02       		.byte	0x2
 596 0035 05       		.byte	0x5
 597 0036 EF010000 		.4byte	.LASF2
 598 003a 02       		.uleb128 0x2
 599 003b 02       		.byte	0x2
 600 003c 07       		.byte	0x7
 601 003d AC000000 		.4byte	.LASF3
 602 0041 02       		.uleb128 0x2
 603 0042 04       		.byte	0x4
 604 0043 05       		.byte	0x5
 605 0044 21020000 		.4byte	.LASF4
 606 0048 02       		.uleb128 0x2
 607 0049 04       		.byte	0x4
 608 004a 07       		.byte	0x7
 609 004b 07010000 		.4byte	.LASF5
 610 004f 02       		.uleb128 0x2
 611 0050 08       		.byte	0x8
 612 0051 05       		.byte	0x5
 613 0052 DC010000 		.4byte	.LASF6
 614 0056 02       		.uleb128 0x2
 615 0057 08       		.byte	0x8
 616 0058 07       		.byte	0x7
 617 0059 BC010000 		.4byte	.LASF7
 618 005d 03       		.uleb128 0x3
 619 005e 04       		.byte	0x4
 620 005f 05       		.byte	0x5
 621 0060 696E7400 		.ascii	"int\000"
 622 0064 02       		.uleb128 0x2
 623 0065 04       		.byte	0x4
 624 0066 07       		.byte	0x7
 625 0067 AF010000 		.4byte	.LASF8
 626 006b 04       		.uleb128 0x4
 627 006c 19010000 		.4byte	.LASF9
 628 0070 02       		.byte	0x2
 629 0071 E401     		.2byte	0x1e4
 630 0073 2C000000 		.4byte	0x2c
ARM GAS  C:\Users\HPz420\AppData\Local\Temp\ccVry06E.s 			page 22


 631 0077 04       		.uleb128 0x4
 632 0078 96010000 		.4byte	.LASF10
 633 007c 02       		.byte	0x2
 634 007d E601     		.2byte	0x1e6
 635 007f 48000000 		.4byte	0x48
 636 0083 02       		.uleb128 0x2
 637 0084 04       		.byte	0x4
 638 0085 04       		.byte	0x4
 639 0086 D2000000 		.4byte	.LASF11
 640 008a 02       		.uleb128 0x2
 641 008b 08       		.byte	0x8
 642 008c 04       		.byte	0x4
 643 008d 8F010000 		.4byte	.LASF12
 644 0091 02       		.uleb128 0x2
 645 0092 01       		.byte	0x1
 646 0093 08       		.byte	0x8
 647 0094 EA010000 		.4byte	.LASF13
 648 0098 04       		.uleb128 0x4
 649 0099 F2000000 		.4byte	.LASF14
 650 009d 02       		.byte	0x2
 651 009e 8E02     		.2byte	0x28e
 652 00a0 A4000000 		.4byte	0xa4
 653 00a4 05       		.uleb128 0x5
 654 00a5 6B000000 		.4byte	0x6b
 655 00a9 04       		.uleb128 0x4
 656 00aa 07000000 		.4byte	.LASF15
 657 00ae 02       		.byte	0x2
 658 00af 9002     		.2byte	0x290
 659 00b1 B5000000 		.4byte	0xb5
 660 00b5 05       		.uleb128 0x5
 661 00b6 77000000 		.4byte	0x77
 662 00ba 02       		.uleb128 0x2
 663 00bb 08       		.byte	0x8
 664 00bc 04       		.byte	0x4
 665 00bd 4B020000 		.4byte	.LASF16
 666 00c1 02       		.uleb128 0x2
 667 00c2 04       		.byte	0x4
 668 00c3 07       		.byte	0x7
 669 00c4 D3010000 		.4byte	.LASF17
 670 00c8 06       		.uleb128 0x6
 671 00c9 F9010000 		.4byte	.LASF30
 672 00cd 01       		.byte	0x1
 673 00ce 2E       		.byte	0x2e
 674 00cf 00000000 		.4byte	.LFB0
 675 00d3 A8030000 		.4byte	.LFE0-.LFB0
 676 00d7 01       		.uleb128 0x1
 677 00d8 9C       		.byte	0x9c
 678 00d9 EC000000 		.4byte	0xec
 679 00dd 07       		.uleb128 0x7
 680 00de 00000000 		.4byte	.LASF31
 681 00e2 01       		.byte	0x1
 682 00e3 34       		.byte	0x34
 683 00e4 6B000000 		.4byte	0x6b
 684 00e8 02       		.uleb128 0x2
 685 00e9 91       		.byte	0x91
 686 00ea 77       		.sleb128 -9
 687 00eb 00       		.byte	0
ARM GAS  C:\Users\HPz420\AppData\Local\Temp\ccVry06E.s 			page 23


 688 00ec 08       		.uleb128 0x8
 689 00ed 57020000 		.4byte	.LASF18
 690 00f1 03       		.byte	0x3
 691 00f2 23       		.byte	0x23
 692 00f3 A4000000 		.4byte	0xa4
 693 00f7 08       		.uleb128 0x8
 694 00f8 01020000 		.4byte	.LASF19
 695 00fc 03       		.byte	0x3
 696 00fd 27       		.byte	0x27
 697 00fe A4000000 		.4byte	0xa4
 698 0102 08       		.uleb128 0x8
 699 0103 F7000000 		.4byte	.LASF20
 700 0107 03       		.byte	0x3
 701 0108 28       		.byte	0x28
 702 0109 A4000000 		.4byte	0xa4
 703 010d 08       		.uleb128 0x8
 704 010e 10020000 		.4byte	.LASF21
 705 0112 03       		.byte	0x3
 706 0113 2B       		.byte	0x2b
 707 0114 18010000 		.4byte	0x118
 708 0118 09       		.uleb128 0x9
 709 0119 04       		.byte	0x4
 710 011a A4000000 		.4byte	0xa4
 711 011e 08       		.uleb128 0x8
 712 011f 9D010000 		.4byte	.LASF22
 713 0123 03       		.byte	0x3
 714 0124 2C       		.byte	0x2c
 715 0125 A4000000 		.4byte	0xa4
 716 0129 08       		.uleb128 0x8
 717 012a BF000000 		.4byte	.LASF23
 718 012e 03       		.byte	0x3
 719 012f 2D       		.byte	0x2d
 720 0130 A4000000 		.4byte	0xa4
 721 0134 08       		.uleb128 0x8
 722 0135 9B000000 		.4byte	.LASF24
 723 0139 03       		.byte	0x3
 724 013a 30       		.byte	0x30
 725 013b 18010000 		.4byte	0x118
 726 013f 08       		.uleb128 0x8
 727 0140 74020000 		.4byte	.LASF25
 728 0144 03       		.byte	0x3
 729 0145 31       		.byte	0x31
 730 0146 A4000000 		.4byte	0xa4
 731 014a 08       		.uleb128 0x8
 732 014b 61020000 		.4byte	.LASF26
 733 014f 03       		.byte	0x3
 734 0150 32       		.byte	0x32
 735 0151 A4000000 		.4byte	0xa4
 736 0155 00       		.byte	0
 737              		.section	.debug_abbrev,"",%progbits
 738              	.Ldebug_abbrev0:
 739 0000 01       		.uleb128 0x1
 740 0001 11       		.uleb128 0x11
 741 0002 01       		.byte	0x1
 742 0003 25       		.uleb128 0x25
 743 0004 0E       		.uleb128 0xe
 744 0005 13       		.uleb128 0x13
ARM GAS  C:\Users\HPz420\AppData\Local\Temp\ccVry06E.s 			page 24


 745 0006 0B       		.uleb128 0xb
 746 0007 03       		.uleb128 0x3
 747 0008 0E       		.uleb128 0xe
 748 0009 1B       		.uleb128 0x1b
 749 000a 0E       		.uleb128 0xe
 750 000b 55       		.uleb128 0x55
 751 000c 17       		.uleb128 0x17
 752 000d 11       		.uleb128 0x11
 753 000e 01       		.uleb128 0x1
 754 000f 10       		.uleb128 0x10
 755 0010 17       		.uleb128 0x17
 756 0011 00       		.byte	0
 757 0012 00       		.byte	0
 758 0013 02       		.uleb128 0x2
 759 0014 24       		.uleb128 0x24
 760 0015 00       		.byte	0
 761 0016 0B       		.uleb128 0xb
 762 0017 0B       		.uleb128 0xb
 763 0018 3E       		.uleb128 0x3e
 764 0019 0B       		.uleb128 0xb
 765 001a 03       		.uleb128 0x3
 766 001b 0E       		.uleb128 0xe
 767 001c 00       		.byte	0
 768 001d 00       		.byte	0
 769 001e 03       		.uleb128 0x3
 770 001f 24       		.uleb128 0x24
 771 0020 00       		.byte	0
 772 0021 0B       		.uleb128 0xb
 773 0022 0B       		.uleb128 0xb
 774 0023 3E       		.uleb128 0x3e
 775 0024 0B       		.uleb128 0xb
 776 0025 03       		.uleb128 0x3
 777 0026 08       		.uleb128 0x8
 778 0027 00       		.byte	0
 779 0028 00       		.byte	0
 780 0029 04       		.uleb128 0x4
 781 002a 16       		.uleb128 0x16
 782 002b 00       		.byte	0
 783 002c 03       		.uleb128 0x3
 784 002d 0E       		.uleb128 0xe
 785 002e 3A       		.uleb128 0x3a
 786 002f 0B       		.uleb128 0xb
 787 0030 3B       		.uleb128 0x3b
 788 0031 05       		.uleb128 0x5
 789 0032 49       		.uleb128 0x49
 790 0033 13       		.uleb128 0x13
 791 0034 00       		.byte	0
 792 0035 00       		.byte	0
 793 0036 05       		.uleb128 0x5
 794 0037 35       		.uleb128 0x35
 795 0038 00       		.byte	0
 796 0039 49       		.uleb128 0x49
 797 003a 13       		.uleb128 0x13
 798 003b 00       		.byte	0
 799 003c 00       		.byte	0
 800 003d 06       		.uleb128 0x6
 801 003e 2E       		.uleb128 0x2e
ARM GAS  C:\Users\HPz420\AppData\Local\Temp\ccVry06E.s 			page 25


 802 003f 01       		.byte	0x1
 803 0040 3F       		.uleb128 0x3f
 804 0041 19       		.uleb128 0x19
 805 0042 03       		.uleb128 0x3
 806 0043 0E       		.uleb128 0xe
 807 0044 3A       		.uleb128 0x3a
 808 0045 0B       		.uleb128 0xb
 809 0046 3B       		.uleb128 0x3b
 810 0047 0B       		.uleb128 0xb
 811 0048 27       		.uleb128 0x27
 812 0049 19       		.uleb128 0x19
 813 004a 11       		.uleb128 0x11
 814 004b 01       		.uleb128 0x1
 815 004c 12       		.uleb128 0x12
 816 004d 06       		.uleb128 0x6
 817 004e 40       		.uleb128 0x40
 818 004f 18       		.uleb128 0x18
 819 0050 9642     		.uleb128 0x2116
 820 0052 19       		.uleb128 0x19
 821 0053 01       		.uleb128 0x1
 822 0054 13       		.uleb128 0x13
 823 0055 00       		.byte	0
 824 0056 00       		.byte	0
 825 0057 07       		.uleb128 0x7
 826 0058 34       		.uleb128 0x34
 827 0059 00       		.byte	0
 828 005a 03       		.uleb128 0x3
 829 005b 0E       		.uleb128 0xe
 830 005c 3A       		.uleb128 0x3a
 831 005d 0B       		.uleb128 0xb
 832 005e 3B       		.uleb128 0x3b
 833 005f 0B       		.uleb128 0xb
 834 0060 49       		.uleb128 0x49
 835 0061 13       		.uleb128 0x13
 836 0062 02       		.uleb128 0x2
 837 0063 18       		.uleb128 0x18
 838 0064 00       		.byte	0
 839 0065 00       		.byte	0
 840 0066 08       		.uleb128 0x8
 841 0067 34       		.uleb128 0x34
 842 0068 00       		.byte	0
 843 0069 03       		.uleb128 0x3
 844 006a 0E       		.uleb128 0xe
 845 006b 3A       		.uleb128 0x3a
 846 006c 0B       		.uleb128 0xb
 847 006d 3B       		.uleb128 0x3b
 848 006e 0B       		.uleb128 0xb
 849 006f 49       		.uleb128 0x49
 850 0070 13       		.uleb128 0x13
 851 0071 3F       		.uleb128 0x3f
 852 0072 19       		.uleb128 0x19
 853 0073 3C       		.uleb128 0x3c
 854 0074 19       		.uleb128 0x19
 855 0075 00       		.byte	0
 856 0076 00       		.byte	0
 857 0077 09       		.uleb128 0x9
 858 0078 0F       		.uleb128 0xf
ARM GAS  C:\Users\HPz420\AppData\Local\Temp\ccVry06E.s 			page 26


 859 0079 00       		.byte	0
 860 007a 0B       		.uleb128 0xb
 861 007b 0B       		.uleb128 0xb
 862 007c 49       		.uleb128 0x49
 863 007d 13       		.uleb128 0x13
 864 007e 00       		.byte	0
 865 007f 00       		.byte	0
 866 0080 00       		.byte	0
 867              		.section	.debug_aranges,"",%progbits
 868 0000 1C000000 		.4byte	0x1c
 869 0004 0200     		.2byte	0x2
 870 0006 00000000 		.4byte	.Ldebug_info0
 871 000a 04       		.byte	0x4
 872 000b 00       		.byte	0
 873 000c 0000     		.2byte	0
 874 000e 0000     		.2byte	0
 875 0010 00000000 		.4byte	.LFB0
 876 0014 A8030000 		.4byte	.LFE0-.LFB0
 877 0018 00000000 		.4byte	0
 878 001c 00000000 		.4byte	0
 879              		.section	.debug_ranges,"",%progbits
 880              	.Ldebug_ranges0:
 881 0000 00000000 		.4byte	.LFB0
 882 0004 A8030000 		.4byte	.LFE0
 883 0008 00000000 		.4byte	0
 884 000c 00000000 		.4byte	0
 885              		.section	.debug_line,"",%progbits
 886              	.Ldebug_line0:
 887 0000 37010000 		.section	.debug_str,"MS",%progbits,1
 887      02005100 
 887      00000201 
 887      FB0E0D00 
 887      01010101 
 888              	.LASF31:
 889 0000 746D7043 		.ascii	"tmpCsr\000"
 889      737200
 890              	.LASF15:
 891 0007 72656733 		.ascii	"reg32\000"
 891      3200
 892              	.LASF27:
 893 000d 474E5520 		.ascii	"GNU C11 5.4.1 20160609 (release) [ARM/embedded-5-br"
 893      43313120 
 893      352E342E 
 893      31203230 
 893      31363036 
 894 0040 616E6368 		.ascii	"anch revision 237715] -mcpu=cortex-m3 -mthumb -g -O"
 894      20726576 
 894      6973696F 
 894      6E203233 
 894      37373135 
 895 0073 30202D66 		.ascii	"0 -ffunction-sections -ffat-lto-objects\000"
 895      66756E63 
 895      74696F6E 
 895      2D736563 
 895      74696F6E 
 896              	.LASF24:
 897 009b 4932435F 		.ascii	"I2C_mstrWrBufPtr\000"
ARM GAS  C:\Users\HPz420\AppData\Local\Temp\ccVry06E.s 			page 27


 897      6D737472 
 897      57724275 
 897      66507472 
 897      00
 898              	.LASF3:
 899 00ac 73686F72 		.ascii	"short unsigned int\000"
 899      7420756E 
 899      7369676E 
 899      65642069 
 899      6E7400
 900              	.LASF23:
 901 00bf 4932435F 		.ascii	"I2C_mstrRdBufIndex\000"
 901      6D737472 
 901      52644275 
 901      66496E64 
 901      657800
 902              	.LASF11:
 903 00d2 666C6F61 		.ascii	"float\000"
 903      7400
 904              	.LASF0:
 905 00d8 7369676E 		.ascii	"signed char\000"
 905      65642063 
 905      68617200 
 906              	.LASF1:
 907 00e4 756E7369 		.ascii	"unsigned char\000"
 907      676E6564 
 907      20636861 
 907      7200
 908              	.LASF14:
 909 00f2 72656738 		.ascii	"reg8\000"
 909      00
 910              	.LASF20:
 911 00f7 4932435F 		.ascii	"I2C_mstrControl\000"
 911      6D737472 
 911      436F6E74 
 911      726F6C00 
 912              	.LASF5:
 913 0107 6C6F6E67 		.ascii	"long unsigned int\000"
 913      20756E73 
 913      69676E65 
 913      6420696E 
 913      7400
 914              	.LASF9:
 915 0119 75696E74 		.ascii	"uint8\000"
 915      3800
 916              	.LASF29:
 917 011f 433A5C55 		.ascii	"C:\\Users\\HPz420\\Documents\\GitHub\\Retro-Compute"
 917      73657273 
 917      5C48507A 
 917      3432305C 
 917      446F6375 
 918 014d 72735C5A 		.ascii	"rs\\Z80\\PSOC\\PSOC_Design_Files\\FrontPanelI2CIO8\\"
 918      38305C50 
 918      534F435C 
 918      50534F43 
 918      5F446573 
 919 017c 55534246 		.ascii	"USBFS_UART01.cydsn\000"
ARM GAS  C:\Users\HPz420\AppData\Local\Temp\ccVry06E.s 			page 28


 919      535F5541 
 919      52543031 
 919      2E637964 
 919      736E00
 920              	.LASF12:
 921 018f 646F7562 		.ascii	"double\000"
 921      6C6500
 922              	.LASF10:
 923 0196 75696E74 		.ascii	"uint32\000"
 923      333200
 924              	.LASF22:
 925 019d 4932435F 		.ascii	"I2C_mstrRdBufSize\000"
 925      6D737472 
 925      52644275 
 925      6653697A 
 925      6500
 926              	.LASF8:
 927 01af 756E7369 		.ascii	"unsigned int\000"
 927      676E6564 
 927      20696E74 
 927      00
 928              	.LASF7:
 929 01bc 6C6F6E67 		.ascii	"long long unsigned int\000"
 929      206C6F6E 
 929      6720756E 
 929      7369676E 
 929      65642069 
 930              	.LASF17:
 931 01d3 73697A65 		.ascii	"sizetype\000"
 931      74797065 
 931      00
 932              	.LASF6:
 933 01dc 6C6F6E67 		.ascii	"long long int\000"
 933      206C6F6E 
 933      6720696E 
 933      7400
 934              	.LASF13:
 935 01ea 63686172 		.ascii	"char\000"
 935      00
 936              	.LASF2:
 937 01ef 73686F72 		.ascii	"short int\000"
 937      7420696E 
 937      7400
 938              	.LASF30:
 939 01f9 4932435F 		.ascii	"I2C_ISR\000"
 939      49535200 
 940              	.LASF19:
 941 0201 4932435F 		.ascii	"I2C_mstrStatus\000"
 941      6D737472 
 941      53746174 
 941      757300
 942              	.LASF21:
 943 0210 4932435F 		.ascii	"I2C_mstrRdBufPtr\000"
 943      6D737472 
 943      52644275 
 943      66507472 
 943      00
ARM GAS  C:\Users\HPz420\AppData\Local\Temp\ccVry06E.s 			page 29


 944              	.LASF4:
 945 0221 6C6F6E67 		.ascii	"long int\000"
 945      20696E74 
 945      00
 946              	.LASF28:
 947 022a 47656E65 		.ascii	"Generated_Source\\PSoC5\\I2C_INT.c\000"
 947      72617465 
 947      645F536F 
 947      75726365 
 947      5C50536F 
 948              	.LASF16:
 949 024b 6C6F6E67 		.ascii	"long double\000"
 949      20646F75 
 949      626C6500 
 950              	.LASF18:
 951 0257 4932435F 		.ascii	"I2C_state\000"
 951      73746174 
 951      6500
 952              	.LASF26:
 953 0261 4932435F 		.ascii	"I2C_mstrWrBufIndex\000"
 953      6D737472 
 953      57724275 
 953      66496E64 
 953      657800
 954              	.LASF25:
 955 0274 4932435F 		.ascii	"I2C_mstrWrBufSize\000"
 955      6D737472 
 955      57724275 
 955      6653697A 
 955      6500
 956              		.ident	"GCC: (GNU Tools for ARM Embedded Processors) 5.4.1 20160609 (release) [ARM/embedded-5-bran
