ARM GAS  C:\Users\HPz420\AppData\Local\Temp\ccnyaAXU.s 			page 1


   1              		.syntax unified
   2              		.cpu cortex-m3
   3              		.fpu softvfp
   4              		.eabi_attribute 20, 1
   5              		.eabi_attribute 21, 1
   6              		.eabi_attribute 23, 3
   7              		.eabi_attribute 24, 1
   8              		.eabi_attribute 25, 1
   9              		.eabi_attribute 26, 1
  10              		.eabi_attribute 30, 6
  11              		.eabi_attribute 34, 1
  12              		.eabi_attribute 18, 4
  13              		.thumb
  14              		.syntax unified
  15              		.file	"I2C_PM.c"
  16              		.text
  17              	.Ltext0:
  18              		.cfi_sections	.debug_frame
  19              		.global	I2C_backup
  20              		.data
  21              		.align	2
  22              		.type	I2C_backup, %object
  23              		.size	I2C_backup, 6
  24              	I2C_backup:
  25 0000 00       		.byte	0
  26 0001 81       		.byte	-127
  27 0002 02       		.byte	2
  28 0003 08       		.byte	8
  29 0004 0A       		.byte	10
  30 0005 00       		.byte	0
  31              		.section	.text.I2C_SaveConfig,"ax",%progbits
  32              		.align	2
  33              		.global	I2C_SaveConfig
  34              		.thumb
  35              		.thumb_func
  36              		.type	I2C_SaveConfig, %function
  37              	I2C_SaveConfig:
  38              	.LFB0:
  39              		.file 1 "Generated_Source\\PSoC5\\I2C_PM.c"
   1:Generated_Source\PSoC5/I2C_PM.c **** /*******************************************************************************
   2:Generated_Source\PSoC5/I2C_PM.c **** * File Name: I2C_PM.c
   3:Generated_Source\PSoC5/I2C_PM.c **** * Version 3.50
   4:Generated_Source\PSoC5/I2C_PM.c **** *
   5:Generated_Source\PSoC5/I2C_PM.c **** * Description:
   6:Generated_Source\PSoC5/I2C_PM.c **** *  This file provides low power mode APIs for the I2C component.
   7:Generated_Source\PSoC5/I2C_PM.c **** *
   8:Generated_Source\PSoC5/I2C_PM.c **** ********************************************************************************
   9:Generated_Source\PSoC5/I2C_PM.c **** * Copyright 2008-2015, Cypress Semiconductor Corporation. All rights reserved.
  10:Generated_Source\PSoC5/I2C_PM.c **** * You may use this file only in accordance with the license, terms, conditions,
  11:Generated_Source\PSoC5/I2C_PM.c **** * disclaimers, and limitations in the end user license agreement accompanying
  12:Generated_Source\PSoC5/I2C_PM.c **** * the software package with which this file was provided.
  13:Generated_Source\PSoC5/I2C_PM.c **** *******************************************************************************/
  14:Generated_Source\PSoC5/I2C_PM.c **** 
  15:Generated_Source\PSoC5/I2C_PM.c **** #include "I2C_PVT.h"
  16:Generated_Source\PSoC5/I2C_PM.c **** 
  17:Generated_Source\PSoC5/I2C_PM.c **** I2C_BACKUP_STRUCT I2C_backup =
  18:Generated_Source\PSoC5/I2C_PM.c **** {
ARM GAS  C:\Users\HPz420\AppData\Local\Temp\ccnyaAXU.s 			page 2


  19:Generated_Source\PSoC5/I2C_PM.c ****     I2C_DISABLE,
  20:Generated_Source\PSoC5/I2C_PM.c **** 
  21:Generated_Source\PSoC5/I2C_PM.c **** #if (I2C_FF_IMPLEMENTED)
  22:Generated_Source\PSoC5/I2C_PM.c ****     I2C_DEFAULT_XCFG,
  23:Generated_Source\PSoC5/I2C_PM.c ****     I2C_DEFAULT_CFG,
  24:Generated_Source\PSoC5/I2C_PM.c ****     I2C_DEFAULT_ADDR,
  25:Generated_Source\PSoC5/I2C_PM.c ****     LO8(I2C_DEFAULT_DIVIDE_FACTOR),
  26:Generated_Source\PSoC5/I2C_PM.c ****     HI8(I2C_DEFAULT_DIVIDE_FACTOR),
  27:Generated_Source\PSoC5/I2C_PM.c **** #else  /* (I2C_UDB_IMPLEMENTED) */
  28:Generated_Source\PSoC5/I2C_PM.c ****     I2C_DEFAULT_CFG,
  29:Generated_Source\PSoC5/I2C_PM.c **** #endif /* (I2C_FF_IMPLEMENTED) */
  30:Generated_Source\PSoC5/I2C_PM.c **** 
  31:Generated_Source\PSoC5/I2C_PM.c **** #if (I2C_TIMEOUT_ENABLED)
  32:Generated_Source\PSoC5/I2C_PM.c ****     I2C_DEFAULT_TMOUT_PERIOD,
  33:Generated_Source\PSoC5/I2C_PM.c ****     I2C_DEFAULT_TMOUT_INTR_MASK,
  34:Generated_Source\PSoC5/I2C_PM.c **** #endif /* (I2C_TIMEOUT_ENABLED) */
  35:Generated_Source\PSoC5/I2C_PM.c **** };
  36:Generated_Source\PSoC5/I2C_PM.c **** 
  37:Generated_Source\PSoC5/I2C_PM.c **** #if ((I2C_FF_IMPLEMENTED) && (I2C_WAKEUP_ENABLED))
  38:Generated_Source\PSoC5/I2C_PM.c ****     volatile uint8 I2C_wakeupSource;
  39:Generated_Source\PSoC5/I2C_PM.c **** #endif /* ((I2C_FF_IMPLEMENTED) && (I2C_WAKEUP_ENABLED)) */
  40:Generated_Source\PSoC5/I2C_PM.c **** 
  41:Generated_Source\PSoC5/I2C_PM.c **** 
  42:Generated_Source\PSoC5/I2C_PM.c **** /*******************************************************************************
  43:Generated_Source\PSoC5/I2C_PM.c **** * Function Name: I2C_SaveConfig
  44:Generated_Source\PSoC5/I2C_PM.c **** ********************************************************************************
  45:Generated_Source\PSoC5/I2C_PM.c **** *
  46:Generated_Source\PSoC5/I2C_PM.c **** * Summary:
  47:Generated_Source\PSoC5/I2C_PM.c **** *  The Enable wakeup from Sleep Mode selection influences this function
  48:Generated_Source\PSoC5/I2C_PM.c **** *  implementation:
  49:Generated_Source\PSoC5/I2C_PM.c **** *   Unchecked: Stores the component non-retention configuration registers.
  50:Generated_Source\PSoC5/I2C_PM.c **** *   Checked:   Disables the master, if it was enabled before, and enables
  51:Generated_Source\PSoC5/I2C_PM.c **** *              backup regulator of the I2C hardware. If a transaction intended
  52:Generated_Source\PSoC5/I2C_PM.c **** *              for component executes during this function call, it waits until
  53:Generated_Source\PSoC5/I2C_PM.c **** *              the current transaction is completed and I2C hardware is ready
  54:Generated_Source\PSoC5/I2C_PM.c **** *              to enter sleep mode. All subsequent I2C traffic is NAKed until
  55:Generated_Source\PSoC5/I2C_PM.c **** *              the device is put into sleep mode.
  56:Generated_Source\PSoC5/I2C_PM.c **** *
  57:Generated_Source\PSoC5/I2C_PM.c **** * Parameters:
  58:Generated_Source\PSoC5/I2C_PM.c **** *  None.
  59:Generated_Source\PSoC5/I2C_PM.c **** *
  60:Generated_Source\PSoC5/I2C_PM.c **** * Return:
  61:Generated_Source\PSoC5/I2C_PM.c **** *  None.
  62:Generated_Source\PSoC5/I2C_PM.c **** *
  63:Generated_Source\PSoC5/I2C_PM.c **** * Global Variables:
  64:Generated_Source\PSoC5/I2C_PM.c **** *  I2C_backup - The global variable used to save the component
  65:Generated_Source\PSoC5/I2C_PM.c **** *                            configuration and non-retention registers before
  66:Generated_Source\PSoC5/I2C_PM.c **** *                            entering the sleep mode.
  67:Generated_Source\PSoC5/I2C_PM.c **** *
  68:Generated_Source\PSoC5/I2C_PM.c **** * Reentrant:
  69:Generated_Source\PSoC5/I2C_PM.c **** *  No.
  70:Generated_Source\PSoC5/I2C_PM.c **** *
  71:Generated_Source\PSoC5/I2C_PM.c **** *******************************************************************************/
  72:Generated_Source\PSoC5/I2C_PM.c **** void I2C_SaveConfig(void) 
  73:Generated_Source\PSoC5/I2C_PM.c **** {
  40              		.loc 1 73 0
  41              		.cfi_startproc
ARM GAS  C:\Users\HPz420\AppData\Local\Temp\ccnyaAXU.s 			page 3


  42              		@ args = 0, pretend = 0, frame = 0
  43              		@ frame_needed = 1, uses_anonymous_args = 0
  44              		@ link register save eliminated.
  45 0000 80B4     		push	{r7}
  46              		.cfi_def_cfa_offset 4
  47              		.cfi_offset 7, -4
  48 0002 00AF     		add	r7, sp, #0
  49              		.cfi_def_cfa_register 7
  74:Generated_Source\PSoC5/I2C_PM.c **** #if (I2C_FF_IMPLEMENTED)
  75:Generated_Source\PSoC5/I2C_PM.c ****     #if (I2C_WAKEUP_ENABLED)
  76:Generated_Source\PSoC5/I2C_PM.c ****         uint8 intState;
  77:Generated_Source\PSoC5/I2C_PM.c ****     #endif /* (I2C_WAKEUP_ENABLED) */
  78:Generated_Source\PSoC5/I2C_PM.c **** 
  79:Generated_Source\PSoC5/I2C_PM.c ****     /* Store registers before enter low power mode */
  80:Generated_Source\PSoC5/I2C_PM.c ****     I2C_backup.cfg     = I2C_CFG_REG;
  50              		.loc 1 80 0
  51 0004 0E4B     		ldr	r3, .L2
  52 0006 1B78     		ldrb	r3, [r3]
  53 0008 DAB2     		uxtb	r2, r3
  54 000a 0E4B     		ldr	r3, .L2+4
  55 000c 9A70     		strb	r2, [r3, #2]
  81:Generated_Source\PSoC5/I2C_PM.c ****     I2C_backup.xcfg    = I2C_XCFG_REG;
  56              		.loc 1 81 0
  57 000e 0E4B     		ldr	r3, .L2+8
  58 0010 1B78     		ldrb	r3, [r3]
  59 0012 DAB2     		uxtb	r2, r3
  60 0014 0B4B     		ldr	r3, .L2+4
  61 0016 5A70     		strb	r2, [r3, #1]
  82:Generated_Source\PSoC5/I2C_PM.c ****     I2C_backup.addr    = I2C_ADDR_REG;
  62              		.loc 1 82 0
  63 0018 0C4B     		ldr	r3, .L2+12
  64 001a 1B78     		ldrb	r3, [r3]
  65 001c DAB2     		uxtb	r2, r3
  66 001e 094B     		ldr	r3, .L2+4
  67 0020 DA70     		strb	r2, [r3, #3]
  83:Generated_Source\PSoC5/I2C_PM.c ****     I2C_backup.clkDiv1 = I2C_CLKDIV1_REG;
  68              		.loc 1 83 0
  69 0022 0B4B     		ldr	r3, .L2+16
  70 0024 1B78     		ldrb	r3, [r3]
  71 0026 DAB2     		uxtb	r2, r3
  72 0028 064B     		ldr	r3, .L2+4
  73 002a 1A71     		strb	r2, [r3, #4]
  84:Generated_Source\PSoC5/I2C_PM.c ****     I2C_backup.clkDiv2 = I2C_CLKDIV2_REG;
  74              		.loc 1 84 0
  75 002c 094B     		ldr	r3, .L2+20
  76 002e 1B78     		ldrb	r3, [r3]
  77 0030 DAB2     		uxtb	r2, r3
  78 0032 044B     		ldr	r3, .L2+4
  79 0034 5A71     		strb	r2, [r3, #5]
  85:Generated_Source\PSoC5/I2C_PM.c **** 
  86:Generated_Source\PSoC5/I2C_PM.c **** #if (I2C_WAKEUP_ENABLED)
  87:Generated_Source\PSoC5/I2C_PM.c ****     /* Disable master */
  88:Generated_Source\PSoC5/I2C_PM.c ****     I2C_CFG_REG &= (uint8) ~I2C_ENABLE_MASTER;
  89:Generated_Source\PSoC5/I2C_PM.c **** 
  90:Generated_Source\PSoC5/I2C_PM.c ****     /* Enable backup regulator to keep block powered in low power mode */
  91:Generated_Source\PSoC5/I2C_PM.c ****     intState = CyEnterCriticalSection();
  92:Generated_Source\PSoC5/I2C_PM.c ****     I2C_PWRSYS_CR1_REG |= I2C_PWRSYS_CR1_I2C_REG_BACKUP;
ARM GAS  C:\Users\HPz420\AppData\Local\Temp\ccnyaAXU.s 			page 4


  93:Generated_Source\PSoC5/I2C_PM.c ****     CyExitCriticalSection(intState);
  94:Generated_Source\PSoC5/I2C_PM.c **** 
  95:Generated_Source\PSoC5/I2C_PM.c ****     /* 1) Set force NACK to ignore I2C transactions;
  96:Generated_Source\PSoC5/I2C_PM.c ****     *  2) Wait unti I2C is ready go to Sleep; !!
  97:Generated_Source\PSoC5/I2C_PM.c ****     *  3) These bits are cleared on wake up.
  98:Generated_Source\PSoC5/I2C_PM.c ****     */
  99:Generated_Source\PSoC5/I2C_PM.c ****     /* Wait when block is ready for sleep */
 100:Generated_Source\PSoC5/I2C_PM.c ****     I2C_XCFG_REG |= I2C_XCFG_FORCE_NACK;
 101:Generated_Source\PSoC5/I2C_PM.c ****     while (0u == (I2C_XCFG_REG & I2C_XCFG_RDY_TO_SLEEP))
 102:Generated_Source\PSoC5/I2C_PM.c ****     {
 103:Generated_Source\PSoC5/I2C_PM.c ****     }
 104:Generated_Source\PSoC5/I2C_PM.c **** 
 105:Generated_Source\PSoC5/I2C_PM.c ****     /* Setup wakeup interrupt */
 106:Generated_Source\PSoC5/I2C_PM.c ****     I2C_DisableInt();
 107:Generated_Source\PSoC5/I2C_PM.c ****     (void) CyIntSetVector(I2C_ISR_NUMBER, &I2C_WAKEUP_ISR);
 108:Generated_Source\PSoC5/I2C_PM.c ****     I2C_wakeupSource = 0u;
 109:Generated_Source\PSoC5/I2C_PM.c ****     I2C_EnableInt();
 110:Generated_Source\PSoC5/I2C_PM.c **** #endif /* (I2C_WAKEUP_ENABLED) */
 111:Generated_Source\PSoC5/I2C_PM.c **** 
 112:Generated_Source\PSoC5/I2C_PM.c **** #else
 113:Generated_Source\PSoC5/I2C_PM.c ****     /* Store only address match bit */
 114:Generated_Source\PSoC5/I2C_PM.c ****     I2C_backup.control = (I2C_CFG_REG & I2C_CTRL_ANY_ADDRESS_MASK);
 115:Generated_Source\PSoC5/I2C_PM.c **** #endif /* (I2C_FF_IMPLEMENTED) */
 116:Generated_Source\PSoC5/I2C_PM.c **** 
 117:Generated_Source\PSoC5/I2C_PM.c **** #if (I2C_TIMEOUT_ENABLED)
 118:Generated_Source\PSoC5/I2C_PM.c ****     I2C_TimeoutSaveConfig();
 119:Generated_Source\PSoC5/I2C_PM.c **** #endif /* (I2C_TIMEOUT_ENABLED) */
 120:Generated_Source\PSoC5/I2C_PM.c **** }
  80              		.loc 1 120 0
  81 0036 00BF     		nop
  82 0038 BD46     		mov	sp, r7
  83              		.cfi_def_cfa_register 13
  84              		@ sp needed
  85 003a 80BC     		pop	{r7}
  86              		.cfi_restore 7
  87              		.cfi_def_cfa_offset 0
  88 003c 7047     		bx	lr
  89              	.L3:
  90 003e 00BF     		.align	2
  91              	.L2:
  92 0040 D6490040 		.word	1073760726
  93 0044 00000000 		.word	I2C_backup
  94 0048 C8490040 		.word	1073760712
  95 004c CA490040 		.word	1073760714
  96 0050 DB490040 		.word	1073760731
  97 0054 DC490040 		.word	1073760732
  98              		.cfi_endproc
  99              	.LFE0:
 100              		.size	I2C_SaveConfig, .-I2C_SaveConfig
 101              		.section	.text.I2C_Sleep,"ax",%progbits
 102              		.align	2
 103              		.global	I2C_Sleep
 104              		.thumb
 105              		.thumb_func
 106              		.type	I2C_Sleep, %function
 107              	I2C_Sleep:
 108              	.LFB1:
ARM GAS  C:\Users\HPz420\AppData\Local\Temp\ccnyaAXU.s 			page 5


 121:Generated_Source\PSoC5/I2C_PM.c **** 
 122:Generated_Source\PSoC5/I2C_PM.c **** 
 123:Generated_Source\PSoC5/I2C_PM.c **** /*******************************************************************************
 124:Generated_Source\PSoC5/I2C_PM.c **** * Function Name: I2C_Sleep
 125:Generated_Source\PSoC5/I2C_PM.c **** ********************************************************************************
 126:Generated_Source\PSoC5/I2C_PM.c **** *
 127:Generated_Source\PSoC5/I2C_PM.c **** * Summary:
 128:Generated_Source\PSoC5/I2C_PM.c **** *  This is the preferred method to prepare the component before device enters
 129:Generated_Source\PSoC5/I2C_PM.c **** *  sleep mode. The Enable wakeup from Sleep Mode selection influences this
 130:Generated_Source\PSoC5/I2C_PM.c **** *  function implementation:
 131:Generated_Source\PSoC5/I2C_PM.c **** *   Unchecked: Checks current I2C component state, saves it, and disables the
 132:Generated_Source\PSoC5/I2C_PM.c **** *              component by calling I2C_Stop() if it is currently enabled.
 133:Generated_Source\PSoC5/I2C_PM.c **** *              I2C_SaveConfig() is then called to save the component
 134:Generated_Source\PSoC5/I2C_PM.c **** *              non-retention configuration registers.
 135:Generated_Source\PSoC5/I2C_PM.c **** *   Checked:   If a transaction intended for component executes during this
 136:Generated_Source\PSoC5/I2C_PM.c **** *              function call, it waits until the current transaction is
 137:Generated_Source\PSoC5/I2C_PM.c **** *              completed. All subsequent I2C traffic intended for component
 138:Generated_Source\PSoC5/I2C_PM.c **** *              is NAKed until the device is put to sleep mode. The address
 139:Generated_Source\PSoC5/I2C_PM.c **** *              match event wakes up the device.
 140:Generated_Source\PSoC5/I2C_PM.c **** *
 141:Generated_Source\PSoC5/I2C_PM.c **** * Parameters:
 142:Generated_Source\PSoC5/I2C_PM.c **** *  None.
 143:Generated_Source\PSoC5/I2C_PM.c **** *
 144:Generated_Source\PSoC5/I2C_PM.c **** * Return:
 145:Generated_Source\PSoC5/I2C_PM.c **** *  None.
 146:Generated_Source\PSoC5/I2C_PM.c **** *
 147:Generated_Source\PSoC5/I2C_PM.c **** * Reentrant:
 148:Generated_Source\PSoC5/I2C_PM.c **** *  No.
 149:Generated_Source\PSoC5/I2C_PM.c **** *
 150:Generated_Source\PSoC5/I2C_PM.c **** *******************************************************************************/
 151:Generated_Source\PSoC5/I2C_PM.c **** void I2C_Sleep(void) 
 152:Generated_Source\PSoC5/I2C_PM.c **** {
 109              		.loc 1 152 0
 110              		.cfi_startproc
 111              		@ args = 0, pretend = 0, frame = 0
 112              		@ frame_needed = 1, uses_anonymous_args = 0
 113 0000 80B5     		push	{r7, lr}
 114              		.cfi_def_cfa_offset 8
 115              		.cfi_offset 7, -8
 116              		.cfi_offset 14, -4
 117 0002 00AF     		add	r7, sp, #0
 118              		.cfi_def_cfa_register 7
 153:Generated_Source\PSoC5/I2C_PM.c **** #if (I2C_WAKEUP_ENABLED)
 154:Generated_Source\PSoC5/I2C_PM.c ****     /* Do not enable block after exit low power mode if it is wakeup source */
 155:Generated_Source\PSoC5/I2C_PM.c ****     I2C_backup.enableState = I2C_DISABLE;
 156:Generated_Source\PSoC5/I2C_PM.c **** 
 157:Generated_Source\PSoC5/I2C_PM.c ****     #if (I2C_TIMEOUT_ENABLED)
 158:Generated_Source\PSoC5/I2C_PM.c ****         I2C_TimeoutStop();
 159:Generated_Source\PSoC5/I2C_PM.c ****     #endif /* (I2C_TIMEOUT_ENABLED) */
 160:Generated_Source\PSoC5/I2C_PM.c **** 
 161:Generated_Source\PSoC5/I2C_PM.c **** #else
 162:Generated_Source\PSoC5/I2C_PM.c ****     /* Store enable state */
 163:Generated_Source\PSoC5/I2C_PM.c ****     I2C_backup.enableState = (uint8) I2C_IS_ENABLED;
 119              		.loc 1 163 0
 120 0004 0B4B     		ldr	r3, .L6
 121 0006 1B78     		ldrb	r3, [r3]
 122 0008 DBB2     		uxtb	r3, r3
ARM GAS  C:\Users\HPz420\AppData\Local\Temp\ccnyaAXU.s 			page 6


 123 000a 03F00403 		and	r3, r3, #4
 124 000e 002B     		cmp	r3, #0
 125 0010 14BF     		ite	ne
 126 0012 0123     		movne	r3, #1
 127 0014 0023     		moveq	r3, #0
 128 0016 DBB2     		uxtb	r3, r3
 129 0018 1A46     		mov	r2, r3
 130 001a 074B     		ldr	r3, .L6+4
 131 001c 1A70     		strb	r2, [r3]
 164:Generated_Source\PSoC5/I2C_PM.c **** 
 165:Generated_Source\PSoC5/I2C_PM.c ****     if (0u != I2C_backup.enableState)
 132              		.loc 1 165 0
 133 001e 064B     		ldr	r3, .L6+4
 134 0020 1B78     		ldrb	r3, [r3]	@ zero_extendqisi2
 135 0022 002B     		cmp	r3, #0
 136 0024 01D0     		beq	.L5
 166:Generated_Source\PSoC5/I2C_PM.c ****     {
 167:Generated_Source\PSoC5/I2C_PM.c ****         I2C_Stop();
 137              		.loc 1 167 0
 138 0026 FFF7FEFF 		bl	I2C_Stop
 139              	.L5:
 168:Generated_Source\PSoC5/I2C_PM.c ****     }
 169:Generated_Source\PSoC5/I2C_PM.c **** #endif /* (I2C_WAKEUP_ENABLED) */
 170:Generated_Source\PSoC5/I2C_PM.c **** 
 171:Generated_Source\PSoC5/I2C_PM.c ****     I2C_SaveConfig();
 140              		.loc 1 171 0
 141 002a FFF7FEFF 		bl	I2C_SaveConfig
 172:Generated_Source\PSoC5/I2C_PM.c **** }
 142              		.loc 1 172 0
 143 002e 00BF     		nop
 144 0030 80BD     		pop	{r7, pc}
 145              	.L7:
 146 0032 00BF     		.align	2
 147              	.L6:
 148 0034 A5430040 		.word	1073759141
 149 0038 00000000 		.word	I2C_backup
 150              		.cfi_endproc
 151              	.LFE1:
 152              		.size	I2C_Sleep, .-I2C_Sleep
 153              		.section	.text.I2C_RestoreConfig,"ax",%progbits
 154              		.align	2
 155              		.global	I2C_RestoreConfig
 156              		.thumb
 157              		.thumb_func
 158              		.type	I2C_RestoreConfig, %function
 159              	I2C_RestoreConfig:
 160              	.LFB2:
 173:Generated_Source\PSoC5/I2C_PM.c **** 
 174:Generated_Source\PSoC5/I2C_PM.c **** 
 175:Generated_Source\PSoC5/I2C_PM.c **** /*******************************************************************************
 176:Generated_Source\PSoC5/I2C_PM.c **** * Function Name: I2C_RestoreConfig
 177:Generated_Source\PSoC5/I2C_PM.c **** ********************************************************************************
 178:Generated_Source\PSoC5/I2C_PM.c **** *
 179:Generated_Source\PSoC5/I2C_PM.c **** * Summary:
 180:Generated_Source\PSoC5/I2C_PM.c **** *  The Enable wakeup from Sleep Mode selection influences this function
 181:Generated_Source\PSoC5/I2C_PM.c **** *  implementation:
 182:Generated_Source\PSoC5/I2C_PM.c **** *   Unchecked: Restores the component non-retention configuration registers
ARM GAS  C:\Users\HPz420\AppData\Local\Temp\ccnyaAXU.s 			page 7


 183:Generated_Source\PSoC5/I2C_PM.c **** *              to the state they were in before I2C_Sleep() or I2C_SaveConfig()
 184:Generated_Source\PSoC5/I2C_PM.c **** *              was called.
 185:Generated_Source\PSoC5/I2C_PM.c **** *   Checked:   Disables the backup regulator of the I2C hardware. Sets up the
 186:Generated_Source\PSoC5/I2C_PM.c **** *              regular component interrupt handler and generates the component
 187:Generated_Source\PSoC5/I2C_PM.c **** *              interrupt if it was wake up source to release the bus and
 188:Generated_Source\PSoC5/I2C_PM.c **** *              continue in-coming I2C transaction.
 189:Generated_Source\PSoC5/I2C_PM.c **** *
 190:Generated_Source\PSoC5/I2C_PM.c **** * Parameters:
 191:Generated_Source\PSoC5/I2C_PM.c **** *  None.
 192:Generated_Source\PSoC5/I2C_PM.c **** *
 193:Generated_Source\PSoC5/I2C_PM.c **** * Return:
 194:Generated_Source\PSoC5/I2C_PM.c **** *  None.
 195:Generated_Source\PSoC5/I2C_PM.c **** *
 196:Generated_Source\PSoC5/I2C_PM.c **** * Global Variables:
 197:Generated_Source\PSoC5/I2C_PM.c **** *  I2C_backup - The global variable used to save the component
 198:Generated_Source\PSoC5/I2C_PM.c **** *                            configuration and non-retention registers before
 199:Generated_Source\PSoC5/I2C_PM.c **** *                            exiting the sleep mode.
 200:Generated_Source\PSoC5/I2C_PM.c **** *
 201:Generated_Source\PSoC5/I2C_PM.c **** * Reentrant:
 202:Generated_Source\PSoC5/I2C_PM.c **** *  No.
 203:Generated_Source\PSoC5/I2C_PM.c **** *
 204:Generated_Source\PSoC5/I2C_PM.c **** * Side Effects:
 205:Generated_Source\PSoC5/I2C_PM.c **** *  Calling this function before I2C_SaveConfig() or
 206:Generated_Source\PSoC5/I2C_PM.c **** *  I2C_Sleep() will lead to unpredictable results.
 207:Generated_Source\PSoC5/I2C_PM.c **** *
 208:Generated_Source\PSoC5/I2C_PM.c **** *******************************************************************************/
 209:Generated_Source\PSoC5/I2C_PM.c **** void I2C_RestoreConfig(void) 
 210:Generated_Source\PSoC5/I2C_PM.c **** {
 161              		.loc 1 210 0
 162              		.cfi_startproc
 163              		@ args = 0, pretend = 0, frame = 8
 164              		@ frame_needed = 1, uses_anonymous_args = 0
 165 0000 80B5     		push	{r7, lr}
 166              		.cfi_def_cfa_offset 8
 167              		.cfi_offset 7, -8
 168              		.cfi_offset 14, -4
 169 0002 82B0     		sub	sp, sp, #8
 170              		.cfi_def_cfa_offset 16
 171 0004 00AF     		add	r7, sp, #0
 172              		.cfi_def_cfa_register 7
 211:Generated_Source\PSoC5/I2C_PM.c **** #if (I2C_FF_IMPLEMENTED)
 212:Generated_Source\PSoC5/I2C_PM.c ****     uint8 intState;
 213:Generated_Source\PSoC5/I2C_PM.c **** 
 214:Generated_Source\PSoC5/I2C_PM.c ****     if (I2C_CHECK_PWRSYS_I2C_BACKUP)
 173              		.loc 1 214 0
 174 0006 1A4B     		ldr	r3, .L12
 175 0008 1B78     		ldrb	r3, [r3]
 176 000a DBB2     		uxtb	r3, r3
 177 000c 03F00403 		and	r3, r3, #4
 178 0010 DBB2     		uxtb	r3, r3
 179 0012 002B     		cmp	r3, #0
 180 0014 14D0     		beq	.L9
 215:Generated_Source\PSoC5/I2C_PM.c ****     /* Low power mode was Sleep - backup regulator is enabled */
 216:Generated_Source\PSoC5/I2C_PM.c ****     {
 217:Generated_Source\PSoC5/I2C_PM.c ****         /* Enable backup regulator in active mode */
 218:Generated_Source\PSoC5/I2C_PM.c ****         intState = CyEnterCriticalSection();
 181              		.loc 1 218 0
ARM GAS  C:\Users\HPz420\AppData\Local\Temp\ccnyaAXU.s 			page 8


 182 0016 FFF7FEFF 		bl	CyEnterCriticalSection
 183 001a 0346     		mov	r3, r0
 184 001c FB71     		strb	r3, [r7, #7]
 219:Generated_Source\PSoC5/I2C_PM.c ****         I2C_PWRSYS_CR1_REG &= (uint8) ~I2C_PWRSYS_CR1_I2C_REG_BACKUP;
 185              		.loc 1 219 0
 186 001e 144A     		ldr	r2, .L12
 187 0020 134B     		ldr	r3, .L12
 188 0022 1B78     		ldrb	r3, [r3]
 189 0024 DBB2     		uxtb	r3, r3
 190 0026 23F00403 		bic	r3, r3, #4
 191 002a DBB2     		uxtb	r3, r3
 192 002c 1370     		strb	r3, [r2]
 220:Generated_Source\PSoC5/I2C_PM.c ****         CyExitCriticalSection(intState);
 193              		.loc 1 220 0
 194 002e FB79     		ldrb	r3, [r7, #7]	@ zero_extendqisi2
 195 0030 1846     		mov	r0, r3
 196 0032 FFF7FEFF 		bl	CyExitCriticalSection
 221:Generated_Source\PSoC5/I2C_PM.c **** 
 222:Generated_Source\PSoC5/I2C_PM.c ****         /* Restore master */
 223:Generated_Source\PSoC5/I2C_PM.c ****         I2C_CFG_REG = I2C_backup.cfg;
 197              		.loc 1 223 0
 198 0036 0F4B     		ldr	r3, .L12+4
 199 0038 0F4A     		ldr	r2, .L12+8
 200 003a 9278     		ldrb	r2, [r2, #2]	@ zero_extendqisi2
 201 003c 1A70     		strb	r2, [r3]
 224:Generated_Source\PSoC5/I2C_PM.c ****     }
 225:Generated_Source\PSoC5/I2C_PM.c ****     else
 226:Generated_Source\PSoC5/I2C_PM.c ****     /* Low power mode was Hibernate - backup regulator is disabled. All registers are cleared */
 227:Generated_Source\PSoC5/I2C_PM.c ****     {
 228:Generated_Source\PSoC5/I2C_PM.c ****     #if (I2C_WAKEUP_ENABLED)
 229:Generated_Source\PSoC5/I2C_PM.c ****         /* Disable power to block before register restore */
 230:Generated_Source\PSoC5/I2C_PM.c ****         intState = CyEnterCriticalSection();
 231:Generated_Source\PSoC5/I2C_PM.c ****         I2C_ACT_PWRMGR_REG  &= (uint8) ~I2C_ACT_PWR_EN;
 232:Generated_Source\PSoC5/I2C_PM.c ****         I2C_STBY_PWRMGR_REG &= (uint8) ~I2C_STBY_PWR_EN;
 233:Generated_Source\PSoC5/I2C_PM.c ****         CyExitCriticalSection(intState);
 234:Generated_Source\PSoC5/I2C_PM.c **** 
 235:Generated_Source\PSoC5/I2C_PM.c ****         /* Enable component in I2C_Wakeup() after register restore */
 236:Generated_Source\PSoC5/I2C_PM.c ****         I2C_backup.enableState = I2C_ENABLE;
 237:Generated_Source\PSoC5/I2C_PM.c ****     #endif /* (I2C_WAKEUP_ENABLED) */
 238:Generated_Source\PSoC5/I2C_PM.c **** 
 239:Generated_Source\PSoC5/I2C_PM.c ****         /* Restore component registers after Hibernate */
 240:Generated_Source\PSoC5/I2C_PM.c ****         I2C_XCFG_REG    = I2C_backup.xcfg;
 241:Generated_Source\PSoC5/I2C_PM.c ****         I2C_CFG_REG     = I2C_backup.cfg;
 242:Generated_Source\PSoC5/I2C_PM.c ****         I2C_ADDR_REG    = I2C_backup.addr;
 243:Generated_Source\PSoC5/I2C_PM.c ****         I2C_CLKDIV1_REG = I2C_backup.clkDiv1;
 244:Generated_Source\PSoC5/I2C_PM.c ****         I2C_CLKDIV2_REG = I2C_backup.clkDiv2;
 245:Generated_Source\PSoC5/I2C_PM.c ****     }
 246:Generated_Source\PSoC5/I2C_PM.c **** 
 247:Generated_Source\PSoC5/I2C_PM.c **** #if (I2C_WAKEUP_ENABLED)
 248:Generated_Source\PSoC5/I2C_PM.c ****     I2C_DisableInt();
 249:Generated_Source\PSoC5/I2C_PM.c ****     (void) CyIntSetVector(I2C_ISR_NUMBER, &I2C_ISR);
 250:Generated_Source\PSoC5/I2C_PM.c ****     if (0u != I2C_wakeupSource)
 251:Generated_Source\PSoC5/I2C_PM.c ****     {
 252:Generated_Source\PSoC5/I2C_PM.c ****         /* Generate interrupt to process incoming transaction */
 253:Generated_Source\PSoC5/I2C_PM.c ****         I2C_SetPendingInt();
 254:Generated_Source\PSoC5/I2C_PM.c ****     }
 255:Generated_Source\PSoC5/I2C_PM.c ****     I2C_EnableInt();
ARM GAS  C:\Users\HPz420\AppData\Local\Temp\ccnyaAXU.s 			page 9


 256:Generated_Source\PSoC5/I2C_PM.c **** #endif /* (I2C_WAKEUP_ENABLED) */
 257:Generated_Source\PSoC5/I2C_PM.c **** 
 258:Generated_Source\PSoC5/I2C_PM.c **** #else
 259:Generated_Source\PSoC5/I2C_PM.c ****     I2C_CFG_REG = I2C_backup.control;
 260:Generated_Source\PSoC5/I2C_PM.c **** #endif /* (I2C_FF_IMPLEMENTED) */
 261:Generated_Source\PSoC5/I2C_PM.c **** 
 262:Generated_Source\PSoC5/I2C_PM.c **** #if (I2C_TIMEOUT_ENABLED)
 263:Generated_Source\PSoC5/I2C_PM.c ****     I2C_TimeoutRestoreConfig();
 264:Generated_Source\PSoC5/I2C_PM.c **** #endif /* (I2C_TIMEOUT_ENABLED) */
 265:Generated_Source\PSoC5/I2C_PM.c **** }
 202              		.loc 1 265 0
 203 003e 13E0     		b	.L11
 204              	.L9:
 240:Generated_Source\PSoC5/I2C_PM.c ****         I2C_CFG_REG     = I2C_backup.cfg;
 205              		.loc 1 240 0
 206 0040 0E4B     		ldr	r3, .L12+12
 207 0042 0D4A     		ldr	r2, .L12+8
 208 0044 5278     		ldrb	r2, [r2, #1]	@ zero_extendqisi2
 209 0046 1A70     		strb	r2, [r3]
 241:Generated_Source\PSoC5/I2C_PM.c ****         I2C_ADDR_REG    = I2C_backup.addr;
 210              		.loc 1 241 0
 211 0048 0A4B     		ldr	r3, .L12+4
 212 004a 0B4A     		ldr	r2, .L12+8
 213 004c 9278     		ldrb	r2, [r2, #2]	@ zero_extendqisi2
 214 004e 1A70     		strb	r2, [r3]
 242:Generated_Source\PSoC5/I2C_PM.c ****         I2C_CLKDIV1_REG = I2C_backup.clkDiv1;
 215              		.loc 1 242 0
 216 0050 0B4B     		ldr	r3, .L12+16
 217 0052 094A     		ldr	r2, .L12+8
 218 0054 D278     		ldrb	r2, [r2, #3]	@ zero_extendqisi2
 219 0056 1A70     		strb	r2, [r3]
 243:Generated_Source\PSoC5/I2C_PM.c ****         I2C_CLKDIV2_REG = I2C_backup.clkDiv2;
 220              		.loc 1 243 0
 221 0058 0A4B     		ldr	r3, .L12+20
 222 005a 074A     		ldr	r2, .L12+8
 223 005c 1279     		ldrb	r2, [r2, #4]	@ zero_extendqisi2
 224 005e 1A70     		strb	r2, [r3]
 244:Generated_Source\PSoC5/I2C_PM.c ****     }
 225              		.loc 1 244 0
 226 0060 094B     		ldr	r3, .L12+24
 227 0062 054A     		ldr	r2, .L12+8
 228 0064 5279     		ldrb	r2, [r2, #5]	@ zero_extendqisi2
 229 0066 1A70     		strb	r2, [r3]
 230              	.L11:
 231              		.loc 1 265 0
 232 0068 00BF     		nop
 233 006a 0837     		adds	r7, r7, #8
 234              		.cfi_def_cfa_offset 8
 235 006c BD46     		mov	sp, r7
 236              		.cfi_def_cfa_register 13
 237              		@ sp needed
 238 006e 80BD     		pop	{r7, pc}
 239              	.L13:
 240              		.align	2
 241              	.L12:
 242 0070 31430040 		.word	1073759025
 243 0074 D6490040 		.word	1073760726
ARM GAS  C:\Users\HPz420\AppData\Local\Temp\ccnyaAXU.s 			page 10


 244 0078 00000000 		.word	I2C_backup
 245 007c C8490040 		.word	1073760712
 246 0080 CA490040 		.word	1073760714
 247 0084 DB490040 		.word	1073760731
 248 0088 DC490040 		.word	1073760732
 249              		.cfi_endproc
 250              	.LFE2:
 251              		.size	I2C_RestoreConfig, .-I2C_RestoreConfig
 252              		.section	.text.I2C_Wakeup,"ax",%progbits
 253              		.align	2
 254              		.global	I2C_Wakeup
 255              		.thumb
 256              		.thumb_func
 257              		.type	I2C_Wakeup, %function
 258              	I2C_Wakeup:
 259              	.LFB3:
 266:Generated_Source\PSoC5/I2C_PM.c **** 
 267:Generated_Source\PSoC5/I2C_PM.c **** 
 268:Generated_Source\PSoC5/I2C_PM.c **** /*******************************************************************************
 269:Generated_Source\PSoC5/I2C_PM.c **** * Function Name: I2C_Wakeup
 270:Generated_Source\PSoC5/I2C_PM.c **** ********************************************************************************
 271:Generated_Source\PSoC5/I2C_PM.c **** *
 272:Generated_Source\PSoC5/I2C_PM.c **** * Summary:
 273:Generated_Source\PSoC5/I2C_PM.c **** *  This is the preferred method to prepare the component for active mode
 274:Generated_Source\PSoC5/I2C_PM.c **** *  operation (when device exits sleep mode). The Enable wakeup from Sleep Mode
 275:Generated_Source\PSoC5/I2C_PM.c **** *  selection influences this function implementation:
 276:Generated_Source\PSoC5/I2C_PM.c **** *   Unchecked: Restores the component non-retention configuration registers
 277:Generated_Source\PSoC5/I2C_PM.c **** *              by calling I2C_RestoreConfig(). If the component was enabled
 278:Generated_Source\PSoC5/I2C_PM.c **** *              before the I2C_Sleep() function was called, I2C_Wakeup()
 279:Generated_Source\PSoC5/I2C_PM.c **** *              re-enables it.
 280:Generated_Source\PSoC5/I2C_PM.c **** *   Checked:   Enables  master functionality if it was enabled before sleep,
 281:Generated_Source\PSoC5/I2C_PM.c **** *              and disables the backup regulator of the I2C hardware.
 282:Generated_Source\PSoC5/I2C_PM.c **** *              The incoming transaction continues as soon as the regular
 283:Generated_Source\PSoC5/I2C_PM.c **** *              I2C interrupt handler is set up (global interrupts has to be
 284:Generated_Source\PSoC5/I2C_PM.c **** *              enabled to service I2C component interrupt).
 285:Generated_Source\PSoC5/I2C_PM.c **** *
 286:Generated_Source\PSoC5/I2C_PM.c **** * Parameters:
 287:Generated_Source\PSoC5/I2C_PM.c **** *  None.
 288:Generated_Source\PSoC5/I2C_PM.c **** *
 289:Generated_Source\PSoC5/I2C_PM.c **** * Return:
 290:Generated_Source\PSoC5/I2C_PM.c **** *  None.
 291:Generated_Source\PSoC5/I2C_PM.c **** *
 292:Generated_Source\PSoC5/I2C_PM.c **** * Reentrant:
 293:Generated_Source\PSoC5/I2C_PM.c **** *  No.
 294:Generated_Source\PSoC5/I2C_PM.c **** *
 295:Generated_Source\PSoC5/I2C_PM.c **** * Side Effects:
 296:Generated_Source\PSoC5/I2C_PM.c **** *  Calling this function before I2C_SaveConfig() or
 297:Generated_Source\PSoC5/I2C_PM.c **** *  I2C_Sleep() will lead to unpredictable results.
 298:Generated_Source\PSoC5/I2C_PM.c **** *
 299:Generated_Source\PSoC5/I2C_PM.c **** *******************************************************************************/
 300:Generated_Source\PSoC5/I2C_PM.c **** void I2C_Wakeup(void) 
 301:Generated_Source\PSoC5/I2C_PM.c **** {
 260              		.loc 1 301 0
 261              		.cfi_startproc
 262              		@ args = 0, pretend = 0, frame = 0
 263              		@ frame_needed = 1, uses_anonymous_args = 0
 264 0000 80B5     		push	{r7, lr}
ARM GAS  C:\Users\HPz420\AppData\Local\Temp\ccnyaAXU.s 			page 11


 265              		.cfi_def_cfa_offset 8
 266              		.cfi_offset 7, -8
 267              		.cfi_offset 14, -4
 268 0002 00AF     		add	r7, sp, #0
 269              		.cfi_def_cfa_register 7
 302:Generated_Source\PSoC5/I2C_PM.c ****     I2C_RestoreConfig();
 270              		.loc 1 302 0
 271 0004 FFF7FEFF 		bl	I2C_RestoreConfig
 303:Generated_Source\PSoC5/I2C_PM.c **** 
 304:Generated_Source\PSoC5/I2C_PM.c ****     /* Restore component enable state */
 305:Generated_Source\PSoC5/I2C_PM.c ****     if (0u != I2C_backup.enableState)
 272              		.loc 1 305 0
 273 0008 054B     		ldr	r3, .L17
 274 000a 1B78     		ldrb	r3, [r3]	@ zero_extendqisi2
 275 000c 002B     		cmp	r3, #0
 276 000e 05D0     		beq	.L16
 306:Generated_Source\PSoC5/I2C_PM.c ****     {
 307:Generated_Source\PSoC5/I2C_PM.c ****         I2C_Enable();
 277              		.loc 1 307 0
 278 0010 FFF7FEFF 		bl	I2C_Enable
 308:Generated_Source\PSoC5/I2C_PM.c ****         I2C_EnableInt();
 279              		.loc 1 308 0
 280 0014 034B     		ldr	r3, .L17+4
 281 0016 4FF40042 		mov	r2, #32768
 282 001a 1A60     		str	r2, [r3]
 283              	.L16:
 309:Generated_Source\PSoC5/I2C_PM.c ****     }
 310:Generated_Source\PSoC5/I2C_PM.c ****     else
 311:Generated_Source\PSoC5/I2C_PM.c ****     {
 312:Generated_Source\PSoC5/I2C_PM.c ****     #if (I2C_TIMEOUT_ENABLED)
 313:Generated_Source\PSoC5/I2C_PM.c ****         I2C_TimeoutEnable();
 314:Generated_Source\PSoC5/I2C_PM.c ****     #endif /* (I2C_TIMEOUT_ENABLED) */
 315:Generated_Source\PSoC5/I2C_PM.c ****     }
 316:Generated_Source\PSoC5/I2C_PM.c **** }
 284              		.loc 1 316 0
 285 001c 00BF     		nop
 286 001e 80BD     		pop	{r7, pc}
 287              	.L18:
 288              		.align	2
 289              	.L17:
 290 0020 00000000 		.word	I2C_backup
 291 0024 00E100E0 		.word	-536813312
 292              		.cfi_endproc
 293              	.LFE3:
 294              		.size	I2C_Wakeup, .-I2C_Wakeup
 295              		.text
 296              	.Letext0:
 297              		.file 2 "Generated_Source\\PSoC5\\cytypes.h"
 298              		.file 3 "Generated_Source\\PSoC5\\I2C.h"