ARM GAS  C:\Users\HPz420\AppData\Local\Temp\ccyisMw6.s 			page 1


   1              		.syntax unified
   2              		.cpu cortex-m3
   3              		.fpu softvfp
   4              		.eabi_attribute 20, 1
   5              		.eabi_attribute 21, 1
   6              		.eabi_attribute 23, 3
   7              		.eabi_attribute 24, 1
   8              		.eabi_attribute 25, 1
   9              		.eabi_attribute 26, 1
  10              		.eabi_attribute 30, 6
  11              		.eabi_attribute 34, 1
  12              		.eabi_attribute 18, 4
  13              		.thumb
  14              		.syntax unified
  15              		.file	"USBUART_drv.c"
  16              		.text
  17              	.Ltext0:
  18              		.cfi_sections	.debug_frame
  19              		.comm	USBUART_EP,108,4
  20              		.comm	USBUART_configuration,1,1
  21              		.comm	USBUART_interfaceNumber,1,1
  22              		.comm	USBUART_configurationChanged,1,1
  23              		.comm	USBUART_deviceAddress,1,1
  24              		.comm	USBUART_deviceStatus,1,1
  25              		.comm	USBUART_interfaceSetting,2,4
  26              		.comm	USBUART_interfaceSettingLast,2,4
  27              		.comm	USBUART_interfaceStatus,2,4
  28              		.comm	USBUART_device,1,1
  29              		.comm	USBUART_interfaceClass,4,4
  30              		.comm	USBUART_ep0Toggle,1,1
  31              		.comm	USBUART_lastPacketSize,1,1
  32              		.comm	USBUART_transferState,1,1
  33              		.comm	USBUART_currentTD,12,4
  34              		.comm	USBUART_ep0Mode,1,1
  35              		.comm	USBUART_ep0Count,1,1
  36              		.comm	USBUART_transferByteCount,2,2
  37              		.section	.text.USBUART_EP_0_ISR,"ax",%progbits
  38              		.align	2
  39              		.global	USBUART_EP_0_ISR
  40              		.thumb
  41              		.thumb_func
  42              		.type	USBUART_EP_0_ISR, %function
  43              	USBUART_EP_0_ISR:
  44              	.LFB0:
  45              		.file 1 "Generated_Source\\PSoC5\\USBUART_drv.c"
   1:Generated_Source\PSoC5/USBUART_drv.c **** /***************************************************************************//**
   2:Generated_Source\PSoC5/USBUART_drv.c **** * \file USBUART_drv.c
   3:Generated_Source\PSoC5/USBUART_drv.c **** * \version 3.20
   4:Generated_Source\PSoC5/USBUART_drv.c **** *
   5:Generated_Source\PSoC5/USBUART_drv.c **** * \brief
   6:Generated_Source\PSoC5/USBUART_drv.c **** *  This file contains the Endpoint 0 Driver for the USBFS Component.  
   7:Generated_Source\PSoC5/USBUART_drv.c **** *
   8:Generated_Source\PSoC5/USBUART_drv.c **** ********************************************************************************
   9:Generated_Source\PSoC5/USBUART_drv.c **** * \copyright
  10:Generated_Source\PSoC5/USBUART_drv.c **** * Copyright 2008-2016, Cypress Semiconductor Corporation.  All rights reserved.
  11:Generated_Source\PSoC5/USBUART_drv.c **** * You may use this file only in accordance with the license, terms, conditions,
  12:Generated_Source\PSoC5/USBUART_drv.c **** * disclaimers, and limitations in the end user license agreement accompanying
ARM GAS  C:\Users\HPz420\AppData\Local\Temp\ccyisMw6.s 			page 2


  13:Generated_Source\PSoC5/USBUART_drv.c **** * the software package with which this file was provided.
  14:Generated_Source\PSoC5/USBUART_drv.c **** *******************************************************************************/
  15:Generated_Source\PSoC5/USBUART_drv.c **** 
  16:Generated_Source\PSoC5/USBUART_drv.c **** #include "USBUART_pvt.h"
  17:Generated_Source\PSoC5/USBUART_drv.c **** #include "cyapicallbacks.h"
  18:Generated_Source\PSoC5/USBUART_drv.c **** 
  19:Generated_Source\PSoC5/USBUART_drv.c **** 
  20:Generated_Source\PSoC5/USBUART_drv.c **** /***************************************
  21:Generated_Source\PSoC5/USBUART_drv.c **** * Global data allocation
  22:Generated_Source\PSoC5/USBUART_drv.c **** ***************************************/
  23:Generated_Source\PSoC5/USBUART_drv.c **** 
  24:Generated_Source\PSoC5/USBUART_drv.c **** volatile T_USBUART_EP_CTL_BLOCK USBUART_EP[USBUART_MAX_EP];
  25:Generated_Source\PSoC5/USBUART_drv.c **** 
  26:Generated_Source\PSoC5/USBUART_drv.c **** /** Contains the current configuration number, which is set by the host using a 
  27:Generated_Source\PSoC5/USBUART_drv.c ****  * SET_CONFIGURATION request. This variable is initialized to zero in 
  28:Generated_Source\PSoC5/USBUART_drv.c ****  * USBFS_InitComponent() API and can be read by the USBFS_GetConfiguration() 
  29:Generated_Source\PSoC5/USBUART_drv.c ****  * API.*/
  30:Generated_Source\PSoC5/USBUART_drv.c **** volatile uint8 USBUART_configuration;
  31:Generated_Source\PSoC5/USBUART_drv.c **** 
  32:Generated_Source\PSoC5/USBUART_drv.c **** /** Contains the current interface number.*/
  33:Generated_Source\PSoC5/USBUART_drv.c **** volatile uint8 USBUART_interfaceNumber;
  34:Generated_Source\PSoC5/USBUART_drv.c **** 
  35:Generated_Source\PSoC5/USBUART_drv.c **** /** This variable is set to one after SET_CONFIGURATION and SET_INTERFACE 
  36:Generated_Source\PSoC5/USBUART_drv.c ****  *requests. It can be read by the USBFS_IsConfigurationChanged() API */
  37:Generated_Source\PSoC5/USBUART_drv.c **** volatile uint8 USBUART_configurationChanged;
  38:Generated_Source\PSoC5/USBUART_drv.c **** 
  39:Generated_Source\PSoC5/USBUART_drv.c **** /** Contains the current device address.*/
  40:Generated_Source\PSoC5/USBUART_drv.c **** volatile uint8 USBUART_deviceAddress;
  41:Generated_Source\PSoC5/USBUART_drv.c **** 
  42:Generated_Source\PSoC5/USBUART_drv.c **** /** This is a two-bit variable that contains power status in the bit 0 
  43:Generated_Source\PSoC5/USBUART_drv.c ****  * (DEVICE_STATUS_BUS_POWERED or DEVICE_STATUS_SELF_POWERED) and remote wakeup 
  44:Generated_Source\PSoC5/USBUART_drv.c ****  * status (DEVICE_STATUS_REMOTE_WAKEUP) in the bit 1. This variable is 
  45:Generated_Source\PSoC5/USBUART_drv.c ****  * initialized to zero in USBFS_InitComponent() API, configured by the 
  46:Generated_Source\PSoC5/USBUART_drv.c ****  * USBFS_SetPowerStatus() API. The remote wakeup status cannot be set using the 
  47:Generated_Source\PSoC5/USBUART_drv.c ****  * API SetPowerStatus(). */
  48:Generated_Source\PSoC5/USBUART_drv.c **** volatile uint8 USBUART_deviceStatus;
  49:Generated_Source\PSoC5/USBUART_drv.c **** 
  50:Generated_Source\PSoC5/USBUART_drv.c **** volatile uint8 USBUART_interfaceSetting[USBUART_MAX_INTERFACES_NUMBER];
  51:Generated_Source\PSoC5/USBUART_drv.c **** volatile uint8 USBUART_interfaceSetting_last[USBUART_MAX_INTERFACES_NUMBER];
  52:Generated_Source\PSoC5/USBUART_drv.c **** volatile uint8 USBUART_interfaceStatus[USBUART_MAX_INTERFACES_NUMBER];
  53:Generated_Source\PSoC5/USBUART_drv.c **** 
  54:Generated_Source\PSoC5/USBUART_drv.c **** /** Contains the started device number. This variable is set by the 
  55:Generated_Source\PSoC5/USBUART_drv.c ****  * USBFS_Start() or USBFS_InitComponent() APIs.*/
  56:Generated_Source\PSoC5/USBUART_drv.c **** volatile uint8 USBUART_device;
  57:Generated_Source\PSoC5/USBUART_drv.c **** 
  58:Generated_Source\PSoC5/USBUART_drv.c **** /** Initialized class array for each interface. It is used for handling Class 
  59:Generated_Source\PSoC5/USBUART_drv.c ****  * specific requests depend on interface class. Different classes in multiple 
  60:Generated_Source\PSoC5/USBUART_drv.c ****  * alternate settings are not supported.*/
  61:Generated_Source\PSoC5/USBUART_drv.c **** const uint8 CYCODE *USBUART_interfaceClass;
  62:Generated_Source\PSoC5/USBUART_drv.c **** 
  63:Generated_Source\PSoC5/USBUART_drv.c **** 
  64:Generated_Source\PSoC5/USBUART_drv.c **** /***************************************
  65:Generated_Source\PSoC5/USBUART_drv.c **** * Local data allocation
  66:Generated_Source\PSoC5/USBUART_drv.c **** ***************************************/
  67:Generated_Source\PSoC5/USBUART_drv.c **** 
  68:Generated_Source\PSoC5/USBUART_drv.c **** volatile uint8  USBUART_ep0Toggle;
  69:Generated_Source\PSoC5/USBUART_drv.c **** volatile uint8  USBUART_lastPacketSize;
ARM GAS  C:\Users\HPz420\AppData\Local\Temp\ccyisMw6.s 			page 3


  70:Generated_Source\PSoC5/USBUART_drv.c **** 
  71:Generated_Source\PSoC5/USBUART_drv.c **** /** This variable is used by the communication functions to handle the current 
  72:Generated_Source\PSoC5/USBUART_drv.c **** * transfer state.
  73:Generated_Source\PSoC5/USBUART_drv.c **** * Initialized to TRANS_STATE_IDLE in the USBFS_InitComponent() API and after a 
  74:Generated_Source\PSoC5/USBUART_drv.c **** * complete transfer in the status stage.
  75:Generated_Source\PSoC5/USBUART_drv.c **** * Changed to the TRANS_STATE_CONTROL_READ or TRANS_STATE_CONTROL_WRITE in setup 
  76:Generated_Source\PSoC5/USBUART_drv.c **** * transaction depending on the request type.
  77:Generated_Source\PSoC5/USBUART_drv.c **** */
  78:Generated_Source\PSoC5/USBUART_drv.c **** volatile uint8  USBUART_transferState;
  79:Generated_Source\PSoC5/USBUART_drv.c **** volatile T_USBUART_TD USBUART_currentTD;
  80:Generated_Source\PSoC5/USBUART_drv.c **** volatile uint8  USBUART_ep0Mode;
  81:Generated_Source\PSoC5/USBUART_drv.c **** volatile uint8  USBUART_ep0Count;
  82:Generated_Source\PSoC5/USBUART_drv.c **** volatile uint16 USBUART_transferByteCount;
  83:Generated_Source\PSoC5/USBUART_drv.c **** 
  84:Generated_Source\PSoC5/USBUART_drv.c **** 
  85:Generated_Source\PSoC5/USBUART_drv.c **** /*******************************************************************************
  86:Generated_Source\PSoC5/USBUART_drv.c **** * Function Name: USBUART_ep_0_Interrupt
  87:Generated_Source\PSoC5/USBUART_drv.c **** ****************************************************************************//**
  88:Generated_Source\PSoC5/USBUART_drv.c **** *
  89:Generated_Source\PSoC5/USBUART_drv.c **** *  This Interrupt Service Routine handles Endpoint 0 (Control Pipe) traffic.
  90:Generated_Source\PSoC5/USBUART_drv.c **** *  It dispatches setup requests and handles the data and status stages.
  91:Generated_Source\PSoC5/USBUART_drv.c **** *
  92:Generated_Source\PSoC5/USBUART_drv.c **** *
  93:Generated_Source\PSoC5/USBUART_drv.c **** *******************************************************************************/
  94:Generated_Source\PSoC5/USBUART_drv.c **** CY_ISR(USBUART_EP_0_ISR)
  95:Generated_Source\PSoC5/USBUART_drv.c **** {
  46              		.loc 1 95 0
  47              		.cfi_startproc
  48              		@ args = 0, pretend = 0, frame = 8
  49              		@ frame_needed = 1, uses_anonymous_args = 0
  50 0000 80B5     		push	{r7, lr}
  51              		.cfi_def_cfa_offset 8
  52              		.cfi_offset 7, -8
  53              		.cfi_offset 14, -4
  54 0002 82B0     		sub	sp, sp, #8
  55              		.cfi_def_cfa_offset 16
  56 0004 00AF     		add	r7, sp, #0
  57              		.cfi_def_cfa_register 7
  96:Generated_Source\PSoC5/USBUART_drv.c ****     uint8 tempReg;
  97:Generated_Source\PSoC5/USBUART_drv.c ****     uint8 modifyReg;
  98:Generated_Source\PSoC5/USBUART_drv.c **** 
  99:Generated_Source\PSoC5/USBUART_drv.c **** #ifdef USBUART_EP_0_ISR_ENTRY_CALLBACK
 100:Generated_Source\PSoC5/USBUART_drv.c ****     USBUART_EP_0_ISR_EntryCallback();
 101:Generated_Source\PSoC5/USBUART_drv.c **** #endif /* (USBUART_EP_0_ISR_ENTRY_CALLBACK) */
 102:Generated_Source\PSoC5/USBUART_drv.c ****     
 103:Generated_Source\PSoC5/USBUART_drv.c ****     tempReg = USBUART_EP0_CR_REG;
  58              		.loc 1 103 0
  59 0006 374B     		ldr	r3, .L12
  60 0008 1B78     		ldrb	r3, [r3]
  61 000a BB71     		strb	r3, [r7, #6]
 104:Generated_Source\PSoC5/USBUART_drv.c ****     if ((tempReg & USBUART_MODE_ACKD) != 0u)
  62              		.loc 1 104 0
  63 000c BB79     		ldrb	r3, [r7, #6]	@ zero_extendqisi2
  64 000e 03F01003 		and	r3, r3, #16
  65 0012 002B     		cmp	r3, #0
  66 0014 62D0     		beq	.L11
 105:Generated_Source\PSoC5/USBUART_drv.c ****     {
ARM GAS  C:\Users\HPz420\AppData\Local\Temp\ccyisMw6.s 			page 4


 106:Generated_Source\PSoC5/USBUART_drv.c ****         modifyReg = 1u;
  67              		.loc 1 106 0
  68 0016 0123     		movs	r3, #1
  69 0018 FB71     		strb	r3, [r7, #7]
 107:Generated_Source\PSoC5/USBUART_drv.c ****         if ((tempReg & USBUART_MODE_SETUP_RCVD) != 0u)
  70              		.loc 1 107 0
  71 001a 97F90630 		ldrsb	r3, [r7, #6]
  72 001e 002B     		cmp	r3, #0
  73 0020 12DA     		bge	.L3
 108:Generated_Source\PSoC5/USBUART_drv.c ****         {
 109:Generated_Source\PSoC5/USBUART_drv.c ****             if ((tempReg & USBUART_MODE_MASK) != USBUART_MODE_NAK_IN_OUT)
  74              		.loc 1 109 0
  75 0022 BB79     		ldrb	r3, [r7, #6]	@ zero_extendqisi2
  76 0024 03F00F03 		and	r3, r3, #15
  77 0028 012B     		cmp	r3, #1
  78 002a 02D0     		beq	.L4
 110:Generated_Source\PSoC5/USBUART_drv.c ****             {
 111:Generated_Source\PSoC5/USBUART_drv.c ****                 /* Mode not equal to NAK_IN_OUT: invalid setup */
 112:Generated_Source\PSoC5/USBUART_drv.c ****                 modifyReg = 0u;
  79              		.loc 1 112 0
  80 002c 0023     		movs	r3, #0
  81 002e FB71     		strb	r3, [r7, #7]
  82 0030 1CE0     		b	.L6
  83              	.L4:
 113:Generated_Source\PSoC5/USBUART_drv.c ****             }
 114:Generated_Source\PSoC5/USBUART_drv.c ****             else
 115:Generated_Source\PSoC5/USBUART_drv.c ****             {
 116:Generated_Source\PSoC5/USBUART_drv.c ****                 USBUART_HandleSetup();
  84              		.loc 1 116 0
  85 0032 FFF7FEFF 		bl	USBUART_HandleSetup
 117:Generated_Source\PSoC5/USBUART_drv.c ****                 
 118:Generated_Source\PSoC5/USBUART_drv.c ****                 if ((USBUART_ep0Mode & USBUART_MODE_SETUP_RCVD) != 0u)
  86              		.loc 1 118 0
  87 0036 2C4B     		ldr	r3, .L12+4
  88 0038 1B78     		ldrb	r3, [r3]
  89 003a DBB2     		uxtb	r3, r3
  90 003c 5BB2     		sxtb	r3, r3
  91 003e 002B     		cmp	r3, #0
  92 0040 14DA     		bge	.L6
 119:Generated_Source\PSoC5/USBUART_drv.c ****                 {
 120:Generated_Source\PSoC5/USBUART_drv.c ****                     /* SETUP bit set: exit without mode modificaiton */
 121:Generated_Source\PSoC5/USBUART_drv.c ****                     modifyReg = 0u;
  93              		.loc 1 121 0
  94 0042 0023     		movs	r3, #0
  95 0044 FB71     		strb	r3, [r7, #7]
  96 0046 11E0     		b	.L6
  97              	.L3:
 122:Generated_Source\PSoC5/USBUART_drv.c ****                 }
 123:Generated_Source\PSoC5/USBUART_drv.c ****             }
 124:Generated_Source\PSoC5/USBUART_drv.c ****         }
 125:Generated_Source\PSoC5/USBUART_drv.c ****         else if ((tempReg & USBUART_MODE_IN_RCVD) != 0u)
  98              		.loc 1 125 0
  99 0048 BB79     		ldrb	r3, [r7, #6]	@ zero_extendqisi2
 100 004a 03F04003 		and	r3, r3, #64
 101 004e 002B     		cmp	r3, #0
 102 0050 02D0     		beq	.L7
 126:Generated_Source\PSoC5/USBUART_drv.c ****         {
ARM GAS  C:\Users\HPz420\AppData\Local\Temp\ccyisMw6.s 			page 5


 127:Generated_Source\PSoC5/USBUART_drv.c ****             USBUART_HandleIN();
 103              		.loc 1 127 0
 104 0052 FFF7FEFF 		bl	USBUART_HandleIN
 105 0056 09E0     		b	.L6
 106              	.L7:
 128:Generated_Source\PSoC5/USBUART_drv.c ****         }
 129:Generated_Source\PSoC5/USBUART_drv.c ****         else if ((tempReg & USBUART_MODE_OUT_RCVD) != 0u)
 107              		.loc 1 129 0
 108 0058 BB79     		ldrb	r3, [r7, #6]	@ zero_extendqisi2
 109 005a 03F02003 		and	r3, r3, #32
 110 005e 002B     		cmp	r3, #0
 111 0060 02D0     		beq	.L8
 130:Generated_Source\PSoC5/USBUART_drv.c ****         {
 131:Generated_Source\PSoC5/USBUART_drv.c ****             USBUART_HandleOUT();
 112              		.loc 1 131 0
 113 0062 FFF7FEFF 		bl	USBUART_HandleOUT
 114 0066 01E0     		b	.L6
 115              	.L8:
 132:Generated_Source\PSoC5/USBUART_drv.c ****         }
 133:Generated_Source\PSoC5/USBUART_drv.c ****         else
 134:Generated_Source\PSoC5/USBUART_drv.c ****         {
 135:Generated_Source\PSoC5/USBUART_drv.c ****             modifyReg = 0u;
 116              		.loc 1 135 0
 117 0068 0023     		movs	r3, #0
 118 006a FB71     		strb	r3, [r7, #7]
 119              	.L6:
 136:Generated_Source\PSoC5/USBUART_drv.c ****         }
 137:Generated_Source\PSoC5/USBUART_drv.c ****         
 138:Generated_Source\PSoC5/USBUART_drv.c ****         /* Modify the EP0_CR register */
 139:Generated_Source\PSoC5/USBUART_drv.c ****         if (modifyReg != 0u)
 120              		.loc 1 139 0
 121 006c FB79     		ldrb	r3, [r7, #7]	@ zero_extendqisi2
 122 006e 002B     		cmp	r3, #0
 123 0070 34D0     		beq	.L11
 140:Generated_Source\PSoC5/USBUART_drv.c ****         {
 141:Generated_Source\PSoC5/USBUART_drv.c ****             
 142:Generated_Source\PSoC5/USBUART_drv.c ****             tempReg = USBUART_EP0_CR_REG;
 124              		.loc 1 142 0
 125 0072 1C4B     		ldr	r3, .L12
 126 0074 1B78     		ldrb	r3, [r3]
 127 0076 BB71     		strb	r3, [r7, #6]
 143:Generated_Source\PSoC5/USBUART_drv.c ****             
 144:Generated_Source\PSoC5/USBUART_drv.c ****             /* Make sure that SETUP bit is cleared before modification */
 145:Generated_Source\PSoC5/USBUART_drv.c ****             if ((tempReg & USBUART_MODE_SETUP_RCVD) == 0u)
 128              		.loc 1 145 0
 129 0078 97F90630 		ldrsb	r3, [r7, #6]
 130 007c 002B     		cmp	r3, #0
 131 007e 2DDB     		blt	.L11
 146:Generated_Source\PSoC5/USBUART_drv.c ****             {
 147:Generated_Source\PSoC5/USBUART_drv.c ****                 /* Update count register */
 148:Generated_Source\PSoC5/USBUART_drv.c ****                 tempReg = (uint8) USBUART_ep0Toggle | USBUART_ep0Count;
 132              		.loc 1 148 0
 133 0080 1A4B     		ldr	r3, .L12+8
 134 0082 1B78     		ldrb	r3, [r3]
 135 0084 DAB2     		uxtb	r2, r3
 136 0086 1A4B     		ldr	r3, .L12+12
 137 0088 1B78     		ldrb	r3, [r3]
ARM GAS  C:\Users\HPz420\AppData\Local\Temp\ccyisMw6.s 			page 6


 138 008a DBB2     		uxtb	r3, r3
 139 008c 1343     		orrs	r3, r3, r2
 140 008e BB71     		strb	r3, [r7, #6]
 149:Generated_Source\PSoC5/USBUART_drv.c ****                 USBUART_EP0_CNT_REG = tempReg;
 141              		.loc 1 149 0
 142 0090 184A     		ldr	r2, .L12+16
 143 0092 BB79     		ldrb	r3, [r7, #6]
 144 0094 1370     		strb	r3, [r2]
 150:Generated_Source\PSoC5/USBUART_drv.c ****                
 151:Generated_Source\PSoC5/USBUART_drv.c ****                 /* Make sure that previous write operaiton was successful */
 152:Generated_Source\PSoC5/USBUART_drv.c ****                 if (tempReg == USBUART_EP0_CNT_REG)
 145              		.loc 1 152 0
 146 0096 174B     		ldr	r3, .L12+16
 147 0098 1B78     		ldrb	r3, [r3]
 148 009a DBB2     		uxtb	r3, r3
 149 009c BA79     		ldrb	r2, [r7, #6]	@ zero_extendqisi2
 150 009e 9A42     		cmp	r2, r3
 151 00a0 1CD1     		bne	.L11
 152              	.L10:
 153:Generated_Source\PSoC5/USBUART_drv.c ****                 {
 154:Generated_Source\PSoC5/USBUART_drv.c ****                     /* Repeat until next successful write operation */
 155:Generated_Source\PSoC5/USBUART_drv.c ****                     do
 156:Generated_Source\PSoC5/USBUART_drv.c ****                     {
 157:Generated_Source\PSoC5/USBUART_drv.c ****                         /* Init temporary variable */
 158:Generated_Source\PSoC5/USBUART_drv.c ****                         modifyReg = USBUART_ep0Mode;
 153              		.loc 1 158 0
 154 00a2 114B     		ldr	r3, .L12+4
 155 00a4 1B78     		ldrb	r3, [r3]
 156 00a6 FB71     		strb	r3, [r7, #7]
 159:Generated_Source\PSoC5/USBUART_drv.c ****                         
 160:Generated_Source\PSoC5/USBUART_drv.c ****                         /* Unlock register */
 161:Generated_Source\PSoC5/USBUART_drv.c ****                         tempReg = (uint8) (USBUART_EP0_CR_REG & USBUART_MODE_SETUP_RCVD);
 157              		.loc 1 161 0
 158 00a8 0E4B     		ldr	r3, .L12
 159 00aa 1B78     		ldrb	r3, [r3]
 160 00ac DBB2     		uxtb	r3, r3
 161 00ae 23F07F03 		bic	r3, r3, #127
 162 00b2 BB71     		strb	r3, [r7, #6]
 162:Generated_Source\PSoC5/USBUART_drv.c ****                         
 163:Generated_Source\PSoC5/USBUART_drv.c ****                         /* Check if SETUP bit is not set */
 164:Generated_Source\PSoC5/USBUART_drv.c ****                         if (0u == tempReg)
 163              		.loc 1 164 0
 164 00b4 BB79     		ldrb	r3, [r7, #6]	@ zero_extendqisi2
 165 00b6 002B     		cmp	r3, #0
 166 00b8 0AD1     		bne	.L9
 165:Generated_Source\PSoC5/USBUART_drv.c ****                         {
 166:Generated_Source\PSoC5/USBUART_drv.c ****                             /* Set the Mode Register  */
 167:Generated_Source\PSoC5/USBUART_drv.c ****                             USBUART_EP0_CR_REG = USBUART_ep0Mode;
 167              		.loc 1 167 0
 168 00ba 0A4B     		ldr	r3, .L12
 169 00bc 0A4A     		ldr	r2, .L12+4
 170 00be 1278     		ldrb	r2, [r2]
 171 00c0 D2B2     		uxtb	r2, r2
 172 00c2 1A70     		strb	r2, [r3]
 168:Generated_Source\PSoC5/USBUART_drv.c ****                             
 169:Generated_Source\PSoC5/USBUART_drv.c ****                             /* Writing check */
 170:Generated_Source\PSoC5/USBUART_drv.c ****                             modifyReg = USBUART_EP0_CR_REG & USBUART_MODE_MASK;
ARM GAS  C:\Users\HPz420\AppData\Local\Temp\ccyisMw6.s 			page 7


 173              		.loc 1 170 0
 174 00c4 074B     		ldr	r3, .L12
 175 00c6 1B78     		ldrb	r3, [r3]
 176 00c8 DBB2     		uxtb	r3, r3
 177 00ca 03F00F03 		and	r3, r3, #15
 178 00ce FB71     		strb	r3, [r7, #7]
 179              	.L9:
 171:Generated_Source\PSoC5/USBUART_drv.c ****                         }
 172:Generated_Source\PSoC5/USBUART_drv.c ****                     }
 173:Generated_Source\PSoC5/USBUART_drv.c ****                     while (modifyReg != USBUART_ep0Mode);
 180              		.loc 1 173 0
 181 00d0 054B     		ldr	r3, .L12+4
 182 00d2 1B78     		ldrb	r3, [r3]
 183 00d4 DBB2     		uxtb	r3, r3
 184 00d6 FA79     		ldrb	r2, [r7, #7]	@ zero_extendqisi2
 185 00d8 9A42     		cmp	r2, r3
 186 00da E2D1     		bne	.L10
 187              	.L11:
 174:Generated_Source\PSoC5/USBUART_drv.c ****                 }
 175:Generated_Source\PSoC5/USBUART_drv.c ****             }
 176:Generated_Source\PSoC5/USBUART_drv.c ****         }
 177:Generated_Source\PSoC5/USBUART_drv.c ****     }
 178:Generated_Source\PSoC5/USBUART_drv.c **** 
 179:Generated_Source\PSoC5/USBUART_drv.c ****     USBUART_ClearSieInterruptSource(USBUART_INTR_SIE_EP0_INTR);
 180:Generated_Source\PSoC5/USBUART_drv.c **** 	
 181:Generated_Source\PSoC5/USBUART_drv.c **** #ifdef USBUART_EP_0_ISR_EXIT_CALLBACK
 182:Generated_Source\PSoC5/USBUART_drv.c ****     USBUART_EP_0_ISR_ExitCallback();
 183:Generated_Source\PSoC5/USBUART_drv.c **** #endif /* (USBUART_EP_0_ISR_EXIT_CALLBACK) */
 184:Generated_Source\PSoC5/USBUART_drv.c **** }
 188              		.loc 1 184 0
 189 00dc 00BF     		nop
 190 00de 0837     		adds	r7, r7, #8
 191              		.cfi_def_cfa_offset 8
 192 00e0 BD46     		mov	sp, r7
 193              		.cfi_def_cfa_register 13
 194              		@ sp needed
 195 00e2 80BD     		pop	{r7, pc}
 196              	.L13:
 197              		.align	2
 198              	.L12:
 199 00e4 28600040 		.word	1073766440
 200 00e8 00000000 		.word	USBUART_ep0Mode
 201 00ec 00000000 		.word	USBUART_ep0Toggle
 202 00f0 00000000 		.word	USBUART_ep0Count
 203 00f4 29600040 		.word	1073766441
 204              		.cfi_endproc
 205              	.LFE0:
 206              		.size	USBUART_EP_0_ISR, .-USBUART_EP_0_ISR
 207              		.section	.text.USBUART_HandleSetup,"ax",%progbits
 208              		.align	2
 209              		.global	USBUART_HandleSetup
 210              		.thumb
 211              		.thumb_func
 212              		.type	USBUART_HandleSetup, %function
 213              	USBUART_HandleSetup:
 214              	.LFB1:
 185:Generated_Source\PSoC5/USBUART_drv.c **** 
ARM GAS  C:\Users\HPz420\AppData\Local\Temp\ccyisMw6.s 			page 8


 186:Generated_Source\PSoC5/USBUART_drv.c **** 
 187:Generated_Source\PSoC5/USBUART_drv.c **** /*******************************************************************************
 188:Generated_Source\PSoC5/USBUART_drv.c **** * Function Name: USBUART_HandleSetup
 189:Generated_Source\PSoC5/USBUART_drv.c **** ****************************************************************************//**
 190:Generated_Source\PSoC5/USBUART_drv.c **** *
 191:Generated_Source\PSoC5/USBUART_drv.c **** *  This Routine dispatches requests for the four USB request types
 192:Generated_Source\PSoC5/USBUART_drv.c **** *
 193:Generated_Source\PSoC5/USBUART_drv.c **** *
 194:Generated_Source\PSoC5/USBUART_drv.c **** * \reentrant
 195:Generated_Source\PSoC5/USBUART_drv.c **** *  No.
 196:Generated_Source\PSoC5/USBUART_drv.c **** *
 197:Generated_Source\PSoC5/USBUART_drv.c **** *******************************************************************************/
 198:Generated_Source\PSoC5/USBUART_drv.c **** void USBUART_HandleSetup(void) 
 199:Generated_Source\PSoC5/USBUART_drv.c **** {
 215              		.loc 1 199 0
 216              		.cfi_startproc
 217              		@ args = 0, pretend = 0, frame = 8
 218              		@ frame_needed = 1, uses_anonymous_args = 0
 219 0000 80B5     		push	{r7, lr}
 220              		.cfi_def_cfa_offset 8
 221              		.cfi_offset 7, -8
 222              		.cfi_offset 14, -4
 223 0002 82B0     		sub	sp, sp, #8
 224              		.cfi_def_cfa_offset 16
 225 0004 00AF     		add	r7, sp, #0
 226              		.cfi_def_cfa_register 7
 200:Generated_Source\PSoC5/USBUART_drv.c ****     uint8 requestHandled;
 201:Generated_Source\PSoC5/USBUART_drv.c ****     
 202:Generated_Source\PSoC5/USBUART_drv.c ****     /* Clear register lock by SIE (read register) and clear setup bit 
 203:Generated_Source\PSoC5/USBUART_drv.c ****     * (write any value in register).
 204:Generated_Source\PSoC5/USBUART_drv.c ****     */
 205:Generated_Source\PSoC5/USBUART_drv.c ****     requestHandled = (uint8) USBUART_EP0_CR_REG;
 227              		.loc 1 205 0
 228 0006 1D4B     		ldr	r3, .L24
 229 0008 1B78     		ldrb	r3, [r3]
 230 000a FB71     		strb	r3, [r7, #7]
 206:Generated_Source\PSoC5/USBUART_drv.c ****     USBUART_EP0_CR_REG = (uint8) requestHandled;
 231              		.loc 1 206 0
 232 000c 1B4A     		ldr	r2, .L24
 233 000e FB79     		ldrb	r3, [r7, #7]
 234 0010 1370     		strb	r3, [r2]
 207:Generated_Source\PSoC5/USBUART_drv.c ****     requestHandled = (uint8) USBUART_EP0_CR_REG;
 235              		.loc 1 207 0
 236 0012 1A4B     		ldr	r3, .L24
 237 0014 1B78     		ldrb	r3, [r3]
 238 0016 FB71     		strb	r3, [r7, #7]
 208:Generated_Source\PSoC5/USBUART_drv.c **** 
 209:Generated_Source\PSoC5/USBUART_drv.c ****     if ((requestHandled & USBUART_MODE_SETUP_RCVD) != 0u)
 239              		.loc 1 209 0
 240 0018 97F90730 		ldrsb	r3, [r7, #7]
 241 001c 002B     		cmp	r3, #0
 242 001e 03DA     		bge	.L15
 210:Generated_Source\PSoC5/USBUART_drv.c ****     {
 211:Generated_Source\PSoC5/USBUART_drv.c ****         /* SETUP bit is set: exit without mode modification. */
 212:Generated_Source\PSoC5/USBUART_drv.c ****         USBUART_ep0Mode = requestHandled;
 243              		.loc 1 212 0
 244 0020 174A     		ldr	r2, .L24+4
ARM GAS  C:\Users\HPz420\AppData\Local\Temp\ccyisMw6.s 			page 9


 245 0022 FB79     		ldrb	r3, [r7, #7]
 246 0024 1370     		strb	r3, [r2]
 213:Generated_Source\PSoC5/USBUART_drv.c ****     }
 214:Generated_Source\PSoC5/USBUART_drv.c ****     else
 215:Generated_Source\PSoC5/USBUART_drv.c ****     {
 216:Generated_Source\PSoC5/USBUART_drv.c ****         /* In case the previous transfer did not complete, close it out */
 217:Generated_Source\PSoC5/USBUART_drv.c ****         USBUART_UpdateStatusBlock(USBUART_XFER_PREMATURE);
 218:Generated_Source\PSoC5/USBUART_drv.c **** 
 219:Generated_Source\PSoC5/USBUART_drv.c ****         /* Check request type. */
 220:Generated_Source\PSoC5/USBUART_drv.c ****         switch (USBUART_bmRequestTypeReg & USBUART_RQST_TYPE_MASK)
 221:Generated_Source\PSoC5/USBUART_drv.c ****         {
 222:Generated_Source\PSoC5/USBUART_drv.c ****             case USBUART_RQST_TYPE_STD:
 223:Generated_Source\PSoC5/USBUART_drv.c ****                 requestHandled = USBUART_HandleStandardRqst();
 224:Generated_Source\PSoC5/USBUART_drv.c ****                 break;
 225:Generated_Source\PSoC5/USBUART_drv.c ****                 
 226:Generated_Source\PSoC5/USBUART_drv.c ****             case USBUART_RQST_TYPE_CLS:
 227:Generated_Source\PSoC5/USBUART_drv.c ****                 requestHandled = USBUART_DispatchClassRqst();
 228:Generated_Source\PSoC5/USBUART_drv.c ****                 break;
 229:Generated_Source\PSoC5/USBUART_drv.c ****                 
 230:Generated_Source\PSoC5/USBUART_drv.c ****             case USBUART_RQST_TYPE_VND:
 231:Generated_Source\PSoC5/USBUART_drv.c ****                 requestHandled = USBUART_HandleVendorRqst();
 232:Generated_Source\PSoC5/USBUART_drv.c ****                 break;
 233:Generated_Source\PSoC5/USBUART_drv.c ****                 
 234:Generated_Source\PSoC5/USBUART_drv.c ****             default:
 235:Generated_Source\PSoC5/USBUART_drv.c ****                 requestHandled = USBUART_FALSE;
 236:Generated_Source\PSoC5/USBUART_drv.c ****                 break;
 237:Generated_Source\PSoC5/USBUART_drv.c ****         }
 238:Generated_Source\PSoC5/USBUART_drv.c ****         
 239:Generated_Source\PSoC5/USBUART_drv.c ****         /* If request is not recognized. Stall endpoint 0 IN and OUT. */
 240:Generated_Source\PSoC5/USBUART_drv.c ****         if (requestHandled == USBUART_FALSE)
 241:Generated_Source\PSoC5/USBUART_drv.c ****         {
 242:Generated_Source\PSoC5/USBUART_drv.c ****             USBUART_ep0Mode = USBUART_MODE_STALL_IN_OUT;
 243:Generated_Source\PSoC5/USBUART_drv.c ****         }
 244:Generated_Source\PSoC5/USBUART_drv.c ****     }
 245:Generated_Source\PSoC5/USBUART_drv.c **** }
 247              		.loc 1 245 0
 248 0026 25E0     		b	.L23
 249              	.L15:
 217:Generated_Source\PSoC5/USBUART_drv.c **** 
 250              		.loc 1 217 0
 251 0028 0220     		movs	r0, #2
 252 002a FFF7FEFF 		bl	USBUART_UpdateStatusBlock
 220:Generated_Source\PSoC5/USBUART_drv.c ****         {
 253              		.loc 1 220 0
 254 002e 154B     		ldr	r3, .L24+8
 255 0030 1B78     		ldrb	r3, [r3]
 256 0032 DBB2     		uxtb	r3, r3
 257 0034 03F06003 		and	r3, r3, #96
 258 0038 202B     		cmp	r3, #32
 259 003a 08D0     		beq	.L18
 260 003c 402B     		cmp	r3, #64
 261 003e 0BD0     		beq	.L19
 262 0040 002B     		cmp	r3, #0
 263 0042 0ED1     		bne	.L22
 223:Generated_Source\PSoC5/USBUART_drv.c ****                 break;
 264              		.loc 1 223 0
 265 0044 FFF7FEFF 		bl	USBUART_HandleStandardRqst
ARM GAS  C:\Users\HPz420\AppData\Local\Temp\ccyisMw6.s 			page 10


 266 0048 0346     		mov	r3, r0
 267 004a FB71     		strb	r3, [r7, #7]
 224:Generated_Source\PSoC5/USBUART_drv.c ****                 
 268              		.loc 1 224 0
 269 004c 0CE0     		b	.L21
 270              	.L18:
 227:Generated_Source\PSoC5/USBUART_drv.c ****                 break;
 271              		.loc 1 227 0
 272 004e FFF7FEFF 		bl	USBUART_DispatchClassRqst
 273 0052 0346     		mov	r3, r0
 274 0054 FB71     		strb	r3, [r7, #7]
 228:Generated_Source\PSoC5/USBUART_drv.c ****                 
 275              		.loc 1 228 0
 276 0056 07E0     		b	.L21
 277              	.L19:
 231:Generated_Source\PSoC5/USBUART_drv.c ****                 break;
 278              		.loc 1 231 0
 279 0058 FFF7FEFF 		bl	USBUART_HandleVendorRqst
 280 005c 0346     		mov	r3, r0
 281 005e FB71     		strb	r3, [r7, #7]
 232:Generated_Source\PSoC5/USBUART_drv.c ****                 
 282              		.loc 1 232 0
 283 0060 02E0     		b	.L21
 284              	.L22:
 235:Generated_Source\PSoC5/USBUART_drv.c ****                 break;
 285              		.loc 1 235 0
 286 0062 0023     		movs	r3, #0
 287 0064 FB71     		strb	r3, [r7, #7]
 236:Generated_Source\PSoC5/USBUART_drv.c ****         }
 288              		.loc 1 236 0
 289 0066 00BF     		nop
 290              	.L21:
 240:Generated_Source\PSoC5/USBUART_drv.c ****         {
 291              		.loc 1 240 0
 292 0068 FB79     		ldrb	r3, [r7, #7]	@ zero_extendqisi2
 293 006a 002B     		cmp	r3, #0
 294 006c 02D1     		bne	.L23
 242:Generated_Source\PSoC5/USBUART_drv.c ****         }
 295              		.loc 1 242 0
 296 006e 044B     		ldr	r3, .L24+4
 297 0070 0322     		movs	r2, #3
 298 0072 1A70     		strb	r2, [r3]
 299              	.L23:
 300              		.loc 1 245 0
 301 0074 00BF     		nop
 302 0076 0837     		adds	r7, r7, #8
 303              		.cfi_def_cfa_offset 8
 304 0078 BD46     		mov	sp, r7
 305              		.cfi_def_cfa_register 13
 306              		@ sp needed
 307 007a 80BD     		pop	{r7, pc}
 308              	.L25:
 309              		.align	2
 310              	.L24:
 311 007c 28600040 		.word	1073766440
 312 0080 00000000 		.word	USBUART_ep0Mode
 313 0084 00600040 		.word	1073766400
ARM GAS  C:\Users\HPz420\AppData\Local\Temp\ccyisMw6.s 			page 11


 314              		.cfi_endproc
 315              	.LFE1:
 316              		.size	USBUART_HandleSetup, .-USBUART_HandleSetup
 317              		.section	.text.USBUART_HandleIN,"ax",%progbits
 318              		.align	2
 319              		.global	USBUART_HandleIN
 320              		.thumb
 321              		.thumb_func
 322              		.type	USBUART_HandleIN, %function
 323              	USBUART_HandleIN:
 324              	.LFB2:
 246:Generated_Source\PSoC5/USBUART_drv.c **** 
 247:Generated_Source\PSoC5/USBUART_drv.c **** 
 248:Generated_Source\PSoC5/USBUART_drv.c **** /*******************************************************************************
 249:Generated_Source\PSoC5/USBUART_drv.c **** * Function Name: USBUART_HandleIN
 250:Generated_Source\PSoC5/USBUART_drv.c **** ****************************************************************************//**
 251:Generated_Source\PSoC5/USBUART_drv.c **** *
 252:Generated_Source\PSoC5/USBUART_drv.c **** *  This routine handles EP0 IN transfers.
 253:Generated_Source\PSoC5/USBUART_drv.c **** *
 254:Generated_Source\PSoC5/USBUART_drv.c **** *
 255:Generated_Source\PSoC5/USBUART_drv.c **** * \reentrant
 256:Generated_Source\PSoC5/USBUART_drv.c **** *  No.
 257:Generated_Source\PSoC5/USBUART_drv.c **** *
 258:Generated_Source\PSoC5/USBUART_drv.c **** *******************************************************************************/
 259:Generated_Source\PSoC5/USBUART_drv.c **** void USBUART_HandleIN(void) 
 260:Generated_Source\PSoC5/USBUART_drv.c **** {
 325              		.loc 1 260 0
 326              		.cfi_startproc
 327              		@ args = 0, pretend = 0, frame = 0
 328              		@ frame_needed = 1, uses_anonymous_args = 0
 329 0000 80B5     		push	{r7, lr}
 330              		.cfi_def_cfa_offset 8
 331              		.cfi_offset 7, -8
 332              		.cfi_offset 14, -4
 333 0002 00AF     		add	r7, sp, #0
 334              		.cfi_def_cfa_register 7
 261:Generated_Source\PSoC5/USBUART_drv.c ****     switch (USBUART_transferState)
 335              		.loc 1 261 0
 336 0004 104B     		ldr	r3, .L35
 337 0006 1B78     		ldrb	r3, [r3]
 338 0008 DBB2     		uxtb	r3, r3
 339 000a 062B     		cmp	r3, #6
 340 000c 19D8     		bhi	.L34
 341 000e 01A2     		adr	r2, .L29
 342 0010 52F823F0 		ldr	pc, [r2, r3, lsl #2]
 343              		.p2align 2
 344              	.L29:
 345 0014 43000000 		.word	.L34+1
 346 0018 43000000 		.word	.L34+1
 347 001c 31000000 		.word	.L30+1
 348 0020 43000000 		.word	.L34+1
 349 0024 37000000 		.word	.L31+1
 350 0028 43000000 		.word	.L34+1
 351 002c 3D000000 		.word	.L32+1
 352              		.p2align 1
 353              	.L30:
 262:Generated_Source\PSoC5/USBUART_drv.c ****     {
ARM GAS  C:\Users\HPz420\AppData\Local\Temp\ccyisMw6.s 			page 12


 263:Generated_Source\PSoC5/USBUART_drv.c ****         case USBUART_TRANS_STATE_IDLE:
 264:Generated_Source\PSoC5/USBUART_drv.c ****             break;
 265:Generated_Source\PSoC5/USBUART_drv.c ****         
 266:Generated_Source\PSoC5/USBUART_drv.c ****         case USBUART_TRANS_STATE_CONTROL_READ:
 267:Generated_Source\PSoC5/USBUART_drv.c ****             USBUART_ControlReadDataStage();
 354              		.loc 1 267 0
 355 0030 FFF7FEFF 		bl	USBUART_ControlReadDataStage
 268:Generated_Source\PSoC5/USBUART_drv.c ****             break;
 356              		.loc 1 268 0
 357 0034 06E0     		b	.L33
 358              	.L31:
 269:Generated_Source\PSoC5/USBUART_drv.c ****             
 270:Generated_Source\PSoC5/USBUART_drv.c ****         case USBUART_TRANS_STATE_CONTROL_WRITE:
 271:Generated_Source\PSoC5/USBUART_drv.c ****             USBUART_ControlWriteStatusStage();
 359              		.loc 1 271 0
 360 0036 FFF7FEFF 		bl	USBUART_ControlWriteStatusStage
 272:Generated_Source\PSoC5/USBUART_drv.c ****             break;
 361              		.loc 1 272 0
 362 003a 03E0     		b	.L33
 363              	.L32:
 273:Generated_Source\PSoC5/USBUART_drv.c ****             
 274:Generated_Source\PSoC5/USBUART_drv.c ****         case USBUART_TRANS_STATE_NO_DATA_CONTROL:
 275:Generated_Source\PSoC5/USBUART_drv.c ****             USBUART_NoDataControlStatusStage();
 364              		.loc 1 275 0
 365 003c FFF7FEFF 		bl	USBUART_NoDataControlStatusStage
 276:Generated_Source\PSoC5/USBUART_drv.c ****             break;
 366              		.loc 1 276 0
 367 0040 00E0     		b	.L33
 368              	.L34:
 277:Generated_Source\PSoC5/USBUART_drv.c ****             
 278:Generated_Source\PSoC5/USBUART_drv.c ****         default:    /* there are no more states */
 279:Generated_Source\PSoC5/USBUART_drv.c ****             break;
 369              		.loc 1 279 0
 370 0042 00BF     		nop
 371              	.L33:
 280:Generated_Source\PSoC5/USBUART_drv.c ****     }
 281:Generated_Source\PSoC5/USBUART_drv.c **** }
 372              		.loc 1 281 0
 373 0044 00BF     		nop
 374 0046 80BD     		pop	{r7, pc}
 375              	.L36:
 376              		.align	2
 377              	.L35:
 378 0048 00000000 		.word	USBUART_transferState
 379              		.cfi_endproc
 380              	.LFE2:
 381              		.size	USBUART_HandleIN, .-USBUART_HandleIN
 382              		.section	.text.USBUART_HandleOUT,"ax",%progbits
 383              		.align	2
 384              		.global	USBUART_HandleOUT
 385              		.thumb
 386              		.thumb_func
 387              		.type	USBUART_HandleOUT, %function
 388              	USBUART_HandleOUT:
 389              	.LFB3:
 282:Generated_Source\PSoC5/USBUART_drv.c **** 
 283:Generated_Source\PSoC5/USBUART_drv.c **** 
ARM GAS  C:\Users\HPz420\AppData\Local\Temp\ccyisMw6.s 			page 13


 284:Generated_Source\PSoC5/USBUART_drv.c **** /*******************************************************************************
 285:Generated_Source\PSoC5/USBUART_drv.c **** * Function Name: USBUART_HandleOUT
 286:Generated_Source\PSoC5/USBUART_drv.c **** ****************************************************************************//**
 287:Generated_Source\PSoC5/USBUART_drv.c **** *
 288:Generated_Source\PSoC5/USBUART_drv.c **** *  This routine handles EP0 OUT transfers.
 289:Generated_Source\PSoC5/USBUART_drv.c **** *
 290:Generated_Source\PSoC5/USBUART_drv.c **** *
 291:Generated_Source\PSoC5/USBUART_drv.c **** * \reentrant
 292:Generated_Source\PSoC5/USBUART_drv.c **** *  No.
 293:Generated_Source\PSoC5/USBUART_drv.c **** *
 294:Generated_Source\PSoC5/USBUART_drv.c **** *******************************************************************************/
 295:Generated_Source\PSoC5/USBUART_drv.c **** void USBUART_HandleOUT(void) 
 296:Generated_Source\PSoC5/USBUART_drv.c **** {
 390              		.loc 1 296 0
 391              		.cfi_startproc
 392              		@ args = 0, pretend = 0, frame = 0
 393              		@ frame_needed = 1, uses_anonymous_args = 0
 394 0000 80B5     		push	{r7, lr}
 395              		.cfi_def_cfa_offset 8
 396              		.cfi_offset 7, -8
 397              		.cfi_offset 14, -4
 398 0002 00AF     		add	r7, sp, #0
 399              		.cfi_def_cfa_register 7
 297:Generated_Source\PSoC5/USBUART_drv.c ****     switch (USBUART_transferState)
 400              		.loc 1 297 0
 401 0004 124B     		ldr	r3, .L46
 402 0006 1B78     		ldrb	r3, [r3]
 403 0008 DBB2     		uxtb	r3, r3
 404 000a 062B     		cmp	r3, #6
 405 000c 1DD8     		bhi	.L45
 406 000e 01A2     		adr	r2, .L40
 407 0010 52F823F0 		ldr	pc, [r2, r3, lsl #2]
 408              		.p2align 2
 409              	.L40:
 410 0014 4B000000 		.word	.L45+1
 411 0018 4B000000 		.word	.L45+1
 412 001c 31000000 		.word	.L41+1
 413 0020 4B000000 		.word	.L45+1
 414 0024 37000000 		.word	.L42+1
 415 0028 4B000000 		.word	.L45+1
 416 002c 3D000000 		.word	.L43+1
 417              		.p2align 1
 418              	.L41:
 298:Generated_Source\PSoC5/USBUART_drv.c ****     {
 299:Generated_Source\PSoC5/USBUART_drv.c ****         case USBUART_TRANS_STATE_IDLE:
 300:Generated_Source\PSoC5/USBUART_drv.c ****             break;
 301:Generated_Source\PSoC5/USBUART_drv.c ****         
 302:Generated_Source\PSoC5/USBUART_drv.c ****         case USBUART_TRANS_STATE_CONTROL_READ:
 303:Generated_Source\PSoC5/USBUART_drv.c ****             USBUART_ControlReadStatusStage();
 419              		.loc 1 303 0
 420 0030 FFF7FEFF 		bl	USBUART_ControlReadStatusStage
 304:Generated_Source\PSoC5/USBUART_drv.c ****             break;
 421              		.loc 1 304 0
 422 0034 0AE0     		b	.L44
 423              	.L42:
 305:Generated_Source\PSoC5/USBUART_drv.c ****             
 306:Generated_Source\PSoC5/USBUART_drv.c ****         case USBUART_TRANS_STATE_CONTROL_WRITE:
ARM GAS  C:\Users\HPz420\AppData\Local\Temp\ccyisMw6.s 			page 14


 307:Generated_Source\PSoC5/USBUART_drv.c ****             USBUART_ControlWriteDataStage();
 424              		.loc 1 307 0
 425 0036 FFF7FEFF 		bl	USBUART_ControlWriteDataStage
 308:Generated_Source\PSoC5/USBUART_drv.c ****             break;
 426              		.loc 1 308 0
 427 003a 07E0     		b	.L44
 428              	.L43:
 309:Generated_Source\PSoC5/USBUART_drv.c ****             
 310:Generated_Source\PSoC5/USBUART_drv.c ****         case USBUART_TRANS_STATE_NO_DATA_CONTROL:
 311:Generated_Source\PSoC5/USBUART_drv.c ****             /* Update the completion block */
 312:Generated_Source\PSoC5/USBUART_drv.c ****             USBUART_UpdateStatusBlock(USBUART_XFER_ERROR);
 429              		.loc 1 312 0
 430 003c 0320     		movs	r0, #3
 431 003e FFF7FEFF 		bl	USBUART_UpdateStatusBlock
 313:Generated_Source\PSoC5/USBUART_drv.c ****             
 314:Generated_Source\PSoC5/USBUART_drv.c ****             /* We expect no more data, so stall INs and OUTs */
 315:Generated_Source\PSoC5/USBUART_drv.c ****             USBUART_ep0Mode = USBUART_MODE_STALL_IN_OUT;
 432              		.loc 1 315 0
 433 0042 044B     		ldr	r3, .L46+4
 434 0044 0322     		movs	r2, #3
 435 0046 1A70     		strb	r2, [r3]
 316:Generated_Source\PSoC5/USBUART_drv.c ****             break;
 436              		.loc 1 316 0
 437 0048 00E0     		b	.L44
 438              	.L45:
 317:Generated_Source\PSoC5/USBUART_drv.c ****             
 318:Generated_Source\PSoC5/USBUART_drv.c ****         default:    
 319:Generated_Source\PSoC5/USBUART_drv.c ****             /* There are no more states */
 320:Generated_Source\PSoC5/USBUART_drv.c ****             break;
 439              		.loc 1 320 0
 440 004a 00BF     		nop
 441              	.L44:
 321:Generated_Source\PSoC5/USBUART_drv.c ****     }
 322:Generated_Source\PSoC5/USBUART_drv.c **** }
 442              		.loc 1 322 0
 443 004c 00BF     		nop
 444 004e 80BD     		pop	{r7, pc}
 445              	.L47:
 446              		.align	2
 447              	.L46:
 448 0050 00000000 		.word	USBUART_transferState
 449 0054 00000000 		.word	USBUART_ep0Mode
 450              		.cfi_endproc
 451              	.LFE3:
 452              		.size	USBUART_HandleOUT, .-USBUART_HandleOUT
 453              		.section	.text.USBUART_LoadEP0,"ax",%progbits
 454              		.align	2
 455              		.global	USBUART_LoadEP0
 456              		.thumb
 457              		.thumb_func
 458              		.type	USBUART_LoadEP0, %function
 459              	USBUART_LoadEP0:
 460              	.LFB4:
 323:Generated_Source\PSoC5/USBUART_drv.c **** 
 324:Generated_Source\PSoC5/USBUART_drv.c **** 
 325:Generated_Source\PSoC5/USBUART_drv.c **** /*******************************************************************************
 326:Generated_Source\PSoC5/USBUART_drv.c **** * Function Name: USBUART_LoadEP0
ARM GAS  C:\Users\HPz420\AppData\Local\Temp\ccyisMw6.s 			page 15


 327:Generated_Source\PSoC5/USBUART_drv.c **** ****************************************************************************//**
 328:Generated_Source\PSoC5/USBUART_drv.c **** *
 329:Generated_Source\PSoC5/USBUART_drv.c **** *  This routine loads the EP0 data registers for OUT transfers. It uses the
 330:Generated_Source\PSoC5/USBUART_drv.c **** *  currentTD (previously initialized by the _InitControlWrite function and
 331:Generated_Source\PSoC5/USBUART_drv.c **** *  updated for each OUT transfer, and the bLastPacketSize) to determine how
 332:Generated_Source\PSoC5/USBUART_drv.c **** *  many uint8s to transfer on the current OUT.
 333:Generated_Source\PSoC5/USBUART_drv.c **** *
 334:Generated_Source\PSoC5/USBUART_drv.c **** *  If the number of uint8s remaining is zero and the last transfer was full,
 335:Generated_Source\PSoC5/USBUART_drv.c **** *  we need to send a zero length packet.  Otherwise we send the minimum
 336:Generated_Source\PSoC5/USBUART_drv.c **** *  of the control endpoint size (8) or remaining number of uint8s for the
 337:Generated_Source\PSoC5/USBUART_drv.c **** *  transaction.
 338:Generated_Source\PSoC5/USBUART_drv.c **** *
 339:Generated_Source\PSoC5/USBUART_drv.c **** *
 340:Generated_Source\PSoC5/USBUART_drv.c **** * \globalvars
 341:Generated_Source\PSoC5/USBUART_drv.c **** *  USBUART_transferByteCount - Update the transfer byte count from the
 342:Generated_Source\PSoC5/USBUART_drv.c **** *     last transaction.
 343:Generated_Source\PSoC5/USBUART_drv.c **** *  USBUART_ep0Count - counts the data loaded to the SIE memory in
 344:Generated_Source\PSoC5/USBUART_drv.c **** *     current packet.
 345:Generated_Source\PSoC5/USBUART_drv.c **** *  USBUART_lastPacketSize - remembers the USBFS_ep0Count value for the
 346:Generated_Source\PSoC5/USBUART_drv.c **** *     next packet.
 347:Generated_Source\PSoC5/USBUART_drv.c **** *  USBUART_transferByteCount - sum of the previous bytes transferred
 348:Generated_Source\PSoC5/USBUART_drv.c **** *     on previous packets(sum of USBFS_lastPacketSize)
 349:Generated_Source\PSoC5/USBUART_drv.c **** *  USBUART_ep0Toggle - inverted
 350:Generated_Source\PSoC5/USBUART_drv.c **** *  USBUART_ep0Mode  - prepare for mode register content.
 351:Generated_Source\PSoC5/USBUART_drv.c **** *  USBUART_transferState - set to TRANS_STATE_CONTROL_READ
 352:Generated_Source\PSoC5/USBUART_drv.c **** *
 353:Generated_Source\PSoC5/USBUART_drv.c **** * \reentrant
 354:Generated_Source\PSoC5/USBUART_drv.c **** *  No.
 355:Generated_Source\PSoC5/USBUART_drv.c **** *
 356:Generated_Source\PSoC5/USBUART_drv.c **** *******************************************************************************/
 357:Generated_Source\PSoC5/USBUART_drv.c **** void USBUART_LoadEP0(void) 
 358:Generated_Source\PSoC5/USBUART_drv.c **** {
 461              		.loc 1 358 0
 462              		.cfi_startproc
 463              		@ args = 0, pretend = 0, frame = 8
 464              		@ frame_needed = 1, uses_anonymous_args = 0
 465              		@ link register save eliminated.
 466 0000 80B4     		push	{r7}
 467              		.cfi_def_cfa_offset 4
 468              		.cfi_offset 7, -4
 469 0002 83B0     		sub	sp, sp, #12
 470              		.cfi_def_cfa_offset 16
 471 0004 00AF     		add	r7, sp, #0
 472              		.cfi_def_cfa_register 7
 359:Generated_Source\PSoC5/USBUART_drv.c ****     uint8 ep0Count = 0u;
 473              		.loc 1 359 0
 474 0006 0023     		movs	r3, #0
 475 0008 FB71     		strb	r3, [r7, #7]
 360:Generated_Source\PSoC5/USBUART_drv.c **** 
 361:Generated_Source\PSoC5/USBUART_drv.c ****     /* Update the transfer byte count from the last transaction */
 362:Generated_Source\PSoC5/USBUART_drv.c ****     USBUART_transferByteCount += USBUART_lastPacketSize;
 476              		.loc 1 362 0
 477 000a 294B     		ldr	r3, .L55
 478 000c 1B78     		ldrb	r3, [r3]
 479 000e DBB2     		uxtb	r3, r3
 480 0010 9AB2     		uxth	r2, r3
 481 0012 284B     		ldr	r3, .L55+4
ARM GAS  C:\Users\HPz420\AppData\Local\Temp\ccyisMw6.s 			page 16


 482 0014 1B88     		ldrh	r3, [r3]	@ movhi
 483 0016 9BB2     		uxth	r3, r3
 484 0018 1344     		add	r3, r3, r2
 485 001a 9AB2     		uxth	r2, r3
 486 001c 254B     		ldr	r3, .L55+4
 487 001e 1A80     		strh	r2, [r3]	@ movhi
 363:Generated_Source\PSoC5/USBUART_drv.c **** 
 364:Generated_Source\PSoC5/USBUART_drv.c ****     /* Now load the next transaction */
 365:Generated_Source\PSoC5/USBUART_drv.c ****     while ((USBUART_currentTD.count > 0u) && (ep0Count < 8u))
 488              		.loc 1 365 0
 489 0020 15E0     		b	.L49
 490              	.L51:
 366:Generated_Source\PSoC5/USBUART_drv.c ****     {
 367:Generated_Source\PSoC5/USBUART_drv.c ****         USBUART_EP0_DR_BASE.epData[ep0Count] = (uint8) *USBUART_currentTD.pData;
 491              		.loc 1 367 0
 492 0022 2549     		ldr	r1, .L55+8
 493 0024 FB79     		ldrb	r3, [r7, #7]	@ zero_extendqisi2
 494 0026 254A     		ldr	r2, .L55+12
 495 0028 5268     		ldr	r2, [r2, #4]
 496 002a 1278     		ldrb	r2, [r2]
 497 002c D2B2     		uxtb	r2, r2
 498 002e CA54     		strb	r2, [r1, r3]
 368:Generated_Source\PSoC5/USBUART_drv.c ****         USBUART_currentTD.pData = &USBUART_currentTD.pData[1u];
 499              		.loc 1 368 0
 500 0030 224B     		ldr	r3, .L55+12
 501 0032 5B68     		ldr	r3, [r3, #4]
 502 0034 0133     		adds	r3, r3, #1
 503 0036 214A     		ldr	r2, .L55+12
 504 0038 5360     		str	r3, [r2, #4]
 369:Generated_Source\PSoC5/USBUART_drv.c ****         ep0Count++;
 505              		.loc 1 369 0
 506 003a FB79     		ldrb	r3, [r7, #7]	@ zero_extendqisi2
 507 003c 0133     		adds	r3, r3, #1
 508 003e FB71     		strb	r3, [r7, #7]
 370:Generated_Source\PSoC5/USBUART_drv.c ****         USBUART_currentTD.count--;
 509              		.loc 1 370 0
 510 0040 1E4B     		ldr	r3, .L55+12
 511 0042 1B88     		ldrh	r3, [r3]	@ movhi
 512 0044 9BB2     		uxth	r3, r3
 513 0046 013B     		subs	r3, r3, #1
 514 0048 9AB2     		uxth	r2, r3
 515 004a 1C4B     		ldr	r3, .L55+12
 516 004c 1A80     		strh	r2, [r3]	@ movhi
 517              	.L49:
 365:Generated_Source\PSoC5/USBUART_drv.c ****     {
 518              		.loc 1 365 0
 519 004e 1B4B     		ldr	r3, .L55+12
 520 0050 1B88     		ldrh	r3, [r3]	@ movhi
 521 0052 9BB2     		uxth	r3, r3
 522 0054 002B     		cmp	r3, #0
 523 0056 02D0     		beq	.L50
 365:Generated_Source\PSoC5/USBUART_drv.c ****     {
 524              		.loc 1 365 0 is_stmt 0 discriminator 1
 525 0058 FB79     		ldrb	r3, [r7, #7]	@ zero_extendqisi2
 526 005a 072B     		cmp	r3, #7
 527 005c E1D9     		bls	.L51
 528              	.L50:
ARM GAS  C:\Users\HPz420\AppData\Local\Temp\ccyisMw6.s 			page 17


 371:Generated_Source\PSoC5/USBUART_drv.c ****     }
 372:Generated_Source\PSoC5/USBUART_drv.c **** 
 373:Generated_Source\PSoC5/USBUART_drv.c ****     /* Support zero-length packet */
 374:Generated_Source\PSoC5/USBUART_drv.c ****     if ((USBUART_lastPacketSize == 8u) || (ep0Count > 0u))
 529              		.loc 1 374 0 is_stmt 1
 530 005e 144B     		ldr	r3, .L55
 531 0060 1B78     		ldrb	r3, [r3]
 532 0062 DBB2     		uxtb	r3, r3
 533 0064 082B     		cmp	r3, #8
 534 0066 02D0     		beq	.L52
 535              		.loc 1 374 0 is_stmt 0 discriminator 1
 536 0068 FB79     		ldrb	r3, [r7, #7]	@ zero_extendqisi2
 537 006a 002B     		cmp	r3, #0
 538 006c 0FD0     		beq	.L53
 539              	.L52:
 375:Generated_Source\PSoC5/USBUART_drv.c ****     {
 376:Generated_Source\PSoC5/USBUART_drv.c ****         /* Update the data toggle */
 377:Generated_Source\PSoC5/USBUART_drv.c ****         USBUART_ep0Toggle ^= USBUART_EP0_CNT_DATA_TOGGLE;
 540              		.loc 1 377 0 is_stmt 1
 541 006e 144B     		ldr	r3, .L55+16
 542 0070 1B78     		ldrb	r3, [r3]
 543 0072 DBB2     		uxtb	r3, r3
 544 0074 83F07F03 		eor	r3, r3, #127
 545 0078 DB43     		mvns	r3, r3
 546 007a DAB2     		uxtb	r2, r3
 547 007c 104B     		ldr	r3, .L55+16
 548 007e 1A70     		strb	r2, [r3]
 378:Generated_Source\PSoC5/USBUART_drv.c ****         /* Set the Mode Register  */
 379:Generated_Source\PSoC5/USBUART_drv.c ****         USBUART_ep0Mode = USBUART_MODE_ACK_IN_STATUS_OUT;
 549              		.loc 1 379 0
 550 0080 104B     		ldr	r3, .L55+20
 551 0082 0F22     		movs	r2, #15
 552 0084 1A70     		strb	r2, [r3]
 380:Generated_Source\PSoC5/USBUART_drv.c ****         /* Update the state (or stay the same) */
 381:Generated_Source\PSoC5/USBUART_drv.c ****         USBUART_transferState = USBUART_TRANS_STATE_CONTROL_READ;
 553              		.loc 1 381 0
 554 0086 104B     		ldr	r3, .L55+24
 555 0088 0222     		movs	r2, #2
 556 008a 1A70     		strb	r2, [r3]
 557 008c 05E0     		b	.L54
 558              	.L53:
 382:Generated_Source\PSoC5/USBUART_drv.c ****     }
 383:Generated_Source\PSoC5/USBUART_drv.c ****     else
 384:Generated_Source\PSoC5/USBUART_drv.c ****     {
 385:Generated_Source\PSoC5/USBUART_drv.c ****         /* Expect Status Stage Out */
 386:Generated_Source\PSoC5/USBUART_drv.c ****         USBUART_ep0Mode = USBUART_MODE_STATUS_OUT_ONLY;
 559              		.loc 1 386 0
 560 008e 0D4B     		ldr	r3, .L55+20
 561 0090 0222     		movs	r2, #2
 562 0092 1A70     		strb	r2, [r3]
 387:Generated_Source\PSoC5/USBUART_drv.c ****         /* Update the state (or stay the same) */
 388:Generated_Source\PSoC5/USBUART_drv.c ****         USBUART_transferState = USBUART_TRANS_STATE_CONTROL_READ;
 563              		.loc 1 388 0
 564 0094 0C4B     		ldr	r3, .L55+24
 565 0096 0222     		movs	r2, #2
 566 0098 1A70     		strb	r2, [r3]
 567              	.L54:
ARM GAS  C:\Users\HPz420\AppData\Local\Temp\ccyisMw6.s 			page 18


 389:Generated_Source\PSoC5/USBUART_drv.c ****     }
 390:Generated_Source\PSoC5/USBUART_drv.c **** 
 391:Generated_Source\PSoC5/USBUART_drv.c ****     /* Save the packet size for next time */
 392:Generated_Source\PSoC5/USBUART_drv.c ****     USBUART_ep0Count =       (uint8) ep0Count;
 568              		.loc 1 392 0
 569 009a 0C4A     		ldr	r2, .L55+28
 570 009c FB79     		ldrb	r3, [r7, #7]
 571 009e 1370     		strb	r3, [r2]
 393:Generated_Source\PSoC5/USBUART_drv.c ****     USBUART_lastPacketSize = (uint8) ep0Count;
 572              		.loc 1 393 0
 573 00a0 034A     		ldr	r2, .L55
 574 00a2 FB79     		ldrb	r3, [r7, #7]
 575 00a4 1370     		strb	r3, [r2]
 394:Generated_Source\PSoC5/USBUART_drv.c **** }
 576              		.loc 1 394 0
 577 00a6 00BF     		nop
 578 00a8 0C37     		adds	r7, r7, #12
 579              		.cfi_def_cfa_offset 4
 580 00aa BD46     		mov	sp, r7
 581              		.cfi_def_cfa_register 13
 582              		@ sp needed
 583 00ac 80BC     		pop	{r7}
 584              		.cfi_restore 7
 585              		.cfi_def_cfa_offset 0
 586 00ae 7047     		bx	lr
 587              	.L56:
 588              		.align	2
 589              	.L55:
 590 00b0 00000000 		.word	USBUART_lastPacketSize
 591 00b4 00000000 		.word	USBUART_transferByteCount
 592 00b8 00600040 		.word	1073766400
 593 00bc 00000000 		.word	USBUART_currentTD
 594 00c0 00000000 		.word	USBUART_ep0Toggle
 595 00c4 00000000 		.word	USBUART_ep0Mode
 596 00c8 00000000 		.word	USBUART_transferState
 597 00cc 00000000 		.word	USBUART_ep0Count
 598              		.cfi_endproc
 599              	.LFE4:
 600              		.size	USBUART_LoadEP0, .-USBUART_LoadEP0
 601              		.section	.text.USBUART_InitControlRead,"ax",%progbits
 602              		.align	2
 603              		.global	USBUART_InitControlRead
 604              		.thumb
 605              		.thumb_func
 606              		.type	USBUART_InitControlRead, %function
 607              	USBUART_InitControlRead:
 608              	.LFB5:
 395:Generated_Source\PSoC5/USBUART_drv.c **** 
 396:Generated_Source\PSoC5/USBUART_drv.c **** 
 397:Generated_Source\PSoC5/USBUART_drv.c **** /*******************************************************************************
 398:Generated_Source\PSoC5/USBUART_drv.c **** * Function Name: USBUART_InitControlRead
 399:Generated_Source\PSoC5/USBUART_drv.c **** ****************************************************************************//**
 400:Generated_Source\PSoC5/USBUART_drv.c **** *
 401:Generated_Source\PSoC5/USBUART_drv.c **** *  Initialize a control read transaction. It is used to send data to the host.
 402:Generated_Source\PSoC5/USBUART_drv.c **** *  The following global variables should be initialized before this function
 403:Generated_Source\PSoC5/USBUART_drv.c **** *  called. To send zero length packet use InitZeroLengthControlTransfer
 404:Generated_Source\PSoC5/USBUART_drv.c **** *  function.
ARM GAS  C:\Users\HPz420\AppData\Local\Temp\ccyisMw6.s 			page 19


 405:Generated_Source\PSoC5/USBUART_drv.c **** *
 406:Generated_Source\PSoC5/USBUART_drv.c **** *
 407:Generated_Source\PSoC5/USBUART_drv.c **** * \return
 408:Generated_Source\PSoC5/USBUART_drv.c **** *  requestHandled state.
 409:Generated_Source\PSoC5/USBUART_drv.c **** *
 410:Generated_Source\PSoC5/USBUART_drv.c **** * \globalvars
 411:Generated_Source\PSoC5/USBUART_drv.c **** *  USBUART_currentTD.count - counts of data to be sent.
 412:Generated_Source\PSoC5/USBUART_drv.c **** *  USBUART_currentTD.pData - data pointer.
 413:Generated_Source\PSoC5/USBUART_drv.c **** *
 414:Generated_Source\PSoC5/USBUART_drv.c **** * \reentrant
 415:Generated_Source\PSoC5/USBUART_drv.c **** *  No.
 416:Generated_Source\PSoC5/USBUART_drv.c **** *
 417:Generated_Source\PSoC5/USBUART_drv.c **** *******************************************************************************/
 418:Generated_Source\PSoC5/USBUART_drv.c **** uint8 USBUART_InitControlRead(void) 
 419:Generated_Source\PSoC5/USBUART_drv.c **** {
 609              		.loc 1 419 0
 610              		.cfi_startproc
 611              		@ args = 0, pretend = 0, frame = 8
 612              		@ frame_needed = 1, uses_anonymous_args = 0
 613 0000 80B5     		push	{r7, lr}
 614              		.cfi_def_cfa_offset 8
 615              		.cfi_offset 7, -8
 616              		.cfi_offset 14, -4
 617 0002 82B0     		sub	sp, sp, #8
 618              		.cfi_def_cfa_offset 16
 619 0004 00AF     		add	r7, sp, #0
 620              		.cfi_def_cfa_register 7
 420:Generated_Source\PSoC5/USBUART_drv.c ****     uint16 xferCount;
 421:Generated_Source\PSoC5/USBUART_drv.c **** 
 422:Generated_Source\PSoC5/USBUART_drv.c ****     if (USBUART_currentTD.count == 0u)
 621              		.loc 1 422 0
 622 0006 164B     		ldr	r3, .L62
 623 0008 1B88     		ldrh	r3, [r3]	@ movhi
 624 000a 9BB2     		uxth	r3, r3
 625 000c 002B     		cmp	r3, #0
 626 000e 02D1     		bne	.L58
 423:Generated_Source\PSoC5/USBUART_drv.c ****     {
 424:Generated_Source\PSoC5/USBUART_drv.c ****         (void) USBUART_InitZeroLengthControlTransfer();
 627              		.loc 1 424 0
 628 0010 FFF7FEFF 		bl	USBUART_InitZeroLengthControlTransfer
 629 0014 1EE0     		b	.L59
 630              	.L58:
 425:Generated_Source\PSoC5/USBUART_drv.c ****     }
 426:Generated_Source\PSoC5/USBUART_drv.c ****     else
 427:Generated_Source\PSoC5/USBUART_drv.c ****     {
 428:Generated_Source\PSoC5/USBUART_drv.c ****         /* Set up the state machine */
 429:Generated_Source\PSoC5/USBUART_drv.c ****         USBUART_transferState = USBUART_TRANS_STATE_CONTROL_READ;
 631              		.loc 1 429 0
 632 0016 134B     		ldr	r3, .L62+4
 633 0018 0222     		movs	r2, #2
 634 001a 1A70     		strb	r2, [r3]
 430:Generated_Source\PSoC5/USBUART_drv.c ****         
 431:Generated_Source\PSoC5/USBUART_drv.c ****         /* Set the toggle, it gets updated in LoadEP */
 432:Generated_Source\PSoC5/USBUART_drv.c ****         USBUART_ep0Toggle = 0u;
 635              		.loc 1 432 0
 636 001c 124B     		ldr	r3, .L62+8
 637 001e 0022     		movs	r2, #0
ARM GAS  C:\Users\HPz420\AppData\Local\Temp\ccyisMw6.s 			page 20


 638 0020 1A70     		strb	r2, [r3]
 433:Generated_Source\PSoC5/USBUART_drv.c ****         
 434:Generated_Source\PSoC5/USBUART_drv.c ****         /* Initialize the Status Block */
 435:Generated_Source\PSoC5/USBUART_drv.c ****         USBUART_InitializeStatusBlock();
 639              		.loc 1 435 0
 640 0022 FFF7FEFF 		bl	USBUART_InitializeStatusBlock
 436:Generated_Source\PSoC5/USBUART_drv.c ****         
 437:Generated_Source\PSoC5/USBUART_drv.c ****         xferCount = ((uint16)((uint16) USBUART_lengthHiReg << 8u) | ((uint16) USBUART_lengthLoReg))
 641              		.loc 1 437 0
 642 0026 114B     		ldr	r3, .L62+12
 643 0028 DB79     		ldrb	r3, [r3, #7]
 644 002a DBB2     		uxtb	r3, r3
 645 002c 9BB2     		uxth	r3, r3
 646 002e 1B02     		lsls	r3, r3, #8
 647 0030 9AB2     		uxth	r2, r3
 648 0032 0E4B     		ldr	r3, .L62+12
 649 0034 9B79     		ldrb	r3, [r3, #6]
 650 0036 DBB2     		uxtb	r3, r3
 651 0038 9BB2     		uxth	r3, r3
 652 003a 1343     		orrs	r3, r3, r2
 653 003c FB80     		strh	r3, [r7, #6]	@ movhi
 438:Generated_Source\PSoC5/USBUART_drv.c **** 
 439:Generated_Source\PSoC5/USBUART_drv.c ****         if (USBUART_currentTD.count > xferCount)
 654              		.loc 1 439 0
 655 003e 084B     		ldr	r3, .L62
 656 0040 1B88     		ldrh	r3, [r3]	@ movhi
 657 0042 9BB2     		uxth	r3, r3
 658 0044 FA88     		ldrh	r2, [r7, #6]
 659 0046 9A42     		cmp	r2, r3
 660 0048 02D2     		bcs	.L60
 440:Generated_Source\PSoC5/USBUART_drv.c ****         {
 441:Generated_Source\PSoC5/USBUART_drv.c ****             USBUART_currentTD.count = xferCount;
 661              		.loc 1 441 0
 662 004a 054A     		ldr	r2, .L62
 663 004c FB88     		ldrh	r3, [r7, #6]	@ movhi
 664 004e 1380     		strh	r3, [r2]	@ movhi
 665              	.L60:
 442:Generated_Source\PSoC5/USBUART_drv.c ****         }
 443:Generated_Source\PSoC5/USBUART_drv.c ****         
 444:Generated_Source\PSoC5/USBUART_drv.c ****         USBUART_LoadEP0();
 666              		.loc 1 444 0
 667 0050 FFF7FEFF 		bl	USBUART_LoadEP0
 668              	.L59:
 445:Generated_Source\PSoC5/USBUART_drv.c ****     }
 446:Generated_Source\PSoC5/USBUART_drv.c **** 
 447:Generated_Source\PSoC5/USBUART_drv.c ****     return (USBUART_TRUE);
 669              		.loc 1 447 0
 670 0054 0123     		movs	r3, #1
 448:Generated_Source\PSoC5/USBUART_drv.c **** }
 671              		.loc 1 448 0
 672 0056 1846     		mov	r0, r3
 673 0058 0837     		adds	r7, r7, #8
 674              		.cfi_def_cfa_offset 8
 675 005a BD46     		mov	sp, r7
 676              		.cfi_def_cfa_register 13
 677              		@ sp needed
 678 005c 80BD     		pop	{r7, pc}
ARM GAS  C:\Users\HPz420\AppData\Local\Temp\ccyisMw6.s 			page 21


 679              	.L63:
 680 005e 00BF     		.align	2
 681              	.L62:
 682 0060 00000000 		.word	USBUART_currentTD
 683 0064 00000000 		.word	USBUART_transferState
 684 0068 00000000 		.word	USBUART_ep0Toggle
 685 006c 00600040 		.word	1073766400
 686              		.cfi_endproc
 687              	.LFE5:
 688              		.size	USBUART_InitControlRead, .-USBUART_InitControlRead
 689              		.section	.text.USBUART_InitZeroLengthControlTransfer,"ax",%progbits
 690              		.align	2
 691              		.global	USBUART_InitZeroLengthControlTransfer
 692              		.thumb
 693              		.thumb_func
 694              		.type	USBUART_InitZeroLengthControlTransfer, %function
 695              	USBUART_InitZeroLengthControlTransfer:
 696              	.LFB6:
 449:Generated_Source\PSoC5/USBUART_drv.c **** 
 450:Generated_Source\PSoC5/USBUART_drv.c **** 
 451:Generated_Source\PSoC5/USBUART_drv.c **** /*******************************************************************************
 452:Generated_Source\PSoC5/USBUART_drv.c **** * Function Name: USBUART_InitZeroLengthControlTransfer
 453:Generated_Source\PSoC5/USBUART_drv.c **** ****************************************************************************//**
 454:Generated_Source\PSoC5/USBUART_drv.c **** *
 455:Generated_Source\PSoC5/USBUART_drv.c **** *  Initialize a zero length data IN transfer.
 456:Generated_Source\PSoC5/USBUART_drv.c **** *
 457:Generated_Source\PSoC5/USBUART_drv.c **** * \return
 458:Generated_Source\PSoC5/USBUART_drv.c **** *  requestHandled state.
 459:Generated_Source\PSoC5/USBUART_drv.c **** *
 460:Generated_Source\PSoC5/USBUART_drv.c **** * \globalvars
 461:Generated_Source\PSoC5/USBUART_drv.c **** *  USBUART_ep0Toggle - set to EP0_CNT_DATA_TOGGLE
 462:Generated_Source\PSoC5/USBUART_drv.c **** *  USBUART_ep0Mode  - prepare for mode register content.
 463:Generated_Source\PSoC5/USBUART_drv.c **** *  USBUART_transferState - set to TRANS_STATE_CONTROL_READ
 464:Generated_Source\PSoC5/USBUART_drv.c **** *  USBUART_ep0Count - cleared, means the zero-length packet.
 465:Generated_Source\PSoC5/USBUART_drv.c **** *  USBUART_lastPacketSize - cleared.
 466:Generated_Source\PSoC5/USBUART_drv.c **** *
 467:Generated_Source\PSoC5/USBUART_drv.c **** * \reentrant
 468:Generated_Source\PSoC5/USBUART_drv.c **** *  No.
 469:Generated_Source\PSoC5/USBUART_drv.c **** *
 470:Generated_Source\PSoC5/USBUART_drv.c **** *******************************************************************************/
 471:Generated_Source\PSoC5/USBUART_drv.c **** uint8 USBUART_InitZeroLengthControlTransfer(void)
 472:Generated_Source\PSoC5/USBUART_drv.c ****                                                 
 473:Generated_Source\PSoC5/USBUART_drv.c **** {
 697              		.loc 1 473 0
 698              		.cfi_startproc
 699              		@ args = 0, pretend = 0, frame = 0
 700              		@ frame_needed = 1, uses_anonymous_args = 0
 701              		@ link register save eliminated.
 702 0000 80B4     		push	{r7}
 703              		.cfi_def_cfa_offset 4
 704              		.cfi_offset 7, -4
 705 0002 00AF     		add	r7, sp, #0
 706              		.cfi_def_cfa_register 7
 474:Generated_Source\PSoC5/USBUART_drv.c ****     /* Update the state */
 475:Generated_Source\PSoC5/USBUART_drv.c ****     USBUART_transferState = USBUART_TRANS_STATE_CONTROL_READ;
 707              		.loc 1 475 0
 708 0004 094B     		ldr	r3, .L66
ARM GAS  C:\Users\HPz420\AppData\Local\Temp\ccyisMw6.s 			page 22


 709 0006 0222     		movs	r2, #2
 710 0008 1A70     		strb	r2, [r3]
 476:Generated_Source\PSoC5/USBUART_drv.c ****     
 477:Generated_Source\PSoC5/USBUART_drv.c ****     /* Set the data toggle */
 478:Generated_Source\PSoC5/USBUART_drv.c ****     USBUART_ep0Toggle = USBUART_EP0_CNT_DATA_TOGGLE;
 711              		.loc 1 478 0
 712 000a 094B     		ldr	r3, .L66+4
 713 000c 8022     		movs	r2, #128
 714 000e 1A70     		strb	r2, [r3]
 479:Generated_Source\PSoC5/USBUART_drv.c ****     
 480:Generated_Source\PSoC5/USBUART_drv.c ****     /* Set the Mode Register  */
 481:Generated_Source\PSoC5/USBUART_drv.c ****     USBUART_ep0Mode = USBUART_MODE_ACK_IN_STATUS_OUT;
 715              		.loc 1 481 0
 716 0010 084B     		ldr	r3, .L66+8
 717 0012 0F22     		movs	r2, #15
 718 0014 1A70     		strb	r2, [r3]
 482:Generated_Source\PSoC5/USBUART_drv.c ****     
 483:Generated_Source\PSoC5/USBUART_drv.c ****     /* Save the packet size for next time */
 484:Generated_Source\PSoC5/USBUART_drv.c ****     USBUART_lastPacketSize = 0u;
 719              		.loc 1 484 0
 720 0016 084B     		ldr	r3, .L66+12
 721 0018 0022     		movs	r2, #0
 722 001a 1A70     		strb	r2, [r3]
 485:Generated_Source\PSoC5/USBUART_drv.c ****     
 486:Generated_Source\PSoC5/USBUART_drv.c ****     USBUART_ep0Count = 0u;
 723              		.loc 1 486 0
 724 001c 074B     		ldr	r3, .L66+16
 725 001e 0022     		movs	r2, #0
 726 0020 1A70     		strb	r2, [r3]
 487:Generated_Source\PSoC5/USBUART_drv.c **** 
 488:Generated_Source\PSoC5/USBUART_drv.c ****     return (USBUART_TRUE);
 727              		.loc 1 488 0
 728 0022 0123     		movs	r3, #1
 489:Generated_Source\PSoC5/USBUART_drv.c **** }
 729              		.loc 1 489 0
 730 0024 1846     		mov	r0, r3
 731 0026 BD46     		mov	sp, r7
 732              		.cfi_def_cfa_register 13
 733              		@ sp needed
 734 0028 80BC     		pop	{r7}
 735              		.cfi_restore 7
 736              		.cfi_def_cfa_offset 0
 737 002a 7047     		bx	lr
 738              	.L67:
 739              		.align	2
 740              	.L66:
 741 002c 00000000 		.word	USBUART_transferState
 742 0030 00000000 		.word	USBUART_ep0Toggle
 743 0034 00000000 		.word	USBUART_ep0Mode
 744 0038 00000000 		.word	USBUART_lastPacketSize
 745 003c 00000000 		.word	USBUART_ep0Count
 746              		.cfi_endproc
 747              	.LFE6:
 748              		.size	USBUART_InitZeroLengthControlTransfer, .-USBUART_InitZeroLengthControlTransfer
 749              		.section	.text.USBUART_ControlReadDataStage,"ax",%progbits
 750              		.align	2
 751              		.global	USBUART_ControlReadDataStage
ARM GAS  C:\Users\HPz420\AppData\Local\Temp\ccyisMw6.s 			page 23


 752              		.thumb
 753              		.thumb_func
 754              		.type	USBUART_ControlReadDataStage, %function
 755              	USBUART_ControlReadDataStage:
 756              	.LFB7:
 490:Generated_Source\PSoC5/USBUART_drv.c **** 
 491:Generated_Source\PSoC5/USBUART_drv.c **** 
 492:Generated_Source\PSoC5/USBUART_drv.c **** /*******************************************************************************
 493:Generated_Source\PSoC5/USBUART_drv.c **** * Function Name: USBUART_ControlReadDataStage
 494:Generated_Source\PSoC5/USBUART_drv.c **** ****************************************************************************//**
 495:Generated_Source\PSoC5/USBUART_drv.c **** *
 496:Generated_Source\PSoC5/USBUART_drv.c **** *  Handle the Data Stage of a control read transfer.
 497:Generated_Source\PSoC5/USBUART_drv.c **** *
 498:Generated_Source\PSoC5/USBUART_drv.c **** *
 499:Generated_Source\PSoC5/USBUART_drv.c **** * \reentrant
 500:Generated_Source\PSoC5/USBUART_drv.c **** *  No.
 501:Generated_Source\PSoC5/USBUART_drv.c **** *
 502:Generated_Source\PSoC5/USBUART_drv.c **** *******************************************************************************/
 503:Generated_Source\PSoC5/USBUART_drv.c **** void USBUART_ControlReadDataStage(void) 
 504:Generated_Source\PSoC5/USBUART_drv.c **** 
 505:Generated_Source\PSoC5/USBUART_drv.c **** {
 757              		.loc 1 505 0
 758              		.cfi_startproc
 759              		@ args = 0, pretend = 0, frame = 0
 760              		@ frame_needed = 1, uses_anonymous_args = 0
 761 0000 80B5     		push	{r7, lr}
 762              		.cfi_def_cfa_offset 8
 763              		.cfi_offset 7, -8
 764              		.cfi_offset 14, -4
 765 0002 00AF     		add	r7, sp, #0
 766              		.cfi_def_cfa_register 7
 506:Generated_Source\PSoC5/USBUART_drv.c ****     USBUART_LoadEP0();
 767              		.loc 1 506 0
 768 0004 FFF7FEFF 		bl	USBUART_LoadEP0
 507:Generated_Source\PSoC5/USBUART_drv.c **** }
 769              		.loc 1 507 0
 770 0008 00BF     		nop
 771 000a 80BD     		pop	{r7, pc}
 772              		.cfi_endproc
 773              	.LFE7:
 774              		.size	USBUART_ControlReadDataStage, .-USBUART_ControlReadDataStage
 775              		.section	.text.USBUART_ControlReadStatusStage,"ax",%progbits
 776              		.align	2
 777              		.global	USBUART_ControlReadStatusStage
 778              		.thumb
 779              		.thumb_func
 780              		.type	USBUART_ControlReadStatusStage, %function
 781              	USBUART_ControlReadStatusStage:
 782              	.LFB8:
 508:Generated_Source\PSoC5/USBUART_drv.c **** 
 509:Generated_Source\PSoC5/USBUART_drv.c **** 
 510:Generated_Source\PSoC5/USBUART_drv.c **** /*******************************************************************************
 511:Generated_Source\PSoC5/USBUART_drv.c **** * Function Name: USBUART_ControlReadStatusStage
 512:Generated_Source\PSoC5/USBUART_drv.c **** ****************************************************************************//**
 513:Generated_Source\PSoC5/USBUART_drv.c **** *
 514:Generated_Source\PSoC5/USBUART_drv.c **** *  Handle the Status Stage of a control read transfer.
 515:Generated_Source\PSoC5/USBUART_drv.c **** *
ARM GAS  C:\Users\HPz420\AppData\Local\Temp\ccyisMw6.s 			page 24


 516:Generated_Source\PSoC5/USBUART_drv.c **** *
 517:Generated_Source\PSoC5/USBUART_drv.c **** * \globalvars
 518:Generated_Source\PSoC5/USBUART_drv.c **** *  USBUART_USBFS_transferByteCount - updated with last packet size.
 519:Generated_Source\PSoC5/USBUART_drv.c **** *  USBUART_transferState - set to TRANS_STATE_IDLE.
 520:Generated_Source\PSoC5/USBUART_drv.c **** *  USBUART_ep0Mode  - set to MODE_STALL_IN_OUT.
 521:Generated_Source\PSoC5/USBUART_drv.c **** *
 522:Generated_Source\PSoC5/USBUART_drv.c **** * \reentrant
 523:Generated_Source\PSoC5/USBUART_drv.c **** *  No.
 524:Generated_Source\PSoC5/USBUART_drv.c **** *
 525:Generated_Source\PSoC5/USBUART_drv.c **** *******************************************************************************/
 526:Generated_Source\PSoC5/USBUART_drv.c **** void USBUART_ControlReadStatusStage(void) 
 527:Generated_Source\PSoC5/USBUART_drv.c **** {
 783              		.loc 1 527 0
 784              		.cfi_startproc
 785              		@ args = 0, pretend = 0, frame = 0
 786              		@ frame_needed = 1, uses_anonymous_args = 0
 787 0000 80B5     		push	{r7, lr}
 788              		.cfi_def_cfa_offset 8
 789              		.cfi_offset 7, -8
 790              		.cfi_offset 14, -4
 791 0002 00AF     		add	r7, sp, #0
 792              		.cfi_def_cfa_register 7
 528:Generated_Source\PSoC5/USBUART_drv.c ****     /* Update the transfer byte count */
 529:Generated_Source\PSoC5/USBUART_drv.c ****     USBUART_transferByteCount += USBUART_lastPacketSize;
 793              		.loc 1 529 0
 794 0004 0A4B     		ldr	r3, .L70
 795 0006 1B78     		ldrb	r3, [r3]
 796 0008 DBB2     		uxtb	r3, r3
 797 000a 9AB2     		uxth	r2, r3
 798 000c 094B     		ldr	r3, .L70+4
 799 000e 1B88     		ldrh	r3, [r3]	@ movhi
 800 0010 9BB2     		uxth	r3, r3
 801 0012 1344     		add	r3, r3, r2
 802 0014 9AB2     		uxth	r2, r3
 803 0016 074B     		ldr	r3, .L70+4
 804 0018 1A80     		strh	r2, [r3]	@ movhi
 530:Generated_Source\PSoC5/USBUART_drv.c ****     
 531:Generated_Source\PSoC5/USBUART_drv.c ****     /* Go Idle */
 532:Generated_Source\PSoC5/USBUART_drv.c ****     USBUART_transferState = USBUART_TRANS_STATE_IDLE;
 805              		.loc 1 532 0
 806 001a 074B     		ldr	r3, .L70+8
 807 001c 0022     		movs	r2, #0
 808 001e 1A70     		strb	r2, [r3]
 533:Generated_Source\PSoC5/USBUART_drv.c ****     
 534:Generated_Source\PSoC5/USBUART_drv.c ****     /* Update the completion block */
 535:Generated_Source\PSoC5/USBUART_drv.c ****     USBUART_UpdateStatusBlock(USBUART_XFER_STATUS_ACK);
 809              		.loc 1 535 0
 810 0020 0120     		movs	r0, #1
 811 0022 FFF7FEFF 		bl	USBUART_UpdateStatusBlock
 536:Generated_Source\PSoC5/USBUART_drv.c ****     
 537:Generated_Source\PSoC5/USBUART_drv.c ****     /* We expect no more data, so stall INs and OUTs */
 538:Generated_Source\PSoC5/USBUART_drv.c ****     USBUART_ep0Mode = USBUART_MODE_STALL_IN_OUT;
 812              		.loc 1 538 0
 813 0026 054B     		ldr	r3, .L70+12
 814 0028 0322     		movs	r2, #3
 815 002a 1A70     		strb	r2, [r3]
 539:Generated_Source\PSoC5/USBUART_drv.c **** }
ARM GAS  C:\Users\HPz420\AppData\Local\Temp\ccyisMw6.s 			page 25


 816              		.loc 1 539 0
 817 002c 00BF     		nop
 818 002e 80BD     		pop	{r7, pc}
 819              	.L71:
 820              		.align	2
 821              	.L70:
 822 0030 00000000 		.word	USBUART_lastPacketSize
 823 0034 00000000 		.word	USBUART_transferByteCount
 824 0038 00000000 		.word	USBUART_transferState
 825 003c 00000000 		.word	USBUART_ep0Mode
 826              		.cfi_endproc
 827              	.LFE8:
 828              		.size	USBUART_ControlReadStatusStage, .-USBUART_ControlReadStatusStage
 829              		.section	.text.USBUART_InitControlWrite,"ax",%progbits
 830              		.align	2
 831              		.global	USBUART_InitControlWrite
 832              		.thumb
 833              		.thumb_func
 834              		.type	USBUART_InitControlWrite, %function
 835              	USBUART_InitControlWrite:
 836              	.LFB9:
 540:Generated_Source\PSoC5/USBUART_drv.c **** 
 541:Generated_Source\PSoC5/USBUART_drv.c **** 
 542:Generated_Source\PSoC5/USBUART_drv.c **** /*******************************************************************************
 543:Generated_Source\PSoC5/USBUART_drv.c **** * Function Name: USBUART_InitControlWrite
 544:Generated_Source\PSoC5/USBUART_drv.c **** ****************************************************************************//**
 545:Generated_Source\PSoC5/USBUART_drv.c **** *
 546:Generated_Source\PSoC5/USBUART_drv.c **** *  Initialize a control write transaction
 547:Generated_Source\PSoC5/USBUART_drv.c **** *
 548:Generated_Source\PSoC5/USBUART_drv.c **** * \return
 549:Generated_Source\PSoC5/USBUART_drv.c **** *  requestHandled state.
 550:Generated_Source\PSoC5/USBUART_drv.c **** *
 551:Generated_Source\PSoC5/USBUART_drv.c **** * \globalvars
 552:Generated_Source\PSoC5/USBUART_drv.c **** *  USBUART_USBFS_transferState - set to TRANS_STATE_CONTROL_WRITE
 553:Generated_Source\PSoC5/USBUART_drv.c **** *  USBUART_ep0Toggle - set to EP0_CNT_DATA_TOGGLE
 554:Generated_Source\PSoC5/USBUART_drv.c **** *  USBUART_ep0Mode  - set to MODE_ACK_OUT_STATUS_IN
 555:Generated_Source\PSoC5/USBUART_drv.c **** *
 556:Generated_Source\PSoC5/USBUART_drv.c **** * \reentrant
 557:Generated_Source\PSoC5/USBUART_drv.c **** *  No.
 558:Generated_Source\PSoC5/USBUART_drv.c **** *
 559:Generated_Source\PSoC5/USBUART_drv.c **** *******************************************************************************/
 560:Generated_Source\PSoC5/USBUART_drv.c **** uint8 USBUART_InitControlWrite(void) 
 561:Generated_Source\PSoC5/USBUART_drv.c **** {
 837              		.loc 1 561 0
 838              		.cfi_startproc
 839              		@ args = 0, pretend = 0, frame = 8
 840              		@ frame_needed = 1, uses_anonymous_args = 0
 841 0000 80B5     		push	{r7, lr}
 842              		.cfi_def_cfa_offset 8
 843              		.cfi_offset 7, -8
 844              		.cfi_offset 14, -4
 845 0002 82B0     		sub	sp, sp, #8
 846              		.cfi_def_cfa_offset 16
 847 0004 00AF     		add	r7, sp, #0
 848              		.cfi_def_cfa_register 7
 562:Generated_Source\PSoC5/USBUART_drv.c ****     uint16 xferCount;
 563:Generated_Source\PSoC5/USBUART_drv.c **** 
ARM GAS  C:\Users\HPz420\AppData\Local\Temp\ccyisMw6.s 			page 26


 564:Generated_Source\PSoC5/USBUART_drv.c ****     /* Set up the state machine */
 565:Generated_Source\PSoC5/USBUART_drv.c ****     USBUART_transferState = USBUART_TRANS_STATE_CONTROL_WRITE;
 849              		.loc 1 565 0
 850 0006 124B     		ldr	r3, .L75
 851 0008 0422     		movs	r2, #4
 852 000a 1A70     		strb	r2, [r3]
 566:Generated_Source\PSoC5/USBUART_drv.c ****     
 567:Generated_Source\PSoC5/USBUART_drv.c ****     /* This might not be necessary */
 568:Generated_Source\PSoC5/USBUART_drv.c ****     USBUART_ep0Toggle = USBUART_EP0_CNT_DATA_TOGGLE;
 853              		.loc 1 568 0
 854 000c 114B     		ldr	r3, .L75+4
 855 000e 8022     		movs	r2, #128
 856 0010 1A70     		strb	r2, [r3]
 569:Generated_Source\PSoC5/USBUART_drv.c ****     
 570:Generated_Source\PSoC5/USBUART_drv.c ****     /* Initialize the Status Block */
 571:Generated_Source\PSoC5/USBUART_drv.c ****     USBUART_InitializeStatusBlock();
 857              		.loc 1 571 0
 858 0012 FFF7FEFF 		bl	USBUART_InitializeStatusBlock
 572:Generated_Source\PSoC5/USBUART_drv.c **** 
 573:Generated_Source\PSoC5/USBUART_drv.c ****     xferCount = ((uint16)((uint16) USBUART_lengthHiReg << 8u) | ((uint16) USBUART_lengthLoReg));
 859              		.loc 1 573 0
 860 0016 104B     		ldr	r3, .L75+8
 861 0018 DB79     		ldrb	r3, [r3, #7]
 862 001a DBB2     		uxtb	r3, r3
 863 001c 9BB2     		uxth	r3, r3
 864 001e 1B02     		lsls	r3, r3, #8
 865 0020 9AB2     		uxth	r2, r3
 866 0022 0D4B     		ldr	r3, .L75+8
 867 0024 9B79     		ldrb	r3, [r3, #6]
 868 0026 DBB2     		uxtb	r3, r3
 869 0028 9BB2     		uxth	r3, r3
 870 002a 1343     		orrs	r3, r3, r2
 871 002c FB80     		strh	r3, [r7, #6]	@ movhi
 574:Generated_Source\PSoC5/USBUART_drv.c **** 
 575:Generated_Source\PSoC5/USBUART_drv.c ****     if (USBUART_currentTD.count > xferCount)
 872              		.loc 1 575 0
 873 002e 0B4B     		ldr	r3, .L75+12
 874 0030 1B88     		ldrh	r3, [r3]	@ movhi
 875 0032 9BB2     		uxth	r3, r3
 876 0034 FA88     		ldrh	r2, [r7, #6]
 877 0036 9A42     		cmp	r2, r3
 878 0038 02D2     		bcs	.L73
 576:Generated_Source\PSoC5/USBUART_drv.c ****     {
 577:Generated_Source\PSoC5/USBUART_drv.c ****         USBUART_currentTD.count = xferCount;
 879              		.loc 1 577 0
 880 003a 084A     		ldr	r2, .L75+12
 881 003c FB88     		ldrh	r3, [r7, #6]	@ movhi
 882 003e 1380     		strh	r3, [r2]	@ movhi
 883              	.L73:
 578:Generated_Source\PSoC5/USBUART_drv.c ****     }
 579:Generated_Source\PSoC5/USBUART_drv.c **** 
 580:Generated_Source\PSoC5/USBUART_drv.c ****     /* Expect Data or Status Stage */
 581:Generated_Source\PSoC5/USBUART_drv.c ****     USBUART_ep0Mode = USBUART_MODE_ACK_OUT_STATUS_IN;
 884              		.loc 1 581 0
 885 0040 074B     		ldr	r3, .L75+16
 886 0042 0B22     		movs	r2, #11
 887 0044 1A70     		strb	r2, [r3]
ARM GAS  C:\Users\HPz420\AppData\Local\Temp\ccyisMw6.s 			page 27


 582:Generated_Source\PSoC5/USBUART_drv.c **** 
 583:Generated_Source\PSoC5/USBUART_drv.c ****     return(USBUART_TRUE);
 888              		.loc 1 583 0
 889 0046 0123     		movs	r3, #1
 584:Generated_Source\PSoC5/USBUART_drv.c **** }
 890              		.loc 1 584 0
 891 0048 1846     		mov	r0, r3
 892 004a 0837     		adds	r7, r7, #8
 893              		.cfi_def_cfa_offset 8
 894 004c BD46     		mov	sp, r7
 895              		.cfi_def_cfa_register 13
 896              		@ sp needed
 897 004e 80BD     		pop	{r7, pc}
 898              	.L76:
 899              		.align	2
 900              	.L75:
 901 0050 00000000 		.word	USBUART_transferState
 902 0054 00000000 		.word	USBUART_ep0Toggle
 903 0058 00600040 		.word	1073766400
 904 005c 00000000 		.word	USBUART_currentTD
 905 0060 00000000 		.word	USBUART_ep0Mode
 906              		.cfi_endproc
 907              	.LFE9:
 908              		.size	USBUART_InitControlWrite, .-USBUART_InitControlWrite
 909              		.section	.text.USBUART_ControlWriteDataStage,"ax",%progbits
 910              		.align	2
 911              		.global	USBUART_ControlWriteDataStage
 912              		.thumb
 913              		.thumb_func
 914              		.type	USBUART_ControlWriteDataStage, %function
 915              	USBUART_ControlWriteDataStage:
 916              	.LFB10:
 585:Generated_Source\PSoC5/USBUART_drv.c **** 
 586:Generated_Source\PSoC5/USBUART_drv.c **** 
 587:Generated_Source\PSoC5/USBUART_drv.c **** /*******************************************************************************
 588:Generated_Source\PSoC5/USBUART_drv.c **** * Function Name: USBUART_ControlWriteDataStage
 589:Generated_Source\PSoC5/USBUART_drv.c **** ****************************************************************************//**
 590:Generated_Source\PSoC5/USBUART_drv.c **** *
 591:Generated_Source\PSoC5/USBUART_drv.c **** *  Handle the Data Stage of a control write transfer
 592:Generated_Source\PSoC5/USBUART_drv.c **** *       1. Get the data (We assume the destination was validated previously)
 593:Generated_Source\PSoC5/USBUART_drv.c **** *       2. Update the count and data toggle
 594:Generated_Source\PSoC5/USBUART_drv.c **** *       3. Update the mode register for the next transaction
 595:Generated_Source\PSoC5/USBUART_drv.c **** *
 596:Generated_Source\PSoC5/USBUART_drv.c **** *
 597:Generated_Source\PSoC5/USBUART_drv.c **** * \globalvars
 598:Generated_Source\PSoC5/USBUART_drv.c **** *  USBUART_transferByteCount - Update the transfer byte count from the
 599:Generated_Source\PSoC5/USBUART_drv.c **** *    last transaction.
 600:Generated_Source\PSoC5/USBUART_drv.c **** *  USBUART_ep0Count - counts the data loaded from the SIE memory
 601:Generated_Source\PSoC5/USBUART_drv.c **** *    in current packet.
 602:Generated_Source\PSoC5/USBUART_drv.c **** *  USBUART_transferByteCount - sum of the previous bytes transferred
 603:Generated_Source\PSoC5/USBUART_drv.c **** *    on previous packets(sum of USBFS_lastPacketSize)
 604:Generated_Source\PSoC5/USBUART_drv.c **** *  USBUART_ep0Toggle - inverted
 605:Generated_Source\PSoC5/USBUART_drv.c **** *  USBUART_ep0Mode  - set to MODE_ACK_OUT_STATUS_IN.
 606:Generated_Source\PSoC5/USBUART_drv.c **** *
 607:Generated_Source\PSoC5/USBUART_drv.c **** * \reentrant
 608:Generated_Source\PSoC5/USBUART_drv.c **** *  No.
 609:Generated_Source\PSoC5/USBUART_drv.c **** *
ARM GAS  C:\Users\HPz420\AppData\Local\Temp\ccyisMw6.s 			page 28


 610:Generated_Source\PSoC5/USBUART_drv.c **** *******************************************************************************/
 611:Generated_Source\PSoC5/USBUART_drv.c **** void USBUART_ControlWriteDataStage(void) 
 612:Generated_Source\PSoC5/USBUART_drv.c **** {
 917              		.loc 1 612 0
 918              		.cfi_startproc
 919              		@ args = 0, pretend = 0, frame = 8
 920              		@ frame_needed = 1, uses_anonymous_args = 0
 921              		@ link register save eliminated.
 922 0000 80B4     		push	{r7}
 923              		.cfi_def_cfa_offset 4
 924              		.cfi_offset 7, -4
 925 0002 83B0     		sub	sp, sp, #12
 926              		.cfi_def_cfa_offset 16
 927 0004 00AF     		add	r7, sp, #0
 928              		.cfi_def_cfa_register 7
 613:Generated_Source\PSoC5/USBUART_drv.c ****     uint8 ep0Count;
 614:Generated_Source\PSoC5/USBUART_drv.c ****     uint8 regIndex = 0u;
 929              		.loc 1 614 0
 930 0006 0023     		movs	r3, #0
 931 0008 BB71     		strb	r3, [r7, #6]
 615:Generated_Source\PSoC5/USBUART_drv.c **** 
 616:Generated_Source\PSoC5/USBUART_drv.c ****     ep0Count = (USBUART_EP0_CNT_REG & USBUART_EPX_CNT0_MASK) - USBUART_EPX_CNTX_CRC_COUNT;
 932              		.loc 1 616 0
 933 000a 234B     		ldr	r3, .L81
 934 000c 1B78     		ldrb	r3, [r3]
 935 000e DBB2     		uxtb	r3, r3
 936 0010 03F00F03 		and	r3, r3, #15
 937 0014 DBB2     		uxtb	r3, r3
 938 0016 023B     		subs	r3, r3, #2
 939 0018 FB71     		strb	r3, [r7, #7]
 617:Generated_Source\PSoC5/USBUART_drv.c **** 
 618:Generated_Source\PSoC5/USBUART_drv.c ****     USBUART_transferByteCount += (uint8)ep0Count;
 940              		.loc 1 618 0
 941 001a FB79     		ldrb	r3, [r7, #7]	@ zero_extendqisi2
 942 001c 9AB2     		uxth	r2, r3
 943 001e 1F4B     		ldr	r3, .L81+4
 944 0020 1B88     		ldrh	r3, [r3]	@ movhi
 945 0022 9BB2     		uxth	r3, r3
 946 0024 1344     		add	r3, r3, r2
 947 0026 9AB2     		uxth	r2, r3
 948 0028 1C4B     		ldr	r3, .L81+4
 949 002a 1A80     		strh	r2, [r3]	@ movhi
 619:Generated_Source\PSoC5/USBUART_drv.c **** 
 620:Generated_Source\PSoC5/USBUART_drv.c ****     while ((USBUART_currentTD.count > 0u) && (ep0Count > 0u))
 950              		.loc 1 620 0
 951 002c 18E0     		b	.L78
 952              	.L80:
 621:Generated_Source\PSoC5/USBUART_drv.c ****     {
 622:Generated_Source\PSoC5/USBUART_drv.c ****         *USBUART_currentTD.pData = (uint8) USBUART_EP0_DR_BASE.epData[regIndex];
 953              		.loc 1 622 0
 954 002e 1C4B     		ldr	r3, .L81+8
 955 0030 5B68     		ldr	r3, [r3, #4]
 956 0032 1C49     		ldr	r1, .L81+12
 957 0034 BA79     		ldrb	r2, [r7, #6]	@ zero_extendqisi2
 958 0036 8A5C     		ldrb	r2, [r1, r2]
 959 0038 D2B2     		uxtb	r2, r2
 960 003a 1A70     		strb	r2, [r3]
ARM GAS  C:\Users\HPz420\AppData\Local\Temp\ccyisMw6.s 			page 29


 623:Generated_Source\PSoC5/USBUART_drv.c ****         USBUART_currentTD.pData = &USBUART_currentTD.pData[1u];
 961              		.loc 1 623 0
 962 003c 184B     		ldr	r3, .L81+8
 963 003e 5B68     		ldr	r3, [r3, #4]
 964 0040 0133     		adds	r3, r3, #1
 965 0042 174A     		ldr	r2, .L81+8
 966 0044 5360     		str	r3, [r2, #4]
 624:Generated_Source\PSoC5/USBUART_drv.c ****         regIndex++;
 967              		.loc 1 624 0
 968 0046 BB79     		ldrb	r3, [r7, #6]	@ zero_extendqisi2
 969 0048 0133     		adds	r3, r3, #1
 970 004a BB71     		strb	r3, [r7, #6]
 625:Generated_Source\PSoC5/USBUART_drv.c ****         ep0Count--;
 971              		.loc 1 625 0
 972 004c FB79     		ldrb	r3, [r7, #7]	@ zero_extendqisi2
 973 004e 013B     		subs	r3, r3, #1
 974 0050 FB71     		strb	r3, [r7, #7]
 626:Generated_Source\PSoC5/USBUART_drv.c ****         USBUART_currentTD.count--;
 975              		.loc 1 626 0
 976 0052 134B     		ldr	r3, .L81+8
 977 0054 1B88     		ldrh	r3, [r3]	@ movhi
 978 0056 9BB2     		uxth	r3, r3
 979 0058 013B     		subs	r3, r3, #1
 980 005a 9AB2     		uxth	r2, r3
 981 005c 104B     		ldr	r3, .L81+8
 982 005e 1A80     		strh	r2, [r3]	@ movhi
 983              	.L78:
 620:Generated_Source\PSoC5/USBUART_drv.c ****     {
 984              		.loc 1 620 0
 985 0060 0F4B     		ldr	r3, .L81+8
 986 0062 1B88     		ldrh	r3, [r3]	@ movhi
 987 0064 9BB2     		uxth	r3, r3
 988 0066 002B     		cmp	r3, #0
 989 0068 02D0     		beq	.L79
 620:Generated_Source\PSoC5/USBUART_drv.c ****     {
 990              		.loc 1 620 0 is_stmt 0 discriminator 1
 991 006a FB79     		ldrb	r3, [r7, #7]	@ zero_extendqisi2
 992 006c 002B     		cmp	r3, #0
 993 006e DED1     		bne	.L80
 994              	.L79:
 627:Generated_Source\PSoC5/USBUART_drv.c ****     }
 628:Generated_Source\PSoC5/USBUART_drv.c ****     
 629:Generated_Source\PSoC5/USBUART_drv.c ****     USBUART_ep0Count = (uint8)ep0Count;
 995              		.loc 1 629 0 is_stmt 1
 996 0070 0D4A     		ldr	r2, .L81+16
 997 0072 FB79     		ldrb	r3, [r7, #7]
 998 0074 1370     		strb	r3, [r2]
 630:Generated_Source\PSoC5/USBUART_drv.c ****     
 631:Generated_Source\PSoC5/USBUART_drv.c ****     /* Update the data toggle */
 632:Generated_Source\PSoC5/USBUART_drv.c ****     USBUART_ep0Toggle ^= USBUART_EP0_CNT_DATA_TOGGLE;
 999              		.loc 1 632 0
 1000 0076 0D4B     		ldr	r3, .L81+20
 1001 0078 1B78     		ldrb	r3, [r3]
 1002 007a DBB2     		uxtb	r3, r3
 1003 007c 83F07F03 		eor	r3, r3, #127
 1004 0080 DB43     		mvns	r3, r3
 1005 0082 DAB2     		uxtb	r2, r3
ARM GAS  C:\Users\HPz420\AppData\Local\Temp\ccyisMw6.s 			page 30


 1006 0084 094B     		ldr	r3, .L81+20
 1007 0086 1A70     		strb	r2, [r3]
 633:Generated_Source\PSoC5/USBUART_drv.c ****     
 634:Generated_Source\PSoC5/USBUART_drv.c ****     /* Expect Data or Status Stage */
 635:Generated_Source\PSoC5/USBUART_drv.c ****     USBUART_ep0Mode = USBUART_MODE_ACK_OUT_STATUS_IN;
 1008              		.loc 1 635 0
 1009 0088 094B     		ldr	r3, .L81+24
 1010 008a 0B22     		movs	r2, #11
 1011 008c 1A70     		strb	r2, [r3]
 636:Generated_Source\PSoC5/USBUART_drv.c **** }
 1012              		.loc 1 636 0
 1013 008e 00BF     		nop
 1014 0090 0C37     		adds	r7, r7, #12
 1015              		.cfi_def_cfa_offset 4
 1016 0092 BD46     		mov	sp, r7
 1017              		.cfi_def_cfa_register 13
 1018              		@ sp needed
 1019 0094 80BC     		pop	{r7}
 1020              		.cfi_restore 7
 1021              		.cfi_def_cfa_offset 0
 1022 0096 7047     		bx	lr
 1023              	.L82:
 1024              		.align	2
 1025              	.L81:
 1026 0098 29600040 		.word	1073766441
 1027 009c 00000000 		.word	USBUART_transferByteCount
 1028 00a0 00000000 		.word	USBUART_currentTD
 1029 00a4 00600040 		.word	1073766400
 1030 00a8 00000000 		.word	USBUART_ep0Count
 1031 00ac 00000000 		.word	USBUART_ep0Toggle
 1032 00b0 00000000 		.word	USBUART_ep0Mode
 1033              		.cfi_endproc
 1034              	.LFE10:
 1035              		.size	USBUART_ControlWriteDataStage, .-USBUART_ControlWriteDataStage
 1036              		.section	.text.USBUART_ControlWriteStatusStage,"ax",%progbits
 1037              		.align	2
 1038              		.global	USBUART_ControlWriteStatusStage
 1039              		.thumb
 1040              		.thumb_func
 1041              		.type	USBUART_ControlWriteStatusStage, %function
 1042              	USBUART_ControlWriteStatusStage:
 1043              	.LFB11:
 637:Generated_Source\PSoC5/USBUART_drv.c **** 
 638:Generated_Source\PSoC5/USBUART_drv.c **** 
 639:Generated_Source\PSoC5/USBUART_drv.c **** /*******************************************************************************
 640:Generated_Source\PSoC5/USBUART_drv.c **** * Function Name: USBUART_ControlWriteStatusStage
 641:Generated_Source\PSoC5/USBUART_drv.c **** ****************************************************************************//**
 642:Generated_Source\PSoC5/USBUART_drv.c **** *
 643:Generated_Source\PSoC5/USBUART_drv.c **** *  Handle the Status Stage of a control write transfer
 644:Generated_Source\PSoC5/USBUART_drv.c **** *
 645:Generated_Source\PSoC5/USBUART_drv.c **** * \globalvars
 646:Generated_Source\PSoC5/USBUART_drv.c **** *  USBUART_transferState - set to TRANS_STATE_IDLE.
 647:Generated_Source\PSoC5/USBUART_drv.c **** *  USBUART_USBFS_ep0Mode  - set to MODE_STALL_IN_OUT.
 648:Generated_Source\PSoC5/USBUART_drv.c **** *
 649:Generated_Source\PSoC5/USBUART_drv.c **** * \reentrant
 650:Generated_Source\PSoC5/USBUART_drv.c **** *  No.
 651:Generated_Source\PSoC5/USBUART_drv.c **** *
ARM GAS  C:\Users\HPz420\AppData\Local\Temp\ccyisMw6.s 			page 31


 652:Generated_Source\PSoC5/USBUART_drv.c **** *******************************************************************************/
 653:Generated_Source\PSoC5/USBUART_drv.c **** void USBUART_ControlWriteStatusStage(void) 
 654:Generated_Source\PSoC5/USBUART_drv.c **** {
 1044              		.loc 1 654 0
 1045              		.cfi_startproc
 1046              		@ args = 0, pretend = 0, frame = 0
 1047              		@ frame_needed = 1, uses_anonymous_args = 0
 1048 0000 80B5     		push	{r7, lr}
 1049              		.cfi_def_cfa_offset 8
 1050              		.cfi_offset 7, -8
 1051              		.cfi_offset 14, -4
 1052 0002 00AF     		add	r7, sp, #0
 1053              		.cfi_def_cfa_register 7
 655:Generated_Source\PSoC5/USBUART_drv.c ****     /* Go Idle */
 656:Generated_Source\PSoC5/USBUART_drv.c ****     USBUART_transferState = USBUART_TRANS_STATE_IDLE;
 1054              		.loc 1 656 0
 1055 0004 054B     		ldr	r3, .L84
 1056 0006 0022     		movs	r2, #0
 1057 0008 1A70     		strb	r2, [r3]
 657:Generated_Source\PSoC5/USBUART_drv.c ****     
 658:Generated_Source\PSoC5/USBUART_drv.c ****     /* Update the completion block */    
 659:Generated_Source\PSoC5/USBUART_drv.c ****     USBUART_UpdateStatusBlock(USBUART_XFER_STATUS_ACK);
 1058              		.loc 1 659 0
 1059 000a 0120     		movs	r0, #1
 1060 000c FFF7FEFF 		bl	USBUART_UpdateStatusBlock
 660:Generated_Source\PSoC5/USBUART_drv.c ****     
 661:Generated_Source\PSoC5/USBUART_drv.c ****     /* We expect no more data, so stall INs and OUTs */
 662:Generated_Source\PSoC5/USBUART_drv.c ****     USBUART_ep0Mode = USBUART_MODE_STALL_IN_OUT;
 1061              		.loc 1 662 0
 1062 0010 034B     		ldr	r3, .L84+4
 1063 0012 0322     		movs	r2, #3
 1064 0014 1A70     		strb	r2, [r3]
 663:Generated_Source\PSoC5/USBUART_drv.c **** }
 1065              		.loc 1 663 0
 1066 0016 00BF     		nop
 1067 0018 80BD     		pop	{r7, pc}
 1068              	.L85:
 1069 001a 00BF     		.align	2
 1070              	.L84:
 1071 001c 00000000 		.word	USBUART_transferState
 1072 0020 00000000 		.word	USBUART_ep0Mode
 1073              		.cfi_endproc
 1074              	.LFE11:
 1075              		.size	USBUART_ControlWriteStatusStage, .-USBUART_ControlWriteStatusStage
 1076              		.section	.text.USBUART_InitNoDataControlTransfer,"ax",%progbits
 1077              		.align	2
 1078              		.global	USBUART_InitNoDataControlTransfer
 1079              		.thumb
 1080              		.thumb_func
 1081              		.type	USBUART_InitNoDataControlTransfer, %function
 1082              	USBUART_InitNoDataControlTransfer:
 1083              	.LFB12:
 664:Generated_Source\PSoC5/USBUART_drv.c **** 
 665:Generated_Source\PSoC5/USBUART_drv.c **** 
 666:Generated_Source\PSoC5/USBUART_drv.c **** /*******************************************************************************
 667:Generated_Source\PSoC5/USBUART_drv.c **** * Function Name: USBUART_InitNoDataControlTransfer
 668:Generated_Source\PSoC5/USBUART_drv.c **** ****************************************************************************//**
ARM GAS  C:\Users\HPz420\AppData\Local\Temp\ccyisMw6.s 			page 32


 669:Generated_Source\PSoC5/USBUART_drv.c **** *
 670:Generated_Source\PSoC5/USBUART_drv.c **** *  Initialize a no data control transfer
 671:Generated_Source\PSoC5/USBUART_drv.c **** *
 672:Generated_Source\PSoC5/USBUART_drv.c **** * \return
 673:Generated_Source\PSoC5/USBUART_drv.c **** *  requestHandled state.
 674:Generated_Source\PSoC5/USBUART_drv.c **** *
 675:Generated_Source\PSoC5/USBUART_drv.c **** * \globalvars
 676:Generated_Source\PSoC5/USBUART_drv.c **** *  USBUART_transferState - set to TRANS_STATE_NO_DATA_CONTROL.
 677:Generated_Source\PSoC5/USBUART_drv.c **** *  USBUART_ep0Mode  - set to MODE_STATUS_IN_ONLY.
 678:Generated_Source\PSoC5/USBUART_drv.c **** *  USBUART_ep0Count - cleared.
 679:Generated_Source\PSoC5/USBUART_drv.c **** *  USBUART_ep0Toggle - set to EP0_CNT_DATA_TOGGLE
 680:Generated_Source\PSoC5/USBUART_drv.c **** *
 681:Generated_Source\PSoC5/USBUART_drv.c **** * \reentrant
 682:Generated_Source\PSoC5/USBUART_drv.c **** *  No.
 683:Generated_Source\PSoC5/USBUART_drv.c **** *
 684:Generated_Source\PSoC5/USBUART_drv.c **** *******************************************************************************/
 685:Generated_Source\PSoC5/USBUART_drv.c **** uint8 USBUART_InitNoDataControlTransfer(void) 
 686:Generated_Source\PSoC5/USBUART_drv.c **** {
 1084              		.loc 1 686 0
 1085              		.cfi_startproc
 1086              		@ args = 0, pretend = 0, frame = 0
 1087              		@ frame_needed = 1, uses_anonymous_args = 0
 1088              		@ link register save eliminated.
 1089 0000 80B4     		push	{r7}
 1090              		.cfi_def_cfa_offset 4
 1091              		.cfi_offset 7, -4
 1092 0002 00AF     		add	r7, sp, #0
 1093              		.cfi_def_cfa_register 7
 687:Generated_Source\PSoC5/USBUART_drv.c ****     USBUART_transferState = USBUART_TRANS_STATE_NO_DATA_CONTROL;
 1094              		.loc 1 687 0
 1095 0004 084B     		ldr	r3, .L88
 1096 0006 0622     		movs	r2, #6
 1097 0008 1A70     		strb	r2, [r3]
 688:Generated_Source\PSoC5/USBUART_drv.c ****     USBUART_ep0Mode       = USBUART_MODE_STATUS_IN_ONLY;
 1098              		.loc 1 688 0
 1099 000a 084B     		ldr	r3, .L88+4
 1100 000c 0622     		movs	r2, #6
 1101 000e 1A70     		strb	r2, [r3]
 689:Generated_Source\PSoC5/USBUART_drv.c ****     USBUART_ep0Toggle     = USBUART_EP0_CNT_DATA_TOGGLE;
 1102              		.loc 1 689 0
 1103 0010 074B     		ldr	r3, .L88+8
 1104 0012 8022     		movs	r2, #128
 1105 0014 1A70     		strb	r2, [r3]
 690:Generated_Source\PSoC5/USBUART_drv.c ****     USBUART_ep0Count      = 0u;
 1106              		.loc 1 690 0
 1107 0016 074B     		ldr	r3, .L88+12
 1108 0018 0022     		movs	r2, #0
 1109 001a 1A70     		strb	r2, [r3]
 691:Generated_Source\PSoC5/USBUART_drv.c **** 
 692:Generated_Source\PSoC5/USBUART_drv.c ****     return (USBUART_TRUE);
 1110              		.loc 1 692 0
 1111 001c 0123     		movs	r3, #1
 693:Generated_Source\PSoC5/USBUART_drv.c **** }
 1112              		.loc 1 693 0
 1113 001e 1846     		mov	r0, r3
 1114 0020 BD46     		mov	sp, r7
 1115              		.cfi_def_cfa_register 13
ARM GAS  C:\Users\HPz420\AppData\Local\Temp\ccyisMw6.s 			page 33


 1116              		@ sp needed
 1117 0022 80BC     		pop	{r7}
 1118              		.cfi_restore 7
 1119              		.cfi_def_cfa_offset 0
 1120 0024 7047     		bx	lr
 1121              	.L89:
 1122 0026 00BF     		.align	2
 1123              	.L88:
 1124 0028 00000000 		.word	USBUART_transferState
 1125 002c 00000000 		.word	USBUART_ep0Mode
 1126 0030 00000000 		.word	USBUART_ep0Toggle
 1127 0034 00000000 		.word	USBUART_ep0Count
 1128              		.cfi_endproc
 1129              	.LFE12:
 1130              		.size	USBUART_InitNoDataControlTransfer, .-USBUART_InitNoDataControlTransfer
 1131              		.section	.text.USBUART_NoDataControlStatusStage,"ax",%progbits
 1132              		.align	2
 1133              		.global	USBUART_NoDataControlStatusStage
 1134              		.thumb
 1135              		.thumb_func
 1136              		.type	USBUART_NoDataControlStatusStage, %function
 1137              	USBUART_NoDataControlStatusStage:
 1138              	.LFB13:
 694:Generated_Source\PSoC5/USBUART_drv.c **** 
 695:Generated_Source\PSoC5/USBUART_drv.c **** 
 696:Generated_Source\PSoC5/USBUART_drv.c **** /*******************************************************************************
 697:Generated_Source\PSoC5/USBUART_drv.c **** * Function Name: USBUART_NoDataControlStatusStage
 698:Generated_Source\PSoC5/USBUART_drv.c **** ****************************************************************************//**
 699:Generated_Source\PSoC5/USBUART_drv.c **** *  Handle the Status Stage of a no data control transfer.
 700:Generated_Source\PSoC5/USBUART_drv.c **** *
 701:Generated_Source\PSoC5/USBUART_drv.c **** *  SET_ADDRESS is special, since we need to receive the status stage with
 702:Generated_Source\PSoC5/USBUART_drv.c **** *  the old address.
 703:Generated_Source\PSoC5/USBUART_drv.c **** *
 704:Generated_Source\PSoC5/USBUART_drv.c **** * \globalvars
 705:Generated_Source\PSoC5/USBUART_drv.c **** *  USBUART_transferState - set to TRANS_STATE_IDLE.
 706:Generated_Source\PSoC5/USBUART_drv.c **** *  USBUART_ep0Mode  - set to MODE_STALL_IN_OUT.
 707:Generated_Source\PSoC5/USBUART_drv.c **** *  USBUART_ep0Toggle - set to EP0_CNT_DATA_TOGGLE
 708:Generated_Source\PSoC5/USBUART_drv.c **** *  USBUART_deviceAddress - used to set new address and cleared
 709:Generated_Source\PSoC5/USBUART_drv.c **** *
 710:Generated_Source\PSoC5/USBUART_drv.c **** * \reentrant
 711:Generated_Source\PSoC5/USBUART_drv.c **** *  No.
 712:Generated_Source\PSoC5/USBUART_drv.c **** *
 713:Generated_Source\PSoC5/USBUART_drv.c **** *******************************************************************************/
 714:Generated_Source\PSoC5/USBUART_drv.c **** void USBUART_NoDataControlStatusStage(void) 
 715:Generated_Source\PSoC5/USBUART_drv.c **** {
 1139              		.loc 1 715 0
 1140              		.cfi_startproc
 1141              		@ args = 0, pretend = 0, frame = 0
 1142              		@ frame_needed = 1, uses_anonymous_args = 0
 1143 0000 80B5     		push	{r7, lr}
 1144              		.cfi_def_cfa_offset 8
 1145              		.cfi_offset 7, -8
 1146              		.cfi_offset 14, -4
 1147 0002 00AF     		add	r7, sp, #0
 1148              		.cfi_def_cfa_register 7
 716:Generated_Source\PSoC5/USBUART_drv.c ****     if (0u != USBUART_deviceAddress)
 1149              		.loc 1 716 0
ARM GAS  C:\Users\HPz420\AppData\Local\Temp\ccyisMw6.s 			page 34


 1150 0004 0D4B     		ldr	r3, .L92
 1151 0006 1B78     		ldrb	r3, [r3]
 1152 0008 DBB2     		uxtb	r3, r3
 1153 000a 002B     		cmp	r3, #0
 1154 000c 0AD0     		beq	.L91
 717:Generated_Source\PSoC5/USBUART_drv.c ****     {
 718:Generated_Source\PSoC5/USBUART_drv.c ****         /* Update device address if we got new address. */
 719:Generated_Source\PSoC5/USBUART_drv.c ****         USBUART_CR0_REG = (uint8) USBUART_deviceAddress | USBUART_CR0_ENABLE;
 1155              		.loc 1 719 0
 1156 000e 0C4A     		ldr	r2, .L92+4
 1157 0010 0A4B     		ldr	r3, .L92
 1158 0012 1B78     		ldrb	r3, [r3]
 1159 0014 DBB2     		uxtb	r3, r3
 1160 0016 63F07F03 		orn	r3, r3, #127
 1161 001a DBB2     		uxtb	r3, r3
 1162 001c 1370     		strb	r3, [r2]
 720:Generated_Source\PSoC5/USBUART_drv.c ****         USBUART_deviceAddress = 0u;
 1163              		.loc 1 720 0
 1164 001e 074B     		ldr	r3, .L92
 1165 0020 0022     		movs	r2, #0
 1166 0022 1A70     		strb	r2, [r3]
 1167              	.L91:
 721:Generated_Source\PSoC5/USBUART_drv.c ****     }
 722:Generated_Source\PSoC5/USBUART_drv.c **** 
 723:Generated_Source\PSoC5/USBUART_drv.c ****     USBUART_transferState = USBUART_TRANS_STATE_IDLE;
 1168              		.loc 1 723 0
 1169 0024 074B     		ldr	r3, .L92+8
 1170 0026 0022     		movs	r2, #0
 1171 0028 1A70     		strb	r2, [r3]
 724:Generated_Source\PSoC5/USBUART_drv.c ****     
 725:Generated_Source\PSoC5/USBUART_drv.c ****     /* Update the completion block. */
 726:Generated_Source\PSoC5/USBUART_drv.c ****     USBUART_UpdateStatusBlock(USBUART_XFER_STATUS_ACK);
 1172              		.loc 1 726 0
 1173 002a 0120     		movs	r0, #1
 1174 002c FFF7FEFF 		bl	USBUART_UpdateStatusBlock
 727:Generated_Source\PSoC5/USBUART_drv.c ****     
 728:Generated_Source\PSoC5/USBUART_drv.c ****     /* Stall IN and OUT, no more data is expected. */
 729:Generated_Source\PSoC5/USBUART_drv.c ****     USBUART_ep0Mode = USBUART_MODE_STALL_IN_OUT;
 1175              		.loc 1 729 0
 1176 0030 054B     		ldr	r3, .L92+12
 1177 0032 0322     		movs	r2, #3
 1178 0034 1A70     		strb	r2, [r3]
 730:Generated_Source\PSoC5/USBUART_drv.c **** }
 1179              		.loc 1 730 0
 1180 0036 00BF     		nop
 1181 0038 80BD     		pop	{r7, pc}
 1182              	.L93:
 1183 003a 00BF     		.align	2
 1184              	.L92:
 1185 003c 00000000 		.word	USBUART_deviceAddress
 1186 0040 08600040 		.word	1073766408
 1187 0044 00000000 		.word	USBUART_transferState
 1188 0048 00000000 		.word	USBUART_ep0Mode
 1189              		.cfi_endproc
 1190              	.LFE13:
 1191              		.size	USBUART_NoDataControlStatusStage, .-USBUART_NoDataControlStatusStage
 1192              		.section	.text.USBUART_UpdateStatusBlock,"ax",%progbits
ARM GAS  C:\Users\HPz420\AppData\Local\Temp\ccyisMw6.s 			page 35


 1193              		.align	2
 1194              		.global	USBUART_UpdateStatusBlock
 1195              		.thumb
 1196              		.thumb_func
 1197              		.type	USBUART_UpdateStatusBlock, %function
 1198              	USBUART_UpdateStatusBlock:
 1199              	.LFB14:
 731:Generated_Source\PSoC5/USBUART_drv.c **** 
 732:Generated_Source\PSoC5/USBUART_drv.c **** 
 733:Generated_Source\PSoC5/USBUART_drv.c **** /*******************************************************************************
 734:Generated_Source\PSoC5/USBUART_drv.c **** * Function Name: USBUART_UpdateStatusBlock
 735:Generated_Source\PSoC5/USBUART_drv.c **** ****************************************************************************//**
 736:Generated_Source\PSoC5/USBUART_drv.c **** *
 737:Generated_Source\PSoC5/USBUART_drv.c **** *  Update the Completion Status Block for a Request.  The block is updated
 738:Generated_Source\PSoC5/USBUART_drv.c **** *  with the completion code the USBUART_transferByteCount.  The
 739:Generated_Source\PSoC5/USBUART_drv.c **** *  StatusBlock Pointer is set to NULL.
 740:Generated_Source\PSoC5/USBUART_drv.c **** *
 741:Generated_Source\PSoC5/USBUART_drv.c **** *  completionCode - status.
 742:Generated_Source\PSoC5/USBUART_drv.c **** *
 743:Generated_Source\PSoC5/USBUART_drv.c **** *
 744:Generated_Source\PSoC5/USBUART_drv.c **** * \globalvars
 745:Generated_Source\PSoC5/USBUART_drv.c **** *  USBUART_currentTD.pStatusBlock->status - updated by the
 746:Generated_Source\PSoC5/USBUART_drv.c **** *    completionCode parameter.
 747:Generated_Source\PSoC5/USBUART_drv.c **** *  USBUART_currentTD.pStatusBlock->length - updated.
 748:Generated_Source\PSoC5/USBUART_drv.c **** *  USBUART_currentTD.pStatusBlock - cleared.
 749:Generated_Source\PSoC5/USBUART_drv.c **** *
 750:Generated_Source\PSoC5/USBUART_drv.c **** * \reentrant
 751:Generated_Source\PSoC5/USBUART_drv.c **** *  No.
 752:Generated_Source\PSoC5/USBUART_drv.c **** *
 753:Generated_Source\PSoC5/USBUART_drv.c **** *******************************************************************************/
 754:Generated_Source\PSoC5/USBUART_drv.c **** void USBUART_UpdateStatusBlock(uint8 completionCode) 
 755:Generated_Source\PSoC5/USBUART_drv.c **** {
 1200              		.loc 1 755 0
 1201              		.cfi_startproc
 1202              		@ args = 0, pretend = 0, frame = 8
 1203              		@ frame_needed = 1, uses_anonymous_args = 0
 1204              		@ link register save eliminated.
 1205 0000 80B4     		push	{r7}
 1206              		.cfi_def_cfa_offset 4
 1207              		.cfi_offset 7, -4
 1208 0002 83B0     		sub	sp, sp, #12
 1209              		.cfi_def_cfa_offset 16
 1210 0004 00AF     		add	r7, sp, #0
 1211              		.cfi_def_cfa_register 7
 1212 0006 0346     		mov	r3, r0
 1213 0008 FB71     		strb	r3, [r7, #7]
 756:Generated_Source\PSoC5/USBUART_drv.c ****     if (USBUART_currentTD.pStatusBlock != NULL)
 1214              		.loc 1 756 0
 1215 000a 0B4B     		ldr	r3, .L97
 1216 000c 9B68     		ldr	r3, [r3, #8]
 1217 000e 002B     		cmp	r3, #0
 1218 0010 0CD0     		beq	.L96
 757:Generated_Source\PSoC5/USBUART_drv.c ****     {
 758:Generated_Source\PSoC5/USBUART_drv.c ****         USBUART_currentTD.pStatusBlock->status = completionCode;
 1219              		.loc 1 758 0
 1220 0012 094B     		ldr	r3, .L97
 1221 0014 9B68     		ldr	r3, [r3, #8]
ARM GAS  C:\Users\HPz420\AppData\Local\Temp\ccyisMw6.s 			page 36


 1222 0016 FA79     		ldrb	r2, [r7, #7]
 1223 0018 1A70     		strb	r2, [r3]
 759:Generated_Source\PSoC5/USBUART_drv.c ****         USBUART_currentTD.pStatusBlock->length = USBUART_transferByteCount;
 1224              		.loc 1 759 0
 1225 001a 074B     		ldr	r3, .L97
 1226 001c 9B68     		ldr	r3, [r3, #8]
 1227 001e 074A     		ldr	r2, .L97+4
 1228 0020 1288     		ldrh	r2, [r2]	@ movhi
 1229 0022 92B2     		uxth	r2, r2
 1230 0024 5A80     		strh	r2, [r3, #2]	@ movhi
 760:Generated_Source\PSoC5/USBUART_drv.c ****         USBUART_currentTD.pStatusBlock = NULL;
 1231              		.loc 1 760 0
 1232 0026 044B     		ldr	r3, .L97
 1233 0028 0022     		movs	r2, #0
 1234 002a 9A60     		str	r2, [r3, #8]
 1235              	.L96:
 761:Generated_Source\PSoC5/USBUART_drv.c ****     }
 762:Generated_Source\PSoC5/USBUART_drv.c **** }
 1236              		.loc 1 762 0
 1237 002c 00BF     		nop
 1238 002e 0C37     		adds	r7, r7, #12
 1239              		.cfi_def_cfa_offset 4
 1240 0030 BD46     		mov	sp, r7
 1241              		.cfi_def_cfa_register 13
 1242              		@ sp needed
 1243 0032 80BC     		pop	{r7}
 1244              		.cfi_restore 7
 1245              		.cfi_def_cfa_offset 0
 1246 0034 7047     		bx	lr
 1247              	.L98:
 1248 0036 00BF     		.align	2
 1249              	.L97:
 1250 0038 00000000 		.word	USBUART_currentTD
 1251 003c 00000000 		.word	USBUART_transferByteCount
 1252              		.cfi_endproc
 1253              	.LFE14:
 1254              		.size	USBUART_UpdateStatusBlock, .-USBUART_UpdateStatusBlock
 1255              		.section	.text.USBUART_InitializeStatusBlock,"ax",%progbits
 1256              		.align	2
 1257              		.global	USBUART_InitializeStatusBlock
 1258              		.thumb
 1259              		.thumb_func
 1260              		.type	USBUART_InitializeStatusBlock, %function
 1261              	USBUART_InitializeStatusBlock:
 1262              	.LFB15:
 763:Generated_Source\PSoC5/USBUART_drv.c **** 
 764:Generated_Source\PSoC5/USBUART_drv.c **** 
 765:Generated_Source\PSoC5/USBUART_drv.c **** /*******************************************************************************
 766:Generated_Source\PSoC5/USBUART_drv.c **** * Function Name: USBUART_InitializeStatusBlock
 767:Generated_Source\PSoC5/USBUART_drv.c **** ****************************************************************************//**
 768:Generated_Source\PSoC5/USBUART_drv.c **** *
 769:Generated_Source\PSoC5/USBUART_drv.c **** *  Initialize the Completion Status Block for a Request.  The completion
 770:Generated_Source\PSoC5/USBUART_drv.c **** *  code is set to USB_XFER_IDLE.
 771:Generated_Source\PSoC5/USBUART_drv.c **** *
 772:Generated_Source\PSoC5/USBUART_drv.c **** *  Also, initializes USBUART_transferByteCount.  Save some space,
 773:Generated_Source\PSoC5/USBUART_drv.c **** *  this is the only consumer.
 774:Generated_Source\PSoC5/USBUART_drv.c **** *
ARM GAS  C:\Users\HPz420\AppData\Local\Temp\ccyisMw6.s 			page 37


 775:Generated_Source\PSoC5/USBUART_drv.c **** * \globalvars
 776:Generated_Source\PSoC5/USBUART_drv.c **** *  USBUART_currentTD.pStatusBlock->status - set to XFER_IDLE.
 777:Generated_Source\PSoC5/USBUART_drv.c **** *  USBUART_currentTD.pStatusBlock->length - cleared.
 778:Generated_Source\PSoC5/USBUART_drv.c **** *  USBUART_transferByteCount - cleared.
 779:Generated_Source\PSoC5/USBUART_drv.c **** *
 780:Generated_Source\PSoC5/USBUART_drv.c **** * \reentrant
 781:Generated_Source\PSoC5/USBUART_drv.c **** *  No.
 782:Generated_Source\PSoC5/USBUART_drv.c **** *
 783:Generated_Source\PSoC5/USBUART_drv.c **** *******************************************************************************/
 784:Generated_Source\PSoC5/USBUART_drv.c **** void USBUART_InitializeStatusBlock(void) 
 785:Generated_Source\PSoC5/USBUART_drv.c **** {
 1263              		.loc 1 785 0
 1264              		.cfi_startproc
 1265              		@ args = 0, pretend = 0, frame = 0
 1266              		@ frame_needed = 1, uses_anonymous_args = 0
 1267              		@ link register save eliminated.
 1268 0000 80B4     		push	{r7}
 1269              		.cfi_def_cfa_offset 4
 1270              		.cfi_offset 7, -4
 1271 0002 00AF     		add	r7, sp, #0
 1272              		.cfi_def_cfa_register 7
 786:Generated_Source\PSoC5/USBUART_drv.c ****     USBUART_transferByteCount = 0u;
 1273              		.loc 1 786 0
 1274 0004 094B     		ldr	r3, .L102
 1275 0006 0022     		movs	r2, #0
 1276 0008 1A80     		strh	r2, [r3]	@ movhi
 787:Generated_Source\PSoC5/USBUART_drv.c ****     
 788:Generated_Source\PSoC5/USBUART_drv.c ****     if (USBUART_currentTD.pStatusBlock != NULL)
 1277              		.loc 1 788 0
 1278 000a 094B     		ldr	r3, .L102+4
 1279 000c 9B68     		ldr	r3, [r3, #8]
 1280 000e 002B     		cmp	r3, #0
 1281 0010 07D0     		beq	.L101
 789:Generated_Source\PSoC5/USBUART_drv.c ****     {
 790:Generated_Source\PSoC5/USBUART_drv.c ****         USBUART_currentTD.pStatusBlock->status = USBUART_XFER_IDLE;
 1282              		.loc 1 790 0
 1283 0012 074B     		ldr	r3, .L102+4
 1284 0014 9B68     		ldr	r3, [r3, #8]
 1285 0016 0022     		movs	r2, #0
 1286 0018 1A70     		strb	r2, [r3]
 791:Generated_Source\PSoC5/USBUART_drv.c ****         USBUART_currentTD.pStatusBlock->length = 0u;
 1287              		.loc 1 791 0
 1288 001a 054B     		ldr	r3, .L102+4
 1289 001c 9B68     		ldr	r3, [r3, #8]
 1290 001e 0022     		movs	r2, #0
 1291 0020 5A80     		strh	r2, [r3, #2]	@ movhi
 1292              	.L101:
 792:Generated_Source\PSoC5/USBUART_drv.c ****     }
 793:Generated_Source\PSoC5/USBUART_drv.c **** }
 1293              		.loc 1 793 0
 1294 0022 00BF     		nop
 1295 0024 BD46     		mov	sp, r7
 1296              		.cfi_def_cfa_register 13
 1297              		@ sp needed
 1298 0026 80BC     		pop	{r7}
 1299              		.cfi_restore 7
 1300              		.cfi_def_cfa_offset 0
ARM GAS  C:\Users\HPz420\AppData\Local\Temp\ccyisMw6.s 			page 38


 1301 0028 7047     		bx	lr
 1302              	.L103:
 1303 002a 00BF     		.align	2
 1304              	.L102:
 1305 002c 00000000 		.word	USBUART_transferByteCount
 1306 0030 00000000 		.word	USBUART_currentTD
 1307              		.cfi_endproc
 1308              	.LFE15:
 1309              		.size	USBUART_InitializeStatusBlock, .-USBUART_InitializeStatusBlock
 1310              		.text
 1311              	.Letext0:
 1312              		.file 2 "Generated_Source\\PSoC5\\cytypes.h"
 1313              		.file 3 "Generated_Source\\PSoC5\\USBUART.h"
 1314              		.section	.debug_info,"",%progbits
 1315              	.Ldebug_info0:
 1316 0000 29050000 		.4byte	0x529
 1317 0004 0400     		.2byte	0x4
 1318 0006 00000000 		.4byte	.Ldebug_abbrev0
 1319 000a 04       		.byte	0x4
 1320 000b 01       		.uleb128 0x1
 1321 000c 98000000 		.4byte	.LASF76
 1322 0010 0C       		.byte	0xc
 1323 0011 69010000 		.4byte	.LASF77
 1324 0015 0A030000 		.4byte	.LASF78
 1325 0019 00000000 		.4byte	.Ldebug_ranges0+0
 1326 001d 00000000 		.4byte	0
 1327 0021 00000000 		.4byte	.Ldebug_line0
 1328 0025 02       		.uleb128 0x2
 1329 0026 01       		.byte	0x1
 1330 0027 06       		.byte	0x6
 1331 0028 9C010000 		.4byte	.LASF0
 1332 002c 02       		.uleb128 0x2
 1333 002d 01       		.byte	0x1
 1334 002e 08       		.byte	0x8
 1335 002f 90040000 		.4byte	.LASF1
 1336 0033 02       		.uleb128 0x2
 1337 0034 02       		.byte	0x2
 1338 0035 05       		.byte	0x5
 1339 0036 9E040000 		.4byte	.LASF2
 1340 003a 02       		.uleb128 0x2
 1341 003b 02       		.byte	0x2
 1342 003c 07       		.byte	0x7
 1343 003d A5020000 		.4byte	.LASF3
 1344 0041 02       		.uleb128 0x2
 1345 0042 04       		.byte	0x4
 1346 0043 05       		.byte	0x5
 1347 0044 F5010000 		.4byte	.LASF4
 1348 0048 02       		.uleb128 0x2
 1349 0049 04       		.byte	0x4
 1350 004a 07       		.byte	0x7
 1351 004b 76020000 		.4byte	.LASF5
 1352 004f 02       		.uleb128 0x2
 1353 0050 08       		.byte	0x8
 1354 0051 05       		.byte	0x5
 1355 0052 8E010000 		.4byte	.LASF6
 1356 0056 02       		.uleb128 0x2
 1357 0057 08       		.byte	0x8
ARM GAS  C:\Users\HPz420\AppData\Local\Temp\ccyisMw6.s 			page 39


 1358 0058 07       		.byte	0x7
 1359 0059 26010000 		.4byte	.LASF7
 1360 005d 03       		.uleb128 0x3
 1361 005e 04       		.byte	0x4
 1362 005f 05       		.byte	0x5
 1363 0060 696E7400 		.ascii	"int\000"
 1364 0064 02       		.uleb128 0x2
 1365 0065 04       		.byte	0x4
 1366 0066 07       		.byte	0x7
 1367 0067 5F020000 		.4byte	.LASF8
 1368 006b 04       		.uleb128 0x4
 1369 006c 0F020000 		.4byte	.LASF9
 1370 0070 02       		.byte	0x2
 1371 0071 E401     		.2byte	0x1e4
 1372 0073 2C000000 		.4byte	0x2c
 1373 0077 04       		.uleb128 0x4
 1374 0078 25000000 		.4byte	.LASF10
 1375 007c 02       		.byte	0x2
 1376 007d E501     		.2byte	0x1e5
 1377 007f 3A000000 		.4byte	0x3a
 1378 0083 02       		.uleb128 0x2
 1379 0084 04       		.byte	0x4
 1380 0085 04       		.byte	0x4
 1381 0086 40040000 		.4byte	.LASF11
 1382 008a 02       		.uleb128 0x2
 1383 008b 08       		.byte	0x8
 1384 008c 04       		.byte	0x4
 1385 008d 1E020000 		.4byte	.LASF12
 1386 0091 02       		.uleb128 0x2
 1387 0092 01       		.byte	0x1
 1388 0093 08       		.byte	0x8
 1389 0094 02050000 		.4byte	.LASF13
 1390 0098 04       		.uleb128 0x4
 1391 0099 72040000 		.4byte	.LASF14
 1392 009d 02       		.byte	0x2
 1393 009e 8E02     		.2byte	0x28e
 1394 00a0 A4000000 		.4byte	0xa4
 1395 00a4 05       		.uleb128 0x5
 1396 00a5 6B000000 		.4byte	0x6b
 1397 00a9 05       		.uleb128 0x5
 1398 00aa 77000000 		.4byte	0x77
 1399 00ae 02       		.uleb128 0x2
 1400 00af 08       		.byte	0x8
 1401 00b0 04       		.byte	0x4
 1402 00b1 AB030000 		.4byte	.LASF15
 1403 00b5 02       		.uleb128 0x2
 1404 00b6 04       		.byte	0x4
 1405 00b7 07       		.byte	0x7
 1406 00b8 A2030000 		.4byte	.LASF16
 1407 00bc 06       		.uleb128 0x6
 1408 00bd 0C       		.byte	0xc
 1409 00be 03       		.byte	0x3
 1410 00bf 91       		.byte	0x91
 1411 00c0 31010000 		.4byte	0x131
 1412 00c4 07       		.uleb128 0x7
 1413 00c5 D0030000 		.4byte	.LASF17
 1414 00c9 03       		.byte	0x3
ARM GAS  C:\Users\HPz420\AppData\Local\Temp\ccyisMw6.s 			page 40


 1415 00ca 93       		.byte	0x93
 1416 00cb 6B000000 		.4byte	0x6b
 1417 00cf 00       		.byte	0
 1418 00d0 07       		.uleb128 0x7
 1419 00d1 46040000 		.4byte	.LASF18
 1420 00d5 03       		.byte	0x3
 1421 00d6 94       		.byte	0x94
 1422 00d7 6B000000 		.4byte	0x6b
 1423 00db 01       		.byte	0x1
 1424 00dc 07       		.uleb128 0x7
 1425 00dd 98030000 		.4byte	.LASF19
 1426 00e1 03       		.byte	0x3
 1427 00e2 95       		.byte	0x95
 1428 00e3 6B000000 		.4byte	0x6b
 1429 00e7 02       		.byte	0x2
 1430 00e8 07       		.uleb128 0x7
 1431 00e9 15020000 		.4byte	.LASF20
 1432 00ed 03       		.byte	0x3
 1433 00ee 96       		.byte	0x96
 1434 00ef 6B000000 		.4byte	0x6b
 1435 00f3 03       		.byte	0x3
 1436 00f4 07       		.uleb128 0x7
 1437 00f5 3D010000 		.4byte	.LASF21
 1438 00f9 03       		.byte	0x3
 1439 00fa 97       		.byte	0x97
 1440 00fb 6B000000 		.4byte	0x6b
 1441 00ff 04       		.byte	0x4
 1442 0100 07       		.uleb128 0x7
 1443 0101 43020000 		.4byte	.LASF22
 1444 0105 03       		.byte	0x3
 1445 0106 98       		.byte	0x98
 1446 0107 6B000000 		.4byte	0x6b
 1447 010b 05       		.byte	0x5
 1448 010c 07       		.uleb128 0x7
 1449 010d 38050000 		.4byte	.LASF23
 1450 0111 03       		.byte	0x3
 1451 0112 99       		.byte	0x99
 1452 0113 77000000 		.4byte	0x77
 1453 0117 06       		.byte	0x6
 1454 0118 07       		.uleb128 0x7
 1455 0119 07050000 		.4byte	.LASF24
 1456 011d 03       		.byte	0x3
 1457 011e 9A       		.byte	0x9a
 1458 011f 77000000 		.4byte	0x77
 1459 0123 08       		.byte	0x8
 1460 0124 07       		.uleb128 0x7
 1461 0125 8B050000 		.4byte	.LASF25
 1462 0129 03       		.byte	0x3
 1463 012a 9B       		.byte	0x9b
 1464 012b 6B000000 		.4byte	0x6b
 1465 012f 0A       		.byte	0xa
 1466 0130 00       		.byte	0
 1467 0131 08       		.uleb128 0x8
 1468 0132 21050000 		.4byte	.LASF26
 1469 0136 03       		.byte	0x3
 1470 0137 9C       		.byte	0x9c
 1471 0138 BC000000 		.4byte	0xbc
ARM GAS  C:\Users\HPz420\AppData\Local\Temp\ccyisMw6.s 			page 41


 1472 013c 06       		.uleb128 0x6
 1473 013d 04       		.byte	0x4
 1474 013e 03       		.byte	0x3
 1475 013f A8       		.byte	0xa8
 1476 0140 5D010000 		.4byte	0x15d
 1477 0144 07       		.uleb128 0x7
 1478 0145 84050000 		.4byte	.LASF27
 1479 0149 03       		.byte	0x3
 1480 014a AA       		.byte	0xaa
 1481 014b 6B000000 		.4byte	0x6b
 1482 014f 00       		.byte	0
 1483 0150 07       		.uleb128 0x7
 1484 0151 DD040000 		.4byte	.LASF28
 1485 0155 03       		.byte	0x3
 1486 0156 AB       		.byte	0xab
 1487 0157 77000000 		.4byte	0x77
 1488 015b 02       		.byte	0x2
 1489 015c 00       		.byte	0
 1490 015d 08       		.uleb128 0x8
 1491 015e 4D010000 		.4byte	.LASF29
 1492 0162 03       		.byte	0x3
 1493 0163 AC       		.byte	0xac
 1494 0164 3C010000 		.4byte	0x13c
 1495 0168 06       		.uleb128 0x6
 1496 0169 0C       		.byte	0xc
 1497 016a 03       		.byte	0x3
 1498 016b AE       		.byte	0xae
 1499 016c 95010000 		.4byte	0x195
 1500 0170 07       		.uleb128 0x7
 1501 0171 1F000000 		.4byte	.LASF30
 1502 0175 03       		.byte	0x3
 1503 0176 B0       		.byte	0xb0
 1504 0177 77000000 		.4byte	0x77
 1505 017b 00       		.byte	0
 1506 017c 07       		.uleb128 0x7
 1507 017d 3D020000 		.4byte	.LASF31
 1508 0181 03       		.byte	0x3
 1509 0182 B1       		.byte	0xb1
 1510 0183 95010000 		.4byte	0x195
 1511 0187 04       		.byte	0x4
 1512 0188 07       		.uleb128 0x7
 1513 0189 00000000 		.4byte	.LASF32
 1514 018d 03       		.byte	0x3
 1515 018e B2       		.byte	0xb2
 1516 018f 9B010000 		.4byte	0x19b
 1517 0193 08       		.byte	0x8
 1518 0194 00       		.byte	0
 1519 0195 09       		.uleb128 0x9
 1520 0196 04       		.byte	0x4
 1521 0197 A4000000 		.4byte	0xa4
 1522 019b 09       		.uleb128 0x9
 1523 019c 04       		.byte	0x4
 1524 019d 5D010000 		.4byte	0x15d
 1525 01a1 08       		.uleb128 0x8
 1526 01a2 A8040000 		.4byte	.LASF33
 1527 01a6 03       		.byte	0x3
 1528 01a7 B3       		.byte	0xb3
ARM GAS  C:\Users\HPz420\AppData\Local\Temp\ccyisMw6.s 			page 42


 1529 01a8 68010000 		.4byte	0x168
 1530 01ac 06       		.uleb128 0x6
 1531 01ad 08       		.byte	0x8
 1532 01ae 03       		.byte	0x3
 1533 01af C9       		.byte	0xc9
 1534 01b0 C1010000 		.4byte	0x1c1
 1535 01b4 07       		.uleb128 0x7
 1536 01b5 B5050000 		.4byte	.LASF34
 1537 01b9 03       		.byte	0x3
 1538 01ba CB       		.byte	0xcb
 1539 01bb C1010000 		.4byte	0x1c1
 1540 01bf 00       		.byte	0
 1541 01c0 00       		.byte	0
 1542 01c1 0A       		.uleb128 0xa
 1543 01c2 6B000000 		.4byte	0x6b
 1544 01c6 D1010000 		.4byte	0x1d1
 1545 01ca 0B       		.uleb128 0xb
 1546 01cb B5000000 		.4byte	0xb5
 1547 01cf 07       		.byte	0x7
 1548 01d0 00       		.byte	0
 1549 01d1 08       		.uleb128 0x8
 1550 01d2 DD010000 		.4byte	.LASF35
 1551 01d6 03       		.byte	0x3
 1552 01d7 CC       		.byte	0xcc
 1553 01d8 AC010000 		.4byte	0x1ac
 1554 01dc 0C       		.uleb128 0xc
 1555 01dd FE010000 		.4byte	.LASF38
 1556 01e1 01       		.byte	0x1
 1557 01e2 5E       		.byte	0x5e
 1558 01e3 00000000 		.4byte	.LFB0
 1559 01e7 F8000000 		.4byte	.LFE0-.LFB0
 1560 01eb 01       		.uleb128 0x1
 1561 01ec 9C       		.byte	0x9c
 1562 01ed 0E020000 		.4byte	0x20e
 1563 01f1 0D       		.uleb128 0xd
 1564 01f2 7A030000 		.4byte	.LASF36
 1565 01f6 01       		.byte	0x1
 1566 01f7 60       		.byte	0x60
 1567 01f8 6B000000 		.4byte	0x6b
 1568 01fc 02       		.uleb128 0x2
 1569 01fd 91       		.byte	0x91
 1570 01fe 76       		.sleb128 -10
 1571 01ff 0D       		.uleb128 0xd
 1572 0200 6C020000 		.4byte	.LASF37
 1573 0204 01       		.byte	0x1
 1574 0205 61       		.byte	0x61
 1575 0206 6B000000 		.4byte	0x6b
 1576 020a 02       		.uleb128 0x2
 1577 020b 91       		.byte	0x91
 1578 020c 77       		.sleb128 -9
 1579 020d 00       		.byte	0
 1580 020e 0C       		.uleb128 0xc
 1581 020f 55000000 		.4byte	.LASF39
 1582 0213 01       		.byte	0x1
 1583 0214 C6       		.byte	0xc6
 1584 0215 00000000 		.4byte	.LFB1
 1585 0219 88000000 		.4byte	.LFE1-.LFB1
ARM GAS  C:\Users\HPz420\AppData\Local\Temp\ccyisMw6.s 			page 43


 1586 021d 01       		.uleb128 0x1
 1587 021e 9C       		.byte	0x9c
 1588 021f 32020000 		.4byte	0x232
 1589 0223 0D       		.uleb128 0xd
 1590 0224 12050000 		.4byte	.LASF40
 1591 0228 01       		.byte	0x1
 1592 0229 C8       		.byte	0xc8
 1593 022a 6B000000 		.4byte	0x6b
 1594 022e 02       		.uleb128 0x2
 1595 022f 91       		.byte	0x91
 1596 0230 77       		.sleb128 -9
 1597 0231 00       		.byte	0
 1598 0232 0E       		.uleb128 0xe
 1599 0233 73050000 		.4byte	.LASF41
 1600 0237 01       		.byte	0x1
 1601 0238 0301     		.2byte	0x103
 1602 023a 00000000 		.4byte	.LFB2
 1603 023e 4C000000 		.4byte	.LFE2-.LFB2
 1604 0242 01       		.uleb128 0x1
 1605 0243 9C       		.byte	0x9c
 1606 0244 0E       		.uleb128 0xe
 1607 0245 43050000 		.4byte	.LASF42
 1608 0249 01       		.byte	0x1
 1609 024a 2701     		.2byte	0x127
 1610 024c 00000000 		.4byte	.LFB3
 1611 0250 58000000 		.4byte	.LFE3-.LFB3
 1612 0254 01       		.uleb128 0x1
 1613 0255 9C       		.byte	0x9c
 1614 0256 0F       		.uleb128 0xf
 1615 0257 10040000 		.4byte	.LASF43
 1616 025b 01       		.byte	0x1
 1617 025c 6501     		.2byte	0x165
 1618 025e 00000000 		.4byte	.LFB4
 1619 0262 D0000000 		.4byte	.LFE4-.LFB4
 1620 0266 01       		.uleb128 0x1
 1621 0267 9C       		.byte	0x9c
 1622 0268 7C020000 		.4byte	0x27c
 1623 026c 10       		.uleb128 0x10
 1624 026d 01030000 		.4byte	.LASF44
 1625 0271 01       		.byte	0x1
 1626 0272 6701     		.2byte	0x167
 1627 0274 6B000000 		.4byte	0x6b
 1628 0278 02       		.uleb128 0x2
 1629 0279 91       		.byte	0x91
 1630 027a 77       		.sleb128 -9
 1631 027b 00       		.byte	0
 1632 027c 11       		.uleb128 0x11
 1633 027d A8010000 		.4byte	.LASF48
 1634 0281 01       		.byte	0x1
 1635 0282 A201     		.2byte	0x1a2
 1636 0284 6B000000 		.4byte	0x6b
 1637 0288 00000000 		.4byte	.LFB5
 1638 028c 70000000 		.4byte	.LFE5-.LFB5
 1639 0290 01       		.uleb128 0x1
 1640 0291 9C       		.byte	0x9c
 1641 0292 A6020000 		.4byte	0x2a6
 1642 0296 10       		.uleb128 0x10
ARM GAS  C:\Users\HPz420\AppData\Local\Temp\ccyisMw6.s 			page 44


 1643 0297 AB050000 		.4byte	.LASF45
 1644 029b 01       		.byte	0x1
 1645 029c A401     		.2byte	0x1a4
 1646 029e 77000000 		.4byte	0x77
 1647 02a2 02       		.uleb128 0x2
 1648 02a3 91       		.byte	0x91
 1649 02a4 76       		.sleb128 -10
 1650 02a5 00       		.byte	0
 1651 02a6 12       		.uleb128 0x12
 1652 02a7 B8020000 		.4byte	.LASF53
 1653 02ab 01       		.byte	0x1
 1654 02ac D701     		.2byte	0x1d7
 1655 02ae 6B000000 		.4byte	0x6b
 1656 02b2 00000000 		.4byte	.LFB6
 1657 02b6 40000000 		.4byte	.LFE6-.LFB6
 1658 02ba 01       		.uleb128 0x1
 1659 02bb 9C       		.byte	0x9c
 1660 02bc 0E       		.uleb128 0xe
 1661 02bd 88020000 		.4byte	.LASF46
 1662 02c1 01       		.byte	0x1
 1663 02c2 F701     		.2byte	0x1f7
 1664 02c4 00000000 		.4byte	.LFB7
 1665 02c8 0C000000 		.4byte	.LFE7-.LFB7
 1666 02cc 01       		.uleb128 0x1
 1667 02cd 9C       		.byte	0x9c
 1668 02ce 0E       		.uleb128 0xe
 1669 02cf D6050000 		.4byte	.LASF47
 1670 02d3 01       		.byte	0x1
 1671 02d4 0E02     		.2byte	0x20e
 1672 02d6 00000000 		.4byte	.LFB8
 1673 02da 40000000 		.4byte	.LFE8-.LFB8
 1674 02de 01       		.uleb128 0x1
 1675 02df 9C       		.byte	0x9c
 1676 02e0 11       		.uleb128 0x11
 1677 02e1 B7030000 		.4byte	.LASF49
 1678 02e5 01       		.byte	0x1
 1679 02e6 3002     		.2byte	0x230
 1680 02e8 6B000000 		.4byte	0x6b
 1681 02ec 00000000 		.4byte	.LFB9
 1682 02f0 64000000 		.4byte	.LFE9-.LFB9
 1683 02f4 01       		.uleb128 0x1
 1684 02f5 9C       		.byte	0x9c
 1685 02f6 0A030000 		.4byte	0x30a
 1686 02fa 10       		.uleb128 0x10
 1687 02fb AB050000 		.4byte	.LASF45
 1688 02ff 01       		.byte	0x1
 1689 0300 3202     		.2byte	0x232
 1690 0302 77000000 		.4byte	0x77
 1691 0306 02       		.uleb128 0x2
 1692 0307 91       		.byte	0x91
 1693 0308 76       		.sleb128 -10
 1694 0309 00       		.byte	0
 1695 030a 0F       		.uleb128 0xf
 1696 030b 55050000 		.4byte	.LASF50
 1697 030f 01       		.byte	0x1
 1698 0310 6302     		.2byte	0x263
 1699 0312 00000000 		.4byte	.LFB10
ARM GAS  C:\Users\HPz420\AppData\Local\Temp\ccyisMw6.s 			page 45


 1700 0316 B4000000 		.4byte	.LFE10-.LFB10
 1701 031a 01       		.uleb128 0x1
 1702 031b 9C       		.byte	0x9c
 1703 031c 3F030000 		.4byte	0x33f
 1704 0320 10       		.uleb128 0x10
 1705 0321 01030000 		.4byte	.LASF44
 1706 0325 01       		.byte	0x1
 1707 0326 6502     		.2byte	0x265
 1708 0328 6B000000 		.4byte	0x6b
 1709 032c 02       		.uleb128 0x2
 1710 032d 91       		.byte	0x91
 1711 032e 77       		.sleb128 -9
 1712 032f 10       		.uleb128 0x10
 1713 0330 69000000 		.4byte	.LASF51
 1714 0334 01       		.byte	0x1
 1715 0335 6602     		.2byte	0x266
 1716 0337 6B000000 		.4byte	0x6b
 1717 033b 02       		.uleb128 0x2
 1718 033c 91       		.byte	0x91
 1719 033d 76       		.sleb128 -10
 1720 033e 00       		.byte	0
 1721 033f 0E       		.uleb128 0xe
 1722 0340 20040000 		.4byte	.LASF52
 1723 0344 01       		.byte	0x1
 1724 0345 8D02     		.2byte	0x28d
 1725 0347 00000000 		.4byte	.LFB11
 1726 034b 24000000 		.4byte	.LFE11-.LFB11
 1727 034f 01       		.uleb128 0x1
 1728 0350 9C       		.byte	0x9c
 1729 0351 12       		.uleb128 0x12
 1730 0352 EE030000 		.4byte	.LASF54
 1731 0356 01       		.byte	0x1
 1732 0357 AD02     		.2byte	0x2ad
 1733 0359 6B000000 		.4byte	0x6b
 1734 035d 00000000 		.4byte	.LFB12
 1735 0361 38000000 		.4byte	.LFE12-.LFB12
 1736 0365 01       		.uleb128 0x1
 1737 0366 9C       		.byte	0x9c
 1738 0367 0E       		.uleb128 0xe
 1739 0368 51040000 		.4byte	.LASF55
 1740 036c 01       		.byte	0x1
 1741 036d CA02     		.2byte	0x2ca
 1742 036f 00000000 		.4byte	.LFB13
 1743 0373 4C000000 		.4byte	.LFE13-.LFB13
 1744 0377 01       		.uleb128 0x1
 1745 0378 9C       		.byte	0x9c
 1746 0379 0F       		.uleb128 0xf
 1747 037a BC050000 		.4byte	.LASF56
 1748 037e 01       		.byte	0x1
 1749 037f F202     		.2byte	0x2f2
 1750 0381 00000000 		.4byte	.LFB14
 1751 0385 40000000 		.4byte	.LFE14-.LFB14
 1752 0389 01       		.uleb128 0x1
 1753 038a 9C       		.byte	0x9c
 1754 038b 9F030000 		.4byte	0x39f
 1755 038f 13       		.uleb128 0x13
 1756 0390 72000000 		.4byte	.LASF79
ARM GAS  C:\Users\HPz420\AppData\Local\Temp\ccyisMw6.s 			page 46


 1757 0394 01       		.byte	0x1
 1758 0395 F202     		.2byte	0x2f2
 1759 0397 6B000000 		.4byte	0x6b
 1760 039b 02       		.uleb128 0x2
 1761 039c 91       		.byte	0x91
 1762 039d 77       		.sleb128 -9
 1763 039e 00       		.byte	0
 1764 039f 14       		.uleb128 0x14
 1765 03a0 E4040000 		.4byte	.LASF57
 1766 03a4 01       		.byte	0x1
 1767 03a5 1003     		.2byte	0x310
 1768 03a7 00000000 		.4byte	.LFB15
 1769 03ab 34000000 		.4byte	.LFE15-.LFB15
 1770 03af 01       		.uleb128 0x1
 1771 03b0 9C       		.byte	0x9c
 1772 03b1 15       		.uleb128 0x15
 1773 03b2 2C000000 		.4byte	.LASF58
 1774 03b6 01       		.byte	0x1
 1775 03b7 38       		.byte	0x38
 1776 03b8 A4000000 		.4byte	0xa4
 1777 03bc 05       		.uleb128 0x5
 1778 03bd 03       		.byte	0x3
 1779 03be 00000000 		.4byte	USBUART_device
 1780 03c2 15       		.uleb128 0x15
 1781 03c3 F5050000 		.4byte	.LASF59
 1782 03c7 01       		.byte	0x1
 1783 03c8 4E       		.byte	0x4e
 1784 03c9 A4000000 		.4byte	0xa4
 1785 03cd 05       		.uleb128 0x5
 1786 03ce 03       		.byte	0x3
 1787 03cf 00000000 		.4byte	USBUART_transferState
 1788 03d3 15       		.uleb128 0x15
 1789 03d4 95050000 		.4byte	.LASF60
 1790 03d8 01       		.byte	0x1
 1791 03d9 1E       		.byte	0x1e
 1792 03da A4000000 		.4byte	0xa4
 1793 03de 05       		.uleb128 0x5
 1794 03df 03       		.byte	0x3
 1795 03e0 00000000 		.4byte	USBUART_configuration
 1796 03e4 15       		.uleb128 0x15
 1797 03e5 0B060000 		.4byte	.LASF61
 1798 03e9 01       		.byte	0x1
 1799 03ea 25       		.byte	0x25
 1800 03eb A4000000 		.4byte	0xa4
 1801 03ef 05       		.uleb128 0x5
 1802 03f0 03       		.byte	0x3
 1803 03f1 00000000 		.4byte	USBUART_configurationChanged
 1804 03f5 15       		.uleb128 0x15
 1805 03f6 4A020000 		.4byte	.LASF62
 1806 03fa 01       		.byte	0x1
 1807 03fb 30       		.byte	0x30
 1808 03fc A4000000 		.4byte	0xa4
 1809 0400 05       		.uleb128 0x5
 1810 0401 03       		.byte	0x3
 1811 0402 00000000 		.4byte	USBUART_deviceStatus
 1812 0406 15       		.uleb128 0x15
 1813 0407 25020000 		.4byte	.LASF63
ARM GAS  C:\Users\HPz420\AppData\Local\Temp\ccyisMw6.s 			page 47


 1814 040b 01       		.byte	0x1
 1815 040c 21       		.byte	0x21
 1816 040d A4000000 		.4byte	0xa4
 1817 0411 05       		.uleb128 0x5
 1818 0412 03       		.byte	0x3
 1819 0413 00000000 		.4byte	USBUART_interfaceNumber
 1820 0417 0A       		.uleb128 0xa
 1821 0418 A4000000 		.4byte	0xa4
 1822 041c 27040000 		.4byte	0x427
 1823 0420 0B       		.uleb128 0xb
 1824 0421 B5000000 		.4byte	0xb5
 1825 0425 01       		.byte	0x1
 1826 0426 00       		.byte	0
 1827 0427 15       		.uleb128 0x15
 1828 0428 77040000 		.4byte	.LASF64
 1829 042c 01       		.byte	0x1
 1830 042d 32       		.byte	0x32
 1831 042e 38040000 		.4byte	0x438
 1832 0432 05       		.uleb128 0x5
 1833 0433 03       		.byte	0x3
 1834 0434 00000000 		.4byte	USBUART_interfaceSetting
 1835 0438 05       		.uleb128 0x5
 1836 0439 17040000 		.4byte	0x417
 1837 043d 15       		.uleb128 0x15
 1838 043e C0010000 		.4byte	.LASF65
 1839 0442 01       		.byte	0x1
 1840 0443 33       		.byte	0x33
 1841 0444 4E040000 		.4byte	0x44e
 1842 0448 05       		.uleb128 0x5
 1843 0449 03       		.byte	0x3
 1844 044a 00000000 		.4byte	USBUART_interfaceSettingLast
 1845 044e 05       		.uleb128 0x5
 1846 044f 17040000 		.4byte	0x417
 1847 0453 15       		.uleb128 0x15
 1848 0454 82030000 		.4byte	.LASF66
 1849 0458 01       		.byte	0x1
 1850 0459 28       		.byte	0x28
 1851 045a A4000000 		.4byte	0xa4
 1852 045e 05       		.uleb128 0x5
 1853 045f 03       		.byte	0x3
 1854 0460 00000000 		.4byte	USBUART_deviceAddress
 1855 0464 15       		.uleb128 0x15
 1856 0465 B5040000 		.4byte	.LASF67
 1857 0469 01       		.byte	0x1
 1858 046a 34       		.byte	0x34
 1859 046b 75040000 		.4byte	0x475
 1860 046f 05       		.uleb128 0x5
 1861 0470 03       		.byte	0x3
 1862 0471 00000000 		.4byte	USBUART_interfaceStatus
 1863 0475 05       		.uleb128 0x5
 1864 0476 17040000 		.4byte	0x417
 1865 047a 15       		.uleb128 0x15
 1866 047b D7030000 		.4byte	.LASF68
 1867 047f 01       		.byte	0x1
 1868 0480 3D       		.byte	0x3d
 1869 0481 8B040000 		.4byte	0x48b
 1870 0485 05       		.uleb128 0x5
ARM GAS  C:\Users\HPz420\AppData\Local\Temp\ccyisMw6.s 			page 48


 1871 0486 03       		.byte	0x3
 1872 0487 00000000 		.4byte	USBUART_interfaceClass
 1873 048b 09       		.uleb128 0x9
 1874 048c 04       		.byte	0x4
 1875 048d 91040000 		.4byte	0x491
 1876 0491 16       		.uleb128 0x16
 1877 0492 6B000000 		.4byte	0x6b
 1878 0496 0A       		.uleb128 0xa
 1879 0497 A6040000 		.4byte	0x4a6
 1880 049b A6040000 		.4byte	0x4a6
 1881 049f 0B       		.uleb128 0xb
 1882 04a0 B5000000 		.4byte	0xb5
 1883 04a4 08       		.byte	0x8
 1884 04a5 00       		.byte	0
 1885 04a6 05       		.uleb128 0x5
 1886 04a7 31010000 		.4byte	0x131
 1887 04ab 15       		.uleb128 0x15
 1888 04ac 42010000 		.4byte	.LASF69
 1889 04b0 01       		.byte	0x1
 1890 04b1 18       		.byte	0x18
 1891 04b2 BC040000 		.4byte	0x4bc
 1892 04b6 05       		.uleb128 0x5
 1893 04b7 03       		.byte	0x3
 1894 04b8 00000000 		.4byte	USBUART_EP
 1895 04bc 05       		.uleb128 0x5
 1896 04bd 96040000 		.4byte	0x496
 1897 04c1 15       		.uleb128 0x15
 1898 04c2 EF020000 		.4byte	.LASF70
 1899 04c6 01       		.byte	0x1
 1900 04c7 4F       		.byte	0x4f
 1901 04c8 D2040000 		.4byte	0x4d2
 1902 04cc 05       		.uleb128 0x5
 1903 04cd 03       		.byte	0x3
 1904 04ce 00000000 		.4byte	USBUART_currentTD
 1905 04d2 05       		.uleb128 0x5
 1906 04d3 A1010000 		.4byte	0x1a1
 1907 04d7 15       		.uleb128 0x15
 1908 04d8 0D000000 		.4byte	.LASF71
 1909 04dc 01       		.byte	0x1
 1910 04dd 44       		.byte	0x44
 1911 04de A4000000 		.4byte	0xa4
 1912 04e2 05       		.uleb128 0x5
 1913 04e3 03       		.byte	0x3
 1914 04e4 00000000 		.4byte	USBUART_ep0Toggle
 1915 04e8 15       		.uleb128 0x15
 1916 04e9 81000000 		.4byte	.LASF72
 1917 04ed 01       		.byte	0x1
 1918 04ee 45       		.byte	0x45
 1919 04ef A4000000 		.4byte	0xa4
 1920 04f3 05       		.uleb128 0x5
 1921 04f4 03       		.byte	0x3
 1922 04f5 00000000 		.4byte	USBUART_lastPacketSize
 1923 04f9 15       		.uleb128 0x15
 1924 04fa CD040000 		.4byte	.LASF73
 1925 04fe 01       		.byte	0x1
 1926 04ff 50       		.byte	0x50
 1927 0500 A4000000 		.4byte	0xa4
ARM GAS  C:\Users\HPz420\AppData\Local\Temp\ccyisMw6.s 			page 49


 1928 0504 05       		.uleb128 0x5
 1929 0505 03       		.byte	0x3
 1930 0506 00000000 		.4byte	USBUART_ep0Mode
 1931 050a 15       		.uleb128 0x15
 1932 050b DE020000 		.4byte	.LASF74
 1933 050f 01       		.byte	0x1
 1934 0510 51       		.byte	0x51
 1935 0511 A4000000 		.4byte	0xa4
 1936 0515 05       		.uleb128 0x5
 1937 0516 03       		.byte	0x3
 1938 0517 00000000 		.4byte	USBUART_ep0Count
 1939 051b 15       		.uleb128 0x15
 1940 051c 3B000000 		.4byte	.LASF75
 1941 0520 01       		.byte	0x1
 1942 0521 52       		.byte	0x52
 1943 0522 A9000000 		.4byte	0xa9
 1944 0526 05       		.uleb128 0x5
 1945 0527 03       		.byte	0x3
 1946 0528 00000000 		.4byte	USBUART_transferByteCount
 1947 052c 00       		.byte	0
 1948              		.section	.debug_abbrev,"",%progbits
 1949              	.Ldebug_abbrev0:
 1950 0000 01       		.uleb128 0x1
 1951 0001 11       		.uleb128 0x11
 1952 0002 01       		.byte	0x1
 1953 0003 25       		.uleb128 0x25
 1954 0004 0E       		.uleb128 0xe
 1955 0005 13       		.uleb128 0x13
 1956 0006 0B       		.uleb128 0xb
 1957 0007 03       		.uleb128 0x3
 1958 0008 0E       		.uleb128 0xe
 1959 0009 1B       		.uleb128 0x1b
 1960 000a 0E       		.uleb128 0xe
 1961 000b 55       		.uleb128 0x55
 1962 000c 17       		.uleb128 0x17
 1963 000d 11       		.uleb128 0x11
 1964 000e 01       		.uleb128 0x1
 1965 000f 10       		.uleb128 0x10
 1966 0010 17       		.uleb128 0x17
 1967 0011 00       		.byte	0
 1968 0012 00       		.byte	0
 1969 0013 02       		.uleb128 0x2
 1970 0014 24       		.uleb128 0x24
 1971 0015 00       		.byte	0
 1972 0016 0B       		.uleb128 0xb
 1973 0017 0B       		.uleb128 0xb
 1974 0018 3E       		.uleb128 0x3e
 1975 0019 0B       		.uleb128 0xb
 1976 001a 03       		.uleb128 0x3
 1977 001b 0E       		.uleb128 0xe
 1978 001c 00       		.byte	0
 1979 001d 00       		.byte	0
 1980 001e 03       		.uleb128 0x3
 1981 001f 24       		.uleb128 0x24
 1982 0020 00       		.byte	0
 1983 0021 0B       		.uleb128 0xb
 1984 0022 0B       		.uleb128 0xb
ARM GAS  C:\Users\HPz420\AppData\Local\Temp\ccyisMw6.s 			page 50


 1985 0023 3E       		.uleb128 0x3e
 1986 0024 0B       		.uleb128 0xb
 1987 0025 03       		.uleb128 0x3
 1988 0026 08       		.uleb128 0x8
 1989 0027 00       		.byte	0
 1990 0028 00       		.byte	0
 1991 0029 04       		.uleb128 0x4
 1992 002a 16       		.uleb128 0x16
 1993 002b 00       		.byte	0
 1994 002c 03       		.uleb128 0x3
 1995 002d 0E       		.uleb128 0xe
 1996 002e 3A       		.uleb128 0x3a
 1997 002f 0B       		.uleb128 0xb
 1998 0030 3B       		.uleb128 0x3b
 1999 0031 05       		.uleb128 0x5
 2000 0032 49       		.uleb128 0x49
 2001 0033 13       		.uleb128 0x13
 2002 0034 00       		.byte	0
 2003 0035 00       		.byte	0
 2004 0036 05       		.uleb128 0x5
 2005 0037 35       		.uleb128 0x35
 2006 0038 00       		.byte	0
 2007 0039 49       		.uleb128 0x49
 2008 003a 13       		.uleb128 0x13
 2009 003b 00       		.byte	0
 2010 003c 00       		.byte	0
 2011 003d 06       		.uleb128 0x6
 2012 003e 13       		.uleb128 0x13
 2013 003f 01       		.byte	0x1
 2014 0040 0B       		.uleb128 0xb
 2015 0041 0B       		.uleb128 0xb
 2016 0042 3A       		.uleb128 0x3a
 2017 0043 0B       		.uleb128 0xb
 2018 0044 3B       		.uleb128 0x3b
 2019 0045 0B       		.uleb128 0xb
 2020 0046 01       		.uleb128 0x1
 2021 0047 13       		.uleb128 0x13
 2022 0048 00       		.byte	0
 2023 0049 00       		.byte	0
 2024 004a 07       		.uleb128 0x7
 2025 004b 0D       		.uleb128 0xd
 2026 004c 00       		.byte	0
 2027 004d 03       		.uleb128 0x3
 2028 004e 0E       		.uleb128 0xe
 2029 004f 3A       		.uleb128 0x3a
 2030 0050 0B       		.uleb128 0xb
 2031 0051 3B       		.uleb128 0x3b
 2032 0052 0B       		.uleb128 0xb
 2033 0053 49       		.uleb128 0x49
 2034 0054 13       		.uleb128 0x13
 2035 0055 38       		.uleb128 0x38
 2036 0056 0B       		.uleb128 0xb
 2037 0057 00       		.byte	0
 2038 0058 00       		.byte	0
 2039 0059 08       		.uleb128 0x8
 2040 005a 16       		.uleb128 0x16
 2041 005b 00       		.byte	0
ARM GAS  C:\Users\HPz420\AppData\Local\Temp\ccyisMw6.s 			page 51


 2042 005c 03       		.uleb128 0x3
 2043 005d 0E       		.uleb128 0xe
 2044 005e 3A       		.uleb128 0x3a
 2045 005f 0B       		.uleb128 0xb
 2046 0060 3B       		.uleb128 0x3b
 2047 0061 0B       		.uleb128 0xb
 2048 0062 49       		.uleb128 0x49
 2049 0063 13       		.uleb128 0x13
 2050 0064 00       		.byte	0
 2051 0065 00       		.byte	0
 2052 0066 09       		.uleb128 0x9
 2053 0067 0F       		.uleb128 0xf
 2054 0068 00       		.byte	0
 2055 0069 0B       		.uleb128 0xb
 2056 006a 0B       		.uleb128 0xb
 2057 006b 49       		.uleb128 0x49
 2058 006c 13       		.uleb128 0x13
 2059 006d 00       		.byte	0
 2060 006e 00       		.byte	0
 2061 006f 0A       		.uleb128 0xa
 2062 0070 01       		.uleb128 0x1
 2063 0071 01       		.byte	0x1
 2064 0072 49       		.uleb128 0x49
 2065 0073 13       		.uleb128 0x13
 2066 0074 01       		.uleb128 0x1
 2067 0075 13       		.uleb128 0x13
 2068 0076 00       		.byte	0
 2069 0077 00       		.byte	0
 2070 0078 0B       		.uleb128 0xb
 2071 0079 21       		.uleb128 0x21
 2072 007a 00       		.byte	0
 2073 007b 49       		.uleb128 0x49
 2074 007c 13       		.uleb128 0x13
 2075 007d 2F       		.uleb128 0x2f
 2076 007e 0B       		.uleb128 0xb
 2077 007f 00       		.byte	0
 2078 0080 00       		.byte	0
 2079 0081 0C       		.uleb128 0xc
 2080 0082 2E       		.uleb128 0x2e
 2081 0083 01       		.byte	0x1
 2082 0084 3F       		.uleb128 0x3f
 2083 0085 19       		.uleb128 0x19
 2084 0086 03       		.uleb128 0x3
 2085 0087 0E       		.uleb128 0xe
 2086 0088 3A       		.uleb128 0x3a
 2087 0089 0B       		.uleb128 0xb
 2088 008a 3B       		.uleb128 0x3b
 2089 008b 0B       		.uleb128 0xb
 2090 008c 27       		.uleb128 0x27
 2091 008d 19       		.uleb128 0x19
 2092 008e 11       		.uleb128 0x11
 2093 008f 01       		.uleb128 0x1
 2094 0090 12       		.uleb128 0x12
 2095 0091 06       		.uleb128 0x6
 2096 0092 40       		.uleb128 0x40
 2097 0093 18       		.uleb128 0x18
 2098 0094 9642     		.uleb128 0x2116
ARM GAS  C:\Users\HPz420\AppData\Local\Temp\ccyisMw6.s 			page 52


 2099 0096 19       		.uleb128 0x19
 2100 0097 01       		.uleb128 0x1
 2101 0098 13       		.uleb128 0x13
 2102 0099 00       		.byte	0
 2103 009a 00       		.byte	0
 2104 009b 0D       		.uleb128 0xd
 2105 009c 34       		.uleb128 0x34
 2106 009d 00       		.byte	0
 2107 009e 03       		.uleb128 0x3
 2108 009f 0E       		.uleb128 0xe
 2109 00a0 3A       		.uleb128 0x3a
 2110 00a1 0B       		.uleb128 0xb
 2111 00a2 3B       		.uleb128 0x3b
 2112 00a3 0B       		.uleb128 0xb
 2113 00a4 49       		.uleb128 0x49
 2114 00a5 13       		.uleb128 0x13
 2115 00a6 02       		.uleb128 0x2
 2116 00a7 18       		.uleb128 0x18
 2117 00a8 00       		.byte	0
 2118 00a9 00       		.byte	0
 2119 00aa 0E       		.uleb128 0xe
 2120 00ab 2E       		.uleb128 0x2e
 2121 00ac 00       		.byte	0
 2122 00ad 3F       		.uleb128 0x3f
 2123 00ae 19       		.uleb128 0x19
 2124 00af 03       		.uleb128 0x3
 2125 00b0 0E       		.uleb128 0xe
 2126 00b1 3A       		.uleb128 0x3a
 2127 00b2 0B       		.uleb128 0xb
 2128 00b3 3B       		.uleb128 0x3b
 2129 00b4 05       		.uleb128 0x5
 2130 00b5 27       		.uleb128 0x27
 2131 00b6 19       		.uleb128 0x19
 2132 00b7 11       		.uleb128 0x11
 2133 00b8 01       		.uleb128 0x1
 2134 00b9 12       		.uleb128 0x12
 2135 00ba 06       		.uleb128 0x6
 2136 00bb 40       		.uleb128 0x40
 2137 00bc 18       		.uleb128 0x18
 2138 00bd 9642     		.uleb128 0x2116
 2139 00bf 19       		.uleb128 0x19
 2140 00c0 00       		.byte	0
 2141 00c1 00       		.byte	0
 2142 00c2 0F       		.uleb128 0xf
 2143 00c3 2E       		.uleb128 0x2e
 2144 00c4 01       		.byte	0x1
 2145 00c5 3F       		.uleb128 0x3f
 2146 00c6 19       		.uleb128 0x19
 2147 00c7 03       		.uleb128 0x3
 2148 00c8 0E       		.uleb128 0xe
 2149 00c9 3A       		.uleb128 0x3a
 2150 00ca 0B       		.uleb128 0xb
 2151 00cb 3B       		.uleb128 0x3b
 2152 00cc 05       		.uleb128 0x5
 2153 00cd 27       		.uleb128 0x27
 2154 00ce 19       		.uleb128 0x19
 2155 00cf 11       		.uleb128 0x11
ARM GAS  C:\Users\HPz420\AppData\Local\Temp\ccyisMw6.s 			page 53


 2156 00d0 01       		.uleb128 0x1
 2157 00d1 12       		.uleb128 0x12
 2158 00d2 06       		.uleb128 0x6
 2159 00d3 40       		.uleb128 0x40
 2160 00d4 18       		.uleb128 0x18
 2161 00d5 9742     		.uleb128 0x2117
 2162 00d7 19       		.uleb128 0x19
 2163 00d8 01       		.uleb128 0x1
 2164 00d9 13       		.uleb128 0x13
 2165 00da 00       		.byte	0
 2166 00db 00       		.byte	0
 2167 00dc 10       		.uleb128 0x10
 2168 00dd 34       		.uleb128 0x34
 2169 00de 00       		.byte	0
 2170 00df 03       		.uleb128 0x3
 2171 00e0 0E       		.uleb128 0xe
 2172 00e1 3A       		.uleb128 0x3a
 2173 00e2 0B       		.uleb128 0xb
 2174 00e3 3B       		.uleb128 0x3b
 2175 00e4 05       		.uleb128 0x5
 2176 00e5 49       		.uleb128 0x49
 2177 00e6 13       		.uleb128 0x13
 2178 00e7 02       		.uleb128 0x2
 2179 00e8 18       		.uleb128 0x18
 2180 00e9 00       		.byte	0
 2181 00ea 00       		.byte	0
 2182 00eb 11       		.uleb128 0x11
 2183 00ec 2E       		.uleb128 0x2e
 2184 00ed 01       		.byte	0x1
 2185 00ee 3F       		.uleb128 0x3f
 2186 00ef 19       		.uleb128 0x19
 2187 00f0 03       		.uleb128 0x3
 2188 00f1 0E       		.uleb128 0xe
 2189 00f2 3A       		.uleb128 0x3a
 2190 00f3 0B       		.uleb128 0xb
 2191 00f4 3B       		.uleb128 0x3b
 2192 00f5 05       		.uleb128 0x5
 2193 00f6 27       		.uleb128 0x27
 2194 00f7 19       		.uleb128 0x19
 2195 00f8 49       		.uleb128 0x49
 2196 00f9 13       		.uleb128 0x13
 2197 00fa 11       		.uleb128 0x11
 2198 00fb 01       		.uleb128 0x1
 2199 00fc 12       		.uleb128 0x12
 2200 00fd 06       		.uleb128 0x6
 2201 00fe 40       		.uleb128 0x40
 2202 00ff 18       		.uleb128 0x18
 2203 0100 9642     		.uleb128 0x2116
 2204 0102 19       		.uleb128 0x19
 2205 0103 01       		.uleb128 0x1
 2206 0104 13       		.uleb128 0x13
 2207 0105 00       		.byte	0
 2208 0106 00       		.byte	0
 2209 0107 12       		.uleb128 0x12
 2210 0108 2E       		.uleb128 0x2e
 2211 0109 00       		.byte	0
 2212 010a 3F       		.uleb128 0x3f
ARM GAS  C:\Users\HPz420\AppData\Local\Temp\ccyisMw6.s 			page 54


 2213 010b 19       		.uleb128 0x19
 2214 010c 03       		.uleb128 0x3
 2215 010d 0E       		.uleb128 0xe
 2216 010e 3A       		.uleb128 0x3a
 2217 010f 0B       		.uleb128 0xb
 2218 0110 3B       		.uleb128 0x3b
 2219 0111 05       		.uleb128 0x5
 2220 0112 27       		.uleb128 0x27
 2221 0113 19       		.uleb128 0x19
 2222 0114 49       		.uleb128 0x49
 2223 0115 13       		.uleb128 0x13
 2224 0116 11       		.uleb128 0x11
 2225 0117 01       		.uleb128 0x1
 2226 0118 12       		.uleb128 0x12
 2227 0119 06       		.uleb128 0x6
 2228 011a 40       		.uleb128 0x40
 2229 011b 18       		.uleb128 0x18
 2230 011c 9742     		.uleb128 0x2117
 2231 011e 19       		.uleb128 0x19
 2232 011f 00       		.byte	0
 2233 0120 00       		.byte	0
 2234 0121 13       		.uleb128 0x13
 2235 0122 05       		.uleb128 0x5
 2236 0123 00       		.byte	0
 2237 0124 03       		.uleb128 0x3
 2238 0125 0E       		.uleb128 0xe
 2239 0126 3A       		.uleb128 0x3a
 2240 0127 0B       		.uleb128 0xb
 2241 0128 3B       		.uleb128 0x3b
 2242 0129 05       		.uleb128 0x5
 2243 012a 49       		.uleb128 0x49
 2244 012b 13       		.uleb128 0x13
 2245 012c 02       		.uleb128 0x2
 2246 012d 18       		.uleb128 0x18
 2247 012e 00       		.byte	0
 2248 012f 00       		.byte	0
 2249 0130 14       		.uleb128 0x14
 2250 0131 2E       		.uleb128 0x2e
 2251 0132 00       		.byte	0
 2252 0133 3F       		.uleb128 0x3f
 2253 0134 19       		.uleb128 0x19
 2254 0135 03       		.uleb128 0x3
 2255 0136 0E       		.uleb128 0xe
 2256 0137 3A       		.uleb128 0x3a
 2257 0138 0B       		.uleb128 0xb
 2258 0139 3B       		.uleb128 0x3b
 2259 013a 05       		.uleb128 0x5
 2260 013b 27       		.uleb128 0x27
 2261 013c 19       		.uleb128 0x19
 2262 013d 11       		.uleb128 0x11
 2263 013e 01       		.uleb128 0x1
 2264 013f 12       		.uleb128 0x12
 2265 0140 06       		.uleb128 0x6
 2266 0141 40       		.uleb128 0x40
 2267 0142 18       		.uleb128 0x18
 2268 0143 9742     		.uleb128 0x2117
 2269 0145 19       		.uleb128 0x19
ARM GAS  C:\Users\HPz420\AppData\Local\Temp\ccyisMw6.s 			page 55


 2270 0146 00       		.byte	0
 2271 0147 00       		.byte	0
 2272 0148 15       		.uleb128 0x15
 2273 0149 34       		.uleb128 0x34
 2274 014a 00       		.byte	0
 2275 014b 03       		.uleb128 0x3
 2276 014c 0E       		.uleb128 0xe
 2277 014d 3A       		.uleb128 0x3a
 2278 014e 0B       		.uleb128 0xb
 2279 014f 3B       		.uleb128 0x3b
 2280 0150 0B       		.uleb128 0xb
 2281 0151 49       		.uleb128 0x49
 2282 0152 13       		.uleb128 0x13
 2283 0153 3F       		.uleb128 0x3f
 2284 0154 19       		.uleb128 0x19
 2285 0155 02       		.uleb128 0x2
 2286 0156 18       		.uleb128 0x18
 2287 0157 00       		.byte	0
 2288 0158 00       		.byte	0
 2289 0159 16       		.uleb128 0x16
 2290 015a 26       		.uleb128 0x26
 2291 015b 00       		.byte	0
 2292 015c 49       		.uleb128 0x49
 2293 015d 13       		.uleb128 0x13
 2294 015e 00       		.byte	0
 2295 015f 00       		.byte	0
 2296 0160 00       		.byte	0
 2297              		.section	.debug_aranges,"",%progbits
 2298 0000 94000000 		.4byte	0x94
 2299 0004 0200     		.2byte	0x2
 2300 0006 00000000 		.4byte	.Ldebug_info0
 2301 000a 04       		.byte	0x4
 2302 000b 00       		.byte	0
 2303 000c 0000     		.2byte	0
 2304 000e 0000     		.2byte	0
 2305 0010 00000000 		.4byte	.LFB0
 2306 0014 F8000000 		.4byte	.LFE0-.LFB0
 2307 0018 00000000 		.4byte	.LFB1
 2308 001c 88000000 		.4byte	.LFE1-.LFB1
 2309 0020 00000000 		.4byte	.LFB2
 2310 0024 4C000000 		.4byte	.LFE2-.LFB2
 2311 0028 00000000 		.4byte	.LFB3
 2312 002c 58000000 		.4byte	.LFE3-.LFB3
 2313 0030 00000000 		.4byte	.LFB4
 2314 0034 D0000000 		.4byte	.LFE4-.LFB4
 2315 0038 00000000 		.4byte	.LFB5
 2316 003c 70000000 		.4byte	.LFE5-.LFB5
 2317 0040 00000000 		.4byte	.LFB6
 2318 0044 40000000 		.4byte	.LFE6-.LFB6
 2319 0048 00000000 		.4byte	.LFB7
 2320 004c 0C000000 		.4byte	.LFE7-.LFB7
 2321 0050 00000000 		.4byte	.LFB8
 2322 0054 40000000 		.4byte	.LFE8-.LFB8
 2323 0058 00000000 		.4byte	.LFB9
 2324 005c 64000000 		.4byte	.LFE9-.LFB9
 2325 0060 00000000 		.4byte	.LFB10
 2326 0064 B4000000 		.4byte	.LFE10-.LFB10
ARM GAS  C:\Users\HPz420\AppData\Local\Temp\ccyisMw6.s 			page 56


 2327 0068 00000000 		.4byte	.LFB11
 2328 006c 24000000 		.4byte	.LFE11-.LFB11
 2329 0070 00000000 		.4byte	.LFB12
 2330 0074 38000000 		.4byte	.LFE12-.LFB12
 2331 0078 00000000 		.4byte	.LFB13
 2332 007c 4C000000 		.4byte	.LFE13-.LFB13
 2333 0080 00000000 		.4byte	.LFB14
 2334 0084 40000000 		.4byte	.LFE14-.LFB14
 2335 0088 00000000 		.4byte	.LFB15
 2336 008c 34000000 		.4byte	.LFE15-.LFB15
 2337 0090 00000000 		.4byte	0
 2338 0094 00000000 		.4byte	0
 2339              		.section	.debug_ranges,"",%progbits
 2340              	.Ldebug_ranges0:
 2341 0000 00000000 		.4byte	.LFB0
 2342 0004 F8000000 		.4byte	.LFE0
 2343 0008 00000000 		.4byte	.LFB1
 2344 000c 88000000 		.4byte	.LFE1
 2345 0010 00000000 		.4byte	.LFB2
 2346 0014 4C000000 		.4byte	.LFE2
 2347 0018 00000000 		.4byte	.LFB3
 2348 001c 58000000 		.4byte	.LFE3
 2349 0020 00000000 		.4byte	.LFB4
 2350 0024 D0000000 		.4byte	.LFE4
 2351 0028 00000000 		.4byte	.LFB5
 2352 002c 70000000 		.4byte	.LFE5
 2353 0030 00000000 		.4byte	.LFB6
 2354 0034 40000000 		.4byte	.LFE6
 2355 0038 00000000 		.4byte	.LFB7
 2356 003c 0C000000 		.4byte	.LFE7
 2357 0040 00000000 		.4byte	.LFB8
 2358 0044 40000000 		.4byte	.LFE8
 2359 0048 00000000 		.4byte	.LFB9
 2360 004c 64000000 		.4byte	.LFE9
 2361 0050 00000000 		.4byte	.LFB10
 2362 0054 B4000000 		.4byte	.LFE10
 2363 0058 00000000 		.4byte	.LFB11
 2364 005c 24000000 		.4byte	.LFE11
 2365 0060 00000000 		.4byte	.LFB12
 2366 0064 38000000 		.4byte	.LFE12
 2367 0068 00000000 		.4byte	.LFB13
 2368 006c 4C000000 		.4byte	.LFE13
 2369 0070 00000000 		.4byte	.LFB14
 2370 0074 40000000 		.4byte	.LFE14
 2371 0078 00000000 		.4byte	.LFB15
 2372 007c 34000000 		.4byte	.LFE15
 2373 0080 00000000 		.4byte	0
 2374 0084 00000000 		.4byte	0
 2375              		.section	.debug_line,"",%progbits
 2376              	.Ldebug_line0:
 2377 0000 1B020000 		.section	.debug_str,"MS",%progbits,1
 2377      02005500 
 2377      00000201 
 2377      FB0E0D00 
 2377      01010101 
 2378              	.LASF32:
 2379 0000 70537461 		.ascii	"pStatusBlock\000"
ARM GAS  C:\Users\HPz420\AppData\Local\Temp\ccyisMw6.s 			page 57


 2379      74757342 
 2379      6C6F636B 
 2379      00
 2380              	.LASF71:
 2381 000d 55534255 		.ascii	"USBUART_ep0Toggle\000"
 2381      4152545F 
 2381      65703054 
 2381      6F67676C 
 2381      6500
 2382              	.LASF30:
 2383 001f 636F756E 		.ascii	"count\000"
 2383      7400
 2384              	.LASF10:
 2385 0025 75696E74 		.ascii	"uint16\000"
 2385      313600
 2386              	.LASF58:
 2387 002c 55534255 		.ascii	"USBUART_device\000"
 2387      4152545F 
 2387      64657669 
 2387      636500
 2388              	.LASF75:
 2389 003b 55534255 		.ascii	"USBUART_transferByteCount\000"
 2389      4152545F 
 2389      7472616E 
 2389      73666572 
 2389      42797465 
 2390              	.LASF39:
 2391 0055 55534255 		.ascii	"USBUART_HandleSetup\000"
 2391      4152545F 
 2391      48616E64 
 2391      6C655365 
 2391      74757000 
 2392              	.LASF51:
 2393 0069 72656749 		.ascii	"regIndex\000"
 2393      6E646578 
 2393      00
 2394              	.LASF79:
 2395 0072 636F6D70 		.ascii	"completionCode\000"
 2395      6C657469 
 2395      6F6E436F 
 2395      646500
 2396              	.LASF72:
 2397 0081 55534255 		.ascii	"USBUART_lastPacketSize\000"
 2397      4152545F 
 2397      6C617374 
 2397      5061636B 
 2397      65745369 
 2398              	.LASF76:
 2399 0098 474E5520 		.ascii	"GNU C11 5.4.1 20160609 (release) [ARM/embedded-5-br"
 2399      43313120 
 2399      352E342E 
 2399      31203230 
 2399      31363036 
 2400 00cb 616E6368 		.ascii	"anch revision 237715] -mcpu=cortex-m3 -mthumb -g -O"
 2400      20726576 
 2400      6973696F 
 2400      6E203233 
ARM GAS  C:\Users\HPz420\AppData\Local\Temp\ccyisMw6.s 			page 58


 2400      37373135 
 2401 00fe 30202D66 		.ascii	"0 -ffunction-sections -ffat-lto-objects\000"
 2401      66756E63 
 2401      74696F6E 
 2401      2D736563 
 2401      74696F6E 
 2402              	.LASF7:
 2403 0126 6C6F6E67 		.ascii	"long long unsigned int\000"
 2403      206C6F6E 
 2403      6720756E 
 2403      7369676E 
 2403      65642069 
 2404              	.LASF21:
 2405 013d 61646472 		.ascii	"addr\000"
 2405      00
 2406              	.LASF69:
 2407 0142 55534255 		.ascii	"USBUART_EP\000"
 2407      4152545F 
 2407      455000
 2408              	.LASF29:
 2409 014d 545F5553 		.ascii	"T_USBUART_XFER_STATUS_BLOCK\000"
 2409      42554152 
 2409      545F5846 
 2409      45525F53 
 2409      54415455 
 2410              	.LASF77:
 2411 0169 47656E65 		.ascii	"Generated_Source\\PSoC5\\USBUART_drv.c\000"
 2411      72617465 
 2411      645F536F 
 2411      75726365 
 2411      5C50536F 
 2412              	.LASF6:
 2413 018e 6C6F6E67 		.ascii	"long long int\000"
 2413      206C6F6E 
 2413      6720696E 
 2413      7400
 2414              	.LASF0:
 2415 019c 7369676E 		.ascii	"signed char\000"
 2415      65642063 
 2415      68617200 
 2416              	.LASF48:
 2417 01a8 55534255 		.ascii	"USBUART_InitControlRead\000"
 2417      4152545F 
 2417      496E6974 
 2417      436F6E74 
 2417      726F6C52 
 2418              	.LASF65:
 2419 01c0 55534255 		.ascii	"USBUART_interfaceSettingLast\000"
 2419      4152545F 
 2419      696E7465 
 2419      72666163 
 2419      65536574 
 2420              	.LASF35:
 2421 01dd 55534255 		.ascii	"USBUART_ep0_data_struct\000"
 2421      4152545F 
 2421      6570305F 
 2421      64617461 
ARM GAS  C:\Users\HPz420\AppData\Local\Temp\ccyisMw6.s 			page 59


 2421      5F737472 
 2422              	.LASF4:
 2423 01f5 6C6F6E67 		.ascii	"long int\000"
 2423      20696E74 
 2423      00
 2424              	.LASF38:
 2425 01fe 55534255 		.ascii	"USBUART_EP_0_ISR\000"
 2425      4152545F 
 2425      45505F30 
 2425      5F495352 
 2425      00
 2426              	.LASF9:
 2427 020f 75696E74 		.ascii	"uint8\000"
 2427      3800
 2428              	.LASF20:
 2429 0215 6570546F 		.ascii	"epToggle\000"
 2429      67676C65 
 2429      00
 2430              	.LASF12:
 2431 021e 646F7562 		.ascii	"double\000"
 2431      6C6500
 2432              	.LASF63:
 2433 0225 55534255 		.ascii	"USBUART_interfaceNumber\000"
 2433      4152545F 
 2433      696E7465 
 2433      72666163 
 2433      654E756D 
 2434              	.LASF31:
 2435 023d 70446174 		.ascii	"pData\000"
 2435      6100
 2436              	.LASF22:
 2437 0243 65704D6F 		.ascii	"epMode\000"
 2437      646500
 2438              	.LASF62:
 2439 024a 55534255 		.ascii	"USBUART_deviceStatus\000"
 2439      4152545F 
 2439      64657669 
 2439      63655374 
 2439      61747573 
 2440              	.LASF8:
 2441 025f 756E7369 		.ascii	"unsigned int\000"
 2441      676E6564 
 2441      20696E74 
 2441      00
 2442              	.LASF37:
 2443 026c 6D6F6469 		.ascii	"modifyReg\000"
 2443      66795265 
 2443      6700
 2444              	.LASF5:
 2445 0276 6C6F6E67 		.ascii	"long unsigned int\000"
 2445      20756E73 
 2445      69676E65 
 2445      6420696E 
 2445      7400
 2446              	.LASF46:
 2447 0288 55534255 		.ascii	"USBUART_ControlReadDataStage\000"
 2447      4152545F 
ARM GAS  C:\Users\HPz420\AppData\Local\Temp\ccyisMw6.s 			page 60


 2447      436F6E74 
 2447      726F6C52 
 2447      65616444 
 2448              	.LASF3:
 2449 02a5 73686F72 		.ascii	"short unsigned int\000"
 2449      7420756E 
 2449      7369676E 
 2449      65642069 
 2449      6E7400
 2450              	.LASF53:
 2451 02b8 55534255 		.ascii	"USBUART_InitZeroLengthControlTransfer\000"
 2451      4152545F 
 2451      496E6974 
 2451      5A65726F 
 2451      4C656E67 
 2452              	.LASF74:
 2453 02de 55534255 		.ascii	"USBUART_ep0Count\000"
 2453      4152545F 
 2453      65703043 
 2453      6F756E74 
 2453      00
 2454              	.LASF70:
 2455 02ef 55534255 		.ascii	"USBUART_currentTD\000"
 2455      4152545F 
 2455      63757272 
 2455      656E7454 
 2455      4400
 2456              	.LASF44:
 2457 0301 65703043 		.ascii	"ep0Count\000"
 2457      6F756E74 
 2457      00
 2458              	.LASF78:
 2459 030a 433A5C55 		.ascii	"C:\\Users\\HPz420\\Documents\\GitHub\\Retro-Compute"
 2459      73657273 
 2459      5C48507A 
 2459      3432305C 
 2459      446F6375 
 2460 0338 72735C5A 		.ascii	"rs\\Z80\\PSOC\\PSOC_Design_Files\\FrontPanelI2CIO8\\"
 2460      38305C50 
 2460      534F435C 
 2460      50534F43 
 2460      5F446573 
 2461 0367 55534246 		.ascii	"USBFS_UART01.cydsn\000"
 2461      535F5541 
 2461      52543031 
 2461      2E637964 
 2461      736E00
 2462              	.LASF36:
 2463 037a 74656D70 		.ascii	"tempReg\000"
 2463      52656700 
 2464              	.LASF66:
 2465 0382 55534255 		.ascii	"USBUART_deviceAddress\000"
 2465      4152545F 
 2465      64657669 
 2465      63654164 
 2465      64726573 
 2466              	.LASF19:
ARM GAS  C:\Users\HPz420\AppData\Local\Temp\ccyisMw6.s 			page 61


 2467 0398 68774570 		.ascii	"hwEpState\000"
 2467      53746174 
 2467      6500
 2468              	.LASF16:
 2469 03a2 73697A65 		.ascii	"sizetype\000"
 2469      74797065 
 2469      00
 2470              	.LASF15:
 2471 03ab 6C6F6E67 		.ascii	"long double\000"
 2471      20646F75 
 2471      626C6500 
 2472              	.LASF49:
 2473 03b7 55534255 		.ascii	"USBUART_InitControlWrite\000"
 2473      4152545F 
 2473      496E6974 
 2473      436F6E74 
 2473      726F6C57 
 2474              	.LASF17:
 2475 03d0 61747472 		.ascii	"attrib\000"
 2475      696200
 2476              	.LASF68:
 2477 03d7 55534255 		.ascii	"USBUART_interfaceClass\000"
 2477      4152545F 
 2477      696E7465 
 2477      72666163 
 2477      65436C61 
 2478              	.LASF54:
 2479 03ee 55534255 		.ascii	"USBUART_InitNoDataControlTransfer\000"
 2479      4152545F 
 2479      496E6974 
 2479      4E6F4461 
 2479      7461436F 
 2480              	.LASF43:
 2481 0410 55534255 		.ascii	"USBUART_LoadEP0\000"
 2481      4152545F 
 2481      4C6F6164 
 2481      45503000 
 2482              	.LASF52:
 2483 0420 55534255 		.ascii	"USBUART_ControlWriteStatusStage\000"
 2483      4152545F 
 2483      436F6E74 
 2483      726F6C57 
 2483      72697465 
 2484              	.LASF11:
 2485 0440 666C6F61 		.ascii	"float\000"
 2485      7400
 2486              	.LASF18:
 2487 0446 61706945 		.ascii	"apiEpState\000"
 2487      70537461 
 2487      746500
 2488              	.LASF55:
 2489 0451 55534255 		.ascii	"USBUART_NoDataControlStatusStage\000"
 2489      4152545F 
 2489      4E6F4461 
 2489      7461436F 
 2489      6E74726F 
 2490              	.LASF14:
ARM GAS  C:\Users\HPz420\AppData\Local\Temp\ccyisMw6.s 			page 62


 2491 0472 72656738 		.ascii	"reg8\000"
 2491      00
 2492              	.LASF64:
 2493 0477 55534255 		.ascii	"USBUART_interfaceSetting\000"
 2493      4152545F 
 2493      696E7465 
 2493      72666163 
 2493      65536574 
 2494              	.LASF1:
 2495 0490 756E7369 		.ascii	"unsigned char\000"
 2495      676E6564 
 2495      20636861 
 2495      7200
 2496              	.LASF2:
 2497 049e 73686F72 		.ascii	"short int\000"
 2497      7420696E 
 2497      7400
 2498              	.LASF33:
 2499 04a8 545F5553 		.ascii	"T_USBUART_TD\000"
 2499      42554152 
 2499      545F5444 
 2499      00
 2500              	.LASF67:
 2501 04b5 55534255 		.ascii	"USBUART_interfaceStatus\000"
 2501      4152545F 
 2501      696E7465 
 2501      72666163 
 2501      65537461 
 2502              	.LASF73:
 2503 04cd 55534255 		.ascii	"USBUART_ep0Mode\000"
 2503      4152545F 
 2503      6570304D 
 2503      6F646500 
 2504              	.LASF28:
 2505 04dd 6C656E67 		.ascii	"length\000"
 2505      746800
 2506              	.LASF57:
 2507 04e4 55534255 		.ascii	"USBUART_InitializeStatusBlock\000"
 2507      4152545F 
 2507      496E6974 
 2507      69616C69 
 2507      7A655374 
 2508              	.LASF13:
 2509 0502 63686172 		.ascii	"char\000"
 2509      00
 2510              	.LASF24:
 2511 0507 62756666 		.ascii	"bufferSize\000"
 2511      65725369 
 2511      7A6500
 2512              	.LASF40:
 2513 0512 72657175 		.ascii	"requestHandled\000"
 2513      65737448 
 2513      616E646C 
 2513      656400
 2514              	.LASF26:
 2515 0521 545F5553 		.ascii	"T_USBUART_EP_CTL_BLOCK\000"
 2515      42554152 
ARM GAS  C:\Users\HPz420\AppData\Local\Temp\ccyisMw6.s 			page 63


 2515      545F4550 
 2515      5F43544C 
 2515      5F424C4F 
 2516              	.LASF23:
 2517 0538 62756666 		.ascii	"buffOffset\000"
 2517      4F666673 
 2517      657400
 2518              	.LASF42:
 2519 0543 55534255 		.ascii	"USBUART_HandleOUT\000"
 2519      4152545F 
 2519      48616E64 
 2519      6C654F55 
 2519      5400
 2520              	.LASF50:
 2521 0555 55534255 		.ascii	"USBUART_ControlWriteDataStage\000"
 2521      4152545F 
 2521      436F6E74 
 2521      726F6C57 
 2521      72697465 
 2522              	.LASF41:
 2523 0573 55534255 		.ascii	"USBUART_HandleIN\000"
 2523      4152545F 
 2523      48616E64 
 2523      6C65494E 
 2523      00
 2524              	.LASF27:
 2525 0584 73746174 		.ascii	"status\000"
 2525      757300
 2526              	.LASF25:
 2527 058b 696E7465 		.ascii	"interface\000"
 2527      72666163 
 2527      6500
 2528              	.LASF60:
 2529 0595 55534255 		.ascii	"USBUART_configuration\000"
 2529      4152545F 
 2529      636F6E66 
 2529      69677572 
 2529      6174696F 
 2530              	.LASF45:
 2531 05ab 78666572 		.ascii	"xferCount\000"
 2531      436F756E 
 2531      7400
 2532              	.LASF34:
 2533 05b5 65704461 		.ascii	"epData\000"
 2533      746100
 2534              	.LASF56:
 2535 05bc 55534255 		.ascii	"USBUART_UpdateStatusBlock\000"
 2535      4152545F 
 2535      55706461 
 2535      74655374 
 2535      61747573 
 2536              	.LASF47:
 2537 05d6 55534255 		.ascii	"USBUART_ControlReadStatusStage\000"
 2537      4152545F 
 2537      436F6E74 
 2537      726F6C52 
 2537      65616453 
ARM GAS  C:\Users\HPz420\AppData\Local\Temp\ccyisMw6.s 			page 64


 2538              	.LASF59:
 2539 05f5 55534255 		.ascii	"USBUART_transferState\000"
 2539      4152545F 
 2539      7472616E 
 2539      73666572 
 2539      53746174 
 2540              	.LASF61:
 2541 060b 55534255 		.ascii	"USBUART_configurationChanged\000"
 2541      4152545F 
 2541      636F6E66 
 2541      69677572 
 2541      6174696F 
 2542              		.ident	"GCC: (GNU Tools for ARM Embedded Processors) 5.4.1 20160609 (release) [ARM/embedded-5-bran
