ARM GAS  C:\Users\HPz420\AppData\Local\Temp\ccybYlfl.s 			page 1


   1              		.syntax unified
   2              		.cpu cortex-m3
   3              		.fpu softvfp
   4              		.eabi_attribute 20, 1
   5              		.eabi_attribute 21, 1
   6              		.eabi_attribute 23, 3
   7              		.eabi_attribute 24, 1
   8              		.eabi_attribute 25, 1
   9              		.eabi_attribute 26, 1
  10              		.eabi_attribute 30, 6
  11              		.eabi_attribute 34, 1
  12              		.eabi_attribute 18, 4
  13              		.thumb
  14              		.syntax unified
  15              		.file	"USBUART_msc.c"
  16              		.text
  17              	.Ltext0:
  18              		.cfi_sections	.debug_frame
  19              		.bss
  20              	USBUART_lunCount:
  21 0000 00       		.space	1
  22              		.section	.text.USBUART_DispatchMSCClassRqst,"ax",%progbits
  23              		.align	2
  24              		.global	USBUART_DispatchMSCClassRqst
  25              		.thumb
  26              		.thumb_func
  27              		.type	USBUART_DispatchMSCClassRqst, %function
  28              	USBUART_DispatchMSCClassRqst:
  29              	.LFB0:
  30              		.file 1 "Generated_Source\\PSoC5\\USBUART_msc.c"
   1:Generated_Source\PSoC5/USBUART_msc.c **** /***************************************************************************//**
   2:Generated_Source\PSoC5/USBUART_msc.c **** * \file USBUART_cdc.c
   3:Generated_Source\PSoC5/USBUART_msc.c **** * \version 3.20
   4:Generated_Source\PSoC5/USBUART_msc.c **** *
   5:Generated_Source\PSoC5/USBUART_msc.c **** * \brief
   6:Generated_Source\PSoC5/USBUART_msc.c **** *  This file contains the USB MSC Class request handler and global API for MSC 
   7:Generated_Source\PSoC5/USBUART_msc.c **** *  class.
   8:Generated_Source\PSoC5/USBUART_msc.c **** *
   9:Generated_Source\PSoC5/USBUART_msc.c **** * Related Document:
  10:Generated_Source\PSoC5/USBUART_msc.c **** *  Universal Serial Bus Class Definitions for Communication Devices Version 1.1
  11:Generated_Source\PSoC5/USBUART_msc.c **** *
  12:Generated_Source\PSoC5/USBUART_msc.c **** ********************************************************************************
  13:Generated_Source\PSoC5/USBUART_msc.c **** * \copyright
  14:Generated_Source\PSoC5/USBUART_msc.c **** * Copyright 2012-2016, Cypress Semiconductor Corporation.  All rights reserved.
  15:Generated_Source\PSoC5/USBUART_msc.c **** * You may use this file only in accordance with the license, terms, conditions,
  16:Generated_Source\PSoC5/USBUART_msc.c **** * disclaimers, and limitations in the end user license agreement accompanying
  17:Generated_Source\PSoC5/USBUART_msc.c **** * the software package with which this file was provided.
  18:Generated_Source\PSoC5/USBUART_msc.c **** *******************************************************************************/
  19:Generated_Source\PSoC5/USBUART_msc.c **** 
  20:Generated_Source\PSoC5/USBUART_msc.c **** #include "USBUART_msc.h"
  21:Generated_Source\PSoC5/USBUART_msc.c **** #include "USBUART_pvt.h"
  22:Generated_Source\PSoC5/USBUART_msc.c **** #include "cyapicallbacks.h"
  23:Generated_Source\PSoC5/USBUART_msc.c **** 
  24:Generated_Source\PSoC5/USBUART_msc.c **** #if (USBUART_HANDLE_MSC_REQUESTS)
  25:Generated_Source\PSoC5/USBUART_msc.c **** 
  26:Generated_Source\PSoC5/USBUART_msc.c **** /***************************************
  27:Generated_Source\PSoC5/USBUART_msc.c **** *          Internal variables
ARM GAS  C:\Users\HPz420\AppData\Local\Temp\ccybYlfl.s 			page 2


  28:Generated_Source\PSoC5/USBUART_msc.c **** ***************************************/
  29:Generated_Source\PSoC5/USBUART_msc.c **** 
  30:Generated_Source\PSoC5/USBUART_msc.c **** static uint8 USBUART_lunCount = USBUART_MSC_LUN_NUMBER;
  31:Generated_Source\PSoC5/USBUART_msc.c **** 
  32:Generated_Source\PSoC5/USBUART_msc.c **** 
  33:Generated_Source\PSoC5/USBUART_msc.c **** /*******************************************************************************
  34:Generated_Source\PSoC5/USBUART_msc.c **** * Function Name: USBUART_DispatchMSCClassRqst
  35:Generated_Source\PSoC5/USBUART_msc.c **** ****************************************************************************//**
  36:Generated_Source\PSoC5/USBUART_msc.c **** *   
  37:Generated_Source\PSoC5/USBUART_msc.c **** *  \internal 
  38:Generated_Source\PSoC5/USBUART_msc.c **** *  This routine dispatches MSC class requests.
  39:Generated_Source\PSoC5/USBUART_msc.c **** *
  40:Generated_Source\PSoC5/USBUART_msc.c **** * \return
  41:Generated_Source\PSoC5/USBUART_msc.c **** *  Status of request processing: handled or not handled.
  42:Generated_Source\PSoC5/USBUART_msc.c **** *
  43:Generated_Source\PSoC5/USBUART_msc.c **** * \globalvars
  44:Generated_Source\PSoC5/USBUART_msc.c **** *  USBUART_lunCount - stores number of LUN (logical units).
  45:Generated_Source\PSoC5/USBUART_msc.c **** *
  46:Generated_Source\PSoC5/USBUART_msc.c **** * \reentrant
  47:Generated_Source\PSoC5/USBUART_msc.c **** *  No.
  48:Generated_Source\PSoC5/USBUART_msc.c **** *
  49:Generated_Source\PSoC5/USBUART_msc.c **** *******************************************************************************/
  50:Generated_Source\PSoC5/USBUART_msc.c **** uint8 USBUART_DispatchMSCClassRqst(void) 
  51:Generated_Source\PSoC5/USBUART_msc.c **** {
  31              		.loc 1 51 0
  32              		.cfi_startproc
  33              		@ args = 0, pretend = 0, frame = 8
  34              		@ frame_needed = 1, uses_anonymous_args = 0
  35 0000 80B5     		push	{r7, lr}
  36              		.cfi_def_cfa_offset 8
  37              		.cfi_offset 7, -8
  38              		.cfi_offset 14, -4
  39 0002 82B0     		sub	sp, sp, #8
  40              		.cfi_def_cfa_offset 16
  41 0004 00AF     		add	r7, sp, #0
  42              		.cfi_def_cfa_register 7
  52:Generated_Source\PSoC5/USBUART_msc.c ****     uint8 requestHandled = USBUART_FALSE;
  43              		.loc 1 52 0
  44 0006 0023     		movs	r3, #0
  45 0008 FB71     		strb	r3, [r7, #7]
  53:Generated_Source\PSoC5/USBUART_msc.c ****     
  54:Generated_Source\PSoC5/USBUART_msc.c ****     /* Get request data. */
  55:Generated_Source\PSoC5/USBUART_msc.c ****     uint16 value  = USBUART_GET_UINT16(USBUART_wValueHiReg,  USBUART_wValueLoReg);
  46              		.loc 1 55 0
  47 000a 254B     		ldr	r3, .L6
  48 000c DB78     		ldrb	r3, [r3, #3]
  49 000e DBB2     		uxtb	r3, r3
  50 0010 9BB2     		uxth	r3, r3
  51 0012 1B02     		lsls	r3, r3, #8
  52 0014 9AB2     		uxth	r2, r3
  53 0016 224B     		ldr	r3, .L6
  54 0018 9B78     		ldrb	r3, [r3, #2]
  55 001a DBB2     		uxtb	r3, r3
  56 001c 9BB2     		uxth	r3, r3
  57 001e 1343     		orrs	r3, r3, r2
  58 0020 BB80     		strh	r3, [r7, #4]	@ movhi
  56:Generated_Source\PSoC5/USBUART_msc.c ****     uint16 dataLength = USBUART_GET_UINT16(USBUART_wLengthHiReg, USBUART_wLengthLoReg);
ARM GAS  C:\Users\HPz420\AppData\Local\Temp\ccybYlfl.s 			page 3


  59              		.loc 1 56 0
  60 0022 1F4B     		ldr	r3, .L6
  61 0024 DB79     		ldrb	r3, [r3, #7]
  62 0026 DBB2     		uxtb	r3, r3
  63 0028 9BB2     		uxth	r3, r3
  64 002a 1B02     		lsls	r3, r3, #8
  65 002c 9AB2     		uxth	r2, r3
  66 002e 1C4B     		ldr	r3, .L6
  67 0030 9B79     		ldrb	r3, [r3, #6]
  68 0032 DBB2     		uxtb	r3, r3
  69 0034 9BB2     		uxth	r3, r3
  70 0036 1343     		orrs	r3, r3, r2
  71 0038 7B80     		strh	r3, [r7, #2]	@ movhi
  57:Generated_Source\PSoC5/USBUART_msc.c ****        
  58:Generated_Source\PSoC5/USBUART_msc.c ****     /* Check request direction: D2H or H2D. */
  59:Generated_Source\PSoC5/USBUART_msc.c ****     if (0u != (USBUART_bmRequestTypeReg & USBUART_RQST_DIR_D2H))
  72              		.loc 1 59 0
  73 003a 194B     		ldr	r3, .L6
  74 003c 1B78     		ldrb	r3, [r3]
  75 003e DBB2     		uxtb	r3, r3
  76 0040 5BB2     		sxtb	r3, r3
  77 0042 002B     		cmp	r3, #0
  78 0044 15DA     		bge	.L2
  60:Generated_Source\PSoC5/USBUART_msc.c ****     {
  61:Generated_Source\PSoC5/USBUART_msc.c ****         /* Handle direction from device to host. */
  62:Generated_Source\PSoC5/USBUART_msc.c ****         
  63:Generated_Source\PSoC5/USBUART_msc.c ****         if (USBUART_MSC_GET_MAX_LUN == USBUART_bRequestReg)
  79              		.loc 1 63 0
  80 0046 164B     		ldr	r3, .L6
  81 0048 5B78     		ldrb	r3, [r3, #1]
  82 004a DBB2     		uxtb	r3, r3
  83 004c FE2B     		cmp	r3, #254
  84 004e 22D1     		bne	.L4
  64:Generated_Source\PSoC5/USBUART_msc.c ****         {
  65:Generated_Source\PSoC5/USBUART_msc.c ****             /* Check request fields. */
  66:Generated_Source\PSoC5/USBUART_msc.c ****             if ((value  == USBUART_MSC_GET_MAX_LUN_WVALUE) &&
  85              		.loc 1 66 0
  86 0050 BB88     		ldrh	r3, [r7, #4]
  87 0052 002B     		cmp	r3, #0
  88 0054 1FD1     		bne	.L4
  89              		.loc 1 66 0 is_stmt 0 discriminator 1
  90 0056 7B88     		ldrh	r3, [r7, #2]
  91 0058 012B     		cmp	r3, #1
  92 005a 1CD1     		bne	.L4
  67:Generated_Source\PSoC5/USBUART_msc.c ****                 (dataLength == USBUART_MSC_GET_MAX_LUN_WLENGTH))
  68:Generated_Source\PSoC5/USBUART_msc.c ****             {
  69:Generated_Source\PSoC5/USBUART_msc.c ****                 /* Reply to Get Max LUN request: setup control read. */
  70:Generated_Source\PSoC5/USBUART_msc.c ****                 USBUART_currentTD.pData = &USBUART_lunCount;
  93              		.loc 1 70 0 is_stmt 1
  94 005c 114B     		ldr	r3, .L6+4
  95 005e 124A     		ldr	r2, .L6+8
  96 0060 5A60     		str	r2, [r3, #4]
  71:Generated_Source\PSoC5/USBUART_msc.c ****                 USBUART_currentTD.count =  USBUART_MSC_GET_MAX_LUN_WLENGTH;
  97              		.loc 1 71 0
  98 0062 104B     		ldr	r3, .L6+4
  99 0064 0122     		movs	r2, #1
 100 0066 1A80     		strh	r2, [r3]	@ movhi
ARM GAS  C:\Users\HPz420\AppData\Local\Temp\ccybYlfl.s 			page 4


  72:Generated_Source\PSoC5/USBUART_msc.c ****                 
  73:Generated_Source\PSoC5/USBUART_msc.c ****                 requestHandled  = USBUART_InitControlRead();
 101              		.loc 1 73 0
 102 0068 FFF7FEFF 		bl	USBUART_InitControlRead
 103 006c 0346     		mov	r3, r0
 104 006e FB71     		strb	r3, [r7, #7]
 105 0070 11E0     		b	.L4
 106              	.L2:
  74:Generated_Source\PSoC5/USBUART_msc.c ****             }
  75:Generated_Source\PSoC5/USBUART_msc.c ****         }
  76:Generated_Source\PSoC5/USBUART_msc.c ****     }
  77:Generated_Source\PSoC5/USBUART_msc.c ****     else
  78:Generated_Source\PSoC5/USBUART_msc.c ****     {
  79:Generated_Source\PSoC5/USBUART_msc.c ****         /* Handle direction from host to device. */
  80:Generated_Source\PSoC5/USBUART_msc.c ****         
  81:Generated_Source\PSoC5/USBUART_msc.c ****         if (USBUART_MSC_RESET == USBUART_bRequestReg)
 107              		.loc 1 81 0
 108 0072 0B4B     		ldr	r3, .L6
 109 0074 5B78     		ldrb	r3, [r3, #1]
 110 0076 DBB2     		uxtb	r3, r3
 111 0078 FF2B     		cmp	r3, #255
 112 007a 0CD1     		bne	.L4
  82:Generated_Source\PSoC5/USBUART_msc.c ****         {
  83:Generated_Source\PSoC5/USBUART_msc.c ****             /* Check request fields. */
  84:Generated_Source\PSoC5/USBUART_msc.c ****             if ((value  == USBUART_MSC_RESET_WVALUE) &&
 113              		.loc 1 84 0
 114 007c BB88     		ldrh	r3, [r7, #4]
 115 007e 002B     		cmp	r3, #0
 116 0080 09D1     		bne	.L4
 117              		.loc 1 84 0 is_stmt 0 discriminator 1
 118 0082 7B88     		ldrh	r3, [r7, #2]
 119 0084 002B     		cmp	r3, #0
 120 0086 06D1     		bne	.L4
  85:Generated_Source\PSoC5/USBUART_msc.c ****                 (dataLength == USBUART_MSC_RESET_WLENGTH))
  86:Generated_Source\PSoC5/USBUART_msc.c ****             {
  87:Generated_Source\PSoC5/USBUART_msc.c ****                 /* Handle to Bulk-Only Reset request: no data control transfer. */
  88:Generated_Source\PSoC5/USBUART_msc.c ****                 USBUART_currentTD.count = USBUART_MSC_RESET_WLENGTH;
 121              		.loc 1 88 0 is_stmt 1
 122 0088 064B     		ldr	r3, .L6+4
 123 008a 0022     		movs	r2, #0
 124 008c 1A80     		strh	r2, [r3]	@ movhi
  89:Generated_Source\PSoC5/USBUART_msc.c ****                 
  90:Generated_Source\PSoC5/USBUART_msc.c ****             #ifdef USBUART_DISPATCH_MSC_CLASS_MSC_RESET_RQST_CALLBACK
  91:Generated_Source\PSoC5/USBUART_msc.c ****                 USBUART_DispatchMSCClass_MSC_RESET_RQST_Callback();
  92:Generated_Source\PSoC5/USBUART_msc.c ****             #endif /* (USBUART_DISPATCH_MSC_CLASS_MSC_RESET_RQST_CALLBACK) */
  93:Generated_Source\PSoC5/USBUART_msc.c ****                 
  94:Generated_Source\PSoC5/USBUART_msc.c ****                 requestHandled = USBUART_InitNoDataControlTransfer();
 125              		.loc 1 94 0
 126 008e FFF7FEFF 		bl	USBUART_InitNoDataControlTransfer
 127 0092 0346     		mov	r3, r0
 128 0094 FB71     		strb	r3, [r7, #7]
 129              	.L4:
  95:Generated_Source\PSoC5/USBUART_msc.c ****             }
  96:Generated_Source\PSoC5/USBUART_msc.c ****         }
  97:Generated_Source\PSoC5/USBUART_msc.c ****     }
  98:Generated_Source\PSoC5/USBUART_msc.c ****     
  99:Generated_Source\PSoC5/USBUART_msc.c ****     return (requestHandled);
ARM GAS  C:\Users\HPz420\AppData\Local\Temp\ccybYlfl.s 			page 5


 130              		.loc 1 99 0
 131 0096 FB79     		ldrb	r3, [r7, #7]	@ zero_extendqisi2
 100:Generated_Source\PSoC5/USBUART_msc.c **** }
 132              		.loc 1 100 0
 133 0098 1846     		mov	r0, r3
 134 009a 0837     		adds	r7, r7, #8
 135              		.cfi_def_cfa_offset 8
 136 009c BD46     		mov	sp, r7
 137              		.cfi_def_cfa_register 13
 138              		@ sp needed
 139 009e 80BD     		pop	{r7, pc}
 140              	.L7:
 141              		.align	2
 142              	.L6:
 143 00a0 00600040 		.word	1073766400
 144 00a4 00000000 		.word	USBUART_currentTD
 145 00a8 00000000 		.word	USBUART_lunCount
 146              		.cfi_endproc
 147              	.LFE0:
 148              		.size	USBUART_DispatchMSCClassRqst, .-USBUART_DispatchMSCClassRqst
 149              		.section	.text.USBUART_MSC_SetLunCount,"ax",%progbits
 150              		.align	2
 151              		.global	USBUART_MSC_SetLunCount
 152              		.thumb
 153              		.thumb_func
 154              		.type	USBUART_MSC_SetLunCount, %function
 155              	USBUART_MSC_SetLunCount:
 156              	.LFB1:
 101:Generated_Source\PSoC5/USBUART_msc.c **** 
 102:Generated_Source\PSoC5/USBUART_msc.c **** 
 103:Generated_Source\PSoC5/USBUART_msc.c **** /*******************************************************************************
 104:Generated_Source\PSoC5/USBUART_msc.c **** * Function Name: USBUART_MSC_SetLunCount
 105:Generated_Source\PSoC5/USBUART_msc.c **** ****************************************************************************//**
 106:Generated_Source\PSoC5/USBUART_msc.c **** *
 107:Generated_Source\PSoC5/USBUART_msc.c **** *  This function sets the number of logical units supported in the application. 
 108:Generated_Source\PSoC5/USBUART_msc.c **** *  The default number of logical units is set in the component customizer.
 109:Generated_Source\PSoC5/USBUART_msc.c **** *
 110:Generated_Source\PSoC5/USBUART_msc.c **** *  \param lunCount: Count of the logical units. Valid range is between 1 and 16.
 111:Generated_Source\PSoC5/USBUART_msc.c **** *
 112:Generated_Source\PSoC5/USBUART_msc.c **** *
 113:Generated_Source\PSoC5/USBUART_msc.c **** * \globalvars
 114:Generated_Source\PSoC5/USBUART_msc.c **** *  USBUART_lunCount - stores number of LUN (logical units).
 115:Generated_Source\PSoC5/USBUART_msc.c **** *
 116:Generated_Source\PSoC5/USBUART_msc.c **** * \reentrant
 117:Generated_Source\PSoC5/USBUART_msc.c **** *  No.
 118:Generated_Source\PSoC5/USBUART_msc.c **** *
 119:Generated_Source\PSoC5/USBUART_msc.c **** *******************************************************************************/
 120:Generated_Source\PSoC5/USBUART_msc.c **** void USBUART_MSC_SetLunCount(uint8 lunCount) 
 121:Generated_Source\PSoC5/USBUART_msc.c **** {
 157              		.loc 1 121 0
 158              		.cfi_startproc
 159              		@ args = 0, pretend = 0, frame = 8
 160              		@ frame_needed = 1, uses_anonymous_args = 0
 161              		@ link register save eliminated.
 162 0000 80B4     		push	{r7}
 163              		.cfi_def_cfa_offset 4
 164              		.cfi_offset 7, -4
ARM GAS  C:\Users\HPz420\AppData\Local\Temp\ccybYlfl.s 			page 6


 165 0002 83B0     		sub	sp, sp, #12
 166              		.cfi_def_cfa_offset 16
 167 0004 00AF     		add	r7, sp, #0
 168              		.cfi_def_cfa_register 7
 169 0006 0346     		mov	r3, r0
 170 0008 FB71     		strb	r3, [r7, #7]
 122:Generated_Source\PSoC5/USBUART_msc.c ****     USBUART_lunCount = (lunCount - 1u);
 171              		.loc 1 122 0
 172 000a FB79     		ldrb	r3, [r7, #7]
 173 000c 013B     		subs	r3, r3, #1
 174 000e DAB2     		uxtb	r2, r3
 175 0010 034B     		ldr	r3, .L9
 176 0012 1A70     		strb	r2, [r3]
 123:Generated_Source\PSoC5/USBUART_msc.c **** }
 177              		.loc 1 123 0
 178 0014 00BF     		nop
 179 0016 0C37     		adds	r7, r7, #12
 180              		.cfi_def_cfa_offset 4
 181 0018 BD46     		mov	sp, r7
 182              		.cfi_def_cfa_register 13
 183              		@ sp needed
 184 001a 80BC     		pop	{r7}
 185              		.cfi_restore 7
 186              		.cfi_def_cfa_offset 0
 187 001c 7047     		bx	lr
 188              	.L10:
 189 001e 00BF     		.align	2
 190              	.L9:
 191 0020 00000000 		.word	USBUART_lunCount
 192              		.cfi_endproc
 193              	.LFE1:
 194              		.size	USBUART_MSC_SetLunCount, .-USBUART_MSC_SetLunCount
 195              		.section	.text.USBUART_MSC_GetLunCount,"ax",%progbits
 196              		.align	2
 197              		.global	USBUART_MSC_GetLunCount
 198              		.thumb
 199              		.thumb_func
 200              		.type	USBUART_MSC_GetLunCount, %function
 201              	USBUART_MSC_GetLunCount:
 202              	.LFB2:
 124:Generated_Source\PSoC5/USBUART_msc.c **** 
 125:Generated_Source\PSoC5/USBUART_msc.c **** 
 126:Generated_Source\PSoC5/USBUART_msc.c **** /*******************************************************************************
 127:Generated_Source\PSoC5/USBUART_msc.c **** * Function Name: USBUART_MSC_GetLunCount
 128:Generated_Source\PSoC5/USBUART_msc.c **** ****************************************************************************//**
 129:Generated_Source\PSoC5/USBUART_msc.c **** *
 130:Generated_Source\PSoC5/USBUART_msc.c **** *  This function returns the number of logical units.
 131:Generated_Source\PSoC5/USBUART_msc.c **** *
 132:Generated_Source\PSoC5/USBUART_msc.c **** * \return
 133:Generated_Source\PSoC5/USBUART_msc.c **** *   Number of the logical units.
 134:Generated_Source\PSoC5/USBUART_msc.c **** *
 135:Generated_Source\PSoC5/USBUART_msc.c **** * \globalvars
 136:Generated_Source\PSoC5/USBUART_msc.c **** *  USBUART_lunCount - stores number of LUN (logical units).
 137:Generated_Source\PSoC5/USBUART_msc.c **** *
 138:Generated_Source\PSoC5/USBUART_msc.c **** * \reentrant
 139:Generated_Source\PSoC5/USBUART_msc.c **** *  No.
 140:Generated_Source\PSoC5/USBUART_msc.c **** *
ARM GAS  C:\Users\HPz420\AppData\Local\Temp\ccybYlfl.s 			page 7


 141:Generated_Source\PSoC5/USBUART_msc.c **** *******************************************************************************/
 142:Generated_Source\PSoC5/USBUART_msc.c **** uint8 USBUART_MSC_GetLunCount(void) 
 143:Generated_Source\PSoC5/USBUART_msc.c **** {
 203              		.loc 1 143 0
 204              		.cfi_startproc
 205              		@ args = 0, pretend = 0, frame = 0
 206              		@ frame_needed = 1, uses_anonymous_args = 0
 207              		@ link register save eliminated.
 208 0000 80B4     		push	{r7}
 209              		.cfi_def_cfa_offset 4
 210              		.cfi_offset 7, -4
 211 0002 00AF     		add	r7, sp, #0
 212              		.cfi_def_cfa_register 7
 144:Generated_Source\PSoC5/USBUART_msc.c ****     return (USBUART_lunCount + 1u);
 213              		.loc 1 144 0
 214 0004 034B     		ldr	r3, .L13
 215 0006 1B78     		ldrb	r3, [r3]	@ zero_extendqisi2
 216 0008 0133     		adds	r3, r3, #1
 217 000a DBB2     		uxtb	r3, r3
 145:Generated_Source\PSoC5/USBUART_msc.c **** }   
 218              		.loc 1 145 0
 219 000c 1846     		mov	r0, r3
 220 000e BD46     		mov	sp, r7
 221              		.cfi_def_cfa_register 13
 222              		@ sp needed
 223 0010 80BC     		pop	{r7}
 224              		.cfi_restore 7
 225              		.cfi_def_cfa_offset 0
 226 0012 7047     		bx	lr
 227              	.L14:
 228              		.align	2
 229              	.L13:
 230 0014 00000000 		.word	USBUART_lunCount
 231              		.cfi_endproc
 232              	.LFE2:
 233              		.size	USBUART_MSC_GetLunCount, .-USBUART_MSC_GetLunCount
 234              		.text
 235              	.Letext0:
 236              		.file 2 "Generated_Source\\PSoC5\\cytypes.h"
 237              		.file 3 "Generated_Source\\PSoC5\\USBUART.h"
 238              		.file 4 "Generated_Source\\PSoC5\\USBUART_pvt.h"