ARM GAS  C:\Users\DGILLI~1\AppData\Local\Temp\cc6e1FdW.s 			page 1


   1              		.syntax unified
   2              		.cpu cortex-m3
   3              		.fpu softvfp
   4              		.eabi_attribute 20, 1
   5              		.eabi_attribute 21, 1
   6              		.eabi_attribute 23, 3
   7              		.eabi_attribute 24, 1
   8              		.eabi_attribute 25, 1
   9              		.eabi_attribute 26, 1
  10              		.eabi_attribute 30, 1
  11              		.eabi_attribute 34, 1
  12              		.eabi_attribute 18, 4
  13              		.thumb
  14              		.syntax unified
  15              		.file	"cyfitter_cfg.c"
  16              		.text
  17              	.Ltext0:
  18              		.cfi_sections	.debug_frame
  19              		.section	.text.CyClockStartupError,"ax",%progbits
  20              		.align	2
  21              		.thumb
  22              		.thumb_func
  23              		.type	CyClockStartupError, %function
  24              	CyClockStartupError:
  25              	.LFB3:
  26              		.file 1 "Generated_Source\\PSoC5\\cyfitter_cfg.c"
   1:Generated_Source\PSoC5/cyfitter_cfg.c **** 
   2:Generated_Source\PSoC5/cyfitter_cfg.c **** /*******************************************************************************
   3:Generated_Source\PSoC5/cyfitter_cfg.c **** * File Name: cyfitter_cfg.c
   4:Generated_Source\PSoC5/cyfitter_cfg.c **** * 
   5:Generated_Source\PSoC5/cyfitter_cfg.c **** * PSoC Creator  4.2
   6:Generated_Source\PSoC5/cyfitter_cfg.c **** *
   7:Generated_Source\PSoC5/cyfitter_cfg.c **** * Description:
   8:Generated_Source\PSoC5/cyfitter_cfg.c **** * This file contains device initialization code.
   9:Generated_Source\PSoC5/cyfitter_cfg.c **** * Except for the user defined sections in CyClockStartupError(), this file should not be modified.
  10:Generated_Source\PSoC5/cyfitter_cfg.c **** * This file is automatically generated by PSoC Creator.
  11:Generated_Source\PSoC5/cyfitter_cfg.c **** *
  12:Generated_Source\PSoC5/cyfitter_cfg.c **** ********************************************************************************
  13:Generated_Source\PSoC5/cyfitter_cfg.c **** * Copyright (c) 2007-2018 Cypress Semiconductor.  All rights reserved.
  14:Generated_Source\PSoC5/cyfitter_cfg.c **** * You may use this file only in accordance with the license, terms, conditions, 
  15:Generated_Source\PSoC5/cyfitter_cfg.c **** * disclaimers, and limitations in the end user license agreement accompanying 
  16:Generated_Source\PSoC5/cyfitter_cfg.c **** * the software package with which this file was provided.
  17:Generated_Source\PSoC5/cyfitter_cfg.c **** ********************************************************************************/
  18:Generated_Source\PSoC5/cyfitter_cfg.c **** 
  19:Generated_Source\PSoC5/cyfitter_cfg.c **** #include <string.h>
  20:Generated_Source\PSoC5/cyfitter_cfg.c **** #include "cytypes.h"
  21:Generated_Source\PSoC5/cyfitter_cfg.c **** #include "cydevice_trm.h"
  22:Generated_Source\PSoC5/cyfitter_cfg.c **** #include "cyfitter.h"
  23:Generated_Source\PSoC5/cyfitter_cfg.c **** #include "CyLib.h"
  24:Generated_Source\PSoC5/cyfitter_cfg.c **** #include "cyfitter_cfg.h"
  25:Generated_Source\PSoC5/cyfitter_cfg.c **** #include "cyapicallbacks.h"
  26:Generated_Source\PSoC5/cyfitter_cfg.c **** 
  27:Generated_Source\PSoC5/cyfitter_cfg.c **** #define CY_NEED_CYCLOCKSTARTUPERROR 1
  28:Generated_Source\PSoC5/cyfitter_cfg.c **** 
  29:Generated_Source\PSoC5/cyfitter_cfg.c **** 
  30:Generated_Source\PSoC5/cyfitter_cfg.c **** #if defined(__GNUC__) || defined(__ARMCC_VERSION)
  31:Generated_Source\PSoC5/cyfitter_cfg.c ****     #define CYPACKED 
ARM GAS  C:\Users\DGILLI~1\AppData\Local\Temp\cc6e1FdW.s 			page 2


  32:Generated_Source\PSoC5/cyfitter_cfg.c ****     #define CYPACKED_ATTR __attribute__ ((packed))
  33:Generated_Source\PSoC5/cyfitter_cfg.c ****     #define CYALIGNED __attribute__ ((aligned))
  34:Generated_Source\PSoC5/cyfitter_cfg.c ****     #define CY_CFG_UNUSED __attribute__ ((unused))
  35:Generated_Source\PSoC5/cyfitter_cfg.c ****     #ifndef CY_CFG_SECTION
  36:Generated_Source\PSoC5/cyfitter_cfg.c ****         #define CY_CFG_SECTION __attribute__ ((section(".psocinit")))
  37:Generated_Source\PSoC5/cyfitter_cfg.c ****     #endif
  38:Generated_Source\PSoC5/cyfitter_cfg.c ****     
  39:Generated_Source\PSoC5/cyfitter_cfg.c ****     #if defined(__ARMCC_VERSION)
  40:Generated_Source\PSoC5/cyfitter_cfg.c ****         #define CY_CFG_MEMORY_BARRIER() __memory_changed()
  41:Generated_Source\PSoC5/cyfitter_cfg.c ****     #else
  42:Generated_Source\PSoC5/cyfitter_cfg.c ****         #define CY_CFG_MEMORY_BARRIER() __sync_synchronize()
  43:Generated_Source\PSoC5/cyfitter_cfg.c ****     #endif
  44:Generated_Source\PSoC5/cyfitter_cfg.c ****     
  45:Generated_Source\PSoC5/cyfitter_cfg.c **** #elif defined(__ICCARM__)
  46:Generated_Source\PSoC5/cyfitter_cfg.c ****     #include <intrinsics.h>
  47:Generated_Source\PSoC5/cyfitter_cfg.c **** 
  48:Generated_Source\PSoC5/cyfitter_cfg.c ****     #define CYPACKED __packed
  49:Generated_Source\PSoC5/cyfitter_cfg.c ****     #define CYPACKED_ATTR 
  50:Generated_Source\PSoC5/cyfitter_cfg.c ****     #define CYALIGNED _Pragma("data_alignment=4")
  51:Generated_Source\PSoC5/cyfitter_cfg.c ****     #define CY_CFG_UNUSED _Pragma("diag_suppress=Pe177")
  52:Generated_Source\PSoC5/cyfitter_cfg.c ****     #define CY_CFG_SECTION _Pragma("location=\".psocinit\"")
  53:Generated_Source\PSoC5/cyfitter_cfg.c ****     
  54:Generated_Source\PSoC5/cyfitter_cfg.c ****     #define CY_CFG_MEMORY_BARRIER() __DMB()
  55:Generated_Source\PSoC5/cyfitter_cfg.c ****     
  56:Generated_Source\PSoC5/cyfitter_cfg.c **** #else
  57:Generated_Source\PSoC5/cyfitter_cfg.c ****     #error Unsupported toolchain
  58:Generated_Source\PSoC5/cyfitter_cfg.c **** #endif
  59:Generated_Source\PSoC5/cyfitter_cfg.c **** 
  60:Generated_Source\PSoC5/cyfitter_cfg.c **** #ifndef CYCODE
  61:Generated_Source\PSoC5/cyfitter_cfg.c ****     #define CYCODE
  62:Generated_Source\PSoC5/cyfitter_cfg.c **** #endif
  63:Generated_Source\PSoC5/cyfitter_cfg.c **** #ifndef CYDATA
  64:Generated_Source\PSoC5/cyfitter_cfg.c ****     #define CYDATA
  65:Generated_Source\PSoC5/cyfitter_cfg.c **** #endif
  66:Generated_Source\PSoC5/cyfitter_cfg.c **** #ifndef CYFAR
  67:Generated_Source\PSoC5/cyfitter_cfg.c ****     #define CYFAR
  68:Generated_Source\PSoC5/cyfitter_cfg.c **** #endif
  69:Generated_Source\PSoC5/cyfitter_cfg.c **** #ifndef CYXDATA
  70:Generated_Source\PSoC5/cyfitter_cfg.c ****     #define CYXDATA
  71:Generated_Source\PSoC5/cyfitter_cfg.c **** #endif
  72:Generated_Source\PSoC5/cyfitter_cfg.c **** 
  73:Generated_Source\PSoC5/cyfitter_cfg.c **** 
  74:Generated_Source\PSoC5/cyfitter_cfg.c **** CY_CFG_UNUSED
  75:Generated_Source\PSoC5/cyfitter_cfg.c **** static void CYMEMZERO(void *s, size_t n);
  76:Generated_Source\PSoC5/cyfitter_cfg.c **** CY_CFG_UNUSED
  77:Generated_Source\PSoC5/cyfitter_cfg.c **** static void CYMEMZERO(void *s, size_t n)
  78:Generated_Source\PSoC5/cyfitter_cfg.c **** {
  79:Generated_Source\PSoC5/cyfitter_cfg.c **** 	(void)memset(s, 0, n);
  80:Generated_Source\PSoC5/cyfitter_cfg.c **** }
  81:Generated_Source\PSoC5/cyfitter_cfg.c **** CY_CFG_UNUSED
  82:Generated_Source\PSoC5/cyfitter_cfg.c **** static void CYCONFIGCPY(void *dest, const void *src, size_t n);
  83:Generated_Source\PSoC5/cyfitter_cfg.c **** CY_CFG_UNUSED
  84:Generated_Source\PSoC5/cyfitter_cfg.c **** static void CYCONFIGCPY(void *dest, const void *src, size_t n)
  85:Generated_Source\PSoC5/cyfitter_cfg.c **** {
  86:Generated_Source\PSoC5/cyfitter_cfg.c **** 	(void)memcpy(dest, src, n);
  87:Generated_Source\PSoC5/cyfitter_cfg.c **** }
  88:Generated_Source\PSoC5/cyfitter_cfg.c **** CY_CFG_UNUSED
ARM GAS  C:\Users\DGILLI~1\AppData\Local\Temp\cc6e1FdW.s 			page 3


  89:Generated_Source\PSoC5/cyfitter_cfg.c **** static void CYCONFIGCPYCODE(void *dest, const void *src, size_t n);
  90:Generated_Source\PSoC5/cyfitter_cfg.c **** CY_CFG_UNUSED
  91:Generated_Source\PSoC5/cyfitter_cfg.c **** static void CYCONFIGCPYCODE(void *dest, const void *src, size_t n)
  92:Generated_Source\PSoC5/cyfitter_cfg.c **** {
  93:Generated_Source\PSoC5/cyfitter_cfg.c **** 	(void)memcpy(dest, src, n);
  94:Generated_Source\PSoC5/cyfitter_cfg.c **** }
  95:Generated_Source\PSoC5/cyfitter_cfg.c **** 
  96:Generated_Source\PSoC5/cyfitter_cfg.c **** 
  97:Generated_Source\PSoC5/cyfitter_cfg.c **** 
  98:Generated_Source\PSoC5/cyfitter_cfg.c **** 
  99:Generated_Source\PSoC5/cyfitter_cfg.c **** /* Clock startup error codes                                                   */
 100:Generated_Source\PSoC5/cyfitter_cfg.c **** #define CYCLOCKSTART_NO_ERROR    0u
 101:Generated_Source\PSoC5/cyfitter_cfg.c **** #define CYCLOCKSTART_XTAL_ERROR  1u
 102:Generated_Source\PSoC5/cyfitter_cfg.c **** #define CYCLOCKSTART_32KHZ_ERROR 2u
 103:Generated_Source\PSoC5/cyfitter_cfg.c **** #define CYCLOCKSTART_PLL_ERROR   3u
 104:Generated_Source\PSoC5/cyfitter_cfg.c **** #define CYCLOCKSTART_FLL_ERROR   4u
 105:Generated_Source\PSoC5/cyfitter_cfg.c **** #define CYCLOCKSTART_WCO_ERROR   5u
 106:Generated_Source\PSoC5/cyfitter_cfg.c **** 
 107:Generated_Source\PSoC5/cyfitter_cfg.c **** 
 108:Generated_Source\PSoC5/cyfitter_cfg.c **** #ifdef CY_NEED_CYCLOCKSTARTUPERROR
 109:Generated_Source\PSoC5/cyfitter_cfg.c **** /*******************************************************************************
 110:Generated_Source\PSoC5/cyfitter_cfg.c **** * Function Name: CyClockStartupError
 111:Generated_Source\PSoC5/cyfitter_cfg.c **** ********************************************************************************
 112:Generated_Source\PSoC5/cyfitter_cfg.c **** * Summary:
 113:Generated_Source\PSoC5/cyfitter_cfg.c **** *  If an error is encountered during clock configuration (crystal startup error,
 114:Generated_Source\PSoC5/cyfitter_cfg.c **** *  PLL lock error, etc.), the system will end up here.  Unless reimplemented by
 115:Generated_Source\PSoC5/cyfitter_cfg.c **** *  the customer, this function will stop in an infinite loop.
 116:Generated_Source\PSoC5/cyfitter_cfg.c **** *
 117:Generated_Source\PSoC5/cyfitter_cfg.c **** * Parameters:
 118:Generated_Source\PSoC5/cyfitter_cfg.c **** *   void
 119:Generated_Source\PSoC5/cyfitter_cfg.c **** *
 120:Generated_Source\PSoC5/cyfitter_cfg.c **** * Return:
 121:Generated_Source\PSoC5/cyfitter_cfg.c **** *   void
 122:Generated_Source\PSoC5/cyfitter_cfg.c **** *
 123:Generated_Source\PSoC5/cyfitter_cfg.c **** *******************************************************************************/
 124:Generated_Source\PSoC5/cyfitter_cfg.c **** CY_CFG_UNUSED
 125:Generated_Source\PSoC5/cyfitter_cfg.c **** static void CyClockStartupError(uint8 errorCode);
 126:Generated_Source\PSoC5/cyfitter_cfg.c **** CY_CFG_UNUSED
 127:Generated_Source\PSoC5/cyfitter_cfg.c **** static void CyClockStartupError(uint8 errorCode)
 128:Generated_Source\PSoC5/cyfitter_cfg.c **** {
  27              		.loc 1 128 0
  28              		.cfi_startproc
  29              		@ Volatile: function does not return.
  30              		@ args = 0, pretend = 0, frame = 0
  31              		@ frame_needed = 0, uses_anonymous_args = 0
  32              		@ link register save eliminated.
  33              	.LVL0:
  34              	.L2:
  35 0000 FEE7     		b	.L2
  36              		.cfi_endproc
  37              	.LFE3:
  38              		.size	CyClockStartupError, .-CyClockStartupError
  39 0002 00BF     		.section	.text.cfg_write_bytes32,"ax",%progbits
  40              		.align	2
  41              		.thumb
  42              		.thumb_func
  43              		.type	cfg_write_bytes32, %function
ARM GAS  C:\Users\DGILLI~1\AppData\Local\Temp\cc6e1FdW.s 			page 4


  44              	cfg_write_bytes32:
  45              	.LFB4:
 129:Generated_Source\PSoC5/cyfitter_cfg.c ****     /* To remove the compiler warning if errorCode not used.                */
 130:Generated_Source\PSoC5/cyfitter_cfg.c ****     errorCode = errorCode;
 131:Generated_Source\PSoC5/cyfitter_cfg.c **** 
 132:Generated_Source\PSoC5/cyfitter_cfg.c ****     /* If we have a clock startup error (bad MHz crystal, PLL lock, etc.),  */
 133:Generated_Source\PSoC5/cyfitter_cfg.c ****     /* we will end up here to allow the customer to implement something to  */
 134:Generated_Source\PSoC5/cyfitter_cfg.c ****     /* deal with the clock condition.                                       */
 135:Generated_Source\PSoC5/cyfitter_cfg.c **** 
 136:Generated_Source\PSoC5/cyfitter_cfg.c **** #ifdef CY_CFG_CLOCK_STARTUP_ERROR_CALLBACK
 137:Generated_Source\PSoC5/cyfitter_cfg.c ****     CY_CFG_Clock_Startup_ErrorCallback();
 138:Generated_Source\PSoC5/cyfitter_cfg.c **** #else
 139:Generated_Source\PSoC5/cyfitter_cfg.c ****     /*  If not using CY_CFG_CLOCK_STARTUP_ERROR_CALLBACK, place your clock startup code here. */
 140:Generated_Source\PSoC5/cyfitter_cfg.c ****     /* `#START CyClockStartupError` */
 141:Generated_Source\PSoC5/cyfitter_cfg.c **** 
 142:Generated_Source\PSoC5/cyfitter_cfg.c **** 
 143:Generated_Source\PSoC5/cyfitter_cfg.c **** 
 144:Generated_Source\PSoC5/cyfitter_cfg.c ****     /* `#END` */
 145:Generated_Source\PSoC5/cyfitter_cfg.c **** 
 146:Generated_Source\PSoC5/cyfitter_cfg.c ****     while(1) {}
 147:Generated_Source\PSoC5/cyfitter_cfg.c **** #endif /* CY_CFG_CLOCK_STARTUP_ERROR_CALLBACK */
 148:Generated_Source\PSoC5/cyfitter_cfg.c **** }
 149:Generated_Source\PSoC5/cyfitter_cfg.c **** #endif
 150:Generated_Source\PSoC5/cyfitter_cfg.c **** 
 151:Generated_Source\PSoC5/cyfitter_cfg.c **** #define CY_CFG_BASE_ADDR_COUNT 41u
 152:Generated_Source\PSoC5/cyfitter_cfg.c **** CYPACKED typedef struct
 153:Generated_Source\PSoC5/cyfitter_cfg.c **** {
 154:Generated_Source\PSoC5/cyfitter_cfg.c **** 	uint8 offset;
 155:Generated_Source\PSoC5/cyfitter_cfg.c **** 	uint8 value;
 156:Generated_Source\PSoC5/cyfitter_cfg.c **** } CYPACKED_ATTR cy_cfg_addrvalue_t;
 157:Generated_Source\PSoC5/cyfitter_cfg.c **** 
 158:Generated_Source\PSoC5/cyfitter_cfg.c **** #define cy_cfg_addr_table ((const uint32 CYFAR *)0x48000000u)
 159:Generated_Source\PSoC5/cyfitter_cfg.c **** #define cy_cfg_data_table ((const cy_cfg_addrvalue_t CYFAR *)0x480000A4u)
 160:Generated_Source\PSoC5/cyfitter_cfg.c **** 
 161:Generated_Source\PSoC5/cyfitter_cfg.c **** /* IOPORT_4 Address: CYDEV_PRTDSI_PRT4_BASE Size (bytes): 7 */
 162:Generated_Source\PSoC5/cyfitter_cfg.c **** #define BS_IOPORT_4_VAL ((const uint8 CYFAR *)0x48000F60u)
 163:Generated_Source\PSoC5/cyfitter_cfg.c **** 
 164:Generated_Source\PSoC5/cyfitter_cfg.c **** /* IOPORT_5 Address: CYDEV_PRTDSI_PRT5_BASE Size (bytes): 7 */
 165:Generated_Source\PSoC5/cyfitter_cfg.c **** #define BS_IOPORT_5_VAL ((const uint8 CYFAR *)0x48000F68u)
 166:Generated_Source\PSoC5/cyfitter_cfg.c **** 
 167:Generated_Source\PSoC5/cyfitter_cfg.c **** /* UDB_1_0_1_CONFIG Address: CYDEV_UCFG_B1_P2_U1_BASE Size (bytes): 128 */
 168:Generated_Source\PSoC5/cyfitter_cfg.c **** #define BS_UDB_1_0_1_CONFIG_VAL ((const uint8 CYFAR *)0x48000F70u)
 169:Generated_Source\PSoC5/cyfitter_cfg.c **** 
 170:Generated_Source\PSoC5/cyfitter_cfg.c **** /* UCFG_BCTL0 Address: CYREG_BCTL0_MDCLK_EN Size (bytes): 16 */
 171:Generated_Source\PSoC5/cyfitter_cfg.c **** #define BS_UCFG_BCTL0_VAL ((const uint8 CYFAR *)0x48000FF0u)
 172:Generated_Source\PSoC5/cyfitter_cfg.c **** 
 173:Generated_Source\PSoC5/cyfitter_cfg.c **** /* IOPINS0_0 Address: CYREG_PRT0_DR Size (bytes): 10 */
 174:Generated_Source\PSoC5/cyfitter_cfg.c **** #define BS_IOPINS0_0_VAL ((const uint8 CYFAR *)0x48001000u)
 175:Generated_Source\PSoC5/cyfitter_cfg.c **** 
 176:Generated_Source\PSoC5/cyfitter_cfg.c **** /* IOPINS0_7 Address: CYREG_PRT12_DR Size (bytes): 10 */
 177:Generated_Source\PSoC5/cyfitter_cfg.c **** #define BS_IOPINS0_7_VAL ((const uint8 CYFAR *)0x4800100Cu)
 178:Generated_Source\PSoC5/cyfitter_cfg.c **** 
 179:Generated_Source\PSoC5/cyfitter_cfg.c **** /* IOPINS0_8 Address: CYREG_PRT15_DR Size (bytes): 10 */
 180:Generated_Source\PSoC5/cyfitter_cfg.c **** #define BS_IOPINS0_8_VAL ((const uint8 CYFAR *)0x48001018u)
 181:Generated_Source\PSoC5/cyfitter_cfg.c **** 
 182:Generated_Source\PSoC5/cyfitter_cfg.c **** /* IOPINS0_1 Address: CYREG_PRT1_DM0 Size (bytes): 8 */
 183:Generated_Source\PSoC5/cyfitter_cfg.c **** #define BS_IOPINS0_1_VAL ((const uint8 CYFAR *)0x48001024u)
ARM GAS  C:\Users\DGILLI~1\AppData\Local\Temp\cc6e1FdW.s 			page 5


 184:Generated_Source\PSoC5/cyfitter_cfg.c **** 
 185:Generated_Source\PSoC5/cyfitter_cfg.c **** /* IOPINS0_2 Address: CYREG_PRT2_DM0 Size (bytes): 8 */
 186:Generated_Source\PSoC5/cyfitter_cfg.c **** #define BS_IOPINS0_2_VAL ((const uint8 CYFAR *)0x4800102Cu)
 187:Generated_Source\PSoC5/cyfitter_cfg.c **** 
 188:Generated_Source\PSoC5/cyfitter_cfg.c **** /* IOPINS0_3 Address: CYREG_PRT3_DM0 Size (bytes): 8 */
 189:Generated_Source\PSoC5/cyfitter_cfg.c **** #define BS_IOPINS0_3_VAL ((const uint8 CYFAR *)0x48001034u)
 190:Generated_Source\PSoC5/cyfitter_cfg.c **** 
 191:Generated_Source\PSoC5/cyfitter_cfg.c **** /* IOPINS0_4 Address: CYREG_PRT4_DM0 Size (bytes): 8 */
 192:Generated_Source\PSoC5/cyfitter_cfg.c **** #define BS_IOPINS0_4_VAL ((const uint8 CYFAR *)0x4800103Cu)
 193:Generated_Source\PSoC5/cyfitter_cfg.c **** 
 194:Generated_Source\PSoC5/cyfitter_cfg.c **** /* IOPINS0_5 Address: CYREG_PRT5_DR Size (bytes): 10 */
 195:Generated_Source\PSoC5/cyfitter_cfg.c **** #define BS_IOPINS0_5_VAL ((const uint8 CYFAR *)0x48001044u)
 196:Generated_Source\PSoC5/cyfitter_cfg.c **** 
 197:Generated_Source\PSoC5/cyfitter_cfg.c **** /* IOPINS0_6 Address: CYREG_PRT6_DR Size (bytes): 10 */
 198:Generated_Source\PSoC5/cyfitter_cfg.c **** #define BS_IOPINS0_6_VAL ((const uint8 CYFAR *)0x48001050u)
 199:Generated_Source\PSoC5/cyfitter_cfg.c **** 
 200:Generated_Source\PSoC5/cyfitter_cfg.c **** 
 201:Generated_Source\PSoC5/cyfitter_cfg.c **** /*******************************************************************************
 202:Generated_Source\PSoC5/cyfitter_cfg.c **** * Function Name: cfg_write_bytes32
 203:Generated_Source\PSoC5/cyfitter_cfg.c **** ********************************************************************************
 204:Generated_Source\PSoC5/cyfitter_cfg.c **** * Summary:
 205:Generated_Source\PSoC5/cyfitter_cfg.c **** *  This function is used for setting up the chip configuration areas that
 206:Generated_Source\PSoC5/cyfitter_cfg.c **** *  contain relatively sparse data.
 207:Generated_Source\PSoC5/cyfitter_cfg.c **** *
 208:Generated_Source\PSoC5/cyfitter_cfg.c **** * Parameters:
 209:Generated_Source\PSoC5/cyfitter_cfg.c **** *   void
 210:Generated_Source\PSoC5/cyfitter_cfg.c **** *
 211:Generated_Source\PSoC5/cyfitter_cfg.c **** * Return:
 212:Generated_Source\PSoC5/cyfitter_cfg.c **** *   void
 213:Generated_Source\PSoC5/cyfitter_cfg.c **** *
 214:Generated_Source\PSoC5/cyfitter_cfg.c **** *******************************************************************************/
 215:Generated_Source\PSoC5/cyfitter_cfg.c **** static void cfg_write_bytes32(const uint32 addr_table[], const cy_cfg_addrvalue_t data_table[]);
 216:Generated_Source\PSoC5/cyfitter_cfg.c **** static void cfg_write_bytes32(const uint32 addr_table[], const cy_cfg_addrvalue_t data_table[])
 217:Generated_Source\PSoC5/cyfitter_cfg.c **** {
  46              		.loc 1 217 0
  47              		.cfi_startproc
  48              		@ args = 0, pretend = 0, frame = 0
  49              		@ frame_needed = 0, uses_anonymous_args = 0
  50              		@ link register save eliminated.
  51              	.LVL1:
  52              		.loc 1 217 0
  53 0000 F0B4     		push	{r4, r5, r6, r7}
  54              		.cfi_def_cfa_offset 16
  55              		.cfi_offset 4, -16
  56              		.cfi_offset 5, -12
  57              		.cfi_offset 6, -8
  58              		.cfi_offset 7, -4
  59              	.LVL2:
 218:Generated_Source\PSoC5/cyfitter_cfg.c **** 	/* For 32-bit little-endian architectures */
 219:Generated_Source\PSoC5/cyfitter_cfg.c **** 	uint32 i, j = 0u;
  60              		.loc 1 219 0
  61 0002 0022     		movs	r2, #0
 220:Generated_Source\PSoC5/cyfitter_cfg.c **** 	for (i = 0u; i < CY_CFG_BASE_ADDR_COUNT; i++)
  62              		.loc 1 220 0
  63 0004 1746     		mov	r7, r2
  64 0006 11E0     		b	.L4
  65              	.LVL3:
ARM GAS  C:\Users\DGILLI~1\AppData\Local\Temp\cc6e1FdW.s 			page 6


  66              	.L7:
  67              	.LBB2:
 221:Generated_Source\PSoC5/cyfitter_cfg.c **** 	{
 222:Generated_Source\PSoC5/cyfitter_cfg.c **** 		uint32 baseAddr = addr_table[i];
  68              		.loc 1 222 0
  69 0008 50F82760 		ldr	r6, [r0, r7, lsl #2]
  70              	.LVL4:
 223:Generated_Source\PSoC5/cyfitter_cfg.c **** 		uint8 count = (uint8)baseAddr;
  71              		.loc 1 223 0
  72 000c F3B2     		uxtb	r3, r6
  73              	.LVL5:
 224:Generated_Source\PSoC5/cyfitter_cfg.c **** 		baseAddr &= 0xFFFFFF00u;
  74              		.loc 1 224 0
  75 000e 26F0FF06 		bic	r6, r6, #255
  76              	.LVL6:
 225:Generated_Source\PSoC5/cyfitter_cfg.c **** 		while (count != 0u)
  77              		.loc 1 225 0
  78 0012 08E0     		b	.L5
  79              	.L6:
 226:Generated_Source\PSoC5/cyfitter_cfg.c **** 		{
 227:Generated_Source\PSoC5/cyfitter_cfg.c **** 			CY_SET_REG8((void *)(baseAddr + data_table[j].offset), data_table[j].value);
  80              		.loc 1 227 0
  81 0014 01EB4205 		add	r5, r1, r2, lsl #1
  82 0018 11F81240 		ldrb	r4, [r1, r2, lsl #1]	@ zero_extendqisi2
  83 001c 6D78     		ldrb	r5, [r5, #1]	@ zero_extendqisi2
  84 001e A555     		strb	r5, [r4, r6]
 228:Generated_Source\PSoC5/cyfitter_cfg.c **** 			j++;
  85              		.loc 1 228 0
  86 0020 0132     		adds	r2, r2, #1
  87              	.LVL7:
 229:Generated_Source\PSoC5/cyfitter_cfg.c **** 			count--;
  88              		.loc 1 229 0
  89 0022 013B     		subs	r3, r3, #1
  90              	.LVL8:
  91 0024 DBB2     		uxtb	r3, r3
  92              	.LVL9:
  93              	.L5:
 225:Generated_Source\PSoC5/cyfitter_cfg.c **** 		{
  94              		.loc 1 225 0
  95 0026 002B     		cmp	r3, #0
  96 0028 F4D1     		bne	.L6
  97              	.LBE2:
 220:Generated_Source\PSoC5/cyfitter_cfg.c **** 	{
  98              		.loc 1 220 0 discriminator 2
  99 002a 0137     		adds	r7, r7, #1
 100              	.LVL10:
 101              	.L4:
 220:Generated_Source\PSoC5/cyfitter_cfg.c **** 	{
 102              		.loc 1 220 0 is_stmt 0 discriminator 1
 103 002c 282F     		cmp	r7, #40
 104 002e EBD9     		bls	.L7
 230:Generated_Source\PSoC5/cyfitter_cfg.c **** 		}
 231:Generated_Source\PSoC5/cyfitter_cfg.c **** 	}
 232:Generated_Source\PSoC5/cyfitter_cfg.c **** }
 105              		.loc 1 232 0 is_stmt 1
 106 0030 F0BC     		pop	{r4, r5, r6, r7}
 107              		.cfi_restore 7
ARM GAS  C:\Users\DGILLI~1\AppData\Local\Temp\cc6e1FdW.s 			page 7


 108              		.cfi_restore 6
 109              		.cfi_restore 5
 110              		.cfi_restore 4
 111              		.cfi_def_cfa_offset 0
 112              	.LVL11:
 113 0032 7047     		bx	lr
 114              		.cfi_endproc
 115              	.LFE4:
 116              		.size	cfg_write_bytes32, .-cfg_write_bytes32
 117              		.section	.text.AnalogSetDefault,"ax",%progbits
 118              		.align	2
 119              		.thumb
 120              		.thumb_func
 121              		.type	AnalogSetDefault, %function
 122              	AnalogSetDefault:
 123              	.LFB6:
 233:Generated_Source\PSoC5/cyfitter_cfg.c **** 
 234:Generated_Source\PSoC5/cyfitter_cfg.c **** /*******************************************************************************
 235:Generated_Source\PSoC5/cyfitter_cfg.c **** * Function Name: ClockSetup
 236:Generated_Source\PSoC5/cyfitter_cfg.c **** ********************************************************************************
 237:Generated_Source\PSoC5/cyfitter_cfg.c **** *
 238:Generated_Source\PSoC5/cyfitter_cfg.c **** * Summary:
 239:Generated_Source\PSoC5/cyfitter_cfg.c **** *  Performs the initialization of all of the clocks in the device based on the
 240:Generated_Source\PSoC5/cyfitter_cfg.c **** *  settings in the Clock tab of the DWR.  This includes enabling the requested
 241:Generated_Source\PSoC5/cyfitter_cfg.c **** *  clocks and setting the necessary dividers to produce the desired frequency. 
 242:Generated_Source\PSoC5/cyfitter_cfg.c **** *
 243:Generated_Source\PSoC5/cyfitter_cfg.c **** * Parameters:
 244:Generated_Source\PSoC5/cyfitter_cfg.c **** *  void
 245:Generated_Source\PSoC5/cyfitter_cfg.c **** *
 246:Generated_Source\PSoC5/cyfitter_cfg.c **** * Return:
 247:Generated_Source\PSoC5/cyfitter_cfg.c **** *  void
 248:Generated_Source\PSoC5/cyfitter_cfg.c **** *
 249:Generated_Source\PSoC5/cyfitter_cfg.c **** *******************************************************************************/
 250:Generated_Source\PSoC5/cyfitter_cfg.c **** static void ClockSetup(void);
 251:Generated_Source\PSoC5/cyfitter_cfg.c **** static void ClockSetup(void)
 252:Generated_Source\PSoC5/cyfitter_cfg.c **** {
 253:Generated_Source\PSoC5/cyfitter_cfg.c **** 	uint32 timeout;
 254:Generated_Source\PSoC5/cyfitter_cfg.c **** 	uint8 pllLock;
 255:Generated_Source\PSoC5/cyfitter_cfg.c **** 
 256:Generated_Source\PSoC5/cyfitter_cfg.c **** 
 257:Generated_Source\PSoC5/cyfitter_cfg.c **** 	/* Configure Digital Clocks based on settings from Clock DWR */
 258:Generated_Source\PSoC5/cyfitter_cfg.c **** 	CY_SET_XTND_REG16((void CYFAR *)(CYREG_CLKDIST_DCFG0_CFG0), 0x0000u);
 259:Generated_Source\PSoC5/cyfitter_cfg.c **** 	CY_SET_XTND_REG8((void CYFAR *)(CYREG_CLKDIST_DCFG0_CFG0 + 0x2u), 0x58u);
 260:Generated_Source\PSoC5/cyfitter_cfg.c **** 	CY_SET_XTND_REG16((void CYFAR *)(CYREG_CLKDIST_DCFG1_CFG0), 0x0009u);
 261:Generated_Source\PSoC5/cyfitter_cfg.c **** 	CY_SET_XTND_REG8((void CYFAR *)(CYREG_CLKDIST_DCFG1_CFG0 + 0x2u), 0x18u);
 262:Generated_Source\PSoC5/cyfitter_cfg.c **** 	CY_SET_XTND_REG16((void CYFAR *)(CYREG_CLKDIST_DCFG2_CFG0), 0x0040u);
 263:Generated_Source\PSoC5/cyfitter_cfg.c **** 	CY_SET_XTND_REG8((void CYFAR *)(CYREG_CLKDIST_DCFG2_CFG0 + 0x2u), 0x18u);
 264:Generated_Source\PSoC5/cyfitter_cfg.c **** 	CY_SET_XTND_REG16((void CYFAR *)(CYREG_CLKDIST_DCFG3_CFG0), 0x0095u);
 265:Generated_Source\PSoC5/cyfitter_cfg.c **** 	CY_SET_XTND_REG8((void CYFAR *)(CYREG_CLKDIST_DCFG3_CFG0 + 0x2u), 0x18u);
 266:Generated_Source\PSoC5/cyfitter_cfg.c **** 
 267:Generated_Source\PSoC5/cyfitter_cfg.c **** 	/* Configure ILO based on settings from Clock DWR */
 268:Generated_Source\PSoC5/cyfitter_cfg.c **** 	CY_SET_XTND_REG8((void CYFAR *)(CYREG_SLOWCLK_ILO_CR0), 0x06u);
 269:Generated_Source\PSoC5/cyfitter_cfg.c **** 
 270:Generated_Source\PSoC5/cyfitter_cfg.c **** 	/* Configure IMO based on settings from Clock DWR */
 271:Generated_Source\PSoC5/cyfitter_cfg.c **** 	CY_SET_XTND_REG8((void CYFAR *)(CYREG_FASTCLK_IMO_CR), 0x52u);
 272:Generated_Source\PSoC5/cyfitter_cfg.c **** 	CY_SET_XTND_REG8((void CYFAR *)(CYREG_IMO_TR1), (CY_GET_XTND_REG8((void CYFAR *)CYREG_FLSHID_CUST_
 273:Generated_Source\PSoC5/cyfitter_cfg.c **** 
ARM GAS  C:\Users\DGILLI~1\AppData\Local\Temp\cc6e1FdW.s 			page 8


 274:Generated_Source\PSoC5/cyfitter_cfg.c **** 	/* Configure PLL based on settings from Clock DWR */
 275:Generated_Source\PSoC5/cyfitter_cfg.c **** 	CY_SET_XTND_REG16((void CYFAR *)(CYREG_FASTCLK_PLL_P), 0x0714u);
 276:Generated_Source\PSoC5/cyfitter_cfg.c **** 	CY_SET_XTND_REG16((void CYFAR *)(CYREG_FASTCLK_PLL_CFG0), 0x1251u);
 277:Generated_Source\PSoC5/cyfitter_cfg.c **** 	/* Wait up to 250us for the PLL to lock */
 278:Generated_Source\PSoC5/cyfitter_cfg.c **** 	pllLock = 0u;
 279:Generated_Source\PSoC5/cyfitter_cfg.c **** 	for (timeout = 250u / 10u; (timeout > 0u) && (pllLock != 0x03u); timeout--)
 280:Generated_Source\PSoC5/cyfitter_cfg.c **** 	{ 
 281:Generated_Source\PSoC5/cyfitter_cfg.c **** 		pllLock = 0x03u & ((uint8)((uint8)pllLock << 1) | ((CY_GET_XTND_REG8((void CYFAR *)CYREG_FASTCLK_
 282:Generated_Source\PSoC5/cyfitter_cfg.c **** 		CyDelayCycles(10u * 48u); /* Delay 10us based on 48MHz clock */
 283:Generated_Source\PSoC5/cyfitter_cfg.c **** 	}
 284:Generated_Source\PSoC5/cyfitter_cfg.c **** 	/* If we ran out of time the PLL didn't lock so go to the error function */
 285:Generated_Source\PSoC5/cyfitter_cfg.c **** 	if (timeout == 0u)
 286:Generated_Source\PSoC5/cyfitter_cfg.c **** 	{
 287:Generated_Source\PSoC5/cyfitter_cfg.c **** 		CyClockStartupError(CYCLOCKSTART_PLL_ERROR);
 288:Generated_Source\PSoC5/cyfitter_cfg.c **** 	}
 289:Generated_Source\PSoC5/cyfitter_cfg.c **** 
 290:Generated_Source\PSoC5/cyfitter_cfg.c **** 	/* Configure Bus/Master Clock based on settings from Clock DWR */
 291:Generated_Source\PSoC5/cyfitter_cfg.c **** 	CY_SET_XTND_REG16((void CYFAR *)(CYREG_CLKDIST_MSTR0), 0x0100u);
 292:Generated_Source\PSoC5/cyfitter_cfg.c **** 	CY_SET_XTND_REG8((void CYFAR *)(CYREG_CLKDIST_MSTR0), 0x07u);
 293:Generated_Source\PSoC5/cyfitter_cfg.c **** 	CY_SET_XTND_REG8((void CYFAR *)(CYREG_CLKDIST_BCFG0), 0x00u);
 294:Generated_Source\PSoC5/cyfitter_cfg.c **** 	CY_SET_XTND_REG8((void CYFAR *)(CYREG_CLKDIST_BCFG2), 0x48u);
 295:Generated_Source\PSoC5/cyfitter_cfg.c **** 	CY_SET_XTND_REG8((void CYFAR *)(CYREG_CLKDIST_MSTR0), 0x00u);
 296:Generated_Source\PSoC5/cyfitter_cfg.c **** 
 297:Generated_Source\PSoC5/cyfitter_cfg.c **** 	/* Configure USB Clock based on settings from Clock DWR */
 298:Generated_Source\PSoC5/cyfitter_cfg.c **** 	CY_SET_XTND_REG8((void CYFAR *)(CYREG_CLKDIST_UCFG), 0x00u);
 299:Generated_Source\PSoC5/cyfitter_cfg.c **** 	CY_SET_XTND_REG8((void CYFAR *)(CYREG_CLKDIST_LD), 0x02u);
 300:Generated_Source\PSoC5/cyfitter_cfg.c **** 
 301:Generated_Source\PSoC5/cyfitter_cfg.c **** 	CY_SET_XTND_REG8((void CYFAR *)(CYREG_PM_ACT_CFG2), ((CY_GET_XTND_REG8((void CYFAR *)CYREG_PM_ACT_
 302:Generated_Source\PSoC5/cyfitter_cfg.c **** }
 303:Generated_Source\PSoC5/cyfitter_cfg.c **** 
 304:Generated_Source\PSoC5/cyfitter_cfg.c **** 
 305:Generated_Source\PSoC5/cyfitter_cfg.c **** /* Analog API Functions */
 306:Generated_Source\PSoC5/cyfitter_cfg.c **** 
 307:Generated_Source\PSoC5/cyfitter_cfg.c **** 
 308:Generated_Source\PSoC5/cyfitter_cfg.c **** /*******************************************************************************
 309:Generated_Source\PSoC5/cyfitter_cfg.c **** * Function Name: AnalogSetDefault
 310:Generated_Source\PSoC5/cyfitter_cfg.c **** ********************************************************************************
 311:Generated_Source\PSoC5/cyfitter_cfg.c **** *
 312:Generated_Source\PSoC5/cyfitter_cfg.c **** * Summary:
 313:Generated_Source\PSoC5/cyfitter_cfg.c **** *  Sets up the analog portions of the chip to default values based on chip
 314:Generated_Source\PSoC5/cyfitter_cfg.c **** *  configuration options from the project.
 315:Generated_Source\PSoC5/cyfitter_cfg.c **** *
 316:Generated_Source\PSoC5/cyfitter_cfg.c **** * Parameters:
 317:Generated_Source\PSoC5/cyfitter_cfg.c **** *  void
 318:Generated_Source\PSoC5/cyfitter_cfg.c **** *
 319:Generated_Source\PSoC5/cyfitter_cfg.c **** * Return:
 320:Generated_Source\PSoC5/cyfitter_cfg.c **** *  void
 321:Generated_Source\PSoC5/cyfitter_cfg.c **** *
 322:Generated_Source\PSoC5/cyfitter_cfg.c **** *******************************************************************************/
 323:Generated_Source\PSoC5/cyfitter_cfg.c **** static void AnalogSetDefault(void);
 324:Generated_Source\PSoC5/cyfitter_cfg.c **** static void AnalogSetDefault(void)
 325:Generated_Source\PSoC5/cyfitter_cfg.c **** {
 124              		.loc 1 325 0
 125              		.cfi_startproc
 126              		@ args = 0, pretend = 0, frame = 0
 127              		@ frame_needed = 0, uses_anonymous_args = 0
 128              		@ link register save eliminated.
ARM GAS  C:\Users\DGILLI~1\AppData\Local\Temp\cc6e1FdW.s 			page 9


 326:Generated_Source\PSoC5/cyfitter_cfg.c **** 	uint8 bg_xover_inl_trim = CY_GET_XTND_REG8((void CYFAR *)(CYREG_FLSHID_MFG_CFG_BG_XOVER_INL_TRIM +
 129              		.loc 1 326 0
 130 0000 0A4B     		ldr	r3, .L10
 131 0002 1B78     		ldrb	r3, [r3]	@ zero_extendqisi2
 132 0004 DBB2     		uxtb	r3, r3
 133              	.LVL12:
 327:Generated_Source\PSoC5/cyfitter_cfg.c **** 	CY_SET_XTND_REG8((void CYFAR *)(CYREG_BG_DFT0), (bg_xover_inl_trim & 0x07u));
 134              		.loc 1 327 0
 135 0006 03F00701 		and	r1, r3, #7
 136 000a 094A     		ldr	r2, .L10+4
 137 000c 1170     		strb	r1, [r2]
 328:Generated_Source\PSoC5/cyfitter_cfg.c **** 	CY_SET_XTND_REG8((void CYFAR *)(CYREG_BG_DFT1), ((bg_xover_inl_trim >> 4) & 0x0Fu));
 138              		.loc 1 328 0
 139 000e 1B09     		lsrs	r3, r3, #4
 140              	.LVL13:
 141 0010 0132     		adds	r2, r2, #1
 142 0012 1370     		strb	r3, [r2]
 329:Generated_Source\PSoC5/cyfitter_cfg.c **** 	CY_SET_XTND_REG8((void CYFAR *)CYREG_PRT15_AG, 0x20u);
 143              		.loc 1 329 0
 144 0014 2022     		movs	r2, #32
 145 0016 074B     		ldr	r3, .L10+8
 146 0018 1A70     		strb	r2, [r3]
 330:Generated_Source\PSoC5/cyfitter_cfg.c **** 	CY_SET_XTND_REG8((void CYFAR *)CYREG_DAC0_SW0, 0x02u);
 147              		.loc 1 330 0
 148 001a 0222     		movs	r2, #2
 149 001c 03F68303 		addw	r3, r3, #2179
 150 0020 1A70     		strb	r2, [r3]
 331:Generated_Source\PSoC5/cyfitter_cfg.c **** 	CY_SET_XTND_REG8((void CYFAR *)CYREG_PUMP_CR0, 0x44u);
 151              		.loc 1 331 0
 152 0022 4422     		movs	r2, #68
 153 0024 A3F20A23 		subw	r3, r3, #522
 154 0028 1A70     		strb	r2, [r3]
 155 002a 7047     		bx	lr
 156              	.L11:
 157              		.align	2
 158              	.L10:
 159 002c CF010049 		.word	1224737231
 160 0030 6E580040 		.word	1073764462
 161 0034 FD510040 		.word	1073762813
 162              		.cfi_endproc
 163              	.LFE6:
 164              		.size	AnalogSetDefault, .-AnalogSetDefault
 165              		.section	.text.ClockSetup,"ax",%progbits
 166              		.align	2
 167              		.thumb
 168              		.thumb_func
 169              		.type	ClockSetup, %function
 170              	ClockSetup:
 171              	.LFB5:
 252:Generated_Source\PSoC5/cyfitter_cfg.c **** 	uint32 timeout;
 172              		.loc 1 252 0
 173              		.cfi_startproc
 174              		@ args = 0, pretend = 0, frame = 0
 175              		@ frame_needed = 0, uses_anonymous_args = 0
 176 0000 38B5     		push	{r3, r4, r5, lr}
 177              		.cfi_def_cfa_offset 16
 178              		.cfi_offset 3, -16
ARM GAS  C:\Users\DGILLI~1\AppData\Local\Temp\cc6e1FdW.s 			page 10


 179              		.cfi_offset 4, -12
 180              		.cfi_offset 5, -8
 181              		.cfi_offset 14, -4
 258:Generated_Source\PSoC5/cyfitter_cfg.c **** 	CY_SET_XTND_REG8((void CYFAR *)(CYREG_CLKDIST_DCFG0_CFG0 + 0x2u), 0x58u);
 182              		.loc 1 258 0
 183 0002 0024     		movs	r4, #0
 184 0004 2B4B     		ldr	r3, .L18
 185 0006 1C80     		strh	r4, [r3]	@ movhi
 259:Generated_Source\PSoC5/cyfitter_cfg.c **** 	CY_SET_XTND_REG16((void CYFAR *)(CYREG_CLKDIST_DCFG1_CFG0), 0x0009u);
 186              		.loc 1 259 0
 187 0008 5822     		movs	r2, #88
 188 000a 0233     		adds	r3, r3, #2
 189 000c 1A70     		strb	r2, [r3]
 260:Generated_Source\PSoC5/cyfitter_cfg.c **** 	CY_SET_XTND_REG8((void CYFAR *)(CYREG_CLKDIST_DCFG1_CFG0 + 0x2u), 0x18u);
 190              		.loc 1 260 0
 191 000e 0922     		movs	r2, #9
 192 0010 0233     		adds	r3, r3, #2
 193 0012 1A80     		strh	r2, [r3]	@ movhi
 261:Generated_Source\PSoC5/cyfitter_cfg.c **** 	CY_SET_XTND_REG16((void CYFAR *)(CYREG_CLKDIST_DCFG2_CFG0), 0x0040u);
 194              		.loc 1 261 0
 195 0014 1823     		movs	r3, #24
 196 0016 284A     		ldr	r2, .L18+4
 197 0018 1370     		strb	r3, [r2]
 262:Generated_Source\PSoC5/cyfitter_cfg.c **** 	CY_SET_XTND_REG8((void CYFAR *)(CYREG_CLKDIST_DCFG2_CFG0 + 0x2u), 0x18u);
 198              		.loc 1 262 0
 199 001a 4021     		movs	r1, #64
 200 001c 0232     		adds	r2, r2, #2
 201 001e 1180     		strh	r1, [r2]	@ movhi
 263:Generated_Source\PSoC5/cyfitter_cfg.c **** 	CY_SET_XTND_REG16((void CYFAR *)(CYREG_CLKDIST_DCFG3_CFG0), 0x0095u);
 202              		.loc 1 263 0
 203 0020 0232     		adds	r2, r2, #2
 204 0022 1370     		strb	r3, [r2]
 264:Generated_Source\PSoC5/cyfitter_cfg.c **** 	CY_SET_XTND_REG8((void CYFAR *)(CYREG_CLKDIST_DCFG3_CFG0 + 0x2u), 0x18u);
 205              		.loc 1 264 0
 206 0024 9521     		movs	r1, #149
 207 0026 0232     		adds	r2, r2, #2
 208 0028 1180     		strh	r1, [r2]	@ movhi
 265:Generated_Source\PSoC5/cyfitter_cfg.c **** 
 209              		.loc 1 265 0
 210 002a 0232     		adds	r2, r2, #2
 211 002c 1370     		strb	r3, [r2]
 268:Generated_Source\PSoC5/cyfitter_cfg.c **** 
 212              		.loc 1 268 0
 213 002e 0622     		movs	r2, #6
 214 0030 224B     		ldr	r3, .L18+8
 215 0032 1A70     		strb	r2, [r3]
 271:Generated_Source\PSoC5/cyfitter_cfg.c **** 	CY_SET_XTND_REG8((void CYFAR *)(CYREG_IMO_TR1), (CY_GET_XTND_REG8((void CYFAR *)CYREG_FLSHID_CUST_
 216              		.loc 1 271 0
 217 0034 5222     		movs	r2, #82
 218 0036 A3F58073 		sub	r3, r3, #256
 219 003a 1A70     		strb	r2, [r3]
 272:Generated_Source\PSoC5/cyfitter_cfg.c **** 
 220              		.loc 1 272 0
 221 003c 204B     		ldr	r3, .L18+12
 222 003e 1B78     		ldrb	r3, [r3]	@ zero_extendqisi2
 223 0040 DBB2     		uxtb	r3, r3
 224 0042 204A     		ldr	r2, .L18+16
ARM GAS  C:\Users\DGILLI~1\AppData\Local\Temp\cc6e1FdW.s 			page 11


 225 0044 1370     		strb	r3, [r2]
 275:Generated_Source\PSoC5/cyfitter_cfg.c **** 	CY_SET_XTND_REG16((void CYFAR *)(CYREG_FASTCLK_PLL_CFG0), 0x1251u);
 226              		.loc 1 275 0
 227 0046 40F21472 		movw	r2, #1812
 228 004a 1F4B     		ldr	r3, .L18+20
 229 004c 1A80     		strh	r2, [r3]	@ movhi
 276:Generated_Source\PSoC5/cyfitter_cfg.c **** 	/* Wait up to 250us for the PLL to lock */
 230              		.loc 1 276 0
 231 004e 41F25122 		movw	r2, #4689
 232 0052 023B     		subs	r3, r3, #2
 233 0054 1A80     		strh	r2, [r3]	@ movhi
 234              	.LVL14:
 279:Generated_Source\PSoC5/cyfitter_cfg.c **** 	{ 
 235              		.loc 1 279 0
 236 0056 1925     		movs	r5, #25
 237 0058 0CE0     		b	.L13
 238              	.LVL15:
 239              	.L15:
 281:Generated_Source\PSoC5/cyfitter_cfg.c **** 		CyDelayCycles(10u * 48u); /* Delay 10us based on 48MHz clock */
 240              		.loc 1 281 0 discriminator 4
 241 005a 1C4B     		ldr	r3, .L18+24
 242 005c 1B78     		ldrb	r3, [r3]	@ zero_extendqisi2
 243 005e 03F00103 		and	r3, r3, #1
 244 0062 43EA4404 		orr	r4, r3, r4, lsl #1
 245              	.LVL16:
 246 0066 04F00304 		and	r4, r4, #3
 247              	.LVL17:
 282:Generated_Source\PSoC5/cyfitter_cfg.c **** 	}
 248              		.loc 1 282 0 discriminator 4
 249 006a 4FF4F070 		mov	r0, #480
 250 006e FFF7FEFF 		bl	CyDelayCycles
 251              	.LVL18:
 279:Generated_Source\PSoC5/cyfitter_cfg.c **** 	{ 
 252              		.loc 1 279 0 discriminator 4
 253 0072 013D     		subs	r5, r5, #1
 254              	.LVL19:
 255              	.L13:
 279:Generated_Source\PSoC5/cyfitter_cfg.c **** 	{ 
 256              		.loc 1 279 0 is_stmt 0 discriminator 1
 257 0074 0DB1     		cbz	r5, .L14
 279:Generated_Source\PSoC5/cyfitter_cfg.c **** 	{ 
 258              		.loc 1 279 0 discriminator 3
 259 0076 032C     		cmp	r4, #3
 260 0078 EFD1     		bne	.L15
 261              	.L14:
 285:Generated_Source\PSoC5/cyfitter_cfg.c **** 	{
 262              		.loc 1 285 0 is_stmt 1
 263 007a 15B9     		cbnz	r5, .L16
 287:Generated_Source\PSoC5/cyfitter_cfg.c **** 	}
 264              		.loc 1 287 0
 265 007c 0320     		movs	r0, #3
 266 007e FFF7FEFF 		bl	CyClockStartupError
 267              	.LVL20:
 268              	.L16:
 291:Generated_Source\PSoC5/cyfitter_cfg.c **** 	CY_SET_XTND_REG8((void CYFAR *)(CYREG_CLKDIST_MSTR0), 0x07u);
 269              		.loc 1 291 0
 270 0082 134A     		ldr	r2, .L18+28
ARM GAS  C:\Users\DGILLI~1\AppData\Local\Temp\cc6e1FdW.s 			page 12


 271 0084 4FF48073 		mov	r3, #256
 272 0088 1380     		strh	r3, [r2]	@ movhi
 292:Generated_Source\PSoC5/cyfitter_cfg.c **** 	CY_SET_XTND_REG8((void CYFAR *)(CYREG_CLKDIST_BCFG0), 0x00u);
 273              		.loc 1 292 0
 274 008a 0723     		movs	r3, #7
 275 008c 1370     		strb	r3, [r2]
 293:Generated_Source\PSoC5/cyfitter_cfg.c **** 	CY_SET_XTND_REG8((void CYFAR *)(CYREG_CLKDIST_BCFG2), 0x48u);
 276              		.loc 1 293 0
 277 008e 0023     		movs	r3, #0
 278 0090 1049     		ldr	r1, .L18+32
 279 0092 0B70     		strb	r3, [r1]
 294:Generated_Source\PSoC5/cyfitter_cfg.c **** 	CY_SET_XTND_REG8((void CYFAR *)(CYREG_CLKDIST_MSTR0), 0x00u);
 280              		.loc 1 294 0
 281 0094 4820     		movs	r0, #72
 282 0096 0231     		adds	r1, r1, #2
 283 0098 0870     		strb	r0, [r1]
 295:Generated_Source\PSoC5/cyfitter_cfg.c **** 
 284              		.loc 1 295 0
 285 009a 1370     		strb	r3, [r2]
 298:Generated_Source\PSoC5/cyfitter_cfg.c **** 	CY_SET_XTND_REG8((void CYFAR *)(CYREG_CLKDIST_LD), 0x02u);
 286              		.loc 1 298 0
 287 009c 0532     		adds	r2, r2, #5
 288 009e 1370     		strb	r3, [r2]
 299:Generated_Source\PSoC5/cyfitter_cfg.c **** 
 289              		.loc 1 299 0
 290 00a0 0222     		movs	r2, #2
 291 00a2 0D4B     		ldr	r3, .L18+36
 292 00a4 1A70     		strb	r2, [r3]
 301:Generated_Source\PSoC5/cyfitter_cfg.c **** }
 293              		.loc 1 301 0
 294 00a6 0D4A     		ldr	r2, .L18+40
 295 00a8 1378     		ldrb	r3, [r2]	@ zero_extendqisi2
 296 00aa 43F00F03 		orr	r3, r3, #15
 297 00ae 1370     		strb	r3, [r2]
 298 00b0 38BD     		pop	{r3, r4, r5, pc}
 299              	.LVL21:
 300              	.L19:
 301 00b2 00BF     		.align	2
 302              	.L18:
 303 00b4 80400040 		.word	1073758336
 304 00b8 86400040 		.word	1073758342
 305 00bc 00430040 		.word	1073758976
 306 00c0 0F010049 		.word	1224737039
 307 00c4 A1460040 		.word	1073759905
 308 00c8 22420040 		.word	1073758754
 309 00cc 25420040 		.word	1073758757
 310 00d0 04400040 		.word	1073758212
 311 00d4 06400040 		.word	1073758214
 312 00d8 01400040 		.word	1073758209
 313 00dc A2430040 		.word	1073759138
 314              		.cfi_endproc
 315              	.LFE5:
 316              		.size	ClockSetup, .-ClockSetup
 317              		.section	.text.CYMEMZERO,"ax",%progbits
 318              		.align	2
 319              		.thumb
 320              		.thumb_func
ARM GAS  C:\Users\DGILLI~1\AppData\Local\Temp\cc6e1FdW.s 			page 13


 321              		.type	CYMEMZERO, %function
 322              	CYMEMZERO:
 323              	.LFB0:
  78:Generated_Source\PSoC5/cyfitter_cfg.c **** 	(void)memset(s, 0, n);
 324              		.loc 1 78 0
 325              		.cfi_startproc
 326              		@ args = 0, pretend = 0, frame = 0
 327              		@ frame_needed = 0, uses_anonymous_args = 0
 328              	.LVL22:
 329 0000 08B5     		push	{r3, lr}
 330              		.cfi_def_cfa_offset 8
 331              		.cfi_offset 3, -8
 332              		.cfi_offset 14, -4
  79:Generated_Source\PSoC5/cyfitter_cfg.c **** }
 333              		.loc 1 79 0
 334 0002 0A46     		mov	r2, r1
 335 0004 0021     		movs	r1, #0
 336              	.LVL23:
 337 0006 FFF7FEFF 		bl	memset
 338              	.LVL24:
 339 000a 08BD     		pop	{r3, pc}
 340              		.cfi_endproc
 341              	.LFE0:
 342              		.size	CYMEMZERO, .-CYMEMZERO
 343              		.section	.text.CYCONFIGCPY,"ax",%progbits
 344              		.align	2
 345              		.thumb
 346              		.thumb_func
 347              		.type	CYCONFIGCPY, %function
 348              	CYCONFIGCPY:
 349              	.LFB1:
  85:Generated_Source\PSoC5/cyfitter_cfg.c **** 	(void)memcpy(dest, src, n);
 350              		.loc 1 85 0
 351              		.cfi_startproc
 352              		@ args = 0, pretend = 0, frame = 0
 353              		@ frame_needed = 0, uses_anonymous_args = 0
 354              	.LVL25:
 355 0000 08B5     		push	{r3, lr}
 356              		.cfi_def_cfa_offset 8
 357              		.cfi_offset 3, -8
 358              		.cfi_offset 14, -4
  86:Generated_Source\PSoC5/cyfitter_cfg.c **** }
 359              		.loc 1 86 0
 360 0002 FFF7FEFF 		bl	memcpy
 361              	.LVL26:
 362 0006 08BD     		pop	{r3, pc}
 363              		.cfi_endproc
 364              	.LFE1:
 365              		.size	CYCONFIGCPY, .-CYCONFIGCPY
 366              		.section	.text.SetAnalogRoutingPumps,"ax",%progbits
 367              		.align	2
 368              		.global	SetAnalogRoutingPumps
 369              		.thumb
 370              		.thumb_func
 371              		.type	SetAnalogRoutingPumps, %function
 372              	SetAnalogRoutingPumps:
 373              	.LFB7:
ARM GAS  C:\Users\DGILLI~1\AppData\Local\Temp\cc6e1FdW.s 			page 14


 332:Generated_Source\PSoC5/cyfitter_cfg.c **** }
 333:Generated_Source\PSoC5/cyfitter_cfg.c **** 
 334:Generated_Source\PSoC5/cyfitter_cfg.c **** 
 335:Generated_Source\PSoC5/cyfitter_cfg.c **** /*******************************************************************************
 336:Generated_Source\PSoC5/cyfitter_cfg.c **** * Function Name: SetAnalogRoutingPumps
 337:Generated_Source\PSoC5/cyfitter_cfg.c **** ********************************************************************************
 338:Generated_Source\PSoC5/cyfitter_cfg.c **** *
 339:Generated_Source\PSoC5/cyfitter_cfg.c **** * Summary:
 340:Generated_Source\PSoC5/cyfitter_cfg.c **** * Enables or disables the analog pumps feeding analog routing switches.
 341:Generated_Source\PSoC5/cyfitter_cfg.c **** * Intended to be called at startup, based on the Vdda system configuration;
 342:Generated_Source\PSoC5/cyfitter_cfg.c **** * may be called during operation when the user informs us that the Vdda voltage
 343:Generated_Source\PSoC5/cyfitter_cfg.c **** * crossed the pump threshold.
 344:Generated_Source\PSoC5/cyfitter_cfg.c **** *
 345:Generated_Source\PSoC5/cyfitter_cfg.c **** * Parameters:
 346:Generated_Source\PSoC5/cyfitter_cfg.c **** *  enabled - 1 to enable the pumps, 0 to disable the pumps
 347:Generated_Source\PSoC5/cyfitter_cfg.c **** *
 348:Generated_Source\PSoC5/cyfitter_cfg.c **** * Return:
 349:Generated_Source\PSoC5/cyfitter_cfg.c **** *  void
 350:Generated_Source\PSoC5/cyfitter_cfg.c **** *
 351:Generated_Source\PSoC5/cyfitter_cfg.c **** *******************************************************************************/
 352:Generated_Source\PSoC5/cyfitter_cfg.c **** void SetAnalogRoutingPumps(uint8 enabled)
 353:Generated_Source\PSoC5/cyfitter_cfg.c **** {
 374              		.loc 1 353 0
 375              		.cfi_startproc
 376              		@ args = 0, pretend = 0, frame = 0
 377              		@ frame_needed = 0, uses_anonymous_args = 0
 378              		@ link register save eliminated.
 379              	.LVL27:
 354:Generated_Source\PSoC5/cyfitter_cfg.c **** 	uint8 regValue = CY_GET_XTND_REG8((void CYFAR *)CYREG_PUMP_CR0);
 380              		.loc 1 354 0
 381 0000 054B     		ldr	r3, .L27
 382 0002 1B78     		ldrb	r3, [r3]	@ zero_extendqisi2
 383 0004 DBB2     		uxtb	r3, r3
 384              	.LVL28:
 355:Generated_Source\PSoC5/cyfitter_cfg.c **** 	if (enabled != 0u)
 385              		.loc 1 355 0
 386 0006 10B1     		cbz	r0, .L25
 356:Generated_Source\PSoC5/cyfitter_cfg.c **** 	{
 357:Generated_Source\PSoC5/cyfitter_cfg.c **** 		regValue |= 0x22u;
 387              		.loc 1 357 0
 388 0008 43F02203 		orr	r3, r3, #34
 389              	.LVL29:
 390 000c 01E0     		b	.L26
 391              	.L25:
 358:Generated_Source\PSoC5/cyfitter_cfg.c **** 	}
 359:Generated_Source\PSoC5/cyfitter_cfg.c **** 	else
 360:Generated_Source\PSoC5/cyfitter_cfg.c **** 	{
 361:Generated_Source\PSoC5/cyfitter_cfg.c **** 		regValue &= (uint8)~0x22u;
 392              		.loc 1 361 0
 393 000e 03F0DD03 		and	r3, r3, #221
 394              	.LVL30:
 395              	.L26:
 362:Generated_Source\PSoC5/cyfitter_cfg.c **** 	}
 363:Generated_Source\PSoC5/cyfitter_cfg.c **** 	CY_SET_XTND_REG8((void CYFAR *)CYREG_PUMP_CR0, regValue);
 396              		.loc 1 363 0
 397 0012 014A     		ldr	r2, .L27
 398 0014 1370     		strb	r3, [r2]
ARM GAS  C:\Users\DGILLI~1\AppData\Local\Temp\cc6e1FdW.s 			page 15


 399 0016 7047     		bx	lr
 400              	.L28:
 401              		.align	2
 402              	.L27:
 403 0018 76580040 		.word	1073764470
 404              		.cfi_endproc
 405              	.LFE7:
 406              		.size	SetAnalogRoutingPumps, .-SetAnalogRoutingPumps
 407              		.section	.text.cyfitter_cfg,"ax",%progbits
 408              		.align	2
 409              		.global	cyfitter_cfg
 410              		.thumb
 411              		.thumb_func
 412              		.type	cyfitter_cfg, %function
 413              	cyfitter_cfg:
 414              	.LFB8:
 364:Generated_Source\PSoC5/cyfitter_cfg.c **** }
 365:Generated_Source\PSoC5/cyfitter_cfg.c **** 
 366:Generated_Source\PSoC5/cyfitter_cfg.c **** 
 367:Generated_Source\PSoC5/cyfitter_cfg.c **** 
 368:Generated_Source\PSoC5/cyfitter_cfg.c **** 
 369:Generated_Source\PSoC5/cyfitter_cfg.c **** /*******************************************************************************
 370:Generated_Source\PSoC5/cyfitter_cfg.c **** * Function Name: cyfitter_cfg
 371:Generated_Source\PSoC5/cyfitter_cfg.c **** ********************************************************************************
 372:Generated_Source\PSoC5/cyfitter_cfg.c **** * Summary:
 373:Generated_Source\PSoC5/cyfitter_cfg.c **** *  This function is called by the start-up code for the selected device. It
 374:Generated_Source\PSoC5/cyfitter_cfg.c **** *  performs all of the necessary device configuration based on the design
 375:Generated_Source\PSoC5/cyfitter_cfg.c **** *  settings.  This includes settings from the Design Wide Resources (DWR) such
 376:Generated_Source\PSoC5/cyfitter_cfg.c **** *  as Clocks and Pins as well as any component configuration that is necessary.
 377:Generated_Source\PSoC5/cyfitter_cfg.c **** *
 378:Generated_Source\PSoC5/cyfitter_cfg.c **** * Parameters:
 379:Generated_Source\PSoC5/cyfitter_cfg.c **** *   void
 380:Generated_Source\PSoC5/cyfitter_cfg.c **** *
 381:Generated_Source\PSoC5/cyfitter_cfg.c **** * Return:
 382:Generated_Source\PSoC5/cyfitter_cfg.c **** *   void
 383:Generated_Source\PSoC5/cyfitter_cfg.c **** *
 384:Generated_Source\PSoC5/cyfitter_cfg.c **** *******************************************************************************/
 385:Generated_Source\PSoC5/cyfitter_cfg.c **** 
 386:Generated_Source\PSoC5/cyfitter_cfg.c **** void cyfitter_cfg(void)
 387:Generated_Source\PSoC5/cyfitter_cfg.c **** {
 415              		.loc 1 387 0
 416              		.cfi_startproc
 417              		@ args = 0, pretend = 0, frame = 0
 418              		@ frame_needed = 0, uses_anonymous_args = 0
 419 0000 38B5     		push	{r3, r4, r5, lr}
 420              		.cfi_def_cfa_offset 16
 421              		.cfi_offset 3, -16
 422              		.cfi_offset 4, -12
 423              		.cfi_offset 5, -8
 424              		.cfi_offset 14, -4
 388:Generated_Source\PSoC5/cyfitter_cfg.c **** #ifdef CYGlobalIntDisable
 389:Generated_Source\PSoC5/cyfitter_cfg.c **** 	/* Disable interrupts by default. Let user enable if/when they want. */
 390:Generated_Source\PSoC5/cyfitter_cfg.c **** 	CYGlobalIntDisable
 425              		.loc 1 390 0
 426              		.syntax unified
 427              	@ 390 "Generated_Source\PSoC5\cyfitter_cfg.c" 1
 428 0002 72B6     		CPSID   i
ARM GAS  C:\Users\DGILLI~1\AppData\Local\Temp\cc6e1FdW.s 			page 16


 429              	@ 0 "" 2
 391:Generated_Source\PSoC5/cyfitter_cfg.c **** #endif
 392:Generated_Source\PSoC5/cyfitter_cfg.c **** 
 393:Generated_Source\PSoC5/cyfitter_cfg.c **** 
 394:Generated_Source\PSoC5/cyfitter_cfg.c **** 	/* Set Flash Cycles based on max possible frequency in case a glitch occurs during ClockSetup(). *
 395:Generated_Source\PSoC5/cyfitter_cfg.c **** 	CY_SET_XTND_REG8((void CYFAR *)(CYREG_CACHE_CC_CTL), (((CYDEV_INSTRUCT_CACHE_ENABLED) != 0) ? 0x61
 430              		.loc 1 395 0
 431              		.thumb
 432              		.syntax unified
 433 0004 404C     		ldr	r4, .L35
 434 0006 6123     		movs	r3, #97
 435 0008 2370     		strb	r3, [r4]
 396:Generated_Source\PSoC5/cyfitter_cfg.c **** 	/* Setup clocks based on selections from Clock DWR */
 397:Generated_Source\PSoC5/cyfitter_cfg.c **** 	ClockSetup();
 436              		.loc 1 397 0
 437 000a FFF7FEFF 		bl	ClockSetup
 438              	.LVL31:
 398:Generated_Source\PSoC5/cyfitter_cfg.c **** 	/* Set Flash Cycles based on newly configured 60.00MHz Bus Clock. */
 399:Generated_Source\PSoC5/cyfitter_cfg.c **** 	CY_SET_XTND_REG8((void CYFAR *)(CYREG_CACHE_CC_CTL), (((CYDEV_INSTRUCT_CACHE_ENABLED) != 0) ? 0x01
 439              		.loc 1 399 0
 440 000e 0123     		movs	r3, #1
 441 0010 2370     		strb	r3, [r4]
 400:Generated_Source\PSoC5/cyfitter_cfg.c **** 	/* Enable/Disable Debug functionality based on settings from System DWR */
 401:Generated_Source\PSoC5/cyfitter_cfg.c **** 	CY_SET_XTND_REG8((void CYFAR *)CYREG_MLOGIC_DEBUG, (CY_GET_XTND_REG8((void CYFAR *)CYREG_MLOGIC_DE
 442              		.loc 1 401 0
 443 0012 3E4A     		ldr	r2, .L35+4
 444 0014 1378     		ldrb	r3, [r2]	@ zero_extendqisi2
 445 0016 43F00403 		orr	r3, r3, #4
 446 001a 1370     		strb	r3, [r2]
 447              	.LVL32:
 448              	.LBB3:
 402:Generated_Source\PSoC5/cyfitter_cfg.c **** 
 403:Generated_Source\PSoC5/cyfitter_cfg.c **** 	{
 404:Generated_Source\PSoC5/cyfitter_cfg.c **** 
 405:Generated_Source\PSoC5/cyfitter_cfg.c **** 		CYPACKED typedef struct {
 406:Generated_Source\PSoC5/cyfitter_cfg.c **** 			void CYFAR *address;
 407:Generated_Source\PSoC5/cyfitter_cfg.c **** 			uint16 size;
 408:Generated_Source\PSoC5/cyfitter_cfg.c **** 		} CYPACKED_ATTR cfg_memset_t;
 409:Generated_Source\PSoC5/cyfitter_cfg.c **** 
 410:Generated_Source\PSoC5/cyfitter_cfg.c **** 
 411:Generated_Source\PSoC5/cyfitter_cfg.c **** 		CYPACKED typedef struct {
 412:Generated_Source\PSoC5/cyfitter_cfg.c **** 			void CYFAR *dest;
 413:Generated_Source\PSoC5/cyfitter_cfg.c **** 			const void CYFAR *src;
 414:Generated_Source\PSoC5/cyfitter_cfg.c **** 			uint16 size;
 415:Generated_Source\PSoC5/cyfitter_cfg.c **** 		} CYPACKED_ATTR cfg_memcpy_t;
 416:Generated_Source\PSoC5/cyfitter_cfg.c **** 
 417:Generated_Source\PSoC5/cyfitter_cfg.c **** 		static const cfg_memset_t CYCODE cfg_memset_list[] = {
 418:Generated_Source\PSoC5/cyfitter_cfg.c **** 			/* address, size */
 419:Generated_Source\PSoC5/cyfitter_cfg.c **** 			{(void CYFAR *)(CYDEV_UCFG_B0_P0_U0_BASE), 4096u},
 420:Generated_Source\PSoC5/cyfitter_cfg.c **** 			{(void CYFAR *)(CYDEV_UCFG_B1_P2_U0_BASE), 128u},
 421:Generated_Source\PSoC5/cyfitter_cfg.c **** 			{(void CYFAR *)(CYDEV_UCFG_B1_P2_ROUTE_BASE), 1792u},
 422:Generated_Source\PSoC5/cyfitter_cfg.c **** 			{(void CYFAR *)(CYDEV_UCFG_DSI0_BASE), 2560u},
 423:Generated_Source\PSoC5/cyfitter_cfg.c **** 			{(void CYFAR *)(CYDEV_UCFG_DSI12_BASE), 512u},
 424:Generated_Source\PSoC5/cyfitter_cfg.c **** 			{(void CYFAR *)(CYREG_BCTL1_MDCLK_EN), 16u},
 425:Generated_Source\PSoC5/cyfitter_cfg.c **** 		};
 426:Generated_Source\PSoC5/cyfitter_cfg.c **** 
 427:Generated_Source\PSoC5/cyfitter_cfg.c **** 		static const cfg_memcpy_t CYCODE cfg_memcpy_list [] = {
ARM GAS  C:\Users\DGILLI~1\AppData\Local\Temp\cc6e1FdW.s 			page 17


 428:Generated_Source\PSoC5/cyfitter_cfg.c **** 			/* dest, src, size */
 429:Generated_Source\PSoC5/cyfitter_cfg.c **** 			{(void CYFAR *)(CYDEV_PRTDSI_PRT4_BASE), BS_IOPORT_4_VAL, 7u},
 430:Generated_Source\PSoC5/cyfitter_cfg.c **** 			{(void CYFAR *)(CYDEV_PRTDSI_PRT5_BASE), BS_IOPORT_5_VAL, 7u},
 431:Generated_Source\PSoC5/cyfitter_cfg.c **** 			{(void CYFAR *)(CYDEV_UCFG_B1_P2_U1_BASE), BS_UDB_1_0_1_CONFIG_VAL, 128u},
 432:Generated_Source\PSoC5/cyfitter_cfg.c **** 			{(void CYFAR *)(CYREG_BCTL0_MDCLK_EN), BS_UCFG_BCTL0_VAL, 16u},
 433:Generated_Source\PSoC5/cyfitter_cfg.c **** 		};
 434:Generated_Source\PSoC5/cyfitter_cfg.c **** 
 435:Generated_Source\PSoC5/cyfitter_cfg.c **** 		uint8 CYDATA i;
 436:Generated_Source\PSoC5/cyfitter_cfg.c **** 
 437:Generated_Source\PSoC5/cyfitter_cfg.c **** 		/* Zero out critical memory blocks before beginning configuration */
 438:Generated_Source\PSoC5/cyfitter_cfg.c **** 		for (i = 0u; i < (sizeof(cfg_memset_list)/sizeof(cfg_memset_list[0])); i++)
 449              		.loc 1 438 0
 450 001c 0024     		movs	r4, #0
 451 001e 0CE0     		b	.L30
 452              	.LVL33:
 453              	.L31:
 454              	.LBB4:
 439:Generated_Source\PSoC5/cyfitter_cfg.c **** 		{
 440:Generated_Source\PSoC5/cyfitter_cfg.c **** 			const cfg_memset_t CYCODE * CYDATA ms = &cfg_memset_list[i];
 441:Generated_Source\PSoC5/cyfitter_cfg.c **** 			CYMEMZERO(ms->address, (size_t)(uint32)(ms->size));
 455              		.loc 1 441 0 discriminator 3
 456 0020 3B4D     		ldr	r5, .L35+8
 457 0022 6300     		lsls	r3, r4, #1
 458 0024 1919     		adds	r1, r3, r4
 459 0026 4A00     		lsls	r2, r1, #1
 460 0028 1146     		mov	r1, r2
 461 002a 2A44     		add	r2, r2, r5
 462 002c 0846     		mov	r0, r1
 463 002e 9188     		ldrh	r1, [r2, #4]
 464 0030 2858     		ldr	r0, [r5, r0]	@ unaligned
 465 0032 FFF7FEFF 		bl	CYMEMZERO
 466              	.LVL34:
 467              	.LBE4:
 438:Generated_Source\PSoC5/cyfitter_cfg.c **** 		{
 468              		.loc 1 438 0 discriminator 3
 469 0036 0134     		adds	r4, r4, #1
 470              	.LVL35:
 471 0038 E4B2     		uxtb	r4, r4
 472              	.LVL36:
 473              	.L30:
 438:Generated_Source\PSoC5/cyfitter_cfg.c **** 		{
 474              		.loc 1 438 0 is_stmt 0 discriminator 1
 475 003a 052C     		cmp	r4, #5
 476 003c F0D9     		bls	.L31
 477 003e 0024     		movs	r4, #0
 478              	.LVL37:
 479 0040 0BE0     		b	.L32
 480              	.LVL38:
 481              	.L33:
 482              	.LBB5:
 442:Generated_Source\PSoC5/cyfitter_cfg.c **** 		}
 443:Generated_Source\PSoC5/cyfitter_cfg.c **** 
 444:Generated_Source\PSoC5/cyfitter_cfg.c **** 		/* Copy device configuration data into registers */
 445:Generated_Source\PSoC5/cyfitter_cfg.c **** 		for (i = 0u; i < (sizeof(cfg_memcpy_list)/sizeof(cfg_memcpy_list[0])); i++)
 446:Generated_Source\PSoC5/cyfitter_cfg.c **** 		{
 447:Generated_Source\PSoC5/cyfitter_cfg.c **** 			const cfg_memcpy_t CYCODE * CYDATA mc = &cfg_memcpy_list[i];
 448:Generated_Source\PSoC5/cyfitter_cfg.c **** 			void * CYDATA destPtr = mc->dest;
ARM GAS  C:\Users\DGILLI~1\AppData\Local\Temp\cc6e1FdW.s 			page 18


 483              		.loc 1 448 0 is_stmt 1 discriminator 3
 484 0042 3348     		ldr	r0, .L35+8
 485 0044 A200     		lsls	r2, r4, #2
 486 0046 1119     		adds	r1, r2, r4
 487 0048 4B00     		lsls	r3, r1, #1
 488 004a 0344     		add	r3, r3, r0
 489              	.LVL39:
 449:Generated_Source\PSoC5/cyfitter_cfg.c **** 			const void * CYDATA srcPtr = mc->src;
 450:Generated_Source\PSoC5/cyfitter_cfg.c **** 			uint16 CYDATA numBytes = mc->size;
 451:Generated_Source\PSoC5/cyfitter_cfg.c **** 			CYCONFIGCPY(destPtr, srcPtr, numBytes);
 490              		.loc 1 451 0 discriminator 3
 491 004c 9A8D     		ldrh	r2, [r3, #44]
 492 004e 996A     		ldr	r1, [r3, #40]	@ unaligned
 493              	.LVL40:
 494 0050 586A     		ldr	r0, [r3, #36]	@ unaligned
 495              	.LVL41:
 496 0052 FFF7FEFF 		bl	CYCONFIGCPY
 497              	.LVL42:
 498              	.LBE5:
 445:Generated_Source\PSoC5/cyfitter_cfg.c **** 		{
 499              		.loc 1 445 0 discriminator 3
 500 0056 0134     		adds	r4, r4, #1
 501              	.LVL43:
 502 0058 E4B2     		uxtb	r4, r4
 503              	.LVL44:
 504              	.L32:
 445:Generated_Source\PSoC5/cyfitter_cfg.c **** 		{
 505              		.loc 1 445 0 is_stmt 0 discriminator 1
 506 005a 032C     		cmp	r4, #3
 507 005c F1D9     		bls	.L33
 452:Generated_Source\PSoC5/cyfitter_cfg.c **** 		}
 453:Generated_Source\PSoC5/cyfitter_cfg.c **** 
 454:Generated_Source\PSoC5/cyfitter_cfg.c **** 		cfg_write_bytes32(cy_cfg_addr_table, cy_cfg_data_table);
 508              		.loc 1 454 0 is_stmt 1
 509 005e 2D49     		ldr	r1, .L35+12
 510 0060 4FF09040 		mov	r0, #1207959552
 511 0064 FFF7FEFF 		bl	cfg_write_bytes32
 512              	.LVL45:
 455:Generated_Source\PSoC5/cyfitter_cfg.c **** 
 456:Generated_Source\PSoC5/cyfitter_cfg.c **** 		/* Enable digital routing */
 457:Generated_Source\PSoC5/cyfitter_cfg.c **** 		CY_SET_XTND_REG8((void CYFAR *)CYREG_BCTL0_BANK_CTL, CY_GET_XTND_REG8((void CYFAR *)CYREG_BCTL0_B
 513              		.loc 1 457 0
 514 0068 2B4A     		ldr	r2, .L35+16
 515 006a 1378     		ldrb	r3, [r2]	@ zero_extendqisi2
 516 006c 43F00203 		orr	r3, r3, #2
 517 0070 1370     		strb	r3, [r2]
 458:Generated_Source\PSoC5/cyfitter_cfg.c **** 		CY_SET_XTND_REG8((void CYFAR *)CYREG_BCTL1_BANK_CTL, CY_GET_XTND_REG8((void CYFAR *)CYREG_BCTL1_B
 518              		.loc 1 458 0
 519 0072 1032     		adds	r2, r2, #16
 520 0074 1378     		ldrb	r3, [r2]	@ zero_extendqisi2
 521 0076 43F00203 		orr	r3, r3, #2
 522 007a 1370     		strb	r3, [r2]
 459:Generated_Source\PSoC5/cyfitter_cfg.c **** 
 460:Generated_Source\PSoC5/cyfitter_cfg.c **** 		/* Enable UDB array */
 461:Generated_Source\PSoC5/cyfitter_cfg.c **** 		CY_SET_XTND_REG8((void CYFAR *)CYREG_PM_ACT_CFG0, CY_GET_XTND_REG8((void CYFAR *)CYREG_PM_ACT_CFG
 523              		.loc 1 461 0
 524 007c 274C     		ldr	r4, .L35+20
ARM GAS  C:\Users\DGILLI~1\AppData\Local\Temp\cc6e1FdW.s 			page 19


 525              	.LVL46:
 526 007e 2378     		ldrb	r3, [r4]	@ zero_extendqisi2
 527 0080 43F04003 		orr	r3, r3, #64
 528 0084 2370     		strb	r3, [r4]
 462:Generated_Source\PSoC5/cyfitter_cfg.c **** 		CY_SET_XTND_REG8((void CYFAR *)CYREG_PM_AVAIL_CR2, CY_GET_XTND_REG8((void CYFAR *)CYREG_PM_AVAIL_
 529              		.loc 1 462 0
 530 0086 A2F58632 		sub	r2, r2, #68608
 531 008a 513A     		subs	r2, r2, #81
 532 008c 1378     		ldrb	r3, [r2]	@ zero_extendqisi2
 533 008e 43F01003 		orr	r3, r3, #16
 534 0092 1370     		strb	r3, [r2]
 535              	.LBE3:
 463:Generated_Source\PSoC5/cyfitter_cfg.c **** 	}
 464:Generated_Source\PSoC5/cyfitter_cfg.c **** 
 465:Generated_Source\PSoC5/cyfitter_cfg.c **** 
 466:Generated_Source\PSoC5/cyfitter_cfg.c **** 	/* Perform second pass device configuration. These items must be configured in specific order afte
 467:Generated_Source\PSoC5/cyfitter_cfg.c **** 	CYCONFIGCPY((void CYFAR *)(CYREG_PRT0_DR), (const void CYFAR *)(BS_IOPINS0_0_VAL), 10u);
 536              		.loc 1 467 0
 537 0094 0A22     		movs	r2, #10
 538 0096 2249     		ldr	r1, .L35+24
 539 0098 2248     		ldr	r0, .L35+28
 540 009a FFF7FEFF 		bl	CYCONFIGCPY
 541              	.LVL47:
 468:Generated_Source\PSoC5/cyfitter_cfg.c **** 	CYCONFIGCPY((void CYFAR *)(CYREG_PRT12_DR), (const void CYFAR *)(BS_IOPINS0_7_VAL), 10u);
 542              		.loc 1 468 0
 543 009e 0A22     		movs	r2, #10
 544 00a0 2149     		ldr	r1, .L35+32
 545 00a2 2248     		ldr	r0, .L35+36
 546 00a4 FFF7FEFF 		bl	CYCONFIGCPY
 547              	.LVL48:
 469:Generated_Source\PSoC5/cyfitter_cfg.c **** 	CYCONFIGCPY((void CYFAR *)(CYREG_PRT15_DR), (const void CYFAR *)(BS_IOPINS0_8_VAL), 10u);
 548              		.loc 1 469 0
 549 00a8 0A22     		movs	r2, #10
 550 00aa 2149     		ldr	r1, .L35+40
 551 00ac 2148     		ldr	r0, .L35+44
 552 00ae FFF7FEFF 		bl	CYCONFIGCPY
 553              	.LVL49:
 470:Generated_Source\PSoC5/cyfitter_cfg.c **** 	CYCONFIGCPY((void CYFAR *)(CYREG_PRT1_DM0), (const void CYFAR *)(BS_IOPINS0_1_VAL), 8u);
 554              		.loc 1 470 0
 555 00b2 0822     		movs	r2, #8
 556 00b4 2049     		ldr	r1, .L35+48
 557 00b6 2148     		ldr	r0, .L35+52
 558 00b8 FFF7FEFF 		bl	CYCONFIGCPY
 559              	.LVL50:
 471:Generated_Source\PSoC5/cyfitter_cfg.c **** 	CYCONFIGCPY((void CYFAR *)(CYREG_PRT2_DM0), (const void CYFAR *)(BS_IOPINS0_2_VAL), 8u);
 560              		.loc 1 471 0
 561 00bc 0822     		movs	r2, #8
 562 00be 2049     		ldr	r1, .L35+56
 563 00c0 2048     		ldr	r0, .L35+60
 564 00c2 FFF7FEFF 		bl	CYCONFIGCPY
 565              	.LVL51:
 472:Generated_Source\PSoC5/cyfitter_cfg.c **** 	CYCONFIGCPY((void CYFAR *)(CYREG_PRT3_DM0), (const void CYFAR *)(BS_IOPINS0_3_VAL), 8u);
 566              		.loc 1 472 0
 567 00c6 0822     		movs	r2, #8
 568 00c8 1F49     		ldr	r1, .L35+64
 569 00ca 2048     		ldr	r0, .L35+68
 570 00cc FFF7FEFF 		bl	CYCONFIGCPY
ARM GAS  C:\Users\DGILLI~1\AppData\Local\Temp\cc6e1FdW.s 			page 20


 571              	.LVL52:
 473:Generated_Source\PSoC5/cyfitter_cfg.c **** 	CYCONFIGCPY((void CYFAR *)(CYREG_PRT4_DM0), (const void CYFAR *)(BS_IOPINS0_4_VAL), 8u);
 572              		.loc 1 473 0
 573 00d0 0822     		movs	r2, #8
 574 00d2 1F49     		ldr	r1, .L35+72
 575 00d4 1F48     		ldr	r0, .L35+76
 576 00d6 FFF7FEFF 		bl	CYCONFIGCPY
 577              	.LVL53:
 474:Generated_Source\PSoC5/cyfitter_cfg.c **** 	CYCONFIGCPY((void CYFAR *)(CYREG_PRT5_DR), (const void CYFAR *)(BS_IOPINS0_5_VAL), 10u);
 578              		.loc 1 474 0
 579 00da 0A22     		movs	r2, #10
 580 00dc 1E49     		ldr	r1, .L35+80
 581 00de 1F48     		ldr	r0, .L35+84
 582 00e0 FFF7FEFF 		bl	CYCONFIGCPY
 583              	.LVL54:
 475:Generated_Source\PSoC5/cyfitter_cfg.c **** 	CYCONFIGCPY((void CYFAR *)(CYREG_PRT6_DR), (const void CYFAR *)(BS_IOPINS0_6_VAL), 10u);
 584              		.loc 1 475 0
 585 00e4 0A22     		movs	r2, #10
 586 00e6 1E49     		ldr	r1, .L35+88
 587 00e8 1E48     		ldr	r0, .L35+92
 588 00ea FFF7FEFF 		bl	CYCONFIGCPY
 589              	.LVL55:
 476:Generated_Source\PSoC5/cyfitter_cfg.c **** 	/* Switch Boost to the precision bandgap reference from its internal reference */
 477:Generated_Source\PSoC5/cyfitter_cfg.c **** 	CY_SET_REG8((void CYXDATA *)CYREG_BOOST_CR2, (CY_GET_REG8((void CYXDATA *)CYREG_BOOST_CR2) | 0x08u
 590              		.loc 1 477 0
 591 00ee 1E4A     		ldr	r2, .L35+96
 592 00f0 1378     		ldrb	r3, [r2]	@ zero_extendqisi2
 593 00f2 43F00803 		orr	r3, r3, #8
 594 00f6 1370     		strb	r3, [r2]
 478:Generated_Source\PSoC5/cyfitter_cfg.c **** 
 479:Generated_Source\PSoC5/cyfitter_cfg.c **** 	/* Perform basic analog initialization to defaults */
 480:Generated_Source\PSoC5/cyfitter_cfg.c **** 	AnalogSetDefault();
 595              		.loc 1 480 0
 596 00f8 FFF7FEFF 		bl	AnalogSetDefault
 597              	.LVL56:
 481:Generated_Source\PSoC5/cyfitter_cfg.c **** 
 482:Generated_Source\PSoC5/cyfitter_cfg.c **** 	/* Configure alternate active mode */
 483:Generated_Source\PSoC5/cyfitter_cfg.c **** 	CYCONFIGCPY((void CYFAR *)CYDEV_PM_STBY_BASE, (const void CYFAR *)CYDEV_PM_ACT_BASE, 14u);
 598              		.loc 1 483 0
 599 00fc 0E22     		movs	r2, #14
 600 00fe 2146     		mov	r1, r4
 601 0100 1A48     		ldr	r0, .L35+100
 602 0102 FFF7FEFF 		bl	CYCONFIGCPY
 603              	.LVL57:
 604 0106 38BD     		pop	{r3, r4, r5, pc}
 605              	.L36:
 606              		.align	2
 607              	.L35:
 608 0108 00480040 		.word	1073760256
 609 010c E8460040 		.word	1073759976
 610 0110 00000000 		.word	.LANCHOR0
 611 0114 A4000048 		.word	1207959716
 612 0118 03500140 		.word	1073827843
 613 011c A0430040 		.word	1073759136
 614 0120 00100048 		.word	1207963648
 615 0124 00510040 		.word	1073762560
 616 0128 0C100048 		.word	1207963660
ARM GAS  C:\Users\DGILLI~1\AppData\Local\Temp\cc6e1FdW.s 			page 21


 617 012c C0510040 		.word	1073762752
 618 0130 18100048 		.word	1207963672
 619 0134 F0510040 		.word	1073762800
 620 0138 24100048 		.word	1207963684
 621 013c 12510040 		.word	1073762578
 622 0140 2C100048 		.word	1207963692
 623 0144 22510040 		.word	1073762594
 624 0148 34100048 		.word	1207963700
 625 014c 32510040 		.word	1073762610
 626 0150 3C100048 		.word	1207963708
 627 0154 42510040 		.word	1073762626
 628 0158 44100048 		.word	1207963716
 629 015c 50510040 		.word	1073762640
 630 0160 50100048 		.word	1207963728
 631 0164 60510040 		.word	1073762656
 632 0168 22430040 		.word	1073759010
 633 016c B0430040 		.word	1073759152
 634              		.cfi_endproc
 635              	.LFE8:
 636              		.size	cyfitter_cfg, .-cyfitter_cfg
 637              		.section	.rodata
 638              		.align	2
 639              		.set	.LANCHOR0,. + 0
 640              		.type	cfg_memset_list.5018, %object
 641              		.size	cfg_memset_list.5018, 36
 642              	cfg_memset_list.5018:
 643 0000 00000140 		.word	1073807360
 644 0004 0010     		.short	4096
 645 0006 00140140 		.4byte	1073812480
 646 000a 8000     		.short	128
 647 000c 00150140 		.word	1073812736
 648 0010 0007     		.short	1792
 649 0012 00400140 		.4byte	1073823744
 650 0016 000A     		.short	2560
 651 0018 004C0140 		.word	1073826816
 652 001c 0002     		.short	512
 653 001e 10500140 		.4byte	1073827856
 654 0022 1000     		.short	16
 655              		.type	cfg_memcpy_list.5019, %object
 656              		.size	cfg_memcpy_list.5019, 40
 657              	cfg_memcpy_list.5019:
 658 0024 20520040 		.word	1073762848
 659 0028 600F0048 		.word	1207963488
 660 002c 0700     		.short	7
 661 002e 28520040 		.4byte	1073762856
 662 0032 680F0048 		.4byte	1207963496
 663 0036 0700     		.short	7
 664 0038 80140140 		.word	1073812608
 665 003c 700F0048 		.word	1207963504
 666 0040 8000     		.short	128
 667 0042 00500140 		.4byte	1073827840
 668 0046 F00F0048 		.4byte	1207963632
 669 004a 1000     		.short	16
 670              		.text
 671              	.Letext0:
 672              		.file 2 "c:\\program files (x86)\\cypress\\psoc creator\\4.2\\psoc creator\\import\\gnu\\arm\\5.4.
 673              		.file 3 "Generated_Source\\PSoC5\\cytypes.h"
ARM GAS  C:\Users\DGILLI~1\AppData\Local\Temp\cc6e1FdW.s 			page 22


 674              		.file 4 "Generated_Source\\PSoC5\\CyLib.h"