ARM GAS  C:\Users\DGILLI~1\AppData\Local\Temp\ccdtLAUf.s 			page 1


   1              		.syntax unified
   2              		.cpu cortex-m3
   3              		.fpu softvfp
   4              		.eabi_attribute 20, 1
   5              		.eabi_attribute 21, 1
   6              		.eabi_attribute 23, 3
   7              		.eabi_attribute 24, 1
   8              		.eabi_attribute 25, 1
   9              		.eabi_attribute 26, 1
  10              		.eabi_attribute 30, 1
  11              		.eabi_attribute 34, 1
  12              		.eabi_attribute 18, 4
  13              		.thumb
  14              		.syntax unified
  15              		.file	"ExtSRAM.c"
  16              		.text
  17              	.Ltext0:
  18              		.cfi_sections	.debug_frame
  19              		.section	.text.SetExtSRAMAddr,"ax",%progbits
  20              		.align	2
  21              		.global	SetExtSRAMAddr
  22              		.thumb
  23              		.thumb_func
  24              		.type	SetExtSRAMAddr, %function
  25              	SetExtSRAMAddr:
  26              	.LFB63:
  27              		.file 1 "ExtSRAM.c"
   1:ExtSRAM.c     **** /* ========================================
   2:ExtSRAM.c     ****  *
   3:ExtSRAM.c     ****  * Copyright LAND BOARDS, LLC, 2019
   4:ExtSRAM.c     ****  * All Rights Reserved
   5:ExtSRAM.c     ****  * UNPUBLISHED, LICENSED SOFTWARE.
   6:ExtSRAM.c     ****  *
   7:ExtSRAM.c     ****  * CONFIDENTIAL AND PROPRIETARY INFORMATION
   8:ExtSRAM.c     ****  * WHICH IS THE PROPERTY OF LAND BOARDS, LLC.
   9:ExtSRAM.c     ****  *
  10:ExtSRAM.c     ****  * ========================================
  11:ExtSRAM.c     **** */
  12:ExtSRAM.c     **** 
  13:ExtSRAM.c     **** ////////////////////////////////////////////////////////////////////////////
  14:ExtSRAM.c     **** // External SRAM is controlled by ExtSRAMCtl register
  15:ExtSRAM.c     **** //  d0 = SRAM_R1_W0
  16:ExtSRAM.c     **** //  d1 = DRV_RAM
  17:ExtSRAM.c     **** //      0 = Don't drive the SRAM address/controls
  18:ExtSRAM.c     **** //      1 = Drive the SRAM address/controls
  19:ExtSRAM.c     **** //  d2 = SRAMCSn
  20:ExtSRAM.c     **** //      0 = Chip Select enabled
  21:ExtSRAM.c     **** //      1 = Chip Select disabled (default at power up)
  22:ExtSRAM.c     **** ////////////////////////////////////////////////////////////////////////////
  23:ExtSRAM.c     **** 
  24:ExtSRAM.c     **** #include <project.h>
  25:ExtSRAM.c     **** 
  26:ExtSRAM.c     **** ////////////////////////////////////////////////////////////////////////////
  27:ExtSRAM.c     **** // SetExtSRAMAddr(addr) - Set the address registers for the SRAM
  28:ExtSRAM.c     **** 
  29:ExtSRAM.c     **** void SetExtSRAMAddr(uint32 addr)
  30:ExtSRAM.c     **** {
ARM GAS  C:\Users\DGILLI~1\AppData\Local\Temp\ccdtLAUf.s 			page 2


  28              		.loc 1 30 0
  29              		.cfi_startproc
  30              		@ args = 0, pretend = 0, frame = 0
  31              		@ frame_needed = 0, uses_anonymous_args = 0
  32              	.LVL0:
  33 0000 10B5     		push	{r4, lr}
  34              		.cfi_def_cfa_offset 8
  35              		.cfi_offset 4, -8
  36              		.cfi_offset 14, -4
  37 0002 0446     		mov	r4, r0
  31:ExtSRAM.c     ****     AdrLowOut_Write(addr & 0xff);           // bottom 8-bits of the address A0..A7
  38              		.loc 1 31 0
  39 0004 C0B2     		uxtb	r0, r0
  40              	.LVL1:
  41 0006 FFF7FEFF 		bl	AdrLowOut_Write
  42              	.LVL2:
  32:ExtSRAM.c     ****     AdrMidOut_Write((addr>>8) & 0x7);       // middle 3-bits of the address A8..A1
  43              		.loc 1 32 0
  44 000a C4F30220 		ubfx	r0, r4, #8, #3
  45 000e FFF7FEFF 		bl	AdrMidOut_Write
  46              	.LVL3:
  33:ExtSRAM.c     ****     AdrHighOut_Write((addr>>13) & 0xFF);    
  47              		.loc 1 33 0
  48 0012 C4F34730 		ubfx	r0, r4, #13, #8
  49 0016 FFF7FEFF 		bl	AdrHighOut_Write
  50              	.LVL4:
  51 001a 10BD     		pop	{r4, pc}
  52              		.cfi_endproc
  53              	.LFE63:
  54              		.size	SetExtSRAMAddr, .-SetExtSRAMAddr
  55              		.section	.text.ReadExtSRAM,"ax",%progbits
  56              		.align	2
  57              		.global	ReadExtSRAM
  58              		.thumb
  59              		.thumb_func
  60              		.type	ReadExtSRAM, %function
  61              	ReadExtSRAM:
  62              	.LFB64:
  34:ExtSRAM.c     **** }
  35:ExtSRAM.c     **** 
  36:ExtSRAM.c     **** ////////////////////////////////////////////////////////////////////////////
  37:ExtSRAM.c     **** // ReadExtSRAM(addr) - Read the external SRAM at address = addr
  38:ExtSRAM.c     **** 
  39:ExtSRAM.c     **** uint8 ReadExtSRAM(uint32 addr)
  40:ExtSRAM.c     **** {
  63              		.loc 1 40 0
  64              		.cfi_startproc
  65              		@ args = 0, pretend = 0, frame = 0
  66              		@ frame_needed = 0, uses_anonymous_args = 0
  67              	.LVL5:
  68 0000 10B5     		push	{r4, lr}
  69              		.cfi_def_cfa_offset 8
  70              		.cfi_offset 4, -8
  71              		.cfi_offset 14, -4
  41:ExtSRAM.c     ****     uint8 rdVal;
  42:ExtSRAM.c     ****     SetExtSRAMAddr(addr);
  72              		.loc 1 42 0
ARM GAS  C:\Users\DGILLI~1\AppData\Local\Temp\ccdtLAUf.s 			page 3


  73 0002 FFF7FEFF 		bl	SetExtSRAMAddr
  74              	.LVL6:
  43:ExtSRAM.c     ****     ExtSRAMCtl_Write(0x5);          // Set R/W* to Read
  75              		.loc 1 43 0
  76 0006 0520     		movs	r0, #5
  77 0008 FFF7FEFF 		bl	ExtSRAMCtl_Write
  78              	.LVL7:
  44:ExtSRAM.c     ****     ExtSRAMCtl_Write(0x7);          // Assert DRV_RAM
  79              		.loc 1 44 0
  80 000c 0720     		movs	r0, #7
  81 000e FFF7FEFF 		bl	ExtSRAMCtl_Write
  82              	.LVL8:
  45:ExtSRAM.c     ****     ExtSRAMCtl_Write(0x3);          // Assert SRAMCS
  83              		.loc 1 45 0
  84 0012 0320     		movs	r0, #3
  85 0014 FFF7FEFF 		bl	ExtSRAMCtl_Write
  86              	.LVL9:
  46:ExtSRAM.c     ****     rdVal = Z80_Data_Out_Read();
  87              		.loc 1 46 0
  88 0018 FFF7FEFF 		bl	Z80_Data_Out_Read
  89              	.LVL10:
  90 001c 0446     		mov	r4, r0
  91              	.LVL11:
  47:ExtSRAM.c     ****     ExtSRAMCtl_Write(0x7);          // Remove SRAMCS
  92              		.loc 1 47 0
  93 001e 0720     		movs	r0, #7
  94 0020 FFF7FEFF 		bl	ExtSRAMCtl_Write
  95              	.LVL12:
  48:ExtSRAM.c     ****     ExtSRAMCtl_Write(0x5);          // Remove DRV_RAM
  96              		.loc 1 48 0
  97 0024 0520     		movs	r0, #5
  98 0026 FFF7FEFF 		bl	ExtSRAMCtl_Write
  99              	.LVL13:
  49:ExtSRAM.c     ****     return(rdVal);
  50:ExtSRAM.c     **** }
 100              		.loc 1 50 0
 101 002a 2046     		mov	r0, r4
 102 002c 10BD     		pop	{r4, pc}
 103              		.cfi_endproc
 104              	.LFE64:
 105              		.size	ReadExtSRAM, .-ReadExtSRAM
 106 002e 00BF     		.section	.text.WriteExtSRAM,"ax",%progbits
 107              		.align	2
 108              		.global	WriteExtSRAM
 109              		.thumb
 110              		.thumb_func
 111              		.type	WriteExtSRAM, %function
 112              	WriteExtSRAM:
 113              	.LFB65:
  51:ExtSRAM.c     **** 
  52:ExtSRAM.c     **** ////////////////////////////////////////////////////////////////////////////
  53:ExtSRAM.c     **** // WriteExtSRAM(addr,data) - Write to the external SRAM at address = addr
  54:ExtSRAM.c     **** 
  55:ExtSRAM.c     **** void WriteExtSRAM(uint32 addr, uint8 data)
  56:ExtSRAM.c     **** {
 114              		.loc 1 56 0
 115              		.cfi_startproc
ARM GAS  C:\Users\DGILLI~1\AppData\Local\Temp\ccdtLAUf.s 			page 4


 116              		@ args = 0, pretend = 0, frame = 0
 117              		@ frame_needed = 0, uses_anonymous_args = 0
 118              	.LVL14:
 119 0000 10B5     		push	{r4, lr}
 120              		.cfi_def_cfa_offset 8
 121              		.cfi_offset 4, -8
 122              		.cfi_offset 14, -4
 123 0002 0C46     		mov	r4, r1
  57:ExtSRAM.c     ****     SetExtSRAMAddr(addr);
 124              		.loc 1 57 0
 125 0004 FFF7FEFF 		bl	SetExtSRAMAddr
 126              	.LVL15:
  58:ExtSRAM.c     ****     ExtSRAMCtl_Write(0x4);          // Set R/W* to Write
 127              		.loc 1 58 0
 128 0008 0420     		movs	r0, #4
 129 000a FFF7FEFF 		bl	ExtSRAMCtl_Write
 130              	.LVL16:
  59:ExtSRAM.c     ****     ExtSRAMCtl_Write(0x6);          // Assert DRV_RAM
 131              		.loc 1 59 0
 132 000e 0620     		movs	r0, #6
 133 0010 FFF7FEFF 		bl	ExtSRAMCtl_Write
 134              	.LVL17:
  60:ExtSRAM.c     ****     Z80_Data_In_Write(data);        // Provide value to SRAM data bus
 135              		.loc 1 60 0
 136 0014 2046     		mov	r0, r4
 137 0016 FFF7FEFF 		bl	Z80_Data_In_Write
 138              	.LVL18:
  61:ExtSRAM.c     ****     ExtSRAMCtl_Write(0x2);          // De-assert SRAMCS
 139              		.loc 1 61 0
 140 001a 0220     		movs	r0, #2
 141 001c FFF7FEFF 		bl	ExtSRAMCtl_Write
 142              	.LVL19:
  62:ExtSRAM.c     ****     ExtSRAMCtl_Write(0x5);          // De-assert DRV_RAM, Set to read
 143              		.loc 1 62 0
 144 0020 0520     		movs	r0, #5
 145 0022 FFF7FEFF 		bl	ExtSRAMCtl_Write
 146              	.LVL20:
 147 0026 10BD     		pop	{r4, pc}
 148              		.cfi_endproc
 149              	.LFE65:
 150              		.size	WriteExtSRAM, .-WriteExtSRAM
 151              		.section	.text.TestSRAM,"ax",%progbits
 152              		.align	2
 153              		.global	TestSRAM
 154              		.thumb
 155              		.thumb_func
 156              		.type	TestSRAM, %function
 157              	TestSRAM:
 158              	.LFB66:
  63:ExtSRAM.c     ****     
  64:ExtSRAM.c     **** }
  65:ExtSRAM.c     **** 
  66:ExtSRAM.c     **** ////////////////////////////////////////////////////////////////////////////
  67:ExtSRAM.c     **** // TestSRAM()
  68:ExtSRAM.c     **** // Returns 
  69:ExtSRAM.c     **** //  0 if POST passed
  70:ExtSRAM.c     **** //  1 if POST Failed single location test
ARM GAS  C:\Users\DGILLI~1\AppData\Local\Temp\ccdtLAUf.s 			page 5


  71:ExtSRAM.c     **** //  2 if POST failed address ramp test
  72:ExtSRAM.c     **** 
  73:ExtSRAM.c     **** uint32 TestSRAM(void)
  74:ExtSRAM.c     **** {
 159              		.loc 1 74 0
 160              		.cfi_startproc
 161              		@ args = 0, pretend = 0, frame = 0
 162              		@ frame_needed = 0, uses_anonymous_args = 0
 163 0000 10B5     		push	{r4, lr}
 164              		.cfi_def_cfa_offset 8
 165              		.cfi_offset 4, -8
 166              		.cfi_offset 14, -4
  75:ExtSRAM.c     ****     uint32 sramAddr;
  76:ExtSRAM.c     ****     uint8 sramData;
  77:ExtSRAM.c     ****     // Do a single write/read of the first location as a quick test
  78:ExtSRAM.c     ****     WriteExtSRAM(0x0,0x55);             // Write 0x55 to the SRAM
 167              		.loc 1 78 0
 168 0002 5521     		movs	r1, #85
 169 0004 0020     		movs	r0, #0
 170 0006 FFF7FEFF 		bl	WriteExtSRAM
 171              	.LVL21:
  79:ExtSRAM.c     ****     if (ReadExtSRAM(0x0) != 0x55)       // Read the SRAM
 172              		.loc 1 79 0
 173 000a 0020     		movs	r0, #0
 174 000c FFF7FEFF 		bl	ReadExtSRAM
 175              	.LVL22:
 176 0010 5528     		cmp	r0, #85
 177 0012 07D1     		bne	.L8
 178 0014 0124     		movs	r4, #1
 179              	.L9:
 180              	.LVL23:
  80:ExtSRAM.c     ****         return(0x1);   // Post failed
  81:ExtSRAM.c     ****     // Write/read a data ramp to exercise address lines (step in address bits)
  82:ExtSRAM.c     ****     sramData = 1;
  83:ExtSRAM.c     ****     for (sramAddr = 0; sramAddr < 0x80000; sramAddr <<= 1)
  84:ExtSRAM.c     ****     {
  85:ExtSRAM.c     ****         WriteExtSRAM(sramAddr,sramData);
 181              		.loc 1 85 0 discriminator 1
 182 0016 2146     		mov	r1, r4
 183 0018 0020     		movs	r0, #0
 184 001a FFF7FEFF 		bl	WriteExtSRAM
 185              	.LVL24:
  86:ExtSRAM.c     ****         sramAddr <<= 1;
  87:ExtSRAM.c     ****         sramData++;
 186              		.loc 1 87 0 discriminator 1
 187 001e 0134     		adds	r4, r4, #1
 188              	.LVL25:
 189 0020 E4B2     		uxtb	r4, r4
 190              	.LVL26:
 191 0022 F8E7     		b	.L9
 192              	.LVL27:
 193              	.L8:
  88:ExtSRAM.c     ****     }
  89:ExtSRAM.c     ****     sramData = 1;
  90:ExtSRAM.c     ****     for (sramAddr = 0; sramAddr < 0x80000; sramAddr <<= 1)
  91:ExtSRAM.c     ****     {
  92:ExtSRAM.c     ****         if (ReadExtSRAM(sramAddr) != sramData)
ARM GAS  C:\Users\DGILLI~1\AppData\Local\Temp\ccdtLAUf.s 			page 6


  93:ExtSRAM.c     ****             return(0x2);
  94:ExtSRAM.c     ****         sramAddr <<= 1;
  95:ExtSRAM.c     ****         sramData++;
  96:ExtSRAM.c     ****     }
  97:ExtSRAM.c     ****     return(0);
  98:ExtSRAM.c     **** }
 194              		.loc 1 98 0
 195 0024 0120     		movs	r0, #1
 196 0026 10BD     		pop	{r4, pc}
 197              		.cfi_endproc
 198              	.LFE66:
 199              		.size	TestSRAM, .-TestSRAM
 200              		.text
 201              	.Letext0:
 202              		.file 2 "c:\\program files (x86)\\cypress\\psoc creator\\4.2\\psoc creator\\import\\gnu\\arm\\5.4.
 203              		.file 3 "c:\\program files (x86)\\cypress\\psoc creator\\4.2\\psoc creator\\import\\gnu\\arm\\5.4.
 204              		.file 4 "Generated_Source\\PSoC5/cytypes.h"
 205              		.file 5 "Generated_Source\\PSoC5/AdrLowOut.h"
 206              		.file 6 "Generated_Source\\PSoC5/AdrMidOut.h"
 207              		.file 7 "Generated_Source\\PSoC5/AdrHighOut.h"
 208              		.file 8 "Generated_Source\\PSoC5/ExtSRAMCtl.h"
 209              		.file 9 "Generated_Source\\PSoC5/Z80_Data_Out.h"
 210              		.file 10 "Generated_Source\\PSoC5/Z80_Data_In.h"
 211              		.file 11 "Generated_Source\\PSoC5/core_cm3.h"