ARM GAS  C:\Users\HPz420\AppData\Local\Temp\ccnARKWM.s 			page 1


   1              		.syntax unified
   2              		.cpu cortex-m3
   3              		.fpu softvfp
   4              		.eabi_attribute 20, 1
   5              		.eabi_attribute 21, 1
   6              		.eabi_attribute 23, 3
   7              		.eabi_attribute 24, 1
   8              		.eabi_attribute 25, 1
   9              		.eabi_attribute 26, 1
  10              		.eabi_attribute 30, 1
  11              		.eabi_attribute 34, 1
  12              		.eabi_attribute 18, 4
  13              		.thumb
  14              		.syntax unified
  15              		.file	"FrontPanel.c"
  16              		.text
  17              	.Ltext0:
  18              		.cfi_sections	.debug_frame
  19              		.section	.text.readRegister_MCP23017,"ax",%progbits
  20              		.align	2
  21              		.global	readRegister_MCP23017
  22              		.thumb
  23              		.thumb_func
  24              		.type	readRegister_MCP23017, %function
  25              	readRegister_MCP23017:
  26              	.LFB68:
  27              		.file 1 "FrontPanel.c"
   1:FrontPanel.c  **** /* ========================================
   2:FrontPanel.c  ****  *
   3:FrontPanel.c  ****  * Copyright Land Boards, LLC, 2019.
   4:FrontPanel.c  ****  * All Rights Reserved
   5:FrontPanel.c  ****  * UNPUBLISHED, LICENSED SOFTWARE.
   6:FrontPanel.c  ****  *
   7:FrontPanel.c  ****  * CONFIDENTIAL AND PROPRIETARY INFORMATION
   8:FrontPanel.c  ****  * WHICH IS THE PROPERTY OF LAND BOARDS. LLC.
   9:FrontPanel.c  ****  *
  10:FrontPanel.c  ****  * ========================================
  11:FrontPanel.c  **** */
  12:FrontPanel.c  **** 
  13:FrontPanel.c  **** #include <project.h>
  14:FrontPanel.c  **** #include "FrontPanel.h"
  15:FrontPanel.c  **** 
  16:FrontPanel.c  **** #define MCP23017_IODIR_DEFVAL    0xff       // Initially set all channels to inputs
  17:FrontPanel.c  **** #define MCP23017_IODIR_ALL_INS   0xff
  18:FrontPanel.c  **** #define MCP23017_IODIR_ALL_OUTS  0x00
  19:FrontPanel.c  **** 
  20:FrontPanel.c  **** #define MCP23017_IPOL_INVERT     0xFF       // Input polarity = invert jumpers
  21:FrontPanel.c  **** #define MCP23017_GPINTEN_DISABLE 0x00       // Disable GPIO for interrupt on change
  22:FrontPanel.c  **** #define MCP23017_GPINTEN_ENABLE  0xFF       // Enable GPIO for interrupt on change
  23:FrontPanel.c  **** #define MCP23017_INTCON_DEFVAL   0x00       // Int for change from previous pin
  24:FrontPanel.c  **** #define MCP23017_IOCON_DEFVAL    0x04       // Disable sequential,  active-low
  25:FrontPanel.c  **** #define MCP23017_GPPU_DISABLE    0x00       // Disable pull-ups
  26:FrontPanel.c  **** #define MCP23017_GPPU_ENABLE     0xFF       // Enable pull-ups
  27:FrontPanel.c  **** 
  28:FrontPanel.c  **** //////////////////////////////////////////////////////////////////////////////
  29:FrontPanel.c  **** // Front Panel Handler
  30:FrontPanel.c  **** // Starts at CPU address = 0
ARM GAS  C:\Users\HPz420\AppData\Local\Temp\ccnARKWM.s 			page 2


  31:FrontPanel.c  **** //////////////////////////////////////////////////////////////////////////////
  32:FrontPanel.c  **** 
  33:FrontPanel.c  **** // Global variables
  34:FrontPanel.c  **** uint8 FPData;       // Data that is on the Front Panel (bottom 8 LEDs)
  35:FrontPanel.c  **** uint16 FPAddr;      // Address that is on the Front Panel (middle 16 lEDs)
  36:FrontPanel.c  **** uint8 FPCtrl;       // Control that is on the Front Panel (top 8 LEDs)
  37:FrontPanel.c  **** uint32 FPLong;      // Long value of the Front Panel
  38:FrontPanel.c  **** 
  39:FrontPanel.c  **** // Bits of FPCtrl
  40:FrontPanel.c  **** #define INC_ADDR    0x01    // Increment address and read memory value at next address
  41:FrontPanel.c  **** #define ST_INC      0x02    // Store data value, increment address and read next memory 
  42:FrontPanel.c  **** #define LD_ADDR     0x04    // Load address bits and read memory
  43:FrontPanel.c  **** #define RUN_SW      0x80    // Run Switch
  44:FrontPanel.c  **** 
  45:FrontPanel.c  **** //////////////////////////////////////////////////////////////////////////////
  46:FrontPanel.c  **** // Function prototypes
  47:FrontPanel.c  **** 
  48:FrontPanel.c  **** 
  49:FrontPanel.c  **** //////////////////////////////////////////////////////////////////////////////
  50:FrontPanel.c  **** // init_FrontPanel() - Switches are on Port A, LEDs are on Port B
  51:FrontPanel.c  **** 
  52:FrontPanel.c  **** void init_FrontPanel(void)
  53:FrontPanel.c  **** {
  54:FrontPanel.c  ****     uint8 chipAddr;
  55:FrontPanel.c  ****     for (chipAddr = 0x24; chipAddr < 0x28; chipAddr++)
  56:FrontPanel.c  ****     {
  57:FrontPanel.c  ****         writeRegister_MCP23017(chipAddr,MCP23017_IODIRA_REGADR,MCP23017_IODIR_ALL_INS);     // IO: 
  58:FrontPanel.c  ****         writeRegister_MCP23017(chipAddr,MCP23017_IODIRB_REGADR,MCP23017_IODIR_ALL_OUTS);    // IO: 
  59:FrontPanel.c  ****         writeRegister_MCP23017(chipAddr,MCP23017_IPOLA_REGADR,MCP23017_IPOL_INVERT);        // IP: 
  60:FrontPanel.c  ****         writeRegister_MCP23017(chipAddr,MCP23017_GPINTENA_REGADR,MCP23017_GPINTEN_ENABLE);  // GPIN
  61:FrontPanel.c  ****         writeRegister_MCP23017(chipAddr,MCP23017_GPINTENB_REGADR,MCP23017_GPINTEN_DISABLE); // GPIN
  62:FrontPanel.c  ****         writeRegister_MCP23017(chipAddr,MCP23017_DEFVALA_REGADR,0xFF);                      // Defa
  63:FrontPanel.c  ****         writeRegister_MCP23017(chipAddr,MCP23017_INTCONA_REGADR,MCP23017_INTCON_DEFVAL);    // Int 
  64:FrontPanel.c  ****         writeRegister_MCP23017(chipAddr,MCP23017_IOCONA_REGADR,MCP23017_IOCON_DEFVAL);      // BANK
  65:FrontPanel.c  ****                                                                                             // MIRR
  66:FrontPanel.c  ****                                                                                             // SEQO
  67:FrontPanel.c  ****                                                                                             // HAEN
  68:FrontPanel.c  ****                                                                                             // ODR:
  69:FrontPanel.c  ****                                                                                             // INTP
  70:FrontPanel.c  ****         writeRegister_MCP23017(chipAddr,MCP23017_IOCONB_REGADR,MCP23017_IOCON_DEFVAL);      // Int 
  71:FrontPanel.c  ****         writeRegister_MCP23017(chipAddr,MCP23017_GPPUA_REGADR,MCP23017_GPPU_ENABLE);        // Pull
  72:FrontPanel.c  ****         readRegister_MCP23017(chipAddr,MCP23017_INTCAPA_REGADR);                            // Clea
  73:FrontPanel.c  ****     }
  74:FrontPanel.c  ****     FPData = 0;
  75:FrontPanel.c  ****     FPAddr = 0;
  76:FrontPanel.c  ****     FPCtrl = 0;
  77:FrontPanel.c  ****     FPLong = 0;
  78:FrontPanel.c  **** }
  79:FrontPanel.c  **** 
  80:FrontPanel.c  **** //////////////////////////////////////////////////////////////////////////////////////
  81:FrontPanel.c  **** // readFrontPanelSwitchesRegistered
  82:FrontPanel.c  **** //  Handler for the Pushbuttons and LEDs
  83:FrontPanel.c  **** //  Toggles the LED
  84:FrontPanel.c  **** //  Reads all four MCP23017 Port A's to make a 32-bit result
  85:FrontPanel.c  **** //  Looks for the switch to be pressed for 3 samples in a row
  86:FrontPanel.c  **** // Returns: 0 if there was no key pressed
  87:FrontPanel.c  **** //          1 if there was a key pressed
ARM GAS  C:\Users\HPz420\AppData\Local\Temp\ccnARKWM.s 			page 3


  88:FrontPanel.c  **** 
  89:FrontPanel.c  **** uint32 readFrontPanelSwitchesRegistered(void)
  90:FrontPanel.c  **** {
  91:FrontPanel.c  ****     uint32 rdVal;
  92:FrontPanel.c  ****     uint32 retVal = 0;
  93:FrontPanel.c  ****     uint32 valMin1 = 0;
  94:FrontPanel.c  ****     uint32 valMin2 = 0;
  95:FrontPanel.c  ****     uint32 valMin3 = 0;
  96:FrontPanel.c  ****     uint8 keyPressed = 0;
  97:FrontPanel.c  ****     rdVal = readFrontPanelSwitchesStatic();
  98:FrontPanel.c  ****     if (rdVal  == 0x00)     // No key is pressed at this polling
  99:FrontPanel.c  ****     {
 100:FrontPanel.c  ****         valMin1 = 0;
 101:FrontPanel.c  ****         valMin2 = 0;
 102:FrontPanel.c  ****         valMin3 = 0;
 103:FrontPanel.c  ****         return(0);
 104:FrontPanel.c  ****     }
 105:FrontPanel.c  ****     else    // key is now pressed
 106:FrontPanel.c  ****     {
 107:FrontPanel.c  ****         keyPressed = 1;
 108:FrontPanel.c  ****         while (keyPressed)  // stick around until key is no longer pressed
 109:FrontPanel.c  ****         {
 110:FrontPanel.c  ****             rdVal = readFrontPanelSwitchesStatic();
 111:FrontPanel.c  ****             if (rdVal == 0)
 112:FrontPanel.c  ****             {
 113:FrontPanel.c  ****                 keyPressed = 0;
 114:FrontPanel.c  ****                 valMin1 = 0;
 115:FrontPanel.c  ****                 valMin2 = 0;
 116:FrontPanel.c  ****                 valMin3 = 0;
 117:FrontPanel.c  ****                 return(retVal);
 118:FrontPanel.c  ****             }
 119:FrontPanel.c  ****             valMin3 = valMin2;
 120:FrontPanel.c  ****             valMin2 = valMin1;
 121:FrontPanel.c  ****             valMin1 = rdVal;
 122:FrontPanel.c  ****             if ((valMin3 == 0) && (valMin2 != 0) && (valMin1 != 0) && (rdVal != 0))
 123:FrontPanel.c  ****             {
 124:FrontPanel.c  ****                 retVal = valMin2;
 125:FrontPanel.c  ****             }
 126:FrontPanel.c  ****             CyDelay(10);    // 10 mS sampling for debouncing
 127:FrontPanel.c  ****         }
 128:FrontPanel.c  ****     }
 129:FrontPanel.c  ****     return (retVal);
 130:FrontPanel.c  **** }
 131:FrontPanel.c  **** 
 132:FrontPanel.c  **** //////////////////////////////////////////////////////////////////////////////////////
 133:FrontPanel.c  **** // waitFrontPanelSwitchesPressed() - Wait for switch to be pressed and return value
 134:FrontPanel.c  **** 
 135:FrontPanel.c  **** uint32 waitFrontPanelSwitchesPressed(void)
 136:FrontPanel.c  **** {
 137:FrontPanel.c  ****     uint32 switchVals = 0;
 138:FrontPanel.c  ****     while (switchVals == 0)
 139:FrontPanel.c  ****     {   
 140:FrontPanel.c  ****         switchVals = readFrontPanelSwitchesRegistered();
 141:FrontPanel.c  ****         if (switchVals != 0x0)
 142:FrontPanel.c  ****             return (switchVals);
 143:FrontPanel.c  ****     }
 144:FrontPanel.c  ****     return (0);
ARM GAS  C:\Users\HPz420\AppData\Local\Temp\ccnARKWM.s 			page 4


 145:FrontPanel.c  **** }
 146:FrontPanel.c  **** 
 147:FrontPanel.c  **** //////////////////////////////////////////////////////////////////////////////////////
 148:FrontPanel.c  **** // readFrontPanelSwitchesStatic() - Reads the current value of the actual switches
 149:FrontPanel.c  **** //  Reads all four MCP23017 Port A's to make a 32-bit result
 150:FrontPanel.c  **** 
 151:FrontPanel.c  **** uint32 readFrontPanelSwitchesStatic(void)
 152:FrontPanel.c  **** {
 153:FrontPanel.c  ****     uint32 switchVals = 0;
 154:FrontPanel.c  ****     switchVals = readRegister_MCP23017(MCP23017_0,MCP23017_GPIOA_REGADR);
 155:FrontPanel.c  ****     switchVals = switchVals<<8;
 156:FrontPanel.c  ****     switchVals |= readRegister_MCP23017(MCP23017_1,MCP23017_GPIOA_REGADR);
 157:FrontPanel.c  ****     switchVals = switchVals<<8;
 158:FrontPanel.c  ****     switchVals |= readRegister_MCP23017(MCP23017_2,MCP23017_GPIOA_REGADR);
 159:FrontPanel.c  ****     switchVals = switchVals<<8;
 160:FrontPanel.c  ****     switchVals |= readRegister_MCP23017(MCP23017_3,MCP23017_GPIOA_REGADR);
 161:FrontPanel.c  ****     return (switchVals);
 162:FrontPanel.c  **** }
 163:FrontPanel.c  **** 
 164:FrontPanel.c  **** //////////////////////////////////////////////////////////////////////////////////////
 165:FrontPanel.c  **** // writeFrontPanelLEDs(uint32) - Write a 32-bit value to the Front Panel LEDs
 166:FrontPanel.c  **** 
 167:FrontPanel.c  **** void writeFrontPanelLEDs(uint32 ledsVal)
 168:FrontPanel.c  **** {
 169:FrontPanel.c  ****     writeRegister_MCP23017(MCP23017_0,MCP23017_OLATB_REGADR,((ledsVal>>24) & 0xff));
 170:FrontPanel.c  ****     writeRegister_MCP23017(MCP23017_1,MCP23017_OLATB_REGADR,((ledsVal>>16) & 0xff));
 171:FrontPanel.c  ****     writeRegister_MCP23017(MCP23017_2,MCP23017_OLATB_REGADR,((ledsVal>>8) & 0xff));
 172:FrontPanel.c  ****     writeRegister_MCP23017(MCP23017_3,MCP23017_OLATB_REGADR,ledsVal&0xff);
 173:FrontPanel.c  **** }
 174:FrontPanel.c  **** 
 175:FrontPanel.c  **** //////////////////////////////////////////////////////////////////////////////////////
 176:FrontPanel.c  **** // I2C Low Level Hardware access functions
 177:FrontPanel.c  **** 
 178:FrontPanel.c  **** //////////////////////////////////////////////////////////////////////////////////////
 179:FrontPanel.c  **** //
 180:FrontPanel.c  **** //////////////////////////////////////////////////////////////////////////////////////
 181:FrontPanel.c  **** 
 182:FrontPanel.c  **** uint8 readRegister_MCP23017(uint8 chipAddr, uint8 ctrlAdr)
 183:FrontPanel.c  **** {
  28              		.loc 1 183 0
  29              		.cfi_startproc
  30              		@ args = 0, pretend = 0, frame = 0
  31              		@ frame_needed = 0, uses_anonymous_args = 0
  32              	.LVL0:
  33 0000 38B5     		push	{r3, r4, r5, lr}
  34              		.cfi_def_cfa_offset 16
  35              		.cfi_offset 3, -16
  36              		.cfi_offset 4, -12
  37              		.cfi_offset 5, -8
  38              		.cfi_offset 14, -4
  39 0002 0446     		mov	r4, r0
  40 0004 0D46     		mov	r5, r1
 184:FrontPanel.c  ****     uint8 rdBuff;
 185:FrontPanel.c  **** 
 186:FrontPanel.c  ****     I2C_MasterClearStatus();
  41              		.loc 1 186 0
  42 0006 FFF7FEFF 		bl	I2C_MasterClearStatus
ARM GAS  C:\Users\HPz420\AppData\Local\Temp\ccnARKWM.s 			page 5


  43              	.LVL1:
 187:FrontPanel.c  ****     I2C_MasterSendStart(chipAddr,I2C_WRITE_XFER_MODE);
  44              		.loc 1 187 0
  45 000a 0021     		movs	r1, #0
  46 000c 2046     		mov	r0, r4
  47 000e FFF7FEFF 		bl	I2C_MasterSendStart
  48              	.LVL2:
 188:FrontPanel.c  ****     I2C_MasterWriteByte(ctrlAdr);
  49              		.loc 1 188 0
  50 0012 2846     		mov	r0, r5
  51 0014 FFF7FEFF 		bl	I2C_MasterWriteByte
  52              	.LVL3:
 189:FrontPanel.c  ****     I2C_MasterSendStop();
  53              		.loc 1 189 0
  54 0018 FFF7FEFF 		bl	I2C_MasterSendStop
  55              	.LVL4:
 190:FrontPanel.c  ****     I2C_MasterSendStart(chipAddr,I2C_READ_XFER_MODE);
  56              		.loc 1 190 0
  57 001c 0121     		movs	r1, #1
  58 001e 2046     		mov	r0, r4
  59 0020 FFF7FEFF 		bl	I2C_MasterSendStart
  60              	.LVL5:
 191:FrontPanel.c  ****     rdBuff = I2C_MasterReadByte(I2C_NAK_DATA);
  61              		.loc 1 191 0
  62 0024 0020     		movs	r0, #0
  63 0026 FFF7FEFF 		bl	I2C_MasterReadByte
  64              	.LVL6:
  65 002a 0446     		mov	r4, r0
  66              	.LVL7:
 192:FrontPanel.c  ****     I2C_MasterSendStop();
  67              		.loc 1 192 0
  68 002c FFF7FEFF 		bl	I2C_MasterSendStop
  69              	.LVL8:
 193:FrontPanel.c  ****     I2C_MasterClearStatus();
  70              		.loc 1 193 0
  71 0030 FFF7FEFF 		bl	I2C_MasterClearStatus
  72              	.LVL9:
 194:FrontPanel.c  ****     return rdBuff;
 195:FrontPanel.c  **** 
 196:FrontPanel.c  **** }
  73              		.loc 1 196 0
  74 0034 2046     		mov	r0, r4
  75 0036 38BD     		pop	{r3, r4, r5, pc}
  76              		.cfi_endproc
  77              	.LFE68:
  78              		.size	readRegister_MCP23017, .-readRegister_MCP23017
  79              		.section	.text.readFrontPanelSwitchesStatic,"ax",%progbits
  80              		.align	2
  81              		.global	readFrontPanelSwitchesStatic
  82              		.thumb
  83              		.thumb_func
  84              		.type	readFrontPanelSwitchesStatic, %function
  85              	readFrontPanelSwitchesStatic:
  86              	.LFB66:
 152:FrontPanel.c  ****     uint32 switchVals = 0;
  87              		.loc 1 152 0
  88              		.cfi_startproc
ARM GAS  C:\Users\HPz420\AppData\Local\Temp\ccnARKWM.s 			page 6


  89              		@ args = 0, pretend = 0, frame = 0
  90              		@ frame_needed = 0, uses_anonymous_args = 0
  91 0000 10B5     		push	{r4, lr}
  92              		.cfi_def_cfa_offset 8
  93              		.cfi_offset 4, -8
  94              		.cfi_offset 14, -4
  95              	.LVL10:
 154:FrontPanel.c  ****     switchVals = switchVals<<8;
  96              		.loc 1 154 0
  97 0002 1221     		movs	r1, #18
  98 0004 2420     		movs	r0, #36
  99 0006 FFF7FEFF 		bl	readRegister_MCP23017
 100              	.LVL11:
 155:FrontPanel.c  ****     switchVals |= readRegister_MCP23017(MCP23017_1,MCP23017_GPIOA_REGADR);
 101              		.loc 1 155 0
 102 000a 0402     		lsls	r4, r0, #8
 103              	.LVL12:
 156:FrontPanel.c  ****     switchVals = switchVals<<8;
 104              		.loc 1 156 0
 105 000c 1221     		movs	r1, #18
 106 000e 2520     		movs	r0, #37
 107 0010 FFF7FEFF 		bl	readRegister_MCP23017
 108              	.LVL13:
 109 0014 2043     		orrs	r0, r0, r4
 110              	.LVL14:
 157:FrontPanel.c  ****     switchVals |= readRegister_MCP23017(MCP23017_2,MCP23017_GPIOA_REGADR);
 111              		.loc 1 157 0
 112 0016 0402     		lsls	r4, r0, #8
 113              	.LVL15:
 158:FrontPanel.c  ****     switchVals = switchVals<<8;
 114              		.loc 1 158 0
 115 0018 1221     		movs	r1, #18
 116 001a 2620     		movs	r0, #38
 117 001c FFF7FEFF 		bl	readRegister_MCP23017
 118              	.LVL16:
 119 0020 2043     		orrs	r0, r0, r4
 120              	.LVL17:
 159:FrontPanel.c  ****     switchVals |= readRegister_MCP23017(MCP23017_3,MCP23017_GPIOA_REGADR);
 121              		.loc 1 159 0
 122 0022 0402     		lsls	r4, r0, #8
 123              	.LVL18:
 160:FrontPanel.c  ****     return (switchVals);
 124              		.loc 1 160 0
 125 0024 1221     		movs	r1, #18
 126 0026 2720     		movs	r0, #39
 127 0028 FFF7FEFF 		bl	readRegister_MCP23017
 128              	.LVL19:
 162:FrontPanel.c  **** 
 129              		.loc 1 162 0
 130 002c 2043     		orrs	r0, r0, r4
 131              	.LVL20:
 132 002e 10BD     		pop	{r4, pc}
 133              		.cfi_endproc
 134              	.LFE66:
 135              		.size	readFrontPanelSwitchesStatic, .-readFrontPanelSwitchesStatic
 136              		.section	.text.readFrontPanelSwitchesRegistered,"ax",%progbits
 137              		.align	2
ARM GAS  C:\Users\HPz420\AppData\Local\Temp\ccnARKWM.s 			page 7


 138              		.global	readFrontPanelSwitchesRegistered
 139              		.thumb
 140              		.thumb_func
 141              		.type	readFrontPanelSwitchesRegistered, %function
 142              	readFrontPanelSwitchesRegistered:
 143              	.LFB64:
  90:FrontPanel.c  ****     uint32 rdVal;
 144              		.loc 1 90 0
 145              		.cfi_startproc
 146              		@ args = 0, pretend = 0, frame = 0
 147              		@ frame_needed = 0, uses_anonymous_args = 0
 148 0000 F8B5     		push	{r3, r4, r5, r6, r7, lr}
 149              		.cfi_def_cfa_offset 24
 150              		.cfi_offset 3, -24
 151              		.cfi_offset 4, -20
 152              		.cfi_offset 5, -16
 153              		.cfi_offset 6, -12
 154              		.cfi_offset 7, -8
 155              		.cfi_offset 14, -4
 156              	.LVL21:
  97:FrontPanel.c  ****     if (rdVal  == 0x00)     // No key is pressed at this polling
 157              		.loc 1 97 0
 158 0002 FFF7FEFF 		bl	readFrontPanelSwitchesStatic
 159              	.LVL22:
  98:FrontPanel.c  ****     {
 160              		.loc 1 98 0
 161 0006 A0B1     		cbz	r0, .L10
 162 0008 0026     		movs	r6, #0
 163 000a 3446     		mov	r4, r6
 164 000c 3746     		mov	r7, r6
 165 000e 09E0     		b	.L7
 166              	.LVL23:
 167              	.L9:
 122:FrontPanel.c  ****             {
 168              		.loc 1 122 0
 169 0010 1EB9     		cbnz	r6, .L8
 122:FrontPanel.c  ****             {
 170              		.loc 1 122 0 is_stmt 0 discriminator 1
 171 0012 14B1     		cbz	r4, .L8
 122:FrontPanel.c  ****             {
 172              		.loc 1 122 0 discriminator 2
 173 0014 0DB1     		cbz	r5, .L8
 122:FrontPanel.c  ****             {
 174              		.loc 1 122 0 discriminator 3
 175 0016 05B1     		cbz	r5, .L8
 124:FrontPanel.c  ****             }
 176              		.loc 1 124 0 is_stmt 1
 177 0018 2746     		mov	r7, r4
 178              	.LVL24:
 179              	.L8:
 126:FrontPanel.c  ****         }
 180              		.loc 1 126 0
 181 001a 0A20     		movs	r0, #10
 182              	.LVL25:
 183 001c FFF7FEFF 		bl	CyDelay
 184              	.LVL26:
 120:FrontPanel.c  ****             valMin1 = rdVal;
ARM GAS  C:\Users\HPz420\AppData\Local\Temp\ccnARKWM.s 			page 8


 185              		.loc 1 120 0
 186 0020 2646     		mov	r6, r4
 187              	.LVL27:
 121:FrontPanel.c  ****             if ((valMin3 == 0) && (valMin2 != 0) && (valMin1 != 0) && (rdVal != 0))
 188              		.loc 1 121 0
 189 0022 2C46     		mov	r4, r5
 190              	.LVL28:
 191              	.L7:
 110:FrontPanel.c  ****             if (rdVal == 0)
 192              		.loc 1 110 0
 193 0024 FFF7FEFF 		bl	readFrontPanelSwitchesStatic
 194              	.LVL29:
 111:FrontPanel.c  ****             {
 195              		.loc 1 111 0
 196 0028 0546     		mov	r5, r0
 197 002a 0028     		cmp	r0, #0
 198 002c F0D1     		bne	.L9
 117:FrontPanel.c  ****             }
 199              		.loc 1 117 0
 200 002e 3846     		mov	r0, r7
 201              	.LVL30:
 202 0030 F8BD     		pop	{r3, r4, r5, r6, r7, pc}
 203              	.LVL31:
 204              	.L10:
 103:FrontPanel.c  ****     }
 205              		.loc 1 103 0
 206 0032 0020     		movs	r0, #0
 207              	.LVL32:
 130:FrontPanel.c  **** 
 208              		.loc 1 130 0
 209 0034 F8BD     		pop	{r3, r4, r5, r6, r7, pc}
 210              		.cfi_endproc
 211              	.LFE64:
 212              		.size	readFrontPanelSwitchesRegistered, .-readFrontPanelSwitchesRegistered
 213 0036 00BF     		.section	.text.waitFrontPanelSwitchesPressed,"ax",%progbits
 214              		.align	2
 215              		.global	waitFrontPanelSwitchesPressed
 216              		.thumb
 217              		.thumb_func
 218              		.type	waitFrontPanelSwitchesPressed, %function
 219              	waitFrontPanelSwitchesPressed:
 220              	.LFB65:
 136:FrontPanel.c  ****     uint32 switchVals = 0;
 221              		.loc 1 136 0
 222              		.cfi_startproc
 223              		@ args = 0, pretend = 0, frame = 0
 224              		@ frame_needed = 0, uses_anonymous_args = 0
 225 0000 08B5     		push	{r3, lr}
 226              		.cfi_def_cfa_offset 8
 227              		.cfi_offset 3, -8
 228              		.cfi_offset 14, -4
 229              	.LVL33:
 137:FrontPanel.c  ****     while (switchVals == 0)
 230              		.loc 1 137 0
 231 0002 0023     		movs	r3, #0
 138:FrontPanel.c  ****     {   
 232              		.loc 1 138 0
ARM GAS  C:\Users\HPz420\AppData\Local\Temp\ccnARKWM.s 			page 9


 233 0004 03E0     		b	.L14
 234              	.LVL34:
 235              	.L16:
 140:FrontPanel.c  ****         if (switchVals != 0x0)
 236              		.loc 1 140 0
 237 0006 FFF7FEFF 		bl	readFrontPanelSwitchesRegistered
 238              	.LVL35:
 141:FrontPanel.c  ****             return (switchVals);
 239              		.loc 1 141 0
 240 000a 0346     		mov	r3, r0
 241 000c 18B9     		cbnz	r0, .L17
 242              	.LVL36:
 243              	.L14:
 138:FrontPanel.c  ****     {   
 244              		.loc 1 138 0
 245 000e 002B     		cmp	r3, #0
 246 0010 F9D0     		beq	.L16
 144:FrontPanel.c  **** }
 247              		.loc 1 144 0
 248 0012 0020     		movs	r0, #0
 249 0014 08BD     		pop	{r3, pc}
 250              	.LVL37:
 251              	.L17:
 145:FrontPanel.c  **** 
 252              		.loc 1 145 0
 253 0016 08BD     		pop	{r3, pc}
 254              		.cfi_endproc
 255              	.LFE65:
 256              		.size	waitFrontPanelSwitchesPressed, .-waitFrontPanelSwitchesPressed
 257              		.section	.text.writeRegister_MCP23017,"ax",%progbits
 258              		.align	2
 259              		.global	writeRegister_MCP23017
 260              		.thumb
 261              		.thumb_func
 262              		.type	writeRegister_MCP23017, %function
 263              	writeRegister_MCP23017:
 264              	.LFB69:
 197:FrontPanel.c  **** 
 198:FrontPanel.c  **** //////////////////////////////////////////////////////////////////////////////////////
 199:FrontPanel.c  **** //
 200:FrontPanel.c  **** //////////////////////////////////////////////////////////////////////////////////////
 201:FrontPanel.c  **** 
 202:FrontPanel.c  **** void writeRegister_MCP23017(uint8 chipAddr, uint8 ctrlAdr, uint8 ctrlVal)
 203:FrontPanel.c  **** {
 265              		.loc 1 203 0
 266              		.cfi_startproc
 267              		@ args = 0, pretend = 0, frame = 8
 268              		@ frame_needed = 0, uses_anonymous_args = 0
 269              	.LVL38:
 270 0000 70B5     		push	{r4, r5, r6, lr}
 271              		.cfi_def_cfa_offset 16
 272              		.cfi_offset 4, -16
 273              		.cfi_offset 5, -12
 274              		.cfi_offset 6, -8
 275              		.cfi_offset 14, -4
 276 0002 82B0     		sub	sp, sp, #8
 277              		.cfi_def_cfa_offset 24
ARM GAS  C:\Users\HPz420\AppData\Local\Temp\ccnARKWM.s 			page 10


 278 0004 0446     		mov	r4, r0
 279 0006 0E46     		mov	r6, r1
 280 0008 1546     		mov	r5, r2
 204:FrontPanel.c  **** uint8 MCP23017_WrBuffer[2];
 205:FrontPanel.c  ****     I2C_MasterClearStatus();
 281              		.loc 1 205 0
 282 000a FFF7FEFF 		bl	I2C_MasterClearStatus
 283              	.LVL39:
 206:FrontPanel.c  ****     MCP23017_WrBuffer[0] = ctrlAdr;
 284              		.loc 1 206 0
 285 000e 8DF80460 		strb	r6, [sp, #4]
 207:FrontPanel.c  ****     MCP23017_WrBuffer[1] = ctrlVal;
 286              		.loc 1 207 0
 287 0012 8DF80550 		strb	r5, [sp, #5]
 208:FrontPanel.c  ****     I2C_MasterWriteBuf(chipAddr, MCP23017_WrBuffer, 2, I2C_MODE_COMPLETE_XFER);
 288              		.loc 1 208 0
 289 0016 0023     		movs	r3, #0
 290 0018 0222     		movs	r2, #2
 291 001a 01A9     		add	r1, sp, #4
 292 001c 2046     		mov	r0, r4
 293 001e FFF7FEFF 		bl	I2C_MasterWriteBuf
 294              	.LVL40:
 295              	.L20:
 209:FrontPanel.c  ****     while (0u == (I2C_MasterStatus() & I2C_MSTAT_WR_CMPLT));
 296              		.loc 1 209 0 discriminator 1
 297 0022 FFF7FEFF 		bl	I2C_MasterStatus
 298              	.LVL41:
 299 0026 10F0020F 		tst	r0, #2
 300 002a FAD0     		beq	.L20
 210:FrontPanel.c  ****     I2C_MasterClearStatus();
 301              		.loc 1 210 0
 302 002c FFF7FEFF 		bl	I2C_MasterClearStatus
 303              	.LVL42:
 211:FrontPanel.c  **** }
 304              		.loc 1 211 0
 305 0030 02B0     		add	sp, sp, #8
 306              		.cfi_def_cfa_offset 16
 307              		@ sp needed
 308 0032 70BD     		pop	{r4, r5, r6, pc}
 309              		.cfi_endproc
 310              	.LFE69:
 311              		.size	writeRegister_MCP23017, .-writeRegister_MCP23017
 312              		.section	.text.init_FrontPanel,"ax",%progbits
 313              		.align	2
 314              		.global	init_FrontPanel
 315              		.thumb
 316              		.thumb_func
 317              		.type	init_FrontPanel, %function
 318              	init_FrontPanel:
 319              	.LFB63:
  53:FrontPanel.c  ****     uint8 chipAddr;
 320              		.loc 1 53 0
 321              		.cfi_startproc
 322              		@ args = 0, pretend = 0, frame = 0
 323              		@ frame_needed = 0, uses_anonymous_args = 0
 324 0000 10B5     		push	{r4, lr}
 325              		.cfi_def_cfa_offset 8
ARM GAS  C:\Users\HPz420\AppData\Local\Temp\ccnARKWM.s 			page 11


 326              		.cfi_offset 4, -8
 327              		.cfi_offset 14, -4
 328              	.LVL43:
  55:FrontPanel.c  ****     {
 329              		.loc 1 55 0
 330 0002 2424     		movs	r4, #36
 331 0004 37E0     		b	.L23
 332              	.LVL44:
 333              	.L24:
  57:FrontPanel.c  ****         writeRegister_MCP23017(chipAddr,MCP23017_IODIRB_REGADR,MCP23017_IODIR_ALL_OUTS);    // IO: 
 334              		.loc 1 57 0 discriminator 3
 335 0006 FF22     		movs	r2, #255
 336 0008 0021     		movs	r1, #0
 337 000a 2046     		mov	r0, r4
 338 000c FFF7FEFF 		bl	writeRegister_MCP23017
 339              	.LVL45:
  58:FrontPanel.c  ****         writeRegister_MCP23017(chipAddr,MCP23017_IPOLA_REGADR,MCP23017_IPOL_INVERT);        // IP: 
 340              		.loc 1 58 0 discriminator 3
 341 0010 0022     		movs	r2, #0
 342 0012 0121     		movs	r1, #1
 343 0014 2046     		mov	r0, r4
 344 0016 FFF7FEFF 		bl	writeRegister_MCP23017
 345              	.LVL46:
  59:FrontPanel.c  ****         writeRegister_MCP23017(chipAddr,MCP23017_GPINTENA_REGADR,MCP23017_GPINTEN_ENABLE);  // GPIN
 346              		.loc 1 59 0 discriminator 3
 347 001a FF22     		movs	r2, #255
 348 001c 0221     		movs	r1, #2
 349 001e 2046     		mov	r0, r4
 350 0020 FFF7FEFF 		bl	writeRegister_MCP23017
 351              	.LVL47:
  60:FrontPanel.c  ****         writeRegister_MCP23017(chipAddr,MCP23017_GPINTENB_REGADR,MCP23017_GPINTEN_DISABLE); // GPIN
 352              		.loc 1 60 0 discriminator 3
 353 0024 FF22     		movs	r2, #255
 354 0026 0421     		movs	r1, #4
 355 0028 2046     		mov	r0, r4
 356 002a FFF7FEFF 		bl	writeRegister_MCP23017
 357              	.LVL48:
  61:FrontPanel.c  ****         writeRegister_MCP23017(chipAddr,MCP23017_DEFVALA_REGADR,0xFF);                      // Defa
 358              		.loc 1 61 0 discriminator 3
 359 002e 0022     		movs	r2, #0
 360 0030 0521     		movs	r1, #5
 361 0032 2046     		mov	r0, r4
 362 0034 FFF7FEFF 		bl	writeRegister_MCP23017
 363              	.LVL49:
  62:FrontPanel.c  ****         writeRegister_MCP23017(chipAddr,MCP23017_INTCONA_REGADR,MCP23017_INTCON_DEFVAL);    // Int 
 364              		.loc 1 62 0 discriminator 3
 365 0038 FF22     		movs	r2, #255
 366 003a 0621     		movs	r1, #6
 367 003c 2046     		mov	r0, r4
 368 003e FFF7FEFF 		bl	writeRegister_MCP23017
 369              	.LVL50:
  63:FrontPanel.c  ****         writeRegister_MCP23017(chipAddr,MCP23017_IOCONA_REGADR,MCP23017_IOCON_DEFVAL);      // BANK
 370              		.loc 1 63 0 discriminator 3
 371 0042 0022     		movs	r2, #0
 372 0044 0821     		movs	r1, #8
 373 0046 2046     		mov	r0, r4
 374 0048 FFF7FEFF 		bl	writeRegister_MCP23017
ARM GAS  C:\Users\HPz420\AppData\Local\Temp\ccnARKWM.s 			page 12


 375              	.LVL51:
  64:FrontPanel.c  ****                                                                                             // MIRR
 376              		.loc 1 64 0 discriminator 3
 377 004c 0422     		movs	r2, #4
 378 004e 0A21     		movs	r1, #10
 379 0050 2046     		mov	r0, r4
 380 0052 FFF7FEFF 		bl	writeRegister_MCP23017
 381              	.LVL52:
  70:FrontPanel.c  ****         writeRegister_MCP23017(chipAddr,MCP23017_GPPUA_REGADR,MCP23017_GPPU_ENABLE);        // Pull
 382              		.loc 1 70 0 discriminator 3
 383 0056 0422     		movs	r2, #4
 384 0058 0B21     		movs	r1, #11
 385 005a 2046     		mov	r0, r4
 386 005c FFF7FEFF 		bl	writeRegister_MCP23017
 387              	.LVL53:
  71:FrontPanel.c  ****         readRegister_MCP23017(chipAddr,MCP23017_INTCAPA_REGADR);                            // Clea
 388              		.loc 1 71 0 discriminator 3
 389 0060 FF22     		movs	r2, #255
 390 0062 0C21     		movs	r1, #12
 391 0064 2046     		mov	r0, r4
 392 0066 FFF7FEFF 		bl	writeRegister_MCP23017
 393              	.LVL54:
  72:FrontPanel.c  ****     }
 394              		.loc 1 72 0 discriminator 3
 395 006a 1021     		movs	r1, #16
 396 006c 2046     		mov	r0, r4
 397 006e FFF7FEFF 		bl	readRegister_MCP23017
 398              	.LVL55:
  55:FrontPanel.c  ****     {
 399              		.loc 1 55 0 discriminator 3
 400 0072 0134     		adds	r4, r4, #1
 401              	.LVL56:
 402 0074 E4B2     		uxtb	r4, r4
 403              	.LVL57:
 404              	.L23:
  55:FrontPanel.c  ****     {
 405              		.loc 1 55 0 is_stmt 0 discriminator 1
 406 0076 272C     		cmp	r4, #39
 407 0078 C5D9     		bls	.L24
  74:FrontPanel.c  ****     FPAddr = 0;
 408              		.loc 1 74 0 is_stmt 1
 409 007a 0023     		movs	r3, #0
 410 007c 044A     		ldr	r2, .L26
 411 007e 1370     		strb	r3, [r2]
  75:FrontPanel.c  ****     FPCtrl = 0;
 412              		.loc 1 75 0
 413 0080 044A     		ldr	r2, .L26+4
 414 0082 1380     		strh	r3, [r2]	@ movhi
  76:FrontPanel.c  ****     FPLong = 0;
 415              		.loc 1 76 0
 416 0084 044A     		ldr	r2, .L26+8
 417 0086 1370     		strb	r3, [r2]
  77:FrontPanel.c  **** }
 418              		.loc 1 77 0
 419 0088 044A     		ldr	r2, .L26+12
 420 008a 1360     		str	r3, [r2]
 421 008c 10BD     		pop	{r4, pc}
ARM GAS  C:\Users\HPz420\AppData\Local\Temp\ccnARKWM.s 			page 13


 422              	.LVL58:
 423              	.L27:
 424 008e 00BF     		.align	2
 425              	.L26:
 426 0090 00000000 		.word	FPData
 427 0094 00000000 		.word	FPAddr
 428 0098 00000000 		.word	FPCtrl
 429 009c 00000000 		.word	FPLong
 430              		.cfi_endproc
 431              	.LFE63:
 432              		.size	init_FrontPanel, .-init_FrontPanel
 433              		.section	.text.writeFrontPanelLEDs,"ax",%progbits
 434              		.align	2
 435              		.global	writeFrontPanelLEDs
 436              		.thumb
 437              		.thumb_func
 438              		.type	writeFrontPanelLEDs, %function
 439              	writeFrontPanelLEDs:
 440              	.LFB67:
 168:FrontPanel.c  ****     writeRegister_MCP23017(MCP23017_0,MCP23017_OLATB_REGADR,((ledsVal>>24) & 0xff));
 441              		.loc 1 168 0
 442              		.cfi_startproc
 443              		@ args = 0, pretend = 0, frame = 0
 444              		@ frame_needed = 0, uses_anonymous_args = 0
 445              	.LVL59:
 446 0000 10B5     		push	{r4, lr}
 447              		.cfi_def_cfa_offset 8
 448              		.cfi_offset 4, -8
 449              		.cfi_offset 14, -4
 450 0002 0446     		mov	r4, r0
 169:FrontPanel.c  ****     writeRegister_MCP23017(MCP23017_1,MCP23017_OLATB_REGADR,((ledsVal>>16) & 0xff));
 451              		.loc 1 169 0
 452 0004 020E     		lsrs	r2, r0, #24
 453 0006 1521     		movs	r1, #21
 454 0008 2420     		movs	r0, #36
 455              	.LVL60:
 456 000a FFF7FEFF 		bl	writeRegister_MCP23017
 457              	.LVL61:
 170:FrontPanel.c  ****     writeRegister_MCP23017(MCP23017_2,MCP23017_OLATB_REGADR,((ledsVal>>8) & 0xff));
 458              		.loc 1 170 0
 459 000e C4F30742 		ubfx	r2, r4, #16, #8
 460 0012 1521     		movs	r1, #21
 461 0014 2520     		movs	r0, #37
 462 0016 FFF7FEFF 		bl	writeRegister_MCP23017
 463              	.LVL62:
 171:FrontPanel.c  ****     writeRegister_MCP23017(MCP23017_3,MCP23017_OLATB_REGADR,ledsVal&0xff);
 464              		.loc 1 171 0
 465 001a C4F30722 		ubfx	r2, r4, #8, #8
 466 001e 1521     		movs	r1, #21
 467 0020 2620     		movs	r0, #38
 468 0022 FFF7FEFF 		bl	writeRegister_MCP23017
 469              	.LVL63:
 172:FrontPanel.c  **** }
 470              		.loc 1 172 0
 471 0026 E2B2     		uxtb	r2, r4
 472 0028 1521     		movs	r1, #21
 473 002a 2720     		movs	r0, #39
ARM GAS  C:\Users\HPz420\AppData\Local\Temp\ccnARKWM.s 			page 14


 474 002c FFF7FEFF 		bl	writeRegister_MCP23017
 475              	.LVL64:
 476 0030 10BD     		pop	{r4, pc}
 477              		.cfi_endproc
 478              	.LFE67:
 479              		.size	writeFrontPanelLEDs, .-writeFrontPanelLEDs
 480              		.comm	FPLong,4,4
 481              		.comm	FPCtrl,1,1
 482              		.comm	FPAddr,2,2
 483              		.comm	FPData,1,1
 484 0032 00BF     		.text
 485              	.Letext0:
 486              		.file 2 "c:\\program files (x86)\\cypress\\psoc creator\\4.2\\psoc creator\\import\\gnu\\arm\\5.4.
 487              		.file 3 "c:\\program files (x86)\\cypress\\psoc creator\\4.2\\psoc creator\\import\\gnu\\arm\\5.4.
 488              		.file 4 "Generated_Source\\PSoC5/cytypes.h"
 489              		.file 5 "Generated_Source\\PSoC5/core_cm3.h"
 490              		.file 6 "Generated_Source\\PSoC5/I2C.h"
 491              		.file 7 "Generated_Source\\PSoC5/CyLib.h"