ARM GAS  C:\Users\DGILLI~1\AppData\Local\Temp\ccaxDynw.s 			page 1


   1              		.syntax unified
   2              		.cpu cortex-m3
   3              		.fpu softvfp
   4              		.eabi_attribute 20, 1
   5              		.eabi_attribute 21, 1
   6              		.eabi_attribute 23, 3
   7              		.eabi_attribute 24, 1
   8              		.eabi_attribute 25, 1
   9              		.eabi_attribute 26, 1
  10              		.eabi_attribute 30, 1
  11              		.eabi_attribute 34, 1
  12              		.eabi_attribute 18, 4
  13              		.thumb
  14              		.syntax unified
  15              		.file	"I2CIO8Driver.c"
  16              		.text
  17              	.Ltext0:
  18              		.cfi_sections	.debug_frame
  19              		.section	.text.readRegisterDIGIO8Card,"ax",%progbits
  20              		.align	2
  21              		.global	readRegisterDIGIO8Card
  22              		.thumb
  23              		.thumb_func
  24              		.type	readRegisterDIGIO8Card, %function
  25              	readRegisterDIGIO8Card:
  26              	.LFB63:
  27              		.file 1 "I2CIO8Driver.c"
   1:I2CIO8Driver.c **** /* ========================================
   2:I2CIO8Driver.c ****  * DIGIO8Driver.c
   3:I2CIO8Driver.c ****  * Copyright Land Boards LLC, 2017
   4:I2CIO8Driver.c ****  * All Rights Reserved
   5:I2CIO8Driver.c ****  * UNPUBLISHED, LICENSED SOFTWARE.
   6:I2CIO8Driver.c ****  *
   7:I2CIO8Driver.c ****  * CONFIDENTIAL AND PROPRIETARY INFORMATION
   8:I2CIO8Driver.c ****  * WHICH IS THE PROPERTY OF Land Boards, LLC.
   9:I2CIO8Driver.c ****  *
  10:I2CIO8Driver.c ****  * ========================================
  11:I2CIO8Driver.c **** */
  12:I2CIO8Driver.c **** 
  13:I2CIO8Driver.c **** #include <project.h>
  14:I2CIO8Driver.c **** 
  15:I2CIO8Driver.c **** uint8 myWrBuffer[2];
  16:I2CIO8Driver.c ****  
  17:I2CIO8Driver.c **** #define MCP23008_IODIR_REGADR    0x00
  18:I2CIO8Driver.c **** #define MCP23008_IPOL_REGADR     0x01
  19:I2CIO8Driver.c **** #define MCP23008_GPINTEN_REGADR  0x02
  20:I2CIO8Driver.c **** #define MCP23008_DEFVAL_REGADR   0x03
  21:I2CIO8Driver.c **** #define MCP23008_INTCON_REGADR   0x04
  22:I2CIO8Driver.c **** #define MCP23008_IOCON_REGADR    0x05
  23:I2CIO8Driver.c **** #define MCP23008_GPPU_REGADR     0x06
  24:I2CIO8Driver.c **** #define MCP23008_INTF_REGADR     0x07
  25:I2CIO8Driver.c **** #define MCP23008_INTCAP_REGADR   0x08
  26:I2CIO8Driver.c **** #define MCP23008_GPIO_REGADR     0x09
  27:I2CIO8Driver.c **** #define MCP23008_OLAT_REGADR     0x0a
  28:I2CIO8Driver.c **** 
  29:I2CIO8Driver.c **** #define MCP23008_IODIR_DEFVAL    0xf0       // Upper 4 bits=JumperIns, lower=LEDS
  30:I2CIO8Driver.c **** #define MCP23008_IPOL_DEFVAL     0xf0       // Input polarity = invert jumpers
ARM GAS  C:\Users\DGILLI~1\AppData\Local\Temp\ccaxDynw.s 			page 2


  31:I2CIO8Driver.c **** #define MCP23008_GPINTEN_DEFVAL  0x00       // Disable GPIO for interrupt on change
  32:I2CIO8Driver.c **** #define MCP23008_INTCON_DEFVAL   0x00       // Int for change from previous pin
  33:I2CIO8Driver.c **** #define MCP23008_IOCON_DEFVAL    0x00       // Disable sequential,  active-low
  34:I2CIO8Driver.c **** #define MCP23008_GPPU_DEFVAL     0xf0       // Default pullups
  35:I2CIO8Driver.c **** 
  36:I2CIO8Driver.c **** //////////////////////////////////////////////////////////////////////////////
  37:I2CIO8Driver.c **** // uint8 readRegisterDIGIO8Card(ctrlAdr) - 
  38:I2CIO8Driver.c **** //////////////////////////////////////////////////////////////////////////////
  39:I2CIO8Driver.c **** 
  40:I2CIO8Driver.c **** uint8 readRegisterDIGIO8Card(uint8 ctrlAdr)
  41:I2CIO8Driver.c **** {
  28              		.loc 1 41 0
  29              		.cfi_startproc
  30              		@ args = 0, pretend = 0, frame = 0
  31              		@ frame_needed = 0, uses_anonymous_args = 0
  32              	.LVL0:
  33 0000 10B5     		push	{r4, lr}
  34              		.cfi_def_cfa_offset 8
  35              		.cfi_offset 4, -8
  36              		.cfi_offset 14, -4
  37 0002 0446     		mov	r4, r0
  42:I2CIO8Driver.c ****     uint8 rdBuff;
  43:I2CIO8Driver.c ****     I2C_MasterClearStatus();
  38              		.loc 1 43 0
  39 0004 FFF7FEFF 		bl	I2C_MasterClearStatus
  40              	.LVL1:
  44:I2CIO8Driver.c ****     I2C_MasterSendStart(0x20,I2C_WRITE_XFER_MODE);
  41              		.loc 1 44 0
  42 0008 0021     		movs	r1, #0
  43 000a 2020     		movs	r0, #32
  44 000c FFF7FEFF 		bl	I2C_MasterSendStart
  45              	.LVL2:
  45:I2CIO8Driver.c ****     I2C_MasterWriteByte(ctrlAdr);
  46              		.loc 1 45 0
  47 0010 2046     		mov	r0, r4
  48 0012 FFF7FEFF 		bl	I2C_MasterWriteByte
  49              	.LVL3:
  46:I2CIO8Driver.c ****     I2C_MasterSendStop();
  50              		.loc 1 46 0
  51 0016 FFF7FEFF 		bl	I2C_MasterSendStop
  52              	.LVL4:
  47:I2CIO8Driver.c **** //    while ((I2C_MasterStatus() & I2C_MSTAT_WR_CMPLT) == 0);
  48:I2CIO8Driver.c ****     I2C_MasterSendStart(0x20,I2C_READ_XFER_MODE);
  53              		.loc 1 48 0
  54 001a 0121     		movs	r1, #1
  55 001c 2020     		movs	r0, #32
  56 001e FFF7FEFF 		bl	I2C_MasterSendStart
  57              	.LVL5:
  49:I2CIO8Driver.c ****     rdBuff = I2C_MasterReadByte(I2C_NAK_DATA);
  58              		.loc 1 49 0
  59 0022 0020     		movs	r0, #0
  60 0024 FFF7FEFF 		bl	I2C_MasterReadByte
  61              	.LVL6:
  62 0028 0446     		mov	r4, r0
  63              	.LVL7:
  50:I2CIO8Driver.c ****     I2C_MasterSendStop();
  64              		.loc 1 50 0
ARM GAS  C:\Users\DGILLI~1\AppData\Local\Temp\ccaxDynw.s 			page 3


  65 002a FFF7FEFF 		bl	I2C_MasterSendStop
  66              	.LVL8:
  51:I2CIO8Driver.c **** //    while ((I2C_MasterStatus() & I2C_MSTAT_RD_CMPLT) == 0);
  52:I2CIO8Driver.c ****     I2C_MasterClearStatus();
  67              		.loc 1 52 0
  68 002e FFF7FEFF 		bl	I2C_MasterClearStatus
  69              	.LVL9:
  53:I2CIO8Driver.c ****     return rdBuff;
  54:I2CIO8Driver.c **** }
  70              		.loc 1 54 0
  71 0032 2046     		mov	r0, r4
  72 0034 10BD     		pop	{r4, pc}
  73              		.cfi_endproc
  74              	.LFE63:
  75              		.size	readRegisterDIGIO8Card, .-readRegisterDIGIO8Card
  76 0036 00BF     		.section	.text.writeRegisterDIGIO8Card,"ax",%progbits
  77              		.align	2
  78              		.global	writeRegisterDIGIO8Card
  79              		.thumb
  80              		.thumb_func
  81              		.type	writeRegisterDIGIO8Card, %function
  82              	writeRegisterDIGIO8Card:
  83              	.LFB64:
  55:I2CIO8Driver.c **** 
  56:I2CIO8Driver.c **** //////////////////////////////////////////////////////////////////////////////
  57:I2CIO8Driver.c **** // writeRegisterDIGIO8Card(ctrlAdr, ctrlVal) - 
  58:I2CIO8Driver.c **** //////////////////////////////////////////////////////////////////////////////
  59:I2CIO8Driver.c **** 
  60:I2CIO8Driver.c **** void writeRegisterDIGIO8Card(uint8 ctrlAdr, uint8 ctrlVal)
  61:I2CIO8Driver.c **** {
  84              		.loc 1 61 0
  85              		.cfi_startproc
  86              		@ args = 0, pretend = 0, frame = 0
  87              		@ frame_needed = 0, uses_anonymous_args = 0
  88              	.LVL10:
  89 0000 38B5     		push	{r3, r4, r5, lr}
  90              		.cfi_def_cfa_offset 16
  91              		.cfi_offset 3, -16
  92              		.cfi_offset 4, -12
  93              		.cfi_offset 5, -8
  94              		.cfi_offset 14, -4
  95 0002 0546     		mov	r5, r0
  96 0004 0C46     		mov	r4, r1
  62:I2CIO8Driver.c ****     I2C_MasterClearStatus();
  97              		.loc 1 62 0
  98 0006 FFF7FEFF 		bl	I2C_MasterClearStatus
  99              	.LVL11:
  63:I2CIO8Driver.c ****     myWrBuffer[0] = ctrlAdr;
 100              		.loc 1 63 0
 101 000a 0849     		ldr	r1, .L6
 102 000c 0D70     		strb	r5, [r1]
  64:I2CIO8Driver.c ****     myWrBuffer[1] = ctrlVal;
 103              		.loc 1 64 0
 104 000e 4C70     		strb	r4, [r1, #1]
  65:I2CIO8Driver.c ****     I2C_MasterWriteBuf(0x20, myWrBuffer, 2, I2C_MODE_COMPLETE_XFER);
 105              		.loc 1 65 0
 106 0010 0023     		movs	r3, #0
ARM GAS  C:\Users\DGILLI~1\AppData\Local\Temp\ccaxDynw.s 			page 4


 107 0012 0222     		movs	r2, #2
 108 0014 2020     		movs	r0, #32
 109 0016 FFF7FEFF 		bl	I2C_MasterWriteBuf
 110              	.LVL12:
 111              	.L4:
  66:I2CIO8Driver.c ****     while (0u == (I2C_MasterStatus() & I2C_MSTAT_WR_CMPLT));
 112              		.loc 1 66 0 discriminator 1
 113 001a FFF7FEFF 		bl	I2C_MasterStatus
 114              	.LVL13:
 115 001e 10F0020F 		tst	r0, #2
 116 0022 FAD0     		beq	.L4
  67:I2CIO8Driver.c ****     I2C_MasterClearStatus();
 117              		.loc 1 67 0
 118 0024 FFF7FEFF 		bl	I2C_MasterClearStatus
 119              	.LVL14:
 120 0028 38BD     		pop	{r3, r4, r5, pc}
 121              	.L7:
 122 002a 00BF     		.align	2
 123              	.L6:
 124 002c 00000000 		.word	myWrBuffer
 125              		.cfi_endproc
 126              	.LFE64:
 127              		.size	writeRegisterDIGIO8Card, .-writeRegisterDIGIO8Card
 128              		.section	.text.writeDIGIO8Card,"ax",%progbits
 129              		.align	2
 130              		.global	writeDIGIO8Card
 131              		.thumb
 132              		.thumb_func
 133              		.type	writeDIGIO8Card, %function
 134              	writeDIGIO8Card:
 135              	.LFB65:
  68:I2CIO8Driver.c **** }
  69:I2CIO8Driver.c **** 
  70:I2CIO8Driver.c **** //////////////////////////////////////////////////////////////////////////////
  71:I2CIO8Driver.c **** // writeDIGIO8Card(uint8_t outData) - 
  72:I2CIO8Driver.c **** //////////////////////////////////////////////////////////////////////////////
  73:I2CIO8Driver.c **** 
  74:I2CIO8Driver.c **** void writeDIGIO8Card(uint8 outData)
  75:I2CIO8Driver.c **** {
 136              		.loc 1 75 0
 137              		.cfi_startproc
 138              		@ args = 0, pretend = 0, frame = 0
 139              		@ frame_needed = 0, uses_anonymous_args = 0
 140              	.LVL15:
 141 0000 08B5     		push	{r3, lr}
 142              		.cfi_def_cfa_offset 8
 143              		.cfi_offset 3, -8
 144              		.cfi_offset 14, -4
  76:I2CIO8Driver.c ****      writeRegisterDIGIO8Card(MCP23008_OLAT_REGADR,outData);
 145              		.loc 1 76 0
 146 0002 0146     		mov	r1, r0
 147 0004 0A20     		movs	r0, #10
 148              	.LVL16:
 149 0006 FFF7FEFF 		bl	writeRegisterDIGIO8Card
 150              	.LVL17:
 151 000a 08BD     		pop	{r3, pc}
 152              		.cfi_endproc
ARM GAS  C:\Users\DGILLI~1\AppData\Local\Temp\ccaxDynw.s 			page 5


 153              	.LFE65:
 154              		.size	writeDIGIO8Card, .-writeDIGIO8Card
 155              		.section	.text.readDIGIO8Card,"ax",%progbits
 156              		.align	2
 157              		.global	readDIGIO8Card
 158              		.thumb
 159              		.thumb_func
 160              		.type	readDIGIO8Card, %function
 161              	readDIGIO8Card:
 162              	.LFB66:
  77:I2CIO8Driver.c **** }
  78:I2CIO8Driver.c **** 
  79:I2CIO8Driver.c **** //////////////////////////////////////////////////////////////////////////////
  80:I2CIO8Driver.c **** // readDIGIO8Card(void)
  81:I2CIO8Driver.c **** //////////////////////////////////////////////////////////////////////////////
  82:I2CIO8Driver.c **** 
  83:I2CIO8Driver.c **** uint8 readDIGIO8Card(void)
  84:I2CIO8Driver.c **** {
 163              		.loc 1 84 0
 164              		.cfi_startproc
 165              		@ args = 0, pretend = 0, frame = 0
 166              		@ frame_needed = 0, uses_anonymous_args = 0
 167 0000 08B5     		push	{r3, lr}
 168              		.cfi_def_cfa_offset 8
 169              		.cfi_offset 3, -8
 170              		.cfi_offset 14, -4
  85:I2CIO8Driver.c ****     uint8 rdBuff;
  86:I2CIO8Driver.c ****     rdBuff = readRegisterDIGIO8Card(MCP23008_GPIO_REGADR);
 171              		.loc 1 86 0
 172 0002 0920     		movs	r0, #9
 173 0004 FFF7FEFF 		bl	readRegisterDIGIO8Card
 174              	.LVL18:
  87:I2CIO8Driver.c ****     return rdBuff>>4;
  88:I2CIO8Driver.c **** }
 175              		.loc 1 88 0
 176 0008 C0F30710 		ubfx	r0, r0, #4, #8
 177              	.LVL19:
 178 000c 08BD     		pop	{r3, pc}
 179              		.cfi_endproc
 180              	.LFE66:
 181              		.size	readDIGIO8Card, .-readDIGIO8Card
 182 000e 00BF     		.section	.text.initDIGIO8Card,"ax",%progbits
 183              		.align	2
 184              		.global	initDIGIO8Card
 185              		.thumb
 186              		.thumb_func
 187              		.type	initDIGIO8Card, %function
 188              	initDIGIO8Card:
 189              	.LFB67:
  89:I2CIO8Driver.c **** 
  90:I2CIO8Driver.c **** //////////////////////////////////////////////////////////////////////////////
  91:I2CIO8Driver.c **** // initDIGIO8Card(void) - 
  92:I2CIO8Driver.c **** //////////////////////////////////////////////////////////////////////////////
  93:I2CIO8Driver.c **** 
  94:I2CIO8Driver.c **** void initDIGIO8Card(void)
  95:I2CIO8Driver.c **** {
 190              		.loc 1 95 0
ARM GAS  C:\Users\DGILLI~1\AppData\Local\Temp\ccaxDynw.s 			page 6


 191              		.cfi_startproc
 192              		@ args = 0, pretend = 0, frame = 0
 193              		@ frame_needed = 0, uses_anonymous_args = 0
 194 0000 08B5     		push	{r3, lr}
 195              		.cfi_def_cfa_offset 8
 196              		.cfi_offset 3, -8
 197              		.cfi_offset 14, -4
  96:I2CIO8Driver.c ****     I2C_Start();    // Kick off the I2C interface
 198              		.loc 1 96 0
 199 0002 FFF7FEFF 		bl	I2C_Start
 200              	.LVL20:
  97:I2CIO8Driver.c ****     writeRegisterDIGIO8Card(MCP23008_IOCON_REGADR,MCP23008_IOCON_DEFVAL);
 201              		.loc 1 97 0
 202 0006 0021     		movs	r1, #0
 203 0008 0520     		movs	r0, #5
 204 000a FFF7FEFF 		bl	writeRegisterDIGIO8Card
 205              	.LVL21:
  98:I2CIO8Driver.c ****     writeRegisterDIGIO8Card(MCP23008_IODIR_REGADR,MCP23008_IODIR_DEFVAL);
 206              		.loc 1 98 0
 207 000e F021     		movs	r1, #240
 208 0010 0020     		movs	r0, #0
 209 0012 FFF7FEFF 		bl	writeRegisterDIGIO8Card
 210              	.LVL22:
  99:I2CIO8Driver.c ****     writeRegisterDIGIO8Card(MCP23008_GPINTEN_REGADR,MCP23008_GPINTEN_DEFVAL);
 211              		.loc 1 99 0
 212 0016 0021     		movs	r1, #0
 213 0018 0220     		movs	r0, #2
 214 001a FFF7FEFF 		bl	writeRegisterDIGIO8Card
 215              	.LVL23:
 100:I2CIO8Driver.c ****     writeRegisterDIGIO8Card(MCP23008_INTCON_REGADR,MCP23008_INTCON_DEFVAL);
 216              		.loc 1 100 0
 217 001e 0021     		movs	r1, #0
 218 0020 0420     		movs	r0, #4
 219 0022 FFF7FEFF 		bl	writeRegisterDIGIO8Card
 220              	.LVL24:
 101:I2CIO8Driver.c ****     writeRegisterDIGIO8Card(MCP23008_GPPU_REGADR,MCP23008_GPPU_DEFVAL);
 221              		.loc 1 101 0
 222 0026 F021     		movs	r1, #240
 223 0028 0620     		movs	r0, #6
 224 002a FFF7FEFF 		bl	writeRegisterDIGIO8Card
 225              	.LVL25:
 102:I2CIO8Driver.c ****     readRegisterDIGIO8Card(MCP23008_INTCAP_REGADR); // Clear interrupt LED
 226              		.loc 1 102 0
 227 002e 0820     		movs	r0, #8
 228 0030 FFF7FEFF 		bl	readRegisterDIGIO8Card
 229              	.LVL26:
 230 0034 08BD     		pop	{r3, pc}
 231              		.cfi_endproc
 232              	.LFE67:
 233              		.size	initDIGIO8Card, .-initDIGIO8Card
 234              		.comm	myWrBuffer,2,4
 235 0036 00BF     		.text
 236              	.Letext0:
 237              		.file 2 "c:\\program files (x86)\\cypress\\psoc creator\\4.2\\psoc creator\\import\\gnu\\arm\\5.4.
 238              		.file 3 "c:\\program files (x86)\\cypress\\psoc creator\\4.2\\psoc creator\\import\\gnu\\arm\\5.4.
 239              		.file 4 "Generated_Source\\PSoC5/cytypes.h"
 240              		.file 5 "Generated_Source\\PSoC5/core_cm3.h"
ARM GAS  C:\Users\DGILLI~1\AppData\Local\Temp\ccaxDynw.s 			page 7


 241              		.file 6 "Generated_Source\\PSoC5/I2C.h"