ARM GAS  C:\Users\DGILLI~1\AppData\Local\Temp\cc0CELrf.s 			page 1


   1              		.syntax unified
   2              		.cpu cortex-m3
   3              		.fpu softvfp
   4              		.eabi_attribute 20, 1
   5              		.eabi_attribute 21, 1
   6              		.eabi_attribute 23, 3
   7              		.eabi_attribute 24, 1
   8              		.eabi_attribute 25, 1
   9              		.eabi_attribute 26, 1
  10              		.eabi_attribute 30, 1
  11              		.eabi_attribute 34, 1
  12              		.eabi_attribute 18, 4
  13              		.thumb
  14              		.syntax unified
  15              		.file	"main.c"
  16              		.text
  17              	.Ltext0:
  18              		.cfi_sections	.debug_frame
  19              		.section	.text.PostLed,"ax",%progbits
  20              		.align	2
  21              		.global	PostLed
  22              		.thumb
  23              		.thumb_func
  24              		.type	PostLed, %function
  25              	PostLed:
  26              	.LFB63:
  27              		.file 1 "main.c"
   1:main.c        **** /* ========================================
   2:main.c        ****  *
   3:main.c        ****  * Copyright LAND BOARDS, LLC, 2019
   4:main.c        ****  * All Rights Reserved
   5:main.c        ****  * UNPUBLISHED, LICENSED SOFTWARE.
   6:main.c        ****  *
   7:main.c        ****  * CONFIDENTIAL AND PROPRIETARY INFORMATION
   8:main.c        ****  * WHICH IS THE PROPERTY OF your company.
   9:main.c        ****  *
  10:main.c        ****  * ========================================
  11:main.c        **** */
  12:main.c        **** #include "project.h"
  13:main.c        **** 
  14:main.c        **** ////////////////////////////////////////////////////////////////////////////
  15:main.c        **** // Function prototypes
  16:main.c        **** 
  17:main.c        **** uint32 TestSRAM(void);
  18:main.c        **** 
  19:main.c        **** ////////////////////////////////////////////////////////////////////////////
  20:main.c        **** // PostLed(postVal) - Blink the LED the number of times (postVal)
  21:main.c        **** 
  22:main.c        **** void PostLed(uint32 postVal)
  23:main.c        **** {
  28              		.loc 1 23 0
  29              		.cfi_startproc
  30              		@ args = 0, pretend = 0, frame = 0
  31              		@ frame_needed = 0, uses_anonymous_args = 0
  32              	.LVL0:
  33 0000 10B5     		push	{r4, lr}
  34              		.cfi_def_cfa_offset 8
ARM GAS  C:\Users\DGILLI~1\AppData\Local\Temp\cc0CELrf.s 			page 2


  35              		.cfi_offset 4, -8
  36              		.cfi_offset 14, -4
  37 0002 0446     		mov	r4, r0
  38              	.LVL1:
  24:main.c        ****     uint32 blinkCount = postVal;
  25:main.c        ****     while(blinkCount > 0)
  39              		.loc 1 25 0
  40 0004 0DE0     		b	.L2
  41              	.LVL2:
  42              	.L3:
  26:main.c        ****     {
  27:main.c        ****         LED_Write(1);   // Turn on the LED
  43              		.loc 1 27 0
  44 0006 0120     		movs	r0, #1
  45 0008 FFF7FEFF 		bl	LED_Write
  46              	.LVL3:
  28:main.c        ****         CyDelay(500);
  47              		.loc 1 28 0
  48 000c 4FF4FA70 		mov	r0, #500
  49 0010 FFF7FEFF 		bl	CyDelay
  50              	.LVL4:
  29:main.c        ****         LED_Write(0);   // Turn off the LED
  51              		.loc 1 29 0
  52 0014 0020     		movs	r0, #0
  53 0016 FFF7FEFF 		bl	LED_Write
  54              	.LVL5:
  30:main.c        ****         CyDelay(250);
  55              		.loc 1 30 0
  56 001a FA20     		movs	r0, #250
  57 001c FFF7FEFF 		bl	CyDelay
  58              	.LVL6:
  31:main.c        ****         blinkCount--;   // loop as many times as the POST code
  59              		.loc 1 31 0
  60 0020 013C     		subs	r4, r4, #1
  61              	.LVL7:
  62              	.L2:
  25:main.c        ****     {
  63              		.loc 1 25 0
  64 0022 002C     		cmp	r4, #0
  65 0024 EFD1     		bne	.L3
  32:main.c        ****     }
  33:main.c        **** }
  66              		.loc 1 33 0
  67 0026 10BD     		pop	{r4, pc}
  68              		.cfi_endproc
  69              	.LFE63:
  70              		.size	PostLed, .-PostLed
  71              		.section	.text.main,"ax",%progbits
  72              		.align	2
  73              		.global	main
  74              		.thumb
  75              		.thumb_func
  76              		.type	main, %function
  77              	main:
  78              	.LFB64:
  34:main.c        **** 
  35:main.c        **** ////////////////////////////////////////////////////////////////////////////
ARM GAS  C:\Users\DGILLI~1\AppData\Local\Temp\cc0CELrf.s 			page 3


  36:main.c        **** // main() - Setup and Loop code goes in here
  37:main.c        **** 
  38:main.c        **** int main(void)
  39:main.c        **** {
  79              		.loc 1 39 0
  80              		.cfi_startproc
  81              		@ args = 0, pretend = 0, frame = 0
  82              		@ frame_needed = 0, uses_anonymous_args = 0
  83 0000 08B5     		push	{r3, lr}
  84              		.cfi_def_cfa_offset 8
  85              		.cfi_offset 3, -8
  86              		.cfi_offset 14, -4
  40:main.c        ****     uint32 postVal;
  41:main.c        ****     CyGlobalIntEnable;          /* Enable global interrupts. */
  87              		.loc 1 41 0
  88              		.syntax unified
  89              	@ 41 "main.c" 1
  90 0002 62B6     		CPSIE   i
  91              	@ 0 "" 2
  42:main.c        ****     
  43:main.c        ****     // Do Power On Self Tests (POST)
  44:main.c        ****     postVal = TestSRAM();       // Run External SRAM test
  92              		.loc 1 44 0
  93              		.thumb
  94              		.syntax unified
  95 0004 FFF7FEFF 		bl	TestSRAM
  96              	.LVL8:
  45:main.c        ****     if (postVal == 0)
  97              		.loc 1 45 0
  98 0008 18B9     		cbnz	r0, .L6
  46:main.c        ****         PostLed(0x1);           // External SRAM test passed
  99              		.loc 1 46 0
 100 000a 0120     		movs	r0, #1
 101              	.LVL9:
 102 000c FFF7FEFF 		bl	PostLed
 103              	.LVL10:
 104 0010 02E0     		b	.L7
 105              	.LVL11:
 106              	.L6:
  47:main.c        ****      else
  48:main.c        ****         PostLed(postVal+1);     // External SRAM test(s) failed
 107              		.loc 1 48 0
 108 0012 0130     		adds	r0, r0, #1
 109              	.LVL12:
 110 0014 FFF7FEFF 		bl	PostLed
 111              	.LVL13:
 112              	.L7:
 113 0018 FEE7     		b	.L7
 114              		.cfi_endproc
 115              	.LFE64:
 116              		.size	main, .-main
 117 001a 00BF     		.text
 118              	.Letext0:
 119              		.file 2 "c:\\program files (x86)\\cypress\\psoc creator\\4.2\\psoc creator\\import\\gnu\\arm\\5.4.
 120              		.file 3 "c:\\program files (x86)\\cypress\\psoc creator\\4.2\\psoc creator\\import\\gnu\\arm\\5.4.
 121              		.file 4 "Generated_Source\\PSoC5/cytypes.h"
 122              		.file 5 "Generated_Source\\PSoC5/LED.h"
ARM GAS  C:\Users\DGILLI~1\AppData\Local\Temp\cc0CELrf.s 			page 4


 123              		.file 6 "Generated_Source\\PSoC5/CyLib.h"
 124              		.file 7 "Generated_Source\\PSoC5/core_cm3.h"