ARM GAS  C:\Users\HPz420\AppData\Local\Temp\cch8MVZv.s 			page 1


   1              		.syntax unified
   2              		.cpu cortex-m3
   3              		.fpu softvfp
   4              		.eabi_attribute 20, 1
   5              		.eabi_attribute 21, 1
   6              		.eabi_attribute 23, 3
   7              		.eabi_attribute 24, 1
   8              		.eabi_attribute 25, 1
   9              		.eabi_attribute 26, 1
  10              		.eabi_attribute 30, 1
  11              		.eabi_attribute 34, 1
  12              		.eabi_attribute 18, 4
  13              		.thumb
  14              		.syntax unified
  15              		.file	"Z80_PSoC_3Chips.c"
  16              		.text
  17              	.Ltext0:
  18              		.cfi_sections	.debug_frame
  19              		.section	.text.PostLed,"ax",%progbits
  20              		.align	2
  21              		.global	PostLed
  22              		.thumb
  23              		.thumb_func
  24              		.type	PostLed, %function
  25              	PostLed:
  26              	.LFB64:
  27              		.file 1 "Z80_PSoC_3Chips.c"
   1:Z80_PSoC_3Chips.c **** /* ========================================
   2:Z80_PSoC_3Chips.c **** *
   3:Z80_PSoC_3Chips.c **** * Copyright LAND BOARDS, LLC, 2019
   4:Z80_PSoC_3Chips.c **** * All Rights Reserved
   5:Z80_PSoC_3Chips.c **** * UNPUBLISHED, LICENSED SOFTWARE.
   6:Z80_PSoC_3Chips.c **** *
   7:Z80_PSoC_3Chips.c **** * CONFIDENTIAL AND PROPRIETARY INFORMATION
   8:Z80_PSoC_3Chips.c **** * WHICH IS THE PROPERTY OF Land Boards, LLC.
   9:Z80_PSoC_3Chips.c **** *
  10:Z80_PSoC_3Chips.c **** * ========================================
  11:Z80_PSoC_3Chips.c **** */
  12:Z80_PSoC_3Chips.c **** 
  13:Z80_PSoC_3Chips.c **** ////////////////////////////////////////////////////////////////////////////
  14:Z80_PSoC_3Chips.c **** // General support functions for the Z80_PSOC card
  15:Z80_PSoC_3Chips.c **** 
  16:Z80_PSoC_3Chips.c **** #include <project.h>
  17:Z80_PSoC_3Chips.c **** #include "stdio.h"
  18:Z80_PSoC_3Chips.c **** #include <Z80_PSoC_3Chips.h>
  19:Z80_PSoC_3Chips.c **** 
  20:Z80_PSoC_3Chips.c **** uint8 receiveBuffer[80];
  21:Z80_PSoC_3Chips.c **** uint8 receiveBufferPtr;
  22:Z80_PSoC_3Chips.c **** uint8 gotCRorLF;
  23:Z80_PSoC_3Chips.c **** uint32 sectorNumber;
  24:Z80_PSoC_3Chips.c **** 
  25:Z80_PSoC_3Chips.c **** ////////////////////////////////////////////////////////////////////////////
  26:Z80_PSoC_3Chips.c **** // PostLed(postVal) - Blink the LED the number of times (postVal)
  27:Z80_PSoC_3Chips.c **** 
  28:Z80_PSoC_3Chips.c **** void PostLed(uint32 postVal)
  29:Z80_PSoC_3Chips.c **** {
  28              		.loc 1 29 0
ARM GAS  C:\Users\HPz420\AppData\Local\Temp\cch8MVZv.s 			page 2


  29              		.cfi_startproc
  30              		@ args = 0, pretend = 0, frame = 0
  31              		@ frame_needed = 0, uses_anonymous_args = 0
  32              	.LVL0:
  33 0000 10B5     		push	{r4, lr}
  34              		.cfi_def_cfa_offset 8
  35              		.cfi_offset 4, -8
  36              		.cfi_offset 14, -4
  37 0002 0446     		mov	r4, r0
  38              	.LVL1:
  30:Z80_PSoC_3Chips.c **** 	uint32 blinkCount = postVal;
  31:Z80_PSoC_3Chips.c **** 	while(blinkCount > 0)
  39              		.loc 1 31 0
  40 0004 0DE0     		b	.L2
  41              	.LVL2:
  42              	.L3:
  32:Z80_PSoC_3Chips.c **** 	{
  33:Z80_PSoC_3Chips.c **** 		LED_Write(0);   // Turn on the LED
  43              		.loc 1 33 0
  44 0006 0020     		movs	r0, #0
  45 0008 FFF7FEFF 		bl	LED_Write
  46              	.LVL3:
  34:Z80_PSoC_3Chips.c **** 		CyDelay(500);
  47              		.loc 1 34 0
  48 000c 4FF4FA70 		mov	r0, #500
  49 0010 FFF7FEFF 		bl	CyDelay
  50              	.LVL4:
  35:Z80_PSoC_3Chips.c **** 		LED_Write(1);   // Turn off the LED
  51              		.loc 1 35 0
  52 0014 0120     		movs	r0, #1
  53 0016 FFF7FEFF 		bl	LED_Write
  54              	.LVL5:
  36:Z80_PSoC_3Chips.c **** 		CyDelay(250);
  55              		.loc 1 36 0
  56 001a FA20     		movs	r0, #250
  57 001c FFF7FEFF 		bl	CyDelay
  58              	.LVL6:
  37:Z80_PSoC_3Chips.c **** 		blinkCount--;   // loop as many times as the POST code
  59              		.loc 1 37 0
  60 0020 013C     		subs	r4, r4, #1
  61              	.LVL7:
  62              	.L2:
  31:Z80_PSoC_3Chips.c **** 	{
  63              		.loc 1 31 0
  64 0022 002C     		cmp	r4, #0
  65 0024 EFD1     		bne	.L3
  38:Z80_PSoC_3Chips.c **** 	}
  39:Z80_PSoC_3Chips.c **** }
  66              		.loc 1 39 0
  67 0026 10BD     		pop	{r4, pc}
  68              		.cfi_endproc
  69              	.LFE64:
  70              		.size	PostLed, .-PostLed
  71              		.section	.text.asciiNibbleToVal,"ax",%progbits
  72              		.align	2
  73              		.global	asciiNibbleToVal
  74              		.thumb
ARM GAS  C:\Users\HPz420\AppData\Local\Temp\cch8MVZv.s 			page 3


  75              		.thumb_func
  76              		.type	asciiNibbleToVal, %function
  77              	asciiNibbleToVal:
  78              	.LFB66:
  40:Z80_PSoC_3Chips.c **** 
  41:Z80_PSoC_3Chips.c **** ////////////////////////////////////////////////////////////////////////////
  42:Z80_PSoC_3Chips.c **** // void printMenu(void)
  43:Z80_PSoC_3Chips.c **** 
  44:Z80_PSoC_3Chips.c **** void printMenuScreen(void)
  45:Z80_PSoC_3Chips.c **** {
  46:Z80_PSoC_3Chips.c ****     putStringToUSB("\n\rLand Boards, LLC - Z80_PSoC monitor\n\r");
  47:Z80_PSoC_3Chips.c **** 	putStringToUSB("I - Initialize SD Card\n\r");
  48:Z80_PSoC_3Chips.c **** 	putStringToUSB("B - Blink LED on Z80-PSoC card once\n\r");
  49:Z80_PSoC_3Chips.c ****     putStringToUSB("F - Read Front Panel & ech0 keypresses\n\r");
  50:Z80_PSoC_3Chips.c **** 	putStringToUSB("R xxxxxxxx - Read sector xxxxxxxx from the SD Card\n\r");
  51:Z80_PSoC_3Chips.c **** 	putStringToUSB("N - Read next sector from the SD Card\n\r");
  52:Z80_PSoC_3Chips.c **** 	putStringToUSB("W - Write to the SD Card at 2GB - 1 sector\n\r");
  53:Z80_PSoC_3Chips.c **** 	putStringToUSB("X - eXit Monitor and run Z80\n\r");
  54:Z80_PSoC_3Chips.c **** 	putStringToUSB("? - Print this menu\n\r");
  55:Z80_PSoC_3Chips.c **** }
  56:Z80_PSoC_3Chips.c **** 
  57:Z80_PSoC_3Chips.c **** ////////////////////////////////////////////////////////////////////////////
  58:Z80_PSoC_3Chips.c **** // asciiNibbleToVal(uint8)
  59:Z80_PSoC_3Chips.c **** 
  60:Z80_PSoC_3Chips.c **** uint32 asciiNibbleToVal(uint8 charVal)
  61:Z80_PSoC_3Chips.c **** {
  79              		.loc 1 61 0
  80              		.cfi_startproc
  81              		@ args = 0, pretend = 0, frame = 0
  82              		@ frame_needed = 0, uses_anonymous_args = 0
  83              		@ link register save eliminated.
  84              	.LVL8:
  62:Z80_PSoC_3Chips.c ****     if ((charVal >= '0') && (charVal <= '9'))
  85              		.loc 1 62 0
  86 0000 A0F13003 		sub	r3, r0, #48
  87 0004 DBB2     		uxtb	r3, r3
  88 0006 092B     		cmp	r3, #9
  89 0008 01D8     		bhi	.L6
  63:Z80_PSoC_3Chips.c ****         return (charVal-'0');
  90              		.loc 1 63 0
  91 000a 3038     		subs	r0, r0, #48
  92              	.LVL9:
  93 000c 7047     		bx	lr
  94              	.LVL10:
  95              	.L6:
  64:Z80_PSoC_3Chips.c ****     else if ((charVal >= 'A') && (charVal <= 'F'))
  96              		.loc 1 64 0
  97 000e A0F14103 		sub	r3, r0, #65
  98 0012 DBB2     		uxtb	r3, r3
  99 0014 052B     		cmp	r3, #5
 100 0016 01D8     		bhi	.L8
  65:Z80_PSoC_3Chips.c ****         return (charVal-'A'+10);
 101              		.loc 1 65 0
 102 0018 3738     		subs	r0, r0, #55
 103              	.LVL11:
 104 001a 7047     		bx	lr
 105              	.LVL12:
ARM GAS  C:\Users\HPz420\AppData\Local\Temp\cch8MVZv.s 			page 4


 106              	.L8:
  66:Z80_PSoC_3Chips.c ****     else if ((charVal >= 'a') && (charVal <= 'f'))
 107              		.loc 1 66 0
 108 001c A0F16103 		sub	r3, r0, #97
 109 0020 DBB2     		uxtb	r3, r3
 110 0022 052B     		cmp	r3, #5
 111 0024 01D8     		bhi	.L9
  67:Z80_PSoC_3Chips.c ****         return (charVal-'a'+10);
 112              		.loc 1 67 0
 113 0026 5738     		subs	r0, r0, #87
 114              	.LVL13:
 115 0028 7047     		bx	lr
 116              	.LVL14:
 117              	.L9:
  68:Z80_PSoC_3Chips.c ****     return(0);
 118              		.loc 1 68 0
 119 002a 0020     		movs	r0, #0
 120              	.LVL15:
  69:Z80_PSoC_3Chips.c **** }
 121              		.loc 1 69 0
 122 002c 7047     		bx	lr
 123              		.cfi_endproc
 124              	.LFE66:
 125              		.size	asciiNibbleToVal, .-asciiNibbleToVal
 126 002e 00BF     		.section	.text.extractLong,"ax",%progbits
 127              		.align	2
 128              		.global	extractLong
 129              		.thumb
 130              		.thumb_func
 131              		.type	extractLong, %function
 132              	extractLong:
 133              	.LFB67:
  70:Z80_PSoC_3Chips.c **** 
  71:Z80_PSoC_3Chips.c **** ////////////////////////////////////////////////////////////////////////////
  72:Z80_PSoC_3Chips.c **** // uint32 extractLong(uint8 *)
  73:Z80_PSoC_3Chips.c **** 
  74:Z80_PSoC_3Chips.c **** uint32 extractLong(uint8 * commandString)
  75:Z80_PSoC_3Chips.c **** {
 134              		.loc 1 75 0
 135              		.cfi_startproc
 136              		@ args = 0, pretend = 0, frame = 0
 137              		@ frame_needed = 0, uses_anonymous_args = 0
 138              	.LVL16:
 139 0000 70B5     		push	{r4, r5, r6, lr}
 140              		.cfi_def_cfa_offset 16
 141              		.cfi_offset 4, -16
 142              		.cfi_offset 5, -12
 143              		.cfi_offset 6, -8
 144              		.cfi_offset 14, -4
 145 0002 0646     		mov	r6, r0
 146              	.LVL17:
  76:Z80_PSoC_3Chips.c ****     uint8 linePtr = 1;
  77:Z80_PSoC_3Chips.c ****     uint32 rVal = 0;
 147              		.loc 1 77 0
 148 0004 0023     		movs	r3, #0
  76:Z80_PSoC_3Chips.c ****     uint8 linePtr = 1;
 149              		.loc 1 76 0
ARM GAS  C:\Users\HPz420\AppData\Local\Temp\cch8MVZv.s 			page 5


 150 0006 0124     		movs	r4, #1
  78:Z80_PSoC_3Chips.c ****     while ((commandString[linePtr] != 0) && (linePtr < 32) && (commandString[linePtr] != '\n') && (
 151              		.loc 1 78 0
 152 0008 06E0     		b	.L11
 153              	.LVL18:
 154              	.L13:
  79:Z80_PSoC_3Chips.c ****     {
  80:Z80_PSoC_3Chips.c ****         rVal <<= 4;
 155              		.loc 1 80 0
 156 000a 1D01     		lsls	r5, r3, #4
 157              	.LVL19:
  81:Z80_PSoC_3Chips.c ****         rVal |= asciiNibbleToVal(commandString[linePtr]);
 158              		.loc 1 81 0
 159 000c FFF7FEFF 		bl	asciiNibbleToVal
 160              	.LVL20:
 161 0010 45EA0003 		orr	r3, r5, r0
 162              	.LVL21:
  82:Z80_PSoC_3Chips.c ****         linePtr++;
 163              		.loc 1 82 0
 164 0014 0134     		adds	r4, r4, #1
 165              	.LVL22:
 166 0016 E4B2     		uxtb	r4, r4
 167              	.LVL23:
 168              	.L11:
  78:Z80_PSoC_3Chips.c ****     {
 169              		.loc 1 78 0
 170 0018 305D     		ldrb	r0, [r6, r4]	@ zero_extendqisi2
 171 001a 28B1     		cbz	r0, .L12
  78:Z80_PSoC_3Chips.c ****     {
 172              		.loc 1 78 0 is_stmt 0 discriminator 1
 173 001c 1F2C     		cmp	r4, #31
 174 001e 03D8     		bhi	.L12
  78:Z80_PSoC_3Chips.c ****     {
 175              		.loc 1 78 0 discriminator 2
 176 0020 0A28     		cmp	r0, #10
 177 0022 01D0     		beq	.L12
  78:Z80_PSoC_3Chips.c ****     {
 178              		.loc 1 78 0 discriminator 3
 179 0024 0D28     		cmp	r0, #13
 180 0026 F0D1     		bne	.L13
 181              	.L12:
  83:Z80_PSoC_3Chips.c ****     }
  84:Z80_PSoC_3Chips.c ****     return (rVal);
  85:Z80_PSoC_3Chips.c **** }
 182              		.loc 1 85 0 is_stmt 1
 183 0028 1846     		mov	r0, r3
 184 002a 70BD     		pop	{r4, r5, r6, pc}
 185              		.cfi_endproc
 186              	.LFE67:
 187              		.size	extractLong, .-extractLong
 188              		.section	.text.clearReceiveBuffer,"ax",%progbits
 189              		.align	2
 190              		.global	clearReceiveBuffer
 191              		.thumb
 192              		.thumb_func
 193              		.type	clearReceiveBuffer, %function
 194              	clearReceiveBuffer:
ARM GAS  C:\Users\HPz420\AppData\Local\Temp\cch8MVZv.s 			page 6


 195              	.LFB69:
  86:Z80_PSoC_3Chips.c **** 
  87:Z80_PSoC_3Chips.c **** ////////////////////////////////////////////////////////////////////////////
  88:Z80_PSoC_3Chips.c **** // void psocMenu(void)
  89:Z80_PSoC_3Chips.c **** 
  90:Z80_PSoC_3Chips.c **** uint8 psocMenu(void)
  91:Z80_PSoC_3Chips.c **** {
  92:Z80_PSoC_3Chips.c **** 	while (0u == USBUART_CDCIsReady()); // Wait until component is ready to send data to host
  93:Z80_PSoC_3Chips.c **** 	if ((receiveBuffer[0] == 'r') || (receiveBuffer[0] == 'R'))
  94:Z80_PSoC_3Chips.c **** 	{
  95:Z80_PSoC_3Chips.c **** 		putStringToUSB("Read from the SD Card\n\r");
  96:Z80_PSoC_3Chips.c ****         sectorNumber = extractLong(receiveBuffer);
  97:Z80_PSoC_3Chips.c ****         readSDCard(sectorNumber);
  98:Z80_PSoC_3Chips.c **** 	}
  99:Z80_PSoC_3Chips.c **** 	else if ((receiveBuffer[0] == 'n') || (receiveBuffer[0] == 'N'))
 100:Z80_PSoC_3Chips.c **** 	{
 101:Z80_PSoC_3Chips.c **** 		putStringToUSB("Read next sector from the SD Card\n\r");
 102:Z80_PSoC_3Chips.c ****         sectorNumber++;
 103:Z80_PSoC_3Chips.c ****         readSDCard(sectorNumber);
 104:Z80_PSoC_3Chips.c **** 	}
 105:Z80_PSoC_3Chips.c **** 	else if ((receiveBuffer[0] == 'b') || (receiveBuffer[0] == 'B'))
 106:Z80_PSoC_3Chips.c **** 	{
 107:Z80_PSoC_3Chips.c **** 		putStringToUSB("Blink LED\n\r");
 108:Z80_PSoC_3Chips.c ****         PostLed(1);
 109:Z80_PSoC_3Chips.c **** 	}
 110:Z80_PSoC_3Chips.c **** 	else if ((receiveBuffer[0] == 'w') || (receiveBuffer[0] == 'W'))
 111:Z80_PSoC_3Chips.c **** 	{
 112:Z80_PSoC_3Chips.c **** 		putStringToUSB("Write to the SD Card at 2GB - 1 sector\n\r");
 113:Z80_PSoC_3Chips.c ****         writeSDCard(0x1FFFFF);
 114:Z80_PSoC_3Chips.c **** 	}
 115:Z80_PSoC_3Chips.c **** 	else if ((receiveBuffer[0] == 'i') || (receiveBuffer[0] == 'I'))
 116:Z80_PSoC_3Chips.c **** 	{
 117:Z80_PSoC_3Chips.c **** 		putStringToUSB("Initialize the SD Card\n\r");
 118:Z80_PSoC_3Chips.c ****         SDInit();
 119:Z80_PSoC_3Chips.c **** 	}
 120:Z80_PSoC_3Chips.c **** #ifdef USING_FRONT_PANEL
 121:Z80_PSoC_3Chips.c **** 	else if ((receiveBuffer[0] == 'f') || (receiveBuffer[0] == 'F'))
 122:Z80_PSoC_3Chips.c **** 	{
 123:Z80_PSoC_3Chips.c ****         char lineString[16];
 124:Z80_PSoC_3Chips.c **** 		putStringToUSB("Front Panel Value - ");
 125:Z80_PSoC_3Chips.c ****   		sprintf(lineString,"0x%08lx",fpIntVal);
 126:Z80_PSoC_3Chips.c ****         putStringToUSB(lineString);
 127:Z80_PSoC_3Chips.c ****         putStringToUSB("\n\r");
 128:Z80_PSoC_3Chips.c **** 		writeFrontPanelLEDs(fpIntVal);
 129:Z80_PSoC_3Chips.c **** 	}
 130:Z80_PSoC_3Chips.c **** 	else if ((receiveBuffer[0] == 'x') || (receiveBuffer[0] == 'X'))
 131:Z80_PSoC_3Chips.c **** 	{
 132:Z80_PSoC_3Chips.c **** 		putStringToUSB("Run Z80");
 133:Z80_PSoC_3Chips.c ****         return(1);
 134:Z80_PSoC_3Chips.c **** 	}
 135:Z80_PSoC_3Chips.c **** #endif
 136:Z80_PSoC_3Chips.c **** 	else
 137:Z80_PSoC_3Chips.c **** 	{
 138:Z80_PSoC_3Chips.c ****         printMenuScreen();
 139:Z80_PSoC_3Chips.c **** 	}
 140:Z80_PSoC_3Chips.c ****     clearReceiveBuffer();
 141:Z80_PSoC_3Chips.c ****     return (0);
ARM GAS  C:\Users\HPz420\AppData\Local\Temp\cch8MVZv.s 			page 7


 142:Z80_PSoC_3Chips.c **** }
 143:Z80_PSoC_3Chips.c **** 
 144:Z80_PSoC_3Chips.c **** ////////////////////////////////////////////////////////////////////////////
 145:Z80_PSoC_3Chips.c **** // void clearReceiveBuffer(void)
 146:Z80_PSoC_3Chips.c **** 
 147:Z80_PSoC_3Chips.c **** void clearReceiveBuffer(void)
 148:Z80_PSoC_3Chips.c **** {
 196              		.loc 1 148 0
 197              		.cfi_startproc
 198              		@ args = 0, pretend = 0, frame = 0
 199              		@ frame_needed = 0, uses_anonymous_args = 0
 200              		@ link register save eliminated.
 149:Z80_PSoC_3Chips.c ****     receiveBufferPtr = 0;
 201              		.loc 1 149 0
 202 0000 0023     		movs	r3, #0
 203 0002 034A     		ldr	r2, .L16
 204 0004 1370     		strb	r3, [r2]
 150:Z80_PSoC_3Chips.c ****     receiveBuffer[0] = 0;
 205              		.loc 1 150 0
 206 0006 034A     		ldr	r2, .L16+4
 207 0008 1370     		strb	r3, [r2]
 151:Z80_PSoC_3Chips.c ****     gotCRorLF = 0;
 208              		.loc 1 151 0
 209 000a 034A     		ldr	r2, .L16+8
 210 000c 1370     		strb	r3, [r2]
 211 000e 7047     		bx	lr
 212              	.L17:
 213              		.align	2
 214              	.L16:
 215 0010 00000000 		.word	receiveBufferPtr
 216 0014 00000000 		.word	receiveBuffer
 217 0018 00000000 		.word	gotCRorLF
 218              		.cfi_endproc
 219              	.LFE69:
 220              		.size	clearReceiveBuffer, .-clearReceiveBuffer
 221              		.section	.text.putStringToUSB,"ax",%progbits
 222              		.align	2
 223              		.global	putStringToUSB
 224              		.thumb
 225              		.thumb_func
 226              		.type	putStringToUSB, %function
 227              	putStringToUSB:
 228              	.LFB71:
 152:Z80_PSoC_3Chips.c **** }
 153:Z80_PSoC_3Chips.c **** 
 154:Z80_PSoC_3Chips.c **** ////////////////////////////////////////////////////////////////////////////
 155:Z80_PSoC_3Chips.c **** // void addToReceiveBuffer(uint16, uint8 *)
 156:Z80_PSoC_3Chips.c **** 
 157:Z80_PSoC_3Chips.c **** void addToReceiveBuffer(uint16 inCount, uint8 * inBuffer)
 158:Z80_PSoC_3Chips.c **** {
 159:Z80_PSoC_3Chips.c ****     uint8 echoString[80];
 160:Z80_PSoC_3Chips.c ****     echoString[0] = 0;
 161:Z80_PSoC_3Chips.c ****     for (uint8 receiveCt = 0; receiveCt < inCount; receiveCt++)
 162:Z80_PSoC_3Chips.c ****     {
 163:Z80_PSoC_3Chips.c ****         // First check if the character is an end of line
 164:Z80_PSoC_3Chips.c ****         if ((inBuffer[receiveCt] == 0x0a) || (inBuffer[receiveCt] == 0x0d))
 165:Z80_PSoC_3Chips.c ****         {
ARM GAS  C:\Users\HPz420\AppData\Local\Temp\cch8MVZv.s 			page 8


 166:Z80_PSoC_3Chips.c ****             gotCRorLF = 1;
 167:Z80_PSoC_3Chips.c ****             putStringToUSB("\n\r");
 168:Z80_PSoC_3Chips.c ****         }
 169:Z80_PSoC_3Chips.c ****         // check if the character is not a RUBOUT and if the line length is OK
 170:Z80_PSoC_3Chips.c ****         else if ((inBuffer[receiveCt] != 0x7f) && (receiveCt < 80))
 171:Z80_PSoC_3Chips.c ****         {
 172:Z80_PSoC_3Chips.c ****             receiveBuffer[receiveBufferPtr] = inBuffer[receiveCt];
 173:Z80_PSoC_3Chips.c ****             receiveBufferPtr++;
 174:Z80_PSoC_3Chips.c ****             echoString[inCount] = 0;
 175:Z80_PSoC_3Chips.c ****             echoString[receiveCt] = inBuffer[receiveCt];
 176:Z80_PSoC_3Chips.c ****             putStringToUSB((char *)echoString);
 177:Z80_PSoC_3Chips.c ****         }
 178:Z80_PSoC_3Chips.c ****         // If the character is rubout and not the 0th character
 179:Z80_PSoC_3Chips.c ****         else if ((receiveBufferPtr > 0) && (inBuffer[receiveCt] == 0x7f))
 180:Z80_PSoC_3Chips.c ****         {
 181:Z80_PSoC_3Chips.c ****             receiveBufferPtr--;
 182:Z80_PSoC_3Chips.c ****             echoString[0] = 0x08;       // Backspace
 183:Z80_PSoC_3Chips.c ****             echoString[1] = 0x20;       // Space
 184:Z80_PSoC_3Chips.c ****             echoString[2] = 0x08;       // Backspace
 185:Z80_PSoC_3Chips.c ****             echoString[3] = 0;
 186:Z80_PSoC_3Chips.c ****             putStringToUSB((char *)echoString);
 187:Z80_PSoC_3Chips.c ****         }
 188:Z80_PSoC_3Chips.c ****     }
 189:Z80_PSoC_3Chips.c **** }
 190:Z80_PSoC_3Chips.c **** 
 191:Z80_PSoC_3Chips.c **** ////////////////////////////////////////////////////////////////////////////
 192:Z80_PSoC_3Chips.c **** // void putStringToUSB(char * stringToPutOutUSB) - Print string out USB-Serial to host
 193:Z80_PSoC_3Chips.c **** // Blocking function
 194:Z80_PSoC_3Chips.c **** 
 195:Z80_PSoC_3Chips.c **** void putStringToUSB(char * stringToPutOutUSB)
 196:Z80_PSoC_3Chips.c **** {
 229              		.loc 1 196 0
 230              		.cfi_startproc
 231              		@ args = 0, pretend = 0, frame = 0
 232              		@ frame_needed = 0, uses_anonymous_args = 0
 233              	.LVL24:
 234 0000 10B5     		push	{r4, lr}
 235              		.cfi_def_cfa_offset 8
 236              		.cfi_offset 4, -8
 237              		.cfi_offset 14, -4
 238 0002 0446     		mov	r4, r0
 197:Z80_PSoC_3Chips.c **** 	USBUART_PutData((uint8 *)stringToPutOutUSB, strlen(stringToPutOutUSB));
 239              		.loc 1 197 0
 240 0004 FFF7FEFF 		bl	strlen
 241              	.LVL25:
 242 0008 81B2     		uxth	r1, r0
 243 000a 2046     		mov	r0, r4
 244 000c FFF7FEFF 		bl	USBUART_PutData
 245              	.LVL26:
 246              	.L19:
 198:Z80_PSoC_3Chips.c **** 	while (0u == USBUART_CDCIsReady());
 247              		.loc 1 198 0 discriminator 1
 248 0010 FFF7FEFF 		bl	USBUART_CDCIsReady
 249              	.LVL27:
 250 0014 0028     		cmp	r0, #0
 251 0016 FBD0     		beq	.L19
 199:Z80_PSoC_3Chips.c **** }
ARM GAS  C:\Users\HPz420\AppData\Local\Temp\cch8MVZv.s 			page 9


 252              		.loc 1 199 0
 253 0018 10BD     		pop	{r4, pc}
 254              		.cfi_endproc
 255              	.LFE71:
 256              		.size	putStringToUSB, .-putStringToUSB
 257 001a 00BF     		.section	.text.printMenuScreen,"ax",%progbits
 258              		.align	2
 259              		.global	printMenuScreen
 260              		.thumb
 261              		.thumb_func
 262              		.type	printMenuScreen, %function
 263              	printMenuScreen:
 264              	.LFB65:
  45:Z80_PSoC_3Chips.c ****     putStringToUSB("\n\rLand Boards, LLC - Z80_PSoC monitor\n\r");
 265              		.loc 1 45 0
 266              		.cfi_startproc
 267              		@ args = 0, pretend = 0, frame = 0
 268              		@ frame_needed = 0, uses_anonymous_args = 0
 269 0000 08B5     		push	{r3, lr}
 270              		.cfi_def_cfa_offset 8
 271              		.cfi_offset 3, -8
 272              		.cfi_offset 14, -4
  46:Z80_PSoC_3Chips.c **** 	putStringToUSB("I - Initialize SD Card\n\r");
 273              		.loc 1 46 0
 274 0002 0E48     		ldr	r0, .L23
 275 0004 FFF7FEFF 		bl	putStringToUSB
 276              	.LVL28:
  47:Z80_PSoC_3Chips.c **** 	putStringToUSB("B - Blink LED on Z80-PSoC card once\n\r");
 277              		.loc 1 47 0
 278 0008 0D48     		ldr	r0, .L23+4
 279 000a FFF7FEFF 		bl	putStringToUSB
 280              	.LVL29:
  48:Z80_PSoC_3Chips.c ****     putStringToUSB("F - Read Front Panel & ech0 keypresses\n\r");
 281              		.loc 1 48 0
 282 000e 0D48     		ldr	r0, .L23+8
 283 0010 FFF7FEFF 		bl	putStringToUSB
 284              	.LVL30:
  49:Z80_PSoC_3Chips.c **** 	putStringToUSB("R xxxxxxxx - Read sector xxxxxxxx from the SD Card\n\r");
 285              		.loc 1 49 0
 286 0014 0C48     		ldr	r0, .L23+12
 287 0016 FFF7FEFF 		bl	putStringToUSB
 288              	.LVL31:
  50:Z80_PSoC_3Chips.c **** 	putStringToUSB("N - Read next sector from the SD Card\n\r");
 289              		.loc 1 50 0
 290 001a 0C48     		ldr	r0, .L23+16
 291 001c FFF7FEFF 		bl	putStringToUSB
 292              	.LVL32:
  51:Z80_PSoC_3Chips.c **** 	putStringToUSB("W - Write to the SD Card at 2GB - 1 sector\n\r");
 293              		.loc 1 51 0
 294 0020 0B48     		ldr	r0, .L23+20
 295 0022 FFF7FEFF 		bl	putStringToUSB
 296              	.LVL33:
  52:Z80_PSoC_3Chips.c **** 	putStringToUSB("X - eXit Monitor and run Z80\n\r");
 297              		.loc 1 52 0
 298 0026 0B48     		ldr	r0, .L23+24
 299 0028 FFF7FEFF 		bl	putStringToUSB
 300              	.LVL34:
ARM GAS  C:\Users\HPz420\AppData\Local\Temp\cch8MVZv.s 			page 10


  53:Z80_PSoC_3Chips.c **** 	putStringToUSB("? - Print this menu\n\r");
 301              		.loc 1 53 0
 302 002c 0A48     		ldr	r0, .L23+28
 303 002e FFF7FEFF 		bl	putStringToUSB
 304              	.LVL35:
  54:Z80_PSoC_3Chips.c **** }
 305              		.loc 1 54 0
 306 0032 0A48     		ldr	r0, .L23+32
 307 0034 FFF7FEFF 		bl	putStringToUSB
 308              	.LVL36:
 309 0038 08BD     		pop	{r3, pc}
 310              	.L24:
 311 003a 00BF     		.align	2
 312              	.L23:
 313 003c 00000000 		.word	.LC0
 314 0040 28000000 		.word	.LC1
 315 0044 44000000 		.word	.LC2
 316 0048 6C000000 		.word	.LC3
 317 004c 98000000 		.word	.LC4
 318 0050 D0000000 		.word	.LC5
 319 0054 F8000000 		.word	.LC6
 320 0058 28010000 		.word	.LC7
 321 005c 48010000 		.word	.LC8
 322              		.cfi_endproc
 323              	.LFE65:
 324              		.size	printMenuScreen, .-printMenuScreen
 325              		.section	.text.psocMenu,"ax",%progbits
 326              		.align	2
 327              		.global	psocMenu
 328              		.thumb
 329              		.thumb_func
 330              		.type	psocMenu, %function
 331              	psocMenu:
 332              	.LFB68:
  91:Z80_PSoC_3Chips.c **** 	while (0u == USBUART_CDCIsReady()); // Wait until component is ready to send data to host
 333              		.loc 1 91 0
 334              		.cfi_startproc
 335              		@ args = 0, pretend = 0, frame = 16
 336              		@ frame_needed = 0, uses_anonymous_args = 0
 337 0000 10B5     		push	{r4, lr}
 338              		.cfi_def_cfa_offset 8
 339              		.cfi_offset 4, -8
 340              		.cfi_offset 14, -4
 341 0002 84B0     		sub	sp, sp, #16
 342              		.cfi_def_cfa_offset 24
 343              	.L26:
  92:Z80_PSoC_3Chips.c **** 	if ((receiveBuffer[0] == 'r') || (receiveBuffer[0] == 'R'))
 344              		.loc 1 92 0 discriminator 1
 345 0004 FFF7FEFF 		bl	USBUART_CDCIsReady
 346              	.LVL37:
 347 0008 0028     		cmp	r0, #0
 348 000a FBD0     		beq	.L26
  93:Z80_PSoC_3Chips.c **** 	{
 349              		.loc 1 93 0
 350 000c 324B     		ldr	r3, .L44
 351 000e 1B78     		ldrb	r3, [r3]	@ zero_extendqisi2
 352 0010 722B     		cmp	r3, #114
ARM GAS  C:\Users\HPz420\AppData\Local\Temp\cch8MVZv.s 			page 11


 353 0012 01D0     		beq	.L27
  93:Z80_PSoC_3Chips.c **** 	{
 354              		.loc 1 93 0 is_stmt 0 discriminator 1
 355 0014 522B     		cmp	r3, #82
 356 0016 0AD1     		bne	.L28
 357              	.L27:
  95:Z80_PSoC_3Chips.c ****         sectorNumber = extractLong(receiveBuffer);
 358              		.loc 1 95 0 is_stmt 1
 359 0018 3048     		ldr	r0, .L44+4
 360 001a FFF7FEFF 		bl	putStringToUSB
 361              	.LVL38:
  96:Z80_PSoC_3Chips.c ****         readSDCard(sectorNumber);
 362              		.loc 1 96 0
 363 001e 2E48     		ldr	r0, .L44
 364 0020 FFF7FEFF 		bl	extractLong
 365              	.LVL39:
 366 0024 2E4B     		ldr	r3, .L44+8
 367 0026 1860     		str	r0, [r3]
  97:Z80_PSoC_3Chips.c **** 	}
 368              		.loc 1 97 0
 369 0028 FFF7FEFF 		bl	readSDCard
 370              	.LVL40:
 371 002c 4FE0     		b	.L29
 372              	.L28:
  99:Z80_PSoC_3Chips.c **** 	{
 373              		.loc 1 99 0
 374 002e 6E2B     		cmp	r3, #110
 375 0030 01D0     		beq	.L30
  99:Z80_PSoC_3Chips.c **** 	{
 376              		.loc 1 99 0 is_stmt 0 discriminator 1
 377 0032 4E2B     		cmp	r3, #78
 378 0034 09D1     		bne	.L31
 379              	.L30:
 101:Z80_PSoC_3Chips.c ****         sectorNumber++;
 380              		.loc 1 101 0 is_stmt 1
 381 0036 2B48     		ldr	r0, .L44+12
 382 0038 FFF7FEFF 		bl	putStringToUSB
 383              	.LVL41:
 102:Z80_PSoC_3Chips.c ****         readSDCard(sectorNumber);
 384              		.loc 1 102 0
 385 003c 284B     		ldr	r3, .L44+8
 386 003e 1868     		ldr	r0, [r3]
 387 0040 0130     		adds	r0, r0, #1
 388 0042 1860     		str	r0, [r3]
 103:Z80_PSoC_3Chips.c **** 	}
 389              		.loc 1 103 0
 390 0044 FFF7FEFF 		bl	readSDCard
 391              	.LVL42:
 392 0048 41E0     		b	.L29
 393              	.L31:
 105:Z80_PSoC_3Chips.c **** 	{
 394              		.loc 1 105 0
 395 004a 622B     		cmp	r3, #98
 396 004c 01D0     		beq	.L32
 105:Z80_PSoC_3Chips.c **** 	{
 397              		.loc 1 105 0 is_stmt 0 discriminator 1
 398 004e 422B     		cmp	r3, #66
ARM GAS  C:\Users\HPz420\AppData\Local\Temp\cch8MVZv.s 			page 12


 399 0050 06D1     		bne	.L33
 400              	.L32:
 107:Z80_PSoC_3Chips.c ****         PostLed(1);
 401              		.loc 1 107 0 is_stmt 1
 402 0052 2548     		ldr	r0, .L44+16
 403 0054 FFF7FEFF 		bl	putStringToUSB
 404              	.LVL43:
 108:Z80_PSoC_3Chips.c **** 	}
 405              		.loc 1 108 0
 406 0058 0120     		movs	r0, #1
 407 005a FFF7FEFF 		bl	PostLed
 408              	.LVL44:
 409 005e 36E0     		b	.L29
 410              	.L33:
 110:Z80_PSoC_3Chips.c **** 	{
 411              		.loc 1 110 0
 412 0060 772B     		cmp	r3, #119
 413 0062 01D0     		beq	.L34
 110:Z80_PSoC_3Chips.c **** 	{
 414              		.loc 1 110 0 is_stmt 0 discriminator 1
 415 0064 572B     		cmp	r3, #87
 416 0066 06D1     		bne	.L35
 417              	.L34:
 112:Z80_PSoC_3Chips.c ****         writeSDCard(0x1FFFFF);
 418              		.loc 1 112 0 is_stmt 1
 419 0068 2048     		ldr	r0, .L44+20
 420 006a FFF7FEFF 		bl	putStringToUSB
 421              	.LVL45:
 113:Z80_PSoC_3Chips.c **** 	}
 422              		.loc 1 113 0
 423 006e 2048     		ldr	r0, .L44+24
 424 0070 FFF7FEFF 		bl	writeSDCard
 425              	.LVL46:
 426 0074 2BE0     		b	.L29
 427              	.L35:
 115:Z80_PSoC_3Chips.c **** 	{
 428              		.loc 1 115 0
 429 0076 692B     		cmp	r3, #105
 430 0078 01D0     		beq	.L36
 115:Z80_PSoC_3Chips.c **** 	{
 431              		.loc 1 115 0 is_stmt 0 discriminator 1
 432 007a 492B     		cmp	r3, #73
 433 007c 05D1     		bne	.L37
 434              	.L36:
 117:Z80_PSoC_3Chips.c ****         SDInit();
 435              		.loc 1 117 0 is_stmt 1
 436 007e 1D48     		ldr	r0, .L44+28
 437 0080 FFF7FEFF 		bl	putStringToUSB
 438              	.LVL47:
 118:Z80_PSoC_3Chips.c **** 	}
 439              		.loc 1 118 0
 440 0084 FFF7FEFF 		bl	SDInit
 441              	.LVL48:
 442 0088 21E0     		b	.L29
 443              	.L37:
 121:Z80_PSoC_3Chips.c **** 	{
 444              		.loc 1 121 0
ARM GAS  C:\Users\HPz420\AppData\Local\Temp\cch8MVZv.s 			page 13


 445 008a 662B     		cmp	r3, #102
 446 008c 01D0     		beq	.L38
 121:Z80_PSoC_3Chips.c **** 	{
 447              		.loc 1 121 0 is_stmt 0 discriminator 1
 448 008e 462B     		cmp	r3, #70
 449 0090 12D1     		bne	.L39
 450              	.L38:
 451              	.LBB2:
 124:Z80_PSoC_3Chips.c ****   		sprintf(lineString,"0x%08lx",fpIntVal);
 452              		.loc 1 124 0 is_stmt 1
 453 0092 1948     		ldr	r0, .L44+32
 454 0094 FFF7FEFF 		bl	putStringToUSB
 455              	.LVL49:
 125:Z80_PSoC_3Chips.c ****         putStringToUSB(lineString);
 456              		.loc 1 125 0
 457 0098 184C     		ldr	r4, .L44+36
 458 009a 2268     		ldr	r2, [r4]
 459 009c 1849     		ldr	r1, .L44+40
 460 009e 6846     		mov	r0, sp
 461 00a0 FFF7FEFF 		bl	sprintf
 462              	.LVL50:
 126:Z80_PSoC_3Chips.c ****         putStringToUSB("\n\r");
 463              		.loc 1 126 0
 464 00a4 6846     		mov	r0, sp
 465 00a6 FFF7FEFF 		bl	putStringToUSB
 466              	.LVL51:
 127:Z80_PSoC_3Chips.c **** 		writeFrontPanelLEDs(fpIntVal);
 467              		.loc 1 127 0
 468 00aa 1648     		ldr	r0, .L44+44
 469 00ac FFF7FEFF 		bl	putStringToUSB
 470              	.LVL52:
 128:Z80_PSoC_3Chips.c **** 	}
 471              		.loc 1 128 0
 472 00b0 2068     		ldr	r0, [r4]
 473 00b2 FFF7FEFF 		bl	writeFrontPanelLEDs
 474              	.LVL53:
 475              	.LBE2:
 122:Z80_PSoC_3Chips.c ****         char lineString[16];
 476              		.loc 1 122 0
 477 00b6 0AE0     		b	.L29
 478              	.L39:
 130:Z80_PSoC_3Chips.c **** 	{
 479              		.loc 1 130 0
 480 00b8 782B     		cmp	r3, #120
 481 00ba 01D0     		beq	.L40
 130:Z80_PSoC_3Chips.c **** 	{
 482              		.loc 1 130 0 is_stmt 0 discriminator 1
 483 00bc 582B     		cmp	r3, #88
 484 00be 04D1     		bne	.L41
 485              	.L40:
 132:Z80_PSoC_3Chips.c ****         return(1);
 486              		.loc 1 132 0 is_stmt 1
 487 00c0 1148     		ldr	r0, .L44+48
 488 00c2 FFF7FEFF 		bl	putStringToUSB
 489              	.LVL54:
 133:Z80_PSoC_3Chips.c **** 	}
 490              		.loc 1 133 0
ARM GAS  C:\Users\HPz420\AppData\Local\Temp\cch8MVZv.s 			page 14


 491 00c6 0120     		movs	r0, #1
 492 00c8 04E0     		b	.L42
 493              	.L41:
 138:Z80_PSoC_3Chips.c **** 	}
 494              		.loc 1 138 0
 495 00ca FFF7FEFF 		bl	printMenuScreen
 496              	.LVL55:
 497              	.L29:
 140:Z80_PSoC_3Chips.c ****     return (0);
 498              		.loc 1 140 0
 499 00ce FFF7FEFF 		bl	clearReceiveBuffer
 500              	.LVL56:
 141:Z80_PSoC_3Chips.c **** }
 501              		.loc 1 141 0
 502 00d2 0020     		movs	r0, #0
 503              	.L42:
 142:Z80_PSoC_3Chips.c **** 
 504              		.loc 1 142 0
 505 00d4 04B0     		add	sp, sp, #16
 506              		.cfi_def_cfa_offset 8
 507              		@ sp needed
 508 00d6 10BD     		pop	{r4, pc}
 509              	.L45:
 510              		.align	2
 511              	.L44:
 512 00d8 00000000 		.word	receiveBuffer
 513 00dc 60010000 		.word	.LC9
 514 00e0 00000000 		.word	sectorNumber
 515 00e4 78010000 		.word	.LC10
 516 00e8 9C010000 		.word	.LC11
 517 00ec A8010000 		.word	.LC12
 518 00f0 FFFF1F00 		.word	2097151
 519 00f4 D4010000 		.word	.LC13
 520 00f8 F0010000 		.word	.LC14
 521 00fc 00000000 		.word	fpIntVal
 522 0100 08020000 		.word	.LC15
 523 0104 10020000 		.word	.LC16
 524 0108 14020000 		.word	.LC17
 525              		.cfi_endproc
 526              	.LFE68:
 527              		.size	psocMenu, .-psocMenu
 528              		.section	.text.addToReceiveBuffer,"ax",%progbits
 529              		.align	2
 530              		.global	addToReceiveBuffer
 531              		.thumb
 532              		.thumb_func
 533              		.type	addToReceiveBuffer, %function
 534              	addToReceiveBuffer:
 535              	.LFB70:
 158:Z80_PSoC_3Chips.c ****     uint8 echoString[80];
 536              		.loc 1 158 0
 537              		.cfi_startproc
 538              		@ args = 0, pretend = 0, frame = 80
 539              		@ frame_needed = 0, uses_anonymous_args = 0
 540              	.LVL57:
 541 0000 F0B5     		push	{r4, r5, r6, r7, lr}
 542              		.cfi_def_cfa_offset 20
ARM GAS  C:\Users\HPz420\AppData\Local\Temp\cch8MVZv.s 			page 15


 543              		.cfi_offset 4, -20
 544              		.cfi_offset 5, -16
 545              		.cfi_offset 6, -12
 546              		.cfi_offset 7, -8
 547              		.cfi_offset 14, -4
 548 0002 95B0     		sub	sp, sp, #84
 549              		.cfi_def_cfa_offset 104
 550 0004 0646     		mov	r6, r0
 551 0006 0D46     		mov	r5, r1
 160:Z80_PSoC_3Chips.c ****     for (uint8 receiveCt = 0; receiveCt < inCount; receiveCt++)
 552              		.loc 1 160 0
 553 0008 0024     		movs	r4, #0
 554 000a 8DF80040 		strb	r4, [sp]
 555              	.LVL58:
 556              	.LBB3:
 161:Z80_PSoC_3Chips.c ****     {
 557              		.loc 1 161 0
 558 000e 3CE0     		b	.L47
 559              	.LVL59:
 560              	.L52:
 164:Z80_PSoC_3Chips.c ****         {
 561              		.loc 1 164 0
 562 0010 2A19     		adds	r2, r5, r4
 563 0012 2B5D     		ldrb	r3, [r5, r4]	@ zero_extendqisi2
 564 0014 0A2B     		cmp	r3, #10
 565 0016 01D0     		beq	.L48
 164:Z80_PSoC_3Chips.c ****         {
 566              		.loc 1 164 0 is_stmt 0 discriminator 1
 567 0018 0D2B     		cmp	r3, #13
 568 001a 06D1     		bne	.L49
 569              	.L48:
 166:Z80_PSoC_3Chips.c ****             putStringToUSB("\n\r");
 570              		.loc 1 166 0 is_stmt 1
 571 001c 0122     		movs	r2, #1
 572 001e 1D4B     		ldr	r3, .L54
 573 0020 1A70     		strb	r2, [r3]
 167:Z80_PSoC_3Chips.c ****         }
 574              		.loc 1 167 0
 575 0022 1D48     		ldr	r0, .L54+4
 576 0024 FFF7FEFF 		bl	putStringToUSB
 577              	.LVL60:
 578 0028 2DE0     		b	.L50
 579              	.L49:
 170:Z80_PSoC_3Chips.c ****         {
 580              		.loc 1 170 0
 581 002a 7F2B     		cmp	r3, #127
 582 002c 15D0     		beq	.L51
 170:Z80_PSoC_3Chips.c ****         {
 583              		.loc 1 170 0 is_stmt 0 discriminator 1
 584 002e 4F2C     		cmp	r4, #79
 585 0030 13D8     		bhi	.L51
 172:Z80_PSoC_3Chips.c ****             receiveBufferPtr++;
 586              		.loc 1 172 0 is_stmt 1
 587 0032 1A48     		ldr	r0, .L54+8
 588 0034 0178     		ldrb	r1, [r0]	@ zero_extendqisi2
 589 0036 1A4F     		ldr	r7, .L54+12
 590 0038 7B54     		strb	r3, [r7, r1]
ARM GAS  C:\Users\HPz420\AppData\Local\Temp\cch8MVZv.s 			page 16


 173:Z80_PSoC_3Chips.c ****             echoString[inCount] = 0;
 591              		.loc 1 173 0
 592 003a 0131     		adds	r1, r1, #1
 593 003c 0170     		strb	r1, [r0]
 174:Z80_PSoC_3Chips.c ****             echoString[receiveCt] = inBuffer[receiveCt];
 594              		.loc 1 174 0
 595 003e 0021     		movs	r1, #0
 596 0040 14AB     		add	r3, sp, #80
 597 0042 3344     		add	r3, r3, r6
 598 0044 03F8501C 		strb	r1, [r3, #-80]
 175:Z80_PSoC_3Chips.c ****             putStringToUSB((char *)echoString);
 599              		.loc 1 175 0
 600 0048 1278     		ldrb	r2, [r2]	@ zero_extendqisi2
 601 004a 14AB     		add	r3, sp, #80
 602 004c 2344     		add	r3, r3, r4
 603 004e 03F8502C 		strb	r2, [r3, #-80]
 176:Z80_PSoC_3Chips.c ****         }
 604              		.loc 1 176 0
 605 0052 6846     		mov	r0, sp
 606 0054 FFF7FEFF 		bl	putStringToUSB
 607              	.LVL61:
 608 0058 15E0     		b	.L50
 609              	.L51:
 179:Z80_PSoC_3Chips.c ****         {
 610              		.loc 1 179 0
 611 005a 104A     		ldr	r2, .L54+8
 612 005c 1278     		ldrb	r2, [r2]	@ zero_extendqisi2
 613 005e 92B1     		cbz	r2, .L50
 179:Z80_PSoC_3Chips.c ****         {
 614              		.loc 1 179 0 is_stmt 0 discriminator 1
 615 0060 7F2B     		cmp	r3, #127
 616 0062 10D1     		bne	.L50
 181:Z80_PSoC_3Chips.c ****             echoString[0] = 0x08;       // Backspace
 617              		.loc 1 181 0 is_stmt 1
 618 0064 013A     		subs	r2, r2, #1
 619 0066 0D4B     		ldr	r3, .L54+8
 620 0068 1A70     		strb	r2, [r3]
 182:Z80_PSoC_3Chips.c ****             echoString[1] = 0x20;       // Space
 621              		.loc 1 182 0
 622 006a 0823     		movs	r3, #8
 623 006c 8DF80030 		strb	r3, [sp]
 183:Z80_PSoC_3Chips.c ****             echoString[2] = 0x08;       // Backspace
 624              		.loc 1 183 0
 625 0070 2022     		movs	r2, #32
 626 0072 8DF80120 		strb	r2, [sp, #1]
 184:Z80_PSoC_3Chips.c ****             echoString[3] = 0;
 627              		.loc 1 184 0
 628 0076 8DF80230 		strb	r3, [sp, #2]
 185:Z80_PSoC_3Chips.c ****             putStringToUSB((char *)echoString);
 629              		.loc 1 185 0
 630 007a 0023     		movs	r3, #0
 631 007c 8DF80330 		strb	r3, [sp, #3]
 186:Z80_PSoC_3Chips.c ****         }
 632              		.loc 1 186 0
 633 0080 6846     		mov	r0, sp
 634 0082 FFF7FEFF 		bl	putStringToUSB
 635              	.LVL62:
ARM GAS  C:\Users\HPz420\AppData\Local\Temp\cch8MVZv.s 			page 17


 636              	.L50:
 161:Z80_PSoC_3Chips.c ****     {
 637              		.loc 1 161 0 discriminator 2
 638 0086 0134     		adds	r4, r4, #1
 639              	.LVL63:
 640 0088 E4B2     		uxtb	r4, r4
 641              	.LVL64:
 642              	.L47:
 161:Z80_PSoC_3Chips.c ****     {
 643              		.loc 1 161 0 is_stmt 0 discriminator 1
 644 008a A3B2     		uxth	r3, r4
 645 008c B342     		cmp	r3, r6
 646 008e BFD3     		bcc	.L52
 647              	.LBE3:
 189:Z80_PSoC_3Chips.c **** 
 648              		.loc 1 189 0 is_stmt 1
 649 0090 15B0     		add	sp, sp, #84
 650              		.cfi_def_cfa_offset 20
 651              		@ sp needed
 652 0092 F0BD     		pop	{r4, r5, r6, r7, pc}
 653              	.LVL65:
 654              	.L55:
 655              		.align	2
 656              	.L54:
 657 0094 00000000 		.word	gotCRorLF
 658 0098 10020000 		.word	.LC16
 659 009c 00000000 		.word	receiveBufferPtr
 660 00a0 00000000 		.word	receiveBuffer
 661              		.cfi_endproc
 662              	.LFE70:
 663              		.size	addToReceiveBuffer, .-addToReceiveBuffer
 664              		.section	.text.I2CIntISR,"ax",%progbits
 665              		.align	2
 666              		.global	I2CIntISR
 667              		.thumb
 668              		.thumb_func
 669              		.type	I2CIntISR, %function
 670              	I2CIntISR:
 671              	.LFB72:
 200:Z80_PSoC_3Chips.c **** 
 201:Z80_PSoC_3Chips.c **** ////////////////////////////////////////////////////////////////////////////
 202:Z80_PSoC_3Chips.c **** // void I2CIntISR(void) - Handle the I2CINT* line
 203:Z80_PSoC_3Chips.c **** // The routine is called when a button on the front panel is pressed or 
 204:Z80_PSoC_3Chips.c **** //  Expansion MCP23017 pin is toggle by a JOYPAD or General Purpose Input
 205:Z80_PSoC_3Chips.c **** 
 206:Z80_PSoC_3Chips.c **** void I2CIntISR(void)
 207:Z80_PSoC_3Chips.c **** {
 672              		.loc 1 207 0
 673              		.cfi_startproc
 674              		@ args = 0, pretend = 0, frame = 0
 675              		@ frame_needed = 0, uses_anonymous_args = 0
 676 0000 10B5     		push	{r4, lr}
 677              		.cfi_def_cfa_offset 8
 678              		.cfi_offset 4, -8
 679              		.cfi_offset 14, -4
 208:Z80_PSoC_3Chips.c **** 	#ifdef USING_FRONT_PANEL
 209:Z80_PSoC_3Chips.c ****     uint32 lFPVal;
ARM GAS  C:\Users\HPz420\AppData\Local\Temp\cch8MVZv.s 			page 18


 210:Z80_PSoC_3Chips.c **** 	#endif
 211:Z80_PSoC_3Chips.c ****     uint8 bPortA;
 212:Z80_PSoC_3Chips.c ****     uint8 bPortB;
 213:Z80_PSoC_3Chips.c ****     I2CINT_ISR_Disable();       // Cause an implicit delay between interrupts
 680              		.loc 1 213 0
 681 0002 FFF7FEFF 		bl	I2CINT_ISR_Disable
 682              	.LVL66:
 214:Z80_PSoC_3Chips.c **** 	#ifdef USING_FRONT_PANEL
 215:Z80_PSoC_3Chips.c ****   		lFPVal = readRegister_MCP23017(0x24,MCP23017_GPIOA_REGADR) << 8;                  // Clears int
 683              		.loc 1 215 0
 684 0006 1221     		movs	r1, #18
 685 0008 2420     		movs	r0, #36
 686 000a FFF7FEFF 		bl	readRegister_MCP23017
 687              	.LVL67:
 688 000e 0402     		lsls	r4, r0, #8
 689              	.LVL68:
 216:Z80_PSoC_3Chips.c ****   		lFPVal = ((readRegister_MCP23017(0x25,MCP23017_GPIOA_REGADR) | lFPVal) << 8);     // Clears int
 690              		.loc 1 216 0
 691 0010 1221     		movs	r1, #18
 692 0012 2520     		movs	r0, #37
 693 0014 FFF7FEFF 		bl	readRegister_MCP23017
 694              	.LVL69:
 695 0018 2043     		orrs	r0, r0, r4
 696 001a 0402     		lsls	r4, r0, #8
 697              	.LVL70:
 217:Z80_PSoC_3Chips.c ****   		lFPVal = ((readRegister_MCP23017(0x26,MCP23017_GPIOA_REGADR) | lFPVal) << 8);     // Clears int
 698              		.loc 1 217 0
 699 001c 1221     		movs	r1, #18
 700 001e 2620     		movs	r0, #38
 701 0020 FFF7FEFF 		bl	readRegister_MCP23017
 702              	.LVL71:
 703 0024 2043     		orrs	r0, r0, r4
 704 0026 0402     		lsls	r4, r0, #8
 705              	.LVL72:
 218:Z80_PSoC_3Chips.c ****   		lFPVal = readRegister_MCP23017(0x27,MCP23017_GPIOA_REGADR)   | lFPVal;            // Clears int
 706              		.loc 1 218 0
 707 0028 1221     		movs	r1, #18
 708 002a 2720     		movs	r0, #39
 709 002c FFF7FEFF 		bl	readRegister_MCP23017
 710              	.LVL73:
 711 0030 2043     		orrs	r0, r0, r4
 712              	.LVL74:
 219:Z80_PSoC_3Chips.c ****         fpIntVal = fpIntVal ^ lFPVal;
 713              		.loc 1 219 0
 714 0032 0C4B     		ldr	r3, .L58
 715 0034 1C68     		ldr	r4, [r3]
 716 0036 4440     		eors	r4, r4, r0
 717 0038 1C60     		str	r4, [r3]
 220:Z80_PSoC_3Chips.c **** 	#endif
 221:Z80_PSoC_3Chips.c **** 	#ifdef USING_EXP_MCCP23017
 222:Z80_PSoC_3Chips.c ****   		bPortA = readRegister_MCP23017(0x20,MCP23017_GPIOA_REGADR);                      // Clears inte
 718              		.loc 1 222 0
 719 003a 1221     		movs	r1, #18
 720 003c 2020     		movs	r0, #32
 721              	.LVL75:
 722 003e FFF7FEFF 		bl	readRegister_MCP23017
 723              	.LVL76:
ARM GAS  C:\Users\HPz420\AppData\Local\Temp\cch8MVZv.s 			page 19


 223:Z80_PSoC_3Chips.c ****         PIO_Input_Register_Port_A = bPortA;
 724              		.loc 1 223 0
 725 0042 094B     		ldr	r3, .L58+4
 726 0044 1870     		strb	r0, [r3]
 224:Z80_PSoC_3Chips.c ****         pioAIntVals = pioAIntVals ^ bPortA;
 727              		.loc 1 224 0
 728 0046 094A     		ldr	r2, .L58+8
 729 0048 1378     		ldrb	r3, [r2]	@ zero_extendqisi2
 730 004a 5840     		eors	r0, r0, r3
 731              	.LVL77:
 732 004c 1070     		strb	r0, [r2]
 225:Z80_PSoC_3Chips.c ****   		bPortB = readRegister_MCP23017(0x20,MCP23017_GPIOB_REGADR);                      // Clears inte
 733              		.loc 1 225 0
 734 004e 1321     		movs	r1, #19
 735 0050 2020     		movs	r0, #32
 736 0052 FFF7FEFF 		bl	readRegister_MCP23017
 737              	.LVL78:
 226:Z80_PSoC_3Chips.c ****         PIO_Input_Register_Port_B = bPortB;
 738              		.loc 1 226 0
 739 0056 064B     		ldr	r3, .L58+12
 740 0058 1870     		strb	r0, [r3]
 227:Z80_PSoC_3Chips.c ****         pioBIntVals = pioBIntVals ^ bPortB;
 741              		.loc 1 227 0
 742 005a 064A     		ldr	r2, .L58+16
 743 005c 1378     		ldrb	r3, [r2]	@ zero_extendqisi2
 744 005e 5840     		eors	r0, r0, r3
 745              	.LVL79:
 746 0060 1070     		strb	r0, [r2]
 747 0062 10BD     		pop	{r4, pc}
 748              	.L59:
 749              		.align	2
 750              	.L58:
 751 0064 00000000 		.word	fpIntVal
 752 0068 00000000 		.word	PIO_Input_Register_Port_A
 753 006c 00000000 		.word	pioAIntVals
 754 0070 00000000 		.word	PIO_Input_Register_Port_B
 755 0074 00000000 		.word	pioBIntVals
 756              		.cfi_endproc
 757              	.LFE72:
 758              		.size	I2CIntISR, .-I2CIntISR
 759              		.comm	sectorNumber,4,4
 760              		.comm	gotCRorLF,1,1
 761              		.comm	receiveBufferPtr,1,1
 762              		.comm	receiveBuffer,80,4
 763              		.section	.rodata.str1.4,"aMS",%progbits,1
 764              		.align	2
 765              	.LC0:
 766 0000 0A0D4C61 		.ascii	"\012\015Land Boards, LLC - Z80_PSoC monitor\012\015"
 766      6E642042 
 766      6F617264 
 766      732C204C 
 766      4C43202D 
 767 0027 00       		.ascii	"\000"
 768              	.LC1:
 769 0028 49202D20 		.ascii	"I - Initialize SD Card\012\015\000"
 769      496E6974 
 769      69616C69 
ARM GAS  C:\Users\HPz420\AppData\Local\Temp\cch8MVZv.s 			page 20


 769      7A652053 
 769      44204361 
 770 0041 000000   		.space	3
 771              	.LC2:
 772 0044 42202D20 		.ascii	"B - Blink LED on Z80-PSoC card once\012\015\000"
 772      426C696E 
 772      6B204C45 
 772      44206F6E 
 772      205A3830 
 773 006a 0000     		.space	2
 774              	.LC3:
 775 006c 46202D20 		.ascii	"F - Read Front Panel & ech0 keypresses\012\015\000"
 775      52656164 
 775      2046726F 
 775      6E742050 
 775      616E656C 
 776 0095 000000   		.space	3
 777              	.LC4:
 778 0098 52207878 		.ascii	"R xxxxxxxx - Read sector xxxxxxxx from the SD Card\012"
 778      78787878 
 778      7878202D 
 778      20526561 
 778      64207365 
 779 00cb 0D00     		.ascii	"\015\000"
 780 00cd 000000   		.space	3
 781              	.LC5:
 782 00d0 4E202D20 		.ascii	"N - Read next sector from the SD Card\012\015\000"
 782      52656164 
 782      206E6578 
 782      74207365 
 782      63746F72 
 783              	.LC6:
 784 00f8 57202D20 		.ascii	"W - Write to the SD Card at 2GB - 1 sector\012\015\000"
 784      57726974 
 784      6520746F 
 784      20746865 
 784      20534420 
 785 0125 000000   		.space	3
 786              	.LC7:
 787 0128 58202D20 		.ascii	"X - eXit Monitor and run Z80\012\015\000"
 787      65586974 
 787      204D6F6E 
 787      69746F72 
 787      20616E64 
 788 0147 00       		.space	1
 789              	.LC8:
 790 0148 3F202D20 		.ascii	"? - Print this menu\012\015\000"
 790      5072696E 
 790      74207468 
 790      6973206D 
 790      656E750A 
 791 015e 0000     		.space	2
 792              	.LC9:
 793 0160 52656164 		.ascii	"Read from the SD Card\012\015\000"
 793      2066726F 
 793      6D207468 
 793      65205344 
ARM GAS  C:\Users\HPz420\AppData\Local\Temp\cch8MVZv.s 			page 21


 793      20436172 
 794              	.LC10:
 795 0178 52656164 		.ascii	"Read next sector from the SD Card\012\015\000"
 795      206E6578 
 795      74207365 
 795      63746F72 
 795      2066726F 
 796              	.LC11:
 797 019c 426C696E 		.ascii	"Blink LED\012\015\000"
 797      6B204C45 
 797      440A0D00 
 798              	.LC12:
 799 01a8 57726974 		.ascii	"Write to the SD Card at 2GB - 1 sector\012\015\000"
 799      6520746F 
 799      20746865 
 799      20534420 
 799      43617264 
 800 01d1 000000   		.space	3
 801              	.LC13:
 802 01d4 496E6974 		.ascii	"Initialize the SD Card\012\015\000"
 802      69616C69 
 802      7A652074 
 802      68652053 
 802      44204361 
 803 01ed 000000   		.space	3
 804              	.LC14:
 805 01f0 46726F6E 		.ascii	"Front Panel Value - \000"
 805      74205061 
 805      6E656C20 
 805      56616C75 
 805      65202D20 
 806 0205 000000   		.space	3
 807              	.LC15:
 808 0208 30782530 		.ascii	"0x%08lx\000"
 808      386C7800 
 809              	.LC16:
 810 0210 0A0D00   		.ascii	"\012\015\000"
 811 0213 00       		.space	1
 812              	.LC17:
 813 0214 52756E20 		.ascii	"Run Z80\000"
 813      5A383000 
 814              		.text
 815              	.Letext0:
 816              		.file 2 "c:\\program files (x86)\\cypress\\psoc creator\\4.4\\psoc creator\\import\\gnu\\arm\\5.4.
 817              		.file 3 "c:\\program files (x86)\\cypress\\psoc creator\\4.4\\psoc creator\\import\\gnu\\arm\\5.4.
 818              		.file 4 "Generated_Source\\PSoC5/cytypes.h"
 819              		.file 5 "Generated_Source\\PSoC5/core_cm3.h"
 820              		.file 6 "./Z80_PIO_emul.h"
 821              		.file 7 "./Z80_PSoC_3Chips.h"
 822              		.file 8 "Generated_Source\\PSoC5/LED.h"
 823              		.file 9 "Generated_Source\\PSoC5/CyLib.h"
 824              		.file 10 "c:\\program files (x86)\\cypress\\psoc creator\\4.4\\psoc creator\\import\\gnu\\arm\\5.4
 825              		.file 11 "Generated_Source\\PSoC5/USBUART_cdc.h"
 826              		.file 12 "c:\\program files (x86)\\cypress\\psoc creator\\4.4\\psoc creator\\import\\gnu\\arm\\5.4
 827              		.file 13 "./FrontPanel.h"
 828              		.file 14 "./SDCard.h"
 829              		.file 15 "./Z80_SDCard_Emul.h"
ARM GAS  C:\Users\HPz420\AppData\Local\Temp\cch8MVZv.s 			page 22


 830              		.file 16 "Generated_Source\\PSoC5/I2CINT_ISR.h"