 8000  D8        CLD  
 8001  A9 FF     LDA  #$FF
 8003  85 10     STA  $10
 8005  A9 E6     LDA  #$E6
 8007  85 11     STA  $11
 8009  A2 21     LDX  #$21
 800B  BD C5 80  LDA  $80C5, X
 800E  95 00     STA  $00, X
 8010  CA        DEX  
 8011  D0 F8     BNE  $800B
 8013  AD C5 80  LDA  $80C5
 8016  85 00     STA  $00
 8018  A2 FF     LDX  #$FF
 801A  9A        TXS  
 801B  A2 78     LDX  #$78
 801D  A0 31     LDY  #$31
 801F  A9 00     LDA  #$00
 8021  B9 E7 80  LDA  $80E7, Y
 8024  91 1E     STA  ($1E), Y
 8026  88        DEY  
 8027  D0 F8     BNE  $8021
 8029  AD E7 80  LDA  $80E7
 802C  92 1E     STA  ($1E)
 802E  20 53 89  JSR  $8953
 8031  CA        DEX  
 8032  CA        DEX  
 8033  CA        DEX  
 8034  CA        DEX  
 8035  A9 9B     LDA  #$9B
 8037  95 02     STA  $02, X
 8039  A9 B9     LDA  #$B9
 803B  95 03     STA  $03, X
 803D  A9 BE     LDA  #$BE
 803F  38        SEC  
 8040  E9 9B     SBC  #$9B
 8042  95 00     STA  $00, X
 8044  A9 B9     LDA  #$B9
 8046  E9 B9     SBC  #$B9
 8048  95 01     STA  $01, X
 804A  20 C5 90  JSR  $90C5
 804D  CA        DEX  
 804E  CA        DEX  
 804F  CA        DEX  
 8050  CA        DEX  
 8051  A9 BE     LDA  #$BE
 8053  95 02     STA  $02, X
 8055  A9 B9     LDA  #$B9
 8057  95 03     STA  $03, X
 8059  A9 57     LDA  #$57
 805B  38        SEC  
 805C  E9 BE     SBC  #$BE
 805E  95 00     STA  $00, X
 8060  A9 BF     LDA  #$BF
 8062  E9 B9     SBC  #$B9
 8064  95 01     STA  $01, X
 8066  20 C5 90  JSR  $90C5
 8069  9C 00 7C  STZ  $7C00
 806C  9C 80 7C  STZ  $7C80
 806F  9C 00 7D  STZ  $7D00
 8072  9C 80 7D  STZ  $7D80
 8075  9C 00 7E  STZ  $7E00
 8078  9C 80 7E  STZ  $7E80
 807B  9C 00 7F  STZ  $7F00
 807E  9C 80 7F  STZ  $7F80
 8081  A2 78     LDX  #$78
 8083  8A        TXA  
 8084  A2 FF     LDX  #$FF
 8086  9A        TXS  
 8087  AA        TAX  
 8088  64 0E     STZ  $0E
 808A  64 0F     STZ  $0F
 808C  64 06     STZ  $06
 808E  64 07     STZ  $07
 8090  64 16     STZ  $16
 8092  64 17     STZ  $17
 8094  A9 00     LDA  #$00
 8096  85 08     STA  $08
 8098  A9 02     LDA  #$02
 809A  85 09     STA  $09
 809C  64 0A     STZ  $0A
 809E  64 0B     STZ  $0B
 80A0  20 7A 9A  JSR  $9A7A
 80A3  B5 00     LDA  $00, X
 80A5  D0 05     BNE  $80AC
 80A7  A9 06     LDA  #$06
 80A9  4C 58 DB  JMP  $DB58
 80AC  E8        INX  
 80AD  E8        INX  
 80AE  20 AA DA  JSR  $DAAA
 80B1  E0 78     CPX  #$78
 80B3  F0 05     BEQ  $80BA
 80B5  90 03     BCC  $80BA
 80B7  4C 56 DB  JMP  $DB56
 80BA  A5 16     LDA  $16
 80BC  F0 02     BEQ  $80C0
 80BE  A9 01     LDA  #$01
 80C0  20 88 DB  JSR  $DB88
 80C3  80 CF     BRA  $8094
 80C5  FF 07 7B CD 00 00 00 00 00 02 00 00 00 00 00 00  |..{.............|
 80D5  FF E6 F9 E6 00 00 00 00 0A 00 14 00 00 00 FF 02  |................|
 80E5  00 00 00 00 00 00 00 04 7B CD 0F CE 18 CE B7 CD  |........{.......|
 80F5  00 00 00 00 00 00 00 00 00 00 00 00 00 00 00 00  |................|
 8105  01 00 00 00 00 00 00 00 00 00 FF 03 00 00 00 00  |................|
 8115  4B 85 4B 85                                      |K.K.            |
 8119  20 D1 9C  JSR  $9CD1
 811C  A0 81     LDY  #$81
 811E  A9 24     LDA  #$24
 8120  20 E5 D9  JSR  $D9E5
 8123  60        RTS  
 8124  B5 04     LDA  $04, X
 8126  15 05     ORA  $05, X
 8128  F0 09     BEQ  $8133
 812A  20 7F A4  JSR  $A47F
 812D  20 53 89  JSR  $8953
 8130  4C 81 80  JMP  $8081
 8133  8A        TXA  
 8134  18        CLC  
 8135  69 06     ADC  #$06
 8137  AA        TAX  
 8138  60        RTS  
 8139  20 42 DB  JSR  $DB42
 813C  B5 01     LDA  $01, X
 813E  10 0D     BPL  $814D
 8140  38        SEC  
 8141  A9 00     LDA  #$00
 8143  F5 00     SBC  $00, X
 8145  95 00     STA  $00, X
 8147  A9 00     LDA  #$00
 8149  F5 01     SBC  $01, X
 814B  95 01     STA  $01, X
 814D  60        RTS  
 814E  20 47 DB  JSR  $DB47
 8151  B5 00     LDA  $00, X
 8153  15 01     ORA  $01, X
 8155  D0 09     BNE  $8160
 8157  E8        INX  
 8158  E8        INX  
 8159  74 00     STZ  $00, X
 815B  74 01     STZ  $01, X
 815D  4C 2C 82  JMP  $822C
 8160  B5 00     LDA  $00, X
 8162  85 26     STA  $26
 8164  64 27     STZ  $27
 8166  B5 02     LDA  $02, X
 8168  85 24     STA  $24
 816A  B5 03     LDA  $03, X
 816C  85 25     STA  $25
 816E  E8        INX  
 816F  E8        INX  
 8170  A0 00     LDY  #$00
 8172  A5 20     LDA  $20
 8174  29 F7     AND  #$F7
 8176  1A        INC  
 8177  09 08     ORA  #$08
 8179  85 20     STA  $20
 817B  20 28 93  JSR  $9328
 817E  C9 0A     CMP  #$0A
 8180  F0 20     BEQ  $81A2
 8182  C9 0D     CMP  #$0D
 8184  F0 1C     BEQ  $81A2
 8186  C9 08     CMP  #$08
 8188  F0 22     BEQ  $81AC
 818A  C9 7F     CMP  #$7F
 818C  F0 1E     BEQ  $81AC
 818E  C9 10     CMP  #$10
 8190  F0 36     BEQ  $81C8
 8192  C9 0E     CMP  #$0E
 8194  F0 44     BEQ  $81DA
 8196  91 24     STA  ($24), Y
 8198  C8        INY  
 8199  20 E6 8D  JSR  $8DE6
 819C  C4 26     CPY  $26
 819E  D0 DB     BNE  $817B
 81A0  80 03     BRA  $81A5
 81A2  20 A0 A0  JSR  $A0A0
 81A5  94 00     STY  $00, X
 81A7  74 01     STZ  $01, X
 81A9  4C 2C 82  JMP  $822C
 81AC  C0 00     CPY  #$00
 81AE  D0 06     BNE  $81B6
 81B0  A9 07     LDA  #$07
 81B2  20 E6 8D  JSR  $8DE6
 81B5  C8        INY  
 81B6  88        DEY  
 81B7  A9 08     LDA  #$08
 81B9  20 E6 8D  JSR  $8DE6
 81BC  A9 20     LDA  #$20
 81BE  20 E6 8D  JSR  $8DE6
 81C1  A9 08     LDA  #$08
 81C3  20 E6 8D  JSR  $8DE6
 81C6  80 B3     BRA  $817B
 81C8  A5 20     LDA  $20
 81CA  29 07     AND  #$07
 81CC  D0 08     BNE  $81D6
 81CE  A5 20     LDA  $20
 81D0  09 07     ORA  #$07
 81D2  85 20     STA  $20
 81D4  80 11     BRA  $81E7
 81D6  C6 20     DEC  $20
 81D8  80 0D     BRA  $81E7
 81DA  A9 08     LDA  #$08
 81DC  24 20     BIT  $20
 81DE  D0 07     BNE  $81E7
 81E0  A5 20     LDA  $20
 81E2  29 F7     AND  #$F7
 81E4  1A        INC  
 81E5  85 20     STA  $20
 81E7  A9 08     LDA  #$08
 81E9  14 20     TRB  $20
 81EB  20 47 82  JSR  $8247
 81EE  A9 0D     LDA  #$0D
 81F0  20 E6 8D  JSR  $8DE6
 81F3  C0 00     CPY  #$00
 81F5  F0 08     BEQ  $81FF
 81F7  A9 20     LDA  #$20
 81F9  20 E6 8D  JSR  $8DE6
 81FC  88        DEY  
 81FD  80 F4     BRA  $81F3
 81FF  A9 0D     LDA  #$0D
 8201  20 E6 8D  JSR  $8DE6
 8204  B1 28     LDA  ($28), Y
 8206  85 21     STA  $21
 8208  E6 28     INC  $28
 820A  D0 02     BNE  $820E
 820C  E6 29     INC  $29
 820E  A9 0D     LDA  #$0D
 8210  20 E6 8D  JSR  $8DE6
 8213  C4 21     CPY  $21
 8215  D0 03     BNE  $821A
 8217  4C 7B 81  JMP  $817B
 821A  C4 26     CPY  $26
 821C  F0 0A     BEQ  $8228
 821E  B1 28     LDA  ($28), Y
 8220  91 24     STA  ($24), Y
 8222  20 E6 8D  JSR  $8DE6
 8225  C8        INY  
 8226  80 EB     BRA  $8213
 8228  88        DEY  
 8229  4C 7B 81  JMP  $817B
 822C  20 47 82  JSR  $8247
 822F  85 21     STA  $21
 8231  A0 00     LDY  #$00
 8233  91 28     STA  ($28), Y
 8235  E6 28     INC  $28
 8237  D0 02     BNE  $823B
 8239  E6 29     INC  $29
 823B  C4 21     CPY  $21
 823D  F0 07     BEQ  $8246
 823F  B1 24     LDA  ($24), Y
 8241  91 28     STA  ($28), Y
 8243  C8        INY  
 8244  80 F5     BRA  $823B
 8246  60        RTS  
 8247  A9 00     LDA  #$00
 8249  85 28     STA  $28
 824B  A9 7C     LDA  #$7C
 824D  85 29     STA  $29
 824F  A5 20     LDA  $20
 8251  6A        ROR  
 8252  29 03     AND  #$03
 8254  18        CLC  
 8255  65 29     ADC  $29
 8257  85 29     STA  $29
 8259  A5 20     LDA  $20
 825B  6A        ROR  
 825C  6A        ROR  
 825D  29 80     AND  #$80
 825F  18        CLC  
 8260  65 28     ADC  $28
 8262  85 28     STA  $28
 8264  90 02     BCC  $8268
 8266  E6 29     INC  $29
 8268  98        TYA  
 8269  C9 80     CMP  #$80
 826B  90 02     BCC  $826F
 826D  A9 7F     LDA  #$7F
 826F  60        RTS  
 8270  A5 16     LDA  $16
 8272  05 17     ORA  $17
 8274  F0 0C     BEQ  $8282
 8276  20 8E 85  JSR  $858E
 8279  A0 8A     LDY  #$8A
 827B  A9 CF     LDA  #$CF
 827D  20 E5 D9  JSR  $D9E5
 8280  80 06     BRA  $8288
 8282  20 8D A1  JSR  $A18D
 8285  20 CF 8A  JSR  $8ACF
 8288  60        RTS  
 8289  20 42 DB  JSR  $DB42
 828C  A0 00     LDY  #$00
 828E  A9 4C     LDA  #$4C
 8290  91 00     STA  ($00), Y
 8292  C8        INY  
 8293  B5 00     LDA  $00, X
 8295  91 00     STA  ($00), Y
 8297  C8        INY  
 8298  B5 01     LDA  $01, X
 829A  91 00     STA  ($00), Y
 829C  C8        INY  
 829D  98        TYA  
 829E  18        CLC  
 829F  65 00     ADC  $00
 82A1  85 00     STA  $00
 82A3  90 02     BCC  $82A7
 82A5  E6 01     INC  $01
 82A7  E8        INX  
 82A8  E8        INX  
 82A9  60        RTS  
 82AA  60        RTS  
 82AB  20 42 DB  JSR  $DB42
 82AE  B5 01     LDA  $01, X
 82B0  30 22     BMI  $82D4
 82B2  18        CLC  
 82B3  A5 00     LDA  $00
 82B5  75 00     ADC  $00, X
 82B7  85 00     STA  $00
 82B9  A5 01     LDA  $01
 82BB  75 01     ADC  $01, X
 82BD  85 01     STA  $01
 82BF  A0 03     LDY  #$03
 82C1  C4 00     CPY  $00
 82C3  A9 7A     LDA  #$7A
 82C5  E5 01     SBC  $01
 82C7  B0 48     BCS  $8311
 82C9  84 00     STY  $00
 82CB  A9 7A     LDA  #$7A
 82CD  85 01     STA  $01
 82CF  A9 00     LDA  #$00
 82D1  4C 58 DB  JMP  $DB58
 82D4  CA        DEX  
 82D5  CA        DEX  
 82D6  A5 00     LDA  $00
 82D8  95 00     STA  $00, X
 82DA  A5 01     LDA  $01
 82DC  95 01     STA  $01, X
 82DE  20 65 99  JSR  $9965
 82E1  CA        DEX  
 82E2  CA        DEX  
 82E3  A9 FF     LDA  #$FF
 82E5  95 00     STA  $00, X
 82E7  A9 02     LDA  #$02
 82E9  95 01     STA  $01, X
 82EB  20 69 DA  JSR  $DA69
 82EE  F0 17     BEQ  $8307
 82F0  30 15     BMI  $8307
 82F2  A9 FF     LDA  #$FF
 82F4  85 00     STA  $00
 82F6  A9 02     LDA  #$02
 82F8  85 01     STA  $01
 82FA  A9 7B     LDA  #$7B
 82FC  85 02     STA  $02
 82FE  A9 CD     LDA  #$CD
 8300  85 03     STA  $03
 8302  A9 0A     LDA  #$0A
 8304  4C 58 DB  JMP  $DB58
 8307  B5 02     LDA  $02, X
 8309  85 00     STA  $00
 830B  B5 03     LDA  $03, X
 830D  85 01     STA  $01
 830F  E8        INX  
 8310  E8        INX  
 8311  E8        INX  
 8312  E8        INX  
 8313  60        RTS  
 8314  20 84 DA  JSR  $DA84
 8317  A0 01     LDY  #$01
 8319  B1 02     LDA  ($02), Y
 831B  29 F5     AND  #$F5
 831D  91 02     STA  ($02), Y
 831F  60        RTS  
 8320  20 24 91  JSR  $9124
 8323  20 15 98  JSR  $9815
 8326  20 2A A1  JSR  $A12A
 8329  20 9F 97  JSR  $979F
 832C  20 9D 9C  JSR  $9C9D
 832F  60        RTS  
 8330  20 84 DA  JSR  $DA84
 8333  A0 01     LDY  #$01
 8335  B1 02     LDA  ($02), Y
 8337  09 02     ORA  #$02
 8339  29 F7     AND  #$F7
 833B  91 02     STA  ($02), Y
 833D  60        RTS  
 833E  20 47 DB  JSR  $DB47
 8341  B5 00     LDA  $00, X
 8343  35 02     AND  $02, X
 8345  95 02     STA  $02, X
 8347  B5 01     LDA  $01, X
 8349  35 03     AND  $03, X
 834B  95 03     STA  $03, X
 834D  E8        INX  
 834E  E8        INX  
 834F  60        RTS  
 8350  20 47 DB  JSR  $DB47
 8353  A9 1B     LDA  #$1B
 8355  20 E6 8D  JSR  $8DE6
 8358  A9 5B     LDA  #$5B
 835A  20 E6 8D  JSR  $8DE6
 835D  20 8E DB  JSR  $DB8E
 8360  A9 3B     LDA  #$3B
 8362  20 E6 8D  JSR  $8DE6
 8365  20 8E DB  JSR  $DB8E
 8368  A9 48     LDA  #$48
 836A  20 E6 8D  JSR  $8DE6
 836D  60        RTS  
 836E  A5 0A     LDA  $0A
 8370  85 0C     STA  $0C
 8372  A5 0B     LDA  $0B
 8374  85 0D     STA  $0D
 8376  60        RTS  
 8377  CA        DEX  
 8378  CA        DEX  
 8379  A9 18     LDA  #$18
 837B  95 00     STA  $00, X
 837D  74 01     STZ  $01, X
 837F  60        RTS  
 8380  20 62 91  JSR  $9162
 8383  60        RTS  
 8384  A9 07     LDA  #$07
 8386  20 E6 8D  JSR  $8DE6
 8389  60        RTS  
 838A  CA        DEX  
 838B  CA        DEX  
 838C  A9 20     LDA  #$20
 838E  95 00     STA  $00, X
 8390  74 01     STZ  $01, X
 8392  60        RTS  
 8393  CA        DEX  
 8394  CA        DEX  
 8395  18        CLC  
 8396  A5 1E     LDA  $1E
 8398  69 00     ADC  #$00
 839A  95 00     STA  $00, X
 839C  A5 1F     LDA  $1F
 839E  69 00     ADC  #$00
 83A0  95 01     STA  $01, X
 83A2  60        RTS  
 83A3  CA        DEX  
 83A4  CA        DEX  
 83A5  A0 28     LDY  #$28
 83A7  B1 1E     LDA  ($1E), Y
 83A9  95 00     STA  $00, X
 83AB  C8        INY  
 83AC  B1 1E     LDA  ($1E), Y
 83AE  95 01     STA  $01, X
 83B0  60        RTS  
 83B1  A0 2A     LDY  #$2A
 83B3  B1 1E     LDA  ($1E), Y
 83B5  D5 00     CMP  $00, X
 83B7  D0 0F     BNE  $83C8
 83B9  C8        INY  
 83BA  B1 1E     LDA  ($1E), Y
 83BC  D5 01     CMP  $01, X
 83BE  D0 08     BNE  $83C8
 83C0  A0 2C     LDY  #$2C
 83C2  B1 1E     LDA  ($1E), Y
 83C4  29 01     AND  #$01
 83C6  D0 30     BNE  $83F8
 83C8  A0 2C     LDY  #$2C
 83CA  B1 1E     LDA  ($1E), Y
 83CC  C9 03     CMP  #$03
 83CE  D0 0C     BNE  $83DC
 83D0  20 A3 83  JSR  $83A3
 83D3  20 95 85  JSR  $8595
 83D6  20 70 8F  JSR  $8F70
 83D9  20 50 85  JSR  $8550
 83DC  A0 2A     LDY  #$2A
 83DE  B5 00     LDA  $00, X
 83E0  91 1E     STA  ($1E), Y
 83E2  C8        INY  
 83E3  B5 01     LDA  $01, X
 83E5  91 1E     STA  ($1E), Y
 83E7  20 A3 83  JSR  $83A3
 83EA  20 2A A1  JSR  $A12A
 83ED  20 2D 85  JSR  $852D
 83F0  A9 01     LDA  #$01
 83F2  A0 2C     LDY  #$2C
 83F4  91 1E     STA  ($1E), Y
 83F6  CA        DEX  
 83F7  CA        DEX  
 83F8  A0 28     LDY  #$28
 83FA  B1 1E     LDA  ($1E), Y
 83FC  95 00     STA  $00, X
 83FE  C8        INY  
 83FF  B1 1E     LDA  ($1E), Y
 8401  95 01     STA  $01, X
 8403  60        RTS  
 8404  20 42 DB  JSR  $DB42
 8407  4C 22 85  JMP  $8522
 840A  62 61 73 65 20 40 20 73 77 61 70 20 64 65 63 69  |base @ swap deci|
 841A  6D 61 6C 20 31 30 32 34 20 2A 20 64 75 70 20 62  |mal 1024 * dup b|
 842A  75 66 66 65 72 3A 20 72 61 6D 64 72 69 76 65 20  |uffer: ramdrive |
 843A  3A 20 62 6C 6F 63 6B 2D 72 65 61 64 2D 72 61 6D  |: block-read-ram|
 844A  64 72 69 76 65 20 72 61 6D 64 72 69 76 65 20 73  |drive ramdrive s|
 845A  77 61 70 20 31 30 32 34 20 2A 20 2B 20 73 77 61  |wap 1024 * + swa|
 846A  70 20 31 30 32 34 20 6D 6F 76 65 20 3B 20 3A 20  |p 1024 move ; : |
 847A  62 6C 6F 63 6B 2D 77 72 69 74 65 2D 72 61 6D 64  |block-write-ramd|
 848A  72 69 76 65 20 72 61 6D 64 72 69 76 65 20 73 77  |rive ramdrive sw|
 849A  61 70 20 31 30 32 34 20 2A 20 2B 20 31 30 32 34  |ap 1024 * + 1024|
 84AA  20 6D 6F 76 65 20 3B 20 27 20 62 6C 6F 63 6B 2D  | move ; ' block-|
 84BA  72 65 61 64 2D 72 61 6D 64 72 69 76 65 20 62 6C  |read-ramdrive bl|
 84CA  6F 63 6B 2D 72 65 61 64 2D 76 65 63 74 6F 72 20  |ock-read-vector |
 84DA  21 20 27 20 62 6C 6F 63 6B 2D 77 72 69 74 65 2D  |! ' block-write-|
 84EA  72 61 6D 64 72 69 76 65 20 62 6C 6F 63 6B 2D 77  |ramdrive block-w|
 84FA  72 69 74 65 2D 76 65 63 74 6F 72 20 21 20 72 61  |rite-vector ! ra|
 850A  6D 64 72 69 76 65 20 73 77 61 70 20 62 6C 61 6E  |mdrive swap blan|
 851A  6B 20 62 61 73 65 20 21                          |k base !        |
 8522  20 2B A0  JSR  $A02B
 8525  0A 84 18 01                                      |....            |
 8529  20 C5 90  JSR  $90C5
 852C  60        RTS  
 852D  A0 2E     LDY  #$2E
 852F  B1 1E     LDA  ($1E), Y
 8531  85 24     STA  $24
 8533  C8        INY  
 8534  B1 1E     LDA  ($1E), Y
 8536  85 25     STA  $25
 8538  6C 24 00  JMP  ($0024)
 853B  CA        DEX  
 853C  CA        DEX  
 853D  18        CLC  
 853E  A5 1E     LDA  $1E
 8540  69 2E     ADC  #$2E
 8542  95 00     STA  $00, X
 8544  A5 1F     LDA  $1F
 8546  69 00     ADC  #$00
 8548  95 01     STA  $01, X
 854A  60        RTS  
 854B  A9 0C     LDA  #$0C
 854D  4C 58 DB  JMP  $DB58
 8550  A0 30     LDY  #$30
 8552  B1 1E     LDA  ($1E), Y
 8554  85 24     STA  $24
 8556  C8        INY  
 8557  B1 1E     LDA  ($1E), Y
 8559  85 25     STA  $25
 855B  6C 24 00  JMP  ($0024)
 855E  CA        DEX  
 855F  CA        DEX  
 8560  18        CLC  
 8561  A5 1E     LDA  $1E
 8563  69 30     ADC  #$30
 8565  95 00     STA  $00, X
 8567  A5 1F     LDA  $1F
 8569  69 00     ADC  #$00
 856B  95 01     STA  $01, X
 856D  60        RTS  
 856E  20 47 DB  JSR  $DB47
 8571  18        CLC  
 8572  B5 00     LDA  $00, X
 8574  B4 02     LDY  $02, X
 8576  75 02     ADC  $02, X
 8578  95 02     STA  $02, X
 857A  94 00     STY  $00, X
 857C  B5 01     LDA  $01, X
 857E  B4 03     LDY  $03, X
 8580  75 03     ADC  $03, X
 8582  95 03     STA  $03, X
 8584  94 01     STY  $01, X
 8586  60        RTS  
 8587  20 21 86  JSR  $8621
 858A  20 7A 93  JSR  $937A
 858D  60        RTS  
 858E  20 8D A1  JSR  $A18D
 8591  20 7A 93  JSR  $937A
 8594  60        RTS  
 8595  CA        DEX  
 8596  CA        DEX  
 8597  18        CLC  
 8598  A5 1E     LDA  $1E
 859A  69 2A     ADC  #$2A
 859C  95 00     STA  $00, X
 859E  A5 1F     LDA  $1F
 85A0  69 00     ADC  #$00
 85A2  95 01     STA  $01, X
 85A4  60        RTS  
 85A5  A0 2C     LDY  #$2C
 85A7  B1 1E     LDA  ($1E), Y
 85A9  C9 03     CMP  #$03
 85AB  D0 0C     BNE  $85B9
 85AD  20 A3 83  JSR  $83A3
 85B0  20 95 85  JSR  $8595
 85B3  20 70 8F  JSR  $8F70
 85B6  20 50 85  JSR  $8550
 85B9  A0 2A     LDY  #$2A
 85BB  B5 00     LDA  $00, X
 85BD  91 1E     STA  ($1E), Y
 85BF  C8        INY  
 85C0  B5 01     LDA  $01, X
 85C2  91 1E     STA  ($1E), Y
 85C4  A9 01     LDA  #$01
 85C6  A0 2C     LDY  #$2C
 85C8  91 1E     STA  ($1E), Y
 85CA  A0 28     LDY  #$28
 85CC  B1 1E     LDA  ($1E), Y
 85CE  95 00     STA  $00, X
 85D0  C8        INY  
 85D1  B1 1E     LDA  ($1E), Y
 85D3  95 01     STA  $01, X
 85D5  60        RTS  
 85D6  20 59 89  JSR  $8959
 85D9  20 AB 82  JSR  $82AB
 85DC  60        RTS  
 85DD  CA        DEX  
 85DE  CA        DEX  
 85DF  18        CLC  
 85E0  A5 1E     LDA  $1E
 85E2  69 2C     ADC  #$2C
 85E4  95 00     STA  $00, X
 85E6  A5 1F     LDA  $1F
 85E8  69 00     ADC  #$00
 85EA  95 01     STA  $01, X
 85EC  60        RTS  
 85ED  4C A4 E6  JMP  $E6A4
 85F0  20 42 DB  JSR  $DB42
 85F3  B5 00     LDA  $00, X
 85F5  20 F5 D9  JSR  $D9F5
 85F8  E8        INX  
 85F9  E8        INX  
 85FA  60        RTS  
 85FB  20 42 DB  JSR  $DB42
 85FE  A1 00     LDA  ($00, X)
 8600  95 00     STA  $00, X
 8602  74 01     STZ  $01, X
 8604  60        RTS  
 8605  20 47 DB  JSR  $DB47
 8608  B5 02     LDA  $02, X
 860A  81 00     STA  ($00, X)
 860C  E8        INX  
 860D  E8        INX  
 860E  E8        INX  
 860F  E8        INX  
 8610  60        RTS  
 8611  20 42 DB  JSR  $DB42
 8614  F6 00     INC  $00, X
 8616  D0 02     BNE  $861A
 8618  F6 01     INC  $01, X
 861A  F6 00     INC  $00, X
 861C  D0 02     BNE  $8620
 861E  F6 01     INC  $01, X
 8620  60        RTS  
 8621  20 61 98  JSR  $9861
 8624  B5 00     LDA  $00, X
 8626  15 01     ORA  $01, X
 8628  D0 05     BNE  $862F
 862A  A9 05     LDA  #$05
 862C  4C 58 DB  JMP  $DB58
 862F  E8        INX  
 8630  E8        INX  
 8631  A1 00     LDA  ($00, X)
 8633  95 00     STA  $00, X
 8635  74 01     STZ  $01, X
 8637  60        RTS  
 8638  20 42 DB  JSR  $DB42
 863B  60        RTS  
 863C  20 47 DB  JSR  $DB47
 863F  20 53 95  JSR  $9553
 8642  20 52 92  JSR  $9252
 8645  B5 00     LDA  $00, X
 8647  85 0A     STA  $0A
 8649  B5 01     LDA  $01, X
 864B  85 0B     STA  $0B
 864D  B5 02     LDA  $02, X
 864F  85 08     STA  $08
 8651  B5 03     LDA  $03, X
 8653  85 09     STA  $09
 8655  64 0C     STZ  $0C
 8657  64 0D     STZ  $0D
 8659  20 61 98  JSR  $9861
 865C  B5 00     LDA  $00, X
 865E  15 01     ORA  $01, X
 8660  F0 23     BEQ  $8685
 8662  B5 04     LDA  $04, X
 8664  38        SEC  
 8665  F5 00     SBC  $00, X
 8667  95 04     STA  $04, X
 8669  B5 05     LDA  $05, X
 866B  F5 01     SBC  $01, X
 866D  95 05     STA  $05, X
 866F  B5 06     LDA  $06, X
 8671  18        CLC  
 8672  75 00     ADC  $00, X
 8674  95 06     STA  $06, X
 8676  B5 07     LDA  $07, X
 8678  75 01     ADC  $01, X
 867A  95 07     STA  $07, X
 867C  20 FA A3  JSR  $A3FA
 867F  20 53 95  JSR  $9553
 8682  20 FA A3  JSR  $A3FA
 8685  20 25 9A  JSR  $9A25
 8688  60        RTS  
 8689  20 4C DB  JSR  $DB4C
 868C  B5 02     LDA  $02, X
 868E  85 26     STA  $26
 8690  B5 03     LDA  $03, X
 8692  85 27     STA  $27
 8694  B5 04     LDA  $04, X
 8696  85 24     STA  $24
 8698  B5 05     LDA  $05, X
 869A  85 25     STA  $25
 869C  A0 00     LDY  #$00
 869E  B5 01     LDA  $01, X
 86A0  F0 0F     BEQ  $86B1
 86A2  B1 24     LDA  ($24), Y
 86A4  91 26     STA  ($26), Y
 86A6  C8        INY  
 86A7  D0 F9     BNE  $86A2
 86A9  E6 25     INC  $25
 86AB  E6 27     INC  $27
 86AD  D6 01     DEC  $01, X
 86AF  D0 F1     BNE  $86A2
 86B1  B5 00     LDA  $00, X
 86B3  F0 09     BEQ  $86BE
 86B5  B1 24     LDA  ($24), Y
 86B7  91 26     STA  ($26), Y
 86B9  C8        INY  
 86BA  D6 00     DEC  $00, X
 86BC  D0 F7     BNE  $86B5
 86BE  8A        TXA  
 86BF  18        CLC  
 86C0  69 06     ADC  #$06
 86C2  AA        TAX  
 86C3  60        RTS  
 86C4  20 4C DB  JSR  $DB4C
 86C7  B5 02     LDA  $02, X
 86C9  85 26     STA  $26
 86CB  B5 03     LDA  $03, X
 86CD  18        CLC  
 86CE  75 01     ADC  $01, X
 86D0  85 27     STA  $27
 86D2  B5 04     LDA  $04, X
 86D4  85 24     STA  $24
 86D6  B5 05     LDA  $05, X
 86D8  18        CLC  
 86D9  75 01     ADC  $01, X
 86DB  85 25     STA  $25
 86DD  F6 01     INC  $01, X
 86DF  B4 00     LDY  $00, X
 86E1  F0 0E     BEQ  $86F1
 86E3  88        DEY  
 86E4  F0 07     BEQ  $86ED
 86E6  B1 24     LDA  ($24), Y
 86E8  91 26     STA  ($26), Y
 86EA  88        DEY  
 86EB  D0 F9     BNE  $86E6
 86ED  B2 24     LDA  ($24)
 86EF  92 26     STA  ($26)
 86F1  C6 25     DEC  $25
 86F3  C6 27     DEC  $27
 86F5  D6 01     DEC  $01, X
 86F7  D0 EA     BNE  $86E3
 86F9  8A        TXA  
 86FA  18        CLC  
 86FB  69 06     ADC  #$06
 86FD  AA        TAX  
 86FE  60        RTS  
 86FF  A5 16     LDA  $16
 8701  05 17     ORA  $17
 8703  F0 05     BEQ  $870A
 8705  A9 07     LDA  #$07
 8707  4C 58 DB  JMP  $DB58
 870A  C6 16     DEC  $16
 870C  C6 17     DEC  $17
 870E  A9 40     LDA  #$40
 8710  04 20     TSB  $20
 8712  20 84 DA  JSR  $DA84
 8715  A5 03     LDA  $03
 8717  48        PHA  
 8718  A5 02     LDA  $02
 871A  48        PHA  
 871B  A9 80     LDA  #$80
 871D  04 20     TSB  $20
 871F  20 59 89  JSR  $8959
 8722  20 84 DA  JSR  $DA84
 8725  A5 02     LDA  $02
 8727  85 04     STA  $04
 8729  A5 03     LDA  $03
 872B  85 05     STA  $05
 872D  68        PLA  
 872E  85 02     STA  $02
 8730  68        PLA  
 8731  85 03     STA  $03
 8733  20 97 DA  JSR  $DA97
 8736  A5 00     LDA  $00
 8738  38        SEC  
 8739  E9 03     SBC  #$03
 873B  85 00     STA  $00
 873D  B0 02     BCS  $8741
 873F  C6 01     DEC  $01
 8741  60        RTS  
 8742  A5 16     LDA  $16
 8744  05 17     ORA  $17
 8746  F0 05     BEQ  $874D
 8748  A9 07     LDA  #$07
 874A  4C 58 DB  JMP  $DB58
 874D  C6 16     DEC  $16
 874F  C6 17     DEC  $17
 8751  A9 40     LDA  #$40
 8753  14 20     TRB  $20
 8755  A5 00     LDA  $00
 8757  85 04     STA  $04
 8759  A5 01     LDA  $01
 875B  85 05     STA  $05
 875D  60        RTS  
 875E  20 42 DB  JSR  $DB42
 8761  B5 00     LDA  $00, X
 8763  92 00     STA  ($00)
 8765  E6 00     INC  $00
 8767  D0 02     BNE  $876B
 8769  E6 01     INC  $01
 876B  B5 01     LDA  $01, X
 876D  92 00     STA  ($00)
 876F  E6 00     INC  $00
 8771  D0 02     BNE  $8775
 8773  E6 01     INC  $01
 8775  E8        INX  
 8776  E8        INX  
 8777  60        RTS  
 8778  20 51 DB  JSR  $DB51
 877B  B5 02     LDA  $02, X
 877D  85 26     STA  $26
 877F  B5 03     LDA  $03, X
 8781  85 27     STA  $27
 8783  B5 06     LDA  $06, X
 8785  85 24     STA  $24
 8787  B5 07     LDA  $07, X
 8789  85 25     STA  $25
 878B  B5 04     LDA  $04, X
 878D  15 05     ORA  $05, X
 878F  F0 2C     BEQ  $87BD
 8791  B5 00     LDA  $00, X
 8793  15 01     ORA  $01, X
 8795  F0 3A     BEQ  $87D1
 8797  B2 24     LDA  ($24)
 8799  D2 26     CMP  ($26)
 879B  90 26     BCC  $87C3
 879D  D0 32     BNE  $87D1
 879F  E6 24     INC  $24
 87A1  D0 02     BNE  $87A5
 87A3  E6 25     INC  $25
 87A5  E6 26     INC  $26
 87A7  D0 02     BNE  $87AB
 87A9  E6 27     INC  $27
 87AB  B5 04     LDA  $04, X
 87AD  D0 02     BNE  $87B1
 87AF  D6 05     DEC  $05, X
 87B1  D6 04     DEC  $04, X
 87B3  B5 00     LDA  $00, X
 87B5  D0 02     BNE  $87B9
 87B7  D6 01     DEC  $01, X
 87B9  D6 00     DEC  $00, X
 87BB  80 CE     BRA  $878B
 87BD  B5 00     LDA  $00, X
 87BF  15 01     ORA  $01, X
 87C1  F0 08     BEQ  $87CB
 87C3  A9 FF     LDA  #$FF
 87C5  95 06     STA  $06, X
 87C7  95 07     STA  $07, X
 87C9  80 0C     BRA  $87D7
 87CB  74 06     STZ  $06, X
 87CD  74 07     STZ  $07, X
 87CF  80 06     BRA  $87D7
 87D1  A9 01     LDA  #$01
 87D3  95 06     STA  $06, X
 87D5  74 07     STZ  $07, X
 87D7  8A        TXA  
 87D8  18        CLC  
 87D9  69 06     ADC  #$06
 87DB  AA        TAX  
 87DC  60        RTS  
 87DD  20 42 DB  JSR  $DB42
 87E0  B5 01     LDA  $01, X
 87E2  48        PHA  
 87E3  B5 00     LDA  $00, X
 87E5  48        PHA  
 87E6  20 68 92  JSR  $9268
 87E9  B5 00     LDA  $00, X
 87EB  15 01     ORA  $01, X
 87ED  D0 03     BNE  $87F2
 87EF  4C DA 88  JMP  $88DA
 87F2  B5 00     LDA  $00, X
 87F4  85 2C     STA  $2C
 87F6  B5 01     LDA  $01, X
 87F8  85 2D     STA  $2D
 87FA  F6 00     INC  $00, X
 87FC  D0 02     BNE  $8800
 87FE  F6 01     INC  $01, X
 8800  A1 00     LDA  ($00, X)
 8802  85 28     STA  $28
 8804  29 02     AND  #$02
 8806  F0 0D     BEQ  $8815
 8808  A5 2C     LDA  $2C
 880A  95 00     STA  $00, X
 880C  A5 2D     LDA  $2D
 880E  95 01     STA  $01, X
 8810  20 F0 A6  JSR  $A6F0
 8813  80 27     BRA  $883C
 8815  A5 28     LDA  $28
 8817  29 08     AND  #$08
 8819  F0 03     BEQ  $881E
 881B  4C DA 88  JMP  $88DA
 881E  A5 2C     LDA  $2C
 8820  95 00     STA  $00, X
 8822  A5 2D     LDA  $2D
 8824  95 01     STA  $01, X
 8826  20 F0 A6  JSR  $A6F0
 8829  B5 01     LDA  $01, X
 882B  C5 1B     CMP  $1B
 882D  90 0D     BCC  $883C
 882F  D0 08     BNE  $8839
 8831  B5 00     LDA  $00, X
 8833  C5 1A     CMP  $1A
 8835  90 05     BCC  $883C
 8837  F0 03     BEQ  $883C
 8839  4C DA 88  JMP  $88DA
 883C  CA        DEX  
 883D  CA        DEX  
 883E  CA        DEX  
 883F  CA        DEX  
 8840  B5 04     LDA  $04, X
 8842  95 00     STA  $00, X
 8844  B5 05     LDA  $05, X
 8846  95 01     STA  $01, X
 8848  68        PLA  
 8849  95 04     STA  $04, X
 884B  68        PLA  
 884C  95 05     STA  $05, X
 884E  A5 00     LDA  $00
 8850  95 02     STA  $02, X
 8852  A5 01     LDA  $01
 8854  95 03     STA  $03, X
 8856  A0 00     LDY  #$00
 8858  B9 C8 88  LDA  $88C8, Y
 885B  D5 04     CMP  $04, X
 885D  D0 07     BNE  $8866
 885F  B9 C9 88  LDA  $88C9, Y
 8862  D5 05     CMP  $05, X
 8864  F0 0C     BEQ  $8872
 8866  B9 C8 88  LDA  $88C8, Y
 8869  19 C9 88  ORA  $88C9, Y
 886C  F0 22     BEQ  $8890
 886E  C8        INY  
 886F  C8        INY  
 8870  80 E6     BRA  $8858
 8872  98        TYA  
 8873  4A        LSR  
 8874  A8        TAY  
 8875  B9 D4 88  LDA  $88D4, Y
 8878  85 2C     STA  $2C
 887A  18        CLC  
 887B  75 04     ADC  $04, X
 887D  95 04     STA  $04, X
 887F  90 02     BCC  $8883
 8881  F6 05     INC  $05, X
 8883  06 2C     ASL  $2C
 8885  38        SEC  
 8886  B5 00     LDA  $00, X
 8888  E5 2C     SBC  $2C
 888A  95 00     STA  $00, X
 888C  B0 02     BCS  $8890
 888E  D6 01     DEC  $01, X
 8890  A5 1C     LDA  $1C
 8892  05 1D     ORA  $1D
 8894  F0 1C     BEQ  $88B2
 8896  A5 28     LDA  $28
 8898  29 10     AND  #$10
 889A  F0 16     BEQ  $88B2
 889C  18        CLC  
 889D  B5 04     LDA  $04, X
 889F  69 03     ADC  #$03
 88A1  95 04     STA  $04, X
 88A3  90 02     BCC  $88A7
 88A5  F6 05     INC  $05, X
 88A7  38        SEC  
 88A8  B5 00     LDA  $00, X
 88AA  E9 03     SBC  #$03
 88AC  95 00     STA  $00, X
 88AE  B0 02     BCS  $88B2
 88B0  D6 01     DEC  $01, X
 88B2  B5 01     LDA  $01, X
 88B4  48        PHA  
 88B5  B5 00     LDA  $00, X
 88B7  48        PHA  
 88B8  20 B2 95  JSR  $95B2
 88BB  18        CLC  
 88BC  68        PLA  
 88BD  65 00     ADC  $00
 88BF  85 00     STA  $00
 88C1  68        PLA  
 88C2  65 01     ADC  $01
 88C4  85 01     STA  $01
 88C6  80 2C     BRA  $88F4
 88C8  14 9A FF 99 EC A2 1E A4 A4 A3 00 00 04 04 04 06  |................|
 88D8  06 00                                            |..              |
 88DA  A9 20     LDA  #$20
 88DC  92 00     STA  ($00)
 88DE  A0 01     LDY  #$01
 88E0  68        PLA  
 88E1  91 00     STA  ($00), Y
 88E3  C8        INY  
 88E4  68        PLA  
 88E5  91 00     STA  ($00), Y
 88E7  A9 03     LDA  #$03
 88E9  18        CLC  
 88EA  65 00     ADC  $00
 88EC  85 00     STA  $00
 88EE  90 02     BCC  $88F2
 88F0  E6 01     INC  $01
 88F2  E8        INX  
 88F3  E8        INX  
 88F4  60        RTS  
 88F5  20 84 DA  JSR  $DA84
 88F8  A0 01     LDY  #$01
 88FA  B1 02     LDA  ($02), Y
 88FC  09 01     ORA  #$01
 88FE  91 02     STA  ($02), Y
 8900  60        RTS  
 8901  20 42 DB  JSR  $DB42
 8904  20 59 89  JSR  $8959
 8907  38        SEC  
 8908  A5 00     LDA  $00
 890A  E9 02     SBC  #$02
 890C  85 24     STA  $24
 890E  A5 01     LDA  $01
 8910  E9 00     SBC  #$00
 8912  85 25     STA  $25
 8914  A9 FE     LDA  #$FE
 8916  92 24     STA  ($24)
 8918  A0 01     LDY  #$01
 891A  A9 D9     LDA  #$D9
 891C  91 24     STA  ($24), Y
 891E  20 5E 87  JSR  $875E
 8921  20 2B 93  JSR  $932B
 8924  B5 00     LDA  $00, X
 8926  85 24     STA  $24
 8928  B5 01     LDA  $01, X
 892A  85 25     STA  $25
 892C  A0 06     LDY  #$06
 892E  B1 24     LDA  ($24), Y
 8930  18        CLC  
 8931  69 02     ADC  #$02
 8933  91 24     STA  ($24), Y
 8935  C8        INY  
 8936  B1 24     LDA  ($24), Y
 8938  69 00     ADC  #$00
 893A  91 24     STA  ($24), Y
 893C  E8        INX  
 893D  E8        INX  
 893E  60        RTS  
 893F  20 42 DB  JSR  $DB42
 8942  A1 00     LDA  ($00, X)
 8944  A8        TAY  
 8945  F6 00     INC  $00, X
 8947  D0 02     BNE  $894B
 8949  F6 01     INC  $01, X
 894B  98        TYA  
 894C  CA        DEX  
 894D  CA        DEX  
 894E  95 00     STA  $00, X
 8950  74 01     STZ  $01, X
 8952  60        RTS  
 8953  A9 0A     LDA  #$0A
 8955  20 E6 8D  JSR  $8DE6
 8958  60        RTS  
 8959  20 61 98  JSR  $9861
 895C  B5 00     LDA  $00, X
 895E  15 01     ORA  $01, X
 8960  D0 05     BNE  $8967
 8962  A9 05     LDA  #$05
 8964  4C 58 DB  JMP  $DB58
 8967  74 01     STZ  $01, X
 8969  20 34 A3  JSR  $A334
 896C  20 CB 8F  JSR  $8FCB
 896F  B5 00     LDA  $00, X
 8971  15 01     ORA  $01, X
 8973  F0 1E     BEQ  $8993
 8975  E8        INX  
 8976  E8        INX  
 8977  24 20     BIT  $20
 8979  10 08     BPL  $8983
 897B  A9 80     LDA  #$80
 897D  05 20     ORA  $20
 897F  85 20     STA  $20
 8981  80 18     BRA  $899B
 8983  A9 02     LDA  #$02
 8985  20 6E DB  JSR  $DB6E
 8988  20 34 A3  JSR  $A334
 898B  20 7F A4  JSR  $A47F
 898E  20 A0 A0  JSR  $A0A0
 8991  80 08     BRA  $899B
 8993  E8        INX  
 8994  E8        INX  
 8995  A9 7F     LDA  #$7F
 8997  25 20     AND  $20
 8999  85 20     STA  $20
 899B  B5 00     LDA  $00, X
 899D  85 26     STA  $26
 899F  A5 00     LDA  $00
 89A1  85 24     STA  $24
 89A3  A5 01     LDA  $01
 89A5  85 25     STA  $25
 89A7  B5 00     LDA  $00, X
 89A9  18        CLC  
 89AA  69 08     ADC  #$08
 89AC  85 28     STA  $28
 89AE  18        CLC  
 89AF  69 03     ADC  #$03
 89B1  95 00     STA  $00, X
 89B3  74 01     STZ  $01, X
 89B5  20 AB 82  JSR  $82AB
 89B8  20 84 DA  JSR  $DA84
 89BB  A0 00     LDY  #$00
 89BD  A5 26     LDA  $26
 89BF  91 24     STA  ($24), Y
 89C1  A9 08     LDA  #$08
 89C3  09 20     ORA  #$20
 89C5  C8        INY  
 89C6  91 24     STA  ($24), Y
 89C8  C8        INY  
 89C9  A5 02     LDA  $02
 89CB  91 24     STA  ($24), Y
 89CD  C8        INY  
 89CE  A5 03     LDA  $03
 89D0  91 24     STA  ($24), Y
 89D2  C8        INY  
 89D3  A5 25     LDA  $25
 89D5  85 03     STA  $03
 89D7  A5 24     LDA  $24
 89D9  85 02     STA  $02
 89DB  18        CLC  
 89DC  65 28     ADC  $28
 89DE  91 24     STA  ($24), Y
 89E0  48        PHA  
 89E1  C8        INY  
 89E2  A5 25     LDA  $25
 89E4  69 00     ADC  #$00
 89E6  91 24     STA  ($24), Y
 89E8  C8        INY  
 89E9  68        PLA  
 89EA  18        CLC  
 89EB  69 03     ADC  #$03
 89ED  91 24     STA  ($24), Y
 89EF  88        DEY  
 89F0  B1 24     LDA  ($24), Y
 89F2  69 00     ADC  #$00
 89F4  C8        INY  
 89F5  C8        INY  
 89F6  91 24     STA  ($24), Y
 89F8  C8        INY  
 89F9  B5 00     LDA  $00, X
 89FB  38        SEC  
 89FC  E9 08     SBC  #$08
 89FE  85 2C     STA  $2C
 8A00  B5 01     LDA  $01, X
 8A02  E9 00     SBC  #$00
 8A04  85 2D     STA  $2D
 8A06  B1 2C     LDA  ($2C), Y
 8A08  C9 5B     CMP  #$5B
 8A0A  B0 07     BCS  $8A13
 8A0C  C9 41     CMP  #$41
 8A0E  90 03     BCC  $8A13
 8A10  18        CLC  
 8A11  69 20     ADC  #$20
 8A13  91 24     STA  ($24), Y
 8A15  C8        INY  
 8A16  C6 26     DEC  $26
 8A18  D0 EC     BNE  $8A06
 8A1A  A9 20     LDA  #$20
 8A1C  91 24     STA  ($24), Y
 8A1E  C8        INY  
 8A1F  A9 44     LDA  #$44
 8A21  91 24     STA  ($24), Y
 8A23  C8        INY  
 8A24  A9 DA     LDA  #$DA
 8A26  91 24     STA  ($24), Y
 8A28  20 97 DA  JSR  $DA97
 8A2B  E8        INX  
 8A2C  E8        INX  
 8A2D  60        RTS  
 8A2E  20 51 DB  JSR  $DB51
 8A31  38        SEC  
 8A32  B5 06     LDA  $06, X
 8A34  F5 02     SBC  $02, X
 8A36  95 06     STA  $06, X
 8A38  B5 07     LDA  $07, X
 8A3A  F5 03     SBC  $03, X
 8A3C  95 07     STA  $07, X
 8A3E  B5 04     LDA  $04, X
 8A40  F5 00     SBC  $00, X
 8A42  95 04     STA  $04, X
 8A44  B5 05     LDA  $05, X
 8A46  F5 01     SBC  $01, X
 8A48  95 05     STA  $05, X
 8A4A  E8        INX  
 8A4B  E8        INX  
 8A4C  E8        INX  
 8A4D  E8        INX  
 8A4E  60        RTS  
 8A4F  20 51 DB  JSR  $DB51
 8A52  18        CLC  
 8A53  B5 02     LDA  $02, X
 8A55  75 06     ADC  $06, X
 8A57  95 06     STA  $06, X
 8A59  B5 03     LDA  $03, X
 8A5B  75 07     ADC  $07, X
 8A5D  95 07     STA  $07, X
 8A5F  B5 00     LDA  $00, X
 8A61  75 04     ADC  $04, X
 8A63  95 04     STA  $04, X
 8A65  B5 01     LDA  $01, X
 8A67  75 05     ADC  $05, X
 8A69  95 05     STA  $05, X
 8A6B  E8        INX  
 8A6C  E8        INX  
 8A6D  E8        INX  
 8A6E  E8        INX  
 8A6F  60        RTS  
 8A70  20 47 DB  JSR  $DB47
 8A73  E8        INX  
 8A74  E8        INX  
 8A75  60        RTS  
 8A76  20 47 DB  JSR  $DB47
 8A79  B5 01     LDA  $01, X
 8A7B  10 17     BPL  $8A94
 8A7D  A0 00     LDY  #$00
 8A7F  38        SEC  
 8A80  98        TYA  
 8A81  F5 02     SBC  $02, X
 8A83  95 02     STA  $02, X
 8A85  98        TYA  
 8A86  F5 03     SBC  $03, X
 8A88  95 03     STA  $03, X
 8A8A  98        TYA  
 8A8B  F5 00     SBC  $00, X
 8A8D  95 00     STA  $00, X
 8A8F  98        TYA  
 8A90  F5 01     SBC  $01, X
 8A92  95 01     STA  $01, X
 8A94  60        RTS  
 8A95  A9 0A     LDA  #$0A
 8A97  85 18     STA  $18
 8A99  64 19     STZ  $19
 8A9B  60        RTS  
 8A9C  20 59 89  JSR  $8959
 8A9F  A5 00     LDA  $00
 8AA1  38        SEC  
 8AA2  E9 02     SBC  #$02
 8AA4  85 24     STA  $24
 8AA6  A5 01     LDA  $01
 8AA8  E9 00     SBC  #$00
 8AAA  85 25     STA  $25
 8AAC  A0 00     LDY  #$00
 8AAE  A9 12     LDA  #$12
 8AB0  91 24     STA  ($24), Y
 8AB2  C8        INY  
 8AB3  A9 DA     LDA  #$DA
 8AB5  91 24     STA  ($24), Y
 8AB7  A9 26     LDA  #$26
 8AB9  92 00     STA  ($00)
 8ABB  E6 00     INC  $00
 8ABD  D0 02     BNE  $8AC1
 8ABF  E6 01     INC  $01
 8AC1  A9 DA     LDA  #$DA
 8AC3  92 00     STA  ($00)
 8AC5  E6 00     INC  $00
 8AC7  D0 02     BNE  $8ACB
 8AC9  E6 01     INC  $01
 8ACB  20 21 89  JSR  $8921
 8ACE  60        RTS  
 8ACF  20 09 A2  JSR  $A209
 8AD2  20 70 8F  JSR  $8F70
 8AD5  60        RTS  
 8AD6  20 09 A2  JSR  $A209
 8AD9  20 09 A1  JSR  $A109
 8ADC  60        RTS  
 8ADD  A0 1F     LDY  #$1F
 8ADF  B1 1E     LDA  ($1E), Y
 8AE1  A0 04     LDY  #$04
 8AE3  91 1E     STA  ($1E), Y
 8AE5  60        RTS  
 8AE6  A9 78     LDA  #$78
 8AE8  86 2A     STX  $2A
 8AEA  38        SEC  
 8AEB  E5 2A     SBC  $2A
 8AED  4A        LSR  
 8AEE  CA        DEX  
 8AEF  CA        DEX  
 8AF0  95 00     STA  $00, X
 8AF2  74 01     STZ  $01, X
 8AF4  60        RTS  
 8AF5  20 42 DB  JSR  $DB42
 8AF8  CA        DEX  
 8AF9  CA        DEX  
 8AFA  74 00     STZ  $00, X
 8AFC  74 01     STZ  $01, X
 8AFE  74 03     STZ  $03, X
 8B00  B5 02     LDA  $02, X
 8B02  C9 30     CMP  #$30
 8B04  90 23     BCC  $8B29
 8B06  C9 3A     CMP  #$3A
 8B08  90 12     BCC  $8B1C
 8B0A  C9 41     CMP  #$41
 8B0C  90 1B     BCC  $8B29
 8B0E  C9 61     CMP  #$61
 8B10  90 07     BCC  $8B19
 8B12  C9 7B     CMP  #$7B
 8B14  B0 03     BCS  $8B19
 8B16  18        CLC  
 8B17  69 E0     ADC  #$E0
 8B19  38        SEC  
 8B1A  E9 07     SBC  #$07
 8B1C  38        SEC  
 8B1D  E9 30     SBC  #$30
 8B1F  C5 18     CMP  $18
 8B21  B0 06     BCS  $8B29
 8B23  95 02     STA  $02, X
 8B25  D6 00     DEC  $00, X
 8B27  D6 01     DEC  $01, X
 8B29  60        RTS  
 8B2A  20 47 DB  JSR  $DB47
 8B2D  20 8A AC  JSR  $AC8A
 8B30  60        RTS  
 8B31  20 47 DB  JSR  $DB47
 8B34  A0 00     LDY  #$00
 8B36  38        SEC  
 8B37  98        TYA  
 8B38  F5 02     SBC  $02, X
 8B3A  95 02     STA  $02, X
 8B3C  98        TYA  
 8B3D  F5 03     SBC  $03, X
 8B3F  95 03     STA  $03, X
 8B41  98        TYA  
 8B42  F5 00     SBC  $00, X
 8B44  95 00     STA  $00, X
 8B46  98        TYA  
 8B47  F5 01     SBC  $01, X
 8B49  95 01     STA  $01, X
 8B4B  60        RTS  
 8B4C  A9 FF     LDA  #$FF
 8B4E  85 24     STA  $24
 8B50  80 02     BRA  $8B54
 8B52  64 24     STZ  $24
 8B54  CA        DEX  
 8B55  CA        DEX  
 8B56  A5 00     LDA  $00
 8B58  95 00     STA  $00, X
 8B5A  A5 01     LDA  $01
 8B5C  95 01     STA  $01, X
 8B5E  A9 05     LDA  #$05
 8B60  A8        TAY  
 8B61  91 00     STA  ($00), Y
 8B63  88        DEY  
 8B64  10 FB     BPL  $8B61
 8B66  1A        INC  
 8B67  18        CLC  
 8B68  65 00     ADC  $00
 8B6A  85 00     STA  $00
 8B6C  90 02     BCC  $8B70
 8B6E  E6 01     INC  $01
 8B70  A5 24     LDA  $24
 8B72  F0 17     BEQ  $8B8B
 8B74  A0 14     LDY  #$14
 8B76  5A        PHY  
 8B77  B9 D1 8B  LDA  $8BD1, Y
 8B7A  91 00     STA  ($00), Y
 8B7C  88        DEY  
 8B7D  10 F8     BPL  $8B77
 8B7F  68        PLA  
 8B80  18        CLC  
 8B81  65 00     ADC  $00
 8B83  85 00     STA  $00
 8B85  A5 01     LDA  $01
 8B87  69 00     ADC  #$00
 8B89  85 01     STA  $01
 8B8B  A0 24     LDY  #$24
 8B8D  5A        PHY  
 8B8E  B9 AD 8B  LDA  $8BAD, Y
 8B91  91 00     STA  ($00), Y
 8B93  88        DEY  
 8B94  10 F8     BPL  $8B8E
 8B96  68        PLA  
 8B97  18        CLC  
 8B98  65 00     ADC  $00
 8B9A  85 00     STA  $00
 8B9C  A5 01     LDA  $01
 8B9E  69 00     ADC  #$00
 8BA0  85 01     STA  $01
 8BA2  CA        DEX  
 8BA3  CA        DEX  
 8BA4  A5 00     LDA  $00
 8BA6  95 00     STA  $00, X
 8BA8  A5 01     LDA  $01
 8BAA  95 01     STA  $01, X
 8BAC  60        RTS  
 8BAD  38        SEC  
 8BAE  A9 00     LDA  #$00
 8BB0  F5 02     SBC  $02, X
 8BB2  95 02     STA  $02, X
 8BB4  A9 80     LDA  #$80
 8BB6  F5 03     SBC  $03, X
 8BB8  95 03     STA  $03, X
 8BBA  48        PHA  
 8BBB  B5 02     LDA  $02, X
 8BBD  48        PHA  
 8BBE  18        CLC  
 8BBF  B5 00     LDA  $00, X
 8BC1  75 02     ADC  $02, X
 8BC3  95 00     STA  $00, X
 8BC5  B5 01     LDA  $01, X
 8BC7  75 03     ADC  $03, X
 8BC9  48        PHA  
 8BCA  B5 00     LDA  $00, X
 8BCC  48        PHA  
 8BCD  E8        INX  
 8BCE  E8        INX  
 8BCF  E8        INX  
 8BD0  E8        INX  
 8BD1  20 34 A3  JSR  $A334
 8BD4  20 BE 8E  JSR  $8EBE
 8BD7  B5 00     LDA  $00, X
 8BD9  15 01     ORA  $01, X
 8BDB  F0 06     BEQ  $8BE3
 8BDD  8A        TXA  
 8BDE  18        CLC  
 8BDF  69 06     ADC  #$06
 8BE1  AA        TAX  
 8BE2  60        RTS  
 8BE3  E8        INX  
 8BE4  E8        INX  
 8BE5  A0 8B     LDY  #$8B
 8BE7  A9 F4     LDA  #$F4
 8BE9  20 E5 D9  JSR  $D9E5
 8BEC  A0 DA     LDY  #$DA
 8BEE  A9 2B     LDA  #$2B
 8BF0  20 E5 D9  JSR  $D9E5
 8BF3  60        RTS  
 8BF4  7A        PLY  
 8BF5  68        PLA  
 8BF6  C8        INY  
 8BF7  D0 01     BNE  $8BFA
 8BF9  1A        INC  
 8BFA  84 24     STY  $24
 8BFC  85 25     STA  $25
 8BFE  20 84 DA  JSR  $DA84
 8C01  A5 02     LDA  $02
 8C03  18        CLC  
 8C04  69 04     ADC  #$04
 8C06  85 26     STA  $26
 8C08  A5 03     LDA  $03
 8C0A  69 00     ADC  #$00
 8C0C  85 27     STA  $27
 8C0E  B2 26     LDA  ($26)
 8C10  18        CLC  
 8C11  69 01     ADC  #$01
 8C13  85 28     STA  $28
 8C15  A0 01     LDY  #$01
 8C17  B1 26     LDA  ($26), Y
 8C19  69 00     ADC  #$00
 8C1B  85 29     STA  $29
 8C1D  A5 24     LDA  $24
 8C1F  92 28     STA  ($28)
 8C21  A5 25     LDA  $25
 8C23  91 28     STA  ($28), Y
 8C25  60        RTS  
 8C26  20 42 DB  JSR  $DB42
 8C29  20 9F 8D  JSR  $8D9F
 8C2C  20 39 81  JSR  $8139
 8C2F  20 23 A7  JSR  $A723
 8C32  20 4A 93  JSR  $934A
 8C35  20 60 97  JSR  $9760
 8C38  20 D9 9A  JSR  $9AD9
 8C3B  20 69 9F  JSR  $9F69
 8C3E  20 3E 97  JSR  $973E
 8C41  20 7F A4  JSR  $A47F
 8C44  20 A0 A0  JSR  $A0A0
 8C47  60        RTS  
 8C48  CA        DEX  
 8C49  CA        DEX  
 8C4A  A9 29     LDA  #$29
 8C4C  95 00     STA  $00, X
 8C4E  74 01     STZ  $01, X
 8C50  20 BC 98  JSR  $98BC
 8C53  20 7F A4  JSR  $A47F
 8C56  60        RTS  
 8C57  20 D1 9C  JSR  $9CD1
 8C5A  A0 A4     LDY  #$A4
 8C5C  A9 7F     LDA  #$7F
 8C5E  20 E5 D9  JSR  $D9E5
 8C61  60        RTS  
 8C62  20 47 DB  JSR  $DB47
 8C65  20 EC A2  JSR  $A2EC
 8C68  20 9F 8D  JSR  $8D9F
 8C6B  20 39 81  JSR  $8139
 8C6E  20 23 A7  JSR  $A723
 8C71  20 4A 93  JSR  $934A
 8C74  20 60 97  JSR  $9760
 8C77  20 D9 9A  JSR  $9AD9
 8C7A  20 69 9F  JSR  $9F69
 8C7D  20 3E 97  JSR  $973E
 8C80  20 14 9A  JSR  $9A14
 8C83  20 15 98  JSR  $9815
 8C86  20 40 95  JSR  $9540
 8C89  20 A6 A0  JSR  $A0A6
 8C8C  20 7F A4  JSR  $A47F
 8C8F  60        RTS  
 8C90  20 E6 8A  JSR  $8AE6
 8C93  A9 3C     LDA  #$3C
 8C95  20 E6 8D  JSR  $8DE6
 8C98  B5 00     LDA  $00, X
 8C9A  48        PHA  
 8C9B  CA        DEX  
 8C9C  CA        DEX  
 8C9D  95 00     STA  $00, X
 8C9F  74 01     STZ  $01, X
 8CA1  20 8E DB  JSR  $DB8E
 8CA4  A9 3E     LDA  #$3E
 8CA6  20 E6 8D  JSR  $8DE6
 8CA9  A9 20     LDA  #$20
 8CAB  20 E6 8D  JSR  $8DE6
 8CAE  E8        INX  
 8CAF  E8        INX  
 8CB0  E0 78     CPX  #$78
 8CB2  F0 1E     BEQ  $8CD2
 8CB4  7A        PLY  
 8CB5  A9 77     LDA  #$77
 8CB7  85 28     STA  $28
 8CB9  64 29     STZ  $29
 8CBB  CA        DEX  
 8CBC  CA        DEX  
 8CBD  B2 28     LDA  ($28)
 8CBF  95 01     STA  $01, X
 8CC1  C6 28     DEC  $28
 8CC3  B2 28     LDA  ($28)
 8CC5  95 00     STA  $00, X
 8CC7  C6 28     DEC  $28
 8CC9  5A        PHY  
 8CCA  20 26 8C  JSR  $8C26
 8CCD  7A        PLY  
 8CCE  88        DEY  
 8CCF  D0 EA     BNE  $8CBB
 8CD1  48        PHA  
 8CD2  68        PLA  
 8CD3  60        RTS  
 8CD4  20 47 DB  JSR  $DB47
 8CD7  20 09 A3  JSR  $A309
 8CDA  20 76 8A  JSR  $8A76
 8CDD  20 4A 93  JSR  $934A
 8CE0  20 60 97  JSR  $9760
 8CE3  20 D9 9A  JSR  $9AD9
 8CE6  20 69 9F  JSR  $9F69
 8CE9  20 3E 97  JSR  $973E
 8CEC  20 7F A4  JSR  $A47F
 8CEF  20 A0 A0  JSR  $A0A0
 8CF2  60        RTS  
 8CF3  20 4C DB  JSR  $DB4C
 8CF6  20 EC A2  JSR  $A2EC
 8CF9  20 09 A3  JSR  $A309
 8CFC  20 76 8A  JSR  $8A76
 8CFF  20 4A 93  JSR  $934A
 8D02  20 60 97  JSR  $9760
 8D05  20 D9 9A  JSR  $9AD9
 8D08  20 69 9F  JSR  $9F69
 8D0B  20 3E 97  JSR  $973E
 8D0E  20 14 9A  JSR  $9A14
 8D11  20 15 98  JSR  $9815
 8D14  20 40 95  JSR  $9540
 8D17  20 A6 A0  JSR  $A0A6
 8D1A  20 7F A4  JSR  $A47F
 8D1D  60        RTS  
 8D1E  20 42 DB  JSR  $DB42
 8D21  E8        INX  
 8D22  E8        INX  
 8D23  60        RTS  
 8D24  20 47 DB  JSR  $DB47
 8D27  A0 10     LDY  #$10
 8D29  64 26     STZ  $26
 8D2B  20 53 89  JSR  $8953
 8D2E  B5 03     LDA  $03, X
 8D30  20 52 DA  JSR  $DA52
 8D33  B5 02     LDA  $02, X
 8D35  20 52 DA  JSR  $DA52
 8D38  20 A0 A0  JSR  $A0A0
 8D3B  20 A0 A0  JSR  $A0A0
 8D3E  B5 00     LDA  $00, X
 8D40  15 01     ORA  $01, X
 8D42  F0 39     BEQ  $8D7D
 8D44  A1 02     LDA  ($02, X)
 8D46  48        PHA  
 8D47  20 52 DA  JSR  $DA52
 8D4A  20 A0 A0  JSR  $A0A0
 8D4D  68        PLA  
 8D4E  20 28 DB  JSR  $DB28
 8D51  B0 02     BCS  $8D55
 8D53  A9 2E     LDA  #$2E
 8D55  5A        PHY  
 8D56  A4 26     LDY  $26
 8D58  91 00     STA  ($00), Y
 8D5A  E6 26     INC  $26
 8D5C  7A        PLY  
 8D5D  C0 09     CPY  #$09
 8D5F  D0 03     BNE  $8D64
 8D61  20 A0 A0  JSR  $A0A0
 8D64  F6 02     INC  $02, X
 8D66  D0 02     BNE  $8D6A
 8D68  F6 03     INC  $03, X
 8D6A  B5 00     LDA  $00, X
 8D6C  D0 02     BNE  $8D70
 8D6E  D6 01     DEC  $01, X
 8D70  D6 00     DEC  $00, X
 8D72  88        DEY  
 8D73  D0 C9     BNE  $8D3E
 8D75  20 A0 A0  JSR  $A0A0
 8D78  20 8B 8D  JSR  $8D8B
 8D7B  80 AA     BRA  $8D27
 8D7D  A5 26     LDA  $26
 8D7F  F0 06     BEQ  $8D87
 8D81  20 A0 A0  JSR  $A0A0
 8D84  20 8B 8D  JSR  $8D8B
 8D87  20 2C A3  JSR  $A32C
 8D8A  60        RTS  
 8D8B  A0 00     LDY  #$00
 8D8D  B1 00     LDA  ($00), Y
 8D8F  20 E6 8D  JSR  $8DE6
 8D92  C8        INY  
 8D93  C0 08     CPY  #$08
 8D95  D0 03     BNE  $8D9A
 8D97  20 A0 A0  JSR  $A0A0
 8D9A  C6 26     DEC  $26
 8D9C  D0 EF     BNE  $8D8D
 8D9E  60        RTS  
 8D9F  20 42 DB  JSR  $DB42
 8DA2  CA        DEX  
 8DA3  CA        DEX  
 8DA4  B5 02     LDA  $02, X
 8DA6  95 00     STA  $00, X
 8DA8  B5 03     LDA  $03, X
 8DAA  95 01     STA  $01, X
 8DAC  60        RTS  
 8DAD  20 C8 B3  JSR  $B3C8
 8DB0  60        RTS  
 8DB1  A0 8D     LDY  #$8D
 8DB3  A9 CB     LDA  #$CB
 8DB5  20 E5 D9  JSR  $D9E5
 8DB8  20 62 91  JSR  $9162
 8DBB  20 23 A7  JSR  $A723
 8DBE  20 5E 87  JSR  $875E
 8DC1  20 62 91  JSR  $9162
 8DC4  20 D9 9A  JSR  $9AD9
 8DC7  20 09 A1  JSR  $A109
 8DCA  60        RTS  
 8DCB  68        PLA  
 8DCC  85 22     STA  $22
 8DCE  68        PLA  
 8DCF  85 23     STA  $23
 8DD1  A0 01     LDY  #$01
 8DD3  B1 22     LDA  ($22), Y
 8DD5  85 24     STA  $24
 8DD7  C8        INY  
 8DD8  B1 22     LDA  ($22), Y
 8DDA  85 25     STA  $25
 8DDC  6C 24 00  JMP  ($0024)
 8DDF  20 42 DB  JSR  $DB42
 8DE2  B5 00     LDA  $00, X
 8DE4  E8        INX  
 8DE5  E8        INX  
 8DE6  6C 10 00  JMP  ($0010)
 8DE9  A0 2C     LDY  #$2C
 8DEB  A9 00     LDA  #$00
 8DED  91 1E     STA  ($1E), Y
 8DEF  60        RTS  
 8DF0  A0 8D     LDY  #$8D
 8DF2  A9 1E     LDA  #$1E
 8DF4  20 E5 D9  JSR  $D9E5
 8DF7  B5 00     LDA  $00, X
 8DF9  15 01     ORA  $01, X
 8DFB  F0 05     BEQ  $8E02
 8DFD  20 3E A1  JSR  $A13E
 8E00  80 F5     BRA  $8DF7
 8E02  E8        INX  
 8E03  E8        INX  
 8E04  60        RTS  
 8E05  20 42 DB  JSR  $DB42
 8E08  A0 00     LDY  #$00
 8E0A  5A        PHY  
 8E0B  20 34 A3  JSR  $A334
 8E0E  CA        DEX  
 8E0F  CA        DEX  
 8E10  B9 82 8E  LDA  $8E82, Y
 8E13  95 00     STA  $00, X
 8E15  C8        INY  
 8E16  B9 82 8E  LDA  $8E82, Y
 8E19  95 01     STA  $01, X
 8E1B  C8        INY  
 8E1C  15 00     ORA  $00, X
 8E1E  F0 4D     BEQ  $8E6D
 8E20  5A        PHY  
 8E21  20 3F 89  JSR  $893F
 8E24  20 78 87  JSR  $8778
 8E27  7A        PLY  
 8E28  B5 00     LDA  $00, X
 8E2A  15 01     ORA  $01, X
 8E2C  F0 04     BEQ  $8E32
 8E2E  E8        INX  
 8E2F  E8        INX  
 8E30  80 D9     BRA  $8E0B
 8E32  E8        INX  
 8E33  E8        INX  
 8E34  88        DEY  
 8E35  88        DEY  
 8E36  68        PLA  
 8E37  D0 0D     BNE  $8E46
 8E39  B9 A0 8E  LDA  $8EA0, Y
 8E3C  95 02     STA  $02, X
 8E3E  C8        INY  
 8E3F  B9 A0 8E  LDA  $8EA0, Y
 8E42  95 03     STA  $03, X
 8E44  80 1F     BRA  $8E65
 8E46  CA        DEX  
 8E47  CA        DEX  
 8E48  98        TYA  
 8E49  38        SEC  
 8E4A  E9 18     SBC  #$18
 8E4C  0A        ASL  
 8E4D  A8        TAY  
 8E4E  B9 B6 8E  LDA  $8EB6, Y
 8E51  95 02     STA  $02, X
 8E53  C8        INY  
 8E54  B9 B6 8E  LDA  $8EB6, Y
 8E57  95 03     STA  $03, X
 8E59  C8        INY  
 8E5A  B9 B6 8E  LDA  $8EB6, Y
 8E5D  95 04     STA  $04, X
 8E5F  C8        INY  
 8E60  B9 B6 8E  LDA  $8EB6, Y
 8E63  95 05     STA  $05, X
 8E65  A9 FF     LDA  #$FF
 8E67  95 00     STA  $00, X
 8E69  95 01     STA  $01, X
 8E6B  80 14     BRA  $8E81
 8E6D  68        PLA  
 8E6E  D0 09     BNE  $8E79
 8E70  1A        INC  
 8E71  48        PHA  
 8E72  8A        TXA  
 8E73  18        CLC  
 8E74  69 06     ADC  #$06
 8E76  AA        TAX  
 8E77  80 92     BRA  $8E0B
 8E79  8A        TXA  
 8E7A  18        CLC  
 8E7B  69 0A     ADC  #$0A
 8E7D  AA        TAX  
 8E7E  20 69 8F  JSR  $8F69
 8E81  60        RTS  
 8E82  65 D9 75 D9 7B D9 80 D9 92 D9 9A D9 A3 D9 A9 D9  |e.u.{...........|
 8E92  AF D9 C2 D9 CE D9 00 00 D8 D9 DE D9 00 00 FF 7F  |................|
 8EA2  FF 00 54 00 08 00 00 00 FF 00 FF 7F FF FF 80 00  |..T.............|
 8EB2  20 00 09 00 FF 7F FF FF FF FF FF FF              | ...........    |
 8EBE  20 47 DB  JSR  $DB47
 8EC1  B5 00     LDA  $00, X
 8EC3  D5 02     CMP  $02, X
 8EC5  D0 0A     BNE  $8ED1
 8EC7  B5 01     LDA  $01, X
 8EC9  D5 03     CMP  $03, X
 8ECB  D0 04     BNE  $8ED1
 8ECD  A9 FF     LDA  #$FF
 8ECF  80 02     BRA  $8ED3
 8ED1  A9 00     LDA  #$00
 8ED3  95 02     STA  $02, X
 8ED5  95 03     STA  $03, X
 8ED7  E8        INX  
 8ED8  E8        INX  
 8ED9  60        RTS  
 8EDA  CA        DEX  
 8EDB  CA        DEX  
 8EDC  A9 20     LDA  #$20
 8EDE  95 00     STA  $00, X
 8EE0  74 01     STZ  $01, X
 8EE2  80 06     BRA  $8EEA
 8EE4  CA        DEX  
 8EE5  CA        DEX  
 8EE6  74 00     STZ  $00, X
 8EE8  74 01     STZ  $01, X
 8EEA  20 4C DB  JSR  $DB4C
 8EED  B5 04     LDA  $04, X
 8EEF  85 24     STA  $24
 8EF1  B5 05     LDA  $05, X
 8EF3  85 25     STA  $25
 8EF5  B5 02     LDA  $02, X
 8EF7  85 26     STA  $26
 8EF9  B5 03     LDA  $03, X
 8EFB  85 27     STA  $27
 8EFD  B5 00     LDA  $00, X
 8EFF  A8        TAY  
 8F00  A9 7F     LDA  #$7F
 8F02  C5 25     CMP  $25
 8F04  90 21     BCC  $8F27
 8F06  D0 06     BNE  $8F0E
 8F08  A9 FF     LDA  #$FF
 8F0A  C5 24     CMP  $24
 8F0C  90 19     BCC  $8F27
 8F0E  A5 26     LDA  $26
 8F10  05 27     ORA  $27
 8F12  F0 13     BEQ  $8F27
 8F14  98        TYA  
 8F15  92 24     STA  ($24)
 8F17  A5 26     LDA  $26
 8F19  D0 02     BNE  $8F1D
 8F1B  C6 27     DEC  $27
 8F1D  C6 26     DEC  $26
 8F1F  E6 24     INC  $24
 8F21  D0 DD     BNE  $8F00
 8F23  E6 25     INC  $25
 8F25  80 D9     BRA  $8F00
 8F27  8A        TXA  
 8F28  18        CLC  
 8F29  69 06     ADC  #$06
 8F2B  AA        TAX  
 8F2C  60        RTS  
 8F2D  20 42 DB  JSR  $DB42
 8F30  20 34 8F  JSR  $8F34
 8F33  60        RTS  
 8F34  B5 00     LDA  $00, X
 8F36  85 0E     STA  $0E
 8F38  B5 01     LDA  $01, X
 8F3A  85 0F     STA  $0F
 8F3C  E8        INX  
 8F3D  E8        INX  
 8F3E  6C 0E 00  JMP  ($000E)
 8F41  20 4C DB  JSR  $DB4C
 8F44  20 52 92  JSR  $9252
 8F47  20 5E 96  JSR  $965E
 8F4A  B5 00     LDA  $00, X
 8F4C  85 0A     STA  $0A
 8F4E  B5 01     LDA  $01, X
 8F50  85 0B     STA  $0B
 8F52  B5 02     LDA  $02, X
 8F54  85 08     STA  $08
 8F56  B5 03     LDA  $03, X
 8F58  85 09     STA  $09
 8F5A  64 0C     STZ  $0C
 8F5C  64 0D     STZ  $0D
 8F5E  20 2C A3  JSR  $A32C
 8F61  20 2D 8F  JSR  $8F2D
 8F64  20 25 9A  JSR  $9A25
 8F67  60        RTS  
 8F68  60        RTS  
 8F69  CA        DEX  
 8F6A  CA        DEX  
 8F6B  74 00     STZ  $00, X
 8F6D  74 01     STZ  $01, X
 8F6F  60        RTS  
 8F70  20 42 DB  JSR  $DB42
 8F73  A1 00     LDA  ($00, X)
 8F75  A8        TAY  
 8F76  F6 00     INC  $00, X
 8F78  D0 02     BNE  $8F7C
 8F7A  F6 01     INC  $01, X
 8F7C  A1 00     LDA  ($00, X)
 8F7E  95 01     STA  $01, X
 8F80  94 00     STY  $00, X
 8F82  60        RTS  
 8F83  20 42 DB  JSR  $DB42
 8F86  B5 01     LDA  $01, X
 8F88  48        PHA  
 8F89  B5 00     LDA  $00, X
 8F8B  48        PHA  
 8F8C  20 3F 89  JSR  $893F
 8F8F  20 CB 8F  JSR  $8FCB
 8F92  B5 00     LDA  $00, X
 8F94  15 01     ORA  $01, X
 8F96  D0 0B     BNE  $8FA3
 8F98  20 69 8F  JSR  $8F69
 8F9B  68        PLA  
 8F9C  95 02     STA  $02, X
 8F9E  68        PLA  
 8F9F  95 03     STA  $03, X
 8FA1  80 27     BRA  $8FCA
 8FA3  68        PLA  
 8FA4  68        PLA  
 8FA5  20 9F 8D  JSR  $8D9F
 8FA8  20 D1 95  JSR  $95D1
 8FAB  20 2A A1  JSR  $A12A
 8FAE  A0 00     LDY  #$00
 8FB0  F6 00     INC  $00, X
 8FB2  D0 02     BNE  $8FB6
 8FB4  F6 01     INC  $01, X
 8FB6  A1 00     LDA  ($00, X)
 8FB8  29 04     AND  #$04
 8FBA  D0 08     BNE  $8FC4
 8FBC  A9 FF     LDA  #$FF
 8FBE  95 00     STA  $00, X
 8FC0  95 01     STA  $01, X
 8FC2  80 06     BRA  $8FCA
 8FC4  A9 01     LDA  #$01
 8FC6  95 00     STA  $00, X
 8FC8  74 01     STZ  $01, X
 8FCA  60        RTS  
 8FCB  20 47 DB  JSR  $DB47
 8FCE  B5 00     LDA  $00, X
 8FD0  15 01     ORA  $01, X
 8FD2  D0 03     BNE  $8FD7
 8FD4  4C 70 90  JMP  $9070
 8FD7  64 28     STZ  $28
 8FD9  A0 1E     LDY  #$1E
 8FDB  A5 28     LDA  $28
 8FDD  D1 1E     CMP  ($1E), Y
 8FDF  D0 03     BNE  $8FE4
 8FE1  4C 70 90  JMP  $9070
 8FE4  18        CLC  
 8FE5  69 1F     ADC  #$1F
 8FE7  A8        TAY  
 8FE8  B1 1E     LDA  ($1E), Y
 8FEA  0A        ASL  
 8FEB  18        CLC  
 8FEC  69 06     ADC  #$06
 8FEE  A8        TAY  
 8FEF  B1 1E     LDA  ($1E), Y
 8FF1  85 24     STA  $24
 8FF3  C8        INY  
 8FF4  B1 1E     LDA  ($1E), Y
 8FF6  85 25     STA  $25
 8FF8  B5 02     LDA  $02, X
 8FFA  85 26     STA  $26
 8FFC  B5 03     LDA  $03, X
 8FFE  85 27     STA  $27
 9000  B2 24     LDA  ($24)
 9002  D5 00     CMP  $00, X
 9004  D0 54     BNE  $905A
 9006  B2 26     LDA  ($26)
 9008  C9 5B     CMP  #$5B
 900A  B0 07     BCS  $9013
 900C  C9 41     CMP  #$41
 900E  90 03     BCC  $9013
 9010  18        CLC  
 9011  69 20     ADC  #$20
 9013  A0 08     LDY  #$08
 9015  D1 24     CMP  ($24), Y
 9017  D0 41     BNE  $905A
 9019  B5 00     LDA  $00, X
 901B  3A        DEC  
 901C  F0 2C     BEQ  $904A
 901E  A5 24     LDA  $24
 9020  48        PHA  
 9021  18        CLC  
 9022  69 08     ADC  #$08
 9024  85 24     STA  $24
 9026  A5 25     LDA  $25
 9028  48        PHA  
 9029  69 00     ADC  #$00
 902B  85 25     STA  $25
 902D  B4 00     LDY  $00, X
 902F  88        DEY  
 9030  B1 26     LDA  ($26), Y
 9032  C9 5B     CMP  #$5B
 9034  B0 07     BCS  $903D
 9036  C9 41     CMP  #$41
 9038  90 03     BCC  $903D
 903A  18        CLC  
 903B  69 20     ADC  #$20
 903D  D1 24     CMP  ($24), Y
 903F  D0 13     BNE  $9054
 9041  88        DEY  
 9042  D0 EC     BNE  $9030
 9044  68        PLA  
 9045  85 25     STA  $25
 9047  68        PLA  
 9048  85 24     STA  $24
 904A  A5 24     LDA  $24
 904C  95 02     STA  $02, X
 904E  A5 25     LDA  $25
 9050  95 03     STA  $03, X
 9052  80 20     BRA  $9074
 9054  68        PLA  
 9055  85 25     STA  $25
 9057  68        PLA  
 9058  85 24     STA  $24
 905A  A0 02     LDY  #$02
 905C  B1 24     LDA  ($24), Y
 905E  48        PHA  
 905F  C8        INY  
 9060  B1 24     LDA  ($24), Y
 9062  85 25     STA  $25
 9064  68        PLA  
 9065  85 24     STA  $24
 9067  05 25     ORA  $25
 9069  D0 95     BNE  $9000
 906B  E6 28     INC  $28
 906D  4C D9 8F  JMP  $8FD9
 9070  74 02     STZ  $02, X
 9072  74 03     STZ  $03, X
 9074  E8        INX  
 9075  E8        INX  
 9076  60        RTS  
 9077  20 40 9E  JSR  $9E40
 907A  A0 2C     LDY  #$2C
 907C  A9 00     LDA  #$00
 907E  91 1E     STA  ($1E), Y
 9080  60        RTS  
 9081  20 4C DB  JSR  $DB4C
 9084  64 26     STZ  $26
 9086  B5 01     LDA  $01, X
 9088  10 0E     BPL  $9098
 908A  E6 26     INC  $26
 908C  20 13 96  JSR  $9613
 908F  20 EC A2  JSR  $A2EC
 9092  20 31 8B  JSR  $8B31
 9095  20 14 9A  JSR  $9A14
 9098  B5 03     LDA  $03, X
 909A  10 0D     BPL  $90A9
 909C  18        CLC  
 909D  B5 00     LDA  $00, X
 909F  75 02     ADC  $02, X
 90A1  95 02     STA  $02, X
 90A3  B5 01     LDA  $01, X
 90A5  75 03     ADC  $03, X
 90A7  95 03     STA  $03, X
 90A9  20 36 A5  JSR  $A536
 90AC  A5 26     LDA  $26
 90AE  F0 07     BEQ  $90B7
 90B0  E8        INX  
 90B1  E8        INX  
 90B2  20 13 96  JSR  $9613
 90B5  CA        DEX  
 90B6  CA        DEX  
 90B7  60        RTS  
 90B8  A0 1F     LDY  #$1F
 90BA  A9 00     LDA  #$00
 90BC  91 1E     STA  ($1E), Y
 90BE  60        RTS  
 90BF  A9 FF     LDA  #$FF
 90C1  85 24     STA  $24
 90C3  80 11     BRA  $90D6
 90C5  20 47 DB  JSR  $DB47
 90C8  64 24     STZ  $24
 90CA  B5 00     LDA  $00, X
 90CC  15 01     ORA  $01, X
 90CE  D0 06     BNE  $90D6
 90D0  E8        INX  
 90D1  E8        INX  
 90D2  E8        INX  
 90D3  E8        INX  
 90D4  80 42     BRA  $9118
 90D6  A0 01     LDY  #$01
 90D8  B1 1E     LDA  ($1E), Y
 90DA  48        PHA  
 90DB  88        DEY  
 90DC  B1 1E     LDA  ($1E), Y
 90DE  48        PHA  
 90DF  A5 24     LDA  $24
 90E1  D0 05     BNE  $90E8
 90E3  91 1E     STA  ($1E), Y
 90E5  C8        INY  
 90E6  91 1E     STA  ($1E), Y
 90E8  20 52 92  JSR  $9252
 90EB  A9 FF     LDA  #$FF
 90ED  85 06     STA  $06
 90EF  85 07     STA  $07
 90F1  64 0C     STZ  $0C
 90F3  64 0D     STZ  $0D
 90F5  B5 00     LDA  $00, X
 90F7  85 0A     STA  $0A
 90F9  B5 01     LDA  $01, X
 90FB  85 0B     STA  $0B
 90FD  B5 02     LDA  $02, X
 90FF  85 08     STA  $08
 9101  B5 03     LDA  $03, X
 9103  85 09     STA  $09
 9105  E8        INX  
 9106  E8        INX  
 9107  E8        INX  
 9108  E8        INX  
 9109  20 AA DA  JSR  $DAAA
 910C  20 25 9A  JSR  $9A25
 910F  A0 00     LDY  #$00
 9111  68        PLA  
 9112  91 1E     STA  ($1E), Y
 9114  C8        INY  
 9115  68        PLA  
 9116  91 1E     STA  ($1E), Y
 9118  60        RTS  
 9119  CA        DEX  
 911A  CA        DEX  
 911B  A0 04     LDY  #$04
 911D  B1 1E     LDA  ($1E), Y
 911F  95 00     STA  $00, X
 9121  74 01     STZ  $01, X
 9123  60        RTS  
 9124  A0 1E     LDY  #$1E
 9126  B1 1E     LDA  ($1E), Y
 9128  85 24     STA  $24
 912A  F0 16     BEQ  $9142
 912C  C6 24     DEC  $24
 912E  A9 1F     LDA  #$1F
 9130  18        CLC  
 9131  65 24     ADC  $24
 9133  A8        TAY  
 9134  CA        DEX  
 9135  CA        DEX  
 9136  B1 1E     LDA  ($1E), Y
 9138  95 00     STA  $00, X
 913A  74 01     STZ  $01, X
 913C  A9 00     LDA  #$00
 913E  C5 24     CMP  $24
 9140  D0 EA     BNE  $912C
 9142  CA        DEX  
 9143  CA        DEX  
 9144  A0 1E     LDY  #$1E
 9146  B1 1E     LDA  ($1E), Y
 9148  95 00     STA  $00, X
 914A  74 01     STZ  $01, X
 914C  60        RTS  
 914D  20 47 DB  JSR  $DB47
 9150  A0 00     LDY  #$00
 9152  20 69 DA  JSR  $DA69
 9155  F0 03     BEQ  $915A
 9157  10 01     BPL  $915A
 9159  88        DEY  
 915A  98        TYA  
 915B  E8        INX  
 915C  E8        INX  
 915D  95 00     STA  $00, X
 915F  95 01     STA  $01, X
 9161  60        RTS  
 9162  CA        DEX  
 9163  CA        DEX  
 9164  A5 00     LDA  $00
 9166  95 00     STA  $00, X
 9168  A5 01     LDA  $01
 916A  95 01     STA  $01, X
 916C  60        RTS  
 916D  A9 10     LDA  #$10
 916F  85 18     STA  $18
 9171  64 19     STZ  $19
 9173  60        RTS  
 9174  20 4C DB  JSR  $DB4C
 9177  20 9F 8D  JSR  $8D9F
 917A  20 1E A4  JSR  $A41E
 917D  B5 00     LDA  $00, X
 917F  15 01     ORA  $01, X
 9181  F0 36     BEQ  $91B9
 9183  20 3C 86  JSR  $863C
 9186  20 1E A4  JSR  $A41E
 9189  20 23 A7  JSR  $A723
 918C  20 23 A7  JSR  $A723
 918F  20 A4 A3  JSR  $A3A4
 9192  20 39 A2  JSR  $A239
 9195  B5 00     LDA  $00, X
 9197  15 01     ORA  $01, X
 9199  D0 17     BNE  $91B2
 919B  20 2C A3  JSR  $A32C
 919E  20 70 8A  JSR  $8A70
 91A1  20 FF 99  JSR  $99FF
 91A4  20 05 86  JSR  $8605
 91A7  20 14 9A  JSR  $9A14
 91AA  20 9F 97  JSR  $979F
 91AD  20 EC A2  JSR  $A2EC
 91B0  80 CB     BRA  $917D
 91B2  8A        TXA  
 91B3  18        CLC  
 91B4  69 08     ADC  #$08
 91B6  AA        TAX  
 91B7  80 C4     BRA  $917D
 91B9  E8        INX  
 91BA  E8        INX  
 91BB  E8        INX  
 91BC  E8        INX  
 91BD  20 A4 A3  JSR  $A3A4
 91C0  20 2A A1  JSR  $A12A
 91C3  20 40 95  JSR  $9540
 91C6  60        RTS  
 91C7  20 42 DB  JSR  $DB42
 91CA  A5 34     LDA  $34
 91CC  D0 02     BNE  $91D0
 91CE  C6 35     DEC  $35
 91D0  C6 34     DEC  $34
 91D2  B5 00     LDA  $00, X
 91D4  92 34     STA  ($34)
 91D6  E8        INX  
 91D7  E8        INX  
 91D8  60        RTS  
 91D9  CA        DEX  
 91DA  CA        DEX  
 91DB  86 2A     STX  $2A
 91DD  BA        TSX  
 91DE  38        SEC  
 91DF  BD 01 01  LDA  $0101, X
 91E2  FD 03 01  SBC  $0103, X
 91E5  A8        TAY  
 91E6  BD 02 01  LDA  $0102, X
 91E9  FD 04 01  SBC  $0104, X
 91EC  A6 2A     LDX  $2A
 91EE  95 01     STA  $01, X
 91F0  94 00     STY  $00, X
 91F2  60        RTS  
 91F3  A0 92     LDY  #$92
 91F5  A9 04     LDA  #$04
 91F7  20 E5 D9  JSR  $D9E5
 91FA  20 62 91  JSR  $9162
 91FD  20 23 A7  JSR  $A723
 9200  20 5E 87  JSR  $875E
 9203  60        RTS  
 9204  68        PLA  
 9205  85 22     STA  $22
 9207  68        PLA  
 9208  85 23     STA  $23
 920A  B5 00     LDA  $00, X
 920C  15 01     ORA  $01, X
 920E  F0 0F     BEQ  $921F
 9210  A5 22     LDA  $22
 9212  18        CLC  
 9213  69 02     ADC  #$02
 9215  85 24     STA  $24
 9217  A5 23     LDA  $23
 9219  69 00     ADC  #$00
 921B  85 25     STA  $25
 921D  80 13     BRA  $9232
 921F  A0 01     LDY  #$01
 9221  B1 22     LDA  ($22), Y
 9223  85 24     STA  $24
 9225  C8        INY  
 9226  B1 22     LDA  ($22), Y
 9228  85 25     STA  $25
 922A  A5 24     LDA  $24
 922C  D0 02     BNE  $9230
 922E  C6 25     DEC  $25
 9230  C6 24     DEC  $24
 9232  A5 25     LDA  $25
 9234  48        PHA  
 9235  A5 24     LDA  $24
 9237  48        PHA  
 9238  E8        INX  
 9239  E8        INX  
 923A  60        RTS  
 923B  20 84 DA  JSR  $DA84
 923E  A0 01     LDY  #$01
 9240  B1 02     LDA  ($02), Y
 9242  09 04     ORA  #$04
 9244  91 02     STA  ($02), Y
 9246  60        RTS  
 9247  CA        DEX  
 9248  CA        DEX  
 9249  A9 12     LDA  #$12
 924B  95 00     STA  $00, X
 924D  A9 00     LDA  #$00
 924F  95 01     STA  $01, X
 9251  60        RTS  
 9252  68        PLA  
 9253  85 24     STA  $24
 9255  68        PLA  
 9256  85 25     STA  $25
 9258  A0 07     LDY  #$07
 925A  B9 06 00  LDA  $0006, Y
 925D  48        PHA  
 925E  88        DEY  
 925F  10 F9     BPL  $925A
 9261  A5 25     LDA  $25
 9263  48        PHA  
 9264  A5 24     LDA  $24
 9266  48        PHA  
 9267  60        RTS  
 9268  20 42 DB  JSR  $DB42
 926B  CA        DEX  
 926C  CA        DEX  
 926D  74 00     STZ  $00, X
 926F  74 01     STZ  $01, X
 9271  B5 00     LDA  $00, X
 9273  0A        ASL  
 9274  18        CLC  
 9275  69 06     ADC  #$06
 9277  A8        TAY  
 9278  B1 1E     LDA  ($1E), Y
 927A  85 26     STA  $26
 927C  C8        INY  
 927D  B1 1E     LDA  ($1E), Y
 927F  85 27     STA  $27
 9281  A5 26     LDA  $26
 9283  05 27     ORA  $27
 9285  F0 38     BEQ  $92BF
 9287  B5 02     LDA  $02, X
 9289  85 28     STA  $28
 928B  B5 03     LDA  $03, X
 928D  85 29     STA  $29
 928F  A0 04     LDY  #$04
 9291  B1 26     LDA  ($26), Y
 9293  C5 28     CMP  $28
 9295  D0 07     BNE  $929E
 9297  C8        INY  
 9298  B1 26     LDA  ($26), Y
 929A  C5 29     CMP  $29
 929C  F0 32     BEQ  $92D0
 929E  18        CLC  
 929F  A5 26     LDA  $26
 92A1  69 02     ADC  #$02
 92A3  85 26     STA  $26
 92A5  A5 27     LDA  $27
 92A7  69 00     ADC  #$00
 92A9  85 27     STA  $27
 92AB  A0 00     LDY  #$00
 92AD  B1 26     LDA  ($26), Y
 92AF  48        PHA  
 92B0  C8        INY  
 92B1  11 26     ORA  ($26), Y
 92B3  F0 09     BEQ  $92BE
 92B5  B1 26     LDA  ($26), Y
 92B7  85 27     STA  $27
 92B9  68        PLA  
 92BA  85 26     STA  $26
 92BC  80 D1     BRA  $928F
 92BE  68        PLA  
 92BF  B5 00     LDA  $00, X
 92C1  1A        INC  
 92C2  95 00     STA  $00, X
 92C4  C9 0C     CMP  #$0C
 92C6  D0 A9     BNE  $9271
 92C8  E8        INX  
 92C9  E8        INX  
 92CA  74 00     STZ  $00, X
 92CC  74 01     STZ  $01, X
 92CE  80 0A     BRA  $92DA
 92D0  E8        INX  
 92D1  E8        INX  
 92D2  A5 26     LDA  $26
 92D4  95 00     STA  $00, X
 92D6  A5 27     LDA  $27
 92D8  95 01     STA  $01, X
 92DA  60        RTS  
 92DB  20 42 DB  JSR  $DB42
 92DE  A9 FF     LDA  #$FF
 92E0  55 00     EOR  $00, X
 92E2  95 00     STA  $00, X
 92E4  A9 FF     LDA  #$FF
 92E6  55 01     EOR  $01, X
 92E8  95 01     STA  $01, X
 92EA  60        RTS  
 92EB  A5 16     LDA  $16
 92ED  05 17     ORA  $17
 92EF  F0 0C     BEQ  $92FD
 92F1  20 8E 85  JSR  $858E
 92F4  A0 8A     LDY  #$8A
 92F6  A9 D6     LDA  #$D6
 92F8  20 E5 D9  JSR  $D9E5
 92FB  80 06     BRA  $9303
 92FD  20 8D A1  JSR  $A18D
 9300  20 D6 8A  JSR  $8AD6
 9303  60        RTS  
 9304  CA        DEX  
 9305  CA        DEX  
 9306  86 2A     STX  $2A
 9308  BA        TSX  
 9309  38        SEC  
 930A  BD 07 01  LDA  $0107, X
 930D  FD 09 01  SBC  $0109, X
 9310  A8        TAY  
 9311  BD 08 01  LDA  $0108, X
 9314  FD 0A 01  SBC  $010A, X
 9317  A6 2A     LDX  $2A
 9319  95 01     STA  $01, X
 931B  94 00     STY  $00, X
 931D  60        RTS  
 931E  20 28 93  JSR  $9328
 9321  CA        DEX  
 9322  CA        DEX  
 9323  95 00     STA  $00, X
 9325  74 01     STZ  $01, X
 9327  60        RTS  
 9328  6C 12 00  JMP  ($0012)
 932B  CA        DEX  
 932C  CA        DEX  
 932D  20 84 DA  JSR  $DA84
 9330  A5 02     LDA  $02
 9332  95 00     STA  $00, X
 9334  A5 03     LDA  $03
 9336  95 01     STA  $01, X
 9338  60        RTS  
 9339  20 2B 93  JSR  $932B
 933C  20 D1 95  JSR  $95D1
 933F  60        RTS  
 9340  68        PLA  
 9341  68        PLA  
 9342  68        PLA  
 9343  68        PLA  
 9344  60        RTS  
 9345  64 16     STZ  $16
 9347  64 17     STZ  $17
 9349  60        RTS  
 934A  20 23 98  JSR  $9823
 934D  B5 00     LDA  $00, X
 934F  85 34     STA  $34
 9351  B5 01     LDA  $01, X
 9353  85 35     STA  $35
 9355  E8        INX  
 9356  E8        INX  
 9357  60        RTS  
 9358  20 47 DB  JSR  $DB47
 935B  A0 00     LDY  #$00
 935D  20 69 DA  JSR  $DA69
 9360  F0 03     BEQ  $9365
 9362  30 01     BMI  $9365
 9364  88        DEY  
 9365  98        TYA  
 9366  E8        INX  
 9367  E8        INX  
 9368  95 00     STA  $00, X
 936A  95 01     STA  $01, X
 936C  60        RTS  
 936D  20 42 DB  JSR  $DB42
 9370  20 5B 9E  JSR  $9E5B
 9373  20 09 A1  JSR  $A109
 9376  20 C1 A7  JSR  $A7C1
 9379  60        RTS  
 937A  20 42 DB  JSR  $DB42
 937D  A0 93     LDY  #$93
 937F  A9 88     LDA  #$88
 9381  20 E5 D9  JSR  $D9E5
 9384  20 5E 87  JSR  $875E
 9387  60        RTS  
 9388  CA        DEX  
 9389  CA        DEX  
 938A  68        PLA  
 938B  85 24     STA  $24
 938D  68        PLA  
 938E  85 25     STA  $25
 9390  A0 01     LDY  #$01
 9392  B1 24     LDA  ($24), Y
 9394  95 00     STA  $00, X
 9396  C8        INY  
 9397  B1 24     LDA  ($24), Y
 9399  95 01     STA  $01, X
 939B  98        TYA  
 939C  18        CLC  
 939D  65 24     ADC  $24
 939F  A8        TAY  
 93A0  A5 25     LDA  $25
 93A2  69 00     ADC  #$00
 93A4  48        PHA  
 93A5  5A        PHY  
 93A6  60        RTS  
 93A7  20 42 DB  JSR  $DB42
 93AA  A0 01     LDY  #$01
 93AC  B1 1E     LDA  ($1E), Y
 93AE  48        PHA  
 93AF  88        DEY  
 93B0  B1 1E     LDA  ($1E), Y
 93B2  48        PHA  
 93B3  B5 00     LDA  $00, X
 93B5  91 1E     STA  ($1E), Y
 93B7  C8        INY  
 93B8  B5 01     LDA  $01, X
 93BA  91 1E     STA  ($1E), Y
 93BC  20 B1 83  JSR  $83B1
 93BF  CA        DEX  
 93C0  CA        DEX  
 93C1  A9 04     LDA  #$04
 93C3  95 01     STA  $01, X
 93C5  74 00     STZ  $00, X
 93C7  20 BF 90  JSR  $90BF
 93CA  A0 00     LDY  #$00
 93CC  68        PLA  
 93CD  91 1E     STA  ($1E), Y
 93CF  C8        INY  
 93D0  68        PLA  
 93D1  91 1E     STA  ($1E), Y
 93D3  88        DEY  
 93D4  11 1E     ORA  ($1E), Y
 93D6  F0 12     BEQ  $93EA
 93D8  CA        DEX  
 93D9  CA        DEX  
 93DA  A0 00     LDY  #$00
 93DC  B1 1E     LDA  ($1E), Y
 93DE  95 00     STA  $00, X
 93E0  C8        INY  
 93E1  B1 1E     LDA  ($1E), Y
 93E3  95 01     STA  $01, X
 93E5  20 B1 83  JSR  $83B1
 93E8  E8        INX  
 93E9  E8        INX  
 93EA  60        RTS  
 93EB  A0 97     LDY  #$97
 93ED  A9 8A     LDA  #$8A
 93EF  20 E5 D9  JSR  $D9E5
 93F2  A0 11     LDY  #$11
 93F4  5A        PHY  
 93F5  B9 59 94  LDA  $9459, Y
 93F8  91 00     STA  ($00), Y
 93FA  88        DEY  
 93FB  10 F8     BPL  $93F5
 93FD  68        PLA  
 93FE  18        CLC  
 93FF  65 00     ADC  $00
 9401  85 00     STA  $00
 9403  A5 01     LDA  $01
 9405  69 00     ADC  #$00
 9407  85 01     STA  $01
 9409  20 5E 87  JSR  $875E
 940C  A9 68     LDA  #$68
 940E  A0 06     LDY  #$06
 9410  91 00     STA  ($00), Y
 9412  88        DEY  
 9413  10 FB     BPL  $9410
 9415  A9 06     LDA  #$06
 9417  18        CLC  
 9418  65 00     ADC  $00
 941A  85 00     STA  $00
 941C  A5 01     LDA  $01
 941E  69 00     ADC  #$00
 9420  85 01     STA  $01
 9422  B5 00     LDA  $00, X
 9424  85 24     STA  $24
 9426  B5 01     LDA  $01, X
 9428  85 25     STA  $25
 942A  E8        INX  
 942B  E8        INX  
 942C  A5 00     LDA  $00
 942E  38        SEC  
 942F  E9 01     SBC  #$01
 9431  85 26     STA  $26
 9433  A5 01     LDA  $01
 9435  E9 00     SBC  #$00
 9437  85 27     STA  $27
 9439  A0 00     LDY  #$00
 943B  A9 A9     LDA  #$A9
 943D  91 24     STA  ($24), Y
 943F  C8        INY  
 9440  A5 27     LDA  $27
 9442  91 24     STA  ($24), Y
 9444  C8        INY  
 9445  A9 48     LDA  #$48
 9447  91 24     STA  ($24), Y
 9449  C8        INY  
 944A  A9 A9     LDA  #$A9
 944C  91 24     STA  ($24), Y
 944E  C8        INY  
 944F  A5 26     LDA  $26
 9451  91 24     STA  ($24), Y
 9453  C8        INY  
 9454  A9 48     LDA  #$48
 9456  91 24     STA  ($24), Y
 9458  60        RTS  
 9459  18        CLC  
 945A  68        PLA  
 945B  75 00     ADC  $00, X
 945D  A8        TAY  
 945E  B8        CLV  
 945F  68        PLA  
 9460  75 01     ADC  $01, X
 9462  48        PHA  
 9463  98        TYA  
 9464  48        PHA  
 9465  E8        INX  
 9466  E8        INX  
 9467  70 03     BVS  $946C
 9469  4C                                               |L               |
 946A  20 47 DB  JSR  $DB47
 946D  B5 00     LDA  $00, X
 946F  29 0F     AND  #$0F
 9471  F0 08     BEQ  $947B
 9473  A8        TAY  
 9474  16 02     ASL  $02, X
 9476  36 03     ROL  $03, X
 9478  88        DEY  
 9479  D0 F9     BNE  $9474
 947B  E8        INX  
 947C  E8        INX  
 947D  60        RTS  
 947E  20 47 DB  JSR  $DB47
 9481  B5 01     LDA  $01, X
 9483  55 03     EOR  $03, X
 9485  48        PHA  
 9486  20 39 81  JSR  $8139
 9489  20 2A A1  JSR  $A12A
 948C  20 39 81  JSR  $8139
 948F  20 78 A5  JSR  $A578
 9492  68        PLA  
 9493  10 03     BPL  $9498
 9495  20 31 8B  JSR  $8B31
 9498  60        RTS  
 9499  20 84 DA  JSR  $DA84
 949C  A5 02     LDA  $02
 949E  48        PHA  
 949F  A5 03     LDA  $03
 94A1  48        PHA  
 94A2  A5 00     LDA  $00
 94A4  48        PHA  
 94A5  A5 01     LDA  $01
 94A7  48        PHA  
 94A8  20 59 89  JSR  $8959
 94AB  A5 00     LDA  $00
 94AD  38        SEC  
 94AE  E9 02     SBC  #$02
 94B0  85 00     STA  $00
 94B2  A5 01     LDA  $01
 94B4  E9 00     SBC  #$00
 94B6  85 01     STA  $01
 94B8  A0 94     LDY  #$94
 94BA  A9 D7     LDA  #$D7
 94BC  20 F1 D9  JSR  $D9F1
 94BF  7A        PLY  
 94C0  68        PLA  
 94C1  20 F1 D9  JSR  $D9F1
 94C4  7A        PLY  
 94C5  68        PLA  
 94C6  20 F1 D9  JSR  $D9F1
 94C9  A0 04     LDY  #$04
 94CB  B1 1E     LDA  ($1E), Y
 94CD  20 F5 D9  JSR  $D9F5
 94D0  C8        INY  
 94D1  98        TYA  
 94D2  C9 28     CMP  #$28
 94D4  D0 F5     BNE  $94CB
 94D6  60        RTS  
 94D7  68        PLA  
 94D8  85 24     STA  $24
 94DA  68        PLA  
 94DB  85 25     STA  $25
 94DD  E6 24     INC  $24
 94DF  D0 02     BNE  $94E3
 94E1  E6 25     INC  $25
 94E3  A0 00     LDY  #$00
 94E5  B1 24     LDA  ($24), Y
 94E7  85 00     STA  $00
 94E9  C8        INY  
 94EA  B1 24     LDA  ($24), Y
 94EC  85 01     STA  $01
 94EE  C8        INY  
 94EF  B1 24     LDA  ($24), Y
 94F1  85 02     STA  $02
 94F3  C8        INY  
 94F4  B1 24     LDA  ($24), Y
 94F6  85 03     STA  $03
 94F8  A0 04     LDY  #$04
 94FA  B1 24     LDA  ($24), Y
 94FC  91 1E     STA  ($1E), Y
 94FE  C8        INY  
 94FF  98        TYA  
 9500  C9 28     CMP  #$28
 9502  D0 F6     BNE  $94FA
 9504  20 97 DA  JSR  $DA97
 9507  60        RTS  
 9508  20 47 DB  JSR  $DB47
 950B  B5 00     LDA  $00, X
 950D  D5 02     CMP  $02, X
 950F  B5 01     LDA  $01, X
 9511  F5 03     SBC  $03, X
 9513  50 02     BVC  $9517
 9515  49 80     EOR  #$80
 9517  30 08     BMI  $9521
 9519  B5 00     LDA  $00, X
 951B  95 02     STA  $02, X
 951D  B5 01     LDA  $01, X
 951F  95 03     STA  $03, X
 9521  E8        INX  
 9522  E8        INX  
 9523  60        RTS  
 9524  20 47 DB  JSR  $DB47
 9527  B5 00     LDA  $00, X
 9529  D5 02     CMP  $02, X
 952B  B5 01     LDA  $01, X
 952D  F5 03     SBC  $03, X
 952F  50 02     BVC  $9533
 9531  49 80     EOR  #$80
 9533  10 08     BPL  $953D
 9535  B5 00     LDA  $00, X
 9537  95 02     STA  $02, X
 9539  B5 01     LDA  $01, X
 953B  95 03     STA  $03, X
 953D  E8        INX  
 953E  E8        INX  
 953F  60        RTS  
 9540  20 47 DB  JSR  $DB47
 9543  38        SEC  
 9544  B5 02     LDA  $02, X
 9546  F5 00     SBC  $00, X
 9548  95 02     STA  $02, X
 954A  B5 03     LDA  $03, X
 954C  F5 01     SBC  $01, X
 954E  95 03     STA  $03, X
 9550  E8        INX  
 9551  E8        INX  
 9552  60        RTS  
 9553  20 47 DB  JSR  $DB47
 9556  B5 00     LDA  $00, X
 9558  15 01     ORA  $01, X
 955A  F0 0F     BEQ  $956B
 955C  A1 02     LDA  ($02, X)
 955E  20 35 DB  JSR  $DB35
 9561  90 08     BCC  $956B
 9563  20 8A 97  JSR  $978A
 9566  20 9B 9F  JSR  $9F9B
 9569  80 EB     BRA  $9556
 956B  60        RTS  
 956C  20 47 DB  JSR  $DB47
 956F  B5 00     LDA  $00, X
 9571  15 01     ORA  $01, X
 9573  F0 33     BEQ  $95A8
 9575  18        CLC  
 9576  B5 02     LDA  $02, X
 9578  75 00     ADC  $00, X
 957A  85 24     STA  $24
 957C  B5 03     LDA  $03, X
 957E  75 01     ADC  $01, X
 9580  85 25     STA  $25
 9582  A5 24     LDA  $24
 9584  D0 02     BNE  $9588
 9586  C6 25     DEC  $25
 9588  C6 24     DEC  $24
 958A  B2 24     LDA  ($24)
 958C  C9 20     CMP  #$20
 958E  D0 18     BNE  $95A8
 9590  A5 24     LDA  $24
 9592  D0 02     BNE  $9596
 9594  C6 25     DEC  $25
 9596  C6 24     DEC  $24
 9598  B5 00     LDA  $00, X
 959A  D0 02     BNE  $959E
 959C  D6 01     DEC  $01, X
 959E  D6 00     DEC  $00, X
 95A0  B5 00     LDA  $00, X
 95A2  15 01     ORA  $01, X
 95A4  F0 02     BEQ  $95A8
 95A6  80 E2     BRA  $958A
 95A8  60        RTS  
 95A9  20 47 DB  JSR  $DB47
 95AC  20 83 9F  JSR  $9F83
 95AF  E8        INX  
 95B0  E8        INX  
 95B1  60        RTS  
 95B2  B5 03     LDA  $03, X
 95B4  D5 05     CMP  $05, X
 95B6  F0 05     BEQ  $95BD
 95B8  B0 0E     BCS  $95C8
 95BA  4C 89 86  JMP  $8689
 95BD  B5 02     LDA  $02, X
 95BF  D5 04     CMP  $04, X
 95C1  F0 08     BEQ  $95CB
 95C3  B0 03     BCS  $95C8
 95C5  4C 89 86  JMP  $8689
 95C8  4C C4 86  JMP  $86C4
 95CB  8A        TXA  
 95CC  18        CLC  
 95CD  69 06     ADC  #$06
 95CF  AA        TAX  
 95D0  60        RTS  
 95D1  20 42 DB  JSR  $DB42
 95D4  B5 00     LDA  $00, X
 95D6  18        CLC  
 95D7  69 04     ADC  #$04
 95D9  85 28     STA  $28
 95DB  B5 01     LDA  $01, X
 95DD  90 01     BCC  $95E0
 95DF  1A        INC  
 95E0  85 29     STA  $29
 95E2  A0 00     LDY  #$00
 95E4  B1 28     LDA  ($28), Y
 95E6  95 00     STA  $00, X
 95E8  C8        INY  
 95E9  B1 28     LDA  ($28), Y
 95EB  95 01     STA  $01, X
 95ED  60        RTS  
 95EE  20 42 DB  JSR  $DB42
 95F1  CA        DEX  
 95F2  CA        DEX  
 95F3  A1 02     LDA  ($02, X)
 95F5  95 00     STA  $00, X
 95F7  74 01     STZ  $01, X
 95F9  B5 02     LDA  $02, X
 95FB  18        CLC  
 95FC  69 08     ADC  #$08
 95FE  A8        TAY  
 95FF  B5 03     LDA  $03, X
 9601  69 00     ADC  #$00
 9603  95 03     STA  $03, X
 9605  94 02     STY  $02, X
 9607  60        RTS  
 9608  CA        DEX  
 9609  CA        DEX  
 960A  A9 1A     LDA  #$1A
 960C  95 00     STA  $00, X
 960E  A9 00     LDA  #$00
 9610  95 01     STA  $01, X
 9612  60        RTS  
 9613  20 42 DB  JSR  $DB42
 9616  A9 00     LDA  #$00
 9618  38        SEC  
 9619  F5 00     SBC  $00, X
 961B  95 00     STA  $00, X
 961D  A9 00     LDA  #$00
 961F  F5 01     SBC  $01, X
 9621  95 01     STA  $01, X
 9623  60        RTS  
 9624  20 84 DA  JSR  $DA84
 9627  A0 01     LDY  #$01
 9629  B1 02     LDA  ($02), Y
 962B  09 08     ORA  #$08
 962D  29 FD     AND  #$FD
 962F  91 02     STA  ($02), Y
 9631  60        RTS  
 9632  20 47 DB  JSR  $DB47
 9635  B5 00     LDA  $00, X
 9637  95 02     STA  $02, X
 9639  B5 01     LDA  $01, X
 963B  95 03     STA  $03, X
 963D  E8        INX  
 963E  E8        INX  
 963F  60        RTS  
 9640  20 47 DB  JSR  $DB47
 9643  A0 00     LDY  #$00
 9645  B5 00     LDA  $00, X
 9647  D5 02     CMP  $02, X
 9649  D0 0A     BNE  $9655
 964B  B5 01     LDA  $01, X
 964D  D5 03     CMP  $03, X
 964F  D0 04     BNE  $9655
 9651  A9 FF     LDA  #$FF
 9653  80 01     BRA  $9656
 9655  88        DEY  
 9656  98        TYA  
 9657  E8        INX  
 9658  E8        INX  
 9659  95 00     STA  $00, X
 965B  95 01     STA  $01, X
 965D  60        RTS  
 965E  20 4C DB  JSR  $DB4C
 9661  B4 01     LDY  $01, X
 9663  B5 03     LDA  $03, X
 9665  95 01     STA  $01, X
 9667  B5 05     LDA  $05, X
 9669  95 03     STA  $03, X
 966B  94 05     STY  $05, X
 966D  B4 00     LDY  $00, X
 966F  B5 02     LDA  $02, X
 9671  95 00     STA  $00, X
 9673  B5 04     LDA  $04, X
 9675  95 02     STA  $02, X
 9677  94 04     STY  $04, X
 9679  60        RTS  
 967A  20 47 DB  JSR  $DB47
 967D  64 2A     STZ  $2A
 967F  64 2B     STZ  $2B
 9681  A1 02     LDA  ($02, X)
 9683  C9 2D     CMP  #$2D
 9685  D0 0A     BNE  $9691
 9687  C6 2B     DEC  $2B
 9689  F6 02     INC  $02, X
 968B  D0 02     BNE  $968F
 968D  F6 03     INC  $03, X
 968F  D6 00     DEC  $00, X
 9691  B5 02     LDA  $02, X
 9693  18        CLC  
 9694  75 00     ADC  $00, X
 9696  85 2C     STA  $2C
 9698  B5 03     LDA  $03, X
 969A  69 00     ADC  #$00
 969C  85 2D     STA  $2D
 969E  A5 2C     LDA  $2C
 96A0  D0 02     BNE  $96A4
 96A2  C6 2D     DEC  $2D
 96A4  C6 2C     DEC  $2C
 96A6  B2 2C     LDA  ($2C)
 96A8  C9 2E     CMP  #$2E
 96AA  D0 04     BNE  $96B0
 96AC  C6 2A     DEC  $2A
 96AE  D6 00     DEC  $00, X
 96B0  CA        DEX  
 96B1  CA        DEX  
 96B2  CA        DEX  
 96B3  CA        DEX  
 96B4  B5 04     LDA  $04, X
 96B6  95 00     STA  $00, X
 96B8  74 01     STZ  $01, X
 96BA  B5 06     LDA  $06, X
 96BC  95 02     STA  $02, X
 96BE  B5 07     LDA  $07, X
 96C0  95 03     STA  $03, X
 96C2  74 04     STZ  $04, X
 96C4  74 05     STZ  $05, X
 96C6  74 06     STZ  $06, X
 96C8  74 07     STZ  $07, X
 96CA  20 39 A2  JSR  $A239
 96CD  B5 00     LDA  $00, X
 96CF  F0 15     BEQ  $96E6
 96D1  A9 3E     LDA  #$3E
 96D3  20 E6 8D  JSR  $8DE6
 96D6  20 7F A4  JSR  $A47F
 96D9  A9 3C     LDA  #$3C
 96DB  20 E6 8D  JSR  $8DE6
 96DE  20 A0 A0  JSR  $A0A0
 96E1  A9 08     LDA  #$08
 96E3  4C 58 DB  JMP  $DB58
 96E6  E8        INX  
 96E7  E8        INX  
 96E8  E8        INX  
 96E9  E8        INX  
 96EA  A5 2A     LDA  $2A
 96EC  F0 0D     BEQ  $96FB
 96EE  A9 20     LDA  #$20
 96F0  04 20     TSB  $20
 96F2  A5 2B     LDA  $2B
 96F4  F0 12     BEQ  $9708
 96F6  20 31 8B  JSR  $8B31
 96F9  80 0D     BRA  $9708
 96FB  E8        INX  
 96FC  E8        INX  
 96FD  A9 20     LDA  #$20
 96FF  14 20     TRB  $20
 9701  A5 2B     LDA  $2B
 9703  F0 03     BEQ  $9708
 9705  20 13 96  JSR  $9613
 9708  60        RTS  
 9709  20 47 DB  JSR  $DB47
 970C  20 77 83  JSR  $8377
 970F  20 70 8F  JSR  $8F70
 9712  20 EC A2  JSR  $A2EC
 9715  20 23 A7  JSR  $A723
 9718  20 FF 99  JSR  $99FF
 971B  20 36 A5  JSR  $A536
 971E  20 D9 9A  JSR  $9AD9
 9721  20 D9 9A  JSR  $9AD9
 9724  20 14 9A  JSR  $9A14
 9727  20 36 A5  JSR  $A536
 972A  20 D9 9A  JSR  $9AD9
 972D  20 D9 9A  JSR  $9AD9
 9730  B5 00     LDA  $00, X
 9732  A8        TAY  
 9733  B9 59 D7  LDA  $D759, Y
 9736  95 00     STA  $00, X
 9738  74 01     STZ  $01, X
 973A  20 C7 91  JSR  $91C7
 973D  60        RTS  
 973E  20 47 DB  JSR  $DB47
 9741  A5 34     LDA  $34
 9743  95 00     STA  $00, X
 9745  95 02     STA  $02, X
 9747  A5 35     LDA  $35
 9749  95 01     STA  $01, X
 974B  95 03     STA  $03, X
 974D  20 23 98  JSR  $9823
 9750  38        SEC  
 9751  B5 00     LDA  $00, X
 9753  F5 02     SBC  $02, X
 9755  95 02     STA  $02, X
 9757  B5 01     LDA  $01, X
 9759  F5 03     SBC  $03, X
 975B  95 03     STA  $03, X
 975D  E8        INX  
 975E  E8        INX  
 975F  60        RTS  
 9760  20 47 DB  JSR  $DB47
 9763  20 09 97  JSR  $9709
 9766  B5 00     LDA  $00, X
 9768  15 01     ORA  $01, X
 976A  15 02     ORA  $02, X
 976C  15 03     ORA  $03, X
 976E  D0 F3     BNE  $9763
 9770  60        RTS  
 9771  A0 98     LDY  #$98
 9773  A9 15     LDA  #$15
 9775  20 E5 D9  JSR  $D9E5
 9778  A0 8E     LDY  #$8E
 977A  A9 BE     LDA  #$BE
 977C  20 E5 D9  JSR  $D9E5
 977F  20 F3 91  JSR  $91F3
 9782  A0 8D     LDY  #$8D
 9784  A9 1E     LDA  #$1E
 9786  20 E5 D9  JSR  $D9E5
 9789  60        RTS  
 978A  CA        DEX  
 978B  CA        DEX  
 978C  A9 01     LDA  #$01
 978E  95 00     STA  $00, X
 9790  74 01     STZ  $01, X
 9792  60        RTS  
 9793  20 42 DB  JSR  $DB42
 9796  B5 00     LDA  $00, X
 9798  D0 02     BNE  $979C
 979A  D6 01     DEC  $01, X
 979C  D6 00     DEC  $00, X
 979E  60        RTS  
 979F  20 42 DB  JSR  $DB42
 97A2  F6 00     INC  $00, X
 97A4  D0 02     BNE  $97A8
 97A6  F6 01     INC  $01, X
 97A8  60        RTS  
 97A9  CA        DEX  
 97AA  CA        DEX  
 97AB  A9 FF     LDA  #$FF
 97AD  95 00     STA  $00, X
 97AF  95 01     STA  $01, X
 97B1  20 9D 9C  JSR  $9C9D
 97B4  60        RTS  
 97B5  20 47 DB  JSR  $DB47
 97B8  B5 00     LDA  $00, X
 97BA  15 02     ORA  $02, X
 97BC  95 02     STA  $02, X
 97BE  B5 01     LDA  $01, X
 97C0  15 03     ORA  $03, X
 97C2  95 03     STA  $03, X
 97C4  E8        INX  
 97C5  E8        INX  
 97C6  60        RTS  
 97C7  20 53 89  JSR  $8953
 97CA  20 24 91  JSR  $9124
 97CD  B5 00     LDA  $00, X
 97CF  F0 1E     BEQ  $97EF
 97D1  A8        TAY  
 97D2  E8        INX  
 97D3  E8        INX  
 97D4  B5 00     LDA  $00, X
 97D6  5A        PHY  
 97D7  20 F2 97  JSR  $97F2
 97DA  7A        PLY  
 97DB  88        DEY  
 97DC  D0 F4     BNE  $97D2
 97DE  20 A0 A0  JSR  $A0A0
 97E1  20 A0 A0  JSR  $A0A0
 97E4  20 19 91  JSR  $9119
 97E7  B5 00     LDA  $00, X
 97E9  20 F2 97  JSR  $97F2
 97EC  20 53 89  JSR  $8953
 97EF  E8        INX  
 97F0  E8        INX  
 97F1  60        RTS  
 97F2  C9 04     CMP  #$04
 97F4  90 09     BCC  $97FF
 97F6  CA        DEX  
 97F7  CA        DEX  
 97F8  95 00     STA  $00, X
 97FA  74 01     STZ  $01, X
 97FC  4C AA A4  JMP  $A4AA
 97FF  A8        TAY  
 9800  B9 06 98  LDA  $9806, Y
 9803  4C 6E DB  JMP  $DB6E
 9806  03 06 07 08                                      |....            |
 980A  CA        DEX  
 980B  CA        DEX  
 980C  A9 10     LDA  #$10
 980E  95 00     STA  $00, X
 9810  A9 00     LDA  #$00
 9812  95 01     STA  $01, X
 9814  60        RTS  
 9815  20 47 DB  JSR  $DB47
 9818  CA        DEX  
 9819  CA        DEX  
 981A  B5 04     LDA  $04, X
 981C  95 00     STA  $00, X
 981E  B5 05     LDA  $05, X
 9820  95 01     STA  $01, X
 9822  60        RTS  
 9823  CA        DEX  
 9824  CA        DEX  
 9825  A5 00     LDA  $00
 9827  18        CLC  
 9828  69 FF     ADC  #$FF
 982A  95 00     STA  $00, X
 982C  A5 01     LDA  $01
 982E  69 00     ADC  #$00
 9830  95 01     STA  $01, X
 9832  60        RTS  
 9833  A9 1B     LDA  #$1B
 9835  20 E6 8D  JSR  $8DE6
 9838  A9 5B     LDA  #$5B
 983A  20 E6 8D  JSR  $8DE6
 983D  A9 32     LDA  #$32
 983F  20 E6 8D  JSR  $8DE6
 9842  A9 4A     LDA  #$4A
 9844  20 E6 8D  JSR  $8DE6
 9847  20 23 A7  JSR  $A723
 984A  20 23 A7  JSR  $A723
 984D  20 50 83  JSR  $8350
 9850  60        RTS  
 9851  CA        DEX  
 9852  CA        DEX  
 9853  A9 29     LDA  #$29
 9855  95 00     STA  $00, X
 9857  74 01     STZ  $01, X
 9859  20 BC 98  JSR  $98BC
 985C  E8        INX  
 985D  E8        INX  
 985E  E8        INX  
 985F  E8        INX  
 9860  60        RTS  
 9861  A5 0A     LDA  $0A
 9863  38        SEC  
 9864  E5 0C     SBC  $0C
 9866  85 24     STA  $24
 9868  A5 0B     LDA  $0B
 986A  E5 0D     SBC  $0D
 986C  85 25     STA  $25
 986E  A5 24     LDA  $24
 9870  05 25     ORA  $25
 9872  F0 28     BEQ  $989C
 9874  A5 08     LDA  $08
 9876  18        CLC  
 9877  65 0C     ADC  $0C
 9879  85 26     STA  $26
 987B  A5 09     LDA  $09
 987D  65 0D     ADC  $0D
 987F  85 27     STA  $27
 9881  B2 26     LDA  ($26)
 9883  20 35 DB  JSR  $DB35
 9886  90 1F     BCC  $98A7
 9888  E6 26     INC  $26
 988A  D0 02     BNE  $988E
 988C  E6 27     INC  $27
 988E  A5 24     LDA  $24
 9890  D0 02     BNE  $9894
 9892  C6 25     DEC  $25
 9894  C6 24     DEC  $24
 9896  A5 24     LDA  $24
 9898  05 25     ORA  $25
 989A  D0 E5     BNE  $9881
 989C  CA        DEX  
 989D  CA        DEX  
 989E  CA        DEX  
 989F  CA        DEX  
 98A0  74 00     STZ  $00, X
 98A2  74 01     STZ  $01, X
 98A4  4C 53 99  JMP  $9953
 98A7  A5 26     LDA  $26
 98A9  38        SEC  
 98AA  E5 08     SBC  $08
 98AC  85 0C     STA  $0C
 98AE  A5 27     LDA  $27
 98B0  E5 09     SBC  $09
 98B2  85 0D     STA  $0D
 98B4  CA        DEX  
 98B5  CA        DEX  
 98B6  A9 20     LDA  #$20
 98B8  95 00     STA  $00, X
 98BA  74 01     STZ  $01, X
 98BC  20 42 DB  JSR  $DB42
 98BF  A5 0A     LDA  $0A
 98C1  05 0B     ORA  $0B
 98C3  F0 0C     BEQ  $98D1
 98C5  A5 0D     LDA  $0D
 98C7  C5 0B     CMP  $0B
 98C9  90 0E     BCC  $98D9
 98CB  A5 0C     LDA  $0C
 98CD  C5 0A     CMP  $0A
 98CF  90 08     BCC  $98D9
 98D1  CA        DEX  
 98D2  CA        DEX  
 98D3  74 00     STZ  $00, X
 98D5  74 01     STZ  $01, X
 98D7  80 7A     BRA  $9953
 98D9  B5 00     LDA  $00, X
 98DB  85 2C     STA  $2C
 98DD  CA        DEX  
 98DE  CA        DEX  
 98DF  A5 08     LDA  $08
 98E1  18        CLC  
 98E2  65 0C     ADC  $0C
 98E4  85 24     STA  $24
 98E6  85 26     STA  $26
 98E8  95 02     STA  $02, X
 98EA  A5 09     LDA  $09
 98EC  65 0D     ADC  $0D
 98EE  85 25     STA  $25
 98F0  85 27     STA  $27
 98F2  95 03     STA  $03, X
 98F4  A5 08     LDA  $08
 98F6  18        CLC  
 98F7  65 0A     ADC  $0A
 98F9  85 28     STA  $28
 98FB  A5 09     LDA  $09
 98FD  65 0B     ADC  $0B
 98FF  85 29     STA  $29
 9901  64 2D     STZ  $2D
 9903  A5 26     LDA  $26
 9905  C5 28     CMP  $28
 9907  D0 06     BNE  $990F
 9909  A5 27     LDA  $27
 990B  C5 29     CMP  $29
 990D  F0 1D     BEQ  $992C
 990F  B2 26     LDA  ($26)
 9911  A4 2C     LDY  $2C
 9913  C0 20     CPY  #$20
 9915  D0 07     BNE  $991E
 9917  20 35 DB  JSR  $DB35
 991A  90 02     BCC  $991E
 991C  80 0C     BRA  $992A
 991E  C5 2C     CMP  $2C
 9920  F0 08     BEQ  $992A
 9922  E6 26     INC  $26
 9924  D0 DD     BNE  $9903
 9926  E6 27     INC  $27
 9928  80 D9     BRA  $9903
 992A  E6 2D     INC  $2D
 992C  A5 26     LDA  $26
 992E  38        SEC  
 992F  E5 24     SBC  $24
 9931  95 00     STA  $00, X
 9933  A5 27     LDA  $27
 9935  E5 25     SBC  $25
 9937  95 01     STA  $01, X
 9939  A5 26     LDA  $26
 993B  38        SEC  
 993C  E5 08     SBC  $08
 993E  85 0C     STA  $0C
 9940  A5 27     LDA  $27
 9942  E5 09     SBC  $09
 9944  85 0D     STA  $0D
 9946  A5 0C     LDA  $0C
 9948  18        CLC  
 9949  65 2D     ADC  $2D
 994B  85 0C     STA  $0C
 994D  A5 0D     LDA  $0D
 994F  69 00     ADC  #$00
 9951  85 0D     STA  $0D
 9953  60        RTS  
 9954  16 00     ASL  $00, X
 9956  8A        TXA  
 9957  75 00     ADC  $00, X
 9959  A8        TAY  
 995A  B9 02 00  LDA  $0002, Y
 995D  95 00     STA  $00, X
 995F  B9 03 00  LDA  $0003, Y
 9962  95 01     STA  $01, X
 9964  60        RTS  
 9965  20 47 DB  JSR  $DB47
 9968  18        CLC  
 9969  B5 00     LDA  $00, X
 996B  75 02     ADC  $02, X
 996D  95 02     STA  $02, X
 996F  B5 01     LDA  $01, X
 9971  75 03     ADC  $03, X
 9973  95 03     STA  $03, X
 9975  E8        INX  
 9976  E8        INX  
 9977  60        RTS  
 9978  20 47 DB  JSR  $DB47
 997B  B5 00     LDA  $00, X
 997D  85 24     STA  $24
 997F  B5 01     LDA  $01, X
 9981  85 25     STA  $25
 9983  A0 00     LDY  #$00
 9985  B1 24     LDA  ($24), Y
 9987  18        CLC  
 9988  75 02     ADC  $02, X
 998A  91 24     STA  ($24), Y
 998C  C8        INY  
 998D  B1 24     LDA  ($24), Y
 998F  75 03     ADC  $03, X
 9991  91 24     STA  ($24), Y
 9993  E8        INX  
 9994  E8        INX  
 9995  E8        INX  
 9996  E8        INX  
 9997  60        RTS  
 9998  20 61 98  JSR  $9861
 999B  B5 00     LDA  $00, X
 999D  15 01     ORA  $01, X
 999F  D0 05     BNE  $99A6
 99A1  A9 05     LDA  #$05
 99A3  4C 58 DB  JMP  $DB58
 99A6  20 CB 8F  JSR  $8FCB
 99A9  D0 05     BNE  $99B0
 99AB  A9 05     LDA  #$05
 99AD  4C 58 DB  JMP  $DB58
 99B0  B5 00     LDA  $00, X
 99B2  85 24     STA  $24
 99B4  B5 01     LDA  $01, X
 99B6  85 25     STA  $25
 99B8  20 D1 95  JSR  $95D1
 99BB  E6 24     INC  $24
 99BD  D0 02     BNE  $99C1
 99BF  E6 25     INC  $25
 99C1  B2 24     LDA  ($24)
 99C3  29 04     AND  #$04
 99C5  F0 05     BEQ  $99CC
 99C7  20 DD 87  JSR  $87DD
 99CA  80 0A     BRA  $99D6
 99CC  20 7A 93  JSR  $937A
 99CF  A0 87     LDY  #$87
 99D1  A9 DD     LDA  #$DD
 99D3  20 E5 D9  JSR  $D9E5
 99D6  60        RTS  
 99D7  20 24 91  JSR  $9124
 99DA  20 32 96  JSR  $9632
 99DD  20 93 97  JSR  $9793
 99E0  20 9D 9C  JSR  $9C9D
 99E3  60        RTS  
 99E4  20 70 8F  JSR  $8F70
 99E7  20 26 8C  JSR  $8C26
 99EA  60        RTS  
 99EB  20 42 DB  JSR  $DB42
 99EE  B5 00     LDA  $00, X
 99F0  15 01     ORA  $01, X
 99F2  F0 0A     BEQ  $99FE
 99F4  CA        DEX  
 99F5  CA        DEX  
 99F6  B5 02     LDA  $02, X
 99F8  95 00     STA  $00, X
 99FA  B5 03     LDA  $03, X
 99FC  95 01     STA  $01, X
 99FE  60        RTS  
 99FF  7A        PLY  
 9A00  84 24     STY  $24
 9A02  7A        PLY  
 9A03  CA        DEX  
 9A04  CA        DEX  
 9A05  68        PLA  
 9A06  95 00     STA  $00, X
 9A08  68        PLA  
 9A09  95 01     STA  $01, X
 9A0B  48        PHA  
 9A0C  B5 00     LDA  $00, X
 9A0E  48        PHA  
 9A0F  5A        PHY  
 9A10  A4 24     LDY  $24
 9A12  5A        PHY  
 9A13  60        RTS  
 9A14  68        PLA  
 9A15  85 2C     STA  $2C
 9A17  7A        PLY  
 9A18  CA        DEX  
 9A19  CA        DEX  
 9A1A  68        PLA  
 9A1B  95 00     STA  $00, X
 9A1D  68        PLA  
 9A1E  95 01     STA  $01, X
 9A20  5A        PHY  
 9A21  A5 2C     LDA  $2C
 9A23  48        PHA  
 9A24  60        RTS  
 9A25  68        PLA  
 9A26  85 24     STA  $24
 9A28  68        PLA  
 9A29  85 25     STA  $25
 9A2B  A0 00     LDY  #$00
 9A2D  68        PLA  
 9A2E  99 06 00  STA  $0006, Y
 9A31  C8        INY  
 9A32  C0 08     CPY  #$08
 9A34  D0 F7     BNE  $9A2D
 9A36  A5 25     LDA  $25
 9A38  48        PHA  
 9A39  A5 24     LDA  $24
 9A3B  48        PHA  
 9A3C  60        RTS  
 9A3D  A0 00     LDY  #$00
 9A3F  A9 20     LDA  #$20
 9A41  91 00     STA  ($00), Y
 9A43  C8        INY  
 9A44  24 20     BIT  $20
 9A46  70 0C     BVS  $9A54
 9A48  A5 04     LDA  $04
 9A4A  91 00     STA  ($00), Y
 9A4C  C8        INY  
 9A4D  A5 05     LDA  $05
 9A4F  91 00     STA  ($00), Y
 9A51  C8        INY  
 9A52  80 1B     BRA  $9A6F
 9A54  A5 04     LDA  $04
 9A56  18        CLC  
 9A57  69 04     ADC  #$04
 9A59  85 24     STA  $24
 9A5B  A5 05     LDA  $05
 9A5D  69 00     ADC  #$00
 9A5F  85 25     STA  $25
 9A61  B2 24     LDA  ($24)
 9A63  91 00     STA  ($00), Y
 9A65  5A        PHY  
 9A66  A0 01     LDY  #$01
 9A68  B1 24     LDA  ($24), Y
 9A6A  7A        PLY  
 9A6B  C8        INY  
 9A6C  91 00     STA  ($00), Y
 9A6E  C8        INY  
 9A6F  98        TYA  
 9A70  18        CLC  
 9A71  65 00     ADC  $00
 9A73  85 00     STA  $00
 9A75  90 02     BCC  $9A79
 9A77  E6 01     INC  $01
 9A79  60        RTS  
 9A7A  A5 06     LDA  $06
 9A7C  D0 2D     BNE  $9AAB
 9A7E  CA        DEX  
 9A7F  CA        DEX  
 9A80  CA        DEX  
 9A81  CA        DEX  
 9A82  A5 08     LDA  $08
 9A84  95 02     STA  $02, X
 9A86  A5 09     LDA  $09
 9A88  95 03     STA  $03, X
 9A8A  64 0A     STZ  $0A
 9A8C  64 0B     STZ  $0B
 9A8E  A9 FF     LDA  #$FF
 9A90  95 00     STA  $00, X
 9A92  74 01     STZ  $01, X
 9A94  20 4E 81  JSR  $814E
 9A97  B5 00     LDA  $00, X
 9A99  85 0A     STA  $0A
 9A9B  B5 01     LDA  $01, X
 9A9D  85 0B     STA  $0B
 9A9F  64 0C     STZ  $0C
 9AA1  64 0D     STZ  $0D
 9AA3  A9 FF     LDA  #$FF
 9AA5  95 00     STA  $00, X
 9AA7  95 01     STA  $01, X
 9AA9  80 10     BRA  $9ABB
 9AAB  1A        INC  
 9AAC  D0 08     BNE  $9AB6
 9AAE  CA        DEX  
 9AAF  CA        DEX  
 9AB0  74 00     STZ  $00, X
 9AB2  74 01     STZ  $01, X
 9AB4  80 05     BRA  $9ABB
 9AB6  A9 01     LDA  #$01
 9AB8  4C 58 DB  JMP  $DB58
 9ABB  60        RTS  
 9ABC  20 89 82  JSR  $8289
 9ABF  20 62 91  JSR  $9162
 9AC2  20 2A A1  JSR  $A12A
 9AC5  20 09 A1  JSR  $A109
 9AC8  60        RTS  
 9AC9  A9 FF     LDA  #$FF
 9ACB  85 16     STA  $16
 9ACD  85 17     STA  $17
 9ACF  60        RTS  
 9AD0  CA        DEX  
 9AD1  CA        DEX  
 9AD2  A9 03     LDA  #$03
 9AD4  95 00     STA  $00, X
 9AD6  74 01     STZ  $01, X
 9AD8  60        RTS  
 9AD9  20 4C DB  JSR  $DB4C
 9ADC  B4 05     LDY  $05, X
 9ADE  B5 03     LDA  $03, X
 9AE0  95 05     STA  $05, X
 9AE2  B5 01     LDA  $01, X
 9AE4  95 03     STA  $03, X
 9AE6  94 01     STY  $01, X
 9AE8  B4 04     LDY  $04, X
 9AEA  B5 02     LDA  $02, X
 9AEC  95 04     STA  $04, X
 9AEE  B5 00     LDA  $00, X
 9AF0  95 02     STA  $02, X
 9AF2  94 00     STY  $00, X
 9AF4  60        RTS  
 9AF5  20 47 DB  JSR  $DB47
 9AF8  B5 00     LDA  $00, X
 9AFA  29 0F     AND  #$0F
 9AFC  F0 08     BEQ  $9B06
 9AFE  A8        TAY  
 9AFF  56 03     LSR  $03, X
 9B01  76 02     ROR  $02, X
 9B03  88        DEY  
 9B04  D0 F9     BNE  $9AFF
 9B06  E8        INX  
 9B07  E8        INX  
 9B08  60        RTS  
 9B09  A9 FF     LDA  #$FF
 9B0B  85 26     STA  $26
 9B0D  64 27     STZ  $27
 9B0F  20 D5 9C  JSR  $9CD5
 9B12  60        RTS  
 9B13  C9 41     CMP  #$41
 9B15  90 07     BCC  $9B1E
 9B17  29 DF     AND  #$DF
 9B19  38        SEC  
 9B1A  E9 37     SBC  #$37
 9B1C  80 03     BRA  $9B21
 9B1E  38        SEC  
 9B1F  E9 30     SBC  #$30
 9B21  60        RTS  
 9B22  20 4C DB  JSR  $DB4C
 9B25  A5 1E     LDA  $1E
 9B27  18        CLC  
 9B28  69 06     ADC  #$06
 9B2A  85 26     STA  $26
 9B2C  A5 1F     LDA  $1F
 9B2E  69 00     ADC  #$00
 9B30  85 27     STA  $27
 9B32  B5 00     LDA  $00, X
 9B34  0A        ASL  
 9B35  65 26     ADC  $26
 9B37  85 26     STA  $26
 9B39  90 02     BCC  $9B3D
 9B3B  E6 27     INC  $27
 9B3D  E8        INX  
 9B3E  E8        INX  
 9B3F  B5 00     LDA  $00, X
 9B41  15 01     ORA  $01, X
 9B43  D0 03     BNE  $9B48
 9B45  4C 00 9C  JMP  $9C00
 9B48  A5 26     LDA  $26
 9B4A  05 27     ORA  $27
 9B4C  D0 03     BNE  $9B51
 9B4E  4C 00 9C  JMP  $9C00
 9B51  B2 26     LDA  ($26)
 9B53  85 24     STA  $24
 9B55  E6 26     INC  $26
 9B57  D0 02     BNE  $9B5B
 9B59  E6 27     INC  $27
 9B5B  B2 26     LDA  ($26)
 9B5D  85 25     STA  $25
 9B5F  B5 02     LDA  $02, X
 9B61  85 26     STA  $26
 9B63  B5 03     LDA  $03, X
 9B65  85 27     STA  $27
 9B67  B2 24     LDA  ($24)
 9B69  D5 00     CMP  $00, X
 9B6B  D0 7B     BNE  $9BE8
 9B6D  B2 26     LDA  ($26)
 9B6F  C9 5B     CMP  #$5B
 9B71  B0 07     BCS  $9B7A
 9B73  C9 41     CMP  #$41
 9B75  90 03     BCC  $9B7A
 9B77  18        CLC  
 9B78  69 20     ADC  #$20
 9B7A  A0 08     LDY  #$08
 9B7C  D1 24     CMP  ($24), Y
 9B7E  D0 68     BNE  $9BE8
 9B80  B5 00     LDA  $00, X
 9B82  3A        DEC  
 9B83  F0 2C     BEQ  $9BB1
 9B85  A5 24     LDA  $24
 9B87  48        PHA  
 9B88  18        CLC  
 9B89  69 08     ADC  #$08
 9B8B  85 24     STA  $24
 9B8D  A5 25     LDA  $25
 9B8F  48        PHA  
 9B90  69 00     ADC  #$00
 9B92  85 25     STA  $25
 9B94  B4 00     LDY  $00, X
 9B96  88        DEY  
 9B97  B1 26     LDA  ($26), Y
 9B99  C9 5B     CMP  #$5B
 9B9B  B0 07     BCS  $9BA4
 9B9D  C9 41     CMP  #$41
 9B9F  90 03     BCC  $9BA4
 9BA1  18        CLC  
 9BA2  69 20     ADC  #$20
 9BA4  D1 24     CMP  ($24), Y
 9BA6  D0 3A     BNE  $9BE2
 9BA8  88        DEY  
 9BA9  D0 EC     BNE  $9B97
 9BAB  68        PLA  
 9BAC  85 25     STA  $25
 9BAE  68        PLA  
 9BAF  85 24     STA  $24
 9BB1  E8        INX  
 9BB2  E8        INX  
 9BB3  A5 24     LDA  $24
 9BB5  95 00     STA  $00, X
 9BB7  A5 25     LDA  $25
 9BB9  95 01     STA  $01, X
 9BBB  20 9F 8D  JSR  $8D9F
 9BBE  20 D1 95  JSR  $95D1
 9BC1  20 2A A1  JSR  $A12A
 9BC4  A0 00     LDY  #$00
 9BC6  F6 00     INC  $00, X
 9BC8  D0 02     BNE  $9BCC
 9BCA  F6 01     INC  $01, X
 9BCC  A1 00     LDA  ($00, X)
 9BCE  29 04     AND  #$04
 9BD0  D0 08     BNE  $9BDA
 9BD2  A9 FF     LDA  #$FF
 9BD4  95 00     STA  $00, X
 9BD6  95 01     STA  $01, X
 9BD8  80 28     BRA  $9C02
 9BDA  A9 01     LDA  #$01
 9BDC  95 00     STA  $00, X
 9BDE  74 01     STZ  $01, X
 9BE0  80 20     BRA  $9C02
 9BE2  68        PLA  
 9BE3  85 25     STA  $25
 9BE5  68        PLA  
 9BE6  85 24     STA  $24
 9BE8  A0 02     LDY  #$02
 9BEA  B1 24     LDA  ($24), Y
 9BEC  48        PHA  
 9BED  C8        INY  
 9BEE  B1 24     LDA  ($24), Y
 9BF0  85 25     STA  $25
 9BF2  68        PLA  
 9BF3  85 24     STA  $24
 9BF5  05 25     ORA  $25
 9BF7  F0 03     BEQ  $9BFC
 9BF9  4C 67 9B  JMP  $9B67
 9BFC  74 02     STZ  $02, X
 9BFE  74 03     STZ  $03, X
 9C00  E8        INX  
 9C01  E8        INX  
 9C02  60        RTS  
 9C03  20 61 98  JSR  $9861
 9C06  20 CB 8F  JSR  $8FCB
 9C09  B5 00     LDA  $00, X
 9C0B  15 01     ORA  $01, X
 9C0D  D0 05     BNE  $9C14
 9C0F  A9 05     LDA  #$05
 9C11  4C 58 DB  JMP  $DB58
 9C14  20 53 89  JSR  $8953
 9C17  A5 18     LDA  $18
 9C19  48        PHA  
 9C1A  20 6D 91  JSR  $916D
 9C1D  A9 0A     LDA  #$0A
 9C1F  20 6E DB  JSR  $DB6E
 9C22  20 9F 8D  JSR  $8D9F
 9C25  20 AA A4  JSR  $A4AA
 9C28  20 A0 A0  JSR  $A0A0
 9C2B  20 9F 8D  JSR  $8D9F
 9C2E  20 D1 95  JSR  $95D1
 9C31  A9 0B     LDA  #$0B
 9C33  20 6E DB  JSR  $DB6E
 9C36  20 9F 8D  JSR  $8D9F
 9C39  20 AA A4  JSR  $A4AA
 9C3C  20 53 89  JSR  $8953
 9C3F  A9 09     LDA  #$09
 9C41  20 6E DB  JSR  $DB6E
 9C44  20 15 98  JSR  $9815
 9C47  20 9F 97  JSR  $979F
 9C4A  20 70 8F  JSR  $8F70
 9C4D  B5 00     LDA  $00, X
 9C4F  A0 06     LDY  #$06
 9C51  48        PHA  
 9C52  29 01     AND  #$01
 9C54  18        CLC  
 9C55  69 30     ADC  #$30
 9C57  20 E6 8D  JSR  $8DE6
 9C5A  20 A0 A0  JSR  $A0A0
 9C5D  68        PLA  
 9C5E  6A        ROR  
 9C5F  88        DEY  
 9C60  D0 EF     BNE  $9C51
 9C62  20 53 89  JSR  $8953
 9C65  E8        INX  
 9C66  E8        INX  
 9C67  A9 0C     LDA  #$0C
 9C69  20 6E DB  JSR  $DB6E
 9C6C  20 2A A1  JSR  $A12A
 9C6F  20 F0 A6  JSR  $A6F0
 9C72  20 9F 8D  JSR  $8D9F
 9C75  20 95 8A  JSR  $8A95
 9C78  20 AA A4  JSR  $A4AA
 9C7B  20 6D 91  JSR  $916D
 9C7E  20 53 89  JSR  $8953
 9C81  20 34 A3  JSR  $A334
 9C84  20 24 8D  JSR  $8D24
 9C87  20 53 89  JSR  $8953
 9C8A  20 2A 8B  JSR  $8B2A
 9C8D  68        PLA  
 9C8E  85 18     STA  $18
 9C90  60        RTS  
 9C91  20 42 DB  JSR  $DB42
 9C94  A0 04     LDY  #$04
 9C96  B5 00     LDA  $00, X
 9C98  91 1E     STA  ($1E), Y
 9C9A  E8        INX  
 9C9B  E8        INX  
 9C9C  60        RTS  
 9C9D  A9 FF     LDA  #$FF
 9C9F  D5 01     CMP  $01, X
 9CA1  D0 12     BNE  $9CB5
 9CA3  D5 00     CMP  $00, X
 9CA5  D0 0E     BNE  $9CB5
 9CA7  CA        DEX  
 9CA8  CA        DEX  
 9CA9  74 03     STZ  $03, X
 9CAB  A9 03     LDA  #$03
 9CAD  95 02     STA  $02, X
 9CAF  74 01     STZ  $01, X
 9CB1  A9 01     LDA  #$01
 9CB3  95 00     STA  $00, X
 9CB5  A0 1E     LDY  #$1E
 9CB7  B5 00     LDA  $00, X
 9CB9  91 1E     STA  ($1E), Y
 9CBB  85 24     STA  $24
 9CBD  E8        INX  
 9CBE  E8        INX  
 9CBF  A5 24     LDA  $24
 9CC1  F0 0D     BEQ  $9CD0
 9CC3  A0 1F     LDY  #$1F
 9CC5  B5 00     LDA  $00, X
 9CC7  91 1E     STA  ($1E), Y
 9CC9  C8        INY  
 9CCA  E8        INX  
 9CCB  E8        INX  
 9CCC  C6 24     DEC  $24
 9CCE  D0 F5     BNE  $9CC5
 9CD0  60        RTS  
 9CD1  64 26     STZ  $26
 9CD3  64 27     STZ  $27
 9CD5  CA        DEX  
 9CD6  CA        DEX  
 9CD7  CA        DEX  
 9CD8  CA        DEX  
 9CD9  A9 4C     LDA  #$4C
 9CDB  20 F5 D9  JSR  $D9F5
 9CDE  20 F5 D9  JSR  $D9F5
 9CE1  20 F5 D9  JSR  $D9F5
 9CE4  A5 00     LDA  $00
 9CE6  95 02     STA  $02, X
 9CE8  A5 01     LDA  $01
 9CEA  95 03     STA  $03, X
 9CEC  A5 0D     LDA  $0D
 9CEE  C5 0B     CMP  $0B
 9CF0  90 2A     BCC  $9D1C
 9CF2  A5 0C     LDA  $0C
 9CF4  C5 0A     CMP  $0A
 9CF6  90 24     BCC  $9D1C
 9CF8  A5 26     LDA  $26
 9CFA  48        PHA  
 9CFB  A5 27     LDA  $27
 9CFD  48        PHA  
 9CFE  A5 28     LDA  $28
 9D00  48        PHA  
 9D01  20 7A 9A  JSR  $9A7A
 9D04  68        PLA  
 9D05  85 28     STA  $28
 9D07  68        PLA  
 9D08  85 27     STA  $27
 9D0A  68        PLA  
 9D0B  85 26     STA  $26
 9D0D  B5 00     LDA  $00, X
 9D0F  15 01     ORA  $01, X
 9D11  D0 05     BNE  $9D18
 9D13  A9 06     LDA  #$06
 9D15  4C 58 DB  JMP  $DB58
 9D18  E8        INX  
 9D19  E8        INX  
 9D1A  80 D0     BRA  $9CEC
 9D1C  A5 08     LDA  $08
 9D1E  18        CLC  
 9D1F  65 0C     ADC  $0C
 9D21  85 24     STA  $24
 9D23  A5 09     LDA  $09
 9D25  65 0D     ADC  $0D
 9D27  85 25     STA  $25
 9D29  B2 24     LDA  ($24)
 9D2B  24 26     BIT  $26
 9D2D  30 03     BMI  $9D32
 9D2F  4C EA 9D  JMP  $9DEA
 9D32  24 27     BIT  $27
 9D34  30 03     BMI  $9D39
 9D36  4C E0 9D  JMP  $9DE0
 9D39  70 22     BVS  $9D5D
 9D3B  A9 01     LDA  #$01
 9D3D  24 27     BIT  $27
 9D3F  D0 10     BNE  $9D51
 9D41  E6 27     INC  $27
 9D43  B2 24     LDA  ($24)
 9D45  20 13 9B  JSR  $9B13
 9D48  0A        ASL  
 9D49  0A        ASL  
 9D4A  0A        ASL  
 9D4B  0A        ASL  
 9D4C  85 28     STA  $28
 9D4E  4C F1 9D  JMP  $9DF1
 9D51  64 27     STZ  $27
 9D53  B2 24     LDA  ($24)
 9D55  20 13 9B  JSR  $9B13
 9D58  05 28     ORA  $28
 9D5A  4C EE 9D  JMP  $9DEE
 9D5D  64 27     STZ  $27
 9D5F  C9 61     CMP  #$61
 9D61  D0 05     BNE  $9D68
 9D63  A9 07     LDA  #$07
 9D65  4C EE 9D  JMP  $9DEE
 9D68  C9 62     CMP  #$62
 9D6A  D0 05     BNE  $9D71
 9D6C  A9 08     LDA  #$08
 9D6E  4C EE 9D  JMP  $9DEE
 9D71  C9 65     CMP  #$65
 9D73  D0 04     BNE  $9D79
 9D75  A9 1B     LDA  #$1B
 9D77  80 75     BRA  $9DEE
 9D79  C9 66     CMP  #$66
 9D7B  D0 04     BNE  $9D81
 9D7D  A9 0C     LDA  #$0C
 9D7F  80 6D     BRA  $9DEE
 9D81  C9 6C     CMP  #$6C
 9D83  D0 04     BNE  $9D89
 9D85  A9 0A     LDA  #$0A
 9D87  80 65     BRA  $9DEE
 9D89  C9 6D     CMP  #$6D
 9D8B  D0 09     BNE  $9D96
 9D8D  A9 0D     LDA  #$0D
 9D8F  20 F5 D9  JSR  $D9F5
 9D92  A9 0A     LDA  #$0A
 9D94  80 58     BRA  $9DEE
 9D96  C9 6E     CMP  #$6E
 9D98  D0 04     BNE  $9D9E
 9D9A  A9 0A     LDA  #$0A
 9D9C  80 50     BRA  $9DEE
 9D9E  C9 71     CMP  #$71
 9DA0  D0 04     BNE  $9DA6
 9DA2  A9 22     LDA  #$22
 9DA4  80 48     BRA  $9DEE
 9DA6  C9 72     CMP  #$72
 9DA8  D0 04     BNE  $9DAE
 9DAA  A9 0D     LDA  #$0D
 9DAC  80 40     BRA  $9DEE
 9DAE  C9 74     CMP  #$74
 9DB0  D0 04     BNE  $9DB6
 9DB2  A9 09     LDA  #$09
 9DB4  80 38     BRA  $9DEE
 9DB6  C9 76     CMP  #$76
 9DB8  D0 04     BNE  $9DBE
 9DBA  A9 0B     LDA  #$0B
 9DBC  80 30     BRA  $9DEE
 9DBE  C9 7A     CMP  #$7A
 9DC0  D0 04     BNE  $9DC6
 9DC2  A9 00     LDA  #$00
 9DC4  80 28     BRA  $9DEE
 9DC6  C9 22     CMP  #$22
 9DC8  D0 04     BNE  $9DCE
 9DCA  A9 22     LDA  #$22
 9DCC  80 20     BRA  $9DEE
 9DCE  C9 78     CMP  #$78
 9DD0  D0 06     BNE  $9DD8
 9DD2  A9 BE     LDA  #$BE
 9DD4  85 27     STA  $27
 9DD6  80 19     BRA  $9DF1
 9DD8  C9 5C     CMP  #$5C
 9DDA  D0 04     BNE  $9DE0
 9DDC  A9 5C     LDA  #$5C
 9DDE  80 0E     BRA  $9DEE
 9DE0  C9 5C     CMP  #$5C
 9DE2  D0 06     BNE  $9DEA
 9DE4  A9 FF     LDA  #$FF
 9DE6  85 27     STA  $27
 9DE8  80 07     BRA  $9DF1
 9DEA  C9 22     CMP  #$22
 9DEC  F0 0C     BEQ  $9DFA
 9DEE  20 F5 D9  JSR  $D9F5
 9DF1  E6 0C     INC  $0C
 9DF3  D0 02     BNE  $9DF7
 9DF5  E6 0D     INC  $0D
 9DF7  4C EC 9C  JMP  $9CEC
 9DFA  E6 0C     INC  $0C
 9DFC  D0 02     BNE  $9E00
 9DFE  E6 0D     INC  $0D
 9E00  A5 00     LDA  $00
 9E02  38        SEC  
 9E03  F5 02     SBC  $02, X
 9E05  95 00     STA  $00, X
 9E07  A5 01     LDA  $01
 9E09  F5 03     SBC  $03, X
 9E0B  95 01     STA  $01, X
 9E0D  B5 02     LDA  $02, X
 9E0F  38        SEC  
 9E10  E9 02     SBC  #$02
 9E12  85 24     STA  $24
 9E14  B5 03     LDA  $03, X
 9E16  E9 00     SBC  #$00
 9E18  85 25     STA  $25
 9E1A  A5 00     LDA  $00
 9E1C  92 24     STA  ($24)
 9E1E  A0 01     LDY  #$01
 9E20  A5 01     LDA  $01
 9E22  91 24     STA  ($24), Y
 9E24  A5 16     LDA  $16
 9E26  05 17     ORA  $17
 9E28  F0 03     BEQ  $9E2D
 9E2A  20 11 A0  JSR  $A011
 9E2D  60        RTS  
 9E2E  20 42 DB  JSR  $DB42
 9E31  CA        DEX  
 9E32  CA        DEX  
 9E33  74 00     STZ  $00, X
 9E35  74 01     STZ  $01, X
 9E37  B5 03     LDA  $03, X
 9E39  10 04     BPL  $9E3F
 9E3B  D6 00     DEC  $00, X
 9E3D  D6 01     DEC  $01, X
 9E3F  60        RTS  
 9E40  A0 2C     LDY  #$2C
 9E42  B1 1E     LDA  ($1E), Y
 9E44  C9 03     CMP  #$03
 9E46  D0 12     BNE  $9E5A
 9E48  20 A3 83  JSR  $83A3
 9E4B  20 95 85  JSR  $8595
 9E4E  20 70 8F  JSR  $8F70
 9E51  20 50 85  JSR  $8550
 9E54  A9 01     LDA  #$01
 9E56  A0 2C     LDY  #$2C
 9E58  91 1E     STA  ($1E), Y
 9E5A  60        RTS  
 9E5B  CA        DEX  
 9E5C  CA        DEX  
 9E5D  18        CLC  
 9E5E  A5 1E     LDA  $1E
 9E60  69 02     ADC  #$02
 9E62  95 00     STA  $00, X
 9E64  A5 1F     LDA  $1F
 9E66  69 00     ADC  #$00
 9E68  95 01     STA  $01, X
 9E6A  60        RTS  
 9E6B  20 51 DB  JSR  $DB51
 9E6E  B5 00     LDA  $00, X
 9E70  15 01     ORA  $01, X
 9E72  D0 0B     BNE  $9E7F
 9E74  E8        INX  
 9E75  E8        INX  
 9E76  A9 FF     LDA  #$FF
 9E78  95 00     STA  $00, X
 9E7A  95 01     STA  $01, X
 9E7C  4C 09 9F  JMP  $9F09
 9E7F  20 23 A7  JSR  $A723
 9E82  18        CLC  
 9E83  B5 00     LDA  $00, X
 9E85  75 02     ADC  $02, X
 9E87  85 24     STA  $24
 9E89  B5 01     LDA  $01, X
 9E8B  75 03     ADC  $03, X
 9E8D  D5 07     CMP  $07, X
 9E8F  90 12     BCC  $9EA3
 9E91  D0 06     BNE  $9E99
 9E93  B5 06     LDA  $06, X
 9E95  C5 24     CMP  $24
 9E97  B0 0A     BCS  $9EA3
 9E99  E8        INX  
 9E9A  E8        INX  
 9E9B  E8        INX  
 9E9C  E8        INX  
 9E9D  74 00     STZ  $00, X
 9E9F  74 01     STZ  $01, X
 9EA1  80 66     BRA  $9F09
 9EA3  18        CLC  
 9EA4  B5 08     LDA  $08, X
 9EA6  75 00     ADC  $00, X
 9EA8  85 24     STA  $24
 9EAA  B5 09     LDA  $09, X
 9EAC  75 01     ADC  $01, X
 9EAE  85 25     STA  $25
 9EB0  B5 04     LDA  $04, X
 9EB2  85 26     STA  $26
 9EB4  B5 05     LDA  $05, X
 9EB6  85 27     STA  $27
 9EB8  B5 02     LDA  $02, X
 9EBA  85 28     STA  $28
 9EBC  B5 03     LDA  $03, X
 9EBE  85 29     STA  $29
 9EC0  B2 24     LDA  ($24)
 9EC2  D2 26     CMP  ($26)
 9EC4  F0 05     BEQ  $9ECB
 9EC6  20 9F 97  JSR  $979F
 9EC9  80 B7     BRA  $9E82
 9ECB  E6 24     INC  $24
 9ECD  D0 02     BNE  $9ED1
 9ECF  E6 25     INC  $25
 9ED1  E6 26     INC  $26
 9ED3  D0 02     BNE  $9ED7
 9ED5  E6 27     INC  $27
 9ED7  A5 28     LDA  $28
 9ED9  D0 02     BNE  $9EDD
 9EDB  C6 29     DEC  $29
 9EDD  C6 28     DEC  $28
 9EDF  A5 28     LDA  $28
 9EE1  05 29     ORA  $29
 9EE3  D0 DB     BNE  $9EC0
 9EE5  18        CLC  
 9EE6  B5 00     LDA  $00, X
 9EE8  75 08     ADC  $08, X
 9EEA  95 08     STA  $08, X
 9EEC  B5 01     LDA  $01, X
 9EEE  75 09     ADC  $09, X
 9EF0  95 09     STA  $09, X
 9EF2  38        SEC  
 9EF3  B5 06     LDA  $06, X
 9EF5  F5 00     SBC  $00, X
 9EF7  95 06     STA  $06, X
 9EF9  B5 07     LDA  $07, X
 9EFB  F5 01     SBC  $01, X
 9EFD  95 07     STA  $07, X
 9EFF  E8        INX  
 9F00  E8        INX  
 9F01  E8        INX  
 9F02  E8        INX  
 9F03  A9 FF     LDA  #$FF
 9F05  95 00     STA  $00, X
 9F07  95 01     STA  $01, X
 9F09  60        RTS  
 9F0A  24 20     BIT  $20
 9F0C  70 11     BVS  $9F1F
 9F0E  A9 60     LDA  #$60
 9F10  20 F5 D9  JSR  $D9F5
 9F13  CA        DEX  
 9F14  CA        DEX  
 9F15  A5 04     LDA  $04
 9F17  95 00     STA  $00, X
 9F19  A5 05     LDA  $05
 9F1B  95 01     STA  $01, X
 9F1D  80 45     BRA  $9F64
 9F1F  A0 06     LDY  #$06
 9F21  A5 00     LDA  $00
 9F23  91 04     STA  ($04), Y
 9F25  C8        INY  
 9F26  A5 01     LDA  $01
 9F28  91 04     STA  ($04), Y
 9F2A  A9 60     LDA  #$60
 9F2C  20 F5 D9  JSR  $D9F5
 9F2F  24 20     BIT  $20
 9F31  10 26     BPL  $9F59
 9F33  CA        DEX  
 9F34  CA        DEX  
 9F35  CA        DEX  
 9F36  CA        DEX  
 9F37  B2 04     LDA  ($04)
 9F39  95 00     STA  $00, X
 9F3B  74 01     STZ  $01, X
 9F3D  A5 04     LDA  $04
 9F3F  18        CLC  
 9F40  69 08     ADC  #$08
 9F42  95 02     STA  $02, X
 9F44  A5 05     LDA  $05
 9F46  69 00     ADC  #$00
 9F48  95 03     STA  $03, X
 9F4A  A9 02     LDA  #$02
 9F4C  20 6E DB  JSR  $DB6E
 9F4F  20 7F A4  JSR  $A47F
 9F52  20 A0 A0  JSR  $A0A0
 9F55  A9 80     LDA  #$80
 9F57  14 20     TRB  $20
 9F59  A5 04     LDA  $04
 9F5B  85 02     STA  $02
 9F5D  A5 05     LDA  $05
 9F5F  85 03     STA  $03
 9F61  20 97 DA  JSR  $DA97
 9F64  64 16     STZ  $16
 9F66  64 17     STZ  $17
 9F68  60        RTS  
 9F69  20 42 DB  JSR  $DB42
 9F6C  B5 01     LDA  $01, X
 9F6E  30 04     BMI  $9F74
 9F70  E8        INX  
 9F71  E8        INX  
 9F72  80 09     BRA  $9F7D
 9F74  A9 2D     LDA  #$2D
 9F76  95 00     STA  $00, X
 9F78  74 01     STZ  $01, X
 9F7A  20 C7 91  JSR  $91C7
 9F7D  60        RTS  
 9F7E  A9 00     LDA  #$00
 9F80  48        PHA  
 9F81  80 03     BRA  $9F86
 9F83  A9 FF     LDA  #$FF
 9F85  48        PHA  
 9F86  20 EC A2  JSR  $A2EC
 9F89  20 2E 9E  JSR  $9E2E
 9F8C  20 14 9A  JSR  $9A14
 9F8F  20 57 A0  JSR  $A057
 9F92  68        PLA  
 9F93  D0 05     BNE  $9F9A
 9F95  20 2A A1  JSR  $A12A
 9F98  E8        INX  
 9F99  E8        INX  
 9F9A  60        RTS  
 9F9B  20 4C DB  JSR  $DB4C
 9F9E  18        CLC  
 9F9F  B5 00     LDA  $00, X
 9FA1  75 04     ADC  $04, X
 9FA3  95 04     STA  $04, X
 9FA5  B5 01     LDA  $01, X
 9FA7  75 05     ADC  $05, X
 9FA9  95 05     STA  $05, X
 9FAB  38        SEC  
 9FAC  B5 02     LDA  $02, X
 9FAE  F5 00     SBC  $00, X
 9FB0  95 02     STA  $02, X
 9FB2  B5 03     LDA  $03, X
 9FB4  F5 01     SBC  $01, X
 9FB6  95 03     STA  $03, X
 9FB8  E8        INX  
 9FB9  E8        INX  
 9FBA  60        RTS  
 9FBB  20 47 DB  JSR  $DB47
 9FBE  A9 4C     LDA  #$4C
 9FC0  20 F5 D9  JSR  $D9F5
 9FC3  20 F5 D9  JSR  $D9F5
 9FC6  20 F5 D9  JSR  $D9F5
 9FC9  8A        TXA  
 9FCA  38        SEC  
 9FCB  E9 06     SBC  #$06
 9FCD  AA        TAX  
 9FCE  B5 08     LDA  $08, X
 9FD0  95 04     STA  $04, X
 9FD2  B5 09     LDA  $09, X
 9FD4  95 05     STA  $05, X
 9FD6  B5 06     LDA  $06, X
 9FD8  95 00     STA  $00, X
 9FDA  B5 07     LDA  $07, X
 9FDC  95 01     STA  $01, X
 9FDE  A5 00     LDA  $00
 9FE0  95 08     STA  $08, X
 9FE2  95 02     STA  $02, X
 9FE4  A5 01     LDA  $01
 9FE6  95 09     STA  $09, X
 9FE8  95 03     STA  $03, X
 9FEA  20 B2 95  JSR  $95B2
 9FED  18        CLC  
 9FEE  A5 00     LDA  $00
 9FF0  75 00     ADC  $00, X
 9FF2  85 00     STA  $00
 9FF4  A5 01     LDA  $01
 9FF6  75 01     ADC  $01, X
 9FF8  85 01     STA  $01
 9FFA  B5 02     LDA  $02, X
 9FFC  38        SEC  
 9FFD  E9 02     SBC  #$02
 9FFF  85 24     STA  $24
 A001  B5 03     LDA  $03, X
 A003  E9 00     SBC  #$00
 A005  85 25     STA  $25
 A007  A5 00     LDA  $00
 A009  92 24     STA  ($24)
 A00B  A0 01     LDY  #$01
 A00D  A5 01     LDA  $01
 A00F  91 24     STA  ($24), Y
 A011  A0 A0     LDY  #$A0
 A013  A9 2B     LDA  #$2B
 A015  20 E5 D9  JSR  $D9E5
 A018  B4 03     LDY  $03, X
 A01A  B5 02     LDA  $02, X
 A01C  20 F1 D9  JSR  $D9F1
 A01F  B4 01     LDY  $01, X
 A021  B5 00     LDA  $00, X
 A023  20 F1 D9  JSR  $D9F1
 A026  E8        INX  
 A027  E8        INX  
 A028  E8        INX  
 A029  E8        INX  
 A02A  60        RTS  
 A02B  CA        DEX  
 A02C  CA        DEX  
 A02D  CA        DEX  
 A02E  CA        DEX  
 A02F  68        PLA  
 A030  85 24     STA  $24
 A032  68        PLA  
 A033  85 25     STA  $25
 A035  A0 01     LDY  #$01
 A037  B1 24     LDA  ($24), Y
 A039  95 02     STA  $02, X
 A03B  C8        INY  
 A03C  B1 24     LDA  ($24), Y
 A03E  95 03     STA  $03, X
 A040  C8        INY  
 A041  B1 24     LDA  ($24), Y
 A043  95 00     STA  $00, X
 A045  C8        INY  
 A046  B1 24     LDA  ($24), Y
 A048  95 01     STA  $01, X
 A04A  18        CLC  
 A04B  A5 24     LDA  $24
 A04D  69 04     ADC  #$04
 A04F  A8        TAY  
 A050  A5 25     LDA  $25
 A052  69 00     ADC  #$00
 A054  48        PHA  
 A055  5A        PHY  
 A056  60        RTS  
 A057  20 4C DB  JSR  $DB4C
 A05A  B5 03     LDA  $03, X
 A05C  48        PHA  
 A05D  B5 01     LDA  $01, X
 A05F  55 03     EOR  $03, X
 A061  48        PHA  
 A062  20 39 81  JSR  $8139
 A065  E8        INX  
 A066  E8        INX  
 A067  20 76 8A  JSR  $8A76
 A06A  CA        DEX  
 A06B  CA        DEX  
 A06C  20 36 A5  JSR  $A536
 A06F  68        PLA  
 A070  10 03     BPL  $A075
 A072  20 13 96  JSR  $9613
 A075  68        PLA  
 A076  10 07     BPL  $A07F
 A078  E8        INX  
 A079  E8        INX  
 A07A  20 13 96  JSR  $9613
 A07D  CA        DEX  
 A07E  CA        DEX  
 A07F  60        RTS  
 A080  CA        DEX  
 A081  CA        DEX  
 A082  A5 08     LDA  $08
 A084  95 00     STA  $00, X
 A086  A5 09     LDA  $09
 A088  95 01     STA  $01, X
 A08A  CA        DEX  
 A08B  CA        DEX  
 A08C  A5 0A     LDA  $0A
 A08E  95 00     STA  $00, X
 A090  A5 0B     LDA  $0B
 A092  95 01     STA  $01, X
 A094  60        RTS  
 A095  CA        DEX  
 A096  CA        DEX  
 A097  A5 06     LDA  $06
 A099  95 00     STA  $00, X
 A09B  A5 07     LDA  $07
 A09D  95 01     STA  $01, X
 A09F  60        RTS  
 A0A0  A9 20     LDA  #$20
 A0A2  20 E6 8D  JSR  $8DE6
 A0A5  60        RTS  
 A0A6  20 42 DB  JSR  $DB42
 A0A9  B5 00     LDA  $00, X
 A0AB  15 01     ORA  $01, X
 A0AD  F0 2A     BEQ  $A0D9
 A0AF  B4 01     LDY  $01, X
 A0B1  D0 0C     BNE  $A0BF
 A0B3  B4 00     LDY  $00, X
 A0B5  A9 20     LDA  #$20
 A0B7  20 E6 8D  JSR  $8DE6
 A0BA  88        DEY  
 A0BB  F0 1C     BEQ  $A0D9
 A0BD  80 F6     BRA  $A0B5
 A0BF  B4 00     LDY  $00, X
 A0C1  F0 08     BEQ  $A0CB
 A0C3  A9 20     LDA  #$20
 A0C5  20 E6 8D  JSR  $8DE6
 A0C8  88        DEY  
 A0C9  80 F6     BRA  $A0C1
 A0CB  A0 00     LDY  #$00
 A0CD  A9 20     LDA  #$20
 A0CF  20 E6 8D  JSR  $8DE6
 A0D2  88        DEY  
 A0D3  D0 F8     BNE  $A0CD
 A0D5  D6 01     DEC  $01, X
 A0D7  D0 F2     BNE  $A0CB
 A0D9  E8        INX  
 A0DA  E8        INX  
 A0DB  60        RTS  
 A0DC  20 47 DB  JSR  $DB47
 A0DF  20 78 A5  JSR  $A578
 A0E2  E8        INX  
 A0E3  E8        INX  
 A0E4  60        RTS  
 A0E5  20 EE A0  JSR  $A0EE
 A0E8  20 2A A1  JSR  $A12A
 A0EB  E8        INX  
 A0EC  E8        INX  
 A0ED  60        RTS  
 A0EE  20 4C DB  JSR  $DB4C
 A0F1  20 EC A2  JSR  $A2EC
 A0F4  20 7E 94  JSR  $947E
 A0F7  20 14 9A  JSR  $9A14
 A0FA  20 57 A0  JSR  $A057
 A0FD  60        RTS  
 A0FE  CA        DEX  
 A0FF  CA        DEX  
 A100  A9 16     LDA  #$16
 A102  95 00     STA  $00, X
 A104  A9 00     LDA  #$00
 A106  95 01     STA  $01, X
 A108  60        RTS  
 A109  20 47 DB  JSR  $DB47
 A10C  B5 02     LDA  $02, X
 A10E  81 00     STA  ($00, X)
 A110  F6 00     INC  $00, X
 A112  D0 02     BNE  $A116
 A114  F6 01     INC  $01, X
 A116  B5 03     LDA  $03, X
 A118  81 00     STA  ($00, X)
 A11A  E8        INX  
 A11B  E8        INX  
 A11C  E8        INX  
 A11D  E8        INX  
 A11E  60        RTS  
 A11F  CA        DEX  
 A120  CA        DEX  
 A121  A9 1C     LDA  #$1C
 A123  95 00     STA  $00, X
 A125  A9 00     LDA  #$00
 A127  95 01     STA  $01, X
 A129  60        RTS  
 A12A  20 47 DB  JSR  $DB47
 A12D  B5 00     LDA  $00, X
 A12F  B4 02     LDY  $02, X
 A131  95 02     STA  $02, X
 A133  94 00     STY  $00, X
 A135  B5 01     LDA  $01, X
 A137  B4 03     LDY  $03, X
 A139  95 03     STA  $03, X
 A13B  94 01     STY  $01, X
 A13D  60        RTS  
 A13E  20 62 91  JSR  $9162
 A141  20 2A A1  JSR  $A12A
 A144  20 09 A1  JSR  $A109
 A147  60        RTS  
 A148  20 47 DB  JSR  $DB47
 A14B  B5 01     LDA  $01, X
 A14D  48        PHA  
 A14E  B5 00     LDA  $00, X
 A150  48        PHA  
 A151  E8        INX  
 A152  E8        INX  
 A153  B5 01     LDA  $01, X
 A155  48        PHA  
 A156  B5 00     LDA  $00, X
 A158  48        PHA  
 A159  20 A7 93  JSR  $93A7
 A15C  68        PLA  
 A15D  85 24     STA  $24
 A15F  68        PLA  
 A160  85 25     STA  $25
 A162  68        PLA  
 A163  85 26     STA  $26
 A165  68        PLA  
 A166  85 27     STA  $27
 A168  C5 25     CMP  $25
 A16A  D0 08     BNE  $A174
 A16C  A5 26     LDA  $26
 A16E  C5 24     CMP  $24
 A170  D0 02     BNE  $A174
 A172  80 18     BRA  $A18C
 A174  A5 27     LDA  $27
 A176  48        PHA  
 A177  A5 26     LDA  $26
 A179  48        PHA  
 A17A  E6 24     INC  $24
 A17C  D0 02     BNE  $A180
 A17E  E6 25     INC  $25
 A180  CA        DEX  
 A181  CA        DEX  
 A182  A5 24     LDA  $24
 A184  95 00     STA  $00, X
 A186  A5 25     LDA  $25
 A188  95 01     STA  $01, X
 A18A  80 C7     BRA  $A153
 A18C  60        RTS  
 A18D  20 61 98  JSR  $9861
 A190  B5 00     LDA  $00, X
 A192  15 01     ORA  $01, X
 A194  D0 05     BNE  $A19B
 A196  A9 05     LDA  #$05
 A198  4C 58 DB  JMP  $DB58
 A19B  20 CB 8F  JSR  $8FCB
 A19E  B5 00     LDA  $00, X
 A1A0  15 01     ORA  $01, X
 A1A2  D0 05     BNE  $A1A9
 A1A4  A9 08     LDA  #$08
 A1A6  4C 58 DB  JMP  $DB58
 A1A9  20 D1 95  JSR  $95D1
 A1AC  60        RTS  
 A1AD  20 8D A1  JSR  $A18D
 A1B0  B5 00     LDA  $00, X
 A1B2  18        CLC  
 A1B3  69 03     ADC  #$03
 A1B5  85 24     STA  $24
 A1B7  B5 01     LDA  $01, X
 A1B9  69 00     ADC  #$00
 A1BB  85 25     STA  $25
 A1BD  E8        INX  
 A1BE  E8        INX  
 A1BF  A5 16     LDA  $16
 A1C1  05 17     ORA  $17
 A1C3  F0 34     BEQ  $A1F9
 A1C5  A0 00     LDY  #$00
 A1C7  A9 B5     LDA  #$B5
 A1C9  20 F1 D9  JSR  $D9F1
 A1CC  A9 8D     LDA  #$8D
 A1CE  20 F5 D9  JSR  $D9F5
 A1D1  A4 25     LDY  $25
 A1D3  A5 24     LDA  $24
 A1D5  20 F1 D9  JSR  $D9F1
 A1D8  A0 01     LDY  #$01
 A1DA  A9 B5     LDA  #$B5
 A1DC  20 F1 D9  JSR  $D9F1
 A1DF  A9 8D     LDA  #$8D
 A1E1  20 F5 D9  JSR  $D9F5
 A1E4  E6 24     INC  $24
 A1E6  D0 02     BNE  $A1EA
 A1E8  E6 25     INC  $25
 A1EA  A4 25     LDY  $25
 A1EC  A5 24     LDA  $24
 A1EE  20 F1 D9  JSR  $D9F1
 A1F1  A0 E8     LDY  #$E8
 A1F3  98        TYA  
 A1F4  20 F1 D9  JSR  $D9F1
 A1F7  80 0F     BRA  $A208
 A1F9  20 42 DB  JSR  $DB42
 A1FC  B5 00     LDA  $00, X
 A1FE  92 24     STA  ($24)
 A200  A0 01     LDY  #$01
 A202  B5 01     LDA  $01, X
 A204  91 24     STA  ($24), Y
 A206  E8        INX  
 A207  E8        INX  
 A208  60        RTS  
 A209  20 42 DB  JSR  $DB42
 A20C  20 9F 8D  JSR  $8D9F
 A20F  20 68 92  JSR  $9268
 A212  F6 00     INC  $00, X
 A214  D0 02     BNE  $A218
 A216  F6 01     INC  $01, X
 A218  A1 00     LDA  ($00, X)
 A21A  29 20     AND  #$20
 A21C  F0 0D     BEQ  $A22B
 A21E  18        CLC  
 A21F  B5 02     LDA  $02, X
 A221  69 03     ADC  #$03
 A223  95 02     STA  $02, X
 A225  B5 03     LDA  $03, X
 A227  69 00     ADC  #$00
 A229  95 03     STA  $03, X
 A22B  E8        INX  
 A22C  E8        INX  
 A22D  60        RTS  
 A22E  CA        DEX  
 A22F  CA        DEX  
 A230  A9 0C     LDA  #$0C
 A232  95 00     STA  $00, X
 A234  A9 00     LDA  #$00
 A236  95 01     STA  $01, X
 A238  60        RTS  
 A239  20 51 DB  JSR  $DB51
 A23C  B5 06     LDA  $06, X
 A23E  85 36     STA  $36
 A240  B5 07     LDA  $07, X
 A242  85 37     STA  $37
 A244  B5 04     LDA  $04, X
 A246  85 38     STA  $38
 A248  B5 05     LDA  $05, X
 A24A  85 39     STA  $39
 A24C  CA        DEX  
 A24D  CA        DEX  
 A24E  A1 04     LDA  ($04, X)
 A250  95 00     STA  $00, X
 A252  74 01     STZ  $01, X
 A254  20 F5 8A  JSR  $8AF5
 A257  B5 00     LDA  $00, X
 A259  D0 04     BNE  $A25F
 A25B  E8        INX  
 A25C  E8        INX  
 A25D  80 67     BRA  $A2C6
 A25F  B5 02     LDA  $02, X
 A261  85 3A     STA  $3A
 A263  B5 03     LDA  $03, X
 A265  85 3B     STA  $3B
 A267  A5 38     LDA  $38
 A269  95 02     STA  $02, X
 A26B  A5 39     LDA  $39
 A26D  95 03     STA  $03, X
 A26F  A5 18     LDA  $18
 A271  95 00     STA  $00, X
 A273  74 01     STZ  $01, X
 A275  20 78 A5  JSR  $A578
 A278  B5 02     LDA  $02, X
 A27A  85 3C     STA  $3C
 A27C  B5 03     LDA  $03, X
 A27E  85 3D     STA  $3D
 A280  A5 36     LDA  $36
 A282  95 02     STA  $02, X
 A284  A5 37     LDA  $37
 A286  95 03     STA  $03, X
 A288  A5 18     LDA  $18
 A28A  95 00     STA  $00, X
 A28C  74 01     STZ  $01, X
 A28E  20 78 A5  JSR  $A578
 A291  B5 00     LDA  $00, X
 A293  85 38     STA  $38
 A295  B5 01     LDA  $01, X
 A297  85 39     STA  $39
 A299  B5 02     LDA  $02, X
 A29B  85 36     STA  $36
 A29D  B5 03     LDA  $03, X
 A29F  85 37     STA  $37
 A2A1  18        CLC  
 A2A2  A5 36     LDA  $36
 A2A4  65 3A     ADC  $3A
 A2A6  85 36     STA  $36
 A2A8  A5 37     LDA  $37
 A2AA  65 3B     ADC  $3B
 A2AC  85 37     STA  $37
 A2AE  A5 38     LDA  $38
 A2B0  65 3C     ADC  $3C
 A2B2  85 38     STA  $38
 A2B4  A5 39     LDA  $39
 A2B6  65 3D     ADC  $3D
 A2B8  85 39     STA  $39
 A2BA  E8        INX  
 A2BB  E8        INX  
 A2BC  F6 04     INC  $04, X
 A2BE  D0 02     BNE  $A2C2
 A2C0  F6 05     INC  $05, X
 A2C2  D6 02     DEC  $02, X
 A2C4  D0 88     BNE  $A24E
 A2C6  E8        INX  
 A2C7  E8        INX  
 A2C8  A5 36     LDA  $36
 A2CA  95 06     STA  $06, X
 A2CC  A5 37     LDA  $37
 A2CE  95 07     STA  $07, X
 A2D0  A5 38     LDA  $38
 A2D2  95 04     STA  $04, X
 A2D4  A5 39     LDA  $39
 A2D6  95 05     STA  $05, X
 A2D8  60        RTS  
 A2D9  20 EC A2  JSR  $A2EC
 A2DC  20 24 91  JSR  $9124
 A2DF  20 14 9A  JSR  $9A14
 A2E2  20 2A A1  JSR  $A12A
 A2E5  20 9F 97  JSR  $979F
 A2E8  20 9D 9C  JSR  $9C9D
 A2EB  60        RTS  
 A2EC  68        PLA  
 A2ED  85 2C     STA  $2C
 A2EF  7A        PLY  
 A2F0  20 42 DB  JSR  $DB42
 A2F3  B5 01     LDA  $01, X
 A2F5  48        PHA  
 A2F6  B5 00     LDA  $00, X
 A2F8  48        PHA  
 A2F9  E8        INX  
 A2FA  E8        INX  
 A2FB  5A        PHY  
 A2FC  A5 2C     LDA  $2C
 A2FE  48        PHA  
 A2FF  60        RTS  
 A300  CA        DEX  
 A301  CA        DEX  
 A302  A9 FF     LDA  #$FF
 A304  95 00     STA  $00, X
 A306  95 01     STA  $01, X
 A308  60        RTS  
 A309  20 47 DB  JSR  $DB47
 A30C  CA        DEX  
 A30D  CA        DEX  
 A30E  B4 04     LDY  $04, X
 A310  B5 02     LDA  $02, X
 A312  95 04     STA  $04, X
 A314  94 02     STY  $02, X
 A316  95 00     STA  $00, X
 A318  B4 05     LDY  $05, X
 A31A  B5 03     LDA  $03, X
 A31C  95 05     STA  $05, X
 A31E  94 03     STY  $03, X
 A320  95 01     STA  $01, X
 A322  60        RTS  
 A323  CA        DEX  
 A324  CA        DEX  
 A325  A9 02     LDA  #$02
 A327  95 00     STA  $00, X
 A329  74 01     STZ  $01, X
 A32B  60        RTS  
 A32C  20 47 DB  JSR  $DB47
 A32F  E8        INX  
 A330  E8        INX  
 A331  E8        INX  
 A332  E8        INX  
 A333  60        RTS  
 A334  20 47 DB  JSR  $DB47
 A337  CA        DEX  
 A338  CA        DEX  
 A339  CA        DEX  
 A33A  CA        DEX  
 A33B  B5 04     LDA  $04, X
 A33D  95 00     STA  $00, X
 A33F  B5 05     LDA  $05, X
 A341  95 01     STA  $01, X
 A343  B5 06     LDA  $06, X
 A345  95 02     STA  $02, X
 A347  B5 07     LDA  $07, X
 A349  95 03     STA  $03, X
 A34B  60        RTS  
 A34C  20 42 DB  JSR  $DB42
 A34F  B5 00     LDA  $00, X
 A351  85 24     STA  $24
 A353  B4 01     LDY  $01, X
 A355  84 25     STY  $25
 A357  CA        DEX  
 A358  CA        DEX  
 A359  B2 24     LDA  ($24)
 A35B  95 00     STA  $00, X
 A35D  A0 01     LDY  #$01
 A35F  B1 24     LDA  ($24), Y
 A361  95 01     STA  $01, X
 A363  C8        INY  
 A364  B1 24     LDA  ($24), Y
 A366  95 02     STA  $02, X
 A368  C8        INY  
 A369  B1 24     LDA  ($24), Y
 A36B  95 03     STA  $03, X
 A36D  60        RTS  
 A36E  20 51 DB  JSR  $DB51
 A371  CA        DEX  
 A372  CA        DEX  
 A373  CA        DEX  
 A374  CA        DEX  
 A375  B5 08     LDA  $08, X
 A377  95 00     STA  $00, X
 A379  B5 09     LDA  $09, X
 A37B  95 01     STA  $01, X
 A37D  B5 0A     LDA  $0A, X
 A37F  95 02     STA  $02, X
 A381  B5 0B     LDA  $0B, X
 A383  95 03     STA  $03, X
 A385  60        RTS  
 A386  CA        DEX  
 A387  CA        DEX  
 A388  CA        DEX  
 A389  CA        DEX  
 A38A  8A        TXA  
 A38B  BA        TSX  
 A38C  DA        PHX  
 A38D  7A        PLY  
 A38E  AA        TAX  
 A38F  B9 03 01  LDA  $0103, Y
 A392  95 00     STA  $00, X
 A394  B9 04 01  LDA  $0104, Y
 A397  95 01     STA  $01, X
 A399  B9 05 01  LDA  $0105, Y
 A39C  95 02     STA  $02, X
 A39E  B9 06 01  LDA  $0106, Y
 A3A1  95 03     STA  $03, X
 A3A3  60        RTS  
 A3A4  68        PLA  
 A3A5  85 24     STA  $24
 A3A7  68        PLA  
 A3A8  85 25     STA  $25
 A3AA  CA        DEX  
 A3AB  CA        DEX  
 A3AC  CA        DEX  
 A3AD  CA        DEX  
 A3AE  68        PLA  
 A3AF  95 00     STA  $00, X
 A3B1  68        PLA  
 A3B2  95 01     STA  $01, X
 A3B4  68        PLA  
 A3B5  95 02     STA  $02, X
 A3B7  68        PLA  
 A3B8  95 03     STA  $03, X
 A3BA  A5 25     LDA  $25
 A3BC  48        PHA  
 A3BD  A5 24     LDA  $24
 A3BF  48        PHA  
 A3C0  60        RTS  
 A3C1  20 42 DB  JSR  $DB42
 A3C4  B5 01     LDA  $01, X
 A3C6  0A        ASL  
 A3C7  76 01     ROR  $01, X
 A3C9  76 00     ROR  $00, X
 A3CB  60        RTS  
 A3CC  20 42 DB  JSR  $DB42
 A3CF  16 00     ASL  $00, X
 A3D1  36 01     ROL  $01, X
 A3D3  60        RTS  
 A3D4  20 4C DB  JSR  $DB4C
 A3D7  B5 00     LDA  $00, X
 A3D9  85 24     STA  $24
 A3DB  B4 01     LDY  $01, X
 A3DD  84 25     STY  $25
 A3DF  E8        INX  
 A3E0  E8        INX  
 A3E1  B5 00     LDA  $00, X
 A3E3  92 24     STA  ($24)
 A3E5  B5 01     LDA  $01, X
 A3E7  A0 01     LDY  #$01
 A3E9  91 24     STA  ($24), Y
 A3EB  B5 02     LDA  $02, X
 A3ED  C8        INY  
 A3EE  91 24     STA  ($24), Y
 A3F0  B5 03     LDA  $03, X
 A3F2  C8        INY  
 A3F3  91 24     STA  ($24), Y
 A3F5  E8        INX  
 A3F6  E8        INX  
 A3F7  E8        INX  
 A3F8  E8        INX  
 A3F9  60        RTS  
 A3FA  20 51 DB  JSR  $DB51
 A3FD  B5 00     LDA  $00, X
 A3FF  B4 04     LDY  $04, X
 A401  95 04     STA  $04, X
 A403  94 00     STY  $00, X
 A405  B5 01     LDA  $01, X
 A407  B4 05     LDY  $05, X
 A409  95 05     STA  $05, X
 A40B  94 01     STY  $01, X
 A40D  B5 02     LDA  $02, X
 A40F  B4 06     LDY  $06, X
 A411  95 06     STA  $06, X
 A413  94 02     STY  $02, X
 A415  B5 03     LDA  $03, X
 A417  B4 07     LDY  $07, X
 A419  95 07     STA  $07, X
 A41B  94 03     STY  $03, X
 A41D  60        RTS  
 A41E  68        PLA  
 A41F  85 24     STA  $24
 A421  68        PLA  
 A422  85 25     STA  $25
 A424  20 47 DB  JSR  $DB47
 A427  B5 03     LDA  $03, X
 A429  48        PHA  
 A42A  B5 02     LDA  $02, X
 A42C  48        PHA  
 A42D  B5 01     LDA  $01, X
 A42F  48        PHA  
 A430  B5 00     LDA  $00, X
 A432  48        PHA  
 A433  E8        INX  
 A434  E8        INX  
 A435  E8        INX  
 A436  E8        INX  
 A437  A5 25     LDA  $25
 A439  48        PHA  
 A43A  A5 24     LDA  $24
 A43C  48        PHA  
 A43D  60        RTS  
 A43E  20 47 DB  JSR  $DB47
 A441  20 59 89  JSR  $8959
 A444  20 2A A1  JSR  $A12A
 A447  20 5E 87  JSR  $875E
 A44A  20 5E 87  JSR  $875E
 A44D  20 F4 8B  JSR  $8BF4
 A450  20 2B DA  JSR  $DA2B
 A453  20 9F 8D  JSR  $8D9F
 A456  20 70 8F  JSR  $8F70
 A459  20 2A A1  JSR  $A12A
 A45C  20 11 86  JSR  $8611
 A45F  20 70 8F  JSR  $8F70
 A462  60        RTS  
 A463  20 47 DB  JSR  $DB47
 A466  20 2A A1  JSR  $A12A
 A469  20 7A 93  JSR  $937A
 A46C  20 7A 93  JSR  $937A
 A46F  60        RTS  
 A470  20 59 89  JSR  $8959
 A473  CA        DEX  
 A474  CA        DEX  
 A475  A9 04     LDA  #$04
 A477  95 00     STA  $00, X
 A479  74 01     STZ  $01, X
 A47B  20 AB 82  JSR  $82AB
 A47E  60        RTS  
 A47F  20 47 DB  JSR  $DB47
 A482  B5 02     LDA  $02, X
 A484  85 24     STA  $24
 A486  B5 03     LDA  $03, X
 A488  85 25     STA  $25
 A48A  B5 00     LDA  $00, X
 A48C  15 01     ORA  $01, X
 A48E  F0 15     BEQ  $A4A5
 A490  B2 24     LDA  ($24)
 A492  20 E6 8D  JSR  $8DE6
 A495  E6 24     INC  $24
 A497  D0 02     BNE  $A49B
 A499  E6 25     INC  $25
 A49B  B5 00     LDA  $00, X
 A49D  D0 02     BNE  $A4A1
 A49F  D6 01     DEC  $01, X
 A4A1  D6 00     DEC  $00, X
 A4A3  80 E5     BRA  $A48A
 A4A5  E8        INX  
 A4A6  E8        INX  
 A4A7  E8        INX  
 A4A8  E8        INX  
 A4A9  60        RTS  
 A4AA  20 42 DB  JSR  $DB42
 A4AD  20 8E DB  JSR  $DB8E
 A4B0  A9 20     LDA  #$20
 A4B2  20 E6 8D  JSR  $8DE6
 A4B5  60        RTS  
 A4B6  20 47 DB  JSR  $DB47
 A4B9  20 EC A2  JSR  $A2EC
 A4BC  20 23 A7  JSR  $A723
 A4BF  20 4A 93  JSR  $934A
 A4C2  20 60 97  JSR  $9760
 A4C5  20 3E 97  JSR  $973E
 A4C8  20 14 9A  JSR  $9A14
 A4CB  20 15 98  JSR  $9815
 A4CE  20 40 95  JSR  $9540
 A4D1  20 A6 A0  JSR  $A0A6
 A4D4  20 7F A4  JSR  $A47F
 A4D7  60        RTS  
 A4D8  20 47 DB  JSR  $DB47
 A4DB  B5 00     LDA  $00, X
 A4DD  D5 02     CMP  $02, X
 A4DF  B5 01     LDA  $01, X
 A4E1  F5 03     SBC  $03, X
 A4E3  E8        INX  
 A4E4  E8        INX  
 A4E5  A9 00     LDA  #$00
 A4E7  69 FF     ADC  #$FF
 A4E9  95 00     STA  $00, X
 A4EB  95 01     STA  $01, X
 A4ED  60        RTS  
 A4EE  20 47 DB  JSR  $DB47
 A4F1  B5 02     LDA  $02, X
 A4F3  D5 00     CMP  $00, X
 A4F5  B5 03     LDA  $03, X
 A4F7  F5 01     SBC  $01, X
 A4F9  E8        INX  
 A4FA  E8        INX  
 A4FB  A9 00     LDA  #$00
 A4FD  69 FF     ADC  #$FF
 A4FF  95 00     STA  $00, X
 A501  95 01     STA  $01, X
 A503  60        RTS  
 A504  20 47 DB  JSR  $DB47
 A507  20 4A 93  JSR  $934A
 A50A  20 60 97  JSR  $9760
 A50D  20 3E 97  JSR  $973E
 A510  20 7F A4  JSR  $A47F
 A513  20 A0 A0  JSR  $A0A0
 A516  60        RTS  
 A517  20 4C DB  JSR  $DB4C
 A51A  20 EC A2  JSR  $A2EC
 A51D  20 4A 93  JSR  $934A
 A520  20 60 97  JSR  $9760
 A523  20 3E 97  JSR  $973E
 A526  20 14 9A  JSR  $9A14
 A529  20 15 98  JSR  $9815
 A52C  20 40 95  JSR  $9540
 A52F  20 A6 A0  JSR  $A0A6
 A532  20 7F A4  JSR  $A47F
 A535  60        RTS  
 A536  20 4C DB  JSR  $DB4C
 A539  B5 00     LDA  $00, X
 A53B  15 01     ORA  $01, X
 A53D  D0 05     BNE  $A544
 A53F  A9 04     LDA  #$04
 A541  4C 58 DB  JMP  $DB58
 A544  A9 11     LDA  #$11
 A546  85 2C     STA  $2C
 A548  36 04     ROL  $04, X
 A54A  36 05     ROL  $05, X
 A54C  C6 2C     DEC  $2C
 A54E  F0 22     BEQ  $A572
 A550  36 02     ROL  $02, X
 A552  36 03     ROL  $03, X
 A554  64 24     STZ  $24
 A556  26 24     ROL  $24
 A558  38        SEC  
 A559  B5 02     LDA  $02, X
 A55B  F5 00     SBC  $00, X
 A55D  85 25     STA  $25
 A55F  B5 03     LDA  $03, X
 A561  F5 01     SBC  $01, X
 A563  A8        TAY  
 A564  A5 24     LDA  $24
 A566  E9 00     SBC  #$00
 A568  90 DE     BCC  $A548
 A56A  A5 25     LDA  $25
 A56C  95 02     STA  $02, X
 A56E  94 03     STY  $03, X
 A570  80 D6     BRA  $A548
 A572  E8        INX  
 A573  E8        INX  
 A574  20 2A A1  JSR  $A12A
 A577  60        RTS  
 A578  20 47 DB  JSR  $DB47
 A57B  18        CLC  
 A57C  B5 00     LDA  $00, X
 A57E  E9 00     SBC  #$00
 A580  85 26     STA  $26
 A582  B5 01     LDA  $01, X
 A584  E9 00     SBC  #$00
 A586  90 31     BCC  $A5B9
 A588  85 27     STA  $27
 A58A  A9 00     LDA  #$00
 A58C  85 24     STA  $24
 A58E  86 28     STX  $28
 A590  CA        DEX  
 A591  CA        DEX  
 A592  A0 08     LDY  #$08
 A594  56 04     LSR  $04, X
 A596  90 0C     BCC  $A5A4
 A598  85 25     STA  $25
 A59A  A5 24     LDA  $24
 A59C  65 26     ADC  $26
 A59E  85 24     STA  $24
 A5A0  A5 25     LDA  $25
 A5A2  65 27     ADC  $27
 A5A4  6A        ROR  
 A5A5  66 24     ROR  $24
 A5A7  76 04     ROR  $04, X
 A5A9  88        DEY  
 A5AA  D0 EA     BNE  $A596
 A5AC  E8        INX  
 A5AD  E4 28     CPX  $28
 A5AF  D0 E1     BNE  $A592
 A5B1  95 01     STA  $01, X
 A5B3  A5 24     LDA  $24
 A5B5  95 00     STA  $00, X
 A5B7  80 04     BRA  $A5BD
 A5B9  74 02     STZ  $02, X
 A5BB  74 03     STZ  $03, X
 A5BD  60        RTS  
 A5BE  68        PLA  
 A5BF  68        PLA  
 A5C0  68        PLA  
 A5C1  68        PLA  
 A5C2  68        PLA  
 A5C3  68        PLA  
 A5C4  60        RTS  
 A5C5  A0 92     LDY  #$92
 A5C7  A9 04     LDA  #$04
 A5C9  20 E5 D9  JSR  $D9E5
 A5CC  20 5E 87  JSR  $875E
 A5CF  60        RTS  
 A5D0  CA        DEX  
 A5D1  CA        DEX  
 A5D2  A9 03     LDA  #$03
 A5D4  38        SEC  
 A5D5  E5 00     SBC  $00
 A5D7  95 00     STA  $00, X
 A5D9  A9 7A     LDA  #$7A
 A5DB  E5 01     SBC  $01
 A5DD  95 01     STA  $01, X
 A5DF  60        RTS  
 A5E0  A0 2C     LDY  #$2C
 A5E2  B1 1E     LDA  ($1E), Y
 A5E4  09 02     ORA  #$02
 A5E6  91 1E     STA  ($1E), Y
 A5E8  60        RTS  
 A5E9  CA        DEX  
 A5EA  CA        DEX  
 A5EB  A9 1E     LDA  #$1E
 A5ED  95 00     STA  $00, X
 A5EF  A9 00     LDA  #$00
 A5F1  95 01     STA  $01, X
 A5F3  60        RTS  
 A5F4  20 59 89  JSR  $8959
 A5F7  A9 00     LDA  #$00
 A5F9  92 00     STA  ($00)
 A5FB  E6 00     INC  $00
 A5FD  D0 02     BNE  $A601
 A5FF  E6 01     INC  $01
 A601  92 00     STA  ($00)
 A603  E6 00     INC  $00
 A605  D0 02     BNE  $A609
 A607  E6 01     INC  $01
 A609  20 21 89  JSR  $8921
 A60C  60        RTS  
 A60D  A0 92     LDY  #$92
 A60F  A9 04     LDA  #$04
 A611  20 E5 D9  JSR  $D9E5
 A614  20 62 91  JSR  $9162
 A617  20 23 A7  JSR  $A723
 A61A  20 5E 87  JSR  $875E
 A61D  20 2A A1  JSR  $A12A
 A620  60        RTS  
 A621  20 4C DB  JSR  $DB4C
 A624  20 15 98  JSR  $9815
 A627  20 40 95  JSR  $9540
 A62A  20 EC A2  JSR  $A2EC
 A62D  20 40 95  JSR  $9540
 A630  20 14 9A  JSR  $9A14
 A633  20 EE A4  JSR  $A4EE
 A636  60        RTS  
 A637  20 42 DB  JSR  $DB42
 A63A  A4 0C     LDY  $0C
 A63C  C4 0A     CPY  $0A
 A63E  F0 09     BEQ  $A649
 A640  B1 08     LDA  ($08), Y
 A642  D5 00     CMP  $00, X
 A644  D0 03     BNE  $A649
 A646  C8        INY  
 A647  80 F3     BRA  $A63C
 A649  84 0C     STY  $0C
 A64B  20 BC 98  JSR  $98BC
 A64E  B5 00     LDA  $00, X
 A650  92 00     STA  ($00)
 A652  48        PHA  
 A653  20 9F 8D  JSR  $8D9F
 A656  A5 00     LDA  $00
 A658  18        CLC  
 A659  69 01     ADC  #$01
 A65B  95 02     STA  $02, X
 A65D  A5 01     LDA  $01
 A65F  69 00     ADC  #$00
 A661  95 03     STA  $03, X
 A663  20 B2 95  JSR  $95B2
 A666  CA        DEX  
 A667  CA        DEX  
 A668  A5 00     LDA  $00
 A66A  95 00     STA  $00, X
 A66C  A5 01     LDA  $01
 A66E  95 01     STA  $01, X
 A670  68        PLA  
 A671  18        CLC  
 A672  65 00     ADC  $00
 A674  85 00     STA  $00
 A676  A5 01     LDA  $01
 A678  69 00     ADC  #$00
 A67A  85 01     STA  $01
 A67C  60        RTS  
 A67D  A0 05     LDY  #$05
 A67F  B1 1E     LDA  ($1E), Y
 A681  C9 0C     CMP  #$0C
 A683  D0 05     BNE  $A68A
 A685  A9 0B     LDA  #$0B
 A687  4C 58 DB  JMP  $DB58
 A68A  1A        INC  
 A68B  91 1E     STA  ($1E), Y
 A68D  CA        DEX  
 A68E  CA        DEX  
 A68F  95 00     STA  $00, X
 A691  74 01     STZ  $01, X
 A693  60        RTS  
 A694  20 53 89  JSR  $8953
 A697  A9 00     LDA  #$00
 A699  48        PHA  
 A69A  CA        DEX  
 A69B  CA        DEX  
 A69C  64 28     STZ  $28
 A69E  A0 1E     LDY  #$1E
 A6A0  A5 28     LDA  $28
 A6A2  D1 1E     CMP  ($1E), Y
 A6A4  D0 02     BNE  $A6A8
 A6A6  80 44     BRA  $A6EC
 A6A8  18        CLC  
 A6A9  69 1F     ADC  #$1F
 A6AB  A8        TAY  
 A6AC  B1 1E     LDA  ($1E), Y
 A6AE  0A        ASL  
 A6AF  18        CLC  
 A6B0  69 06     ADC  #$06
 A6B2  A8        TAY  
 A6B3  B1 1E     LDA  ($1E), Y
 A6B5  95 00     STA  $00, X
 A6B7  C8        INY  
 A6B8  B1 1E     LDA  ($1E), Y
 A6BA  95 01     STA  $01, X
 A6BC  20 9F 8D  JSR  $8D9F
 A6BF  20 EE 95  JSR  $95EE
 A6C2  68        PLA  
 A6C3  18        CLC  
 A6C4  75 00     ADC  $00, X
 A6C6  1A        INC  
 A6C7  C9 4F     CMP  #$4F
 A6C9  90 05     BCC  $A6D0
 A6CB  20 53 89  JSR  $8953
 A6CE  A9 00     LDA  #$00
 A6D0  48        PHA  
 A6D1  20 7F A4  JSR  $A47F
 A6D4  A9 20     LDA  #$20
 A6D6  20 E6 8D  JSR  $8DE6
 A6D9  20 9F 97  JSR  $979F
 A6DC  20 9F 97  JSR  $979F
 A6DF  20 70 8F  JSR  $8F70
 A6E2  B5 00     LDA  $00, X
 A6E4  15 01     ORA  $01, X
 A6E6  D0 D4     BNE  $A6BC
 A6E8  E6 28     INC  $28
 A6EA  80 B2     BRA  $A69E
 A6EC  68        PLA  
 A6ED  E8        INX  
 A6EE  E8        INX  
 A6EF  60        RTS  
 A6F0  20 42 DB  JSR  $DB42
 A6F3  B5 00     LDA  $00, X
 A6F5  85 24     STA  $24
 A6F7  B5 01     LDA  $01, X
 A6F9  85 25     STA  $25
 A6FB  A0 06     LDY  #$06
 A6FD  B1 24     LDA  ($24), Y
 A6FF  88        DEY  
 A700  88        DEY  
 A701  38        SEC  
 A702  F1 24     SBC  ($24), Y
 A704  95 00     STA  $00, X
 A706  A0 07     LDY  #$07
 A708  B1 24     LDA  ($24), Y
 A70A  88        DEY  
 A70B  88        DEY  
 A70C  F1 24     SBC  ($24), Y
 A70E  95 01     STA  $01, X
 A710  60        RTS  
 A711  20 47 DB  JSR  $DB47
 A714  B5 00     LDA  $00, X
 A716  55 02     EOR  $02, X
 A718  95 02     STA  $02, X
 A71A  B5 01     LDA  $01, X
 A71C  55 03     EOR  $03, X
 A71E  95 03     STA  $03, X
 A720  E8        INX  
 A721  E8        INX  
 A722  60        RTS  
 A723  CA        DEX  
 A724  CA        DEX  
 A725  74 00     STZ  $00, X
 A727  74 01     STZ  $01, X
 A729  60        RTS  
 A72A  20 42 DB  JSR  $DB42
 A72D  B5 00     LDA  $00, X
 A72F  15 01     ORA  $01, X
 A731  F0 04     BEQ  $A737
 A733  A9 00     LDA  #$00
 A735  80 02     BRA  $A739
 A737  A9 FF     LDA  #$FF
 A739  95 00     STA  $00, X
 A73B  95 01     STA  $01, X
 A73D  60        RTS  
 A73E  20 42 DB  JSR  $DB42
 A741  A0 00     LDY  #$00
 A743  B5 01     LDA  $01, X
 A745  30 05     BMI  $A74C
 A747  15 00     ORA  $00, X
 A749  F0 01     BEQ  $A74C
 A74B  88        DEY  
 A74C  98        TYA  
 A74D  95 00     STA  $00, X
 A74F  95 01     STA  $01, X
 A751  60        RTS  
 A752  20 42 DB  JSR  $DB42
 A755  A0 00     LDY  #$00
 A757  B5 01     LDA  $01, X
 A759  10 01     BPL  $A75C
 A75B  88        DEY  
 A75C  98        TYA  
 A75D  95 00     STA  $00, X
 A75F  95 01     STA  $01, X
 A761  60        RTS  
 A762  20 42 DB  JSR  $DB42
 A765  A0 00     LDY  #$00
 A767  B5 00     LDA  $00, X
 A769  15 01     ORA  $01, X
 A76B  F0 01     BEQ  $A76E
 A76D  88        DEY  
 A76E  98        TYA  
 A76F  95 00     STA  $00, X
 A771  95 01     STA  $01, X
 A773  60        RTS  
 A774  20 9F 8D  JSR  $8D9F
 A777  20 5B 9E  JSR  $9E5B
 A77A  20 09 A1  JSR  $A109
 A77D  20 A5 85  JSR  $85A5
 A780  60        RTS  
 A781  20 74 A7  JSR  $A774
 A784  20 1E 8D  JSR  $8D1E
 A787  64 2E     STZ  $2E
 A789  CA        DEX  
 A78A  CA        DEX  
 A78B  A5 2E     LDA  $2E
 A78D  95 00     STA  $00, X
 A78F  74 01     STZ  $01, X
 A791  20 56 A8  JSR  $A856
 A794  E6 2E     INC  $2E
 A796  A9 10     LDA  #$10
 A798  C5 2E     CMP  $2E
 A79A  D0 ED     BNE  $A789
 A79C  60        RTS  
 A79D  20 74 A7  JSR  $A774
 A7A0  CA        DEX  
 A7A1  CA        DEX  
 A7A2  74 00     STZ  $00, X
 A7A4  A9 04     LDA  #$04
 A7A6  95 01     STA  $01, X
 A7A8  20 DA 8E  JSR  $8EDA
 A7AB  20 E0 A5  JSR  $A5E0
 A7AE  60        RTS  
 A7AF  20 3D A8  JSR  $A83D
 A7B2  CA        DEX  
 A7B3  CA        DEX  
 A7B4  A9 40     LDA  #$40
 A7B6  95 00     STA  $00, X
 A7B8  74 01     STZ  $01, X
 A7BA  20 DA 8E  JSR  $8EDA
 A7BD  20 E0 A5  JSR  $A5E0
 A7C0  60        RTS  
 A7C1  CA        DEX  
 A7C2  CA        DEX  
 A7C3  A0 02     LDY  #$02
 A7C5  B1 1E     LDA  ($1E), Y
 A7C7  95 00     STA  $00, X
 A7C9  C8        INY  
 A7CA  B1 1E     LDA  ($1E), Y
 A7CC  95 01     STA  $01, X
 A7CE  20 B1 83  JSR  $83B1
 A7D1  20 53 89  JSR  $8953
 A7D4  80 08     BRA  $A7DE
 A7D6  53 63 72 65 65 6E 20 23                          |Screen #        |
 A7DE  20 2B A0  JSR  $A02B
 A7E1  D6 A7 08 00                                      |....            |
 A7E5  20 7F A4  JSR  $A47F
 A7E8  20 5B 9E  JSR  $9E5B
 A7EB  20 70 8F  JSR  $8F70
 A7EE  CA        DEX  
 A7EF  CA        DEX  
 A7F0  A9 04     LDA  #$04
 A7F2  95 00     STA  $00, X
 A7F4  74 01     STZ  $01, X
 A7F6  20 B6 A4  JSR  $A4B6
 A7F9  64 28     STZ  $28
 A7FB  20 53 89  JSR  $8953
 A7FE  CA        DEX  
 A7FF  CA        DEX  
 A800  CA        DEX  
 A801  CA        DEX  
 A802  74 03     STZ  $03, X
 A804  A5 28     LDA  $28
 A806  95 02     STA  $02, X
 A808  74 01     STZ  $01, X
 A80A  A9 02     LDA  #$02
 A80C  95 00     STA  $00, X
 A80E  20 B6 A4  JSR  $A4B6
 A811  20 A0 A0  JSR  $A0A0
 A814  20 9F 8D  JSR  $8D9F
 A817  CA        DEX  
 A818  CA        DEX  
 A819  A9 40     LDA  #$40
 A81B  95 00     STA  $00, X
 A81D  74 01     STZ  $01, X
 A81F  20 7F A4  JSR  $A47F
 A822  18        CLC  
 A823  A9 40     LDA  #$40
 A825  75 00     ADC  $00, X
 A827  95 00     STA  $00, X
 A829  B5 01     LDA  $01, X
 A82B  69 00     ADC  #$00
 A82D  95 01     STA  $01, X
 A82F  E6 28     INC  $28
 A831  A5 28     LDA  $28
 A833  C9 10     CMP  #$10
 A835  D0 C4     BNE  $A7FB
 A837  20 53 89  JSR  $8953
 A83A  E8        INX  
 A83B  E8        INX  
 A83C  60        RTS  
 A83D  20 42 DB  JSR  $DB42
 A840  A0 06     LDY  #$06
 A842  16 00     ASL  $00, X
 A844  36 01     ROL  $01, X
 A846  88        DEY  
 A847  D0 F9     BNE  $A842
 A849  20 5B 9E  JSR  $9E5B
 A84C  20 70 8F  JSR  $8F70
 A84F  20 B1 83  JSR  $83B1
 A852  20 65 99  JSR  $9965
 A855  60        RTS  
 A856  20 53 89  JSR  $8953
 A859  20 9F 8D  JSR  $8D9F
 A85C  20 23 A3  JSR  $A323
 A85F  20 B6 A4  JSR  $A4B6
 A862  20 A0 A0  JSR  $A0A0
 A865  A9 2A     LDA  #$2A
 A867  20 E6 8D  JSR  $8DE6
 A86A  20 A0 A0  JSR  $A0A0
 A86D  20 3D A8  JSR  $A83D
 A870  20 9F 8D  JSR  $8D9F
 A873  CA        DEX  
 A874  CA        DEX  
 A875  A9 40     LDA  #$40
 A877  95 00     STA  $00, X
 A879  74 01     STZ  $01, X
 A87B  20 4E 81  JSR  $814E
 A87E  20 9F 8D  JSR  $8D9F
 A881  20 5E 96  JSR  $965E
 A884  20 65 99  JSR  $9965
 A887  CA        DEX  
 A888  CA        DEX  
 A889  A9 40     LDA  #$40
 A88B  95 00     STA  $00, X
 A88D  74 01     STZ  $01, X
 A88F  20 D9 9A  JSR  $9AD9
 A892  20 40 95  JSR  $9540
 A895  20 DA 8E  JSR  $8EDA
 A898  20 E0 A5  JSR  $A5E0
 A89B  60        RTS  
 A89C  20 42 DB  JSR  $DB42
 A89F  B5 00     LDA  $00, X
 A8A1  20 21 E4  JSR  $E421
 A8A4  60        RTS  
 A8A5  20 47 DB  JSR  $DB47
 A8A8  B5 02     LDA  $02, X
 A8AA  85 24     STA  $24
 A8AC  B5 03     LDA  $03, X
 A8AE  85 25     STA  $25
 A8B0  B5 00     LDA  $00, X
 A8B2  15 01     ORA  $01, X
 A8B4  F0 15     BEQ  $A8CB
 A8B6  B2 24     LDA  ($24)
 A8B8  20 21 E4  JSR  $E421
 A8BB  E6 24     INC  $24
 A8BD  D0 02     BNE  $A8C1
 A8BF  E6 25     INC  $25
 A8C1  B5 00     LDA  $00, X
 A8C3  D0 02     BNE  $A8C7
 A8C5  D6 01     DEC  $01, X
 A8C7  D6 00     DEC  $00, X
 A8C9  80 E5     BRA  $A8B0
 A8CB  E8        INX  
 A8CC  E8        INX  
 A8CD  E8        INX  
 A8CE  E8        INX  
 A8CF  60        RTS  
 A8D0  20 C3 E5  JSR  $E5C3
 A8D3  60        RTS  
 A8D4  A9 69     LDA  #$69
 A8D6  4C 2F AC  JMP  $AC2F
 A8D9  A9 7D     LDA  #$7D
 A8DB  4C 2F AC  JMP  $AC2F
 A8DE  A9 79     LDA  #$79
 A8E0  4C 2F AC  JMP  $AC2F
 A8E3  A9 65     LDA  #$65
 A8E5  4C 2F AC  JMP  $AC2F
 A8E8  A9 72     LDA  #$72
 A8EA  4C 2F AC  JMP  $AC2F
 A8ED  A9 71     LDA  #$71
 A8EF  4C 2F AC  JMP  $AC2F
 A8F2  A9 75     LDA  #$75
 A8F4  4C 2F AC  JMP  $AC2F
 A8F7  A9 61     LDA  #$61
 A8F9  4C 2F AC  JMP  $AC2F
 A8FC  A9 2D     LDA  #$2D
 A8FE  4C 2F AC  JMP  $AC2F
 A901  A9 29     LDA  #$29
 A903  4C 2F AC  JMP  $AC2F
 A906  A9 3D     LDA  #$3D
 A908  4C 2F AC  JMP  $AC2F
 A90B  A9 39     LDA  #$39
 A90D  4C 2F AC  JMP  $AC2F
 A910  A9 25     LDA  #$25
 A912  4C 2F AC  JMP  $AC2F
 A915  A9 32     LDA  #$32
 A917  4C 2F AC  JMP  $AC2F
 A91A  A9 31     LDA  #$31
 A91C  4C 2F AC  JMP  $AC2F
 A91F  A9 35     LDA  #$35
 A921  4C 2F AC  JMP  $AC2F
 A924  A9 21     LDA  #$21
 A926  4C 2F AC  JMP  $AC2F
 A929  A9 0E     LDA  #$0E
 A92B  4C 2F AC  JMP  $AC2F
 A92E  A9 0A     LDA  #$0A
 A930  4C 2F AC  JMP  $AC2F
 A933  A9 1E     LDA  #$1E
 A935  4C 2F AC  JMP  $AC2F
 A938  A9 06     LDA  #$06
 A93A  4C 2F AC  JMP  $AC2F
 A93D  A9 16     LDA  #$16
 A93F  4C 2F AC  JMP  $AC2F
 A942  A9 90     LDA  #$90
 A944  4C 2F AC  JMP  $AC2F
 A947  A9 B0     LDA  #$B0
 A949  A0 02     LDY  #$02
 A94B  4C 2F AC  JMP  $AC2F
 A94E  A9 F0     LDA  #$F0
 A950  4C 2F AC  JMP  $AC2F
 A953  A9 2C     LDA  #$2C
 A955  4C 2F AC  JMP  $AC2F
 A958  A9 89     LDA  #$89
 A95A  4C 2F AC  JMP  $AC2F
 A95D  A9 3C     LDA  #$3C
 A95F  4C 2F AC  JMP  $AC2F
 A962  A9 24     LDA  #$24
 A964  4C 2F AC  JMP  $AC2F
 A967  A9 34     LDA  #$34
 A969  4C 2F AC  JMP  $AC2F
 A96C  A9 30     LDA  #$30
 A96E  4C 2F AC  JMP  $AC2F
 A971  A9 D0     LDA  #$D0
 A973  4C 2F AC  JMP  $AC2F
 A976  A9 10     LDA  #$10
 A978  4C 2F AC  JMP  $AC2F
 A97B  A9 80     LDA  #$80
 A97D  4C 2F AC  JMP  $AC2F
 A980  A9 00     LDA  #$00
 A982  4C 2F AC  JMP  $AC2F
 A985  A9 50     LDA  #$50
 A987  4C 2F AC  JMP  $AC2F
 A98A  A9 70     LDA  #$70
 A98C  4C 2F AC  JMP  $AC2F
 A98F  A9 18     LDA  #$18
 A991  4C 2F AC  JMP  $AC2F
 A994  A9 D8     LDA  #$D8
 A996  4C 2F AC  JMP  $AC2F
 A999  A9 58     LDA  #$58
 A99B  4C 2F AC  JMP  $AC2F
 A99E  A9 B8     LDA  #$B8
 A9A0  4C 2F AC  JMP  $AC2F
 A9A3  A9 CD     LDA  #$CD
 A9A5  4C 2F AC  JMP  $AC2F
 A9A8  A9 C9     LDA  #$C9
 A9AA  4C 2F AC  JMP  $AC2F
 A9AD  A9 DD     LDA  #$DD
 A9AF  4C 2F AC  JMP  $AC2F
 A9B2  A9 D9     LDA  #$D9
 A9B4  4C 2F AC  JMP  $AC2F
 A9B7  A9 C5     LDA  #$C5
 A9B9  4C 2F AC  JMP  $AC2F
 A9BC  A9 D2     LDA  #$D2
 A9BE  4C 2F AC  JMP  $AC2F
 A9C1  A9 D1     LDA  #$D1
 A9C3  4C 2F AC  JMP  $AC2F
 A9C6  A9 D5     LDA  #$D5
 A9C8  4C 2F AC  JMP  $AC2F
 A9CB  A9 C1     LDA  #$C1
 A9CD  4C 2F AC  JMP  $AC2F
 A9D0  A9 EC     LDA  #$EC
 A9D2  4C 2F AC  JMP  $AC2F
 A9D5  A9 E0     LDA  #$E0
 A9D7  4C 2F AC  JMP  $AC2F
 A9DA  A9 E4     LDA  #$E4
 A9DC  4C 2F AC  JMP  $AC2F
 A9DF  A9 CC     LDA  #$CC
 A9E1  A0 03     LDY  #$03
 A9E3  4C 2F AC  JMP  $AC2F
 A9E6  A9 C0     LDA  #$C0
 A9E8  4C 2F AC  JMP  $AC2F
 A9EB  A9 C4     LDA  #$C4
 A9ED  4C 2F AC  JMP  $AC2F
 A9F0  A9 CE     LDA  #$CE
 A9F2  4C 2F AC  JMP  $AC2F
 A9F5  A9 3A     LDA  #$3A
 A9F7  4C 2F AC  JMP  $AC2F
 A9FA  A9 DE     LDA  #$DE
 A9FC  4C 2F AC  JMP  $AC2F
 A9FF  A9 C6     LDA  #$C6
 AA01  4C 2F AC  JMP  $AC2F
 AA04  A9 D6     LDA  #$D6
 AA06  4C 2F AC  JMP  $AC2F
 AA09  A9 CA     LDA  #$CA
 AA0B  4C 2F AC  JMP  $AC2F
 AA0E  A9 88     LDA  #$88
 AA10  4C 2F AC  JMP  $AC2F
 AA13  A9 4D     LDA  #$4D
 AA15  4C 2F AC  JMP  $AC2F
 AA18  A9 49     LDA  #$49
 AA1A  4C 2F AC  JMP  $AC2F
 AA1D  A9 5D     LDA  #$5D
 AA1F  4C 2F AC  JMP  $AC2F
 AA22  A9 59     LDA  #$59
 AA24  4C 2F AC  JMP  $AC2F
 AA27  A9 45     LDA  #$45
 AA29  4C 2F AC  JMP  $AC2F
 AA2C  A9 52     LDA  #$52
 AA2E  4C 2F AC  JMP  $AC2F
 AA31  A9 51     LDA  #$51
 AA33  4C 2F AC  JMP  $AC2F
 AA36  A9 55     LDA  #$55
 AA38  4C 2F AC  JMP  $AC2F
 AA3B  A9 41     LDA  #$41
 AA3D  4C 2F AC  JMP  $AC2F
 AA40  A9 EE     LDA  #$EE
 AA42  4C 2F AC  JMP  $AC2F
 AA45  A9 1A     LDA  #$1A
 AA47  4C 2F AC  JMP  $AC2F
 AA4A  A9 FE     LDA  #$FE
 AA4C  4C 2F AC  JMP  $AC2F
 AA4F  A9 E6     LDA  #$E6
 AA51  4C 2F AC  JMP  $AC2F
 AA54  A9 F6     LDA  #$F6
 AA56  4C 2F AC  JMP  $AC2F
 AA59  A9 E8     LDA  #$E8
 AA5B  4C 2F AC  JMP  $AC2F
 AA5E  A9 C8     LDA  #$C8
 AA60  4C 2F AC  JMP  $AC2F
 AA63  A9 4C     LDA  #$4C
 AA65  4C 2F AC  JMP  $AC2F
 AA68  A9 6C     LDA  #$6C
 AA6A  4C 2F AC  JMP  $AC2F
 AA6D  A9 7C     LDA  #$7C
 AA6F  4C 2F AC  JMP  $AC2F
 AA72  A9 20     LDA  #$20
 AA74  4C 2F AC  JMP  $AC2F
 AA77  A9 AD     LDA  #$AD
 AA79  4C 2F AC  JMP  $AC2F
 AA7C  A9 A9     LDA  #$A9
 AA7E  4C 2F AC  JMP  $AC2F
 AA81  A9 BD     LDA  #$BD
 AA83  4C 2F AC  JMP  $AC2F
 AA86  A9 B9     LDA  #$B9
 AA88  4C 2F AC  JMP  $AC2F
 AA8B  A9 A5     LDA  #$A5
 AA8D  4C 2F AC  JMP  $AC2F
 AA90  A9 B2     LDA  #$B2
 AA92  4C 2F AC  JMP  $AC2F
 AA95  A9 B1     LDA  #$B1
 AA97  4C 2F AC  JMP  $AC2F
 AA9A  A9 B5     LDA  #$B5
 AA9C  4C 2F AC  JMP  $AC2F
 AA9F  A9 A1     LDA  #$A1
 AAA1  4C 2F AC  JMP  $AC2F
 AAA4  A9 AE     LDA  #$AE
 AAA6  4C 2F AC  JMP  $AC2F
 AAA9  A9 A2     LDA  #$A2
 AAAB  4C 2F AC  JMP  $AC2F
 AAAE  A9 BE     LDA  #$BE
 AAB0  4C 2F AC  JMP  $AC2F
 AAB3  A9 A6     LDA  #$A6
 AAB5  4C 2F AC  JMP  $AC2F
 AAB8  A9 B6     LDA  #$B6
 AABA  4C 2F AC  JMP  $AC2F
 AABD  A9 AC     LDA  #$AC
 AABF  4C 2F AC  JMP  $AC2F
 AAC2  A9 A0     LDA  #$A0
 AAC4  4C 2F AC  JMP  $AC2F
 AAC7  A9 BC     LDA  #$BC
 AAC9  4C 2F AC  JMP  $AC2F
 AACC  A9 A4     LDA  #$A4
 AACE  4C 2F AC  JMP  $AC2F
 AAD1  A9 B4     LDA  #$B4
 AAD3  4C 2F AC  JMP  $AC2F
 AAD6  A9 4E     LDA  #$4E
 AAD8  4C 2F AC  JMP  $AC2F
 AADB  A9 4A     LDA  #$4A
 AADD  4C 2F AC  JMP  $AC2F
 AAE0  A9 5E     LDA  #$5E
 AAE2  4C 2F AC  JMP  $AC2F
 AAE5  A9 46     LDA  #$46
 AAE7  4C 2F AC  JMP  $AC2F
 AAEA  A9 56     LDA  #$56
 AAEC  4C 2F AC  JMP  $AC2F
 AAEF  A9 EA     LDA  #$EA
 AAF1  4C 2F AC  JMP  $AC2F
 AAF4  A9 0D     LDA  #$0D
 AAF6  4C 2F AC  JMP  $AC2F
 AAF9  A9 09     LDA  #$09
 AAFB  4C 2F AC  JMP  $AC2F
 AAFE  A9 1D     LDA  #$1D
 AB00  4C 2F AC  JMP  $AC2F
 AB03  A9 19     LDA  #$19
 AB05  4C 2F AC  JMP  $AC2F
 AB08  A9 05     LDA  #$05
 AB0A  4C 2F AC  JMP  $AC2F
 AB0D  A9 12     LDA  #$12
 AB0F  A0 02     LDY  #$02
 AB11  4C 2F AC  JMP  $AC2F
 AB14  A9 11     LDA  #$11
 AB16  4C 2F AC  JMP  $AC2F
 AB19  A9 15     LDA  #$15
 AB1B  4C 2F AC  JMP  $AC2F
 AB1E  A9 01     LDA  #$01
 AB20  4C 2F AC  JMP  $AC2F
 AB23  A9 48     LDA  #$48
 AB25  4C 2F AC  JMP  $AC2F
 AB28  A9 08     LDA  #$08
 AB2A  4C 2F AC  JMP  $AC2F
 AB2D  A9 DA     LDA  #$DA
 AB2F  4C 2F AC  JMP  $AC2F
 AB32  A9 5A     LDA  #$5A
 AB34  4C 2F AC  JMP  $AC2F
 AB37  A9 68     LDA  #$68
 AB39  4C 2F AC  JMP  $AC2F
 AB3C  A9 28     LDA  #$28
 AB3E  4C 2F AC  JMP  $AC2F
 AB41  A9 FA     LDA  #$FA
 AB43  4C 2F AC  JMP  $AC2F
 AB46  A9 7A     LDA  #$7A
 AB48  4C 2F AC  JMP  $AC2F
 AB4B  A9 2E     LDA  #$2E
 AB4D  4C 2F AC  JMP  $AC2F
 AB50  A9 2A     LDA  #$2A
 AB52  4C 2F AC  JMP  $AC2F
 AB55  A9 3E     LDA  #$3E
 AB57  4C 2F AC  JMP  $AC2F
 AB5A  A9 26     LDA  #$26
 AB5C  4C 2F AC  JMP  $AC2F
 AB5F  A9 36     LDA  #$36
 AB61  4C 2F AC  JMP  $AC2F
 AB64  A9 6E     LDA  #$6E
 AB66  4C 2F AC  JMP  $AC2F
 AB69  A9 6A     LDA  #$6A
 AB6B  4C 2F AC  JMP  $AC2F
 AB6E  A9 7E     LDA  #$7E
 AB70  4C 2F AC  JMP  $AC2F
 AB73  A9 66     LDA  #$66
 AB75  4C 2F AC  JMP  $AC2F
 AB78  A9 76     LDA  #$76
 AB7A  4C 2F AC  JMP  $AC2F
 AB7D  A9 40     LDA  #$40
 AB7F  4C 2F AC  JMP  $AC2F
 AB82  A9 60     LDA  #$60
 AB84  4C 2F AC  JMP  $AC2F
 AB87  A9 ED     LDA  #$ED
 AB89  4C 2F AC  JMP  $AC2F
 AB8C  A9 E9     LDA  #$E9
 AB8E  4C 2F AC  JMP  $AC2F
 AB91  A9 FD     LDA  #$FD
 AB93  4C 2F AC  JMP  $AC2F
 AB96  A9 F9     LDA  #$F9
 AB98  4C 2F AC  JMP  $AC2F
 AB9B  A9 E5     LDA  #$E5
 AB9D  4C 2F AC  JMP  $AC2F
 ABA0  A9 F2     LDA  #$F2
 ABA2  4C 2F AC  JMP  $AC2F
 ABA5  A9 F1     LDA  #$F1
 ABA7  4C 2F AC  JMP  $AC2F
 ABAA  A9 F5     LDA  #$F5
 ABAC  4C 2F AC  JMP  $AC2F
 ABAF  A9 E1     LDA  #$E1
 ABB1  80 7C     BRA  $AC2F
 ABB3  A9 38     LDA  #$38
 ABB5  80 78     BRA  $AC2F
 ABB7  A9 F8     LDA  #$F8
 ABB9  80 74     BRA  $AC2F
 ABBB  A9 78     LDA  #$78
 ABBD  80 70     BRA  $AC2F
 ABBF  A9 8D     LDA  #$8D
 ABC1  80 6C     BRA  $AC2F
 ABC3  A9 9D     LDA  #$9D
 ABC5  80 68     BRA  $AC2F
 ABC7  A9 99     LDA  #$99
 ABC9  80 64     BRA  $AC2F
 ABCB  A9 85     LDA  #$85
 ABCD  80 60     BRA  $AC2F
 ABCF  A9 92     LDA  #$92
 ABD1  80 5C     BRA  $AC2F
 ABD3  A9 91     LDA  #$91
 ABD5  80 58     BRA  $AC2F
 ABD7  A9 95     LDA  #$95
 ABD9  80 54     BRA  $AC2F
 ABDB  A9 81     LDA  #$81
 ABDD  80 50     BRA  $AC2F
 ABDF  A9 8E     LDA  #$8E
 ABE1  80 4C     BRA  $AC2F
 ABE3  A9 86     LDA  #$86
 ABE5  80 48     BRA  $AC2F
 ABE7  A9 96     LDA  #$96
 ABE9  80 44     BRA  $AC2F
 ABEB  A9 8C     LDA  #$8C
 ABED  80 40     BRA  $AC2F
 ABEF  A9 84     LDA  #$84
 ABF1  80 3C     BRA  $AC2F
 ABF3  A9 94     LDA  #$94
 ABF5  80 38     BRA  $AC2F
 ABF7  A9 9C     LDA  #$9C
 ABF9  80 34     BRA  $AC2F
 ABFB  A9 9E     LDA  #$9E
 ABFD  80 30     BRA  $AC2F
 ABFF  A9 64     LDA  #$64
 AC01  80 2C     BRA  $AC2F
 AC03  A9 74     LDA  #$74
 AC05  80 28     BRA  $AC2F
 AC07  A9 AA     LDA  #$AA
 AC09  80 24     BRA  $AC2F
 AC0B  A9 A8     LDA  #$A8
 AC0D  80 20     BRA  $AC2F
 AC0F  A9 1C     LDA  #$1C
 AC11  80 1C     BRA  $AC2F
 AC13  A9 14     LDA  #$14
 AC15  80 18     BRA  $AC2F
 AC17  A9 0C     LDA  #$0C
 AC19  80 14     BRA  $AC2F
 AC1B  A9 04     LDA  #$04
 AC1D  80 10     BRA  $AC2F
 AC1F  A9 BA     LDA  #$BA
 AC21  80 0C     BRA  $AC2F
 AC23  A9 8A     LDA  #$8A
 AC25  80 08     BRA  $AC2F
 AC27  A9 9A     LDA  #$9A
 AC29  80 04     BRA  $AC2F
 AC2B  A9 98     LDA  #$98
 AC2D  80 00     BRA  $AC2F
 AC2F  A8        TAY  
 AC30  20 F5 D9  JSR  $D9F5
 AC33  A9 2E     LDA  #$2E
 AC35  85 26     STA  $26
 AC37  A9 AD     LDA  #$AD
 AC39  85 27     STA  $27
 AC3B  98        TYA  
 AC3C  0A        ASL  
 AC3D  90 02     BCC  $AC41
 AC3F  E6 27     INC  $27
 AC41  A8        TAY  
 AC42  B1 26     LDA  ($26), Y
 AC44  85 28     STA  $28
 AC46  C8        INY  
 AC47  B1 26     LDA  ($26), Y
 AC49  85 29     STA  $29
 AC4B  B2 28     LDA  ($28)
 AC4D  2A        ROL  
 AC4E  2A        ROL  
 AC4F  2A        ROL  
 AC50  29 03     AND  #$03
 AC52  A8        TAY  
 AC53  88        DEY  
 AC54  F0 12     BEQ  $AC68
 AC56  20 42 DB  JSR  $DB42
 AC59  B5 00     LDA  $00, X
 AC5B  20 F5 D9  JSR  $D9F5
 AC5E  88        DEY  
 AC5F  F0 05     BEQ  $AC66
 AC61  B5 01     LDA  $01, X
 AC63  20 F5 D9  JSR  $D9F5
 AC66  E8        INX  
 AC67  E8        INX  
 AC68  60        RTS  
 AC69  A0 00     LDY  #$00
 AC6B  B9 79 AC  LDA  $AC79, Y
 AC6E  C9 FF     CMP  #$FF
 AC70  F0 06     BEQ  $AC78
 AC72  20 F5 D9  JSR  $D9F5
 AC75  C8        INY  
 AC76  80 F3     BRA  $AC6B
 AC78  60        RTS  
 AC79  CA CA 95 00 74 01 FF                             |....t..         |
 AC80  60        RTS  
 AC81  20 62 91  JSR  $9162
 AC84  20 40 95  JSR  $9540
 AC87  3A        DEC  
 AC88  3A        DEC  
 AC89  60        RTS  
 AC8A  20 53 89  JSR  $8953
 AC8D  20 15 98  JSR  $9815
 AC90  20 AA A4  JSR  $A4AA
 AC93  20 A0 A0  JSR  $A0A0
 AC96  A9 2E     LDA  #$2E
 AC98  85 26     STA  $26
 AC9A  A9 AD     LDA  #$AD
 AC9C  85 27     STA  $27
 AC9E  A1 02     LDA  ($02, X)
 ACA0  0A        ASL  
 ACA1  90 02     BCC  $ACA5
 ACA3  E6 27     INC  $27
 ACA5  A8        TAY  
 ACA6  B1 26     LDA  ($26), Y
 ACA8  85 28     STA  $28
 ACAA  48        PHA  
 ACAB  C8        INY  
 ACAC  B1 26     LDA  ($26), Y
 ACAE  85 29     STA  $29
 ACB0  48        PHA  
 ACB1  B2 28     LDA  ($28)
 ACB3  A8        TAY  
 ACB4  10 38     BPL  $ACEE
 ACB6  20 23 A7  JSR  $A723
 ACB9  F6 04     INC  $04, X
 ACBB  D0 02     BNE  $ACBF
 ACBD  F6 05     INC  $05, X
 ACBF  B5 02     LDA  $02, X
 ACC1  D0 02     BNE  $ACC5
 ACC3  D6 03     DEC  $03, X
 ACC5  D6 02     DEC  $02, X
 ACC7  A1 04     LDA  ($04, X)
 ACC9  95 00     STA  $00, X
 ACCB  98        TYA  
 ACCC  2A        ROL  
 ACCD  10 12     BPL  $ACE1
 ACCF  F6 04     INC  $04, X
 ACD1  D0 02     BNE  $ACD5
 ACD3  F6 05     INC  $05, X
 ACD5  B5 02     LDA  $02, X
 ACD7  D0 02     BNE  $ACDB
 ACD9  D6 03     DEC  $03, X
 ACDB  D6 02     DEC  $02, X
 ACDD  A1 04     LDA  ($04, X)
 ACDF  95 01     STA  $01, X
 ACE1  CA        DEX  
 ACE2  CA        DEX  
 ACE3  A9 05     LDA  #$05
 ACE5  95 00     STA  $00, X
 ACE7  74 01     STZ  $01, X
 ACE9  20 B6 A4  JSR  $A4B6
 ACEC  80 0B     BRA  $ACF9
 ACEE  CA        DEX  
 ACEF  CA        DEX  
 ACF0  A9 05     LDA  #$05
 ACF2  95 00     STA  $00, X
 ACF4  74 01     STZ  $01, X
 ACF6  20 A6 A0  JSR  $A0A6
 ACF9  20 A0 A0  JSR  $A0A0
 ACFC  CA        DEX  
 ACFD  CA        DEX  
 ACFE  68        PLA  
 ACFF  95 01     STA  $01, X
 AD01  68        PLA  
 AD02  95 00     STA  $00, X
 AD04  20 3F 89  JSR  $893F
 AD07  74 01     STZ  $01, X
 AD09  B5 00     LDA  $00, X
 AD0B  29 07     AND  #$07
 AD0D  95 00     STA  $00, X
 AD0F  20 7F A4  JSR  $A47F
 AD12  20 53 89  JSR  $8953
 AD15  F6 02     INC  $02, X
 AD17  D0 02     BNE  $AD1B
 AD19  F6 03     INC  $03, X
 AD1B  20 93 97  JSR  $9793
 AD1E  B5 00     LDA  $00, X
 AD20  15 01     ORA  $01, X
 AD22  F0 07     BEQ  $AD2B
 AD24  B5 01     LDA  $01, X
 AD26  30 03     BMI  $AD2B
 AD28  4C 8D AC  JMP  $AC8D
 AD2B  4C 2C A3  JMP  $A32C
 AD2E  2E AF 32 AF C6 B3 C6 B3 3A AF 40 AF 46 AF C6 B3  |..2.....:.@.F...|
 AD3E  4C AF 50 AF 56 AF C6 B3 5C AF 60 AF 64 AF 68 AF  |L.P.V...\.`.d.h.|
 AD4E  6D AF 71 AF 79 AF C6 B3 80 AF 86 AF 8D AF 94 AF  |m.q.y...........|
 AD5E  9B AF 9F AF A5 AF C6 B3 AB AF AF AF C6 B3 B5 AF  |................|
 AD6E  BB AF BF AF C6 B3 C6 B3 C7 AF CD AF D3 AF D9 AF  |................|
 AD7E  E0 AF E4 AF EA AF C6 B3 F0 AF F4 AF F9 AF FD AF  |................|
 AD8E  02 B0 06 B0 0E B0 C6 B3 15 B0 1D B0 24 B0 2B B0  |............$.+.|
 AD9E  32 B0 36 B0 3C B0 C6 B3 42 B0 48 B0 4E B0 68 AF  |2.6.<...B.H.N.h.|
 ADAE  59 B0 5D B0 C6 B3 C6 B3 C6 B3 65 B0 6B B0 71 B0  |Y.].......e.k.q.|
 ADBE  78 B0 7C B0 82 B0 C6 B3 88 B0 8C B0 90 B0 94 B0  |x.|.............|
 ADCE  99 B0 9D B0 A5 B0 C6 B3 C6 B3 AC B0 B3 B0 BA B0  |................|
 ADDE  C1 B0 C5 B0 CB B0 C6 B3 C6 B3 C6 B3 D5 B0 DB B0  |................|
 ADEE  E0 B0 E4 B0 C6 B3 C6 B3 EC B0 F2 B0 F8 B0 FE B0  |................|
 ADFE  05 B1 09 B1 0F B1 C6 B3 15 B1 1B B1 1F B1 23 B1  |..............#.|
 AE0E  28 B1 2C B1 34 B1 C6 B3 3B B1 42 B1 49 B1 50 B1  |(.,.4...;.B.I.P.|
 AE1E  57 B1 5B B1 61 B1 C6 B3 65 B1 6C B1 72 B1 78 B1  |W.[.a...e.l.r.x.|
 AE2E  7D B1 81 B1 C6 B3 C6 B3 89 B1 8F B1 95 B1 C6 B3  |}...............|
 AE3E  9B B1 9F B1 A5 B1 C6 B3 A9 B1 AD B1 B1 B1 B5 B1  |................|
 AE4E  BA B1 BE B1 C6 B1 C6 B3 CD B1 D4 B1 DB B1 E2 B1  |................|
 AE5E  E9 B1 ED B1 F3 B1 C6 B3 F7 B1 FB B1 01 B2 07 B2  |................|
 AE6E  0C B2 12 B2 1A B2 C6 B3 20 B2 26 B2 2C B2 32 B2  |........ .&.,.2.|
 AE7E  39 B2 3D B2 43 B2 C6 B3 47 B2 4B B2 4F B2 53 B2  |9.=.C...G.K.O.S.|
 AE8E  58 B2 5C B2 64 B2 C6 B3 6B B2 72 B2 79 B2 80 B2  |X.\.d...k.r.y...|
 AE9E  87 B2 8B B2 91 B2 C6 B3 95 B2 9B B2 A1 B2 A7 B2  |................|
 AEAE  AC B2 B2 B2 C6 B3 C6 B3 BA B2 C0 B2 C6 B2 CC B2  |................|
 AEBE  D3 B2 D7 B2 DD B2 C6 B3 E1 B2 E5 B2 E9 B2 ED B2  |................|
 AECE  F2 B2 F6 B2 FE B2 C6 B3 C6 B3 05 B3 0C B3 13 B3  |................|
 AEDE  1A B3 1E B3 24 B3 C6 B3 C6 B3 28 B3 2E B3 34 B3  |....$.....(...4.|
 AEEE  39 B3 3F B3 C6 B3 C6 B3 47 B3 4D B3 53 B3 59 B3  |9.?.....G.M.S.Y.|
 AEFE  60 B3 64 B3 6A B3 C6 B3 6E B3 72 B3 76 B3 7A B3  |`.d.j...n.r.v.z.|
 AF0E  7F B3 83 B3 8B B3 C6 B3 C6 B3 92 B3 99 B3 A0 B3  |................|
 AF1E  A7 B3 AB B3 B1 B3 C6 B3 C6 B3 B5 B3 BB B3 C1 B3  |................|
 AF2E  83 62 72 6B 87 6F 72 61 2E 7A 78 69 85 74 73 62  |.brk.ora.zxi.tsb|
 AF3E  2E 7A 85 6F 72 64 2E 7A 85 61 73 6C 2E 7A 43 70  |.z.ord.z.asl.zCp|
 AF4E  68 70 85 6F 72 61 2E 23 45 61 73 6C 2E 61 C3 74  |hp.ora.#Easl.a.t|
 AF5E  73 62 C3 6F 72 61 C3 61 73 6C C4 62 62 72 30 83  |sb.ora.asl.bbr0.|
 AF6E  62 70 6C 87 6F 72 61 2E 7A 69 79 86 6F 72 61 2E  |bpl.ora.ziy.ora.|
 AF7E  7A 69 85 74 72 62 2E 7A 86 6F 72 61 2E 7A 78 86  |zi.trb.z.ora.zx.|
 AF8E  61 73 6C 2E 7A 78 86 72 6D 62 31 2E 7A 43 63 6C  |asl.zx.rmb1.zCcl|
 AF9E  63 C5 6F 72 61 2E 79 45 69 6E 63 2E 61 C3 74 72  |c.ora.yEinc.a.tr|
 AFAE  62 C5 6F 72 61 2E 78 C5 61 73 6C 2E 78 C3 6A 73  |b.ora.x.asl.x.js|
 AFBE  72 87 61 6E 64 2E 7A 78 69 85 62 69 74 2E 7A 85  |r.and.zxi.bit.z.|
 AFCE  61 6E 64 2E 7A 85 72 6F 6C 2E 7A 86 72 6D 62 32  |and.z.rol.z.rmb2|
 AFDE  2E 7A 43 70 6C 70 85 61 6E 64 2E 23 45 72 6F 6C  |.zCplp.and.#Erol|
 AFEE  2E 61 C3 62 69 74 C4 61 6E 64 2E C3 72 6F 6C C4  |.a.bit.and..rol.|
 AFFE  62 62 72 32 83 62 6D 69 87 61 6E 64 2E 7A 69 79  |bbr2.bmi.and.ziy|
 B00E  86 61 6E 64 2E 7A 69 87 62 69 74 2E 7A 78 69 86  |.and.zi.bit.zxi.|
 B01E  61 6E 64 2E 7A 78 86 72 6F 6C 2E 7A 78 86 72 6D  |and.zx.rol.zx.rm|
 B02E  62 33 2E 7A 43 73 65 63 C5 61 6E 64 2E 79 45 64  |b3.zCsec.and.yEd|
 B03E  65 63 2E 61 C5 62 69 74 2E 78 C5 61 6E 64 2E 78  |ec.a.bit.x.and.x|
 B04E  C5 72 6F 6C 2E 78 C4 62 62 72 33 43 72 74 69 87  |.rol.x.bbr3Crti.|
 B05E  65 6F 72 2E 7A 78 69 85 65 6F 72 2E 7A 85 6C 73  |eor.zxi.eor.z.ls|
 B06E  72 2E 7A 86 72 62 6D 34 2E 7A 43 70 68 61 85 65  |r.z.rbm4.zCpha.e|
 B07E  6F 72 2E 23 45 6C 73 72 2E 61 C3 6A 6D 70 C3 65  |or.#Elsr.a.jmp.e|
 B08E  6F 72 C3 6C 73 72 C4 62 62 72 34 83 62 76 63 87  |or.lsr.bbr4.bvc.|
 B09E  65 6F 72 2E 7A 69 79 86 65 6F 72 2E 7A 69 86 65  |eor.ziy.eor.zi.e|
 B0AE  6F 72 2E 7A 78 86 6C 73 72 2E 7A 78 86 72 62 6D  |or.zx.lsr.zx.rbm|
 B0BE  35 2E 7A 43 63 6C 69 C5 65 6F 72 2E 79 43 70 68  |5.zCcli.eor.yCph|
 B0CE  79 C5 65 6F 72 2E 78 C5 6C 73 72 2E 78 C4 62 62  |y.eor.x.lsr.x.bb|
 B0DE  72 35 43 72 74 73 87 61 64 63 2E 7A 78 69 85 73  |r5Crts.adc.zxi.s|
 B0EE  74 7A 2E 7A 85 61 64 63 2E 7A 85 72 6F 72 2E 7A  |tz.z.adc.z.ror.z|
 B0FE  86 72 6D 62 36 2E 7A 43 70 6C 61 85 61 64 63 2E  |.rmb6.zCpla.adc.|
 B10E  23 45 72 6F 72 2E 61 C5 6A 6D 70 2E 69 C3 61 64  |#Eror.a.jmp.i.ad|
 B11E  63 C3 72 6F 72 C4 62 62 72 36 83 62 76 73 87 61  |c.ror.bbr6.bvs.a|
 B12E  64 63 2E 7A 69 79 86 61 64 63 2E 7A 69 86 73 74  |dc.ziy.adc.zi.st|
 B13E  7A 2E 7A 78 86 61 64 63 2E 7A 78 86 72 6F 72 2E  |z.zx.adc.zx.ror.|
 B14E  7A 78 86 72 6D 62 37 2E 7A 43 73 65 69 C5 61 64  |zx.rmb7.zCsei.ad|
 B15E  63 2E 79 43 70 6C 79 C6 6A 6D 70 2E 78 69 C5 61  |c.yCply.jmp.xi.a|
 B16E  64 63 2E 78 C5 72 6F 72 2E 78 C4 62 62 72 37 83  |dc.x.ror.x.bbr7.|
 B17E  62 72 61 87 73 74 61 2E 7A 78 69 85 73 74 79 2E  |bra.sta.zxi.sty.|
 B18E  7A 85 73 74 61 2E 7A 85 73 74 78 2E 7A 43 64 65  |z.sta.z.stx.zCde|
 B19E  79 85 62 69 74 2E 23 43 74 78 61 C3 73 74 79 C3  |y.bit.#Ctxa.sty.|
 B1AE  73 74 61 C3 73 74 78 C4 62 62 73 30 83 62 63 63  |sta.stx.bbs0.bcc|
 B1BE  87 73 74 61 2E 7A 69 79 86 73 74 61 2E 7A 69 86  |.sta.ziy.sta.zi.|
 B1CE  73 74 79 2E 7A 78 86 73 74 61 2E 7A 78 86 73 74  |sty.zx.sta.zx.st|
 B1DE  78 2E 7A 79 86 73 6D 62 31 2E 7A 43 74 79 61 C5  |x.zy.smb1.zCtya.|
 B1EE  73 74 61 2E 79 43 74 78 73 C3 73 74 7A C5 73 74  |sta.yCtxs.stz.st|
 B1FE  61 2E 78 C5 73 74 7A 2E 78 C4 62 62 73 31 85 6C  |a.x.stz.x.bbs1.l|
 B20E  64 79 2E 23 87 6C 64 61 2E 7A 78 69 85 6C 64 78  |dy.#.lda.zxi.ldx|
 B21E  2E 23 85 6C 64 79 2E 7A 85 6C 64 61 2E 7A 85 6C  |.#.ldy.z.lda.z.l|
 B22E  64 78 2E 7A 86 73 6D 62 32 2E 7A 43 74 61 79 85  |dx.z.smb2.zCtay.|
 B23E  6C 64 61 2E 23 43 74 61 78 C3 6C 64 79 C3 6C 64  |lda.#Ctax.ldy.ld|
 B24E  61 C3 6C 64 78 C4 62 62 73 32 83 62 63 73 87 6C  |a.ldx.bbs2.bcs.l|
 B25E  64 61 2E 7A 69 79 86 6C 64 61 2E 7A 69 86 6C 64  |da.ziy.lda.zi.ld|
 B26E  79 2E 7A 78 86 6C 64 61 2E 7A 78 86 6C 64 78 2E  |y.zx.lda.zx.ldx.|
 B27E  7A 79 86 73 6D 62 33 2E 7A 43 63 6C 76 C5 6C 64  |zy.smb3.zCclv.ld|
 B28E  61 2E 79 43 74 73 78 C5 6C 64 79 2E 78 C5 6C 64  |a.yCtsx.ldy.x.ld|
 B29E  61 2E 78 C5 6C 64 78 2E 79 C4 62 62 73 34 85 63  |a.x.ldx.y.bbs4.c|
 B2AE  70 79 2E 23 87 63 6D 70 2E 7A 78 69 85 63 70 79  |py.#.cmp.zxi.cpy|
 B2BE  2E 7A 85 63 6D 70 2E 7A 85 64 65 63 2E 7A 86 73  |.z.cmp.z.dec.z.s|
 B2CE  6D 62 34 2E 7A 43 69 6E 79 85 63 6D 70 2E 23 43  |mb4.zCiny.cmp.#C|
 B2DE  64 65 78 C3 63 70 79 C3 63 6D 70 C3 64 65 63 C4  |dex.cpy.cmp.dec.|
 B2EE  62 62 73 34 83 62 6E 65 87 63 6D 70 2E 7A 69 79  |bbs4.bne.cmp.ziy|
 B2FE  86 63 6D 70 2E 7A 69 86 63 6D 70 2E 7A 78 86 64  |.cmp.zi.cmp.zx.d|
 B30E  65 63 2E 7A 78 86 73 6D 62 35 2E 7A 43 63 6C 64  |ec.zx.smb5.zCcld|
 B31E  C5 63 6D 70 2E 79 43 70 68 78 C5 63 6D 70 2E 78  |.cmp.yCphx.cmp.x|
 B32E  C5 64 65 63 2E 78 C4 62 62 73 35 85 63 70 78 2E  |.dec.x.bbs5.cpx.|
 B33E  23 87 73 62 63 2E 7A 78 69 85 63 70 78 2E 7A 85  |#.sbc.zxi.cpx.z.|
 B34E  73 62 63 2E 7A 85 69 6E 63 2E 7A 86 73 6D 62 36  |sbc.z.inc.z.smb6|
 B35E  2E 7A 43 69 6E 78 85 73 62 63 2E 23 43 6E 6F 70  |.zCinx.sbc.#Cnop|
 B36E  C3 63 70 78 C3 73 62 63 C3 69 6E 63 C4 62 62 73  |.cpx.sbc.inc.bbs|
 B37E  36 83 62 65 71 87 73 62 63 2E 7A 69 79 86 73 62  |6.beq.sbc.ziy.sb|
 B38E  63 2E 7A 69 86 73 62 63 2E 7A 78 86 69 6E 63 2E  |c.zi.sbc.zx.inc.|
 B39E  7A 78 86 73 6D 62 37 2E 7A 43 73 65 64 C5 73 62  |zx.smb7.zCsed.sb|
 B3AE  63 2E 79 43 70 6C 78 C5 73 62 63 2E 78 C5 69 6E  |c.yCplx.sbc.x.in|
 B3BE  63 2E 78 C4 62 62 73 37 01 3F                    |c.x.bbs7.?      |
 B3C8  64 2E     STZ  $2E
 B3CA  64 2F     STZ  $2F
 B3CC  64 30     STZ  $30
 B3CE  64 31     STZ  $31
 B3D0  64 32     STZ  $32
 B3D2  20 23 A7  JSR  $A723
 B3D5  20 23 A7  JSR  $A723
 B3D8  20 53 89  JSR  $8953
 B3DB  A9 81     LDA  #$81
 B3DD  14 32     TRB  $32
 B3DF  20 A6 B8  JSR  $B8A6
 B3E2  A5 0A     LDA  $0A
 B3E4  D0 1F     BNE  $B405
 B3E6  CA        DEX  
 B3E7  CA        DEX  
 B3E8  A5 30     LDA  $30
 B3EA  95 00     STA  $00, X
 B3EC  A5 31     LDA  $31
 B3EE  95 01     STA  $01, X
 B3F0  A9 80     LDA  #$80
 B3F2  04 32     TSB  $32
 B3F4  20 9F 97  JSR  $979F
 B3F7  20 C2 B8  JSR  $B8C2
 B3FA  B0 03     BCS  $B3FF
 B3FC  4C 96 B8  JMP  $B896
 B3FF  20 23 A7  JSR  $A723
 B402  4C D0 B4  JMP  $B4D0
 B405  20 23 A7  JSR  $A723
 B408  20 23 A7  JSR  $A723
 B40B  B2 08     LDA  ($08)
 B40D  C9 2E     CMP  #$2E
 B40F  D0 3A     BNE  $B44B
 B411  20 B7 B8  JSR  $B8B7
 B414  A5 30     LDA  $30
 B416  95 02     STA  $02, X
 B418  A5 31     LDA  $31
 B41A  95 03     STA  $03, X
 B41C  A9 80     LDA  #$80
 B41E  04 32     TSB  $32
 B420  A5 0A     LDA  $0A
 B422  3A        DEC  
 B423  D0 03     BNE  $B428
 B425  4C D0 B4  JMP  $B4D0
 B428  CA        DEX  
 B429  CA        DEX  
 B42A  CA        DEX  
 B42B  CA        DEX  
 B42C  A5 08     LDA  $08
 B42E  95 02     STA  $02, X
 B430  A5 09     LDA  $09
 B432  95 03     STA  $03, X
 B434  A5 0A     LDA  $0A
 B436  95 00     STA  $00, X
 B438  A5 0B     LDA  $0B
 B43A  95 01     STA  $01, X
 B43C  20 93 97  JSR  $9793
 B43F  20 2A A1  JSR  $A12A
 B442  20 9F 97  JSR  $979F
 B445  20 2A A1  JSR  $A12A
 B448  4C 28 B5  JMP  $B528
 B44B  B2 08     LDA  ($08)
 B44D  C9 24     CMP  #$24
 B44F  D0 1C     BNE  $B46D
 B451  20 B7 B8  JSR  $B8B7
 B454  E8        INX  
 B455  E8        INX  
 B456  20 E4 B8  JSR  $B8E4
 B459  20 2A A1  JSR  $A12A
 B45C  A9 80     LDA  #$80
 B45E  04 32     TSB  $32
 B460  A5 0A     LDA  $0A
 B462  3A        DEC  
 B463  D0 03     BNE  $B468
 B465  4C D0 B4  JMP  $B4D0
 B468  A0 01     LDY  #$01
 B46A  4C A4 B5  JMP  $B5A4
 B46D  B2 08     LDA  ($08)
 B46F  C9 25     CMP  #$25
 B471  F0 04     BEQ  $B477
 B473  C9 2C     CMP  #$2C
 B475  D0 17     BNE  $B48E
 B477  20 B7 B8  JSR  $B8B7
 B47A  A9 01     LDA  #$01
 B47C  95 02     STA  $02, X
 B47E  74 03     STZ  $03, X
 B480  E8        INX  
 B481  E8        INX  
 B482  20 E4 B8  JSR  $B8E4
 B485  A9 80     LDA  #$80
 B487  04 32     TSB  $32
 B489  A0 01     LDY  #$01
 B48B  4C A4 B5  JMP  $B5A4
 B48E  B2 08     LDA  ($08)
 B490  C9 3B     CMP  #$3B
 B492  D0 0D     BNE  $B4A1
 B494  20 B7 B8  JSR  $B8B7
 B497  A5 30     LDA  $30
 B499  95 02     STA  $02, X
 B49B  A5 31     LDA  $31
 B49D  95 03     STA  $03, X
 B49F  80 DF     BRA  $B480
 B4A1  20 23 A7  JSR  $A723
 B4A4  20 23 A7  JSR  $A723
 B4A7  CA        DEX  
 B4A8  CA        DEX  
 B4A9  CA        DEX  
 B4AA  CA        DEX  
 B4AB  A5 08     LDA  $08
 B4AD  95 02     STA  $02, X
 B4AF  A5 09     LDA  $09
 B4B1  95 03     STA  $03, X
 B4B3  A5 0A     LDA  $0A
 B4B5  95 00     STA  $00, X
 B4B7  A5 0B     LDA  $0B
 B4B9  95 01     STA  $01, X
 B4BB  20 39 A2  JSR  $A239
 B4BE  B5 00     LDA  $00, X
 B4C0  15 01     ORA  $01, X
 B4C2  D0 24     BNE  $B4E8
 B4C4  E8        INX  
 B4C5  E8        INX  
 B4C6  E8        INX  
 B4C7  E8        INX  
 B4C8  20 70 8A  JSR  $8A70
 B4CB  20 5E 96  JSR  $965E
 B4CE  E8        INX  
 B4CF  E8        INX  
 B4D0  20 2A A1  JSR  $A12A
 B4D3  20 C2 B8  JSR  $B8C2
 B4D6  B0 03     BCS  $B4DB
 B4D8  4C 94 B8  JMP  $B894
 B4DB  20 2A A1  JSR  $A12A
 B4DE  20 51 B9  JSR  $B951
 B4E1  A9 80     LDA  #$80
 B4E3  04 32     TSB  $32
 B4E5  4C 7F B7  JMP  $B77F
 B4E8  20 9F 8D  JSR  $8D9F
 B4EB  CA        DEX  
 B4EC  CA        DEX  
 B4ED  A5 0A     LDA  $0A
 B4EF  95 00     STA  $00, X
 B4F1  A5 0B     LDA  $0B
 B4F3  95 01     STA  $01, X
 B4F5  20 BE 8E  JSR  $8EBE
 B4F8  B5 00     LDA  $00, X
 B4FA  15 01     ORA  $01, X
 B4FC  F0 0E     BEQ  $B50C
 B4FE  8A        TXA  
 B4FF  18        CLC  
 B500  69 0A     ADC  #$0A
 B502  AA        TAX  
 B503  A9 80     LDA  #$80
 B505  14 32     TRB  $32
 B507  A0 00     LDY  #$00
 B509  4C A4 B5  JMP  $B5A4
 B50C  E8        INX  
 B50D  E8        INX  
 B50E  20 EC A2  JSR  $A2EC
 B511  20 5E 96  JSR  $965E
 B514  20 70 8A  JSR  $8A70
 B517  B5 00     LDA  $00, X
 B519  95 06     STA  $06, X
 B51B  B5 01     LDA  $01, X
 B51D  95 07     STA  $07, X
 B51F  E8        INX  
 B520  E8        INX  
 B521  20 14 9A  JSR  $9A14
 B524  A9 80     LDA  #$80
 B526  04 32     TSB  $32
 B528  A1 02     LDA  ($02, X)
 B52A  C9 2C     CMP  #$2C
 B52C  F0 0D     BEQ  $B53B
 B52E  38        SEC  
 B52F  A5 0A     LDA  $0A
 B531  F5 00     SBC  $00, X
 B533  A8        TAY  
 B534  E8        INX  
 B535  E8        INX  
 B536  E8        INX  
 B537  E8        INX  
 B538  4C A4 B5  JMP  $B5A4
 B53B  F6 02     INC  $02, X
 B53D  D0 02     BNE  $B541
 B53F  F6 03     INC  $03, X
 B541  B5 01     LDA  $01, X
 B543  F0 02     BEQ  $B547
 B545  D6 01     DEC  $01, X
 B547  D6 00     DEC  $00, X
 B549  A1 02     LDA  ($02, X)
 B54B  C9 24     CMP  #$24
 B54D  D0 14     BNE  $B563
 B54F  38        SEC  
 B550  A5 0A     LDA  $0A
 B552  F5 02     SBC  $02, X
 B554  A8        TAY  
 B555  C8        INY  
 B556  5A        PHY  
 B557  8A        TXA  
 B558  18        CLC  
 B559  69 06     ADC  #$06
 B55B  AA        TAX  
 B55C  20 E4 B8  JSR  $B8E4
 B55F  7A        PLY  
 B560  4C A4 B5  JMP  $B5A4
 B563  20 EC A2  JSR  $A2EC
 B566  20 23 A7  JSR  $A723
 B569  20 23 A7  JSR  $A723
 B56C  20 D9 9A  JSR  $9AD9
 B56F  20 14 9A  JSR  $9A14
 B572  20 9F 8D  JSR  $8D9F
 B575  20 EC A2  JSR  $A2EC
 B578  20 39 A2  JSR  $A239
 B57B  20 9F 8D  JSR  $8D9F
 B57E  20 14 9A  JSR  $9A14
 B581  20 BE 8E  JSR  $8EBE
 B584  B5 00     LDA  $00, X
 B586  15 01     ORA  $01, X
 B588  F0 08     BEQ  $B592
 B58A  8A        TXA  
 B58B  18        CLC  
 B58C  69 0C     ADC  #$0C
 B58E  AA        TAX  
 B58F  4C 98 B8  JMP  $B898
 B592  E8        INX  
 B593  E8        INX  
 B594  38        SEC  
 B595  A5 0A     LDA  $0A
 B597  F5 00     SBC  $00, X
 B599  48        PHA  
 B59A  20 2C A3  JSR  $A32C
 B59D  20 70 8A  JSR  $8A70
 B5A0  20 32 96  JSR  $9632
 B5A3  7A        PLY  
 B5A4  B1 08     LDA  ($08), Y
 B5A6  85 24     STA  $24
 B5A8  DA        PHX  
 B5A9  A2 00     LDX  #$00
 B5AB  BD 7C B9  LDA  $B97C, X
 B5AE  F0 07     BEQ  $B5B7
 B5B0  C5 24     CMP  $24
 B5B2  F0 07     BEQ  $B5BB
 B5B4  E8        INX  
 B5B5  80 F4     BRA  $B5AB
 B5B7  FA        PLX  
 B5B8  4C 94 B8  JMP  $B894
 B5BB  8A        TXA  
 B5BC  0A        ASL  
 B5BD  AA        TAX  
 B5BE  7C 87 B9  JMP  ($B987, X)
 B5C1  E8        INX  
 B5C2  E8        INX  
 B5C3  E8        INX  
 B5C4  E8        INX  
 B5C5  4C DB B3  JMP  $B3DB
 B5C8  64 0A     STZ  $0A
 B5CA  64 0B     STZ  $0B
 B5CC  20 2C A3  JSR  $A32C
 B5CF  60        RTS  
 B5D0  FA        PLX  
 B5D1  E8        INX  
 B5D2  E8        INX  
 B5D3  24 32     BIT  $32
 B5D5  30 08     BMI  $B5DF
 B5D7  A5 30     LDA  $30
 B5D9  95 00     STA  $00, X
 B5DB  A5 31     LDA  $31
 B5DD  95 01     STA  $01, X
 B5DF  20 1A B9  JSR  $B91A
 B5E2  20 53 89  JSR  $8953
 B5E5  20 A6 B8  JSR  $B8A6
 B5E8  B2 08     LDA  ($08)
 B5EA  C9 2E     CMP  #$2E
 B5EC  D0 16     BNE  $B604
 B5EE  A4 0A     LDY  $0A
 B5F0  C0 01     CPY  #$01
 B5F2  D0 10     BNE  $B604
 B5F4  A4 0B     LDY  $0B
 B5F6  D0 0C     BNE  $B604
 B5F8  E8        INX  
 B5F9  E8        INX  
 B5FA  A9 40     LDA  #$40
 B5FC  04 32     TSB  $32
 B5FE  20 53 89  JSR  $8953
 B601  4C DB B3  JMP  $B3DB
 B604  20 9F 8D  JSR  $8D9F
 B607  20 62 91  JSR  $9162
 B60A  20 2A A1  JSR  $A12A
 B60D  20 70 8F  JSR  $8F70
 B610  20 5E 87  JSR  $875E
 B613  20 09 A3  JSR  $A309
 B616  20 2A A1  JSR  $A12A
 B619  20 09 A1  JSR  $A109
 B61C  20 62 91  JSR  $9162
 B61F  A5 00     LDA  $00
 B621  18        CLC  
 B622  69 04     ADC  #$04
 B624  85 00     STA  $00
 B626  90 02     BCC  $B62A
 B628  E6 01     INC  $01
 B62A  E6 30     INC  $30
 B62C  D0 02     BNE  $B630
 B62E  E6 31     INC  $31
 B630  20 62 91  JSR  $9162
 B633  20 9F 8D  JSR  $8D9F
 B636  CA        DEX  
 B637  CA        DEX  
 B638  A5 08     LDA  $08
 B63A  95 00     STA  $00, X
 B63C  A5 09     LDA  $09
 B63E  95 01     STA  $01, X
 B640  20 2A A1  JSR  $A12A
 B643  CA        DEX  
 B644  CA        DEX  
 B645  A5 0A     LDA  $0A
 B647  95 00     STA  $00, X
 B649  A5 0B     LDA  $0B
 B64B  95 01     STA  $01, X
 B64D  20 B2 95  JSR  $95B2
 B650  18        CLC  
 B651  A5 00     LDA  $00
 B653  65 0A     ADC  $0A
 B655  85 00     STA  $00
 B657  90 06     BCC  $B65F
 B659  A5 01     LDA  $01
 B65B  65 0B     ADC  $0B
 B65D  85 01     STA  $01
 B65F  20 15 98  JSR  $9815
 B662  20 09 A1  JSR  $A109
 B665  20 9F 97  JSR  $979F
 B668  20 9F 97  JSR  $979F
 B66B  20 9F 8D  JSR  $8D9F
 B66E  A5 0A     LDA  $0A
 B670  95 02     STA  $02, X
 B672  A5 0B     LDA  $0B
 B674  95 03     STA  $03, X
 B676  20 09 A1  JSR  $A109
 B679  20 53 89  JSR  $8953
 B67C  4C E5 B5  JMP  $B5E5
 B67F  FA        PLX  
 B680  20 B7 B8  JSR  $B8B7
 B683  20 0C B9  JSR  $B90C
 B686  B5 00     LDA  $00, X
 B688  15 01     ORA  $01, X
 B68A  D0 08     BNE  $B694
 B68C  20 15 98  JSR  $9815
 B68F  20 D1 B6  JSR  $B6D1
 B692  80 33     BRA  $B6C7
 B694  20 C2 B8  JSR  $B8C2
 B697  B0 03     BCS  $B69C
 B699  4C 94 B8  JMP  $B894
 B69C  20 34 A3  JSR  $A334
 B69F  20 4D 91  JSR  $914D
 B6A2  B5 00     LDA  $00, X
 B6A4  15 01     ORA  $01, X
 B6A6  D0 0D     BNE  $B6B5
 B6A8  E8        INX  
 B6A9  E8        INX  
 B6AA  20 9F 8D  JSR  $8D9F
 B6AD  20 D1 B6  JSR  $B6D1
 B6B0  20 93 97  JSR  $9793
 B6B3  80 E7     BRA  $B69C
 B6B5  E8        INX  
 B6B6  E8        INX  
 B6B7  B5 02     LDA  $02, X
 B6B9  D0 02     BNE  $B6BD
 B6BB  D6 03     DEC  $03, X
 B6BD  D6 02     DEC  $02, X
 B6BF  B5 02     LDA  $02, X
 B6C1  85 30     STA  $30
 B6C3  B5 03     LDA  $03, X
 B6C5  85 31     STA  $31
 B6C7  A9 40     LDA  #$40
 B6C9  04 32     TSB  $32
 B6CB  20 53 89  JSR  $8953
 B6CE  4C C1 B5  JMP  $B5C1
 B6D1  20 9F 8D  JSR  $8D9F
 B6D4  20 1A B9  JSR  $B91A
 B6D7  20 70 8F  JSR  $8F70
 B6DA  20 2A A1  JSR  $A12A
 B6DD  20 93 97  JSR  $9793
 B6E0  20 1A B9  JSR  $B91A
 B6E3  20 09 A1  JSR  $A109
 B6E6  60        RTS  
 B6E7  FA        PLX  
 B6E8  A5 2E     LDA  $2E
 B6EA  05 2F     ORA  $2F
 B6EC  D0 08     BNE  $B6F6
 B6EE  CA        DEX  
 B6EF  CA        DEX  
 B6F0  74 00     STZ  $00, X
 B6F2  74 01     STZ  $01, X
 B6F4  80 21     BRA  $B717
 B6F6  20 0C B9  JSR  $B90C
 B6F9  24 32     BIT  $32
 B6FB  30 0C     BMI  $B709
 B6FD  CA        DEX  
 B6FE  CA        DEX  
 B6FF  A5 30     LDA  $30
 B701  95 00     STA  $00, X
 B703  A5 31     LDA  $31
 B705  95 01     STA  $01, X
 B707  80 0E     BRA  $B717
 B709  B5 00     LDA  $00, X
 B70B  15 01     ORA  $01, X
 B70D  D0 05     BNE  $B714
 B70F  20 15 98  JSR  $9815
 B712  80 03     BRA  $B717
 B714  20 9F 8D  JSR  $8D9F
 B717  20 53 89  JSR  $8953
 B71A  20 AA A4  JSR  $A4AA
 B71D  20 53 89  JSR  $8953
 B720  4C C1 B5  JMP  $B5C1
 B723  FA        PLX  
 B724  24 32     BIT  $32
 B726  30 17     BMI  $B73F
 B728  20 53 89  JSR  $8953
 B72B  20 EC A2  JSR  $A2EC
 B72E  20 D9 9A  JSR  $9AD9
 B731  20 9F 8D  JSR  $8D9F
 B734  20 AA A4  JSR  $A4AA
 B737  20 5E 96  JSR  $965E
 B73A  20 14 9A  JSR  $9A14
 B73D  80 11     BRA  $B750
 B73F  20 15 98  JSR  $9815
 B742  20 53 89  JSR  $8953
 B745  20 AA A4  JSR  $A4AA
 B748  B5 02     LDA  $02, X
 B74A  95 06     STA  $06, X
 B74C  B5 03     LDA  $03, X
 B74E  95 07     STA  $07, X
 B750  20 53 89  JSR  $8953
 B753  4C C1 B5  JMP  $B5C1
 B756  FA        PLX  
 B757  E8        INX  
 B758  E8        INX  
 B759  24 32     BIT  $32
 B75B  30 08     BMI  $B765
 B75D  A5 30     LDA  $30
 B75F  95 00     STA  $00, X
 B761  A5 31     LDA  $31
 B763  95 01     STA  $01, X
 B765  B5 00     LDA  $00, X
 B767  15 01     ORA  $01, X
 B769  F0 09     BEQ  $B774
 B76B  20 93 97  JSR  $9793
 B76E  20 23 A7  JSR  $A723
 B771  20 08 95  JSR  $9508
 B774  4C DF B5  JMP  $B5DF
 B777  FA        PLX  
 B778  A9 01     LDA  #$01
 B77A  04 32     TSB  $32
 B77C  80 05     BRA  $B783
 B77E  FA        PLX  
 B77F  A9 01     LDA  #$01
 B781  14 32     TRB  $32
 B783  20 B7 B8  JSR  $B8B7
 B786  20 0C B9  JSR  $B90C
 B789  20 53 89  JSR  $8953
 B78C  B5 00     LDA  $00, X
 B78E  15 01     ORA  $01, X
 B790  D0 08     BNE  $B79A
 B792  20 15 98  JSR  $9815
 B795  20 BB B7  JSR  $B7BB
 B798  80 1E     BRA  $B7B8
 B79A  20 34 A3  JSR  $A334
 B79D  20 4D 91  JSR  $914D
 B7A0  B5 00     LDA  $00, X
 B7A2  15 01     ORA  $01, X
 B7A4  D0 10     BNE  $B7B6
 B7A6  E8        INX  
 B7A7  E8        INX  
 B7A8  20 15 98  JSR  $9815
 B7AB  20 BB B7  JSR  $B7BB
 B7AE  F6 02     INC  $02, X
 B7B0  D0 02     BNE  $B7B4
 B7B2  F6 03     INC  $03, X
 B7B4  80 E4     BRA  $B79A
 B7B6  E8        INX  
 B7B7  E8        INX  
 B7B8  4C C1 B5  JMP  $B5C1
 B7BB  A5 32     LDA  $32
 B7BD  4A        LSR  
 B7BE  90 0B     BCC  $B7CB
 B7C0  20 9F 8D  JSR  $8D9F
 B7C3  20 AA A4  JSR  $A4AA
 B7C6  A9 09     LDA  #$09
 B7C8  20 E6 8D  JSR  $8DE6
 B7CB  20 1A B9  JSR  $B91A
 B7CE  20 5A B9  JSR  $B95A
 B7D1  60        RTS  
 B7D2  FA        PLX  
 B7D3  24 32     BIT  $32
 B7D5  50 03     BVC  $B7DA
 B7D7  4C 94 B8  JMP  $B894
 B7DA  4C C8 B5  JMP  $B5C8
 B7DD  FA        PLX  
 B7DE  4C C8 B5  JMP  $B5C8
 B7E1  FA        PLX  
 B7E2  20 B7 B8  JSR  $B8B7
 B7E5  24 32     BIT  $32
 B7E7  30 13     BMI  $B7FC
 B7E9  B5 06     LDA  $06, X
 B7EB  15 07     ORA  $07, X
 B7ED  D0 03     BNE  $B7F2
 B7EF  4C 94 B8  JMP  $B894
 B7F2  B5 06     LDA  $06, X
 B7F4  95 02     STA  $02, X
 B7F6  B5 07     LDA  $07, X
 B7F8  95 03     STA  $03, X
 B7FA  80 08     BRA  $B804
 B7FC  B5 02     LDA  $02, X
 B7FE  95 06     STA  $06, X
 B800  B5 03     LDA  $03, X
 B802  95 07     STA  $07, X
 B804  A9 2E     LDA  #$2E
 B806  95 00     STA  $00, X
 B808  A9 00     LDA  #$00
 B80A  95 01     STA  $01, X
 B80C  20 15 98  JSR  $9815
 B80F  20 EC A2  JSR  $A2EC
 B812  20 70 8F  JSR  $8F70
 B815  B5 00     LDA  $00, X
 B817  15 01     ORA  $01, X
 B819  F0 55     BEQ  $B870
 B81B  20 34 A3  JSR  $A334
 B81E  20 1E A4  JSR  $A41E
 B821  20 9F 97  JSR  $979F
 B824  20 9F 97  JSR  $979F
 B827  20 9F 8D  JSR  $8D9F
 B82A  20 70 8F  JSR  $8F70
 B82D  20 2A A1  JSR  $A12A
 B830  20 9F 97  JSR  $979F
 B833  20 9F 97  JSR  $979F
 B836  20 70 8F  JSR  $8F70
 B839  20 5E 96  JSR  $965E
 B83C  20 2A A1  JSR  $A12A
 B83F  20 D9 9A  JSR  $9AD9
 B842  20 9F 8D  JSR  $8D9F
 B845  20 EC A2  JSR  $A2EC
 B848  20 B2 95  JSR  $95B2
 B84B  20 14 9A  JSR  $9A14
 B84E  20 A4 A3  JSR  $A3A4
 B851  20 5E 96  JSR  $965E
 B854  20 65 99  JSR  $9965
 B857  20 9F 8D  JSR  $8D9F
 B85A  CA        DEX  
 B85B  CA        DEX  
 B85C  A9 0A     LDA  #$0A
 B85E  95 00     STA  $00, X
 B860  74 01     STZ  $01, X
 B862  20 2A A1  JSR  $A12A
 B865  20 09 A1  JSR  $A109
 B868  20 9F 97  JSR  $979F
 B86B  20 2A A1  JSR  $A12A
 B86E  80 A2     BRA  $B812
 B870  20 2A A1  JSR  $A12A
 B873  20 14 9A  JSR  $9A14
 B876  20 40 95  JSR  $9540
 B879  B5 00     LDA  $00, X
 B87B  95 04     STA  $04, X
 B87D  B5 01     LDA  $01, X
 B87F  95 05     STA  $05, X
 B881  20 53 89  JSR  $8953
 B884  20 9F 8D  JSR  $8D9F
 B887  20 AA A4  JSR  $A4AA
 B88A  20 53 89  JSR  $8953
 B88D  A9 40     LDA  #$40
 B88F  14 32     TRB  $32
 B891  4C C1 B5  JMP  $B5C1
 B894  E8        INX  
 B895  E8        INX  
 B896  E8        INX  
 B897  E8        INX  
 B898  20 53 89  JSR  $8953
 B89B  A9 3F     LDA  #$3F
 B89D  20 E6 8D  JSR  $8DE6
 B8A0  20 53 89  JSR  $8953
 B8A3  4C DB B3  JMP  $B3DB
 B8A6  20 7A 9A  JSR  $9A7A
 B8A9  B5 00     LDA  $00, X
 B8AB  15 01     ORA  $01, X
 B8AD  D0 05     BNE  $B8B4
 B8AF  7A        PLY  
 B8B0  7A        PLY  
 B8B1  4C 96 B8  JMP  $B896
 B8B4  E8        INX  
 B8B5  E8        INX  
 B8B6  60        RTS  
 B8B7  A5 2E     LDA  $2E
 B8B9  05 2F     ORA  $2F
 B8BB  D0 04     BNE  $B8C1
 B8BD  7A        PLY  
 B8BE  7A        PLY  
 B8BF  80 D7     BRA  $B898
 B8C1  60        RTS  
 B8C2  38        SEC  
 B8C3  B5 00     LDA  $00, X
 B8C5  15 01     ORA  $01, X
 B8C7  F0 19     BEQ  $B8E2
 B8C9  20 9F 8D  JSR  $8D9F
 B8CC  20 E4 B8  JSR  $B8E4
 B8CF  20 2A A1  JSR  $A12A
 B8D2  20 58 93  JSR  $9358
 B8D5  B5 00     LDA  $00, X
 B8D7  15 01     ORA  $01, X
 B8D9  D0 05     BNE  $B8E0
 B8DB  E8        INX  
 B8DC  E8        INX  
 B8DD  38        SEC  
 B8DE  80 03     BRA  $B8E3
 B8E0  E8        INX  
 B8E1  E8        INX  
 B8E2  18        CLC  
 B8E3  60        RTS  
 B8E4  64 24     STZ  $24
 B8E6  64 25     STZ  $25
 B8E8  CA        DEX  
 B8E9  CA        DEX  
 B8EA  A9 2E     LDA  #$2E
 B8EC  95 00     STA  $00, X
 B8EE  A9 00     LDA  #$00
 B8F0  95 01     STA  $01, X
 B8F2  20 70 8F  JSR  $8F70
 B8F5  B5 00     LDA  $00, X
 B8F7  15 01     ORA  $01, X
 B8F9  F0 08     BEQ  $B903
 B8FB  E6 24     INC  $24
 B8FD  D0 02     BNE  $B901
 B8FF  E6 25     INC  $25
 B901  80 EF     BRA  $B8F2
 B903  A5 24     LDA  $24
 B905  95 00     STA  $00, X
 B907  A5 25     LDA  $25
 B909  95 01     STA  $01, X
 B90B  60        RTS  
 B90C  B5 02     LDA  $02, X
 B90E  15 03     ORA  $03, X
 B910  D0 07     BNE  $B919
 B912  24 32     BIT  $32
 B914  10 03     BPL  $B919
 B916  4C 94 B8  JMP  $B894
 B919  60        RTS  
 B91A  CA        DEX  
 B91B  CA        DEX  
 B91C  A9 2E     LDA  #$2E
 B91E  95 00     STA  $00, X
 B920  A9 00     LDA  #$00
 B922  95 01     STA  $01, X
 B924  B5 02     LDA  $02, X
 B926  15 03     ORA  $03, X
 B928  D0 05     BNE  $B92F
 B92A  20 32 96  JSR  $9632
 B92D  80 21     BRA  $B950
 B92F  20 70 8F  JSR  $8F70
 B932  B5 00     LDA  $00, X
 B934  15 01     ORA  $01, X
 B936  D0 05     BNE  $B93D
 B938  20 32 96  JSR  $9632
 B93B  80 13     BRA  $B950
 B93D  20 2A A1  JSR  $A12A
 B940  20 93 97  JSR  $9793
 B943  B5 00     LDA  $00, X
 B945  15 01     ORA  $01, X
 B947  F0 05     BEQ  $B94E
 B949  20 2A A1  JSR  $A12A
 B94C  80 E1     BRA  $B92F
 B94E  E8        INX  
 B94F  E8        INX  
 B950  60        RTS  
 B951  B5 02     LDA  $02, X
 B953  85 30     STA  $30
 B955  B5 03     LDA  $03, X
 B957  85 31     STA  $31
 B959  60        RTS  
 B95A  20 9F 97  JSR  $979F
 B95D  20 9F 97  JSR  $979F
 B960  20 9F 8D  JSR  $8D9F
 B963  20 9F 97  JSR  $979F
 B966  20 9F 97  JSR  $979F
 B969  20 70 8F  JSR  $8F70
 B96C  20 2A A1  JSR  $A12A
 B96F  20 70 8F  JSR  $8F70
 B972  20 2A A1  JSR  $A12A
 B975  20 7F A4  JSR  $A47F
 B978  20 53 89  JSR  $8953
 B97B  60        RTS  
 B97C  61 66 69 64 70 6E 3D 77 71 51 00 D0 B5 23 B7 56  |afidpn=wqQ...#.V|
 B98C  B7 7F B6 7E B7 77 B7 E7 B6 E1 B7 D2 B7 DD B7 20  |...~.w......... |
 B99C  63 72 20 2E 28 20 57 65 6C 63 6F 6D 65 20 74 6F  |cr .( Welcome to|
 B9AC  20 50 6C 61 6E 63 6B 20 36 35 30 32 20 29 20 63  | Planck 6502 ) c|
 B9BC  72 20 20 32 30 20 63 6F 6E 73 74 61 6E 74 20 6D  |r  20 constant m|
 B9CC  61 78 69 74 65 72 20 2D 33 39 20 63 6F 6E 73 74  |axiter -39 const|
 B9DC  61 6E 74 20 6D 69 6E 76 61 6C 20 32 30 20 63 6F  |ant minval 20 co|
 B9EC  6E 73 74 61 6E 74 20 6D 61 78 76 61 6C 20 2D 32  |nstant maxval -2|
 B9FC  39 20 63 6F 6E 73 74 61 6E 74 20 6D 69 6E 63 6F  |9 constant minco|
 BA0C  6C 20 32 39 20 20 63 6F 6E 73 74 61 6E 74 20 6D  |l 29  constant m|
 BA1C  61 78 63 6F 6C 20 76 61 72 69 61 62 6C 65 20 63  |axcol variable c|
 BA2C  72 65 61 6C 20 76 61 72 69 61 62 6C 65 20 63 69  |real variable ci|
 BA3C  6D 61 67 20 76 61 72 69 61 62 6C 65 20 7A 72 65  |mag variable zre|
 BA4C  61 6C 20 76 61 72 69 61 62 6C 65 20 7A 69 6D 61  |al variable zima|
 BA5C  67 20 76 61 72 69 61 62 6C 65 20 63 6E 74 20 76  |g variable cnt v|
 BA6C  61 72 69 61 62 6C 65 20 73 63 61 6C 65 5F 66 61  |ariable scale_fa|
 BA7C  63 74 6F 72 20 76 61 72 69 61 62 6C 65 20 72 65  |ctor variable re|
 BA8C  73 63 61 6C 65 20 76 61 72 69 61 62 6C 65 20 73  |scale variable s|
 BA9C  5F 65 73 63 61 70 65 20 3A 20 7A 72 5F 73 71 20  |_escape : zr_sq |
 BAAC  7A 72 65 61 6C 20 40 20 64 75 70 20 72 65 73 63  |zreal @ dup resc|
 BABC  61 6C 65 20 40 20 2A 2F 20 3B 20 3A 20 7A 69 5F  |ale @ */ ; : zi_|
 BACC  73 71 20 7A 69 6D 61 67 20 40 20 64 75 70 20 72  |sq zimag @ dup r|
 BADC  65 73 63 61 6C 65 20 40 20 2A 2F 20 3B 20 3A 20  |escale @ */ ; : |
 BAEC  2E 63 68 61 72 20 73 22 20 20 20 20 2C 2D 21 3A  |.char s"    ,-!:|
 BAFC  3D 3B 2A 2F 49 33 58 36 41 38 25 4E 57 20 20 22  |=;*/I3X6A8%NW  "|
 BB0C  20 64 72 6F 70 20 2B 20 31 20 74 79 70 65 20 3B  | drop + 1 type ;|
 BB1C  20 3A 20 65 73 63 61 70 65 73 3F 20 73 5F 65 73  | : escapes? s_es|
 BB2C  63 61 70 65 20 40 20 3E 20 3B 20 3A 20 63 6F 75  |cape @ > ; : cou|
 BB3C  6E 74 5F 61 6E 64 5F 74 65 73 74 3F 20 63 6E 74  |nt_and_test? cnt|
 BB4C  20 40 20 31 2B 20 64 75 70 20 63 6E 74 20 21 20  | @ 1+ dup cnt ! |
 BB5C  6D 61 78 69 74 65 72 20 3E 20 3B 20 3A 20 69 6E  |maxiter > ; : in|
 BB6C  69 74 5F 76 61 72 73 20 35 20 6C 73 68 69 66 74  |it_vars 5 lshift|
 BB7C  20 64 75 70 20 63 72 65 61 6C 20 21 20 7A 72 65  | dup creal ! zre|
 BB8C  61 6C 20 21 20 35 20 6C 73 68 69 66 74 20 64 75  |al ! 5 lshift du|
 BB9C  70 20 63 69 6D 61 67 20 21 20 7A 69 6D 61 67 20  |p cimag ! zimag |
 BBAC  21 20 73 63 61 6C 65 5F 66 61 63 74 6F 72 20 40  |! scale_factor @|
 BBBC  20 35 20 6C 73 68 69 66 74 20 72 65 73 63 61 6C  | 5 lshift rescal|
 BBCC  65 20 21 20 72 65 73 63 61 6C 65 20 40 20 34 20  |e ! rescale @ 4 |
 BBDC  2A 20 73 5F 65 73 63 61 70 65 20 21 20 31 20 63  |* s_escape ! 1 c|
 BBEC  6E 74 20 21 20 3B 20 3A 20 64 6F 65 73 63 61 70  |nt ! ; : doescap|
 BBFC  65 20 7A 72 5F 73 71 20 7A 69 5F 73 71 20 32 64  |e zr_sq zi_sq 2d|
 BC0C  75 70 20 2B 20 65 73 63 61 70 65 73 3F 20 69 66  |up + escapes? if|
 BC1C  20 32 64 72 6F 70 20 74 72 75 65 20 65 6C 73 65  | 2drop true else|
 BC2C  20 2D 20 63 72 65 61 6C 20 40 20 2B 20 7A 72 65  | - creal @ + zre|
 BC3C  61 6C 20 40 20 7A 69 6D 61 67 20 40 20 72 65 73  |al @ zimag @ res|
 BC4C  63 61 6C 65 20 40 20 2A 2F 20 31 20 6C 73 68 69  |cale @ */ 1 lshi|
 BC5C  66 74 20 63 69 6D 61 67 20 40 20 2B 20 7A 69 6D  |ft cimag @ + zim|
 BC6C  61 67 20 21 20 7A 72 65 61 6C 20 21 20 63 6F 75  |ag ! zreal ! cou|
 BC7C  6E 74 5F 61 6E 64 5F 74 65 73 74 3F 20 74 68 65  |nt_and_test? the|
 BC8C  6E 20 3B 20 3A 20 64 6F 63 65 6C 6C 20 69 6E 69  |n ; : docell ini|
 BC9C  74 5F 76 61 72 73 20 62 65 67 69 6E 20 64 6F 65  |t_vars begin doe|
 BCAC  73 63 61 70 65 20 75 6E 74 69 6C 20 63 6E 74 20  |scape until cnt |
 BCBC  40 20 2E 63 68 61 72 20 3B 20 3A 20 64 6F 72 6F  |@ .char ; : doro|
 BCCC  77 20 6D 61 78 76 61 6C 20 6D 69 6E 76 61 6C 20  |w maxval minval |
 BCDC  64 6F 20 64 75 70 20 69 20 64 6F 63 65 6C 6C 20  |do dup i docell |
 BCEC  6C 6F 6F 70 20 64 72 6F 70 20 3B 20 3A 20 6D 61  |loop drop ; : ma|
 BCFC  6E 64 65 6C 62 72 6F 74 20 63 72 20 6D 61 78 63  |ndelbrot cr maxc|
 BD0C  6F 6C 20 6D 69 6E 63 6F 6C 20 64 6F 20 69 20 64  |ol mincol do i d|
 BD1C  6F 72 6F 77 20 63 72 20 6C 6F 6F 70 20 3B 20 3A  |orow cr loop ; :|
 BD2C  20 75 70 74 69 6D 65 20 20 31 33 30 20 40 20 31  | uptime  130 @ 1|
 BD3C  33 32 20 40 20 32 30 30 20 75 6D 2F 6D 6F 64 20  |32 @ 200 um/mod |
 BD4C  73 3E 64 20 36 30 20 75 6D 2F 6D 6F 64 20 73 3E  |s>d 60 um/mod s>|
 BD5C  64 20 36 30 20 75 6D 2F 6D 6F 64 20 63 72 20 2E  |d 60 um/mod cr .|
 BD6C  20 2E 22 20 68 20 22 20 2E 20 2E 22 20 6D 20 22  | ." h " . ." m "|
 BD7C  20 2E 20 2E 22 20 2C 22 20 32 2F 20 2E 20 2E 22  | . ." ," 2/ . ."|
 BD8C  20 73 22 20 63 72 20 3B 20 3A 20 6C 20 32 35 36  | s" cr ; : l 256|
 BD9C  20 30 20 64 6F 20 69 20 36 35 34 32 35 20 21 20  | 0 do i 65425 ! |
 BDAC  6C 6F 6F 70 20 3B 20 3A 20 6C 69 67 68 74 73 20  |loop ; : lights |
 BDBC  30 20 64 6F 20 6C 20 6C 6F 6F 70 20 3B 20 3A 20  |0 do l loop ; : |
 BDCC  64 65 6C 61 79 20 30 20 64 6F 20 6C 6F 6F 70 20  |delay 0 do loop |
 BDDC  3B 20 3A 20 64 65 6C 61 79 5F 6C 6F 6E 67 20 30  |; : delay_long 0|
 BDEC  20 64 6F 20 32 35 35 20 64 65 6C 61 79 20 6C 6F  | do 255 delay lo|
 BDFC  6F 70 20 3B 20 3A 20 73 6C 20 32 35 36 20 30 20  |op ; : sl 256 0 |
 BE0C  64 6F 20 32 35 35 20 64 65 6C 61 79 20 69 20 36  |do 255 delay i 6|
 BE1C  35 34 32 35 20 21 20 6C 6F 6F 70 20 3B 20 3A 20  |5425 ! loop ; : |
 BE2C  73 6C 69 67 68 74 73 20 30 20 64 6F 20 73 6C 20  |slights 0 do sl |
 BE3C  6C 6F 6F 70 20 3B 20 3A 20 6D 61 6E 64 65 6C 20  |loop ; : mandel |
 BE4C  73 63 61 6C 65 5F 66 61 63 74 6F 72 20 40 20 30  |scale_factor @ 0|
 BE5C  20 3D 20 69 66 20 32 30 20 73 63 61 6C 65 5F 66  | = if 20 scale_f|
 BE6C  61 63 74 6F 72 20 21 20 74 68 65 6E 20 6D 61 6E  |actor ! then man|
 BE7C  64 65 6C 62 72 6F 74 20 3B 20 3A 20 74 6D 61 6E  |delbrot ; : tman|
 BE8C  64 65 6C 20 75 70 74 69 6D 65 20 6D 61 6E 64 65  |del uptime mande|
 BE9C  6C 20 75 70 74 69 6D 65 20 3B 20 3A 20 6D 75 6C  |l uptime ; : mul|
 BEAC  74 69 6D 61 6E 64 65 6C 20 31 38 20 73 63 61 6C  |timandel 18 scal|
 BEBC  65 5F 66 61 63 74 6F 72 20 21 20 30 20 64 6F 20  |e_factor ! 0 do |
 BECC  73 63 61 6C 65 5F 66 61 63 74 6F 72 20 40 20 31  |scale_factor @ 1|
 BEDC  2B 20 31 2B 20 73 63 61 6C 65 5F 66 61 63 74 6F  |+ 1+ scale_facto|
 BEEC  72 20 21 20 6D 61 6E 64 65 6C 20 6C 6F 6F 70 20  |r ! mandel loop |
 BEFC  3B 20 3A 20 74 6D 75 6C 74 69 6D 61 6E 64 65 6C  |; : tmultimandel|
 BF0C  20 31 38 20 73 63 61 6C 65 5F 66 61 63 74 6F 72  | 18 scale_factor|
 BF1C  20 21 20 30 20 64 6F 20 73 63 61 6C 65 5F 66 61  | ! 0 do scale_fa|
 BF2C  63 74 6F 72 20 40 20 31 2B 20 31 2B 20 73 63 61  |ctor @ 1+ 1+ sca|
 BF3C  6C 65 5F 66 61 63 74 6F 72 20 21 20 74 6D 61 6E  |le_factor ! tman|
 BF4C  64 65 6C 20 6C 6F 6F 70 20 3B 20 03 00 00 00 ED  |del loop ; .....|
 BF5C  85 F0 85 62 79 65 04 00 57 BF 00 80 C5 80 63 6F  |...bye..W.....co|
 BF6C  6C 64 06 10 62 BF 9C A8 A4 A8 6C 63 64 70 75 74  |ld..b.....lcdput|
 BF7C  08 10 6E BF A5 A8 CF A8 6C 63 64 70 72 69 6E 74  |..n.....lcdprint|
 BF8C  03 00 7C BF D0 A8 D3 A8 63 6C 73 02 08 8C BF AD  |..|.....cls.....|
 BF9C  8D B0 8D 65 64 03 08 97 BF 03 9C 90 9C 73 65 65  |...ed........see|
 BFAC  05 00 A1 BF B8 90 BE 90 66 6F 72 74 68 05 00 AC  |........forth...|
 BFBC  BF C7 97 F1 97 6F 72 64 65 72 06 00 B9 BF D9 A2  |.....order......|
 BFCC  EB A2 3E 6F 72 64 65 72 08 00 C6 BF D7 99 E3 99  |..>order........|
 BFDC  70 72 65 76 69 6F 75 73 04 00 D4 BF 20 83 2F 83  |previous.... ./.|
 BFEC  61 6C 73 6F 04 00 E4 BF A9 97 B4 97 6F 6E 6C 79  |also........only|
 BFFC  0E 00 F0 BF 23 A7 29 A7 66 6F 72 74 68 2D 77 6F  |....#.).forth-wo|
 C00C  72 64 6C 69 73 74 0F 00 FC BF 8A 97 92 97 65 64  |rdlist........ed|
 C01C  69 74 6F 72 2D 77 6F 72 64 6C 69 73 74 12 00 12  |itor-wordlist...|
 C02C  C0 23 A3 2B A3 61 73 73 65 6D 62 6C 65 72 2D 77  |.#.+.assembler-w|
 C03C  6F 72 64 6C 69 73 74 0D 00 29 C0 D0 9A D8 9A 72  |ordlist..).....r|
 C04C  6F 6F 74 2D 77 6F 72 64 6C 69 73 74 09 00 43 C0  |oot-wordlist..C.|
 C05C  24 91 4C 91 67 65 74 2D 6F 72 64 65 72 09 00 58  |$.L.get-order..X|
 C06C  C0 9D 9C D0 9C 73 65 74 2D 6F 72 64 65 72 0B 00  |.....set-order..|
 C07C  69 C0 19 91 23 91 67 65 74 2D 63 75 72 72 65 6E  |i...#.get-curren|
 C08C  74 0B 10 7A C0 91 9C 9C 9C 73 65 74 2D 63 75 72  |t..z.....set-cur|
 C09C  72 65 6E 74 0F 10 8D C0 22 9B 02 9C 73 65 61 72  |rent...."...sear|
 C0AC  63 68 2D 77 6F 72 64 6C 69 73 74 08 00 A0 C0 7D  |ch-wordlist....}|
 C0BC  A6 93 A6 77 6F 72 64 6C 69 73 74 0B 00 B7 C0 DD  |...wordlist.....|
 C0CC  8A E5 8A 64 65 66 69 6E 69 74 69 6F 6E 73 13 10  |...definitions..|
 C0DC  C7 C0 04 84 2C 85 62 6C 6F 63 6B 2D 72 61 6D 64  |....,.block-ramd|
 C0EC  72 69 76 65 2D 69 6E 69 74 04 10 DA C0 6D 93 79  |rive-init....m.y|
 C0FC  93 6C 69 73 74 04 10 F5 C0 48 A1 8C A1 74 68 72  |.list....H...thr|
 C10C  75 04 10 01 C1 A7 93 EA 93 6C 6F 61 64 05 00 0D  |u........load...|
 C11C  C1 77 90 80 90 66 6C 75 73 68 0D 00 19 C1 E9 8D  |.w...flush......|
 C12C  EF 8D 65 6D 70 74 79 2D 62 75 66 66 65 72 73 06  |..empty-buffers.|
 C13C  00 26 C1 A5 85 D5 85 62 75 66 66 65 72 06 00 3B  |.&.....buffer..;|
 C14C  C1 E0 A5 E8 A5 75 70 64 61 74 65 05 00 49 C1 B1  |.....update..I..|
 C15C  83 03 84 62 6C 6F 63 6B 0C 00 57 C1 40 9E 5A 9E  |...block..W.@.Z.|
 C16C  73 61 76 65 2D 62 75 66 66 65 72 73 11 28 64 C1  |save-buffers.(d.|
 C17C  3B 85 4A 85 62 6C 6F 63 6B 2D 72 65 61 64 2D 76  |;.J.block-read-v|
 C18C  65 63 74 6F 72 0A 28 78 C1 2D 85 3B 85 62 6C 6F  |ector.(x.-.;.blo|
 C19C  63 6B 2D 72 65 61 64 12 08 91 C1 5E 85 6D 85 62  |ck-read....^.m.b|
 C1AC  6C 6F 63 6B 2D 77 72 69 74 65 2D 76 65 63 74 6F  |lock-write-vecto|
 C1BC  72 0B 08 A3 C1 50 85 5E 85 62 6C 6F 63 6B 2D 77  |r....P.^.block-w|
 C1CC  72 69 74 65 03 00 BD C1 93 83 A2 83 62 6C 6B 03  |rite........blk.|
 C1DC  00 D0 C1 5B 9E 6A 9E 73 63 72 09 00 DB C1 A3 83  |...[.j.scr......|
 C1EC  B0 83 62 6C 6B 62 75 66 66 65 72 0C 00 E6 C1 95  |..blkbuffer.....|
 C1FC  85 A4 85 62 75 66 66 62 6C 6F 63 6B 6E 75 6D 0A  |...buffblocknum.|
 C20C  00 F7 C1 DD 85 EC 85 62 75 66 66 73 74 61 74 75  |.......buffstatu|
 C21C  73 07 00 0B C2 D6 85 DC 85 62 75 66 66 65 72 3A  |s........buffer:|
 C22C  08 00 1D C2 E9 A5 F3 A5 75 73 65 72 61 64 64 72  |........useraddr|
 C23C  09 04 2C C2 70 82 88 82 61 63 74 69 6F 6E 2D 6F  |..,.p...action-o|
 C24C  66 02 04 3C C2 EB 92 03 93 69 73 06 00 4D C2 D6  |f..<.....is..M..|
 C25C  8A DC 8A 64 65 66 65 72 21 06 00 57 C2 CF 8A D5  |...defer!..W....|
 C26C  8A 64 65 66 65 72 40 07 0D 65 C2 F0 8D 04 8E 65  |.defer@..e.....e|
 C27C  6E 64 63 61 73 65 05 0D 73 C2 B1 8D CA 8D 65 6E  |ndcase..s.....en|
 C28C  64 6F 66 02 0D 82 C2 71 97 89 97 6F 66 04 0D 8F  |dof....q...of...|
 C29C  C2 23 A7 29 A7 63 61 73 65 05 0D 99 C2 0D A6 20  |.#.).case...... |
 C2AC  A6 77 68 69 6C 65 05 0D A5 C2 C5 A5 CF A5 75 6E  |.while........un|
 C2BC  74 69 6C 06 0D B2 C2 BC 9A C8 9A 72 65 70 65 61  |til........repea|
 C2CC  74 04 0D BF C2 B1 8D CA 8D 65 6C 73 65 04 0D CD  |t........else...|
 C2DC  C2 3E A1 47 A1 74 68 65 6E 02 0D D9 C2 F3 91 03  |.>.G.then.......|
 C2EC  92 69 66 02 04 E5 C2 48 8C 56 8C 2E 28 01 04 EF  |.if....H.V..(...|
 C2FC  C2 51 98 60 98 28 04 10 F9 C2 37 A6 7C A6 77 6F  |.Q.`.(....7.|.wo|
 C30C  72 64 04 10 02 C3 83 8F CA 8F 66 69 6E 64 0C 10  |rd........find..|
 C31C  0E C3 05 8E 81 8E 65 6E 76 69 72 6F 6E 6D 65 6E  |......environmen|
 C32C  74 3F 06 18 1A C3 6B 9E 09 9F 73 65 61 72 63 68  |t?....k...search|
 C33C  07 10 2E C3 78 87 DC 87 63 6F 6D 70 61 72 65 06  |....x...compare.|
 C34C  10 3C C3 2A 8B 30 8B 64 69 73 61 73 6D 02 00 4B  |.<.*.0.disasm..K|
 C35C  C3 90 8C D3 8C 2E 73 04 10 59 C3 24 8D 8A 8D 64  |......s..Y.$...d|
 C36C  75 6D 70 04 00 63 C3 84 83 89 83 62 65 6C 6C 05  |ump..c.....bell.|
 C37C  00 6F C3 AA 82 AA 82 61 6C 69 67 6E 07 00 7B C3  |.o.....align..{.|
 C38C  AA 82 AA 82 61 6C 69 67 6E 65 64 08 10 88 C3 F0  |....aligned.....|
 C39C  A6 10 A7 77 6F 72 64 73 69 7A 65 05 00 97 C3 94  |...wordsize.....|
 C3AC  A6 EF A6 77 6F 72 64 73 06 04 A7 C3 99 94 D6 94  |...words........|
 C3BC  6D 61 72 6B 65 72 05 10 B4 C3 50 83 6D 83 61 74  |marker....P.m.at|
 C3CC  2D 78 79 04 00 C2 C3 33 98 50 98 70 61 67 65 02  |-xy....3.P.page.|
 C3DC  00 CF C3 53 89 58 89 63 72 05 00 DB C3 47 92 51  |...S.X.cr....G.Q|
 C3EC  92 69 6E 70 75 74 06 00 E5 C3 0A 98 14 98 6F 75  |.input........ou|
 C3FC  74 70 75 74 04 10 F2 C3 69 9F 7D 9F 73 69 67 6E  |tput....i.}.sign|
 C40C  04 10 00 C4 C7 91 D8 91 68 6F 6C 64 02 10 0C C4  |........hold....|
 C41C  3E 97 5F 97 23 3E 02 10 18 C4 60 97 70 97 23 73  |>._.#>....`.p.#s|
 C42C  01 10 22 C4 09 97 3D 97 23 02 00 2C C4 4A 93 57  |.."...=.#..,.J.W|
 C43C  93 3C 23 03 00 35 C4 2E A2 38 A2 3E 69 6E 06 10  |.<#..5...8.>in..|
 C44C  3F C4 21 A6 36 A6 77 69 74 68 69 6E 08 10 4A C4  |?.!.6.within..J.|
 C45C  74 91 C6 91 68 65 78 73 74 6F 72 65 06 10 58 C4  |t...hexstore..X.|
 C46C  3C 86 88 86 63 6C 65 61 76 65 03 00 68 C4 23 98  |<...cleave..h.#.|
 C47C  32 98 70 61 64 05 10 76 C4 89 86 C3 86 63 6D 6F  |2.pad..v.....cmo|
 C48C  76 65 06 10 81 C4 C4 86 FE 86 63 6D 6F 76 65 3E  |ve........cmove>|
 C49C  04 18 8E C4 B2 95 D0 95 6D 6F 76 65 01 04 9C C4  |........move....|
 C4AC  6E 83 76 83 5C 02 10 A8 C4 E5 A0 ED A0 2A 2F 05  |n.v.\........*/.|
 C4BC  10 B1 C4 EE A0 FD A0 2A 2F 6D 6F 64 03 10 BB C4  |.......*/mod....|
 C4CC  A9 95 B1 95 6D 6F 64 04 10 C8 C4 83 9F 9A 9F 2F  |....mod......../|
 C4DC  6D 6F 64 01 10 D3 C4 7E 9F 9A 9F 2F 06 10 DF C4  |mod....~.../....|
 C4EC  81 90 B7 90 66 6D 2F 6D 6F 64 06 10 E8 C4 57 A0  |....fm/mod....W.|
 C4FC  7F A0 73 6D 2F 72 65 6D 06 10 F6 C4 36 A5 77 A5  |..sm/rem....6.w.|
 C50C  75 6D 2F 6D 6F 64 01 10 04 C5 DC A0 E4 A0 2A 03  |um/mod........*.|
 C51C  10 12 C5 78 A5 BD A5 75 6D 2A 02 10 1B C5 7E 94  |...x...um*....~.|
 C52C  98 94 6D 2A 05 10 26 C5 3F 89 52 89 63 6F 75 6E  |..m*..&.?.R.coun|
 C53C  74 07 00 30 C5 95 8A 9B 8A 64 65 63 69 6D 61 6C  |t..0.....decimal|
 C54C  03 00 3D C5 6D 91 73 91 68 65 78 07 10 4C C5 39  |..=.m.s.hex..L.9|
 C55C  A2 D8 A2 3E 6E 75 6D 62 65 72 06 10 57 C5 7A 96  |...>number..W.z.|
 C56C  08 97 6E 75 6D 62 65 72 06 10 66 C5 F5 8A 29 8B  |..number..f...).|
 C57C  64 69 67 69 74 3F 04 00 74 C5 77 83 7F 83 62 61  |digit?..t.w...ba|
 C58C  73 65 08 10 82 C5 C5 90 18 91 65 76 61 6C 75 61  |se........evalua|
 C59C  74 65 05 00 8E C5 FE A0 08 A1 73 74 61 74 65 05  |te........state.|
 C5AC  17 9E C5 89 82 A9 82 61 67 61 69 6E 05 07 AB C5  |.......again....|
 C5BC  80 83 83 83 62 65 67 69 6E 04 00 B8 C5 83 80 C5  |....begin.......|
 C5CC  80 71 75 69 74 07 0D C5 C5 3D 9A 79 9A 72 65 63  |.quit....=.y.rec|
 C5DC  75 72 73 65 05 03 D1 C5 40 93 45 93 6C 65 61 76  |urse....@.E.leav|
 C5EC  65 06 03 E0 C5 BE A5 C4 A5 75 6E 6C 6F 6F 70 04  |e........unloop.|
 C5FC  03 ED C5 68 8F 69 8F 65 78 69 74 05 05 FB C5 F2  |...h.i.exit.....|
 C60C  93 58 94 2B 6C 6F 6F 70 04 05 07 C6 EB 93 58 94  |.X.+loop......X.|
 C61C  6C 6F 6F 70 01 03 14 C6 04 93 1D 93 6A 01 03 20  |loop........j.. |
 C62C  C6 D9 91 F2 91 69 03 0D 29 C6 4C 8B AC 8B 3F 64  |.....i..).L...?d|
 C63C  6F 02 0D 32 C6 52 8B AC 8B 64 6F 06 0D 3D C6 19  |o..2.R...do..=..|
 C64C  81 23 81 61 62 6F 72 74 22 05 00 47 C6 81 80 C5  |.#.abort"..G....|
 C65C  80 61 62 6F 72 74 0F 00 55 C6 1F A1 29 A1 73 74  |.abort..U...).st|
 C66C  72 69 70 2D 75 6E 64 65 72 66 6C 6F 77 08 00 62  |rip-underflow..b|
 C67C  C6 08 96 12 96 6E 63 2D 6C 69 6D 69 74 0C 00 79  |.....nc-limit..y|
 C68C  C6 14 83 1F 83 61 6C 6C 6F 77 2D 6E 61 74 69 76  |.....allow-nativ|
 C69C  65 0D 00 89 C6 30 83 3D 83 61 6C 77 61 79 73 2D  |e....0.=.always-|
 C6AC  6E 61 74 69 76 65 0C 00 9D C6 24 96 31 96 6E 65  |native....$.1.ne|
 C6BC  76 65 72 2D 6E 61 74 69 76 65 0C 00 B2 C6 F5 88  |ver-native......|
 C6CC  00 89 63 6F 6D 70 69 6C 65 2D 6F 6E 6C 79 09 00  |..compile-only..|
 C6DC  C6 C6 3B 92 46 92 69 6D 6D 65 64 69 61 74 65 08  |..;.F.immediate.|
 C6EC  05 DA C6 98 99 D6 99 70 6F 73 74 70 6F 6E 65 03  |.......postpone.|
 C6FC  04 EB C6 09 9B 12 9B 73 5C 22 02 0C FB C6 D1 9C  |.......s\"......|
 C70C  2D 9E 73 22 02 05 06 C7 57 8C 61 8C 2E 22 08 15  |-.s"....W.a.."..|
 C71C  10 C7 BB 9F 2A A0 73 6C 69 74 65 72 61 6C 07 15  |....*.sliteral..|
 C72C  1A C7 7A 93 87 93 6C 69 74 65 72 61 6C 01 04 2A  |..z...literal..*|
 C73C  C7 C9 9A CF 9A 5D 01 05 39 C7 45 93 49 93 5B 08  |.....]..9.E.I.[.|
 C74C  18 42 C7 DD 87 F4 88 63 6F 6D 70 69 6C 65 2C 07  |.B.....compile,.|
 C75C  00 4B C7 42 87 5D 87 3A 6E 6F 6E 61 6D 65 01 05  |.K.B.].:noname..|
 C76C  5B C7 0A 9F 68 9F 3B 01 00 6A C7 FF 86 41 87 3A  |[...h.;..j...A.:|
 C77C  09 00 73 C7 95 A0 9F A0 73 6F 75 72 63 65 2D 69  |..s.....source-i|
 C78C  64 06 00 7C C7 80 A0 94 A0 73 6F 75 72 63 65 0F  |d..|.....source.|
 C79C  10 8D C7 41 8F 67 8F 65 78 65 63 75 74 65 2D 70  |...A.g.execute-p|
 C7AC  61 72 73 69 6E 67 05 10 9B C7 BC 98 53 99 70 61  |arsing......S.pa|
 C7BC  72 73 65 0A 08 B2 C7 61 98 53 99 70 61 72 73 65  |rse....a.S.parse|
 C7CC  2D 6E 61 6D 65 08 00 BF C7 2B 93 38 93 6C 61 74  |-name....+.8.lat|
 C7DC  65 73 74 6E 74 08 00 D1 C7 39 93 3F 93 6C 61 74  |estnt....9.?.lat|
 C7EC  65 73 74 78 74 05 00 E1 C7 9C 8A CE 8A 64 65 66  |estxt........def|
 C7FC  65 72 05 10 F1 C7 09 A2 2D A2 3E 62 6F 64 79 0B  |er......-.>body.|
 C80C  10 FE C7 EE 95 07 96 6E 61 6D 65 3E 73 74 72 69  |.......name>stri|
 C81C  6E 67 08 10 0B C8 68 92 DA 92 69 6E 74 3E 6E 61  |ng....h...int>na|
 C82C  6D 65 08 10 1E C8 D1 95 ED 95 6E 61 6D 65 3E 69  |me........name>i|
 C83C  6E 74 03 05 2E C8 8E 85 94 85 5B 27 5D 01 00 3E  |nt........[']..>|
 C84C  C8 8D A1 AC A1 27 09 10 49 C8 CB 8F 76 90 66 69  |.....'..I...v.fi|
 C85C  6E 64 2D 6E 61 6D 65 04 10 52 C8 EA 8E 2C 8F 66  |nd-name..R...,.f|
 C86C  69 6C 6C 05 00 63 C8 DA 8E 2C 8F 62 6C 61 6E 6B  |ill..c...,.blank|
 C87C  05 00 6F C8 E4 8E 2C 8F 65 72 61 73 65 02 10 7C  |..o...,.erase..||
 C88C  C8 4F 8A 6F 8A 64 2B 02 10 89 C8 2E 8A 4E 8A 64  |.O.o.d+......N.d|
 C89C  2D 03 10 93 C8 70 8A 75 8A 64 3E 73 03 10 9D C8  |-....p.u.d>s....|
 C8AC  2E 9E 3F 9E 73 3E 64 02 0C A8 C8 AD A1 08 A2 74  |..?.s>d........t|
 C8BC  6F 05 10 B3 C8 01 89 3E 89 76 61 6C 75 65 08 10  |o......>.value..|
 C8CC  BD C8 01 89 3E 89 63 6F 6E 73 74 61 6E 74 08 00  |....>.constant..|
 C8DC  CA C8 F4 A5 0C A6 76 61 72 69 61 62 6C 65 05 05  |......variable..|
 C8EC  DA C8 E5 8B F3 8B 64 6F 65 73 3E 06 00 EA C8 59  |......does>....Y|
 C8FC  89 2D 8A 63 72 65 61 74 65 05 10 F7 C8 AB 82 13  |.-.create.......|
 C90C  83 61 6C 6C 6F 74 03 00 05 C9 1E 93 27 93 6B 65  |.allot......'.ke|
 C91C  79 05 00 12 C9 E6 8A F4 8A 64 65 70 74 68 06 00  |y........depth..|
 C92C  1D C9 D0 A5 DF A5 75 6E 75 73 65 64 07 08 2A C9  |......unused..*.|
 C93C  25 9A 3C 9A 72 3E 69 6E 70 75 74 07 08 38 C9 52  |%.<.r>input..8.R|
 C94C  92 67 92 69 6E 70 75 74 3E 72 06 18 47 C9 4E 81  |.g.input>r..G.N.|
 C95C  46 82 61 63 63 65 70 74 06 00 56 C9 7A 9A BB 9A  |F.accept..V.z...|
 C96C  72 65 66 69 6C 6C 07 10 64 C9 9B 9F BA 9F 2F 73  |refill..d...../s|
 C97C  74 72 69 6E 67 08 10 72 C9 53 95 6B 95 2D 6C 65  |tring..r.S.k.-le|
 C98C  61 64 69 6E 67 09 10 81 C9 6C 95 A8 95 2D 74 72  |ading....l...-tr|
 C99C  61 69 6C 69 6E 67 02 00 91 C9 8A 83 92 83 62 6C  |ailing........bl|
 C9AC  06 10 A2 C9 A6 A0 DB A0 73 70 61 63 65 73 06 10  |........spaces..|
 C9BC  AC C9 6E 85 86 85 62 6F 75 6E 64 73 02 10 BA C9  |..n...bounds....|
 C9CC  F0 85 FA 85 63 2C 07 10 C8 C9 31 8B 4B 8B 64 6E  |....c,....1.K.dn|
 C9DC  65 67 61 74 65 06 10 D2 C9 13 96 23 96 6E 65 67  |egate......#.neg|
 C9EC  61 74 65 06 10 E1 C9 DB 92 EA 92 69 6E 76 65 72  |ate........inver|
 C9FC  74 03 11 EF C9 1E A4 3D A4 32 3E 72 03 01 FD C9  |t......=.2>r....|
 CA0C  A4 A3 C0 A3 32 72 3E 03 09 08 CA 86 A3 A3 A3 32  |....2r>........2|
 CA1C  72 40 08 14 13 CA 63 A4 6F A4 32 6C 69 74 65 72  |r@....c.o.2liter|
 CA2C  61 6C 09 10 1E CA 3E A4 62 A4 32 63 6F 6E 73 74  |al....>.b.2const|
 CA3C  61 6E 74 09 00 2E CA 70 A4 7E A4 32 76 61 72 69  |ant....p.~.2vari|
 CA4C  61 62 6C 65 02 10 3F CA 4C A3 6D A3 32 40 02 10  |able..?.L.m.2@..|
 CA5C  50 CA D4 A3 F9 A3 32 21 05 10 5A CA 6E A3 85 A3  |P.....2!..Z.n...|
 CA6C  32 6F 76 65 72 05 10 64 CA FA A3 1D A4 32 73 77  |2over..d.....2sw|
 CA7C  61 70 05 10 71 CA 2C A3 33 A3 32 64 72 6F 70 03  |ap..q.,.3.2drop.|
 CA8C  10 7E CA 08 95 23 95 6D 61 78 03 10 8B CA 24 95  |.~...#.max....$.|
 CA9C  3F 95 6D 69 6E 02 10 96 CA 52 A7 61 A7 30 3C 02  |?.min....R.a.0<.|
 CAAC  10 A1 CA 3E A7 51 A7 30 3E 03 10 AB CA 62 A7 73  |...>.Q.0>....b.s|
 CABC  A7 30 3C 3E 02 10 B5 CA 2A A7 3D A7 30 3D 01 10  |.0<>....*.=.0=..|
 CACC  C0 CA 4D 91 61 91 3E 02 10 CA CA D8 A4 ED A4 75  |..M.a.>........u|
 CADC  3E 02 10 D3 CA EE A4 03 A5 75 3C 01 10 DD CA 58  |>........u<....X|
 CAEC  93 6C 93 3C 02 10 E7 CA 40 96 5D 96 3C 3E 01 10  |.l.<....@.].<>..|
 CAFC  F0 CA BE 8E D9 8E 3D 02 10 FA CA C1 A3 CB A3 32  |......=........2|
 CB0C  2F 02 10 03 CB CC A3 D3 A3 32 2A 02 10 0D CB 9F  |/........2*.....|
 CB1C  97 A8 97 31 2B 02 10 17 CB 93 97 9E 97 31 2D 04  |...1+........1-.|
 CB2C  00 21 CB 62 91 6C 91 68 65 72 65 05 10 2B CB 11  |.!.b.l.here..+..|
 CB3C  86 20 86 63 65 6C 6C 2B 05 00 37 CB CC A3 D3 A3  |. .cell+..7.....|
 CB4C  63 65 6C 6C 73 05 12 44 CB 38 86 3B 86 63 68 61  |cells..D.8.;.cha|
 CB5C  72 73 05 00 51 CB 9F 97 A8 97 63 68 61 72 2B 06  |rs..Q.....char+.|
 CB6C  05 5E CB 87 85 8D 85 5B 63 68 61 72 5D 04 00 6B  |.^.....[char]..k|
 CB7C  CB 21 86 37 86 63 68 61 72 04 00 79 CB 54 99 64  |.!.7.char..y.T.d|
 CB8C  99 70 69 63 6B 06 10 85 CB 6A 94 7D 94 6C 73 68  |.pick....j.}.lsh|
 CB9C  69 66 74 06 10 91 CB F5 9A 08 9B 72 73 68 69 66  |ift........rshif|
 CBAC  74 03 10 9F CB 11 A7 22 A7 78 6F 72 02 10 AD CB  |t......".xor....|
 CBBC  B5 97 C6 97 6F 72 03 10 B8 CB 3E 83 4F 83 61 6E  |....or....>.O.an|
 CBCC  64 04 10 C2 CB 76 8A 94 8A 64 61 62 73 03 10 CD  |d....v...dabs...|
 CBDC  CB 39 81 4D 81 61 62 73 01 10 D9 CB 40 95 52 95  |.9.M.abs....@.R.|
 CBEC  2D 01 10 E4 CB 65 99 77 99 2B 04 10 ED CB EB 99  |-....e.w.+......|
 CBFC  FE 99 3F 64 75 70 04 10 F6 CB 34 A3 4B A3 32 64  |..?dup....4.K.2d|
 CC0C  75 70 01 00 02 CC 23 A3 2B A3 32 01 00 0E CC 8A  |up....#.+.2.....|
 CC1C  97 92 97 31 01 00 17 CC 23 A7 29 A7 30 05 00 20  |...1....#.).0.. |
 CC2C  CC A0 A0 A5 A0 73 70 61 63 65 04 00 29 CC 00 A3  |.....space..)...|
 CC3C  08 A3 74 72 75 65 05 00 36 CC 69 8F 6F 8F 66 61  |..true..6.i.o.fa|
 CC4C  6C 73 65 01 00 42 CC E4 99 EA 99 3F 04 10 4F CC  |lse..B.....?..O.|
 CC5C  17 A5 35 A5 75 64 2E 72 03 10 58 CC 04 A5 16 A5  |..5.ud.r..X.....|
 CC6C  75 64 2E 03 10 64 CC F3 8C 1D 8D 64 2E 72 02 10  |ud...d.....d.r..|
 CC7C  6F CC D4 8C F2 8C 64 2E 02 10 7A CC 62 8C 8F 8C  |o.....d...z.b...|
 CC8C  2E 72 03 10 84 CC B6 A4 D7 A4 75 2E 72 02 10 8E  |.r........u.r...|
 CC9C  CC AA A4 B5 A4 75 2E 01 10 99 CC 26 8C 47 8C 2E  |.....u.....&.G..|
 CCAC  04 10 A3 CC 7F A4 A9 A4 74 79 70 65 04 18 AC CC  |........type....|
 CCBC  DF 8D E9 8D 65 6D 69 74 07 10 B8 CC 2D 8F 33 8F  |....emit....-.3.|
 CCCC  65 78 65 63 75 74 65 02 10 C4 CC 78 99 97 99 2B  |execute....x...+|
 CCDC  21 02 10 D3 CC 05 86 10 86 63 21 02 10 DD CC FB  |!........c!.....|
 CCEC  85 04 86 63 40 01 10 E7 CC 5E 87 77 87 2C 04 10  |...c@....^.w.,..|
 CCFC  F1 CC 09 A3 22 A3 74 75 63 6B 04 10 FA CC 5E 96  |....".tuck....^.|
 CD0C  79 96 2D 72 6F 74 03 10 06 CD D9 9A F4 9A 72 6F  |y.-rot........ro|
 CD1C  74 03 10 12 CD 32 96 3F 96 6E 69 70 02 01 1D CD  |t....2.?.nip....|
 CD2C  FF 99 13 9A 72 40 02 01 28 CD 14 9A 24 9A 72 3E  |....r@..(...$.r>|
 CD3C  02 11 32 CD EC A2 FF A2 3E 72 04 10 3C CD 15 98  |..2.....>r..<...|
 CD4C  22 98 6F 76 65 72 01 10 46 CD 70 8F 82 8F 40 01  |".over..F.p...@.|
 CD5C  10 52 CD 09 A1 1E A1 21 04 10 5B CD 2A A1 3D A1  |.R.....!..[.*.=.|
 CD6C  73 77 61 70 03 10 64 CD 9F 8D AC 8D 64 75 70 04  |swap..d.....dup.|
 CD7C  10 70 CD 1E 8D 23 8D 64 72 6F 70 05 00 00 00 94  |.p...#.drop.....|
 CD8C  A6 EF A6 77 6F 72 64 73 0E 00 87 CD 23 A7 29 A7  |...words....#.).|
 CD9C  66 6F 72 74 68 2D 77 6F 72 64 6C 69 73 74 05 00  |forth-wordlist..|
 CDAC  94 CD B8 90 BE 90 66 6F 72 74 68 09 00 AA CD 9D  |......forth.....|
 CDBC  9C D0 9C 73 65 74 2D 6F 72 64 65 72 0C 00 00 00  |...set-order....|
 CDCC  81 A7 9C A7 65 6E 74 65 72 2D 73 63 72 65 65 6E  |....enter-screen|
 CDDC  0C 00 C8 CD 9D A7 AE A7 65 72 61 73 65 2D 73 63  |........erase-sc|
 CDEC  72 65 65 6E 02 00 DC CD AF A7 C0 A7 65 6C 01 00  |reen........el..|
 CDFC  F0 CD C1 A7 3C A8 6C 04 10 FA CD 3D A8 55 A8 6C  |....<.l....=.U.l|
 CE0C  69 6E 65 01 00 03 CE 56 A8 9B A8 6F 05 04 25 CE  |ine....V...o..%.|
 CE1C  D4 A8 D9 A8 61 64 63 2E 23 05 04 32 CE D9 A8 DE  |....adc.#..2....|
 CE2C  A8 61 64 63 2E 78 05 04 3F CE DE A8 E3 A8 61 64  |.adc.x..?.....ad|
 CE3C  63 2E 79 05 04 4C CE E3 A8 E8 A8 61 64 63 2E 7A  |c.y..L.....adc.z|
 CE4C  06 04 5A CE E8 A8 ED A8 61 64 63 2E 7A 69 07 04  |..Z.....adc.zi..|
 CE5C  69 CE ED A8 F2 A8 61 64 63 2E 7A 69 79 06 04 77  |i.....adc.ziy..w|
 CE6C  CE F2 A8 F7 A8 61 64 63 2E 7A 78 07 04 86 CE F7  |.....adc.zx.....|
 CE7C  A8 FC A8 61 64 63 2E 7A 78 69 04 04 92 CE FC A8  |...adc.zxi......|
 CE8C  01 A9 61 6E 64 2E 05 04 9F CE 01 A9 06 A9 61 6E  |..and.........an|
 CE9C  64 2E 23 05 04 AC CE 06 A9 0B A9 61 6E 64 2E 78  |d.#........and.x|
 CEAC  05 04 B9 CE 0B A9 10 A9 61 6E 64 2E 79 05 04 C6  |........and.y...|
 CEBC  CE 10 A9 15 A9 61 6E 64 2E 7A 06 04 D4 CE 15 A9  |.....and.z......|
 CECC  1A A9 61 6E 64 2E 7A 69 07 04 E3 CE 1A A9 1F A9  |..and.zi........|
 CEDC  61 6E 64 2E 7A 69 79 06 04 F1 CE 1F A9 24 A9 61  |and.ziy......$.a|
 CEEC  6E 64 2E 7A 78 07 04 00 CF 24 A9 29 A9 61 6E 64  |nd.zx....$.).and|
 CEFC  2E 7A 78 69 03 04 0B CF 29 A9 2E A9 61 73 6C 05  |.zxi....)...asl.|
 CF0C  04 18 CF 2E A9 33 A9 61 73 6C 2E 61 05 04 25 CF  |.....3.asl.a..%.|
 CF1C  33 A9 38 A9 61 73 6C 2E 78 05 04 32 CF 38 A9 3D  |3.8.asl.x..2.8.=|
 CF2C  A9 61 73 6C 2E 7A 06 04 40 CF 3D A9 42 A9 61 73  |.asl.z..@.=.B.as|
 CF3C  6C 2E 7A 78 03 04 4B CF 42 A9 47 A9 62 63 63 03  |l.zx..K.B.G.bcc.|
 CF4C  04 56 CF 47 A9 4E A9 62 63 73 03 04 61 CF 4E A9  |.V.G.N.bcs..a.N.|
 CF5C  53 A9 62 65 71 03 04 6C CF 53 A9 58 A9 62 69 74  |S.beq..l.S.X.bit|
 CF6C  05 04 79 CF 58 A9 5D A9 62 69 74 2E 23 05 04 86  |..y.X.].bit.#...|
 CF7C  CF 5D A9 62 A9 62 69 74 2E 78 05 04 93 CF 62 A9  |.].b.bit.x....b.|
 CF8C  67 A9 62 69 74 2E 7A 06 04 A1 CF 67 A9 6C A9 62  |g.bit.z....g.l.b|
 CF9C  69 74 2E 7A 78 03 04 AC CF 6C A9 71 A9 62 6D 69  |it.zx....l.q.bmi|
 CFAC  03 04 B7 CF 71 A9 76 A9 62 6E 65 03 04 C2 CF 76  |....q.v.bne....v|
 CFBC  A9 7B A9 62 70 6C 03 04 CD CF 7B A9 80 A9 62 72  |.{.bpl....{...br|
 CFCC  61 03 04 D8 CF 80 A9 85 A9 62 72 6B 03 04 E3 CF  |a........brk....|
 CFDC  85 A9 8A A9 62 76 63 03 04 EE CF 8A A9 8F A9 62  |....bvc........b|
 CFEC  76 73 03 04 F9 CF 8F A9 94 A9 63 6C 63 03 04 04  |vs........clc...|
 CFFC  D0 94 A9 99 A9 63 6C 64 03 04 0F D0 99 A9 9E A9  |.....cld........|
 D00C  63 6C 69 03 04 1A D0 9E A9 A3 A9 63 6C 76 03 04  |cli........clv..|
 D01C  25 D0 A3 A9 A8 A9 63 6D 70 05 04 32 D0 A8 A9 AD  |%.....cmp..2....|
 D02C  A9 63 6D 70 2E 23 05 04 3F D0 AD A9 B2 A9 63 6D  |.cmp.#..?.....cm|
 D03C  70 2E 78 05 04 4C D0 B2 A9 B7 A9 63 6D 70 2E 79  |p.x..L.....cmp.y|
 D04C  05 04 59 D0 B7 A9 BC A9 63 6D 70 2E 7A 06 04 67  |..Y.....cmp.z..g|
 D05C  D0 BC A9 C1 A9 63 6D 70 2E 7A 69 07 04 76 D0 C1  |.....cmp.zi..v..|
 D06C  A9 C6 A9 63 6D 70 2E 7A 69 79 06 04 84 D0 C6 A9  |...cmp.ziy......|
 D07C  CB A9 63 6D 70 2E 7A 78 07 04 93 D0 CB A9 D0 A9  |..cmp.zx........|
 D08C  63 6D 70 2E 7A 78 69 03 04 9E D0 D0 A9 D5 A9 63  |cmp.zxi........c|
 D09C  70 78 05 04 AB D0 D5 A9 DA A9 63 70 78 2E 23 05  |px........cpx.#.|
 D0AC  04 B8 D0 DA A9 DF A9 63 70 78 2E 7A 03 04 C3 D0  |.......cpx.z....|
 D0BC  DF A9 E6 A9 63 70 79 05 04 D0 D0 E6 A9 EB A9 63  |....cpy........c|
 D0CC  70 79 2E 23 05 04 DD D0 EB A9 F0 A9 63 70 79 2E  |py.#........cpy.|
 D0DC  7A 03 04 E8 D0 F0 A9 F5 A9 64 65 63 05 04 F5 D0  |z........dec....|
 D0EC  F5 A9 FA A9 64 65 63 2E 61 05 04 02 D1 FA A9 FF  |....dec.a.......|
 D0FC  A9 64 65 63 2E 78 05 04 0F D1 FF A9 04 AA 64 65  |.dec.x........de|
 D10C  63 2E 7A 06 04 1D D1 04 AA 09 AA 64 65 63 2E 7A  |c.z........dec.z|
 D11C  78 03 04 28 D1 09 AA 0E AA 64 65 78 03 04 33 D1  |x..(.....dex..3.|
 D12C  0E AA 13 AA 64 65 79 03 04 3E D1 13 AA 18 AA 65  |....dey..>.....e|
 D13C  6F 72 05 04 4B D1 18 AA 1D AA 65 6F 72 2E 23 05  |or..K.....eor.#.|
 D14C  04 58 D1 1D AA 22 AA 65 6F 72 2E 78 05 04 65 D1  |.X...".eor.x..e.|
 D15C  22 AA 27 AA 65 6F 72 2E 79 05 04 72 D1 27 AA 2C  |".'.eor.y..r.'.,|
 D16C  AA 65 6F 72 2E 7A 06 04 80 D1 2C AA 31 AA 65 6F  |.eor.z....,.1.eo|
 D17C  72 2E 7A 69 07 04 8F D1 31 AA 36 AA 65 6F 72 2E  |r.zi....1.6.eor.|
 D18C  7A 69 79 06 04 9D D1 36 AA 3B AA 65 6F 72 2E 7A  |ziy....6.;.eor.z|
 D19C  78 07 04 AC D1 3B AA 40 AA 65 6F 72 2E 7A 78 69  |x....;.@.eor.zxi|
 D1AC  03 04 B7 D1 40 AA 45 AA 69 6E 63 05 04 C4 D1 45  |....@.E.inc....E|
 D1BC  AA 4A AA 69 6E 63 2E 61 05 04 D1 D1 4A AA 4F AA  |.J.inc.a....J.O.|
 D1CC  69 6E 63 2E 78 05 04 DE D1 4F AA 54 AA 69 6E 63  |inc.x....O.T.inc|
 D1DC  2E 7A 06 04 EC D1 54 AA 59 AA 69 6E 63 2E 7A 78  |.z....T.Y.inc.zx|
 D1EC  03 04 F7 D1 59 AA 5E AA 69 6E 78 03 04 02 D2 5E  |....Y.^.inx....^|
 D1FC  AA 63 AA 69 6E 79 03 04 0D D2 63 AA 68 AA 6A 6D  |.c.iny....c.h.jm|
 D20C  70 05 04 1A D2 68 AA 6D AA 6A 6D 70 2E 69 06 04  |p....h.m.jmp.i..|
 D21C  28 D2 6D AA 72 AA 6A 6D 70 2E 78 69 03 04 33 D2  |(.m.r.jmp.xi..3.|
 D22C  72 AA 77 AA 6A 73 72 03 04 3E D2 77 AA 7C AA 6C  |r.w.jsr..>.w.|.l|
 D23C  64 61 05 04 4B D2 7C AA 81 AA 6C 64 61 2E 23 05  |da..K.|...lda.#.|
 D24C  04 58 D2 81 AA 86 AA 6C 64 61 2E 78 05 04 65 D2  |.X.....lda.x..e.|
 D25C  86 AA 8B AA 6C 64 61 2E 79 05 04 72 D2 8B AA 90  |....lda.y..r....|
 D26C  AA 6C 64 61 2E 7A 06 04 80 D2 90 AA 95 AA 6C 64  |.lda.z........ld|
 D27C  61 2E 7A 69 07 04 8F D2 95 AA 9A AA 6C 64 61 2E  |a.zi........lda.|
 D28C  7A 69 79 06 04 9D D2 9A AA 9F AA 6C 64 61 2E 7A  |ziy........lda.z|
 D29C  78 07 04 AC D2 9F AA A4 AA 6C 64 61 2E 7A 78 69  |x........lda.zxi|
 D2AC  03 04 B7 D2 A4 AA A9 AA 6C 64 78 05 04 C4 D2 A9  |........ldx.....|
 D2BC  AA AE AA 6C 64 78 2E 23 05 04 D1 D2 AE AA B3 AA  |...ldx.#........|
 D2CC  6C 64 78 2E 79 05 04 DE D2 B3 AA B8 AA 6C 64 78  |ldx.y........ldx|
 D2DC  2E 7A 06 04 EC D2 B8 AA BD AA 6C 64 78 2E 7A 79  |.z........ldx.zy|
 D2EC  03 04 F7 D2 BD AA C2 AA 6C 64 79 05 04 04 D3 C2  |........ldy.....|
 D2FC  AA C7 AA 6C 64 79 2E 23 05 04 11 D3 C7 AA CC AA  |...ldy.#........|
 D30C  6C 64 79 2E 78 05 04 1E D3 CC AA D1 AA 6C 64 79  |ldy.x........ldy|
 D31C  2E 7A 06 04 2C D3 D1 AA D6 AA 6C 64 79 2E 7A 78  |.z..,.....ldy.zx|
 D32C  03 04 37 D3 D6 AA DB AA 6C 73 72 05 04 44 D3 DB  |..7.....lsr..D..|
 D33C  AA E0 AA 6C 73 72 2E 61 05 04 51 D3 E0 AA E5 AA  |...lsr.a..Q.....|
 D34C  6C 73 72 2E 78 05 04 5E D3 E5 AA EA AA 6C 73 72  |lsr.x..^.....lsr|
 D35C  2E 7A 06 04 6C D3 EA AA EF AA 6C 73 72 2E 7A 78  |.z..l.....lsr.zx|
 D36C  03 04 77 D3 EF AA F4 AA 6E 6F 70 03 04 82 D3 F4  |..w.....nop.....|
 D37C  AA F9 AA 6F 72 61 05 04 8F D3 F9 AA FE AA 6F 72  |...ora........or|
 D38C  61 2E 23 05 04 9C D3 FE AA 03 AB 6F 72 61 2E 78  |a.#........ora.x|
 D39C  05 04 A9 D3 03 AB 08 AB 6F 72 61 2E 79 05 04 B6  |........ora.y...|
 D3AC  D3 08 AB 0D AB 6F 72 61 2E 7A 06 04 C4 D3 0D AB  |.....ora.z......|
 D3BC  14 AB 6F 72 61 2E 7A 69 07 04 D3 D3 14 AB 19 AB  |..ora.zi........|
 D3CC  6F 72 61 2E 7A 69 79 06 04 E1 D3 19 AB 1E AB 6F  |ora.ziy........o|
 D3DC  72 61 2E 7A 78 07 04 F0 D3 1E AB 23 AB 6F 72 61  |ra.zx......#.ora|
 D3EC  2E 7A 78 69 03 04 FB D3 23 AB 28 AB 70 68 61 03  |.zxi....#.(.pha.|
 D3FC  04 06 D4 28 AB 2D AB 70 68 70 03 04 11 D4 2D AB  |...(.-.php....-.|
 D40C  32 AB 70 68 78 03 04 1C D4 32 AB 37 AB 70 68 79  |2.phx....2.7.phy|
 D41C  03 04 27 D4 37 AB 3C AB 70 6C 61 03 04 32 D4 3C  |..'.7.<.pla..2.<|
 D42C  AB 41 AB 70 6C 70 03 04 3D D4 41 AB 46 AB 70 6C  |.A.plp..=.A.F.pl|
 D43C  78 03 04 48 D4 46 AB 4B AB 70 6C 79 03 04 53 D4  |x..H.F.K.ply..S.|
 D44C  4B AB 50 AB 72 6F 6C 05 04 60 D4 50 AB 55 AB 72  |K.P.rol..`.P.U.r|
 D45C  6F 6C 2E 61 05 04 6D D4 55 AB 5A AB 72 6F 6C 2E  |ol.a..m.U.Z.rol.|
 D46C  78 05 04 7A D4 5A AB 5F AB 72 6F 6C 2E 7A 06 04  |x..z.Z._.rol.z..|
 D47C  88 D4 5F AB 64 AB 72 6F 6C 2E 7A 78 03 04 93 D4  |.._.d.rol.zx....|
 D48C  64 AB 69 AB 72 6F 72 05 04 A0 D4 69 AB 6E AB 72  |d.i.ror....i.n.r|
 D49C  6F 72 2E 61 05 04 AD D4 6E AB 73 AB 72 6F 72 2E  |or.a....n.s.ror.|
 D4AC  78 05 04 BA D4 73 AB 78 AB 72 6F 72 2E 7A 06 04  |x....s.x.ror.z..|
 D4BC  C8 D4 78 AB 7D AB 72 6F 72 2E 7A 78 03 04 D3 D4  |..x.}.ror.zx....|
 D4CC  7D AB 82 AB 72 74 69 03 04 DE D4 82 AB 87 AB 72  |}...rti........r|
 D4DC  74 73 03 04 E9 D4 87 AB 8C AB 73 62 63 05 04 F6  |ts........sbc...|
 D4EC  D4 8C AB 91 AB 73 62 63 2E 23 05 04 03 D5 91 AB  |.....sbc.#......|
 D4FC  96 AB 73 62 63 2E 78 05 04 10 D5 96 AB 9B AB 73  |..sbc.x........s|
 D50C  62 63 2E 79 05 04 1D D5 9B AB A0 AB 73 62 63 2E  |bc.y........sbc.|
 D51C  7A 06 04 2B D5 A0 AB A5 AB 73 62 63 2E 7A 69 07  |z..+.....sbc.zi.|
 D52C  04 3A D5 A5 AB AA AB 73 62 63 2E 7A 69 79 06 04  |.:.....sbc.ziy..|
 D53C  48 D5 AA AB AF AB 73 62 63 2E 7A 78 07 04 57 D5  |H.....sbc.zx..W.|
 D54C  AF AB B3 AB 73 62 63 2E 7A 78 69 03 04 62 D5 B3  |....sbc.zxi..b..|
 D55C  AB B7 AB 73 65 63 03 04 6D D5 B7 AB BB AB 73 65  |...sec..m.....se|
 D56C  64 03 04 78 D5 BB AB BF AB 73 65 69 03 04 83 D5  |d..x.....sei....|
 D57C  BF AB C3 AB 73 74 61 05 04 90 D5 C3 AB C7 AB 73  |....sta........s|
 D58C  74 61 2E 78 05 04 9D D5 C7 AB CB AB 73 74 61 2E  |ta.x........sta.|
 D59C  79 05 04 AA D5 CB AB CF AB 73 74 61 2E 7A 06 04  |y........sta.z..|
 D5AC  B8 D5 CF AB D3 AB 73 74 61 2E 7A 69 07 04 C7 D5  |......sta.zi....|
 D5BC  D3 AB D7 AB 73 74 61 2E 7A 69 79 06 04 D5 D5 D7  |....sta.ziy.....|
 D5CC  AB DB AB 73 74 61 2E 7A 78 07 04 E4 D5 DB AB DF  |...sta.zx.......|
 D5DC  AB 73 74 61 2E 7A 78 69 03 04 EF D5 DF AB E3 AB  |.sta.zxi........|
 D5EC  73 74 78 05 04 FC D5 E3 AB E7 AB 73 74 78 2E 7A  |stx........stx.z|
 D5FC  06 04 0A D6 E7 AB EB AB 73 74 78 2E 7A 79 03 04  |........stx.zy..|
 D60C  15 D6 EB AB EF AB 73 74 79 05 04 22 D6 EF AB F3  |......sty.."....|
 D61C  AB 73 74 79 2E 7A 06 04 30 D6 F3 AB F7 AB 73 74  |.sty.z..0.....st|
 D62C  79 2E 7A 78 03 04 3B D6 F7 AB FB AB 73 74 7A 05  |y.zx..;.....stz.|
 D63C  04 48 D6 FB AB FF AB 73 74 7A 2E 78 05 04 55 D6  |.H.....stz.x..U.|
 D64C  FF AB 03 AC 73 74 7A 2E 7A 06 04 63 D6 03 AC 07  |....stz.z..c....|
 D65C  AC 73 74 7A 2E 7A 78 03 04 6E D6 07 AC 0B AC 74  |.stz.zx..n.....t|
 D66C  61 78 03 04 79 D6 0B AC 0F AC 74 61 79 03 04 84  |ax..y.....tay...|
 D67C  D6 0F AC 13 AC 74 72 62 05 04 91 D6 13 AC 17 AC  |.....trb........|
 D68C  74 72 62 2E 7A 03 04 9C D6 17 AC 1B AC 74 73 62  |trb.z........tsb|
 D69C  05 04 A9 D6 1B AC 1F AC 74 73 62 2E 7A 03 04 B4  |........tsb.z...|
 D6AC  D6 1F AC 23 AC 74 73 78 03 04 BF D6 23 AC 27 AC  |...#.tsx....#.'.|
 D6BC  74 78 61 03 04 CA D6 27 AC 2B AC 74 78 73 03 04  |txa....'.+.txs..|
 D6CC  D5 D6 2B AC 2F AC 74 79 61 03 04 E0 D6 62 91 6C  |..+./.tya....b.l|
 D6DC  91 2D 2D 3E 02 04 EA D6 80 AC 80 AC 3C 6A 02 04  |.-->........<j..|
 D6EC  F4 D6 81 AC 89 AC 3C 62 06 04 00 00 69 AC 78 AC  |......<b....i.x.|
 D6FC  70 75 73 68 2D 61 1C D7 20 D7 2A D7 90 D7 35 D7  |push-a.. .*...5.|
 D70C  59 D7 88 D7 7D D7 97 D7 9D D7 B9 D7 BE D7 C3 D7  |Y...}...........|
 D71C  20 6F 6B 00 20 63 6F 6D 70 69 6C 65 64 00 72 65  | ok. compiled.re|
 D72C  64 65 66 69 6E 65 64 20 00 30 31 32 33 34 35 36  |defined .0123456|
 D73C  37 38 39 61 62 63 64 65 66 67 68 69 6A 6B 6C 6D  |789abcdefghijklm|
 D74C  6E 6F 70 71 72 73 74 75 76 77 78 79 7A 30 31 32  |nopqrstuvwxyz012|
 D75C  33 34 35 36 37 38 39 41 42 43 44 45 46 47 48 49  |3456789ABCDEFGHI|
 D76C  4A 4B 4C 4D 4E 4F 50 51 52 53 54 55 56 57 58 59  |JKLMNOPQRSTUVWXY|
 D77C  5A 41 73 73 65 6D 62 6C 65 72 20 00 45 64 69 74  |ZAssembler .Edit|
 D78C  6F 72 20 00 46 6F 72 74 68 20 00 52 6F 6F 74 20  |or .Forth .Root |
 D79C  00 66 6C 61 67 73 20 28 43 4F 20 41 4E 20 49 4D  |.flags (CO AN IM|
 D7AC  20 4E 4E 20 55 46 20 48 43 29 3A 20 00 6E 74 3A  | NN UF HC): .nt:|
 D7BC  20 00 78 74 3A 20 00 73 69 7A 65 20 28 64 65 63  | .xt: .size (dec|
 D7CC  69 6D 61 6C 29 3A 20 00 EE D7 0F D8 2F D8 50 D8  |imal): ...../.P.|
 D7DC  6D D8 7E D8 8E D8 BC D8 D4 D8 E3 D8 F3 D8 0F D9  |m.~.............|
 D7EC  26 D9 41 4C 4C 4F 54 20 75 73 69 6E 67 20 61 6C  |&.ALLOT using al|
 D7FC  6C 20 61 76 61 69 6C 61 62 6C 65 20 6D 65 6D 6F  |l available memo|
 D80C  72 79 00 49 6C 6C 65 67 61 6C 20 53 4F 55 52 43  |ry.Illegal SOURC|
 D81C  45 2D 49 44 20 64 75 72 69 6E 67 20 52 45 46 49  |E-ID during REFI|
 D82C  4C 4C 00 49 6E 74 65 72 70 72 65 74 69 6E 67 20  |LL.Interpreting |
 D83C  61 20 63 6F 6D 70 69 6C 65 2D 6F 6E 6C 79 20 77  |a compile-only w|
 D84C  6F 72 64 00 44 45 46 45 52 65 64 20 77 6F 72 64  |ord.DEFERed word|
 D85C  20 6E 6F 74 20 64 65 66 69 6E 65 64 20 79 65 74  | not defined yet|
 D86C  00 44 69 76 69 73 69 6F 6E 20 62 79 20 7A 65 72  |.Division by zer|
 D87C  6F 00 50 61 72 73 69 6E 67 20 66 61 69 6C 75 72  |o.Parsing failur|
 D88C  65 00 51 55 49 54 20 63 6F 75 6C 64 20 6E 6F 74  |e.QUIT could not|
 D89C  20 67 65 74 20 69 6E 70 75 74 20 28 52 45 46 49  | get input (REFI|
 D8AC  4C 4C 20 72 65 74 75 72 6E 65 64 20 2D 31 29 00  |LL returned -1).|
 D8BC  41 6C 72 65 61 64 79 20 69 6E 20 63 6F 6D 70 69  |Already in compi|
 D8CC  6C 65 20 6D 6F 64 65 00 55 6E 64 65 66 69 6E 65  |le mode.Undefine|
 D8DC  64 20 77 6F 72 64 00 53 74 61 63 6B 20 75 6E 64  |d word.Stack und|
 D8EC  65 72 66 6C 6F 77 00 4D 61 78 20 6D 65 6D 6F 72  |erflow.Max memor|
 D8FC  79 20 66 72 65 65 64 20 77 69 74 68 20 41 4C 4C  |y freed with ALL|
 D90C  4F 54 00 4E 6F 20 77 6F 72 64 6C 69 73 74 73 20  |OT.No wordlists |
 D91C  61 76 61 69 6C 61 62 6C 65 00 50 6C 65 61 73 65  |available.Please|
 D92C  20 61 73 73 69 67 6E 20 76 65 63 74 6F 72 73 20  | assign vectors |
 D93C  42 4C 4F 43 4B 2D 52 45 41 44 2D 56 45 43 54 4F  |BLOCK-READ-VECTO|
 D94C  52 20 61 6E 64 20 42 4C 4F 43 4B 2D 57 52 49 54  |R and BLOCK-WRIT|
 D95C  45 2D 56 45 43 54 4F 52 00 0F 2F 43 4F 55 4E 54  |E-VECTOR../COUNT|
 D96C  45 44 2D 53 54 52 49 4E 47 05 2F 48 4F 4C 44 04  |ED-STRING./HOLD.|
 D97C  2F 50 41 44 11 41 44 44 52 45 53 53 2D 55 4E 49  |/PAD.ADDRESS-UNI|
 D98C  54 2D 42 49 54 53 07 46 4C 4F 4F 52 45 44 08 4D  |T-BITS.FLOORED.M|
 D99C  41 58 2D 43 48 41 52 05 4D 41 58 2D 4E 05 4D 41  |AX-CHAR.MAX-N.MA|
 D9AC  58 2D 55 12 52 45 54 55 52 4E 2D 53 54 41 43 4B  |X-U.RETURN-STACK|
 D9BC  2D 43 45 4C 4C 53 0B 53 54 41 43 4B 2D 43 45 4C  |-CELLS.STACK-CEL|
 D9CC  4C 53 09 57 4F 52 44 4C 49 53 54 53 05 4D 41 58  |LS.WORDLISTS.MAX|
 D9DC  2D 44 06 4D 41 58 2D 55 44                       |-D.MAX-UD       |
 D9E5  48        PHA  
 D9E6  A9 20     LDA  #$20
 D9E8  80 03     BRA  $D9ED
 D9EA  48        PHA  
 D9EB  A9 4C     LDA  #$4C
 D9ED  20 F5 D9  JSR  $D9F5
 D9F0  68        PLA  
 D9F1  20 F5 D9  JSR  $D9F5
 D9F4  98        TYA  
 D9F5  92 00     STA  ($00)
 D9F7  E6 00     INC  $00
 D9F9  D0 02     BNE  $D9FD
 D9FB  E6 01     INC  $01
 D9FD  60        RTS  
 D9FE  CA        DEX  
 D9FF  CA        DEX  
 DA00  68        PLA  
 DA01  85 24     STA  $24
 DA03  68        PLA  
 DA04  85 25     STA  $25
 DA06  A0 01     LDY  #$01
 DA08  B1 24     LDA  ($24), Y
 DA0A  95 00     STA  $00, X
 DA0C  C8        INY  
 DA0D  B1 24     LDA  ($24), Y
 DA0F  95 01     STA  $01, X
 DA11  60        RTS  
 DA12  68        PLA  
 DA13  85 24     STA  $24
 DA15  68        PLA  
 DA16  85 25     STA  $25
 DA18  A0 01     LDY  #$01
 DA1A  B1 24     LDA  ($24), Y
 DA1C  85 26     STA  $26
 DA1E  C8        INY  
 DA1F  B1 24     LDA  ($24), Y
 DA21  85 27     STA  $27
 DA23  6C 26 00  JMP  ($0026)
 DA26  A9 03     LDA  #$03
 DA28  4C 58 DB  JMP  $DB58
 DA2B  7A        PLY  
 DA2C  68        PLA  
 DA2D  C8        INY  
 DA2E  D0 01     BNE  $DA31
 DA30  1A        INC  
 DA31  84 26     STY  $26
 DA33  85 27     STA  $27
 DA35  CA        DEX  
 DA36  CA        DEX  
 DA37  7A        PLY  
 DA38  68        PLA  
 DA39  C8        INY  
 DA3A  D0 01     BNE  $DA3D
 DA3C  1A        INC  
 DA3D  94 00     STY  $00, X
 DA3F  95 01     STA  $01, X
 DA41  6C 26 00  JMP  ($0026)
 DA44  7A        PLY  
 DA45  68        PLA  
 DA46  C8        INY  
 DA47  D0 01     BNE  $DA4A
 DA49  1A        INC  
 DA4A  CA        DEX  
 DA4B  CA        DEX  
 DA4C  95 01     STA  $01, X
 DA4E  98        TYA  
 DA4F  95 00     STA  $00, X
 DA51  60        RTS  
 DA52  48        PHA  
 DA53  4A        LSR  
 DA54  4A        LSR  
 DA55  4A        LSR  
 DA56  4A        LSR  
 DA57  20 5B DA  JSR  $DA5B
 DA5A  68        PLA  
 DA5B  29 0F     AND  #$0F
 DA5D  09 30     ORA  #$30
 DA5F  C9 3A     CMP  #$3A
 DA61  90 02     BCC  $DA65
 DA63  69 06     ADC  #$06
 DA65  4C E6 8D  JMP  $8DE6
 DA68  60        RTS  
 DA69  B5 00     LDA  $00, X
 DA6B  D5 02     CMP  $02, X
 DA6D  F0 0A     BEQ  $DA79
 DA6F  B5 01     LDA  $01, X
 DA71  F5 03     SBC  $03, X
 DA73  09 01     ORA  #$01
 DA75  70 08     BVS  $DA7F
 DA77  80 08     BRA  $DA81
 DA79  B5 01     LDA  $01, X
 DA7B  F5 03     SBC  $03, X
 DA7D  50 04     BVC  $DA83
 DA7F  49 80     EOR  #$80
 DA81  09 01     ORA  #$01
 DA83  60        RTS  
 DA84  A0 04     LDY  #$04
 DA86  B1 1E     LDA  ($1E), Y
 DA88  0A        ASL  
 DA89  18        CLC  
 DA8A  69 06     ADC  #$06
 DA8C  A8        TAY  
 DA8D  B1 1E     LDA  ($1E), Y
 DA8F  85 02     STA  $02
 DA91  C8        INY  
 DA92  B1 1E     LDA  ($1E), Y
 DA94  85 03     STA  $03
 DA96  60        RTS  
 DA97  A0 04     LDY  #$04
 DA99  B1 1E     LDA  ($1E), Y
 DA9B  0A        ASL  
 DA9C  18        CLC  
 DA9D  69 06     ADC  #$06
 DA9F  A8        TAY  
 DAA0  A5 02     LDA  $02
 DAA2  91 1E     STA  ($1E), Y
 DAA4  C8        INY  
 DAA5  A5 03     LDA  $03
 DAA7  91 1E     STA  ($1E), Y
 DAA9  60        RTS  
 DAAA  20 61 98  JSR  $9861
 DAAD  B5 00     LDA  $00, X
 DAAF  15 01     ORA  $01, X
 DAB1  F0 70     BEQ  $DB23
 DAB3  20 34 A3  JSR  $A334
 DAB6  20 CB 8F  JSR  $8FCB
 DAB9  B5 00     LDA  $00, X
 DABB  15 01     ORA  $01, X
 DABD  D0 28     BNE  $DAE7
 DABF  E8        INX  
 DAC0  E8        INX  
 DAC1  20 7A 96  JSR  $967A
 DAC4  A5 16     LDA  $16
 DAC6  F0 E2     BEQ  $DAAA
 DAC8  A9 20     LDA  #$20
 DACA  24 20     BIT  $20
 DACC  F0 0D     BEQ  $DADB
 DACE  20 2A A1  JSR  $A12A
 DAD1  A0 93     LDY  #$93
 DAD3  A9 88     LDA  #$88
 DAD5  20 E5 D9  JSR  $D9E5
 DAD8  20 5E 87  JSR  $875E
 DADB  A0 93     LDY  #$93
 DADD  A9 88     LDA  #$88
 DADF  20 E5 D9  JSR  $D9E5
 DAE2  20 5E 87  JSR  $875E
 DAE5  80 C3     BRA  $DAAA
 DAE7  B5 00     LDA  $00, X
 DAE9  95 04     STA  $04, X
 DAEB  B5 01     LDA  $01, X
 DAED  95 05     STA  $05, X
 DAEF  E8        INX  
 DAF0  E8        INX  
 DAF1  E8        INX  
 DAF2  E8        INX  
 DAF3  B5 00     LDA  $00, X
 DAF5  85 22     STA  $22
 DAF7  B5 01     LDA  $01, X
 DAF9  85 23     STA  $23
 DAFB  20 D1 95  JSR  $95D1
 DAFE  A5 16     LDA  $16
 DB00  D0 13     BNE  $DB15
 DB02  A0 01     LDY  #$01
 DB04  B1 22     LDA  ($22), Y
 DB06  29 01     AND  #$01
 DB08  F0 05     BEQ  $DB0F
 DB0A  A9 02     LDA  #$02
 DB0C  4C 58 DB  JMP  $DB58
 DB0F  20 2D 8F  JSR  $8F2D
 DB12  4C AA DA  JMP  $DAAA
 DB15  A0 01     LDY  #$01
 DB17  B1 22     LDA  ($22), Y
 DB19  29 04     AND  #$04
 DB1B  D0 F2     BNE  $DB0F
 DB1D  20 DD 87  JSR  $87DD
 DB20  4C AA DA  JMP  $DAAA
 DB23  E8        INX  
 DB24  E8        INX  
 DB25  E8        INX  
 DB26  E8        INX  
 DB27  60        RTS  
 DB28  C9 20     CMP  #$20
 DB2A  90 08     BCC  $DB34
 DB2C  C9 7F     CMP  #$7F
 DB2E  B0 03     BCS  $DB33
 DB30  38        SEC  
 DB31  80 01     BRA  $DB34
 DB33  18        CLC  
 DB34  60        RTS  
 DB35  C9 00     CMP  #$00
 DB37  90 08     BCC  $DB41
 DB39  C9 21     CMP  #$21
 DB3B  B0 03     BCS  $DB40
 DB3D  38        SEC  
 DB3E  80 01     BRA  $DB41
 DB40  18        CLC  
 DB41  60        RTS  
 DB42  E0 77     CPX  #$77
 DB44  10 10     BPL  $DB56
 DB46  60        RTS  
 DB47  E0 75     CPX  #$75
 DB49  10 0B     BPL  $DB56
 DB4B  60        RTS  
 DB4C  E0 73     CPX  #$73
 DB4E  10 06     BPL  $DB56
 DB50  60        RTS  
 DB51  E0 71     CPX  #$71
 DB53  10 01     BPL  $DB56
 DB55  60        RTS  
 DB56  A9 09     LDA  #$09
 DB58  0A        ASL  
 DB59  A8        TAY  
 DB5A  B9 D4 D7  LDA  $D7D4, Y
 DB5D  85 28     STA  $28
 DB5F  C8        INY  
 DB60  B9 D4 D7  LDA  $D7D4, Y
 DB63  85 29     STA  $29
 DB65  20 7B DB  JSR  $DB7B
 DB68  20 53 89  JSR  $8953
 DB6B  4C 81 80  JMP  $8081
 DB6E  0A        ASL  
 DB6F  A8        TAY  
 DB70  B9 02 D7  LDA  $D702, Y
 DB73  85 28     STA  $28
 DB75  C8        INY  
 DB76  B9 02 D7  LDA  $D702, Y
 DB79  85 29     STA  $29
 DB7B  A0 00     LDY  #$00
 DB7D  B1 28     LDA  ($28), Y
 DB7F  F0 06     BEQ  $DB87
 DB81  20 E6 8D  JSR  $8DE6
 DB84  C8        INY  
 DB85  80 F6     BRA  $DB7D
 DB87  60        RTS  
 DB88  20 6E DB  JSR  $DB6E
 DB8B  4C 53 89  JMP  $8953
 DB8E  20 23 A7  JSR  $A723
 DB91  20 4A 93  JSR  $934A
 DB94  20 60 97  JSR  $9760
 DB97  20 3E 97  JSR  $973E
 DB9A  4C 7F A4  JMP  $A47F
 DB9D  00 00 00 00 00 00 00 00 00 00 00 00 00 00 00 00  |................|
 DBAD  00 00 00 00 00 00 00 00 00 00 00 00 00 00 00 00  |................|
 DBBD  00 00 00 00 00 00 00 00 00 00 00 00 00 00 00 00  |................|
 DBCD  00 00 00 00 00 00 00 00 00 00 00 00 00 00 00 00  |................|
 DBDD  00 00 00 00 00 00 00 00 00 00 00 00 00 00 00 00  |................|
 DBED  00 00 00 00 00 00 00 00 00 00 00 00 00 00 00 00  |................|
 DBFD  00 00 00 00 00 00 00 00 00 00 00 00 00 00 00 00  |................|
 DC0D  00 00 00 00 00 00 00 00 00 00 00 00 00 00 00 00  |................|
 DC1D  00 00 00 00 00 00 00 00 00 00 00 00 00 00 00 00  |................|
 DC2D  00 00 00 00 00 00 00 00 00 00 00 00 00 00 00 00  |................|
 DC3D  00 00 00 00 00 00 00 00 00 00 00 00 00 00 00 00  |................|
 DC4D  00 00 00 00 00 00 00 00 00 00 00 00 00 00 00 00  |................|
 DC5D  00 00 00 00 00 00 00 00 00 00 00 00 00 00 00 00  |................|
 DC6D  00 00 00 00 00 00 00 00 00 00 00 00 00 00 00 00  |................|
 DC7D  00 00 00 00 00 00 00 00 00 00 00 00 00 00 00 00  |................|
 DC8D  00 00 00 00 00 00 00 00 00 00 00 00 00 00 00 00  |................|
 DC9D  00 00 00 00 00 00 00 00 00 00 00 00 00 00 00 00  |................|
 DCAD  00 00 00 00 00 00 00 00 00 00 00 00 00 00 00 00  |................|
 DCBD  00 00 00 00 00 00 00 00 00 00 00 00 00 00 00 00  |................|
 DCCD  00 00 00 00 00 00 00 00 00 00 00 00 00 00 00 00  |................|
 DCDD  00 00 00 00 00 00 00 00 00 00 00 00 00 00 00 00  |................|
 DCED  00 00 00 00 00 00 00 00 00 00 00 00 00 00 00 00  |................|
 DCFD  00 00 00 00 00 00 00 00 00 00 00 00 00 00 00 00  |................|
 DD0D  00 00 00 00 00 00 00 00 00 00 00 00 00 00 00 00  |................|
 DD1D  00 00 00 00 00 00 00 00 00 00 00 00 00 00 00 00  |................|
 DD2D  00 00 00 00 00 00 00 00 00 00 00 00 00 00 00 00  |................|
 DD3D  00 00 00 00 00 00 00 00 00 00 00 00 00 00 00 00  |................|
 DD4D  00 00 00 00 00 00 00 00 00 00 00 00 00 00 00 00  |................|
 DD5D  00 00 00 00 00 00 00 00 00 00 00 00 00 00 00 00  |................|
 DD6D  00 00 00 00 00 00 00 00 00 00 00 00 00 00 00 00  |................|
 DD7D  00 00 00 00 00 00 00 00 00 00 00 00 00 00 00 00  |................|
 DD8D  00 00 00 00 00 00 00 00 00 00 00 00 00 00 00 00  |................|
 DD9D  00 00 00 00 00 00 00 00 00 00 00 00 00 00 00 00  |................|
 DDAD  00 00 00 00 00 00 00 00 00 00 00 00 00 00 00 00  |................|
 DDBD  00 00 00 00 00 00 00 00 00 00 00 00 00 00 00 00  |................|
 DDCD  00 00 00 00 00 00 00 00 00 00 00 00 00 00 00 00  |................|
 DDDD  00 00 00 00 00 00 00 00 00 00 00 00 00 00 00 00  |................|
 DDED  00 00 00 00 00 00 00 00 00 00 00 00 00 00 00 00  |................|
 DDFD  00 00 00 00 00 00 00 00 00 00 00 00 00 00 00 00  |................|
 DE0D  00 00 00 00 00 00 00 00 00 00 00 00 00 00 00 00  |................|
 DE1D  00 00 00 00 00 00 00 00 00 00 00 00 00 00 00 00  |................|
 DE2D  00 00 00 00 00 00 00 00 00 00 00 00 00 00 00 00  |................|
 DE3D  00 00 00 00 00 00 00 00 00 00 00 00 00 00 00 00  |................|
 DE4D  00 00 00 00 00 00 00 00 00 00 00 00 00 00 00 00  |................|
 DE5D  00 00 00 00 00 00 00 00 00 00 00 00 00 00 00 00  |................|
 DE6D  00 00 00 00 00 00 00 00 00 00 00 00 00 00 00 00  |................|
 DE7D  00 00 00 00 00 00 00 00 00 00 00 00 00 00 00 00  |................|
 DE8D  00 00 00 00 00 00 00 00 00 00 00 00 00 00 00 00  |................|
 DE9D  00 00 00 00 00 00 00 00 00 00 00 00 00 00 00 00  |................|
 DEAD  00 00 00 00 00 00 00 00 00 00 00 00 00 00 00 00  |................|
 DEBD  00 00 00 00 00 00 00 00 00 00 00 00 00 00 00 00  |................|
 DECD  00 00 00 00 00 00 00 00 00 00 00 00 00 00 00 00  |................|
 DEDD  00 00 00 00 00 00 00 00 00 00 00 00 00 00 00 00  |................|
 DEED  00 00 00 00 00 00 00 00 00 00 00 00 00 00 00 00  |................|
 DEFD  00 00 00 00 00 00 00 00 00 00 00 00 00 00 00 00  |................|
 DF0D  00 00 00 00 00 00 00 00 00 00 00 00 00 00 00 00  |................|
 DF1D  00 00 00 00 00 00 00 00 00 00 00 00 00 00 00 00  |................|
 DF2D  00 00 00 00 00 00 00 00 00 00 00 00 00 00 00 00  |................|
 DF3D  00 00 00 00 00 00 00 00 00 00 00 00 00 00 00 00  |................|
 DF4D  00 00 00 00 00 00 00 00 00 00 00 00 00 00 00 00  |................|
 DF5D  00 00 00 00 00 00 00 00 00 00 00 00 00 00 00 00  |................|
 DF6D  00 00 00 00 00 00 00 00 00 00 00 00 00 00 00 00  |................|
 DF7D  00 00 00 00 00 00 00 00 00 00 00 00 00 00 00 00  |................|
 DF8D  00 00 00 00 00 00 00 00 00 00 00 00 00 00 00 00  |................|
 DF9D  00 00 00 00 00 00 00 00 00 00 00 00 00 00 00 00  |................|
 DFAD  00 00 00 00 00 00 00 00 00 00 00 00 00 00 00 00  |................|
 DFBD  00 00 00 00 00 00 00 00 00 00 00 00 00 00 00 00  |................|
 DFCD  00 00 00 00 00 00 00 00 00 00 00 00 00 00 00 00  |................|
 DFDD  00 00 00 00 00 00 00 00 00 00 00 00 00 00 00 00  |................|
 DFED  00 00 00 00 00 00 00 00 00 00 00 00 00 00 00 00  |................|
 DFFD  00 00 00                                         |...             |
 E000  DA        PHX  
 E001  5A        PHY  
 E002  A2 FF     LDX  #$FF
 E004  EA        NOP  
 E005  EA        NOP  
 E006  CA        DEX  
 E007  D0 FB     BNE  $E004
 E009  88        DEY  
 E00A  D0 F6     BNE  $E002
 E00C  7A        PLY  
 E00D  FA        PLX  
 E00E  60        RTS  
 E00F  48        PHA  
 E010  5A        PHY  
 E011  DA        PHX  
 E012  98        TYA  
 E013  AA        TAX  
 E014  A0 FF     LDY  #$FF
 E016  20 00 E0  JSR  $E000
 E019  CA        DEX  
 E01A  D0 F8     BNE  $E014
 E01C  FA        PLX  
 E01D  7A        PLY  
 E01E  68        PLA  
 E01F  60        RTS  
 E020  5A        PHY  
 E021  EA        NOP  
 E022  EA        NOP  
 E023  EA        NOP  
 E024  EA        NOP  
 E025  EA        NOP  
 E026  EA        NOP  
 E027  EA        NOP  
 E028  88        DEY  
 E029  D0 F6     BNE  $E021
 E02B  7A        PLY  
 E02C  60        RTS  
 E02D  78        SEI  
 E02E  A2 00     LDX  #$00
 E030  BD 3B E0  LDA  $E03B, X
 E033  F0 1A     BEQ  $E04F
 E035  20 FF E6  JSR  $E6FF
 E038  E8        INX  
 E039  80 F5     BRA  $E030
 E03B  44 65 74 65 63 74 69 6E 67 20 6B 65 79 62 6F 61  |Detecting keyboa|
 E04B  72 64 0D 00                                      |rd..            |
 E04F  AD 8E FF  LDA  $FF8E
 E052  09 88     ORA  #$88
 E054  8D 8E FF  STA  $FF8E
 E057  A9 00     LDA  #$00
 E059  8D 8C FF  STA  $FF8C
 E05C  85 8E     STA  $8E
 E05E  85 92     STA  $92
 E060  85 8D     STA  $8D
 E062  85 8C     STA  $8C
 E064  85 91     STA  $91
 E066  85 8F     STA  $8F
 E068  85 90     STA  $90
 E06A  85 93     STA  $93
 E06C  85 94     STA  $94
 E06E  85 95     STA  $95
 E070  85 96     STA  $96
 E072  85 98     STA  $98
 E074  20 53 E1  JSR  $E153
 E077  A9 00     LDA  #$00
 E079  85 93     STA  $93
 E07B  58        CLI  
 E07C  A0 0A     LDY  #$0A
 E07E  20 00 E0  JSR  $E000
 E081  E6 94     INC  $94
 E083  F0 19     BEQ  $E09E
 E085  A5 8C     LDA  $8C
 E087  D0 F3     BNE  $E07C
 E089  A6 93     LDX  $93
 E08B  E0 00     CPX  #$00
 E08D  F0 06     BEQ  $E095
 E08F  E0 01     CPX  #$01
 E091  F0 0B     BEQ  $E09E
 E093  80 09     BRA  $E09E
 E095  20 C0 E0  JSR  $E0C0
 E098  A9 01     LDA  #$01
 E09A  85 93     STA  $93
 E09C  80 DE     BRA  $E07C
 E09E  A9 00     LDA  #$00
 E0A0  8D 82 FF  STA  $FF82
 E0A3  8D 8C FF  STA  $FF8C
 E0A6  85 96     STA  $96
 E0A8  85 95     STA  $95
 E0AA  85 97     STA  $97
 E0AC  85 8C     STA  $8C
 E0AE  85 95     STA  $95
 E0B0  85 98     STA  $98
 E0B2  85 8E     STA  $8E
 E0B4  85 93     STA  $93
 E0B6  85 92     STA  $92
 E0B8  85 8D     STA  $8D
 E0BA  85 8F     STA  $8F
 E0BC  85 90     STA  $90
 E0BE  58        CLI  
 E0BF  60        RTS  
 E0C0  A9 00     LDA  #$00
 E0C2  85 94     STA  $94
 E0C4  A9 F0     LDA  #$F0
 E0C6  8D 81 FF  STA  $FF81
 E0C9  78        SEI  
 E0CA  20 F7 E0  JSR  $E0F7
 E0CD  A9 FF     LDA  #$FF
 E0CF  85 8C     STA  $8C
 E0D1  58        CLI  
 E0D2  60        RTS  
 E0D3  A2 00     LDX  #$00
 E0D5  BD E0 E0  LDA  $E0E0, X
 E0D8  F0 C4     BEQ  $E09E
 E0DA  20 FF E6  JSR  $E6FF
 E0DD  E8        INX  
 E0DE  80 F5     BRA  $E0D5
 E0E0  4E 6F 20 6B 65 79 62 6F 61 72 64 20 63 6F 6E 6E  |No keyboard conn|
 E0F0  65 63 74 65 64 0D 00                             |ected..         |
 E0F7  48        PHA  
 E0F8  5A        PHY  
 E0F9  A9 C0     LDA  #$C0
 E0FB  8D 8C FF  STA  $FF8C
 E0FE  A0 80     LDY  #$80
 E100  20 00 E0  JSR  $E000
 E103  AD 80 FF  LDA  $FF80
 E106  29 7F     AND  #$7F
 E108  8D 80 FF  STA  $FF80
 E10B  AD 82 FF  LDA  $FF82
 E10E  09 80     ORA  #$80
 E110  8D 82 FF  STA  $FF82
 E113  A0 40     LDY  #$40
 E115  20 00 E0  JSR  $E000
 E118  A9 01     LDA  #$01
 E11A  85 8D     STA  $8D
 E11C  A9 00     LDA  #$00
 E11E  85 8C     STA  $8C
 E120  85 91     STA  $91
 E122  8D 8C FF  STA  $FF8C
 E125  7A        PLY  
 E126  68        PLA  
 E127  60        RTS  
 E128  48        PHA  
 E129  A5 85     LDA  $85
 E12B  C5 89     CMP  $89
 E12D  90 16     BCC  $E145
 E12F  A5 84     LDA  $84
 E131  C5 88     CMP  $88
 E133  90 10     BCC  $E145
 E135  A5 83     LDA  $83
 E137  C5 87     CMP  $87
 E139  90 0A     BCC  $E145
 E13B  A5 82     LDA  $82
 E13D  69 01     ADC  #$01
 E13F  C5 86     CMP  $86
 E141  90 02     BCC  $E145
 E143  68        PLA  
 E144  60        RTS  
 E145  A9 00     LDA  #$00
 E147  85 8E     STA  $8E
 E149  85 92     STA  $92
 E14B  85 8D     STA  $8D
 E14D  85 8F     STA  $8F
 E14F  85 90     STA  $90
 E151  F0 F0     BEQ  $E143
 E153  DA        PHX  
 E154  A2 FF     LDX  #$FF
 E156  9E 01 7B  STZ  $7B01, X
 E159  CA        DEX  
 E15A  D0 FA     BNE  $E156
 E15C  FA        PLX  
 E15D  60        RTS  
 E15E  48        PHA  
 E15F  DA        PHX  
 E160  A5 8C     LDA  $8C
 E162  D0 21     BNE  $E185
 E164  A5 8D     LDA  $8D
 E166  C9 00     CMP  #$00
 E168  F0 0F     BEQ  $E179
 E16A  C9 01     CMP  #$01
 E16C  F0 1A     BEQ  $E188
 E16E  C9 02     CMP  #$02
 E170  F0 31     BEQ  $E1A3
 E172  C9 03     CMP  #$03
 E174  F0 33     BEQ  $E1A9
 E176  4C E0 E1  JMP  $E1E0
 E179  A9 01     LDA  #$01
 E17B  85 8D     STA  $8D
 E17D  A9 00     LDA  #$00
 E17F  85 8E     STA  $8E
 E181  85 92     STA  $92
 E183  80 5B     BRA  $E1E0
 E185  4C 15 E2  JMP  $E215
 E188  AD 80 FF  LDA  $FF80
 E18B  29 80     AND  #$80
 E18D  05 8E     ORA  $8E
 E18F  85 8E     STA  $8E
 E191  E6 92     INC  $92
 E193  A5 92     LDA  $92
 E195  C9 08     CMP  #$08
 E197  F0 04     BEQ  $E19D
 E199  46 8E     LSR  $8E
 E19B  80 43     BRA  $E1E0
 E19D  A9 02     LDA  #$02
 E19F  85 8D     STA  $8D
 E1A1  80 3D     BRA  $E1E0
 E1A3  A9 03     LDA  #$03
 E1A5  85 8D     STA  $8D
 E1A7  80 37     BRA  $E1E0
 E1A9  A9 00     LDA  #$00
 E1AB  85 8D     STA  $8D
 E1AD  A5 96     LDA  $96
 E1AF  D0 42     BNE  $E1F3
 E1B1  A6 8E     LDX  $8E
 E1B3  E0 AA     CPX  #$AA
 E1B5  F0 32     BEQ  $E1E9
 E1B7  E0 FA     CPX  #$FA
 E1B9  F0 2E     BEQ  $E1E9
 E1BB  E0 F0     CPX  #$F0
 E1BD  F0 2E     BEQ  $E1ED
 E1BF  E0 12     CPX  #$12
 E1C1  F0 4A     BEQ  $E20D
 E1C3  E0 59     CPX  #$59
 E1C5  F0 46     BEQ  $E20D
 E1C7  A5 97     LDA  $97
 E1C9  29 01     AND  #$01
 E1CB  D0 09     BNE  $E1D6
 E1CD  BD 88 E2  LDA  $E288, X
 E1D0  C9 1B     CMP  #$1B
 E1D2  F0 12     BEQ  $E1E6
 E1D4  80 03     BRA  $E1D9
 E1D6  BD 08 E3  LDA  $E308, X
 E1D9  A6 8F     LDX  $8F
 E1DB  9D 01 7B  STA  $7B01, X
 E1DE  E6 8F     INC  $8F
 E1E0  2C 80 FF  BIT  $FF80
 E1E3  FA        PLX  
 E1E4  68        PLA  
 E1E5  60        RTS  
 E1E6  4C 6D E6  JMP  $E66D
 E1E9  86 95     STX  $95
 E1EB  80 F3     BRA  $E1E0
 E1ED  A9 01     LDA  #$01
 E1EF  85 96     STA  $96
 E1F1  80 ED     BRA  $E1E0
 E1F3  A6 8E     LDX  $8E
 E1F5  E0 12     CPX  #$12
 E1F7  F0 0A     BEQ  $E203
 E1F9  E0 59     CPX  #$59
 E1FB  F0 06     BEQ  $E203
 E1FD  A9 00     LDA  #$00
 E1FF  85 96     STA  $96
 E201  80 DD     BRA  $E1E0
 E203  A9 00     LDA  #$00
 E205  85 96     STA  $96
 E207  A9 00     LDA  #$00
 E209  85 97     STA  $97
 E20B  80 D3     BRA  $E1E0
 E20D  A5 97     LDA  $97
 E20F  09 01     ORA  #$01
 E211  85 97     STA  $97
 E213  80 CB     BRA  $E1E0
 E215  A5 8D     LDA  $8D
 E217  C9 01     CMP  #$01
 E219  F0 0A     BEQ  $E225
 E21B  C9 02     CMP  #$02
 E21D  F0 2E     BEQ  $E24D
 E21F  C9 03     CMP  #$03
 E221  F0 4E     BEQ  $E271
 E223  80 BB     BRA  $E1E0
 E225  A5 8C     LDA  $8C
 E227  29 01     AND  #$01
 E229  F0 0C     BEQ  $E237
 E22B  AD 80 FF  LDA  $FF80
 E22E  09 80     ORA  #$80
 E230  8D 80 FF  STA  $FF80
 E233  E6 91     INC  $91
 E235  80 08     BRA  $E23F
 E237  AD 80 FF  LDA  $FF80
 E23A  29 7F     AND  #$7F
 E23C  8D 80 FF  STA  $FF80
 E23F  E6 92     INC  $92
 E241  A5 92     LDA  $92
 E243  C9 08     CMP  #$08
 E245  4C 9D E1  JMP  $E19D
 E248  46 8C     LSR  $8C
 E24A  18        CLC  
 E24B  80 93     BRA  $E1E0
 E24D  A5 91     LDA  $91
 E24F  29 01     AND  #$01
 E251  F0 0F     BEQ  $E262
 E253  AD 80 FF  LDA  $FF80
 E256  09 80     ORA  #$80
 E258  8D 80 FF  STA  $FF80
 E25B  A9 03     LDA  #$03
 E25D  85 8D     STA  $8D
 E25F  4C E0 E1  JMP  $E1E0
 E262  AD 80 FF  LDA  $FF80
 E265  29 7F     AND  #$7F
 E267  8D 80 FF  STA  $FF80
 E26A  A9 03     LDA  #$03
 E26C  85 8D     STA  $8D
 E26E  4C E0 E1  JMP  $E1E0
 E271  A9 00     LDA  #$00
 E273  85 8D     STA  $8D
 E275  A9 00     LDA  #$00
 E277  85 8C     STA  $8C
 E279  85 92     STA  $92
 E27B  85 91     STA  $91
 E27D  AD 82 FF  LDA  $FF82
 E280  29 7F     AND  #$7F
 E282  8D 82 FF  STA  $FF82
 E285  4C E0 E1  JMP  $E1E0
 E288  00 89 87 85 83 81 82 8C 00 8A 88 86 84 09 60 8F  |..............`.|
 E298  03 A0 00 E0 00 71 31 00 00 00 7A 73 61 77 32 A1  |.....q1...zsaw2.|
 E2A8  02 63 78 64 65 34 33 A2 00 20 76 66 74 72 35 A3  |.cxde43.. vftr5.|
 E2B8  00 6E 62 68 67 79 36 00 00 00 6D 6A 75 37 38 00  |.nbhgy6...mju78.|
 E2C8  00 2C 6B 69 6F 30 39 00 00 2E 2F 6C 3B 70 2D 00  |.,kio09.../l;p-.|
 E2D8  00 00 27 00 5B 3D 00 00 00 00 0D 5D 00 5C 00 00  |..'.[=.....].\..|
 E2E8  00 00 00 00 00 00 08 00 00 31 2F 34 37 00 00 00  |.........1/47...|
 E2F8  30 2E 32 35 36 38 1B 00 8B 2B 33 2D 2A 39 8D 00  |0.2568...+3-*9..|
 E308  00 C9 C7 C5 C3 C1 C2 CC 00 CA C8 C6 C4 09 7E CF  |..............~.|
 E318  03 A0 00 E0 00 51 21 00 00 00 5A 53 41 57 40 E1  |.....Q!...ZSAW@.|
 E328  02 43 58 44 45 24 23 E2 00 20 56 46 54 52 25 E3  |.CXDE$#.. VFTR%.|
 E338  00 4E 42 48 47 59 5E 00 00 00 4D 4A 55 26 2A 00  |.NBHGY^...MJU&*.|
 E348  00 3C 4B 49 4F 29 28 00 00 3E 3F 4C 3A 50 5F 00  |.<KIO)(..>?L:P_.|
 E358  00 00 22 00 7B 2B 00 00 00 00 0D 7D 00 7C 00 00  |..".{+.....}.|..|
 E368  00 00 00 00 00 00 08 00 00 91 2F 94 97 00 00 00  |........../.....|
 E378  90 7F 92 95 96 98 1B 00 CB 2B 93 2D 2A 99 CD     |.........+.-*.. |
 E387  AD 8E FF  LDA  $FF8E
 E38A  09 C0     ORA  #$C0
 E38C  8D 8E FF  STA  $FF8E
 E38F  A9 40     LDA  #$40
 E391  8D 8B FF  STA  $FF8B
 E394  A9 60     LDA  #$60
 E396  8D 84 FF  STA  $FF84
 E399  A9 EA     LDA  #$EA
 E39B  8D 85 FF  STA  $FF85
 E39E  A9 00     LDA  #$00
 E3A0  85 82     STA  $82
 E3A2  85 83     STA  $83
 E3A4  85 84     STA  $84
 E3A6  85 85     STA  $85
 E3A8  58        CLI  
 E3A9  60        RTS  
 E3AA  E6 82     INC  $82
 E3AC  F0 04     BEQ  $E3B2
 E3AE  20 28 E1  JSR  $E128
 E3B1  60        RTS  
 E3B2  E6 83     INC  $83
 E3B4  F0 02     BEQ  $E3B8
 E3B6  80 F6     BRA  $E3AE
 E3B8  E6 84     INC  $84
 E3BA  F0 02     BEQ  $E3BE
 E3BC  80 F0     BRA  $E3AE
 E3BE  E6 85     INC  $85
 E3C0  80 EC     BRA  $E3AE
 E3C2  20 21 E5  JSR  $E521
 E3C5  A9 00     LDA  #$00
 E3C7  85 9F     STA  $9F
 E3C9  85 9B     STA  $9B
 E3CB  85 9C     STA  $9C
 E3CD  85 A0     STA  $A0
 E3CF  A0 FF     LDY  #$FF
 E3D1  20 00 E0  JSR  $E000
 E3D4  A9 38     LDA  #$38
 E3D6  20 FD E3  JSR  $E3FD
 E3D9  A0 FF     LDY  #$FF
 E3DB  20 00 E0  JSR  $E000
 E3DE  A9 0F     LDA  #$0F
 E3E0  20 FD E3  JSR  $E3FD
 E3E3  A9 06     LDA  #$06
 E3E5  20 FD E3  JSR  $E3FD
 E3E8  A9 01     LDA  #$01
 E3EA  20 FD E3  JSR  $E3FD
 E3ED  A0 FF     LDY  #$FF
 E3EF  20 00 E0  JSR  $E000
 E3F2  A9 80     LDA  #$80
 E3F4  20 FD E3  JSR  $E3FD
 E3F7  A0 FF     LDY  #$FF
 E3F9  20 00 E0  JSR  $E000
 E3FC  60        RTS  
 E3FD  5A        PHY  
 E3FE  8D D1 FF  STA  $FFD1
 E401  A0 02     LDY  #$02
 E403  20 20 E0  JSR  $E020
 E406  8D D0 FF  STA  $FFD0
 E409  A0 20     LDY  #$20
 E40B  20 20 E0  JSR  $E020
 E40E  7A        PLY  
 E40F  60        RTS  
 E410  8D D3 FF  STA  $FFD3
 E413  A0 02     LDY  #$02
 E415  20 20 E0  JSR  $E020
 E418  8D D2 FF  STA  $FFD2
 E41B  A0 20     LDY  #$20
 E41D  20 20 E0  JSR  $E020
 E420  60        RTS  
 E421  5A        PHY  
 E422  DA        PHX  
 E423  48        PHA  
 E424  C9 0A     CMP  #$0A
 E426  F0 67     BEQ  $E48F
 E428  C9 0D     CMP  #$0D
 E42A  F0 63     BEQ  $E48F
 E42C  C9 08     CMP  #$08
 E42E  F0 1F     BEQ  $E44F
 E430  20 10 E4  JSR  $E410
 E433  A6 A0     LDX  $A0
 E435  9D 82 7A  STA  $7A82, X
 E438  E8        INX  
 E439  86 A0     STX  $A0
 E43B  E0 14     CPX  #$14
 E43D  F0 2A     BEQ  $E469
 E43F  E0 28     CPX  #$28
 E441  F0 31     BEQ  $E474
 E443  E0 3C     CPX  #$3C
 E445  F0 38     BEQ  $E47F
 E447  E0 50     CPX  #$50
 E449  F0 3F     BEQ  $E48A
 E44B  68        PLA  
 E44C  FA        PLX  
 E44D  7A        PLY  
 E44E  60        RTS  
 E44F  A9 10     LDA  #$10
 E451  20 FD E3  JSR  $E3FD
 E454  A9 20     LDA  #$20
 E456  20 10 E4  JSR  $E410
 E459  A9 10     LDA  #$10
 E45B  20 FD E3  JSR  $E3FD
 E45E  C6 A0     DEC  $A0
 E460  A6 A0     LDX  $A0
 E462  A9 20     LDA  #$20
 E464  9D 82 7A  STA  $7A82, X
 E467  80 E2     BRA  $E44B
 E469  A9 14     LDA  #$14
 E46B  85 A0     STA  $A0
 E46D  A9 C0     LDA  #$C0
 E46F  20 FD E3  JSR  $E3FD
 E472  80 D7     BRA  $E44B
 E474  A9 28     LDA  #$28
 E476  85 A0     STA  $A0
 E478  A9 94     LDA  #$94
 E47A  20 FD E3  JSR  $E3FD
 E47D  80 CC     BRA  $E44B
 E47F  A9 3C     LDA  #$3C
 E481  85 A0     STA  $A0
 E483  A9 D4     LDA  #$D4
 E485  20 FD E3  JSR  $E3FD
 E488  80 C1     BRA  $E44B
 E48A  20 AE E4  JSR  $E4AE
 E48D  80 BC     BRA  $E44B
 E48F  A6 A0     LDX  $A0
 E491  E0 50     CPX  #$50
 E493  F0 F5     BEQ  $E48A
 E495  E0 3C     CPX  #$3C
 E497  F0 E6     BEQ  $E47F
 E499  E0 28     CPX  #$28
 E49B  F0 D7     BEQ  $E474
 E49D  E0 14     CPX  #$14
 E49F  F0 C8     BEQ  $E469
 E4A1  E8        INX  
 E4A2  86 A0     STX  $A0
 E4A4  A9 20     LDA  #$20
 E4A6  20 10 E4  JSR  $E410
 E4A9  9D 82 7A  STA  $7A82, X
 E4AC  80 E1     BRA  $E48F
 E4AE  48        PHA  
 E4AF  5A        PHY  
 E4B0  DA        PHX  
 E4B1  A9 80     LDA  #$80
 E4B3  20 FD E3  JSR  $E3FD
 E4B6  A2 14     LDX  #$14
 E4B8  BD 82 7A  LDA  $7A82, X
 E4BB  20 10 E4  JSR  $E410
 E4BE  A8        TAY  
 E4BF  E0 4F     CPX  #$4F
 E4C1  F0 4A     BEQ  $E50D
 E4C3  E0 3B     CPX  #$3B
 E4C5  F0 3F     BEQ  $E506
 E4C7  E0 27     CPX  #$27
 E4C9  F0 34     BEQ  $E4FF
 E4CB  8A        TXA  
 E4CC  38        SEC  
 E4CD  E9 14     SBC  #$14
 E4CF  AA        TAX  
 E4D0  98        TYA  
 E4D1  9D 82 7A  STA  $7A82, X
 E4D4  8A        TXA  
 E4D5  18        CLC  
 E4D6  69 14     ADC  #$14
 E4D8  AA        TAX  
 E4D9  E8        INX  
 E4DA  E0 50     CPX  #$50
 E4DC  90 DA     BCC  $E4B8
 E4DE  A9 D4     LDA  #$D4
 E4E0  20 FD E3  JSR  $E3FD
 E4E3  A9 20     LDA  #$20
 E4E5  A2 3C     LDX  #$3C
 E4E7  9D 82 7A  STA  $7A82, X
 E4EA  20 10 E4  JSR  $E410
 E4ED  E8        INX  
 E4EE  E0 50     CPX  #$50
 E4F0  90 F5     BCC  $E4E7
 E4F2  A9 3C     LDA  #$3C
 E4F4  85 A0     STA  $A0
 E4F6  A9 D4     LDA  #$D4
 E4F8  20 FD E3  JSR  $E3FD
 E4FB  FA        PLX  
 E4FC  7A        PLY  
 E4FD  68        PLA  
 E4FE  60        RTS  
 E4FF  A9 C0     LDA  #$C0
 E501  20 FD E3  JSR  $E3FD
 E504  80 C5     BRA  $E4CB
 E506  A9 94     LDA  #$94
 E508  20 FD E3  JSR  $E3FD
 E50B  80 BE     BRA  $E4CB
 E50D  A9 D4     LDA  #$D4
 E50F  20 FD E3  JSR  $E3FD
 E512  80 B7     BRA  $E4CB
 E514  48        PHA  
 E515  A9 01     LDA  #$01
 E517  20 FD E3  JSR  $E3FD
 E51A  A9 80     LDA  #$80
 E51C  20 FD E3  JSR  $E3FD
 E51F  68        PLA  
 E520  60        RTS  
 E521  48        PHA  
 E522  DA        PHX  
 E523  A2 80     LDX  #$80
 E525  A9 20     LDA  #$20
 E527  9D 82 7A  STA  $7A82, X
 E52A  CA        DEX  
 E52B  D0 FA     BNE  $E527
 E52D  FA        PLX  
 E52E  68        PLA  
 E52F  60        RTS  
 E530  A9 05     LDA  #$05
 E532  8D B0 FF  STA  $FFB0
 E535  A9 1E     LDA  #$1E
 E537  8D B1 FF  STA  $FFB1
 E53A  A9 FF     LDA  #$FF
 E53C  8D B2 FF  STA  $FFB2
 E53F  A9 00     LDA  #$00
 E541  8D B3 FF  STA  $FFB3
 E544  A9 F0     LDA  #$F0
 E546  8D B3 FF  STA  $FFB3
 E549  A9 00     LDA  #$00
 E54B  8D B4 FF  STA  $FFB4
 E54E  8D B1 FF  STA  $FFB1
 E551  8D B2 FF  STA  $FFB2
 E554  20 C3 E5  JSR  $E5C3
 E557  60        RTS  
 E558  48        PHA  
 E559  DA        PHX  
 E55A  5A        PHY  
 E55B  C9 0D     CMP  #$0D
 E55D  F0 34     BEQ  $E593
 E55F  C9 0A     CMP  #$0A
 E561  F0 30     BEQ  $E593
 E563  C9 08     CMP  #$08
 E565  F0 0F     BEQ  $E576
 E567  8D B3 FF  STA  $FFB3
 E56A  E6 9E     INC  $9E
 E56C  A6 9E     LDX  $9E
 E56E  E0 64     CPX  #$64
 E570  F0 21     BEQ  $E593
 E572  7A        PLY  
 E573  FA        PLX  
 E574  68        PLA  
 E575  60        RTS  
 E576  C6 9E     DEC  $9E
 E578  A9 85     LDA  #$85
 E57A  8D B0 FF  STA  $FFB0
 E57D  A9 20     LDA  #$20
 E57F  8D B3 FF  STA  $FFB3
 E582  A9 01     LDA  #$01
 E584  8D B0 FF  STA  $FFB0
 E587  A9 20     LDA  #$20
 E589  8D B3 FF  STA  $FFB3
 E58C  A9 05     LDA  #$05
 E58E  8D B0 FF  STA  $FFB0
 E591  80 DF     BRA  $E572
 E593  E6 9D     INC  $9D
 E595  64 9E     STZ  $9E
 E597  A6 9D     LDX  $9D
 E599  E0 4B     CPX  #$4B
 E59B  90 05     BCC  $E5A2
 E59D  20 B0 E5  JSR  $E5B0
 E5A0  80 D0     BRA  $E572
 E5A2  BD F3 E5  LDA  $E5F3, X
 E5A5  8D B2 FF  STA  $FFB2
 E5A8  BD 30 E6  LDA  $E630, X
 E5AB  8D B1 FF  STA  $FFB1
 E5AE  80 C2     BRA  $E572
 E5B0  20 C3 E5  JSR  $E5C3
 E5B3  60        RTS  
 E5B4  48        PHA  
 E5B5  A9 00     LDA  #$00
 E5B7  8D B2 FF  STA  $FFB2
 E5BA  8D B1 FF  STA  $FFB1
 E5BD  85 9E     STA  $9E
 E5BF  85 9D     STA  $9D
 E5C1  68        PLA  
 E5C2  60        RTS  
 E5C3  48        PHA  
 E5C4  DA        PHX  
 E5C5  5A        PHY  
 E5C6  A9 00     LDA  #$00
 E5C8  85 9D     STA  $9D
 E5CA  A9 00     LDA  #$00
 E5CC  8D B2 FF  STA  $FFB2
 E5CF  8D B1 FF  STA  $FFB1
 E5D2  A9 20     LDA  #$20
 E5D4  A0 64     LDY  #$64
 E5D6  A2 4B     LDX  #$4B
 E5D8  8D B3 FF  STA  $FFB3
 E5DB  CA        DEX  
 E5DC  D0 FA     BNE  $E5D8
 E5DE  88        DEY  
 E5DF  D0 F5     BNE  $E5D6
 E5E1  A9 00     LDA  #$00
 E5E3  85 9D     STA  $9D
 E5E5  85 9E     STA  $9E
 E5E7  A9 00     LDA  #$00
 E5E9  8D B2 FF  STA  $FFB2
 E5EC  8D B1 FF  STA  $FFB1
 E5EF  7A        PLY  
 E5F0  FA        PLX  
 E5F1  68        PLA  
 E5F2  60        RTS  
 E5F3  00 02 05 07 0A 0C 0F 11 14 16 19 1B 1E 20 23 25  |............. #%|
 E603  28 2A 2D 2F 32 34 37 39 3C 3E 41 43 46 48 4B 4D  |(*-/2479<>ACFHKM|
 E613  50 52 55 57 5A 5C 5F 61 64 66 69 6B 6E 70 73 75  |PRUWZ\_adfiknpsu|
 E623  78 7A 7D 7F 82 84 87 89 8C 8E 91 93 96 00 10 00  |xz}.............|
 E633  10 00 10 00 10 00 10 00 10 00 10 00 10 00 10 00  |................|
 E643  10 00 10 00 10 00 10 00 10 00 10 00 10 00 10 00  |................|
 E653  10 00 10 00 10 00 10 00 10 00 10 00 10 00 10 00  |................|
 E663  10 00 10 00 10 00 10 00 10 00                    |..........      |
 E66D  A9 01     LDA  #$01
 E66F  8D 81 FF  STA  $FF81
 E672  A9 FF     LDA  #$FF
 E674  8D 83 FF  STA  $FF83
 E677  8D 82 FF  STA  $FF82
 E67A  A0 04     LDY  #$04
 E67C  20 0F E0  JSR  $E00F
 E67F  20 30 E5  JSR  $E530
 E682  20 2D E0  JSR  $E02D
 E685  20 87 E3  JSR  $E387
 E688  20 A7 E6  JSR  $E6A7
 E68B  20 C2 E3  JSR  $E3C2
 E68E  58        CLI  
 E68F  A2 00     LDX  #$00
 E691  BD 43 E7  LDA  $E743, X
 E694  F0 06     BEQ  $E69C
 E696  20 FF E6  JSR  $E6FF
 E699  E8        INX  
 E69A  80 F5     BRA  $E691
 E69C  A9 01     LDA  #$01
 E69E  8D 80 FF  STA  $FF80
 E6A1  4C 00 80  JMP  $8000
 E6A4  4C 6D E6  JMP  $E66D
 E6A7  8D E1 FF  STA  $FFE1
 E6AA  64 A1     STZ  $A1
 E6AC  A9 0B     LDA  #$0B
 E6AE  8D E2 FF  STA  $FFE2
 E6B1  AD E2 FF  LDA  $FFE2
 E6B4  C9 0B     CMP  #$0B
 E6B6  D0 10     BNE  $E6C8
 E6B8  AD E1 FF  LDA  $FFE1
 E6BB  29 60     AND  #$60
 E6BD  D0 09     BNE  $E6C8
 E6BF  A9 01     LDA  #$01
 E6C1  85 A1     STA  $A1
 E6C3  A9 10     LDA  #$10
 E6C5  8D E3 FF  STA  $FFE3
 E6C8  A0 14     LDY  #$14
 E6CA  AD E1 FF  LDA  $FFE1
 E6CD  AD E0 FF  LDA  $FFE0
 E6D0  88        DEY  
 E6D1  D0 F7     BNE  $E6CA
 E6D3  60        RTS  
 E6D4  A5 A1     LDA  $A1
 E6D6  F0 0C     BEQ  $E6E4
 E6D8  AD E1 FF  LDA  $FFE1
 E6DB  29 08     AND  #$08
 E6DD  F0 05     BEQ  $E6E4
 E6DF  AD E0 FF  LDA  $FFE0
 E6E2  38        SEC  
 E6E3  60        RTS  
 E6E4  DA        PHX  
 E6E5  A6 90     LDX  $90
 E6E7  BD 01 7B  LDA  $7B01, X
 E6EA  F0 08     BEQ  $E6F4
 E6EC  9E 01 7B  STZ  $7B01, X
 E6EF  E6 90     INC  $90
 E6F1  38        SEC  
 E6F2  FA        PLX  
 E6F3  60        RTS  
 E6F4  E6 90     INC  $90
 E6F6  FA        PLX  
 E6F7  18        CLC  
 E6F8  60        RTS  
 E6F9  20 D4 E6  JSR  $E6D4
 E6FC  90 FB     BCC  $E6F9
 E6FE  60        RTS  
 E6FF  20 58 E5  JSR  $E558
 E702  5A        PHY  
 E703  A4 A1     LDY  $A1
 E705  F0 08     BEQ  $E70F
 E707  8D E0 FF  STA  $FFE0
 E70A  A0 20     LDY  #$20
 E70C  20 20 E0  JSR  $E020
 E70F  7A        PLY  
 E710  60        RTS  
 E711  48        PHA  
 E712  5A        PHY  
 E713  AD 8D FF  LDA  $FF8D
 E716  10 28     BPL  $E740
 E718  29 08     AND  #$08
 E71A  D0 09     BNE  $E725
 E71C  AD 8D FF  LDA  $FF8D
 E71F  29 40     AND  #$40
 E721  D0 17     BNE  $E73A
 E723  80 1B     BRA  $E740
 E725  A5 82     LDA  $82
 E727  85 86     STA  $86
 E729  A5 83     LDA  $83
 E72B  85 87     STA  $87
 E72D  A5 84     LDA  $84
 E72F  85 88     STA  $88
 E731  A5 85     LDA  $85
 E733  85 89     STA  $89
 E735  20 5E E1  JSR  $E15E
 E738  80 06     BRA  $E740
 E73A  AD 84 FF  LDA  $FF84
 E73D  20 AA E3  JSR  $E3AA
 E740  7A        PLY  
 E741  68        PLA  
 E742  40        RTI  
 E743  54 61 6C 69 20 46 6F 72 74 68 20 32 20 64 65 66  |Tali Forth 2 def|
 E753  61 75 6C 74 20 6B 65 72 6E 65 6C 20 66 6F 72 20  |ault kernel for |
 E763  50 6C 61 6E 63 6B 20 36 35 30 32 20 28 32 37 2F  |Planck 6502 (27/|
 E773  30 38 2F 32 30 32 31 29 0A 00 00 00 00 00 00 00  |08/2021)........|
 E783  00 00 00 00 00 00 00 00 00 00 00 00 00 00 00 00  |................|
 E793  00 00 00 00 00 00 00 00 00 00 00 00 00 00 00 00  |................|
 E7A3  00 00 00 00 00 00 00 00 00 00 00 00 00 00 00 00  |................|
 E7B3  00 00 00 00 00 00 00 00 00 00 00 00 00 00 00 00  |................|
 E7C3  00 00 00 00 00 00 00 00 00 00 00 00 00 00 00 00  |................|
 E7D3  00 00 00 00 00 00 00 00 00 00 00 00 00 00 00 00  |................|
 E7E3  00 00 00 00 00 00 00 00 00 00 00 00 00 00 00 00  |................|
 E7F3  00 00 00 00 00 00 00 00 00 00 00 00 00 00 00 00  |................|
 E803  00 00 00 00 00 00 00 00 00 00 00 00 00 00 00 00  |................|
 E813  00 00 00 00 00 00 00 00 00 00 00 00 00 00 00 00  |................|
 E823  00 00 00 00 00 00 00 00 00 00 00 00 00 00 00 00  |................|
 E833  00 00 00 00 00 00 00 00 00 00 00 00 00 00 00 00  |................|
 E843  00 00 00 00 00 00 00 00 00 00 00 00 00 00 00 00  |................|
 E853  00 00 00 00 00 00 00 00 00 00 00 00 00 00 00 00  |................|
 E863  00 00 00 00 00 00 00 00 00 00 00 00 00 00 00 00  |................|
 E873  00 00 00 00 00 00 00 00 00 00 00 00 00 00 00 00  |................|
 E883  00 00 00 00 00 00 00 00 00 00 00 00 00 00 00 00  |................|
 E893  00 00 00 00 00 00 00 00 00 00 00 00 00 00 00 00  |................|
 E8A3  00 00 00 00 00 00 00 00 00 00 00 00 00 00 00 00  |................|
 E8B3  00 00 00 00 00 00 00 00 00 00 00 00 00 00 00 00  |................|
 E8C3  00 00 00 00 00 00 00 00 00 00 00 00 00 00 00 00  |................|
 E8D3  00 00 00 00 00 00 00 00 00 00 00 00 00 00 00 00  |................|
 E8E3  00 00 00 00 00 00 00 00 00 00 00 00 00 00 00 00  |................|
 E8F3  00 00 00 00 00 00 00 00 00 00 00 00 00 00 00 00  |................|
 E903  00 00 00 00 00 00 00 00 00 00 00 00 00 00 00 00  |................|
 E913  00 00 00 00 00 00 00 00 00 00 00 00 00 00 00 00  |................|
 E923  00 00 00 00 00 00 00 00 00 00 00 00 00 00 00 00  |................|
 E933  00 00 00 00 00 00 00 00 00 00 00 00 00 00 00 00  |................|
 E943  00 00 00 00 00 00 00 00 00 00 00 00 00 00 00 00  |................|
 E953  00 00 00 00 00 00 00 00 00 00 00 00 00 00 00 00  |................|
 E963  00 00 00 00 00 00 00 00 00 00 00 00 00 00 00 00  |................|
 E973  00 00 00 00 00 00 00 00 00 00 00 00 00 00 00 00  |................|
 E983  00 00 00 00 00 00 00 00 00 00 00 00 00 00 00 00  |................|
 E993  00 00 00 00 00 00 00 00 00 00 00 00 00 00 00 00  |................|
 E9A3  00 00 00 00 00 00 00 00 00 00 00 00 00 00 00 00  |................|
 E9B3  00 00 00 00 00 00 00 00 00 00 00 00 00 00 00 00  |................|
 E9C3  00 00 00 00 00 00 00 00 00 00 00 00 00 00 00 00  |................|
 E9D3  00 00 00 00 00 00 00 00 00 00 00 00 00 00 00 00  |................|
 E9E3  00 00 00 00 00 00 00 00 00 00 00 00 00 00 00 00  |................|
 E9F3  00 00 00 00 00 00 00 00 00 00 00 00 00 00 00 00  |................|
 EA03  00 00 00 00 00 00 00 00 00 00 00 00 00 00 00 00  |................|
 EA13  00 00 00 00 00 00 00 00 00 00 00 00 00 00 00 00  |................|
 EA23  00 00 00 00 00 00 00 00 00 00 00 00 00 00 00 00  |................|
 EA33  00 00 00 00 00 00 00 00 00 00 00 00 00 00 00 00  |................|
 EA43  00 00 00 00 00 00 00 00 00 00 00 00 00 00 00 00  |................|
 EA53  00 00 00 00 00 00 00 00 00 00 00 00 00 00 00 00  |................|
 EA63  00 00 00 00 00 00 00 00 00 00 00 00 00 00 00 00  |................|
 EA73  00 00 00 00 00 00 00 00 00 00 00 00 00 00 00 00  |................|
 EA83  00 00 00 00 00 00 00 00 00 00 00 00 00 00 00 00  |................|
 EA93  00 00 00 00 00 00 00 00 00 00 00 00 00 00 00 00  |................|
 EAA3  00 00 00 00 00 00 00 00 00 00 00 00 00 00 00 00  |................|
 EAB3  00 00 00 00 00 00 00 00 00 00 00 00 00 00 00 00  |................|
 EAC3  00 00 00 00 00 00 00 00 00 00 00 00 00 00 00 00  |................|
 EAD3  00 00 00 00 00 00 00 00 00 00 00 00 00 00 00 00  |................|
 EAE3  00 00 00 00 00 00 00 00 00 00 00 00 00 00 00 00  |................|
 EAF3  00 00 00 00 00 00 00 00 00 00 00 00 00 00 00 00  |................|
 EB03  00 00 00 00 00 00 00 00 00 00 00 00 00 00 00 00  |................|
 EB13  00 00 00 00 00 00 00 00 00 00 00 00 00 00 00 00  |................|
 EB23  00 00 00 00 00 00 00 00 00 00 00 00 00 00 00 00  |................|
 EB33  00 00 00 00 00 00 00 00 00 00 00 00 00 00 00 00  |................|
 EB43  00 00 00 00 00 00 00 00 00 00 00 00 00 00 00 00  |................|
 EB53  00 00 00 00 00 00 00 00 00 00 00 00 00 00 00 00  |................|
 EB63  00 00 00 00 00 00 00 00 00 00 00 00 00 00 00 00  |................|
 EB73  00 00 00 00 00 00 00 00 00 00 00 00 00 00 00 00  |................|
 EB83  00 00 00 00 00 00 00 00 00 00 00 00 00 00 00 00  |................|
 EB93  00 00 00 00 00 00 00 00 00 00 00 00 00 00 00 00  |................|
 EBA3  00 00 00 00 00 00 00 00 00 00 00 00 00 00 00 00  |................|
 EBB3  00 00 00 00 00 00 00 00 00 00 00 00 00 00 00 00  |................|
 EBC3  00 00 00 00 00 00 00 00 00 00 00 00 00 00 00 00  |................|
 EBD3  00 00 00 00 00 00 00 00 00 00 00 00 00 00 00 00  |................|
 EBE3  00 00 00 00 00 00 00 00 00 00 00 00 00 00 00 00  |................|
 EBF3  00 00 00 00 00 00 00 00 00 00 00 00 00 00 00 00  |................|
 EC03  00 00 00 00 00 00 00 00 00 00 00 00 00 00 00 00  |................|
 EC13  00 00 00 00 00 00 00 00 00 00 00 00 00 00 00 00  |................|
 EC23  00 00 00 00 00 00 00 00 00 00 00 00 00 00 00 00  |................|
 EC33  00 00 00 00 00 00 00 00 00 00 00 00 00 00 00 00  |................|
 EC43  00 00 00 00 00 00 00 00 00 00 00 00 00 00 00 00  |................|
 EC53  00 00 00 00 00 00 00 00 00 00 00 00 00 00 00 00  |................|
 EC63  00 00 00 00 00 00 00 00 00 00 00 00 00 00 00 00  |................|
 EC73  00 00 00 00 00 00 00 00 00 00 00 00 00 00 00 00  |................|
 EC83  00 00 00 00 00 00 00 00 00 00 00 00 00 00 00 00  |................|
 EC93  00 00 00 00 00 00 00 00 00 00 00 00 00 00 00 00  |................|
 ECA3  00 00 00 00 00 00 00 00 00 00 00 00 00 00 00 00  |................|
 ECB3  00 00 00 00 00 00 00 00 00 00 00 00 00 00 00 00  |................|
 ECC3  00 00 00 00 00 00 00 00 00 00 00 00 00 00 00 00  |................|
 ECD3  00 00 00 00 00 00 00 00 00 00 00 00 00 00 00 00  |................|
 ECE3  00 00 00 00 00 00 00 00 00 00 00 00 00 00 00 00  |................|
 ECF3  00 00 00 00 00 00 00 00 00 00 00 00 00 00 00 00  |................|
 ED03  00 00 00 00 00 00 00 00 00 00 00 00 00 00 00 00  |................|
 ED13  00 00 00 00 00 00 00 00 00 00 00 00 00 00 00 00  |................|
 ED23  00 00 00 00 00 00 00 00 00 00 00 00 00 00 00 00  |................|
 ED33  00 00 00 00 00 00 00 00 00 00 00 00 00 00 00 00  |................|
 ED43  00 00 00 00 00 00 00 00 00 00 00 00 00 00 00 00  |................|
 ED53  00 00 00 00 00 00 00 00 00 00 00 00 00 00 00 00  |................|
 ED63  00 00 00 00 00 00 00 00 00 00 00 00 00 00 00 00  |................|
 ED73  00 00 00 00 00 00 00 00 00 00 00 00 00 00 00 00  |................|
 ED83  00 00 00 00 00 00 00 00 00 00 00 00 00 00 00 00  |................|
 ED93  00 00 00 00 00 00 00 00 00 00 00 00 00 00 00 00  |................|
 EDA3  00 00 00 00 00 00 00 00 00 00 00 00 00 00 00 00  |................|
 EDB3  00 00 00 00 00 00 00 00 00 00 00 00 00 00 00 00  |................|
 EDC3  00 00 00 00 00 00 00 00 00 00 00 00 00 00 00 00  |................|
 EDD3  00 00 00 00 00 00 00 00 00 00 00 00 00 00 00 00  |................|
 EDE3  00 00 00 00 00 00 00 00 00 00 00 00 00 00 00 00  |................|
 EDF3  00 00 00 00 00 00 00 00 00 00 00 00 00 00 00 00  |................|
 EE03  00 00 00 00 00 00 00 00 00 00 00 00 00 00 00 00  |................|
 EE13  00 00 00 00 00 00 00 00 00 00 00 00 00 00 00 00  |................|
 EE23  00 00 00 00 00 00 00 00 00 00 00 00 00 00 00 00  |................|
 EE33  00 00 00 00 00 00 00 00 00 00 00 00 00 00 00 00  |................|
 EE43  00 00 00 00 00 00 00 00 00 00 00 00 00 00 00 00  |................|
 EE53  00 00 00 00 00 00 00 00 00 00 00 00 00 00 00 00  |................|
 EE63  00 00 00 00 00 00 00 00 00 00 00 00 00 00 00 00  |................|
 EE73  00 00 00 00 00 00 00 00 00 00 00 00 00 00 00 00  |................|
 EE83  00 00 00 00 00 00 00 00 00 00 00 00 00 00 00 00  |................|
 EE93  00 00 00 00 00 00 00 00 00 00 00 00 00 00 00 00  |................|
 EEA3  00 00 00 00 00 00 00 00 00 00 00 00 00 00 00 00  |................|
 EEB3  00 00 00 00 00 00 00 00 00 00 00 00 00 00 00 00  |................|
 EEC3  00 00 00 00 00 00 00 00 00 00 00 00 00 00 00 00  |................|
 EED3  00 00 00 00 00 00 00 00 00 00 00 00 00 00 00 00  |................|
 EEE3  00 00 00 00 00 00 00 00 00 00 00 00 00 00 00 00  |................|
 EEF3  00 00 00 00 00 00 00 00 00 00 00 00 00 00 00 00  |................|
 EF03  00 00 00 00 00 00 00 00 00 00 00 00 00 00 00 00  |................|
 EF13  00 00 00 00 00 00 00 00 00 00 00 00 00 00 00 00  |................|
 EF23  00 00 00 00 00 00 00 00 00 00 00 00 00 00 00 00  |................|
 EF33  00 00 00 00 00 00 00 00 00 00 00 00 00 00 00 00  |................|
 EF43  00 00 00 00 00 00 00 00 00 00 00 00 00 00 00 00  |................|
 EF53  00 00 00 00 00 00 00 00 00 00 00 00 00 00 00 00  |................|
 EF63  00 00 00 00 00 00 00 00 00 00 00 00 00 00 00 00  |................|
 EF73  00 00 00 00 00 00 00 00 00 00 00 00 00 00 00 00  |................|
 EF83  00 00 00 00 00 00 00 00 00 00 00 00 00 00 00 00  |................|
 EF93  00 00 00 00 00 00 00 00 00 00 00 00 00 00 00 00  |................|
 EFA3  00 00 00 00 00 00 00 00 00 00 00 00 00 00 00 00  |................|
 EFB3  00 00 00 00 00 00 00 00 00 00 00 00 00 00 00 00  |................|
 EFC3  00 00 00 00 00 00 00 00 00 00 00 00 00 00 00 00  |................|
 EFD3  00 00 00 00 00 00 00 00 00 00 00 00 00 00 00 00  |................|
 EFE3  00 00 00 00 00 00 00 00 00 00 00 00 00 00 00 00  |................|
 EFF3  00 00 00 00 00 00 00 00 00 00 00 00 00 00 00 00  |................|
 F003  00 00 00 00 00 00 00 00 00 00 00 00 00 00 00 00  |................|
 F013  00 00 00 00 00 00 00 00 00 00 00 00 00 00 00 00  |................|
 F023  00 00 00 00 00 00 00 00 00 00 00 00 00 00 00 00  |................|
 F033  00 00 00 00 00 00 00 00 00 00 00 00 00 00 00 00  |................|
 F043  00 00 00 00 00 00 00 00 00 00 00 00 00 00 00 00  |................|
 F053  00 00 00 00 00 00 00 00 00 00 00 00 00 00 00 00  |................|
 F063  00 00 00 00 00 00 00 00 00 00 00 00 00 00 00 00  |................|
 F073  00 00 00 00 00 00 00 00 00 00 00 00 00 00 00 00  |................|
 F083  00 00 00 00 00 00 00 00 00 00 00 00 00 00 00 00  |................|
 F093  00 00 00 00 00 00 00 00 00 00 00 00 00 00 00 00  |................|
 F0A3  00 00 00 00 00 00 00 00 00 00 00 00 00 00 00 00  |................|
 F0B3  00 00 00 00 00 00 00 00 00 00 00 00 00 00 00 00  |................|
 F0C3  00 00 00 00 00 00 00 00 00 00 00 00 00 00 00 00  |................|
 F0D3  00 00 00 00 00 00 00 00 00 00 00 00 00 00 00 00  |................|
 F0E3  00 00 00 00 00 00 00 00 00 00 00 00 00 00 00 00  |................|
 F0F3  00 00 00 00 00 00 00 00 00 00 00 00 00 00 00 00  |................|
 F103  00 00 00 00 00 00 00 00 00 00 00 00 00 00 00 00  |................|
 F113  00 00 00 00 00 00 00 00 00 00 00 00 00 00 00 00  |................|
 F123  00 00 00 00 00 00 00 00 00 00 00 00 00 00 00 00  |................|
 F133  00 00 00 00 00 00 00 00 00 00 00 00 00 00 00 00  |................|
 F143  00 00 00 00 00 00 00 00 00 00 00 00 00 00 00 00  |................|
 F153  00 00 00 00 00 00 00 00 00 00 00 00 00 00 00 00  |................|
 F163  00 00 00 00 00 00 00 00 00 00 00 00 00 00 00 00  |................|
 F173  00 00 00 00 00 00 00 00 00 00 00 00 00 00 00 00  |................|
 F183  00 00 00 00 00 00 00 00 00 00 00 00 00 00 00 00  |................|
 F193  00 00 00 00 00 00 00 00 00 00 00 00 00 00 00 00  |................|
 F1A3  00 00 00 00 00 00 00 00 00 00 00 00 00 00 00 00  |................|
 F1B3  00 00 00 00 00 00 00 00 00 00 00 00 00 00 00 00  |................|
 F1C3  00 00 00 00 00 00 00 00 00 00 00 00 00 00 00 00  |................|
 F1D3  00 00 00 00 00 00 00 00 00 00 00 00 00 00 00 00  |................|
 F1E3  00 00 00 00 00 00 00 00 00 00 00 00 00 00 00 00  |................|
 F1F3  00 00 00 00 00 00 00 00 00 00 00 00 00 00 00 00  |................|
 F203  00 00 00 00 00 00 00 00 00 00 00 00 00 00 00 00  |................|
 F213  00 00 00 00 00 00 00 00 00 00 00 00 00 00 00 00  |................|
 F223  00 00 00 00 00 00 00 00 00 00 00 00 00 00 00 00  |................|
 F233  00 00 00 00 00 00 00 00 00 00 00 00 00 00 00 00  |................|
 F243  00 00 00 00 00 00 00 00 00 00 00 00 00 00 00 00  |................|
 F253  00 00 00 00 00 00 00 00 00 00 00 00 00 00 00 00  |................|
 F263  00 00 00 00 00 00 00 00 00 00 00 00 00 00 00 00  |................|
 F273  00 00 00 00 00 00 00 00 00 00 00 00 00 00 00 00  |................|
 F283  00 00 00 00 00 00 00 00 00 00 00 00 00 00 00 00  |................|
 F293  00 00 00 00 00 00 00 00 00 00 00 00 00 00 00 00  |................|
 F2A3  00 00 00 00 00 00 00 00 00 00 00 00 00 00 00 00  |................|
 F2B3  00 00 00 00 00 00 00 00 00 00 00 00 00 00 00 00  |................|
 F2C3  00 00 00 00 00 00 00 00 00 00 00 00 00 00 00 00  |................|
 F2D3  00 00 00 00 00 00 00 00 00 00 00 00 00 00 00 00  |................|
 F2E3  00 00 00 00 00 00 00 00 00 00 00 00 00 00 00 00  |................|
 F2F3  00 00 00 00 00 00 00 00 00 00 00 00 00 00 00 00  |................|
 F303  00 00 00 00 00 00 00 00 00 00 00 00 00 00 00 00  |................|
 F313  00 00 00 00 00 00 00 00 00 00 00 00 00 00 00 00  |................|
 F323  00 00 00 00 00 00 00 00 00 00 00 00 00 00 00 00  |................|
 F333  00 00 00 00 00 00 00 00 00 00 00 00 00 00 00 00  |................|
 F343  00 00 00 00 00 00 00 00 00 00 00 00 00 00 00 00  |................|
 F353  00 00 00 00 00 00 00 00 00 00 00 00 00 00 00 00  |................|
 F363  00 00 00 00 00 00 00 00 00 00 00 00 00 00 00 00  |................|
 F373  00 00 00 00 00 00 00 00 00 00 00 00 00 00 00 00  |................|
 F383  00 00 00 00 00 00 00 00 00 00 00 00 00 00 00 00  |................|
 F393  00 00 00 00 00 00 00 00 00 00 00 00 00 00 00 00  |................|
 F3A3  00 00 00 00 00 00 00 00 00 00 00 00 00 00 00 00  |................|
 F3B3  00 00 00 00 00 00 00 00 00 00 00 00 00 00 00 00  |................|
 F3C3  00 00 00 00 00 00 00 00 00 00 00 00 00 00 00 00  |................|
 F3D3  00 00 00 00 00 00 00 00 00 00 00 00 00 00 00 00  |................|
 F3E3  00 00 00 00 00 00 00 00 00 00 00 00 00 00 00 00  |................|
 F3F3  00 00 00 00 00 00 00 00 00 00 00 00 00 00 00 00  |................|
 F403  00 00 00 00 00 00 00 00 00 00 00 00 00 00 00 00  |................|
 F413  00 00 00 00 00 00 00 00 00 00 00 00 00 00 00 00  |................|
 F423  00 00 00 00 00 00 00 00 00 00 00 00 00 00 00 00  |................|
 F433  00 00 00 00 00 00 00 00 00 00 00 00 00 00 00 00  |................|
 F443  00 00 00 00 00 00 00 00 00 00 00 00 00 00 00 00  |................|
 F453  00 00 00 00 00 00 00 00 00 00 00 00 00 00 00 00  |................|
 F463  00 00 00 00 00 00 00 00 00 00 00 00 00 00 00 00  |................|
 F473  00 00 00 00 00 00 00 00 00 00 00 00 00 00 00 00  |................|
 F483  00 00 00 00 00 00 00 00 00 00 00 00 00 00 00 00  |................|
 F493  00 00 00 00 00 00 00 00 00 00 00 00 00 00 00 00  |................|
 F4A3  00 00 00 00 00 00 00 00 00 00 00 00 00 00 00 00  |................|
 F4B3  00 00 00 00 00 00 00 00 00 00 00 00 00 00 00 00  |................|
 F4C3  00 00 00 00 00 00 00 00 00 00 00 00 00 00 00 00  |................|
 F4D3  00 00 00 00 00 00 00 00 00 00 00 00 00 00 00 00  |................|
 F4E3  00 00 00 00 00 00 00 00 00 00 00 00 00 00 00 00  |................|
 F4F3  00 00 00 00 00 00 00 00 00 00 00 00 00 00 00 00  |................|
 F503  00 00 00 00 00 00 00 00 00 00 00 00 00 00 00 00  |................|
 F513  00 00 00 00 00 00 00 00 00 00 00 00 00 00 00 00  |................|
 F523  00 00 00 00 00 00 00 00 00 00 00 00 00 00 00 00  |................|
 F533  00 00 00 00 00 00 00 00 00 00 00 00 00 00 00 00  |................|
 F543  00 00 00 00 00 00 00 00 00 00 00 00 00 00 00 00  |................|
 F553  00 00 00 00 00 00 00 00 00 00 00 00 00 00 00 00  |................|
 F563  00 00 00 00 00 00 00 00 00 00 00 00 00 00 00 00  |................|
 F573  00 00 00 00 00 00 00 00 00 00 00 00 00 00 00 00  |................|
 F583  00 00 00 00 00 00 00 00 00 00 00 00 00 00 00 00  |................|
 F593  00 00 00 00 00 00 00 00 00 00 00 00 00 00 00 00  |................|
 F5A3  00 00 00 00 00 00 00 00 00 00 00 00 00 00 00 00  |................|
 F5B3  00 00 00 00 00 00 00 00 00 00 00 00 00 00 00 00  |................|
 F5C3  00 00 00 00 00 00 00 00 00 00 00 00 00 00 00 00  |................|
 F5D3  00 00 00 00 00 00 00 00 00 00 00 00 00 00 00 00  |................|
 F5E3  00 00 00 00 00 00 00 00 00 00 00 00 00 00 00 00  |................|
 F5F3  00 00 00 00 00 00 00 00 00 00 00 00 00 00 00 00  |................|
 F603  00 00 00 00 00 00 00 00 00 00 00 00 00 00 00 00  |................|
 F613  00 00 00 00 00 00 00 00 00 00 00 00 00 00 00 00  |................|
 F623  00 00 00 00 00 00 00 00 00 00 00 00 00 00 00 00  |................|
 F633  00 00 00 00 00 00 00 00 00 00 00 00 00 00 00 00  |................|
 F643  00 00 00 00 00 00 00 00 00 00 00 00 00 00 00 00  |................|
 F653  00 00 00 00 00 00 00 00 00 00 00 00 00 00 00 00  |................|
 F663  00 00 00 00 00 00 00 00 00 00 00 00 00 00 00 00  |................|
 F673  00 00 00 00 00 00 00 00 00 00 00 00 00 00 00 00  |................|
 F683  00 00 00 00 00 00 00 00 00 00 00 00 00 00 00 00  |................|
 F693  00 00 00 00 00 00 00 00 00 00 00 00 00 00 00 00  |................|
 F6A3  00 00 00 00 00 00 00 00 00 00 00 00 00 00 00 00  |................|
 F6B3  00 00 00 00 00 00 00 00 00 00 00 00 00 00 00 00  |................|
 F6C3  00 00 00 00 00 00 00 00 00 00 00 00 00 00 00 00  |................|
 F6D3  00 00 00 00 00 00 00 00 00 00 00 00 00 00 00 00  |................|
 F6E3  00 00 00 00 00 00 00 00 00 00 00 00 00 00 00 00  |................|
 F6F3  00 00 00 00 00 00 00 00 00 00 00 00 00 00 00 00  |................|
 F703  00 00 00 00 00 00 00 00 00 00 00 00 00 00 00 00  |................|
 F713  00 00 00 00 00 00 00 00 00 00 00 00 00 00 00 00  |................|
 F723  00 00 00 00 00 00 00 00 00 00 00 00 00 00 00 00  |................|
 F733  00 00 00 00 00 00 00 00 00 00 00 00 00 00 00 00  |................|
 F743  00 00 00 00 00 00 00 00 00 00 00 00 00 00 00 00  |................|
 F753  00 00 00 00 00 00 00 00 00 00 00 00 00 00 00 00  |................|
 F763  00 00 00 00 00 00 00 00 00 00 00 00 00 00 00 00  |................|
 F773  00 00 00 00 00 00 00 00 00 00 00 00 00 00 00 00  |................|
 F783  00 00 00 00 00 00 00 00 00 00 00 00 00 00 00 00  |................|
 F793  00 00 00 00 00 00 00 00 00 00 00 00 00 00 00 00  |................|
 F7A3  00 00 00 00 00 00 00 00 00 00 00 00 00 00 00 00  |................|
 F7B3  00 00 00 00 00 00 00 00 00 00 00 00 00 00 00 00  |................|
 F7C3  00 00 00 00 00 00 00 00 00 00 00 00 00 00 00 00  |................|
 F7D3  00 00 00 00 00 00 00 00 00 00 00 00 00 00 00 00  |................|
 F7E3  00 00 00 00 00 00 00 00 00 00 00 00 00 00 00 00  |................|
 F7F3  00 00 00 00 00 00 00 00 00 00 00 00 00 00 00 00  |................|
 F803  00 00 00 00 00 00 00 00 00 00 00 00 00 00 00 00  |................|
 F813  00 00 00 00 00 00 00 00 00 00 00 00 00 00 00 00  |................|
 F823  00 00 00 00 00 00 00 00 00 00 00 00 00 00 00 00  |................|
 F833  00 00 00 00 00 00 00 00 00 00 00 00 00 00 00 00  |................|
 F843  00 00 00 00 00 00 00 00 00 00 00 00 00 00 00 00  |................|
 F853  00 00 00 00 00 00 00 00 00 00 00 00 00 00 00 00  |................|
 F863  00 00 00 00 00 00 00 00 00 00 00 00 00 00 00 00  |................|
 F873  00 00 00 00 00 00 00 00 00 00 00 00 00 00 00 00  |................|
 F883  00 00 00 00 00 00 00 00 00 00 00 00 00 00 00 00  |................|
 F893  00 00 00 00 00 00 00 00 00 00 00 00 00 00 00 00  |................|
 F8A3  00 00 00 00 00 00 00 00 00 00 00 00 00 00 00 00  |................|
 F8B3  00 00 00 00 00 00 00 00 00 00 00 00 00 00 00 00  |................|
 F8C3  00 00 00 00 00 00 00 00 00 00 00 00 00 00 00 00  |................|
 F8D3  00 00 00 00 00 00 00 00 00 00 00 00 00 00 00 00  |................|
 F8E3  00 00 00 00 00 00 00 00 00 00 00 00 00 00 00 00  |................|
 F8F3  00 00 00 00 00 00 00 00 00 00 00 00 00 00 00 00  |................|
 F903  00 00 00 00 00 00 00 00 00 00 00 00 00 00 00 00  |................|
 F913  00 00 00 00 00 00 00 00 00 00 00 00 00 00 00 00  |................|
 F923  00 00 00 00 00 00 00 00 00 00 00 00 00 00 00 00  |................|
 F933  00 00 00 00 00 00 00 00 00 00 00 00 00 00 00 00  |................|
 F943  00 00 00 00 00 00 00 00 00 00 00 00 00 00 00 00  |................|
 F953  00 00 00 00 00 00 00 00 00 00 00 00 00 00 00 00  |................|
 F963  00 00 00 00 00 00 00 00 00 00 00 00 00 00 00 00  |................|
 F973  00 00 00 00 00 00 00 00 00 00 00 00 00 00 00 00  |................|
 F983  00 00 00 00 00 00 00 00 00 00 00 00 00 00 00 00  |................|
 F993  00 00 00 00 00 00 00 00 00 00 00 00 00 00 00 00  |................|
 F9A3  00 00 00 00 00 00 00 00 00 00 00 00 00 00 00 00  |................|
 F9B3  00 00 00 00 00 00 00 00 00 00 00 00 00 00 00 00  |................|
 F9C3  00 00 00 00 00 00 00 00 00 00 00 00 00 00 00 00  |................|
 F9D3  00 00 00 00 00 00 00 00 00 00 00 00 00 00 00 00  |................|
 F9E3  00 00 00 00 00 00 00 00 00 00 00 00 00 00 00 00  |................|
 F9F3  00 00 00 00 00 00 00 00 00 00 00 00 00 00 00 00  |................|
 FA03  00 00 00 00 00 00 00 00 00 00 00 00 00 00 00 00  |................|
 FA13  00 00 00 00 00 00 00 00 00 00 00 00 00 00 00 00  |................|
 FA23  00 00 00 00 00 00 00 00 00 00 00 00 00 00 00 00  |................|
 FA33  00 00 00 00 00 00 00 00 00 00 00 00 00 00 00 00  |................|
 FA43  00 00 00 00 00 00 00 00 00 00 00 00 00 00 00 00  |................|
 FA53  00 00 00 00 00 00 00 00 00 00 00 00 00 00 00 00  |................|
 FA63  00 00 00 00 00 00 00 00 00 00 00 00 00 00 00 00  |................|
 FA73  00 00 00 00 00 00 00 00 00 00 00 00 00 00 00 00  |................|
 FA83  00 00 00 00 00 00 00 00 00 00 00 00 00 00 00 00  |................|
 FA93  00 00 00 00 00 00 00 00 00 00 00 00 00 00 00 00  |................|
 FAA3  00 00 00 00 00 00 00 00 00 00 00 00 00 00 00 00  |................|
 FAB3  00 00 00 00 00 00 00 00 00 00 00 00 00 00 00 00  |................|
 FAC3  00 00 00 00 00 00 00 00 00 00 00 00 00 00 00 00  |................|
 FAD3  00 00 00 00 00 00 00 00 00 00 00 00 00 00 00 00  |................|
 FAE3  00 00 00 00 00 00 00 00 00 00 00 00 00 00 00 00  |................|
 FAF3  00 00 00 00 00 00 00 00 00 00 00 00 00 00 00 00  |................|
 FB03  00 00 00 00 00 00 00 00 00 00 00 00 00 00 00 00  |................|
 FB13  00 00 00 00 00 00 00 00 00 00 00 00 00 00 00 00  |................|
 FB23  00 00 00 00 00 00 00 00 00 00 00 00 00 00 00 00  |................|
 FB33  00 00 00 00 00 00 00 00 00 00 00 00 00 00 00 00  |................|
 FB43  00 00 00 00 00 00 00 00 00 00 00 00 00 00 00 00  |................|
 FB53  00 00 00 00 00 00 00 00 00 00 00 00 00 00 00 00  |................|
 FB63  00 00 00 00 00 00 00 00 00 00 00 00 00 00 00 00  |................|
 FB73  00 00 00 00 00 00 00 00 00 00 00 00 00 00 00 00  |................|
 FB83  00 00 00 00 00 00 00 00 00 00 00 00 00 00 00 00  |................|
 FB93  00 00 00 00 00 00 00 00 00 00 00 00 00 00 00 00  |................|
 FBA3  00 00 00 00 00 00 00 00 00 00 00 00 00 00 00 00  |................|
 FBB3  00 00 00 00 00 00 00 00 00 00 00 00 00 00 00 00  |................|
 FBC3  00 00 00 00 00 00 00 00 00 00 00 00 00 00 00 00  |................|
 FBD3  00 00 00 00 00 00 00 00 00 00 00 00 00 00 00 00  |................|
 FBE3  00 00 00 00 00 00 00 00 00 00 00 00 00 00 00 00  |................|
 FBF3  00 00 00 00 00 00 00 00 00 00 00 00 00 00 00 00  |................|
 FC03  00 00 00 00 00 00 00 00 00 00 00 00 00 00 00 00  |................|
 FC13  00 00 00 00 00 00 00 00 00 00 00 00 00 00 00 00  |................|
 FC23  00 00 00 00 00 00 00 00 00 00 00 00 00 00 00 00  |................|
 FC33  00 00 00 00 00 00 00 00 00 00 00 00 00 00 00 00  |................|
 FC43  00 00 00 00 00 00 00 00 00 00 00 00 00 00 00 00  |................|
 FC53  00 00 00 00 00 00 00 00 00 00 00 00 00 00 00 00  |................|
 FC63  00 00 00 00 00 00 00 00 00 00 00 00 00 00 00 00  |................|
 FC73  00 00 00 00 00 00 00 00 00 00 00 00 00 00 00 00  |................|
 FC83  00 00 00 00 00 00 00 00 00 00 00 00 00 00 00 00  |................|
 FC93  00 00 00 00 00 00 00 00 00 00 00 00 00 00 00 00  |................|
 FCA3  00 00 00 00 00 00 00 00 00 00 00 00 00 00 00 00  |................|
 FCB3  00 00 00 00 00 00 00 00 00 00 00 00 00 00 00 00  |................|
 FCC3  00 00 00 00 00 00 00 00 00 00 00 00 00 00 00 00  |................|
 FCD3  00 00 00 00 00 00 00 00 00 00 00 00 00 00 00 00  |................|
 FCE3  00 00 00 00 00 00 00 00 00 00 00 00 00 00 00 00  |................|
 FCF3  00 00 00 00 00 00 00 00 00 00 00 00 00 00 00 00  |................|
 FD03  00 00 00 00 00 00 00 00 00 00 00 00 00 00 00 00  |................|
 FD13  00 00 00 00 00 00 00 00 00 00 00 00 00 00 00 00  |................|
 FD23  00 00 00 00 00 00 00 00 00 00 00 00 00 00 00 00  |................|
 FD33  00 00 00 00 00 00 00 00 00 00 00 00 00 00 00 00  |................|
 FD43  00 00 00 00 00 00 00 00 00 00 00 00 00 00 00 00  |................|
 FD53  00 00 00 00 00 00 00 00 00 00 00 00 00 00 00 00  |................|
 FD63  00 00 00 00 00 00 00 00 00 00 00 00 00 00 00 00  |................|
 FD73  00 00 00 00 00 00 00 00 00 00 00 00 00 00 00 00  |................|
 FD83  00 00 00 00 00 00 00 00 00 00 00 00 00 00 00 00  |................|
 FD93  00 00 00 00 00 00 00 00 00 00 00 00 00 00 00 00  |................|
 FDA3  00 00 00 00 00 00 00 00 00 00 00 00 00 00 00 00  |................|
 FDB3  00 00 00 00 00 00 00 00 00 00 00 00 00 00 00 00  |................|
 FDC3  00 00 00 00 00 00 00 00 00 00 00 00 00 00 00 00  |................|
 FDD3  00 00 00 00 00 00 00 00 00 00 00 00 00 00 00 00  |................|
 FDE3  00 00 00 00 00 00 00 00 00 00 00 00 00 00 00 00  |................|
 FDF3  00 00 00 00 00 00 00 00 00 00 00 00 00 00 00 00  |................|
 FE03  00 00 00 00 00 00 00 00 00 00 00 00 00 00 00 00  |................|
 FE13  00 00 00 00 00 00 00 00 00 00 00 00 00 00 00 00  |................|
 FE23  00 00 00 00 00 00 00 00 00 00 00 00 00 00 00 00  |................|
 FE33  00 00 00 00 00 00 00 00 00 00 00 00 00 00 00 00  |................|
 FE43  00 00 00 00 00 00 00 00 00 00 00 00 00 00 00 00  |................|
 FE53  00 00 00 00 00 00 00 00 00 00 00 00 00 00 00 00  |................|
 FE63  00 00 00 00 00 00 00 00 00 00 00 00 00 00 00 00  |................|
 FE73  00 00 00 00 00 00 00 00 00 00 00 00 00 00 00 00  |................|
 FE83  00 00 00 00 00 00 00 00 00 00 00 00 00 00 00 00  |................|
 FE93  00 00 00 00 00 00 00 00 00 00 00 00 00 00 00 00  |................|
 FEA3  00 00 00 00 00 00 00 00 00 00 00 00 00 00 00 00  |................|
 FEB3  00 00 00 00 00 00 00 00 00 00 00 00 00 00 00 00  |................|
 FEC3  00 00 00 00 00 00 00 00 00 00 00 00 00 00 00 00  |................|
 FED3  00 00 00 00 00 00 00 00 00 00 00 00 00 00 00 00  |................|
 FEE3  00 00 00 00 00 00 00 00 00 00 00 00 00 00 00 00  |................|
 FEF3  00 00 00 00 00 00 00 00 00 00 00 00 00 00 00 00  |................|
 FF03  00 00 00 00 00 00 00 00 00 00 00 00 00 00 00 00  |................|
 FF13  00 00 00 00 00 00 00 00 00 00 00 00 00 00 00 00  |................|
 FF23  00 00 00 00 00 00 00 00 00 00 00 00 00 00 00 00  |................|
 FF33  00 00 00 00 00 00 00 00 00 00 00 00 00 00 00 00  |................|
 FF43  00 00 00 00 00 00 00 00 00 00 00 00 00 00 00 00  |................|
 FF53  00 00 00 00 00 00 00 00 00 00 00 00 00 00 00 00  |................|
 FF63  00 00 00 00 00 00 00 00 00 00 00 00 00 00 00 00  |................|
 FF73  00 00 00 00 00 00 00 00 00 00 00 00 00 00 00 00  |................|
 FF83  00 00 00 00 00 00 00 00 00 00 00 00 00 00 00 00  |................|
 FF93  00 00 00 00 00 00 00 00 00 00 00 00 00 00 00 00  |................|
 FFA3  00 00 00 00 00 00 00 00 00 00 00 00 00 00 00 00  |................|
 FFB3  00 00 00 00 00 00 00 00 00 00 00 00 00 00 00 00  |................|
 FFC3  00 00 00 00 00 00 00 00 00 00 00 00 00 00 00 00  |................|
 FFD3  00 00 00 00 00 00 00 00 00 00 00 00 00 00 00 00  |................|
 FFE3  00 00 00 00 00 00 00 00 00 00 00 00 00 00 00 00  |................|
 FFF3  00 00 00 00 00 00 00 8E E6 6D E6 11 E7           |.........m...   |
