 8000  D8        CLD  
 8001  A9 AA     LDA  #$AA
 8003  85 10     STA  $10
 8005  A9 E7     LDA  #$E7
 8007  85 11     STA  $11
 8009  A2 21     LDX  #$21
 800B  BD C5 80  LDA  $80C5, X
 800E  95 00     STA  $00, X
 8010  CA        DEX  
 8011  D0 F8     BNE  $800B
 8013  AD C5 80  LDA  $80C5
 8016  85 00     STA  $00
 8018  A2 FF     LDX  #$FF
 801A  9A        TXS  
 801B  A2 78     LDX  #$78
 801D  A0 31     LDY  #$31
 801F  A9 00     LDA  #$00
 8021  B9 E7 80  LDA  $80E7, Y
 8024  91 1E     STA  ($1E), Y
 8026  88        DEY  
 8027  D0 F8     BNE  $8021
 8029  AD E7 80  LDA  $80E7
 802C  92 1E     STA  ($1E)
 802E  20 53 89  JSR  $8953
 8031  CA        DEX  
 8032  CA        DEX  
 8033  CA        DEX  
 8034  CA        DEX  
 8035  A9 6C     LDA  #$6C
 8037  95 02     STA  $02, X
 8039  A9 B9     LDA  #$B9
 803B  95 03     STA  $03, X
 803D  A9 25     LDA  #$25
 803F  38        SEC  
 8040  E9 6C     SBC  #$6C
 8042  95 00     STA  $00, X
 8044  A9 BA     LDA  #$BA
 8046  E9 B9     SBC  #$B9
 8048  95 01     STA  $01, X
 804A  20 C5 90  JSR  $90C5
 804D  CA        DEX  
 804E  CA        DEX  
 804F  CA        DEX  
 8050  CA        DEX  
 8051  A9 25     LDA  #$25
 8053  95 02     STA  $02, X
 8055  A9 BA     LDA  #$BA
 8057  95 03     STA  $03, X
 8059  A9 27     LDA  #$27
 805B  38        SEC  
 805C  E9 25     SBC  #$25
 805E  95 00     STA  $00, X
 8060  A9 BA     LDA  #$BA
 8062  E9 BA     SBC  #$BA
 8064  95 01     STA  $01, X
 8066  20 C5 90  JSR  $90C5
 8069  9C 00 7C  STZ  $7C00
 806C  9C 80 7C  STZ  $7C80
 806F  9C 00 7D  STZ  $7D00
 8072  9C 80 7D  STZ  $7D80
 8075  9C 00 7E  STZ  $7E00
 8078  9C 80 7E  STZ  $7E80
 807B  9C 00 7F  STZ  $7F00
 807E  9C 80 7F  STZ  $7F80
 8081  A2 78     LDX  #$78
 8083  8A        TXA  
 8084  A2 FF     LDX  #$FF
 8086  9A        TXS  
 8087  AA        TAX  
 8088  64 0E     STZ  $0E
 808A  64 0F     STZ  $0F
 808C  64 06     STZ  $06
 808E  64 07     STZ  $07
 8090  64 16     STZ  $16
 8092  64 17     STZ  $17
 8094  A9 00     LDA  #$00
 8096  85 08     STA  $08
 8098  A9 02     LDA  #$02
 809A  85 09     STA  $09
 809C  64 0A     STZ  $0A
 809E  64 0B     STZ  $0B
 80A0  20 7A 9A  JSR  $9A7A
 80A3  B5 00     LDA  $00, X
 80A5  D0 05     BNE  $80AC
 80A7  A9 06     LDA  #$06
 80A9  4C 0F D6  JMP  $D60F
 80AC  E8        INX  
 80AD  E8        INX  
 80AE  20 61 D5  JSR  $D561
 80B1  E0 78     CPX  #$78
 80B3  F0 05     BEQ  $80BA
 80B5  90 03     BCC  $80BA
 80B7  4C 0D D6  JMP  $D60D
 80BA  A5 16     LDA  $16
 80BC  F0 02     BEQ  $80C0
 80BE  A9 01     LDA  #$01
 80C0  20 3F D6  JSR  $D63F
 80C3  80 CF     BRA  $8094
 80C5  FF 07 32 C8 00 00 00 00 00 02 00 00 00 00 00 00  |..2.............|
 80D5  AA E7 A4 E7 00 00 00 00 0A 00 14 00 00 00 FF 02  |................|
 80E5  00 00 00 00 00 00 00 04 32 C8 C6 C8 CF C8 6E C8  |........2.....n.|
 80F5  00 00 00 00 00 00 00 00 00 00 00 00 00 00 00 00  |................|
 8105  01 00 00 00 00 00 00 00 00 00 FF 03 00 00 00 00  |................|
 8115  4B 85 4B 85                                      |K.K.            |
 8119  20 D1 9C  JSR  $9CD1
 811C  A0 81     LDY  #$81
 811E  A9 24     LDA  #$24
 8120  20 9C D4  JSR  $D49C
 8123  60        RTS  
 8124  B5 04     LDA  $04, X
 8126  15 05     ORA  $05, X
 8128  F0 09     BEQ  $8133
 812A  20 7F A4  JSR  $A47F
 812D  20 53 89  JSR  $8953
 8130  4C 81 80  JMP  $8081
 8133  8A        TXA  
 8134  18        CLC  
 8135  69 06     ADC  #$06
 8137  AA        TAX  
 8138  60        RTS  
 8139  20 F9 D5  JSR  $D5F9
 813C  B5 01     LDA  $01, X
 813E  10 0D     BPL  $814D
 8140  38        SEC  
 8141  A9 00     LDA  #$00
 8143  F5 00     SBC  $00, X
 8145  95 00     STA  $00, X
 8147  A9 00     LDA  #$00
 8149  F5 01     SBC  $01, X
 814B  95 01     STA  $01, X
 814D  60        RTS  
 814E  20 FE D5  JSR  $D5FE
 8151  B5 00     LDA  $00, X
 8153  15 01     ORA  $01, X
 8155  D0 09     BNE  $8160
 8157  E8        INX  
 8158  E8        INX  
 8159  74 00     STZ  $00, X
 815B  74 01     STZ  $01, X
 815D  4C 2C 82  JMP  $822C
 8160  B5 00     LDA  $00, X
 8162  85 26     STA  $26
 8164  64 27     STZ  $27
 8166  B5 02     LDA  $02, X
 8168  85 24     STA  $24
 816A  B5 03     LDA  $03, X
 816C  85 25     STA  $25
 816E  E8        INX  
 816F  E8        INX  
 8170  A0 00     LDY  #$00
 8172  A5 20     LDA  $20
 8174  29 F7     AND  #$F7
 8176  1A        INC  
 8177  09 08     ORA  #$08
 8179  85 20     STA  $20
 817B  20 28 93  JSR  $9328
 817E  C9 0A     CMP  #$0A
 8180  F0 20     BEQ  $81A2
 8182  C9 0D     CMP  #$0D
 8184  F0 1C     BEQ  $81A2
 8186  C9 08     CMP  #$08
 8188  F0 22     BEQ  $81AC
 818A  C9 7F     CMP  #$7F
 818C  F0 1E     BEQ  $81AC
 818E  C9 10     CMP  #$10
 8190  F0 36     BEQ  $81C8
 8192  C9 0E     CMP  #$0E
 8194  F0 44     BEQ  $81DA
 8196  91 24     STA  ($24), Y
 8198  C8        INY  
 8199  20 E6 8D  JSR  $8DE6
 819C  C4 26     CPY  $26
 819E  D0 DB     BNE  $817B
 81A0  80 03     BRA  $81A5
 81A2  20 A0 A0  JSR  $A0A0
 81A5  94 00     STY  $00, X
 81A7  74 01     STZ  $01, X
 81A9  4C 2C 82  JMP  $822C
 81AC  C0 00     CPY  #$00
 81AE  D0 06     BNE  $81B6
 81B0  A9 07     LDA  #$07
 81B2  20 E6 8D  JSR  $8DE6
 81B5  C8        INY  
 81B6  88        DEY  
 81B7  A9 08     LDA  #$08
 81B9  20 E6 8D  JSR  $8DE6
 81BC  A9 20     LDA  #$20
 81BE  20 E6 8D  JSR  $8DE6
 81C1  A9 08     LDA  #$08
 81C3  20 E6 8D  JSR  $8DE6
 81C6  80 B3     BRA  $817B
 81C8  A5 20     LDA  $20
 81CA  29 07     AND  #$07
 81CC  D0 08     BNE  $81D6
 81CE  A5 20     LDA  $20
 81D0  09 07     ORA  #$07
 81D2  85 20     STA  $20
 81D4  80 11     BRA  $81E7
 81D6  C6 20     DEC  $20
 81D8  80 0D     BRA  $81E7
 81DA  A9 08     LDA  #$08
 81DC  24 20     BIT  $20
 81DE  D0 07     BNE  $81E7
 81E0  A5 20     LDA  $20
 81E2  29 F7     AND  #$F7
 81E4  1A        INC  
 81E5  85 20     STA  $20
 81E7  A9 08     LDA  #$08
 81E9  14 20     TRB  $20
 81EB  20 47 82  JSR  $8247
 81EE  A9 0D     LDA  #$0D
 81F0  20 E6 8D  JSR  $8DE6
 81F3  C0 00     CPY  #$00
 81F5  F0 08     BEQ  $81FF
 81F7  A9 20     LDA  #$20
 81F9  20 E6 8D  JSR  $8DE6
 81FC  88        DEY  
 81FD  80 F4     BRA  $81F3
 81FF  A9 0D     LDA  #$0D
 8201  20 E6 8D  JSR  $8DE6
 8204  B1 28     LDA  ($28), Y
 8206  85 21     STA  $21
 8208  E6 28     INC  $28
 820A  D0 02     BNE  $820E
 820C  E6 29     INC  $29
 820E  A9 0D     LDA  #$0D
 8210  20 E6 8D  JSR  $8DE6
 8213  C4 21     CPY  $21
 8215  D0 03     BNE  $821A
 8217  4C 7B 81  JMP  $817B
 821A  C4 26     CPY  $26
 821C  F0 0A     BEQ  $8228
 821E  B1 28     LDA  ($28), Y
 8220  91 24     STA  ($24), Y
 8222  20 E6 8D  JSR  $8DE6
 8225  C8        INY  
 8226  80 EB     BRA  $8213
 8228  88        DEY  
 8229  4C 7B 81  JMP  $817B
 822C  20 47 82  JSR  $8247
 822F  85 21     STA  $21
 8231  A0 00     LDY  #$00
 8233  91 28     STA  ($28), Y
 8235  E6 28     INC  $28
 8237  D0 02     BNE  $823B
 8239  E6 29     INC  $29
 823B  C4 21     CPY  $21
 823D  F0 07     BEQ  $8246
 823F  B1 24     LDA  ($24), Y
 8241  91 28     STA  ($28), Y
 8243  C8        INY  
 8244  80 F5     BRA  $823B
 8246  60        RTS  
 8247  A9 00     LDA  #$00
 8249  85 28     STA  $28
 824B  A9 7C     LDA  #$7C
 824D  85 29     STA  $29
 824F  A5 20     LDA  $20
 8251  6A        ROR  
 8252  29 03     AND  #$03
 8254  18        CLC  
 8255  65 29     ADC  $29
 8257  85 29     STA  $29
 8259  A5 20     LDA  $20
 825B  6A        ROR  
 825C  6A        ROR  
 825D  29 80     AND  #$80
 825F  18        CLC  
 8260  65 28     ADC  $28
 8262  85 28     STA  $28
 8264  90 02     BCC  $8268
 8266  E6 29     INC  $29
 8268  98        TYA  
 8269  C9 80     CMP  #$80
 826B  90 02     BCC  $826F
 826D  A9 7F     LDA  #$7F
 826F  60        RTS  
 8270  A5 16     LDA  $16
 8272  05 17     ORA  $17
 8274  F0 0C     BEQ  $8282
 8276  20 8E 85  JSR  $858E
 8279  A0 8A     LDY  #$8A
 827B  A9 CF     LDA  #$CF
 827D  20 9C D4  JSR  $D49C
 8280  80 06     BRA  $8288
 8282  20 8D A1  JSR  $A18D
 8285  20 CF 8A  JSR  $8ACF
 8288  60        RTS  
 8289  20 F9 D5  JSR  $D5F9
 828C  A0 00     LDY  #$00
 828E  A9 4C     LDA  #$4C
 8290  91 00     STA  ($00), Y
 8292  C8        INY  
 8293  B5 00     LDA  $00, X
 8295  91 00     STA  ($00), Y
 8297  C8        INY  
 8298  B5 01     LDA  $01, X
 829A  91 00     STA  ($00), Y
 829C  C8        INY  
 829D  98        TYA  
 829E  18        CLC  
 829F  65 00     ADC  $00
 82A1  85 00     STA  $00
 82A3  90 02     BCC  $82A7
 82A5  E6 01     INC  $01
 82A7  E8        INX  
 82A8  E8        INX  
 82A9  60        RTS  
 82AA  60        RTS  
 82AB  20 F9 D5  JSR  $D5F9
 82AE  B5 01     LDA  $01, X
 82B0  30 22     BMI  $82D4
 82B2  18        CLC  
 82B3  A5 00     LDA  $00
 82B5  75 00     ADC  $00, X
 82B7  85 00     STA  $00
 82B9  A5 01     LDA  $01
 82BB  75 01     ADC  $01, X
 82BD  85 01     STA  $01
 82BF  A0 03     LDY  #$03
 82C1  C4 00     CPY  $00
 82C3  A9 7A     LDA  #$7A
 82C5  E5 01     SBC  $01
 82C7  B0 48     BCS  $8311
 82C9  84 00     STY  $00
 82CB  A9 7A     LDA  #$7A
 82CD  85 01     STA  $01
 82CF  A9 00     LDA  #$00
 82D1  4C 0F D6  JMP  $D60F
 82D4  CA        DEX  
 82D5  CA        DEX  
 82D6  A5 00     LDA  $00
 82D8  95 00     STA  $00, X
 82DA  A5 01     LDA  $01
 82DC  95 01     STA  $01, X
 82DE  20 65 99  JSR  $9965
 82E1  CA        DEX  
 82E2  CA        DEX  
 82E3  A9 FF     LDA  #$FF
 82E5  95 00     STA  $00, X
 82E7  A9 02     LDA  #$02
 82E9  95 01     STA  $01, X
 82EB  20 20 D5  JSR  $D520
 82EE  F0 17     BEQ  $8307
 82F0  30 15     BMI  $8307
 82F2  A9 FF     LDA  #$FF
 82F4  85 00     STA  $00
 82F6  A9 02     LDA  #$02
 82F8  85 01     STA  $01
 82FA  A9 32     LDA  #$32
 82FC  85 02     STA  $02
 82FE  A9 C8     LDA  #$C8
 8300  85 03     STA  $03
 8302  A9 0A     LDA  #$0A
 8304  4C 0F D6  JMP  $D60F
 8307  B5 02     LDA  $02, X
 8309  85 00     STA  $00
 830B  B5 03     LDA  $03, X
 830D  85 01     STA  $01
 830F  E8        INX  
 8310  E8        INX  
 8311  E8        INX  
 8312  E8        INX  
 8313  60        RTS  
 8314  20 3B D5  JSR  $D53B
 8317  A0 01     LDY  #$01
 8319  B1 02     LDA  ($02), Y
 831B  29 F5     AND  #$F5
 831D  91 02     STA  ($02), Y
 831F  60        RTS  
 8320  20 24 91  JSR  $9124
 8323  20 15 98  JSR  $9815
 8326  20 2A A1  JSR  $A12A
 8329  20 9F 97  JSR  $979F
 832C  20 9D 9C  JSR  $9C9D
 832F  60        RTS  
 8330  20 3B D5  JSR  $D53B
 8333  A0 01     LDY  #$01
 8335  B1 02     LDA  ($02), Y
 8337  09 02     ORA  #$02
 8339  29 F7     AND  #$F7
 833B  91 02     STA  ($02), Y
 833D  60        RTS  
 833E  20 FE D5  JSR  $D5FE
 8341  B5 00     LDA  $00, X
 8343  35 02     AND  $02, X
 8345  95 02     STA  $02, X
 8347  B5 01     LDA  $01, X
 8349  35 03     AND  $03, X
 834B  95 03     STA  $03, X
 834D  E8        INX  
 834E  E8        INX  
 834F  60        RTS  
 8350  20 FE D5  JSR  $D5FE
 8353  A9 1B     LDA  #$1B
 8355  20 E6 8D  JSR  $8DE6
 8358  A9 5B     LDA  #$5B
 835A  20 E6 8D  JSR  $8DE6
 835D  20 45 D6  JSR  $D645
 8360  A9 3B     LDA  #$3B
 8362  20 E6 8D  JSR  $8DE6
 8365  20 45 D6  JSR  $D645
 8368  A9 48     LDA  #$48
 836A  20 E6 8D  JSR  $8DE6
 836D  60        RTS  
 836E  A5 0A     LDA  $0A
 8370  85 0C     STA  $0C
 8372  A5 0B     LDA  $0B
 8374  85 0D     STA  $0D
 8376  60        RTS  
 8377  CA        DEX  
 8378  CA        DEX  
 8379  A9 18     LDA  #$18
 837B  95 00     STA  $00, X
 837D  74 01     STZ  $01, X
 837F  60        RTS  
 8380  20 62 91  JSR  $9162
 8383  60        RTS  
 8384  A9 07     LDA  #$07
 8386  20 E6 8D  JSR  $8DE6
 8389  60        RTS  
 838A  CA        DEX  
 838B  CA        DEX  
 838C  A9 20     LDA  #$20
 838E  95 00     STA  $00, X
 8390  74 01     STZ  $01, X
 8392  60        RTS  
 8393  CA        DEX  
 8394  CA        DEX  
 8395  18        CLC  
 8396  A5 1E     LDA  $1E
 8398  69 00     ADC  #$00
 839A  95 00     STA  $00, X
 839C  A5 1F     LDA  $1F
 839E  69 00     ADC  #$00
 83A0  95 01     STA  $01, X
 83A2  60        RTS  
 83A3  CA        DEX  
 83A4  CA        DEX  
 83A5  A0 28     LDY  #$28
 83A7  B1 1E     LDA  ($1E), Y
 83A9  95 00     STA  $00, X
 83AB  C8        INY  
 83AC  B1 1E     LDA  ($1E), Y
 83AE  95 01     STA  $01, X
 83B0  60        RTS  
 83B1  A0 2A     LDY  #$2A
 83B3  B1 1E     LDA  ($1E), Y
 83B5  D5 00     CMP  $00, X
 83B7  D0 0F     BNE  $83C8
 83B9  C8        INY  
 83BA  B1 1E     LDA  ($1E), Y
 83BC  D5 01     CMP  $01, X
 83BE  D0 08     BNE  $83C8
 83C0  A0 2C     LDY  #$2C
 83C2  B1 1E     LDA  ($1E), Y
 83C4  29 01     AND  #$01
 83C6  D0 30     BNE  $83F8
 83C8  A0 2C     LDY  #$2C
 83CA  B1 1E     LDA  ($1E), Y
 83CC  C9 03     CMP  #$03
 83CE  D0 0C     BNE  $83DC
 83D0  20 A3 83  JSR  $83A3
 83D3  20 95 85  JSR  $8595
 83D6  20 70 8F  JSR  $8F70
 83D9  20 50 85  JSR  $8550
 83DC  A0 2A     LDY  #$2A
 83DE  B5 00     LDA  $00, X
 83E0  91 1E     STA  ($1E), Y
 83E2  C8        INY  
 83E3  B5 01     LDA  $01, X
 83E5  91 1E     STA  ($1E), Y
 83E7  20 A3 83  JSR  $83A3
 83EA  20 2A A1  JSR  $A12A
 83ED  20 2D 85  JSR  $852D
 83F0  A9 01     LDA  #$01
 83F2  A0 2C     LDY  #$2C
 83F4  91 1E     STA  ($1E), Y
 83F6  CA        DEX  
 83F7  CA        DEX  
 83F8  A0 28     LDY  #$28
 83FA  B1 1E     LDA  ($1E), Y
 83FC  95 00     STA  $00, X
 83FE  C8        INY  
 83FF  B1 1E     LDA  ($1E), Y
 8401  95 01     STA  $01, X
 8403  60        RTS  
 8404  20 F9 D5  JSR  $D5F9
 8407  4C 22 85  JMP  $8522
 840A  62 61 73 65 20 40 20 73 77 61 70 20 64 65 63 69  |base @ swap deci|
 841A  6D 61 6C 20 31 30 32 34 20 2A 20 64 75 70 20 62  |mal 1024 * dup b|
 842A  75 66 66 65 72 3A 20 72 61 6D 64 72 69 76 65 20  |uffer: ramdrive |
 843A  3A 20 62 6C 6F 63 6B 2D 72 65 61 64 2D 72 61 6D  |: block-read-ram|
 844A  64 72 69 76 65 20 72 61 6D 64 72 69 76 65 20 73  |drive ramdrive s|
 845A  77 61 70 20 31 30 32 34 20 2A 20 2B 20 73 77 61  |wap 1024 * + swa|
 846A  70 20 31 30 32 34 20 6D 6F 76 65 20 3B 20 3A 20  |p 1024 move ; : |
 847A  62 6C 6F 63 6B 2D 77 72 69 74 65 2D 72 61 6D 64  |block-write-ramd|
 848A  72 69 76 65 20 72 61 6D 64 72 69 76 65 20 73 77  |rive ramdrive sw|
 849A  61 70 20 31 30 32 34 20 2A 20 2B 20 31 30 32 34  |ap 1024 * + 1024|
 84AA  20 6D 6F 76 65 20 3B 20 27 20 62 6C 6F 63 6B 2D  | move ; ' block-|
 84BA  72 65 61 64 2D 72 61 6D 64 72 69 76 65 20 62 6C  |read-ramdrive bl|
 84CA  6F 63 6B 2D 72 65 61 64 2D 76 65 63 74 6F 72 20  |ock-read-vector |
 84DA  21 20 27 20 62 6C 6F 63 6B 2D 77 72 69 74 65 2D  |! ' block-write-|
 84EA  72 61 6D 64 72 69 76 65 20 62 6C 6F 63 6B 2D 77  |ramdrive block-w|
 84FA  72 69 74 65 2D 76 65 63 74 6F 72 20 21 20 72 61  |rite-vector ! ra|
 850A  6D 64 72 69 76 65 20 73 77 61 70 20 62 6C 61 6E  |mdrive swap blan|
 851A  6B 20 62 61 73 65 20 21                          |k base !        |
 8522  20 2B A0  JSR  $A02B
 8525  0A 84 18 01                                      |....            |
 8529  20 C5 90  JSR  $90C5
 852C  60        RTS  
 852D  A0 2E     LDY  #$2E
 852F  B1 1E     LDA  ($1E), Y
 8531  85 24     STA  $24
 8533  C8        INY  
 8534  B1 1E     LDA  ($1E), Y
 8536  85 25     STA  $25
 8538  6C 24 00  JMP  ($0024)
 853B  CA        DEX  
 853C  CA        DEX  
 853D  18        CLC  
 853E  A5 1E     LDA  $1E
 8540  69 2E     ADC  #$2E
 8542  95 00     STA  $00, X
 8544  A5 1F     LDA  $1F
 8546  69 00     ADC  #$00
 8548  95 01     STA  $01, X
 854A  60        RTS  
 854B  A9 0C     LDA  #$0C
 854D  4C 0F D6  JMP  $D60F
 8550  A0 30     LDY  #$30
 8552  B1 1E     LDA  ($1E), Y
 8554  85 24     STA  $24
 8556  C8        INY  
 8557  B1 1E     LDA  ($1E), Y
 8559  85 25     STA  $25
 855B  6C 24 00  JMP  ($0024)
 855E  CA        DEX  
 855F  CA        DEX  
 8560  18        CLC  
 8561  A5 1E     LDA  $1E
 8563  69 30     ADC  #$30
 8565  95 00     STA  $00, X
 8567  A5 1F     LDA  $1F
 8569  69 00     ADC  #$00
 856B  95 01     STA  $01, X
 856D  60        RTS  
 856E  20 FE D5  JSR  $D5FE
 8571  18        CLC  
 8572  B5 00     LDA  $00, X
 8574  B4 02     LDY  $02, X
 8576  75 02     ADC  $02, X
 8578  95 02     STA  $02, X
 857A  94 00     STY  $00, X
 857C  B5 01     LDA  $01, X
 857E  B4 03     LDY  $03, X
 8580  75 03     ADC  $03, X
 8582  95 03     STA  $03, X
 8584  94 01     STY  $01, X
 8586  60        RTS  
 8587  20 21 86  JSR  $8621
 858A  20 7A 93  JSR  $937A
 858D  60        RTS  
 858E  20 8D A1  JSR  $A18D
 8591  20 7A 93  JSR  $937A
 8594  60        RTS  
 8595  CA        DEX  
 8596  CA        DEX  
 8597  18        CLC  
 8598  A5 1E     LDA  $1E
 859A  69 2A     ADC  #$2A
 859C  95 00     STA  $00, X
 859E  A5 1F     LDA  $1F
 85A0  69 00     ADC  #$00
 85A2  95 01     STA  $01, X
 85A4  60        RTS  
 85A5  A0 2C     LDY  #$2C
 85A7  B1 1E     LDA  ($1E), Y
 85A9  C9 03     CMP  #$03
 85AB  D0 0C     BNE  $85B9
 85AD  20 A3 83  JSR  $83A3
 85B0  20 95 85  JSR  $8595
 85B3  20 70 8F  JSR  $8F70
 85B6  20 50 85  JSR  $8550
 85B9  A0 2A     LDY  #$2A
 85BB  B5 00     LDA  $00, X
 85BD  91 1E     STA  ($1E), Y
 85BF  C8        INY  
 85C0  B5 01     LDA  $01, X
 85C2  91 1E     STA  ($1E), Y
 85C4  A9 01     LDA  #$01
 85C6  A0 2C     LDY  #$2C
 85C8  91 1E     STA  ($1E), Y
 85CA  A0 28     LDY  #$28
 85CC  B1 1E     LDA  ($1E), Y
 85CE  95 00     STA  $00, X
 85D0  C8        INY  
 85D1  B1 1E     LDA  ($1E), Y
 85D3  95 01     STA  $01, X
 85D5  60        RTS  
 85D6  20 59 89  JSR  $8959
 85D9  20 AB 82  JSR  $82AB
 85DC  60        RTS  
 85DD  CA        DEX  
 85DE  CA        DEX  
 85DF  18        CLC  
 85E0  A5 1E     LDA  $1E
 85E2  69 2C     ADC  #$2C
 85E4  95 00     STA  $00, X
 85E6  A5 1F     LDA  $1F
 85E8  69 00     ADC  #$00
 85EA  95 01     STA  $01, X
 85EC  60        RTS  
 85ED  4C 72 E7  JMP  $E772
 85F0  20 F9 D5  JSR  $D5F9
 85F3  B5 00     LDA  $00, X
 85F5  20 AC D4  JSR  $D4AC
 85F8  E8        INX  
 85F9  E8        INX  
 85FA  60        RTS  
 85FB  20 F9 D5  JSR  $D5F9
 85FE  A1 00     LDA  ($00, X)
 8600  95 00     STA  $00, X
 8602  74 01     STZ  $01, X
 8604  60        RTS  
 8605  20 FE D5  JSR  $D5FE
 8608  B5 02     LDA  $02, X
 860A  81 00     STA  ($00, X)
 860C  E8        INX  
 860D  E8        INX  
 860E  E8        INX  
 860F  E8        INX  
 8610  60        RTS  
 8611  20 F9 D5  JSR  $D5F9
 8614  F6 00     INC  $00, X
 8616  D0 02     BNE  $861A
 8618  F6 01     INC  $01, X
 861A  F6 00     INC  $00, X
 861C  D0 02     BNE  $8620
 861E  F6 01     INC  $01, X
 8620  60        RTS  
 8621  20 61 98  JSR  $9861
 8624  B5 00     LDA  $00, X
 8626  15 01     ORA  $01, X
 8628  D0 05     BNE  $862F
 862A  A9 05     LDA  #$05
 862C  4C 0F D6  JMP  $D60F
 862F  E8        INX  
 8630  E8        INX  
 8631  A1 00     LDA  ($00, X)
 8633  95 00     STA  $00, X
 8635  74 01     STZ  $01, X
 8637  60        RTS  
 8638  20 F9 D5  JSR  $D5F9
 863B  60        RTS  
 863C  20 FE D5  JSR  $D5FE
 863F  20 53 95  JSR  $9553
 8642  20 52 92  JSR  $9252
 8645  B5 00     LDA  $00, X
 8647  85 0A     STA  $0A
 8649  B5 01     LDA  $01, X
 864B  85 0B     STA  $0B
 864D  B5 02     LDA  $02, X
 864F  85 08     STA  $08
 8651  B5 03     LDA  $03, X
 8653  85 09     STA  $09
 8655  64 0C     STZ  $0C
 8657  64 0D     STZ  $0D
 8659  20 61 98  JSR  $9861
 865C  B5 00     LDA  $00, X
 865E  15 01     ORA  $01, X
 8660  F0 23     BEQ  $8685
 8662  B5 04     LDA  $04, X
 8664  38        SEC  
 8665  F5 00     SBC  $00, X
 8667  95 04     STA  $04, X
 8669  B5 05     LDA  $05, X
 866B  F5 01     SBC  $01, X
 866D  95 05     STA  $05, X
 866F  B5 06     LDA  $06, X
 8671  18        CLC  
 8672  75 00     ADC  $00, X
 8674  95 06     STA  $06, X
 8676  B5 07     LDA  $07, X
 8678  75 01     ADC  $01, X
 867A  95 07     STA  $07, X
 867C  20 FA A3  JSR  $A3FA
 867F  20 53 95  JSR  $9553
 8682  20 FA A3  JSR  $A3FA
 8685  20 25 9A  JSR  $9A25
 8688  60        RTS  
 8689  20 03 D6  JSR  $D603
 868C  B5 02     LDA  $02, X
 868E  85 26     STA  $26
 8690  B5 03     LDA  $03, X
 8692  85 27     STA  $27
 8694  B5 04     LDA  $04, X
 8696  85 24     STA  $24
 8698  B5 05     LDA  $05, X
 869A  85 25     STA  $25
 869C  A0 00     LDY  #$00
 869E  B5 01     LDA  $01, X
 86A0  F0 0F     BEQ  $86B1
 86A2  B1 24     LDA  ($24), Y
 86A4  91 26     STA  ($26), Y
 86A6  C8        INY  
 86A7  D0 F9     BNE  $86A2
 86A9  E6 25     INC  $25
 86AB  E6 27     INC  $27
 86AD  D6 01     DEC  $01, X
 86AF  D0 F1     BNE  $86A2
 86B1  B5 00     LDA  $00, X
 86B3  F0 09     BEQ  $86BE
 86B5  B1 24     LDA  ($24), Y
 86B7  91 26     STA  ($26), Y
 86B9  C8        INY  
 86BA  D6 00     DEC  $00, X
 86BC  D0 F7     BNE  $86B5
 86BE  8A        TXA  
 86BF  18        CLC  
 86C0  69 06     ADC  #$06
 86C2  AA        TAX  
 86C3  60        RTS  
 86C4  20 03 D6  JSR  $D603
 86C7  B5 02     LDA  $02, X
 86C9  85 26     STA  $26
 86CB  B5 03     LDA  $03, X
 86CD  18        CLC  
 86CE  75 01     ADC  $01, X
 86D0  85 27     STA  $27
 86D2  B5 04     LDA  $04, X
 86D4  85 24     STA  $24
 86D6  B5 05     LDA  $05, X
 86D8  18        CLC  
 86D9  75 01     ADC  $01, X
 86DB  85 25     STA  $25
 86DD  F6 01     INC  $01, X
 86DF  B4 00     LDY  $00, X
 86E1  F0 0E     BEQ  $86F1
 86E3  88        DEY  
 86E4  F0 07     BEQ  $86ED
 86E6  B1 24     LDA  ($24), Y
 86E8  91 26     STA  ($26), Y
 86EA  88        DEY  
 86EB  D0 F9     BNE  $86E6
 86ED  B2 24     LDA  ($24)
 86EF  92 26     STA  ($26)
 86F1  C6 25     DEC  $25
 86F3  C6 27     DEC  $27
 86F5  D6 01     DEC  $01, X
 86F7  D0 EA     BNE  $86E3
 86F9  8A        TXA  
 86FA  18        CLC  
 86FB  69 06     ADC  #$06
 86FD  AA        TAX  
 86FE  60        RTS  
 86FF  A5 16     LDA  $16
 8701  05 17     ORA  $17
 8703  F0 05     BEQ  $870A
 8705  A9 07     LDA  #$07
 8707  4C 0F D6  JMP  $D60F
 870A  C6 16     DEC  $16
 870C  C6 17     DEC  $17
 870E  A9 40     LDA  #$40
 8710  04 20     TSB  $20
 8712  20 3B D5  JSR  $D53B
 8715  A5 03     LDA  $03
 8717  48        PHA  
 8718  A5 02     LDA  $02
 871A  48        PHA  
 871B  A9 80     LDA  #$80
 871D  04 20     TSB  $20
 871F  20 59 89  JSR  $8959
 8722  20 3B D5  JSR  $D53B
 8725  A5 02     LDA  $02
 8727  85 04     STA  $04
 8729  A5 03     LDA  $03
 872B  85 05     STA  $05
 872D  68        PLA  
 872E  85 02     STA  $02
 8730  68        PLA  
 8731  85 03     STA  $03
 8733  20 4E D5  JSR  $D54E
 8736  A5 00     LDA  $00
 8738  38        SEC  
 8739  E9 03     SBC  #$03
 873B  85 00     STA  $00
 873D  B0 02     BCS  $8741
 873F  C6 01     DEC  $01
 8741  60        RTS  
 8742  A5 16     LDA  $16
 8744  05 17     ORA  $17
 8746  F0 05     BEQ  $874D
 8748  A9 07     LDA  #$07
 874A  4C 0F D6  JMP  $D60F
 874D  C6 16     DEC  $16
 874F  C6 17     DEC  $17
 8751  A9 40     LDA  #$40
 8753  14 20     TRB  $20
 8755  A5 00     LDA  $00
 8757  85 04     STA  $04
 8759  A5 01     LDA  $01
 875B  85 05     STA  $05
 875D  60        RTS  
 875E  20 F9 D5  JSR  $D5F9
 8761  B5 00     LDA  $00, X
 8763  92 00     STA  ($00)
 8765  E6 00     INC  $00
 8767  D0 02     BNE  $876B
 8769  E6 01     INC  $01
 876B  B5 01     LDA  $01, X
 876D  92 00     STA  ($00)
 876F  E6 00     INC  $00
 8771  D0 02     BNE  $8775
 8773  E6 01     INC  $01
 8775  E8        INX  
 8776  E8        INX  
 8777  60        RTS  
 8778  20 08 D6  JSR  $D608
 877B  B5 02     LDA  $02, X
 877D  85 26     STA  $26
 877F  B5 03     LDA  $03, X
 8781  85 27     STA  $27
 8783  B5 06     LDA  $06, X
 8785  85 24     STA  $24
 8787  B5 07     LDA  $07, X
 8789  85 25     STA  $25
 878B  B5 04     LDA  $04, X
 878D  15 05     ORA  $05, X
 878F  F0 2C     BEQ  $87BD
 8791  B5 00     LDA  $00, X
 8793  15 01     ORA  $01, X
 8795  F0 3A     BEQ  $87D1
 8797  B2 24     LDA  ($24)
 8799  D2 26     CMP  ($26)
 879B  90 26     BCC  $87C3
 879D  D0 32     BNE  $87D1
 879F  E6 24     INC  $24
 87A1  D0 02     BNE  $87A5
 87A3  E6 25     INC  $25
 87A5  E6 26     INC  $26
 87A7  D0 02     BNE  $87AB
 87A9  E6 27     INC  $27
 87AB  B5 04     LDA  $04, X
 87AD  D0 02     BNE  $87B1
 87AF  D6 05     DEC  $05, X
 87B1  D6 04     DEC  $04, X
 87B3  B5 00     LDA  $00, X
 87B5  D0 02     BNE  $87B9
 87B7  D6 01     DEC  $01, X
 87B9  D6 00     DEC  $00, X
 87BB  80 CE     BRA  $878B
 87BD  B5 00     LDA  $00, X
 87BF  15 01     ORA  $01, X
 87C1  F0 08     BEQ  $87CB
 87C3  A9 FF     LDA  #$FF
 87C5  95 06     STA  $06, X
 87C7  95 07     STA  $07, X
 87C9  80 0C     BRA  $87D7
 87CB  74 06     STZ  $06, X
 87CD  74 07     STZ  $07, X
 87CF  80 06     BRA  $87D7
 87D1  A9 01     LDA  #$01
 87D3  95 06     STA  $06, X
 87D5  74 07     STZ  $07, X
 87D7  8A        TXA  
 87D8  18        CLC  
 87D9  69 06     ADC  #$06
 87DB  AA        TAX  
 87DC  60        RTS  
 87DD  20 F9 D5  JSR  $D5F9
 87E0  B5 01     LDA  $01, X
 87E2  48        PHA  
 87E3  B5 00     LDA  $00, X
 87E5  48        PHA  
 87E6  20 68 92  JSR  $9268
 87E9  B5 00     LDA  $00, X
 87EB  15 01     ORA  $01, X
 87ED  D0 03     BNE  $87F2
 87EF  4C DA 88  JMP  $88DA
 87F2  B5 00     LDA  $00, X
 87F4  85 2C     STA  $2C
 87F6  B5 01     LDA  $01, X
 87F8  85 2D     STA  $2D
 87FA  F6 00     INC  $00, X
 87FC  D0 02     BNE  $8800
 87FE  F6 01     INC  $01, X
 8800  A1 00     LDA  ($00, X)
 8802  85 28     STA  $28
 8804  29 02     AND  #$02
 8806  F0 0D     BEQ  $8815
 8808  A5 2C     LDA  $2C
 880A  95 00     STA  $00, X
 880C  A5 2D     LDA  $2D
 880E  95 01     STA  $01, X
 8810  20 F0 A6  JSR  $A6F0
 8813  80 27     BRA  $883C
 8815  A5 28     LDA  $28
 8817  29 08     AND  #$08
 8819  F0 03     BEQ  $881E
 881B  4C DA 88  JMP  $88DA
 881E  A5 2C     LDA  $2C
 8820  95 00     STA  $00, X
 8822  A5 2D     LDA  $2D
 8824  95 01     STA  $01, X
 8826  20 F0 A6  JSR  $A6F0
 8829  B5 01     LDA  $01, X
 882B  C5 1B     CMP  $1B
 882D  90 0D     BCC  $883C
 882F  D0 08     BNE  $8839
 8831  B5 00     LDA  $00, X
 8833  C5 1A     CMP  $1A
 8835  90 05     BCC  $883C
 8837  F0 03     BEQ  $883C
 8839  4C DA 88  JMP  $88DA
 883C  CA        DEX  
 883D  CA        DEX  
 883E  CA        DEX  
 883F  CA        DEX  
 8840  B5 04     LDA  $04, X
 8842  95 00     STA  $00, X
 8844  B5 05     LDA  $05, X
 8846  95 01     STA  $01, X
 8848  68        PLA  
 8849  95 04     STA  $04, X
 884B  68        PLA  
 884C  95 05     STA  $05, X
 884E  A5 00     LDA  $00
 8850  95 02     STA  $02, X
 8852  A5 01     LDA  $01
 8854  95 03     STA  $03, X
 8856  A0 00     LDY  #$00
 8858  B9 C8 88  LDA  $88C8, Y
 885B  D5 04     CMP  $04, X
 885D  D0 07     BNE  $8866
 885F  B9 C9 88  LDA  $88C9, Y
 8862  D5 05     CMP  $05, X
 8864  F0 0C     BEQ  $8872
 8866  B9 C8 88  LDA  $88C8, Y
 8869  19 C9 88  ORA  $88C9, Y
 886C  F0 22     BEQ  $8890
 886E  C8        INY  
 886F  C8        INY  
 8870  80 E6     BRA  $8858
 8872  98        TYA  
 8873  4A        LSR  
 8874  A8        TAY  
 8875  B9 D4 88  LDA  $88D4, Y
 8878  85 2C     STA  $2C
 887A  18        CLC  
 887B  75 04     ADC  $04, X
 887D  95 04     STA  $04, X
 887F  90 02     BCC  $8883
 8881  F6 05     INC  $05, X
 8883  06 2C     ASL  $2C
 8885  38        SEC  
 8886  B5 00     LDA  $00, X
 8888  E5 2C     SBC  $2C
 888A  95 00     STA  $00, X
 888C  B0 02     BCS  $8890
 888E  D6 01     DEC  $01, X
 8890  A5 1C     LDA  $1C
 8892  05 1D     ORA  $1D
 8894  F0 1C     BEQ  $88B2
 8896  A5 28     LDA  $28
 8898  29 10     AND  #$10
 889A  F0 16     BEQ  $88B2
 889C  18        CLC  
 889D  B5 04     LDA  $04, X
 889F  69 03     ADC  #$03
 88A1  95 04     STA  $04, X
 88A3  90 02     BCC  $88A7
 88A5  F6 05     INC  $05, X
 88A7  38        SEC  
 88A8  B5 00     LDA  $00, X
 88AA  E9 03     SBC  #$03
 88AC  95 00     STA  $00, X
 88AE  B0 02     BCS  $88B2
 88B0  D6 01     DEC  $01, X
 88B2  B5 01     LDA  $01, X
 88B4  48        PHA  
 88B5  B5 00     LDA  $00, X
 88B7  48        PHA  
 88B8  20 B2 95  JSR  $95B2
 88BB  18        CLC  
 88BC  68        PLA  
 88BD  65 00     ADC  $00
 88BF  85 00     STA  $00
 88C1  68        PLA  
 88C2  65 01     ADC  $01
 88C4  85 01     STA  $01
 88C6  80 2C     BRA  $88F4
 88C8  14 9A FF 99 EC A2 1E A4 A4 A3 00 00 04 04 04 06  |................|
 88D8  06 00                                            |..              |
 88DA  A9 20     LDA  #$20
 88DC  92 00     STA  ($00)
 88DE  A0 01     LDY  #$01
 88E0  68        PLA  
 88E1  91 00     STA  ($00), Y
 88E3  C8        INY  
 88E4  68        PLA  
 88E5  91 00     STA  ($00), Y
 88E7  A9 03     LDA  #$03
 88E9  18        CLC  
 88EA  65 00     ADC  $00
 88EC  85 00     STA  $00
 88EE  90 02     BCC  $88F2
 88F0  E6 01     INC  $01
 88F2  E8        INX  
 88F3  E8        INX  
 88F4  60        RTS  
 88F5  20 3B D5  JSR  $D53B
 88F8  A0 01     LDY  #$01
 88FA  B1 02     LDA  ($02), Y
 88FC  09 01     ORA  #$01
 88FE  91 02     STA  ($02), Y
 8900  60        RTS  
 8901  20 F9 D5  JSR  $D5F9
 8904  20 59 89  JSR  $8959
 8907  38        SEC  
 8908  A5 00     LDA  $00
 890A  E9 02     SBC  #$02
 890C  85 24     STA  $24
 890E  A5 01     LDA  $01
 8910  E9 00     SBC  #$00
 8912  85 25     STA  $25
 8914  A9 B5     LDA  #$B5
 8916  92 24     STA  ($24)
 8918  A0 01     LDY  #$01
 891A  A9 D4     LDA  #$D4
 891C  91 24     STA  ($24), Y
 891E  20 5E 87  JSR  $875E
 8921  20 2B 93  JSR  $932B
 8924  B5 00     LDA  $00, X
 8926  85 24     STA  $24
 8928  B5 01     LDA  $01, X
 892A  85 25     STA  $25
 892C  A0 06     LDY  #$06
 892E  B1 24     LDA  ($24), Y
 8930  18        CLC  
 8931  69 02     ADC  #$02
 8933  91 24     STA  ($24), Y
 8935  C8        INY  
 8936  B1 24     LDA  ($24), Y
 8938  69 00     ADC  #$00
 893A  91 24     STA  ($24), Y
 893C  E8        INX  
 893D  E8        INX  
 893E  60        RTS  
 893F  20 F9 D5  JSR  $D5F9
 8942  A1 00     LDA  ($00, X)
 8944  A8        TAY  
 8945  F6 00     INC  $00, X
 8947  D0 02     BNE  $894B
 8949  F6 01     INC  $01, X
 894B  98        TYA  
 894C  CA        DEX  
 894D  CA        DEX  
 894E  95 00     STA  $00, X
 8950  74 01     STZ  $01, X
 8952  60        RTS  
 8953  A9 0A     LDA  #$0A
 8955  20 E6 8D  JSR  $8DE6
 8958  60        RTS  
 8959  20 61 98  JSR  $9861
 895C  B5 00     LDA  $00, X
 895E  15 01     ORA  $01, X
 8960  D0 05     BNE  $8967
 8962  A9 05     LDA  #$05
 8964  4C 0F D6  JMP  $D60F
 8967  74 01     STZ  $01, X
 8969  20 34 A3  JSR  $A334
 896C  20 CB 8F  JSR  $8FCB
 896F  B5 00     LDA  $00, X
 8971  15 01     ORA  $01, X
 8973  F0 1E     BEQ  $8993
 8975  E8        INX  
 8976  E8        INX  
 8977  24 20     BIT  $20
 8979  10 08     BPL  $8983
 897B  A9 80     LDA  #$80
 897D  05 20     ORA  $20
 897F  85 20     STA  $20
 8981  80 18     BRA  $899B
 8983  A9 02     LDA  #$02
 8985  20 25 D6  JSR  $D625
 8988  20 34 A3  JSR  $A334
 898B  20 7F A4  JSR  $A47F
 898E  20 A0 A0  JSR  $A0A0
 8991  80 08     BRA  $899B
 8993  E8        INX  
 8994  E8        INX  
 8995  A9 7F     LDA  #$7F
 8997  25 20     AND  $20
 8999  85 20     STA  $20
 899B  B5 00     LDA  $00, X
 899D  85 26     STA  $26
 899F  A5 00     LDA  $00
 89A1  85 24     STA  $24
 89A3  A5 01     LDA  $01
 89A5  85 25     STA  $25
 89A7  B5 00     LDA  $00, X
 89A9  18        CLC  
 89AA  69 08     ADC  #$08
 89AC  85 28     STA  $28
 89AE  18        CLC  
 89AF  69 03     ADC  #$03
 89B1  95 00     STA  $00, X
 89B3  74 01     STZ  $01, X
 89B5  20 AB 82  JSR  $82AB
 89B8  20 3B D5  JSR  $D53B
 89BB  A0 00     LDY  #$00
 89BD  A5 26     LDA  $26
 89BF  91 24     STA  ($24), Y
 89C1  A9 08     LDA  #$08
 89C3  09 20     ORA  #$20
 89C5  C8        INY  
 89C6  91 24     STA  ($24), Y
 89C8  C8        INY  
 89C9  A5 02     LDA  $02
 89CB  91 24     STA  ($24), Y
 89CD  C8        INY  
 89CE  A5 03     LDA  $03
 89D0  91 24     STA  ($24), Y
 89D2  C8        INY  
 89D3  A5 25     LDA  $25
 89D5  85 03     STA  $03
 89D7  A5 24     LDA  $24
 89D9  85 02     STA  $02
 89DB  18        CLC  
 89DC  65 28     ADC  $28
 89DE  91 24     STA  ($24), Y
 89E0  48        PHA  
 89E1  C8        INY  
 89E2  A5 25     LDA  $25
 89E4  69 00     ADC  #$00
 89E6  91 24     STA  ($24), Y
 89E8  C8        INY  
 89E9  68        PLA  
 89EA  18        CLC  
 89EB  69 03     ADC  #$03
 89ED  91 24     STA  ($24), Y
 89EF  88        DEY  
 89F0  B1 24     LDA  ($24), Y
 89F2  69 00     ADC  #$00
 89F4  C8        INY  
 89F5  C8        INY  
 89F6  91 24     STA  ($24), Y
 89F8  C8        INY  
 89F9  B5 00     LDA  $00, X
 89FB  38        SEC  
 89FC  E9 08     SBC  #$08
 89FE  85 2C     STA  $2C
 8A00  B5 01     LDA  $01, X
 8A02  E9 00     SBC  #$00
 8A04  85 2D     STA  $2D
 8A06  B1 2C     LDA  ($2C), Y
 8A08  C9 5B     CMP  #$5B
 8A0A  B0 07     BCS  $8A13
 8A0C  C9 41     CMP  #$41
 8A0E  90 03     BCC  $8A13
 8A10  18        CLC  
 8A11  69 20     ADC  #$20
 8A13  91 24     STA  ($24), Y
 8A15  C8        INY  
 8A16  C6 26     DEC  $26
 8A18  D0 EC     BNE  $8A06
 8A1A  A9 20     LDA  #$20
 8A1C  91 24     STA  ($24), Y
 8A1E  C8        INY  
 8A1F  A9 FB     LDA  #$FB
 8A21  91 24     STA  ($24), Y
 8A23  C8        INY  
 8A24  A9 D4     LDA  #$D4
 8A26  91 24     STA  ($24), Y
 8A28  20 4E D5  JSR  $D54E
 8A2B  E8        INX  
 8A2C  E8        INX  
 8A2D  60        RTS  
 8A2E  20 08 D6  JSR  $D608
 8A31  38        SEC  
 8A32  B5 06     LDA  $06, X
 8A34  F5 02     SBC  $02, X
 8A36  95 06     STA  $06, X
 8A38  B5 07     LDA  $07, X
 8A3A  F5 03     SBC  $03, X
 8A3C  95 07     STA  $07, X
 8A3E  B5 04     LDA  $04, X
 8A40  F5 00     SBC  $00, X
 8A42  95 04     STA  $04, X
 8A44  B5 05     LDA  $05, X
 8A46  F5 01     SBC  $01, X
 8A48  95 05     STA  $05, X
 8A4A  E8        INX  
 8A4B  E8        INX  
 8A4C  E8        INX  
 8A4D  E8        INX  
 8A4E  60        RTS  
 8A4F  20 08 D6  JSR  $D608
 8A52  18        CLC  
 8A53  B5 02     LDA  $02, X
 8A55  75 06     ADC  $06, X
 8A57  95 06     STA  $06, X
 8A59  B5 03     LDA  $03, X
 8A5B  75 07     ADC  $07, X
 8A5D  95 07     STA  $07, X
 8A5F  B5 00     LDA  $00, X
 8A61  75 04     ADC  $04, X
 8A63  95 04     STA  $04, X
 8A65  B5 01     LDA  $01, X
 8A67  75 05     ADC  $05, X
 8A69  95 05     STA  $05, X
 8A6B  E8        INX  
 8A6C  E8        INX  
 8A6D  E8        INX  
 8A6E  E8        INX  
 8A6F  60        RTS  
 8A70  20 FE D5  JSR  $D5FE
 8A73  E8        INX  
 8A74  E8        INX  
 8A75  60        RTS  
 8A76  20 FE D5  JSR  $D5FE
 8A79  B5 01     LDA  $01, X
 8A7B  10 17     BPL  $8A94
 8A7D  A0 00     LDY  #$00
 8A7F  38        SEC  
 8A80  98        TYA  
 8A81  F5 02     SBC  $02, X
 8A83  95 02     STA  $02, X
 8A85  98        TYA  
 8A86  F5 03     SBC  $03, X
 8A88  95 03     STA  $03, X
 8A8A  98        TYA  
 8A8B  F5 00     SBC  $00, X
 8A8D  95 00     STA  $00, X
 8A8F  98        TYA  
 8A90  F5 01     SBC  $01, X
 8A92  95 01     STA  $01, X
 8A94  60        RTS  
 8A95  A9 0A     LDA  #$0A
 8A97  85 18     STA  $18
 8A99  64 19     STZ  $19
 8A9B  60        RTS  
 8A9C  20 59 89  JSR  $8959
 8A9F  A5 00     LDA  $00
 8AA1  38        SEC  
 8AA2  E9 02     SBC  #$02
 8AA4  85 24     STA  $24
 8AA6  A5 01     LDA  $01
 8AA8  E9 00     SBC  #$00
 8AAA  85 25     STA  $25
 8AAC  A0 00     LDY  #$00
 8AAE  A9 C9     LDA  #$C9
 8AB0  91 24     STA  ($24), Y
 8AB2  C8        INY  
 8AB3  A9 D4     LDA  #$D4
 8AB5  91 24     STA  ($24), Y
 8AB7  A9 DD     LDA  #$DD
 8AB9  92 00     STA  ($00)
 8ABB  E6 00     INC  $00
 8ABD  D0 02     BNE  $8AC1
 8ABF  E6 01     INC  $01
 8AC1  A9 D4     LDA  #$D4
 8AC3  92 00     STA  ($00)
 8AC5  E6 00     INC  $00
 8AC7  D0 02     BNE  $8ACB
 8AC9  E6 01     INC  $01
 8ACB  20 21 89  JSR  $8921
 8ACE  60        RTS  
 8ACF  20 09 A2  JSR  $A209
 8AD2  20 70 8F  JSR  $8F70
 8AD5  60        RTS  
 8AD6  20 09 A2  JSR  $A209
 8AD9  20 09 A1  JSR  $A109
 8ADC  60        RTS  
 8ADD  A0 1F     LDY  #$1F
 8ADF  B1 1E     LDA  ($1E), Y
 8AE1  A0 04     LDY  #$04
 8AE3  91 1E     STA  ($1E), Y
 8AE5  60        RTS  
 8AE6  A9 78     LDA  #$78
 8AE8  86 2A     STX  $2A
 8AEA  38        SEC  
 8AEB  E5 2A     SBC  $2A
 8AED  4A        LSR  
 8AEE  CA        DEX  
 8AEF  CA        DEX  
 8AF0  95 00     STA  $00, X
 8AF2  74 01     STZ  $01, X
 8AF4  60        RTS  
 8AF5  20 F9 D5  JSR  $D5F9
 8AF8  CA        DEX  
 8AF9  CA        DEX  
 8AFA  74 00     STZ  $00, X
 8AFC  74 01     STZ  $01, X
 8AFE  74 03     STZ  $03, X
 8B00  B5 02     LDA  $02, X
 8B02  C9 30     CMP  #$30
 8B04  90 23     BCC  $8B29
 8B06  C9 3A     CMP  #$3A
 8B08  90 12     BCC  $8B1C
 8B0A  C9 41     CMP  #$41
 8B0C  90 1B     BCC  $8B29
 8B0E  C9 61     CMP  #$61
 8B10  90 07     BCC  $8B19
 8B12  C9 7B     CMP  #$7B
 8B14  B0 03     BCS  $8B19
 8B16  18        CLC  
 8B17  69 E0     ADC  #$E0
 8B19  38        SEC  
 8B1A  E9 07     SBC  #$07
 8B1C  38        SEC  
 8B1D  E9 30     SBC  #$30
 8B1F  C5 18     CMP  $18
 8B21  B0 06     BCS  $8B29
 8B23  95 02     STA  $02, X
 8B25  D6 00     DEC  $00, X
 8B27  D6 01     DEC  $01, X
 8B29  60        RTS  
 8B2A  20 FE D5  JSR  $D5FE
 8B2D  20 5B AC  JSR  $AC5B
 8B30  60        RTS  
 8B31  20 FE D5  JSR  $D5FE
 8B34  A0 00     LDY  #$00
 8B36  38        SEC  
 8B37  98        TYA  
 8B38  F5 02     SBC  $02, X
 8B3A  95 02     STA  $02, X
 8B3C  98        TYA  
 8B3D  F5 03     SBC  $03, X
 8B3F  95 03     STA  $03, X
 8B41  98        TYA  
 8B42  F5 00     SBC  $00, X
 8B44  95 00     STA  $00, X
 8B46  98        TYA  
 8B47  F5 01     SBC  $01, X
 8B49  95 01     STA  $01, X
 8B4B  60        RTS  
 8B4C  A9 FF     LDA  #$FF
 8B4E  85 24     STA  $24
 8B50  80 02     BRA  $8B54
 8B52  64 24     STZ  $24
 8B54  CA        DEX  
 8B55  CA        DEX  
 8B56  A5 00     LDA  $00
 8B58  95 00     STA  $00, X
 8B5A  A5 01     LDA  $01
 8B5C  95 01     STA  $01, X
 8B5E  A9 05     LDA  #$05
 8B60  A8        TAY  
 8B61  91 00     STA  ($00), Y
 8B63  88        DEY  
 8B64  10 FB     BPL  $8B61
 8B66  1A        INC  
 8B67  18        CLC  
 8B68  65 00     ADC  $00
 8B6A  85 00     STA  $00
 8B6C  90 02     BCC  $8B70
 8B6E  E6 01     INC  $01
 8B70  A5 24     LDA  $24
 8B72  F0 17     BEQ  $8B8B
 8B74  A0 14     LDY  #$14
 8B76  5A        PHY  
 8B77  B9 D1 8B  LDA  $8BD1, Y
 8B7A  91 00     STA  ($00), Y
 8B7C  88        DEY  
 8B7D  10 F8     BPL  $8B77
 8B7F  68        PLA  
 8B80  18        CLC  
 8B81  65 00     ADC  $00
 8B83  85 00     STA  $00
 8B85  A5 01     LDA  $01
 8B87  69 00     ADC  #$00
 8B89  85 01     STA  $01
 8B8B  A0 24     LDY  #$24
 8B8D  5A        PHY  
 8B8E  B9 AD 8B  LDA  $8BAD, Y
 8B91  91 00     STA  ($00), Y
 8B93  88        DEY  
 8B94  10 F8     BPL  $8B8E
 8B96  68        PLA  
 8B97  18        CLC  
 8B98  65 00     ADC  $00
 8B9A  85 00     STA  $00
 8B9C  A5 01     LDA  $01
 8B9E  69 00     ADC  #$00
 8BA0  85 01     STA  $01
 8BA2  CA        DEX  
 8BA3  CA        DEX  
 8BA4  A5 00     LDA  $00
 8BA6  95 00     STA  $00, X
 8BA8  A5 01     LDA  $01
 8BAA  95 01     STA  $01, X
 8BAC  60        RTS  
 8BAD  38        SEC  
 8BAE  A9 00     LDA  #$00
 8BB0  F5 02     SBC  $02, X
 8BB2  95 02     STA  $02, X
 8BB4  A9 80     LDA  #$80
 8BB6  F5 03     SBC  $03, X
 8BB8  95 03     STA  $03, X
 8BBA  48        PHA  
 8BBB  B5 02     LDA  $02, X
 8BBD  48        PHA  
 8BBE  18        CLC  
 8BBF  B5 00     LDA  $00, X
 8BC1  75 02     ADC  $02, X
 8BC3  95 00     STA  $00, X
 8BC5  B5 01     LDA  $01, X
 8BC7  75 03     ADC  $03, X
 8BC9  48        PHA  
 8BCA  B5 00     LDA  $00, X
 8BCC  48        PHA  
 8BCD  E8        INX  
 8BCE  E8        INX  
 8BCF  E8        INX  
 8BD0  E8        INX  
 8BD1  20 34 A3  JSR  $A334
 8BD4  20 BE 8E  JSR  $8EBE
 8BD7  B5 00     LDA  $00, X
 8BD9  15 01     ORA  $01, X
 8BDB  F0 06     BEQ  $8BE3
 8BDD  8A        TXA  
 8BDE  18        CLC  
 8BDF  69 06     ADC  #$06
 8BE1  AA        TAX  
 8BE2  60        RTS  
 8BE3  E8        INX  
 8BE4  E8        INX  
 8BE5  A0 8B     LDY  #$8B
 8BE7  A9 F4     LDA  #$F4
 8BE9  20 9C D4  JSR  $D49C
 8BEC  A0 D4     LDY  #$D4
 8BEE  A9 E2     LDA  #$E2
 8BF0  20 9C D4  JSR  $D49C
 8BF3  60        RTS  
 8BF4  7A        PLY  
 8BF5  68        PLA  
 8BF6  C8        INY  
 8BF7  D0 01     BNE  $8BFA
 8BF9  1A        INC  
 8BFA  84 24     STY  $24
 8BFC  85 25     STA  $25
 8BFE  20 3B D5  JSR  $D53B
 8C01  A5 02     LDA  $02
 8C03  18        CLC  
 8C04  69 04     ADC  #$04
 8C06  85 26     STA  $26
 8C08  A5 03     LDA  $03
 8C0A  69 00     ADC  #$00
 8C0C  85 27     STA  $27
 8C0E  B2 26     LDA  ($26)
 8C10  18        CLC  
 8C11  69 01     ADC  #$01
 8C13  85 28     STA  $28
 8C15  A0 01     LDY  #$01
 8C17  B1 26     LDA  ($26), Y
 8C19  69 00     ADC  #$00
 8C1B  85 29     STA  $29
 8C1D  A5 24     LDA  $24
 8C1F  92 28     STA  ($28)
 8C21  A5 25     LDA  $25
 8C23  91 28     STA  ($28), Y
 8C25  60        RTS  
 8C26  20 F9 D5  JSR  $D5F9
 8C29  20 9F 8D  JSR  $8D9F
 8C2C  20 39 81  JSR  $8139
 8C2F  20 23 A7  JSR  $A723
 8C32  20 4A 93  JSR  $934A
 8C35  20 60 97  JSR  $9760
 8C38  20 D9 9A  JSR  $9AD9
 8C3B  20 69 9F  JSR  $9F69
 8C3E  20 3E 97  JSR  $973E
 8C41  20 7F A4  JSR  $A47F
 8C44  20 A0 A0  JSR  $A0A0
 8C47  60        RTS  
 8C48  CA        DEX  
 8C49  CA        DEX  
 8C4A  A9 29     LDA  #$29
 8C4C  95 00     STA  $00, X
 8C4E  74 01     STZ  $01, X
 8C50  20 BC 98  JSR  $98BC
 8C53  20 7F A4  JSR  $A47F
 8C56  60        RTS  
 8C57  20 D1 9C  JSR  $9CD1
 8C5A  A0 A4     LDY  #$A4
 8C5C  A9 7F     LDA  #$7F
 8C5E  20 9C D4  JSR  $D49C
 8C61  60        RTS  
 8C62  20 FE D5  JSR  $D5FE
 8C65  20 EC A2  JSR  $A2EC
 8C68  20 9F 8D  JSR  $8D9F
 8C6B  20 39 81  JSR  $8139
 8C6E  20 23 A7  JSR  $A723
 8C71  20 4A 93  JSR  $934A
 8C74  20 60 97  JSR  $9760
 8C77  20 D9 9A  JSR  $9AD9
 8C7A  20 69 9F  JSR  $9F69
 8C7D  20 3E 97  JSR  $973E
 8C80  20 14 9A  JSR  $9A14
 8C83  20 15 98  JSR  $9815
 8C86  20 40 95  JSR  $9540
 8C89  20 A6 A0  JSR  $A0A6
 8C8C  20 7F A4  JSR  $A47F
 8C8F  60        RTS  
 8C90  20 E6 8A  JSR  $8AE6
 8C93  A9 3C     LDA  #$3C
 8C95  20 E6 8D  JSR  $8DE6
 8C98  B5 00     LDA  $00, X
 8C9A  48        PHA  
 8C9B  CA        DEX  
 8C9C  CA        DEX  
 8C9D  95 00     STA  $00, X
 8C9F  74 01     STZ  $01, X
 8CA1  20 45 D6  JSR  $D645
 8CA4  A9 3E     LDA  #$3E
 8CA6  20 E6 8D  JSR  $8DE6
 8CA9  A9 20     LDA  #$20
 8CAB  20 E6 8D  JSR  $8DE6
 8CAE  E8        INX  
 8CAF  E8        INX  
 8CB0  E0 78     CPX  #$78
 8CB2  F0 1E     BEQ  $8CD2
 8CB4  7A        PLY  
 8CB5  A9 77     LDA  #$77
 8CB7  85 28     STA  $28
 8CB9  64 29     STZ  $29
 8CBB  CA        DEX  
 8CBC  CA        DEX  
 8CBD  B2 28     LDA  ($28)
 8CBF  95 01     STA  $01, X
 8CC1  C6 28     DEC  $28
 8CC3  B2 28     LDA  ($28)
 8CC5  95 00     STA  $00, X
 8CC7  C6 28     DEC  $28
 8CC9  5A        PHY  
 8CCA  20 26 8C  JSR  $8C26
 8CCD  7A        PLY  
 8CCE  88        DEY  
 8CCF  D0 EA     BNE  $8CBB
 8CD1  48        PHA  
 8CD2  68        PLA  
 8CD3  60        RTS  
 8CD4  20 FE D5  JSR  $D5FE
 8CD7  20 09 A3  JSR  $A309
 8CDA  20 76 8A  JSR  $8A76
 8CDD  20 4A 93  JSR  $934A
 8CE0  20 60 97  JSR  $9760
 8CE3  20 D9 9A  JSR  $9AD9
 8CE6  20 69 9F  JSR  $9F69
 8CE9  20 3E 97  JSR  $973E
 8CEC  20 7F A4  JSR  $A47F
 8CEF  20 A0 A0  JSR  $A0A0
 8CF2  60        RTS  
 8CF3  20 03 D6  JSR  $D603
 8CF6  20 EC A2  JSR  $A2EC
 8CF9  20 09 A3  JSR  $A309
 8CFC  20 76 8A  JSR  $8A76
 8CFF  20 4A 93  JSR  $934A
 8D02  20 60 97  JSR  $9760
 8D05  20 D9 9A  JSR  $9AD9
 8D08  20 69 9F  JSR  $9F69
 8D0B  20 3E 97  JSR  $973E
 8D0E  20 14 9A  JSR  $9A14
 8D11  20 15 98  JSR  $9815
 8D14  20 40 95  JSR  $9540
 8D17  20 A6 A0  JSR  $A0A6
 8D1A  20 7F A4  JSR  $A47F
 8D1D  60        RTS  
 8D1E  20 F9 D5  JSR  $D5F9
 8D21  E8        INX  
 8D22  E8        INX  
 8D23  60        RTS  
 8D24  20 FE D5  JSR  $D5FE
 8D27  A0 10     LDY  #$10
 8D29  64 26     STZ  $26
 8D2B  20 53 89  JSR  $8953
 8D2E  B5 03     LDA  $03, X
 8D30  20 09 D5  JSR  $D509
 8D33  B5 02     LDA  $02, X
 8D35  20 09 D5  JSR  $D509
 8D38  20 A0 A0  JSR  $A0A0
 8D3B  20 A0 A0  JSR  $A0A0
 8D3E  B5 00     LDA  $00, X
 8D40  15 01     ORA  $01, X
 8D42  F0 39     BEQ  $8D7D
 8D44  A1 02     LDA  ($02, X)
 8D46  48        PHA  
 8D47  20 09 D5  JSR  $D509
 8D4A  20 A0 A0  JSR  $A0A0
 8D4D  68        PLA  
 8D4E  20 DF D5  JSR  $D5DF
 8D51  B0 02     BCS  $8D55
 8D53  A9 2E     LDA  #$2E
 8D55  5A        PHY  
 8D56  A4 26     LDY  $26
 8D58  91 00     STA  ($00), Y
 8D5A  E6 26     INC  $26
 8D5C  7A        PLY  
 8D5D  C0 09     CPY  #$09
 8D5F  D0 03     BNE  $8D64
 8D61  20 A0 A0  JSR  $A0A0
 8D64  F6 02     INC  $02, X
 8D66  D0 02     BNE  $8D6A
 8D68  F6 03     INC  $03, X
 8D6A  B5 00     LDA  $00, X
 8D6C  D0 02     BNE  $8D70
 8D6E  D6 01     DEC  $01, X
 8D70  D6 00     DEC  $00, X
 8D72  88        DEY  
 8D73  D0 C9     BNE  $8D3E
 8D75  20 A0 A0  JSR  $A0A0
 8D78  20 8B 8D  JSR  $8D8B
 8D7B  80 AA     BRA  $8D27
 8D7D  A5 26     LDA  $26
 8D7F  F0 06     BEQ  $8D87
 8D81  20 A0 A0  JSR  $A0A0
 8D84  20 8B 8D  JSR  $8D8B
 8D87  20 2C A3  JSR  $A32C
 8D8A  60        RTS  
 8D8B  A0 00     LDY  #$00
 8D8D  B1 00     LDA  ($00), Y
 8D8F  20 E6 8D  JSR  $8DE6
 8D92  C8        INY  
 8D93  C0 08     CPY  #$08
 8D95  D0 03     BNE  $8D9A
 8D97  20 A0 A0  JSR  $A0A0
 8D9A  C6 26     DEC  $26
 8D9C  D0 EF     BNE  $8D8D
 8D9E  60        RTS  
 8D9F  20 F9 D5  JSR  $D5F9
 8DA2  CA        DEX  
 8DA3  CA        DEX  
 8DA4  B5 02     LDA  $02, X
 8DA6  95 00     STA  $00, X
 8DA8  B5 03     LDA  $03, X
 8DAA  95 01     STA  $01, X
 8DAC  60        RTS  
 8DAD  20 99 B3  JSR  $B399
 8DB0  60        RTS  
 8DB1  A0 8D     LDY  #$8D
 8DB3  A9 CB     LDA  #$CB
 8DB5  20 9C D4  JSR  $D49C
 8DB8  20 62 91  JSR  $9162
 8DBB  20 23 A7  JSR  $A723
 8DBE  20 5E 87  JSR  $875E
 8DC1  20 62 91  JSR  $9162
 8DC4  20 D9 9A  JSR  $9AD9
 8DC7  20 09 A1  JSR  $A109
 8DCA  60        RTS  
 8DCB  68        PLA  
 8DCC  85 22     STA  $22
 8DCE  68        PLA  
 8DCF  85 23     STA  $23
 8DD1  A0 01     LDY  #$01
 8DD3  B1 22     LDA  ($22), Y
 8DD5  85 24     STA  $24
 8DD7  C8        INY  
 8DD8  B1 22     LDA  ($22), Y
 8DDA  85 25     STA  $25
 8DDC  6C 24 00  JMP  ($0024)
 8DDF  20 F9 D5  JSR  $D5F9
 8DE2  B5 00     LDA  $00, X
 8DE4  E8        INX  
 8DE5  E8        INX  
 8DE6  6C 10 00  JMP  ($0010)
 8DE9  A0 2C     LDY  #$2C
 8DEB  A9 00     LDA  #$00
 8DED  91 1E     STA  ($1E), Y
 8DEF  60        RTS  
 8DF0  A0 8D     LDY  #$8D
 8DF2  A9 1E     LDA  #$1E
 8DF4  20 9C D4  JSR  $D49C
 8DF7  B5 00     LDA  $00, X
 8DF9  15 01     ORA  $01, X
 8DFB  F0 05     BEQ  $8E02
 8DFD  20 3E A1  JSR  $A13E
 8E00  80 F5     BRA  $8DF7
 8E02  E8        INX  
 8E03  E8        INX  
 8E04  60        RTS  
 8E05  20 F9 D5  JSR  $D5F9
 8E08  A0 00     LDY  #$00
 8E0A  5A        PHY  
 8E0B  20 34 A3  JSR  $A334
 8E0E  CA        DEX  
 8E0F  CA        DEX  
 8E10  B9 82 8E  LDA  $8E82, Y
 8E13  95 00     STA  $00, X
 8E15  C8        INY  
 8E16  B9 82 8E  LDA  $8E82, Y
 8E19  95 01     STA  $01, X
 8E1B  C8        INY  
 8E1C  15 00     ORA  $00, X
 8E1E  F0 4D     BEQ  $8E6D
 8E20  5A        PHY  
 8E21  20 3F 89  JSR  $893F
 8E24  20 78 87  JSR  $8778
 8E27  7A        PLY  
 8E28  B5 00     LDA  $00, X
 8E2A  15 01     ORA  $01, X
 8E2C  F0 04     BEQ  $8E32
 8E2E  E8        INX  
 8E2F  E8        INX  
 8E30  80 D9     BRA  $8E0B
 8E32  E8        INX  
 8E33  E8        INX  
 8E34  88        DEY  
 8E35  88        DEY  
 8E36  68        PLA  
 8E37  D0 0D     BNE  $8E46
 8E39  B9 A0 8E  LDA  $8EA0, Y
 8E3C  95 02     STA  $02, X
 8E3E  C8        INY  
 8E3F  B9 A0 8E  LDA  $8EA0, Y
 8E42  95 03     STA  $03, X
 8E44  80 1F     BRA  $8E65
 8E46  CA        DEX  
 8E47  CA        DEX  
 8E48  98        TYA  
 8E49  38        SEC  
 8E4A  E9 18     SBC  #$18
 8E4C  0A        ASL  
 8E4D  A8        TAY  
 8E4E  B9 B6 8E  LDA  $8EB6, Y
 8E51  95 02     STA  $02, X
 8E53  C8        INY  
 8E54  B9 B6 8E  LDA  $8EB6, Y
 8E57  95 03     STA  $03, X
 8E59  C8        INY  
 8E5A  B9 B6 8E  LDA  $8EB6, Y
 8E5D  95 04     STA  $04, X
 8E5F  C8        INY  
 8E60  B9 B6 8E  LDA  $8EB6, Y
 8E63  95 05     STA  $05, X
 8E65  A9 FF     LDA  #$FF
 8E67  95 00     STA  $00, X
 8E69  95 01     STA  $01, X
 8E6B  80 14     BRA  $8E81
 8E6D  68        PLA  
 8E6E  D0 09     BNE  $8E79
 8E70  1A        INC  
 8E71  48        PHA  
 8E72  8A        TXA  
 8E73  18        CLC  
 8E74  69 06     ADC  #$06
 8E76  AA        TAX  
 8E77  80 92     BRA  $8E0B
 8E79  8A        TXA  
 8E7A  18        CLC  
 8E7B  69 0A     ADC  #$0A
 8E7D  AA        TAX  
 8E7E  20 69 8F  JSR  $8F69
 8E81  60        RTS  
 8E82  1C D4 2C D4 32 D4 37 D4 49 D4 51 D4 5A D4 60 D4  |..,.2.7.I.Q.Z.`.|
 8E92  66 D4 79 D4 85 D4 00 00 8F D4 95 D4 00 00 FF 7F  |f.y.............|
 8EA2  FF 00 54 00 08 00 00 00 FF 00 FF 7F FF FF 80 00  |..T.............|
 8EB2  20 00 09 00 FF 7F FF FF FF FF FF FF              | ...........    |
 8EBE  20 FE D5  JSR  $D5FE
 8EC1  B5 00     LDA  $00, X
 8EC3  D5 02     CMP  $02, X
 8EC5  D0 0A     BNE  $8ED1
 8EC7  B5 01     LDA  $01, X
 8EC9  D5 03     CMP  $03, X
 8ECB  D0 04     BNE  $8ED1
 8ECD  A9 FF     LDA  #$FF
 8ECF  80 02     BRA  $8ED3
 8ED1  A9 00     LDA  #$00
 8ED3  95 02     STA  $02, X
 8ED5  95 03     STA  $03, X
 8ED7  E8        INX  
 8ED8  E8        INX  
 8ED9  60        RTS  
 8EDA  CA        DEX  
 8EDB  CA        DEX  
 8EDC  A9 20     LDA  #$20
 8EDE  95 00     STA  $00, X
 8EE0  74 01     STZ  $01, X
 8EE2  80 06     BRA  $8EEA
 8EE4  CA        DEX  
 8EE5  CA        DEX  
 8EE6  74 00     STZ  $00, X
 8EE8  74 01     STZ  $01, X
 8EEA  20 03 D6  JSR  $D603
 8EED  B5 04     LDA  $04, X
 8EEF  85 24     STA  $24
 8EF1  B5 05     LDA  $05, X
 8EF3  85 25     STA  $25
 8EF5  B5 02     LDA  $02, X
 8EF7  85 26     STA  $26
 8EF9  B5 03     LDA  $03, X
 8EFB  85 27     STA  $27
 8EFD  B5 00     LDA  $00, X
 8EFF  A8        TAY  
 8F00  A9 7F     LDA  #$7F
 8F02  C5 25     CMP  $25
 8F04  90 21     BCC  $8F27
 8F06  D0 06     BNE  $8F0E
 8F08  A9 FF     LDA  #$FF
 8F0A  C5 24     CMP  $24
 8F0C  90 19     BCC  $8F27
 8F0E  A5 26     LDA  $26
 8F10  05 27     ORA  $27
 8F12  F0 13     BEQ  $8F27
 8F14  98        TYA  
 8F15  92 24     STA  ($24)
 8F17  A5 26     LDA  $26
 8F19  D0 02     BNE  $8F1D
 8F1B  C6 27     DEC  $27
 8F1D  C6 26     DEC  $26
 8F1F  E6 24     INC  $24
 8F21  D0 DD     BNE  $8F00
 8F23  E6 25     INC  $25
 8F25  80 D9     BRA  $8F00
 8F27  8A        TXA  
 8F28  18        CLC  
 8F29  69 06     ADC  #$06
 8F2B  AA        TAX  
 8F2C  60        RTS  
 8F2D  20 F9 D5  JSR  $D5F9
 8F30  20 34 8F  JSR  $8F34
 8F33  60        RTS  
 8F34  B5 00     LDA  $00, X
 8F36  85 0E     STA  $0E
 8F38  B5 01     LDA  $01, X
 8F3A  85 0F     STA  $0F
 8F3C  E8        INX  
 8F3D  E8        INX  
 8F3E  6C 0E 00  JMP  ($000E)
 8F41  20 03 D6  JSR  $D603
 8F44  20 52 92  JSR  $9252
 8F47  20 5E 96  JSR  $965E
 8F4A  B5 00     LDA  $00, X
 8F4C  85 0A     STA  $0A
 8F4E  B5 01     LDA  $01, X
 8F50  85 0B     STA  $0B
 8F52  B5 02     LDA  $02, X
 8F54  85 08     STA  $08
 8F56  B5 03     LDA  $03, X
 8F58  85 09     STA  $09
 8F5A  64 0C     STZ  $0C
 8F5C  64 0D     STZ  $0D
 8F5E  20 2C A3  JSR  $A32C
 8F61  20 2D 8F  JSR  $8F2D
 8F64  20 25 9A  JSR  $9A25
 8F67  60        RTS  
 8F68  60        RTS  
 8F69  CA        DEX  
 8F6A  CA        DEX  
 8F6B  74 00     STZ  $00, X
 8F6D  74 01     STZ  $01, X
 8F6F  60        RTS  
 8F70  20 F9 D5  JSR  $D5F9
 8F73  A1 00     LDA  ($00, X)
 8F75  A8        TAY  
 8F76  F6 00     INC  $00, X
 8F78  D0 02     BNE  $8F7C
 8F7A  F6 01     INC  $01, X
 8F7C  A1 00     LDA  ($00, X)
 8F7E  95 01     STA  $01, X
 8F80  94 00     STY  $00, X
 8F82  60        RTS  
 8F83  20 F9 D5  JSR  $D5F9
 8F86  B5 01     LDA  $01, X
 8F88  48        PHA  
 8F89  B5 00     LDA  $00, X
 8F8B  48        PHA  
 8F8C  20 3F 89  JSR  $893F
 8F8F  20 CB 8F  JSR  $8FCB
 8F92  B5 00     LDA  $00, X
 8F94  15 01     ORA  $01, X
 8F96  D0 0B     BNE  $8FA3
 8F98  20 69 8F  JSR  $8F69
 8F9B  68        PLA  
 8F9C  95 02     STA  $02, X
 8F9E  68        PLA  
 8F9F  95 03     STA  $03, X
 8FA1  80 27     BRA  $8FCA
 8FA3  68        PLA  
 8FA4  68        PLA  
 8FA5  20 9F 8D  JSR  $8D9F
 8FA8  20 D1 95  JSR  $95D1
 8FAB  20 2A A1  JSR  $A12A
 8FAE  A0 00     LDY  #$00
 8FB0  F6 00     INC  $00, X
 8FB2  D0 02     BNE  $8FB6
 8FB4  F6 01     INC  $01, X
 8FB6  A1 00     LDA  ($00, X)
 8FB8  29 04     AND  #$04
 8FBA  D0 08     BNE  $8FC4
 8FBC  A9 FF     LDA  #$FF
 8FBE  95 00     STA  $00, X
 8FC0  95 01     STA  $01, X
 8FC2  80 06     BRA  $8FCA
 8FC4  A9 01     LDA  #$01
 8FC6  95 00     STA  $00, X
 8FC8  74 01     STZ  $01, X
 8FCA  60        RTS  
 8FCB  20 FE D5  JSR  $D5FE
 8FCE  B5 00     LDA  $00, X
 8FD0  15 01     ORA  $01, X
 8FD2  D0 03     BNE  $8FD7
 8FD4  4C 70 90  JMP  $9070
 8FD7  64 28     STZ  $28
 8FD9  A0 1E     LDY  #$1E
 8FDB  A5 28     LDA  $28
 8FDD  D1 1E     CMP  ($1E), Y
 8FDF  D0 03     BNE  $8FE4
 8FE1  4C 70 90  JMP  $9070
 8FE4  18        CLC  
 8FE5  69 1F     ADC  #$1F
 8FE7  A8        TAY  
 8FE8  B1 1E     LDA  ($1E), Y
 8FEA  0A        ASL  
 8FEB  18        CLC  
 8FEC  69 06     ADC  #$06
 8FEE  A8        TAY  
 8FEF  B1 1E     LDA  ($1E), Y
 8FF1  85 24     STA  $24
 8FF3  C8        INY  
 8FF4  B1 1E     LDA  ($1E), Y
 8FF6  85 25     STA  $25
 8FF8  B5 02     LDA  $02, X
 8FFA  85 26     STA  $26
 8FFC  B5 03     LDA  $03, X
 8FFE  85 27     STA  $27
 9000  B2 24     LDA  ($24)
 9002  D5 00     CMP  $00, X
 9004  D0 54     BNE  $905A
 9006  B2 26     LDA  ($26)
 9008  C9 5B     CMP  #$5B
 900A  B0 07     BCS  $9013
 900C  C9 41     CMP  #$41
 900E  90 03     BCC  $9013
 9010  18        CLC  
 9011  69 20     ADC  #$20
 9013  A0 08     LDY  #$08
 9015  D1 24     CMP  ($24), Y
 9017  D0 41     BNE  $905A
 9019  B5 00     LDA  $00, X
 901B  3A        DEC  
 901C  F0 2C     BEQ  $904A
 901E  A5 24     LDA  $24
 9020  48        PHA  
 9021  18        CLC  
 9022  69 08     ADC  #$08
 9024  85 24     STA  $24
 9026  A5 25     LDA  $25
 9028  48        PHA  
 9029  69 00     ADC  #$00
 902B  85 25     STA  $25
 902D  B4 00     LDY  $00, X
 902F  88        DEY  
 9030  B1 26     LDA  ($26), Y
 9032  C9 5B     CMP  #$5B
 9034  B0 07     BCS  $903D
 9036  C9 41     CMP  #$41
 9038  90 03     BCC  $903D
 903A  18        CLC  
 903B  69 20     ADC  #$20
 903D  D1 24     CMP  ($24), Y
 903F  D0 13     BNE  $9054
 9041  88        DEY  
 9042  D0 EC     BNE  $9030
 9044  68        PLA  
 9045  85 25     STA  $25
 9047  68        PLA  
 9048  85 24     STA  $24
 904A  A5 24     LDA  $24
 904C  95 02     STA  $02, X
 904E  A5 25     LDA  $25
 9050  95 03     STA  $03, X
 9052  80 20     BRA  $9074
 9054  68        PLA  
 9055  85 25     STA  $25
 9057  68        PLA  
 9058  85 24     STA  $24
 905A  A0 02     LDY  #$02
 905C  B1 24     LDA  ($24), Y
 905E  48        PHA  
 905F  C8        INY  
 9060  B1 24     LDA  ($24), Y
 9062  85 25     STA  $25
 9064  68        PLA  
 9065  85 24     STA  $24
 9067  05 25     ORA  $25
 9069  D0 95     BNE  $9000
 906B  E6 28     INC  $28
 906D  4C D9 8F  JMP  $8FD9
 9070  74 02     STZ  $02, X
 9072  74 03     STZ  $03, X
 9074  E8        INX  
 9075  E8        INX  
 9076  60        RTS  
 9077  20 40 9E  JSR  $9E40
 907A  A0 2C     LDY  #$2C
 907C  A9 00     LDA  #$00
 907E  91 1E     STA  ($1E), Y
 9080  60        RTS  
 9081  20 03 D6  JSR  $D603
 9084  64 26     STZ  $26
 9086  B5 01     LDA  $01, X
 9088  10 0E     BPL  $9098
 908A  E6 26     INC  $26
 908C  20 13 96  JSR  $9613
 908F  20 EC A2  JSR  $A2EC
 9092  20 31 8B  JSR  $8B31
 9095  20 14 9A  JSR  $9A14
 9098  B5 03     LDA  $03, X
 909A  10 0D     BPL  $90A9
 909C  18        CLC  
 909D  B5 00     LDA  $00, X
 909F  75 02     ADC  $02, X
 90A1  95 02     STA  $02, X
 90A3  B5 01     LDA  $01, X
 90A5  75 03     ADC  $03, X
 90A7  95 03     STA  $03, X
 90A9  20 36 A5  JSR  $A536
 90AC  A5 26     LDA  $26
 90AE  F0 07     BEQ  $90B7
 90B0  E8        INX  
 90B1  E8        INX  
 90B2  20 13 96  JSR  $9613
 90B5  CA        DEX  
 90B6  CA        DEX  
 90B7  60        RTS  
 90B8  A0 1F     LDY  #$1F
 90BA  A9 00     LDA  #$00
 90BC  91 1E     STA  ($1E), Y
 90BE  60        RTS  
 90BF  A9 FF     LDA  #$FF
 90C1  85 24     STA  $24
 90C3  80 11     BRA  $90D6
 90C5  20 FE D5  JSR  $D5FE
 90C8  64 24     STZ  $24
 90CA  B5 00     LDA  $00, X
 90CC  15 01     ORA  $01, X
 90CE  D0 06     BNE  $90D6
 90D0  E8        INX  
 90D1  E8        INX  
 90D2  E8        INX  
 90D3  E8        INX  
 90D4  80 42     BRA  $9118
 90D6  A0 01     LDY  #$01
 90D8  B1 1E     LDA  ($1E), Y
 90DA  48        PHA  
 90DB  88        DEY  
 90DC  B1 1E     LDA  ($1E), Y
 90DE  48        PHA  
 90DF  A5 24     LDA  $24
 90E1  D0 05     BNE  $90E8
 90E3  91 1E     STA  ($1E), Y
 90E5  C8        INY  
 90E6  91 1E     STA  ($1E), Y
 90E8  20 52 92  JSR  $9252
 90EB  A9 FF     LDA  #$FF
 90ED  85 06     STA  $06
 90EF  85 07     STA  $07
 90F1  64 0C     STZ  $0C
 90F3  64 0D     STZ  $0D
 90F5  B5 00     LDA  $00, X
 90F7  85 0A     STA  $0A
 90F9  B5 01     LDA  $01, X
 90FB  85 0B     STA  $0B
 90FD  B5 02     LDA  $02, X
 90FF  85 08     STA  $08
 9101  B5 03     LDA  $03, X
 9103  85 09     STA  $09
 9105  E8        INX  
 9106  E8        INX  
 9107  E8        INX  
 9108  E8        INX  
 9109  20 61 D5  JSR  $D561
 910C  20 25 9A  JSR  $9A25
 910F  A0 00     LDY  #$00
 9111  68        PLA  
 9112  91 1E     STA  ($1E), Y
 9114  C8        INY  
 9115  68        PLA  
 9116  91 1E     STA  ($1E), Y
 9118  60        RTS  
 9119  CA        DEX  
 911A  CA        DEX  
 911B  A0 04     LDY  #$04
 911D  B1 1E     LDA  ($1E), Y
 911F  95 00     STA  $00, X
 9121  74 01     STZ  $01, X
 9123  60        RTS  
 9124  A0 1E     LDY  #$1E
 9126  B1 1E     LDA  ($1E), Y
 9128  85 24     STA  $24
 912A  F0 16     BEQ  $9142
 912C  C6 24     DEC  $24
 912E  A9 1F     LDA  #$1F
 9130  18        CLC  
 9131  65 24     ADC  $24
 9133  A8        TAY  
 9134  CA        DEX  
 9135  CA        DEX  
 9136  B1 1E     LDA  ($1E), Y
 9138  95 00     STA  $00, X
 913A  74 01     STZ  $01, X
 913C  A9 00     LDA  #$00
 913E  C5 24     CMP  $24
 9140  D0 EA     BNE  $912C
 9142  CA        DEX  
 9143  CA        DEX  
 9144  A0 1E     LDY  #$1E
 9146  B1 1E     LDA  ($1E), Y
 9148  95 00     STA  $00, X
 914A  74 01     STZ  $01, X
 914C  60        RTS  
 914D  20 FE D5  JSR  $D5FE
 9150  A0 00     LDY  #$00
 9152  20 20 D5  JSR  $D520
 9155  F0 03     BEQ  $915A
 9157  10 01     BPL  $915A
 9159  88        DEY  
 915A  98        TYA  
 915B  E8        INX  
 915C  E8        INX  
 915D  95 00     STA  $00, X
 915F  95 01     STA  $01, X
 9161  60        RTS  
 9162  CA        DEX  
 9163  CA        DEX  
 9164  A5 00     LDA  $00
 9166  95 00     STA  $00, X
 9168  A5 01     LDA  $01
 916A  95 01     STA  $01, X
 916C  60        RTS  
 916D  A9 10     LDA  #$10
 916F  85 18     STA  $18
 9171  64 19     STZ  $19
 9173  60        RTS  
 9174  20 03 D6  JSR  $D603
 9177  20 9F 8D  JSR  $8D9F
 917A  20 1E A4  JSR  $A41E
 917D  B5 00     LDA  $00, X
 917F  15 01     ORA  $01, X
 9181  F0 36     BEQ  $91B9
 9183  20 3C 86  JSR  $863C
 9186  20 1E A4  JSR  $A41E
 9189  20 23 A7  JSR  $A723
 918C  20 23 A7  JSR  $A723
 918F  20 A4 A3  JSR  $A3A4
 9192  20 39 A2  JSR  $A239
 9195  B5 00     LDA  $00, X
 9197  15 01     ORA  $01, X
 9199  D0 17     BNE  $91B2
 919B  20 2C A3  JSR  $A32C
 919E  20 70 8A  JSR  $8A70
 91A1  20 FF 99  JSR  $99FF
 91A4  20 05 86  JSR  $8605
 91A7  20 14 9A  JSR  $9A14
 91AA  20 9F 97  JSR  $979F
 91AD  20 EC A2  JSR  $A2EC
 91B0  80 CB     BRA  $917D
 91B2  8A        TXA  
 91B3  18        CLC  
 91B4  69 08     ADC  #$08
 91B6  AA        TAX  
 91B7  80 C4     BRA  $917D
 91B9  E8        INX  
 91BA  E8        INX  
 91BB  E8        INX  
 91BC  E8        INX  
 91BD  20 A4 A3  JSR  $A3A4
 91C0  20 2A A1  JSR  $A12A
 91C3  20 40 95  JSR  $9540
 91C6  60        RTS  
 91C7  20 F9 D5  JSR  $D5F9
 91CA  A5 34     LDA  $34
 91CC  D0 02     BNE  $91D0
 91CE  C6 35     DEC  $35
 91D0  C6 34     DEC  $34
 91D2  B5 00     LDA  $00, X
 91D4  92 34     STA  ($34)
 91D6  E8        INX  
 91D7  E8        INX  
 91D8  60        RTS  
 91D9  CA        DEX  
 91DA  CA        DEX  
 91DB  86 2A     STX  $2A
 91DD  BA        TSX  
 91DE  38        SEC  
 91DF  BD 01 01  LDA  $0101, X
 91E2  FD 03 01  SBC  $0103, X
 91E5  A8        TAY  
 91E6  BD 02 01  LDA  $0102, X
 91E9  FD 04 01  SBC  $0104, X
 91EC  A6 2A     LDX  $2A
 91EE  95 01     STA  $01, X
 91F0  94 00     STY  $00, X
 91F2  60        RTS  
 91F3  A0 92     LDY  #$92
 91F5  A9 04     LDA  #$04
 91F7  20 9C D4  JSR  $D49C
 91FA  20 62 91  JSR  $9162
 91FD  20 23 A7  JSR  $A723
 9200  20 5E 87  JSR  $875E
 9203  60        RTS  
 9204  68        PLA  
 9205  85 22     STA  $22
 9207  68        PLA  
 9208  85 23     STA  $23
 920A  B5 00     LDA  $00, X
 920C  15 01     ORA  $01, X
 920E  F0 0F     BEQ  $921F
 9210  A5 22     LDA  $22
 9212  18        CLC  
 9213  69 02     ADC  #$02
 9215  85 24     STA  $24
 9217  A5 23     LDA  $23
 9219  69 00     ADC  #$00
 921B  85 25     STA  $25
 921D  80 13     BRA  $9232
 921F  A0 01     LDY  #$01
 9221  B1 22     LDA  ($22), Y
 9223  85 24     STA  $24
 9225  C8        INY  
 9226  B1 22     LDA  ($22), Y
 9228  85 25     STA  $25
 922A  A5 24     LDA  $24
 922C  D0 02     BNE  $9230
 922E  C6 25     DEC  $25
 9230  C6 24     DEC  $24
 9232  A5 25     LDA  $25
 9234  48        PHA  
 9235  A5 24     LDA  $24
 9237  48        PHA  
 9238  E8        INX  
 9239  E8        INX  
 923A  60        RTS  
 923B  20 3B D5  JSR  $D53B
 923E  A0 01     LDY  #$01
 9240  B1 02     LDA  ($02), Y
 9242  09 04     ORA  #$04
 9244  91 02     STA  ($02), Y
 9246  60        RTS  
 9247  CA        DEX  
 9248  CA        DEX  
 9249  A9 12     LDA  #$12
 924B  95 00     STA  $00, X
 924D  A9 00     LDA  #$00
 924F  95 01     STA  $01, X
 9251  60        RTS  
 9252  68        PLA  
 9253  85 24     STA  $24
 9255  68        PLA  
 9256  85 25     STA  $25
 9258  A0 07     LDY  #$07
 925A  B9 06 00  LDA  $0006, Y
 925D  48        PHA  
 925E  88        DEY  
 925F  10 F9     BPL  $925A
 9261  A5 25     LDA  $25
 9263  48        PHA  
 9264  A5 24     LDA  $24
 9266  48        PHA  
 9267  60        RTS  
 9268  20 F9 D5  JSR  $D5F9
 926B  CA        DEX  
 926C  CA        DEX  
 926D  74 00     STZ  $00, X
 926F  74 01     STZ  $01, X
 9271  B5 00     LDA  $00, X
 9273  0A        ASL  
 9274  18        CLC  
 9275  69 06     ADC  #$06
 9277  A8        TAY  
 9278  B1 1E     LDA  ($1E), Y
 927A  85 26     STA  $26
 927C  C8        INY  
 927D  B1 1E     LDA  ($1E), Y
 927F  85 27     STA  $27
 9281  A5 26     LDA  $26
 9283  05 27     ORA  $27
 9285  F0 38     BEQ  $92BF
 9287  B5 02     LDA  $02, X
 9289  85 28     STA  $28
 928B  B5 03     LDA  $03, X
 928D  85 29     STA  $29
 928F  A0 04     LDY  #$04
 9291  B1 26     LDA  ($26), Y
 9293  C5 28     CMP  $28
 9295  D0 07     BNE  $929E
 9297  C8        INY  
 9298  B1 26     LDA  ($26), Y
 929A  C5 29     CMP  $29
 929C  F0 32     BEQ  $92D0
 929E  18        CLC  
 929F  A5 26     LDA  $26
 92A1  69 02     ADC  #$02
 92A3  85 26     STA  $26
 92A5  A5 27     LDA  $27
 92A7  69 00     ADC  #$00
 92A9  85 27     STA  $27
 92AB  A0 00     LDY  #$00
 92AD  B1 26     LDA  ($26), Y
 92AF  48        PHA  
 92B0  C8        INY  
 92B1  11 26     ORA  ($26), Y
 92B3  F0 09     BEQ  $92BE
 92B5  B1 26     LDA  ($26), Y
 92B7  85 27     STA  $27
 92B9  68        PLA  
 92BA  85 26     STA  $26
 92BC  80 D1     BRA  $928F
 92BE  68        PLA  
 92BF  B5 00     LDA  $00, X
 92C1  1A        INC  
 92C2  95 00     STA  $00, X
 92C4  C9 0C     CMP  #$0C
 92C6  D0 A9     BNE  $9271
 92C8  E8        INX  
 92C9  E8        INX  
 92CA  74 00     STZ  $00, X
 92CC  74 01     STZ  $01, X
 92CE  80 0A     BRA  $92DA
 92D0  E8        INX  
 92D1  E8        INX  
 92D2  A5 26     LDA  $26
 92D4  95 00     STA  $00, X
 92D6  A5 27     LDA  $27
 92D8  95 01     STA  $01, X
 92DA  60        RTS  
 92DB  20 F9 D5  JSR  $D5F9
 92DE  A9 FF     LDA  #$FF
 92E0  55 00     EOR  $00, X
 92E2  95 00     STA  $00, X
 92E4  A9 FF     LDA  #$FF
 92E6  55 01     EOR  $01, X
 92E8  95 01     STA  $01, X
 92EA  60        RTS  
 92EB  A5 16     LDA  $16
 92ED  05 17     ORA  $17
 92EF  F0 0C     BEQ  $92FD
 92F1  20 8E 85  JSR  $858E
 92F4  A0 8A     LDY  #$8A
 92F6  A9 D6     LDA  #$D6
 92F8  20 9C D4  JSR  $D49C
 92FB  80 06     BRA  $9303
 92FD  20 8D A1  JSR  $A18D
 9300  20 D6 8A  JSR  $8AD6
 9303  60        RTS  
 9304  CA        DEX  
 9305  CA        DEX  
 9306  86 2A     STX  $2A
 9308  BA        TSX  
 9309  38        SEC  
 930A  BD 07 01  LDA  $0107, X
 930D  FD 09 01  SBC  $0109, X
 9310  A8        TAY  
 9311  BD 08 01  LDA  $0108, X
 9314  FD 0A 01  SBC  $010A, X
 9317  A6 2A     LDX  $2A
 9319  95 01     STA  $01, X
 931B  94 00     STY  $00, X
 931D  60        RTS  
 931E  20 28 93  JSR  $9328
 9321  CA        DEX  
 9322  CA        DEX  
 9323  95 00     STA  $00, X
 9325  74 01     STZ  $01, X
 9327  60        RTS  
 9328  6C 12 00  JMP  ($0012)
 932B  CA        DEX  
 932C  CA        DEX  
 932D  20 3B D5  JSR  $D53B
 9330  A5 02     LDA  $02
 9332  95 00     STA  $00, X
 9334  A5 03     LDA  $03
 9336  95 01     STA  $01, X
 9338  60        RTS  
 9339  20 2B 93  JSR  $932B
 933C  20 D1 95  JSR  $95D1
 933F  60        RTS  
 9340  68        PLA  
 9341  68        PLA  
 9342  68        PLA  
 9343  68        PLA  
 9344  60        RTS  
 9345  64 16     STZ  $16
 9347  64 17     STZ  $17
 9349  60        RTS  
 934A  20 23 98  JSR  $9823
 934D  B5 00     LDA  $00, X
 934F  85 34     STA  $34
 9351  B5 01     LDA  $01, X
 9353  85 35     STA  $35
 9355  E8        INX  
 9356  E8        INX  
 9357  60        RTS  
 9358  20 FE D5  JSR  $D5FE
 935B  A0 00     LDY  #$00
 935D  20 20 D5  JSR  $D520
 9360  F0 03     BEQ  $9365
 9362  30 01     BMI  $9365
 9364  88        DEY  
 9365  98        TYA  
 9366  E8        INX  
 9367  E8        INX  
 9368  95 00     STA  $00, X
 936A  95 01     STA  $01, X
 936C  60        RTS  
 936D  20 F9 D5  JSR  $D5F9
 9370  20 5B 9E  JSR  $9E5B
 9373  20 09 A1  JSR  $A109
 9376  20 C1 A7  JSR  $A7C1
 9379  60        RTS  
 937A  20 F9 D5  JSR  $D5F9
 937D  A0 93     LDY  #$93
 937F  A9 88     LDA  #$88
 9381  20 9C D4  JSR  $D49C
 9384  20 5E 87  JSR  $875E
 9387  60        RTS  
 9388  CA        DEX  
 9389  CA        DEX  
 938A  68        PLA  
 938B  85 24     STA  $24
 938D  68        PLA  
 938E  85 25     STA  $25
 9390  A0 01     LDY  #$01
 9392  B1 24     LDA  ($24), Y
 9394  95 00     STA  $00, X
 9396  C8        INY  
 9397  B1 24     LDA  ($24), Y
 9399  95 01     STA  $01, X
 939B  98        TYA  
 939C  18        CLC  
 939D  65 24     ADC  $24
 939F  A8        TAY  
 93A0  A5 25     LDA  $25
 93A2  69 00     ADC  #$00
 93A4  48        PHA  
 93A5  5A        PHY  
 93A6  60        RTS  
 93A7  20 F9 D5  JSR  $D5F9
 93AA  A0 01     LDY  #$01
 93AC  B1 1E     LDA  ($1E), Y
 93AE  48        PHA  
 93AF  88        DEY  
 93B0  B1 1E     LDA  ($1E), Y
 93B2  48        PHA  
 93B3  B5 00     LDA  $00, X
 93B5  91 1E     STA  ($1E), Y
 93B7  C8        INY  
 93B8  B5 01     LDA  $01, X
 93BA  91 1E     STA  ($1E), Y
 93BC  20 B1 83  JSR  $83B1
 93BF  CA        DEX  
 93C0  CA        DEX  
 93C1  A9 04     LDA  #$04
 93C3  95 01     STA  $01, X
 93C5  74 00     STZ  $00, X
 93C7  20 BF 90  JSR  $90BF
 93CA  A0 00     LDY  #$00
 93CC  68        PLA  
 93CD  91 1E     STA  ($1E), Y
 93CF  C8        INY  
 93D0  68        PLA  
 93D1  91 1E     STA  ($1E), Y
 93D3  88        DEY  
 93D4  11 1E     ORA  ($1E), Y
 93D6  F0 12     BEQ  $93EA
 93D8  CA        DEX  
 93D9  CA        DEX  
 93DA  A0 00     LDY  #$00
 93DC  B1 1E     LDA  ($1E), Y
 93DE  95 00     STA  $00, X
 93E0  C8        INY  
 93E1  B1 1E     LDA  ($1E), Y
 93E3  95 01     STA  $01, X
 93E5  20 B1 83  JSR  $83B1
 93E8  E8        INX  
 93E9  E8        INX  
 93EA  60        RTS  
 93EB  A0 97     LDY  #$97
 93ED  A9 8A     LDA  #$8A
 93EF  20 9C D4  JSR  $D49C
 93F2  A0 11     LDY  #$11
 93F4  5A        PHY  
 93F5  B9 59 94  LDA  $9459, Y
 93F8  91 00     STA  ($00), Y
 93FA  88        DEY  
 93FB  10 F8     BPL  $93F5
 93FD  68        PLA  
 93FE  18        CLC  
 93FF  65 00     ADC  $00
 9401  85 00     STA  $00
 9403  A5 01     LDA  $01
 9405  69 00     ADC  #$00
 9407  85 01     STA  $01
 9409  20 5E 87  JSR  $875E
 940C  A9 68     LDA  #$68
 940E  A0 06     LDY  #$06
 9410  91 00     STA  ($00), Y
 9412  88        DEY  
 9413  10 FB     BPL  $9410
 9415  A9 06     LDA  #$06
 9417  18        CLC  
 9418  65 00     ADC  $00
 941A  85 00     STA  $00
 941C  A5 01     LDA  $01
 941E  69 00     ADC  #$00
 9420  85 01     STA  $01
 9422  B5 00     LDA  $00, X
 9424  85 24     STA  $24
 9426  B5 01     LDA  $01, X
 9428  85 25     STA  $25
 942A  E8        INX  
 942B  E8        INX  
 942C  A5 00     LDA  $00
 942E  38        SEC  
 942F  E9 01     SBC  #$01
 9431  85 26     STA  $26
 9433  A5 01     LDA  $01
 9435  E9 00     SBC  #$00
 9437  85 27     STA  $27
 9439  A0 00     LDY  #$00
 943B  A9 A9     LDA  #$A9
 943D  91 24     STA  ($24), Y
 943F  C8        INY  
 9440  A5 27     LDA  $27
 9442  91 24     STA  ($24), Y
 9444  C8        INY  
 9445  A9 48     LDA  #$48
 9447  91 24     STA  ($24), Y
 9449  C8        INY  
 944A  A9 A9     LDA  #$A9
 944C  91 24     STA  ($24), Y
 944E  C8        INY  
 944F  A5 26     LDA  $26
 9451  91 24     STA  ($24), Y
 9453  C8        INY  
 9454  A9 48     LDA  #$48
 9456  91 24     STA  ($24), Y
 9458  60        RTS  
 9459  18        CLC  
 945A  68        PLA  
 945B  75 00     ADC  $00, X
 945D  A8        TAY  
 945E  B8        CLV  
 945F  68        PLA  
 9460  75 01     ADC  $01, X
 9462  48        PHA  
 9463  98        TYA  
 9464  48        PHA  
 9465  E8        INX  
 9466  E8        INX  
 9467  70 03     BVS  $946C
 9469  4C                                               |L               |
 946A  20 FE D5  JSR  $D5FE
 946D  B5 00     LDA  $00, X
 946F  29 0F     AND  #$0F
 9471  F0 08     BEQ  $947B
 9473  A8        TAY  
 9474  16 02     ASL  $02, X
 9476  36 03     ROL  $03, X
 9478  88        DEY  
 9479  D0 F9     BNE  $9474
 947B  E8        INX  
 947C  E8        INX  
 947D  60        RTS  
 947E  20 FE D5  JSR  $D5FE
 9481  B5 01     LDA  $01, X
 9483  55 03     EOR  $03, X
 9485  48        PHA  
 9486  20 39 81  JSR  $8139
 9489  20 2A A1  JSR  $A12A
 948C  20 39 81  JSR  $8139
 948F  20 78 A5  JSR  $A578
 9492  68        PLA  
 9493  10 03     BPL  $9498
 9495  20 31 8B  JSR  $8B31
 9498  60        RTS  
 9499  20 3B D5  JSR  $D53B
 949C  A5 02     LDA  $02
 949E  48        PHA  
 949F  A5 03     LDA  $03
 94A1  48        PHA  
 94A2  A5 00     LDA  $00
 94A4  48        PHA  
 94A5  A5 01     LDA  $01
 94A7  48        PHA  
 94A8  20 59 89  JSR  $8959
 94AB  A5 00     LDA  $00
 94AD  38        SEC  
 94AE  E9 02     SBC  #$02
 94B0  85 00     STA  $00
 94B2  A5 01     LDA  $01
 94B4  E9 00     SBC  #$00
 94B6  85 01     STA  $01
 94B8  A0 94     LDY  #$94
 94BA  A9 D7     LDA  #$D7
 94BC  20 A8 D4  JSR  $D4A8
 94BF  7A        PLY  
 94C0  68        PLA  
 94C1  20 A8 D4  JSR  $D4A8
 94C4  7A        PLY  
 94C5  68        PLA  
 94C6  20 A8 D4  JSR  $D4A8
 94C9  A0 04     LDY  #$04
 94CB  B1 1E     LDA  ($1E), Y
 94CD  20 AC D4  JSR  $D4AC
 94D0  C8        INY  
 94D1  98        TYA  
 94D2  C9 28     CMP  #$28
 94D4  D0 F5     BNE  $94CB
 94D6  60        RTS  
 94D7  68        PLA  
 94D8  85 24     STA  $24
 94DA  68        PLA  
 94DB  85 25     STA  $25
 94DD  E6 24     INC  $24
 94DF  D0 02     BNE  $94E3
 94E1  E6 25     INC  $25
 94E3  A0 00     LDY  #$00
 94E5  B1 24     LDA  ($24), Y
 94E7  85 00     STA  $00
 94E9  C8        INY  
 94EA  B1 24     LDA  ($24), Y
 94EC  85 01     STA  $01
 94EE  C8        INY  
 94EF  B1 24     LDA  ($24), Y
 94F1  85 02     STA  $02
 94F3  C8        INY  
 94F4  B1 24     LDA  ($24), Y
 94F6  85 03     STA  $03
 94F8  A0 04     LDY  #$04
 94FA  B1 24     LDA  ($24), Y
 94FC  91 1E     STA  ($1E), Y
 94FE  C8        INY  
 94FF  98        TYA  
 9500  C9 28     CMP  #$28
 9502  D0 F6     BNE  $94FA
 9504  20 4E D5  JSR  $D54E
 9507  60        RTS  
 9508  20 FE D5  JSR  $D5FE
 950B  B5 00     LDA  $00, X
 950D  D5 02     CMP  $02, X
 950F  B5 01     LDA  $01, X
 9511  F5 03     SBC  $03, X
 9513  50 02     BVC  $9517
 9515  49 80     EOR  #$80
 9517  30 08     BMI  $9521
 9519  B5 00     LDA  $00, X
 951B  95 02     STA  $02, X
 951D  B5 01     LDA  $01, X
 951F  95 03     STA  $03, X
 9521  E8        INX  
 9522  E8        INX  
 9523  60        RTS  
 9524  20 FE D5  JSR  $D5FE
 9527  B5 00     LDA  $00, X
 9529  D5 02     CMP  $02, X
 952B  B5 01     LDA  $01, X
 952D  F5 03     SBC  $03, X
 952F  50 02     BVC  $9533
 9531  49 80     EOR  #$80
 9533  10 08     BPL  $953D
 9535  B5 00     LDA  $00, X
 9537  95 02     STA  $02, X
 9539  B5 01     LDA  $01, X
 953B  95 03     STA  $03, X
 953D  E8        INX  
 953E  E8        INX  
 953F  60        RTS  
 9540  20 FE D5  JSR  $D5FE
 9543  38        SEC  
 9544  B5 02     LDA  $02, X
 9546  F5 00     SBC  $00, X
 9548  95 02     STA  $02, X
 954A  B5 03     LDA  $03, X
 954C  F5 01     SBC  $01, X
 954E  95 03     STA  $03, X
 9550  E8        INX  
 9551  E8        INX  
 9552  60        RTS  
 9553  20 FE D5  JSR  $D5FE
 9556  B5 00     LDA  $00, X
 9558  15 01     ORA  $01, X
 955A  F0 0F     BEQ  $956B
 955C  A1 02     LDA  ($02, X)
 955E  20 EC D5  JSR  $D5EC
 9561  90 08     BCC  $956B
 9563  20 8A 97  JSR  $978A
 9566  20 9B 9F  JSR  $9F9B
 9569  80 EB     BRA  $9556
 956B  60        RTS  
 956C  20 FE D5  JSR  $D5FE
 956F  B5 00     LDA  $00, X
 9571  15 01     ORA  $01, X
 9573  F0 33     BEQ  $95A8
 9575  18        CLC  
 9576  B5 02     LDA  $02, X
 9578  75 00     ADC  $00, X
 957A  85 24     STA  $24
 957C  B5 03     LDA  $03, X
 957E  75 01     ADC  $01, X
 9580  85 25     STA  $25
 9582  A5 24     LDA  $24
 9584  D0 02     BNE  $9588
 9586  C6 25     DEC  $25
 9588  C6 24     DEC  $24
 958A  B2 24     LDA  ($24)
 958C  C9 20     CMP  #$20
 958E  D0 18     BNE  $95A8
 9590  A5 24     LDA  $24
 9592  D0 02     BNE  $9596
 9594  C6 25     DEC  $25
 9596  C6 24     DEC  $24
 9598  B5 00     LDA  $00, X
 959A  D0 02     BNE  $959E
 959C  D6 01     DEC  $01, X
 959E  D6 00     DEC  $00, X
 95A0  B5 00     LDA  $00, X
 95A2  15 01     ORA  $01, X
 95A4  F0 02     BEQ  $95A8
 95A6  80 E2     BRA  $958A
 95A8  60        RTS  
 95A9  20 FE D5  JSR  $D5FE
 95AC  20 83 9F  JSR  $9F83
 95AF  E8        INX  
 95B0  E8        INX  
 95B1  60        RTS  
 95B2  B5 03     LDA  $03, X
 95B4  D5 05     CMP  $05, X
 95B6  F0 05     BEQ  $95BD
 95B8  B0 0E     BCS  $95C8
 95BA  4C 89 86  JMP  $8689
 95BD  B5 02     LDA  $02, X
 95BF  D5 04     CMP  $04, X
 95C1  F0 08     BEQ  $95CB
 95C3  B0 03     BCS  $95C8
 95C5  4C 89 86  JMP  $8689
 95C8  4C C4 86  JMP  $86C4
 95CB  8A        TXA  
 95CC  18        CLC  
 95CD  69 06     ADC  #$06
 95CF  AA        TAX  
 95D0  60        RTS  
 95D1  20 F9 D5  JSR  $D5F9
 95D4  B5 00     LDA  $00, X
 95D6  18        CLC  
 95D7  69 04     ADC  #$04
 95D9  85 28     STA  $28
 95DB  B5 01     LDA  $01, X
 95DD  90 01     BCC  $95E0
 95DF  1A        INC  
 95E0  85 29     STA  $29
 95E2  A0 00     LDY  #$00
 95E4  B1 28     LDA  ($28), Y
 95E6  95 00     STA  $00, X
 95E8  C8        INY  
 95E9  B1 28     LDA  ($28), Y
 95EB  95 01     STA  $01, X
 95ED  60        RTS  
 95EE  20 F9 D5  JSR  $D5F9
 95F1  CA        DEX  
 95F2  CA        DEX  
 95F3  A1 02     LDA  ($02, X)
 95F5  95 00     STA  $00, X
 95F7  74 01     STZ  $01, X
 95F9  B5 02     LDA  $02, X
 95FB  18        CLC  
 95FC  69 08     ADC  #$08
 95FE  A8        TAY  
 95FF  B5 03     LDA  $03, X
 9601  69 00     ADC  #$00
 9603  95 03     STA  $03, X
 9605  94 02     STY  $02, X
 9607  60        RTS  
 9608  CA        DEX  
 9609  CA        DEX  
 960A  A9 1A     LDA  #$1A
 960C  95 00     STA  $00, X
 960E  A9 00     LDA  #$00
 9610  95 01     STA  $01, X
 9612  60        RTS  
 9613  20 F9 D5  JSR  $D5F9
 9616  A9 00     LDA  #$00
 9618  38        SEC  
 9619  F5 00     SBC  $00, X
 961B  95 00     STA  $00, X
 961D  A9 00     LDA  #$00
 961F  F5 01     SBC  $01, X
 9621  95 01     STA  $01, X
 9623  60        RTS  
 9624  20 3B D5  JSR  $D53B
 9627  A0 01     LDY  #$01
 9629  B1 02     LDA  ($02), Y
 962B  09 08     ORA  #$08
 962D  29 FD     AND  #$FD
 962F  91 02     STA  ($02), Y
 9631  60        RTS  
 9632  20 FE D5  JSR  $D5FE
 9635  B5 00     LDA  $00, X
 9637  95 02     STA  $02, X
 9639  B5 01     LDA  $01, X
 963B  95 03     STA  $03, X
 963D  E8        INX  
 963E  E8        INX  
 963F  60        RTS  
 9640  20 FE D5  JSR  $D5FE
 9643  A0 00     LDY  #$00
 9645  B5 00     LDA  $00, X
 9647  D5 02     CMP  $02, X
 9649  D0 0A     BNE  $9655
 964B  B5 01     LDA  $01, X
 964D  D5 03     CMP  $03, X
 964F  D0 04     BNE  $9655
 9651  A9 FF     LDA  #$FF
 9653  80 01     BRA  $9656
 9655  88        DEY  
 9656  98        TYA  
 9657  E8        INX  
 9658  E8        INX  
 9659  95 00     STA  $00, X
 965B  95 01     STA  $01, X
 965D  60        RTS  
 965E  20 03 D6  JSR  $D603
 9661  B4 01     LDY  $01, X
 9663  B5 03     LDA  $03, X
 9665  95 01     STA  $01, X
 9667  B5 05     LDA  $05, X
 9669  95 03     STA  $03, X
 966B  94 05     STY  $05, X
 966D  B4 00     LDY  $00, X
 966F  B5 02     LDA  $02, X
 9671  95 00     STA  $00, X
 9673  B5 04     LDA  $04, X
 9675  95 02     STA  $02, X
 9677  94 04     STY  $04, X
 9679  60        RTS  
 967A  20 FE D5  JSR  $D5FE
 967D  64 2A     STZ  $2A
 967F  64 2B     STZ  $2B
 9681  A1 02     LDA  ($02, X)
 9683  C9 2D     CMP  #$2D
 9685  D0 0A     BNE  $9691
 9687  C6 2B     DEC  $2B
 9689  F6 02     INC  $02, X
 968B  D0 02     BNE  $968F
 968D  F6 03     INC  $03, X
 968F  D6 00     DEC  $00, X
 9691  B5 02     LDA  $02, X
 9693  18        CLC  
 9694  75 00     ADC  $00, X
 9696  85 2C     STA  $2C
 9698  B5 03     LDA  $03, X
 969A  69 00     ADC  #$00
 969C  85 2D     STA  $2D
 969E  A5 2C     LDA  $2C
 96A0  D0 02     BNE  $96A4
 96A2  C6 2D     DEC  $2D
 96A4  C6 2C     DEC  $2C
 96A6  B2 2C     LDA  ($2C)
 96A8  C9 2E     CMP  #$2E
 96AA  D0 04     BNE  $96B0
 96AC  C6 2A     DEC  $2A
 96AE  D6 00     DEC  $00, X
 96B0  CA        DEX  
 96B1  CA        DEX  
 96B2  CA        DEX  
 96B3  CA        DEX  
 96B4  B5 04     LDA  $04, X
 96B6  95 00     STA  $00, X
 96B8  74 01     STZ  $01, X
 96BA  B5 06     LDA  $06, X
 96BC  95 02     STA  $02, X
 96BE  B5 07     LDA  $07, X
 96C0  95 03     STA  $03, X
 96C2  74 04     STZ  $04, X
 96C4  74 05     STZ  $05, X
 96C6  74 06     STZ  $06, X
 96C8  74 07     STZ  $07, X
 96CA  20 39 A2  JSR  $A239
 96CD  B5 00     LDA  $00, X
 96CF  F0 15     BEQ  $96E6
 96D1  A9 3E     LDA  #$3E
 96D3  20 E6 8D  JSR  $8DE6
 96D6  20 7F A4  JSR  $A47F
 96D9  A9 3C     LDA  #$3C
 96DB  20 E6 8D  JSR  $8DE6
 96DE  20 A0 A0  JSR  $A0A0
 96E1  A9 08     LDA  #$08
 96E3  4C 0F D6  JMP  $D60F
 96E6  E8        INX  
 96E7  E8        INX  
 96E8  E8        INX  
 96E9  E8        INX  
 96EA  A5 2A     LDA  $2A
 96EC  F0 0D     BEQ  $96FB
 96EE  A9 20     LDA  #$20
 96F0  04 20     TSB  $20
 96F2  A5 2B     LDA  $2B
 96F4  F0 12     BEQ  $9708
 96F6  20 31 8B  JSR  $8B31
 96F9  80 0D     BRA  $9708
 96FB  E8        INX  
 96FC  E8        INX  
 96FD  A9 20     LDA  #$20
 96FF  14 20     TRB  $20
 9701  A5 2B     LDA  $2B
 9703  F0 03     BEQ  $9708
 9705  20 13 96  JSR  $9613
 9708  60        RTS  
 9709  20 FE D5  JSR  $D5FE
 970C  20 77 83  JSR  $8377
 970F  20 70 8F  JSR  $8F70
 9712  20 EC A2  JSR  $A2EC
 9715  20 23 A7  JSR  $A723
 9718  20 FF 99  JSR  $99FF
 971B  20 36 A5  JSR  $A536
 971E  20 D9 9A  JSR  $9AD9
 9721  20 D9 9A  JSR  $9AD9
 9724  20 14 9A  JSR  $9A14
 9727  20 36 A5  JSR  $A536
 972A  20 D9 9A  JSR  $9AD9
 972D  20 D9 9A  JSR  $9AD9
 9730  B5 00     LDA  $00, X
 9732  A8        TAY  
 9733  B9 10 D2  LDA  $D210, Y
 9736  95 00     STA  $00, X
 9738  74 01     STZ  $01, X
 973A  20 C7 91  JSR  $91C7
 973D  60        RTS  
 973E  20 FE D5  JSR  $D5FE
 9741  A5 34     LDA  $34
 9743  95 00     STA  $00, X
 9745  95 02     STA  $02, X
 9747  A5 35     LDA  $35
 9749  95 01     STA  $01, X
 974B  95 03     STA  $03, X
 974D  20 23 98  JSR  $9823
 9750  38        SEC  
 9751  B5 00     LDA  $00, X
 9753  F5 02     SBC  $02, X
 9755  95 02     STA  $02, X
 9757  B5 01     LDA  $01, X
 9759  F5 03     SBC  $03, X
 975B  95 03     STA  $03, X
 975D  E8        INX  
 975E  E8        INX  
 975F  60        RTS  
 9760  20 FE D5  JSR  $D5FE
 9763  20 09 97  JSR  $9709
 9766  B5 00     LDA  $00, X
 9768  15 01     ORA  $01, X
 976A  15 02     ORA  $02, X
 976C  15 03     ORA  $03, X
 976E  D0 F3     BNE  $9763
 9770  60        RTS  
 9771  A0 98     LDY  #$98
 9773  A9 15     LDA  #$15
 9775  20 9C D4  JSR  $D49C
 9778  A0 8E     LDY  #$8E
 977A  A9 BE     LDA  #$BE
 977C  20 9C D4  JSR  $D49C
 977F  20 F3 91  JSR  $91F3
 9782  A0 8D     LDY  #$8D
 9784  A9 1E     LDA  #$1E
 9786  20 9C D4  JSR  $D49C
 9789  60        RTS  
 978A  CA        DEX  
 978B  CA        DEX  
 978C  A9 01     LDA  #$01
 978E  95 00     STA  $00, X
 9790  74 01     STZ  $01, X
 9792  60        RTS  
 9793  20 F9 D5  JSR  $D5F9
 9796  B5 00     LDA  $00, X
 9798  D0 02     BNE  $979C
 979A  D6 01     DEC  $01, X
 979C  D6 00     DEC  $00, X
 979E  60        RTS  
 979F  20 F9 D5  JSR  $D5F9
 97A2  F6 00     INC  $00, X
 97A4  D0 02     BNE  $97A8
 97A6  F6 01     INC  $01, X
 97A8  60        RTS  
 97A9  CA        DEX  
 97AA  CA        DEX  
 97AB  A9 FF     LDA  #$FF
 97AD  95 00     STA  $00, X
 97AF  95 01     STA  $01, X
 97B1  20 9D 9C  JSR  $9C9D
 97B4  60        RTS  
 97B5  20 FE D5  JSR  $D5FE
 97B8  B5 00     LDA  $00, X
 97BA  15 02     ORA  $02, X
 97BC  95 02     STA  $02, X
 97BE  B5 01     LDA  $01, X
 97C0  15 03     ORA  $03, X
 97C2  95 03     STA  $03, X
 97C4  E8        INX  
 97C5  E8        INX  
 97C6  60        RTS  
 97C7  20 53 89  JSR  $8953
 97CA  20 24 91  JSR  $9124
 97CD  B5 00     LDA  $00, X
 97CF  F0 1E     BEQ  $97EF
 97D1  A8        TAY  
 97D2  E8        INX  
 97D3  E8        INX  
 97D4  B5 00     LDA  $00, X
 97D6  5A        PHY  
 97D7  20 F2 97  JSR  $97F2
 97DA  7A        PLY  
 97DB  88        DEY  
 97DC  D0 F4     BNE  $97D2
 97DE  20 A0 A0  JSR  $A0A0
 97E1  20 A0 A0  JSR  $A0A0
 97E4  20 19 91  JSR  $9119
 97E7  B5 00     LDA  $00, X
 97E9  20 F2 97  JSR  $97F2
 97EC  20 53 89  JSR  $8953
 97EF  E8        INX  
 97F0  E8        INX  
 97F1  60        RTS  
 97F2  C9 04     CMP  #$04
 97F4  90 09     BCC  $97FF
 97F6  CA        DEX  
 97F7  CA        DEX  
 97F8  95 00     STA  $00, X
 97FA  74 01     STZ  $01, X
 97FC  4C AA A4  JMP  $A4AA
 97FF  A8        TAY  
 9800  B9 06 98  LDA  $9806, Y
 9803  4C 25 D6  JMP  $D625
 9806  03 06 07 08                                      |....            |
 980A  CA        DEX  
 980B  CA        DEX  
 980C  A9 10     LDA  #$10
 980E  95 00     STA  $00, X
 9810  A9 00     LDA  #$00
 9812  95 01     STA  $01, X
 9814  60        RTS  
 9815  20 FE D5  JSR  $D5FE
 9818  CA        DEX  
 9819  CA        DEX  
 981A  B5 04     LDA  $04, X
 981C  95 00     STA  $00, X
 981E  B5 05     LDA  $05, X
 9820  95 01     STA  $01, X
 9822  60        RTS  
 9823  CA        DEX  
 9824  CA        DEX  
 9825  A5 00     LDA  $00
 9827  18        CLC  
 9828  69 FF     ADC  #$FF
 982A  95 00     STA  $00, X
 982C  A5 01     LDA  $01
 982E  69 00     ADC  #$00
 9830  95 01     STA  $01, X
 9832  60        RTS  
 9833  A9 1B     LDA  #$1B
 9835  20 E6 8D  JSR  $8DE6
 9838  A9 5B     LDA  #$5B
 983A  20 E6 8D  JSR  $8DE6
 983D  A9 32     LDA  #$32
 983F  20 E6 8D  JSR  $8DE6
 9842  A9 4A     LDA  #$4A
 9844  20 E6 8D  JSR  $8DE6
 9847  20 23 A7  JSR  $A723
 984A  20 23 A7  JSR  $A723
 984D  20 50 83  JSR  $8350
 9850  60        RTS  
 9851  CA        DEX  
 9852  CA        DEX  
 9853  A9 29     LDA  #$29
 9855  95 00     STA  $00, X
 9857  74 01     STZ  $01, X
 9859  20 BC 98  JSR  $98BC
 985C  E8        INX  
 985D  E8        INX  
 985E  E8        INX  
 985F  E8        INX  
 9860  60        RTS  
 9861  A5 0A     LDA  $0A
 9863  38        SEC  
 9864  E5 0C     SBC  $0C
 9866  85 24     STA  $24
 9868  A5 0B     LDA  $0B
 986A  E5 0D     SBC  $0D
 986C  85 25     STA  $25
 986E  A5 24     LDA  $24
 9870  05 25     ORA  $25
 9872  F0 28     BEQ  $989C
 9874  A5 08     LDA  $08
 9876  18        CLC  
 9877  65 0C     ADC  $0C
 9879  85 26     STA  $26
 987B  A5 09     LDA  $09
 987D  65 0D     ADC  $0D
 987F  85 27     STA  $27
 9881  B2 26     LDA  ($26)
 9883  20 EC D5  JSR  $D5EC
 9886  90 1F     BCC  $98A7
 9888  E6 26     INC  $26
 988A  D0 02     BNE  $988E
 988C  E6 27     INC  $27
 988E  A5 24     LDA  $24
 9890  D0 02     BNE  $9894
 9892  C6 25     DEC  $25
 9894  C6 24     DEC  $24
 9896  A5 24     LDA  $24
 9898  05 25     ORA  $25
 989A  D0 E5     BNE  $9881
 989C  CA        DEX  
 989D  CA        DEX  
 989E  CA        DEX  
 989F  CA        DEX  
 98A0  74 00     STZ  $00, X
 98A2  74 01     STZ  $01, X
 98A4  4C 53 99  JMP  $9953
 98A7  A5 26     LDA  $26
 98A9  38        SEC  
 98AA  E5 08     SBC  $08
 98AC  85 0C     STA  $0C
 98AE  A5 27     LDA  $27
 98B0  E5 09     SBC  $09
 98B2  85 0D     STA  $0D
 98B4  CA        DEX  
 98B5  CA        DEX  
 98B6  A9 20     LDA  #$20
 98B8  95 00     STA  $00, X
 98BA  74 01     STZ  $01, X
 98BC  20 F9 D5  JSR  $D5F9
 98BF  A5 0A     LDA  $0A
 98C1  05 0B     ORA  $0B
 98C3  F0 0C     BEQ  $98D1
 98C5  A5 0D     LDA  $0D
 98C7  C5 0B     CMP  $0B
 98C9  90 0E     BCC  $98D9
 98CB  A5 0C     LDA  $0C
 98CD  C5 0A     CMP  $0A
 98CF  90 08     BCC  $98D9
 98D1  CA        DEX  
 98D2  CA        DEX  
 98D3  74 00     STZ  $00, X
 98D5  74 01     STZ  $01, X
 98D7  80 7A     BRA  $9953
 98D9  B5 00     LDA  $00, X
 98DB  85 2C     STA  $2C
 98DD  CA        DEX  
 98DE  CA        DEX  
 98DF  A5 08     LDA  $08
 98E1  18        CLC  
 98E2  65 0C     ADC  $0C
 98E4  85 24     STA  $24
 98E6  85 26     STA  $26
 98E8  95 02     STA  $02, X
 98EA  A5 09     LDA  $09
 98EC  65 0D     ADC  $0D
 98EE  85 25     STA  $25
 98F0  85 27     STA  $27
 98F2  95 03     STA  $03, X
 98F4  A5 08     LDA  $08
 98F6  18        CLC  
 98F7  65 0A     ADC  $0A
 98F9  85 28     STA  $28
 98FB  A5 09     LDA  $09
 98FD  65 0B     ADC  $0B
 98FF  85 29     STA  $29
 9901  64 2D     STZ  $2D
 9903  A5 26     LDA  $26
 9905  C5 28     CMP  $28
 9907  D0 06     BNE  $990F
 9909  A5 27     LDA  $27
 990B  C5 29     CMP  $29
 990D  F0 1D     BEQ  $992C
 990F  B2 26     LDA  ($26)
 9911  A4 2C     LDY  $2C
 9913  C0 20     CPY  #$20
 9915  D0 07     BNE  $991E
 9917  20 EC D5  JSR  $D5EC
 991A  90 02     BCC  $991E
 991C  80 0C     BRA  $992A
 991E  C5 2C     CMP  $2C
 9920  F0 08     BEQ  $992A
 9922  E6 26     INC  $26
 9924  D0 DD     BNE  $9903
 9926  E6 27     INC  $27
 9928  80 D9     BRA  $9903
 992A  E6 2D     INC  $2D
 992C  A5 26     LDA  $26
 992E  38        SEC  
 992F  E5 24     SBC  $24
 9931  95 00     STA  $00, X
 9933  A5 27     LDA  $27
 9935  E5 25     SBC  $25
 9937  95 01     STA  $01, X
 9939  A5 26     LDA  $26
 993B  38        SEC  
 993C  E5 08     SBC  $08
 993E  85 0C     STA  $0C
 9940  A5 27     LDA  $27
 9942  E5 09     SBC  $09
 9944  85 0D     STA  $0D
 9946  A5 0C     LDA  $0C
 9948  18        CLC  
 9949  65 2D     ADC  $2D
 994B  85 0C     STA  $0C
 994D  A5 0D     LDA  $0D
 994F  69 00     ADC  #$00
 9951  85 0D     STA  $0D
 9953  60        RTS  
 9954  16 00     ASL  $00, X
 9956  8A        TXA  
 9957  75 00     ADC  $00, X
 9959  A8        TAY  
 995A  B9 02 00  LDA  $0002, Y
 995D  95 00     STA  $00, X
 995F  B9 03 00  LDA  $0003, Y
 9962  95 01     STA  $01, X
 9964  60        RTS  
 9965  20 FE D5  JSR  $D5FE
 9968  18        CLC  
 9969  B5 00     LDA  $00, X
 996B  75 02     ADC  $02, X
 996D  95 02     STA  $02, X
 996F  B5 01     LDA  $01, X
 9971  75 03     ADC  $03, X
 9973  95 03     STA  $03, X
 9975  E8        INX  
 9976  E8        INX  
 9977  60        RTS  
 9978  20 FE D5  JSR  $D5FE
 997B  B5 00     LDA  $00, X
 997D  85 24     STA  $24
 997F  B5 01     LDA  $01, X
 9981  85 25     STA  $25
 9983  A0 00     LDY  #$00
 9985  B1 24     LDA  ($24), Y
 9987  18        CLC  
 9988  75 02     ADC  $02, X
 998A  91 24     STA  ($24), Y
 998C  C8        INY  
 998D  B1 24     LDA  ($24), Y
 998F  75 03     ADC  $03, X
 9991  91 24     STA  ($24), Y
 9993  E8        INX  
 9994  E8        INX  
 9995  E8        INX  
 9996  E8        INX  
 9997  60        RTS  
 9998  20 61 98  JSR  $9861
 999B  B5 00     LDA  $00, X
 999D  15 01     ORA  $01, X
 999F  D0 05     BNE  $99A6
 99A1  A9 05     LDA  #$05
 99A3  4C 0F D6  JMP  $D60F
 99A6  20 CB 8F  JSR  $8FCB
 99A9  D0 05     BNE  $99B0
 99AB  A9 05     LDA  #$05
 99AD  4C 0F D6  JMP  $D60F
 99B0  B5 00     LDA  $00, X
 99B2  85 24     STA  $24
 99B4  B5 01     LDA  $01, X
 99B6  85 25     STA  $25
 99B8  20 D1 95  JSR  $95D1
 99BB  E6 24     INC  $24
 99BD  D0 02     BNE  $99C1
 99BF  E6 25     INC  $25
 99C1  B2 24     LDA  ($24)
 99C3  29 04     AND  #$04
 99C5  F0 05     BEQ  $99CC
 99C7  20 DD 87  JSR  $87DD
 99CA  80 0A     BRA  $99D6
 99CC  20 7A 93  JSR  $937A
 99CF  A0 87     LDY  #$87
 99D1  A9 DD     LDA  #$DD
 99D3  20 9C D4  JSR  $D49C
 99D6  60        RTS  
 99D7  20 24 91  JSR  $9124
 99DA  20 32 96  JSR  $9632
 99DD  20 93 97  JSR  $9793
 99E0  20 9D 9C  JSR  $9C9D
 99E3  60        RTS  
 99E4  20 70 8F  JSR  $8F70
 99E7  20 26 8C  JSR  $8C26
 99EA  60        RTS  
 99EB  20 F9 D5  JSR  $D5F9
 99EE  B5 00     LDA  $00, X
 99F0  15 01     ORA  $01, X
 99F2  F0 0A     BEQ  $99FE
 99F4  CA        DEX  
 99F5  CA        DEX  
 99F6  B5 02     LDA  $02, X
 99F8  95 00     STA  $00, X
 99FA  B5 03     LDA  $03, X
 99FC  95 01     STA  $01, X
 99FE  60        RTS  
 99FF  7A        PLY  
 9A00  84 24     STY  $24
 9A02  7A        PLY  
 9A03  CA        DEX  
 9A04  CA        DEX  
 9A05  68        PLA  
 9A06  95 00     STA  $00, X
 9A08  68        PLA  
 9A09  95 01     STA  $01, X
 9A0B  48        PHA  
 9A0C  B5 00     LDA  $00, X
 9A0E  48        PHA  
 9A0F  5A        PHY  
 9A10  A4 24     LDY  $24
 9A12  5A        PHY  
 9A13  60        RTS  
 9A14  68        PLA  
 9A15  85 2C     STA  $2C
 9A17  7A        PLY  
 9A18  CA        DEX  
 9A19  CA        DEX  
 9A1A  68        PLA  
 9A1B  95 00     STA  $00, X
 9A1D  68        PLA  
 9A1E  95 01     STA  $01, X
 9A20  5A        PHY  
 9A21  A5 2C     LDA  $2C
 9A23  48        PHA  
 9A24  60        RTS  
 9A25  68        PLA  
 9A26  85 24     STA  $24
 9A28  68        PLA  
 9A29  85 25     STA  $25
 9A2B  A0 00     LDY  #$00
 9A2D  68        PLA  
 9A2E  99 06 00  STA  $0006, Y
 9A31  C8        INY  
 9A32  C0 08     CPY  #$08
 9A34  D0 F7     BNE  $9A2D
 9A36  A5 25     LDA  $25
 9A38  48        PHA  
 9A39  A5 24     LDA  $24
 9A3B  48        PHA  
 9A3C  60        RTS  
 9A3D  A0 00     LDY  #$00
 9A3F  A9 20     LDA  #$20
 9A41  91 00     STA  ($00), Y
 9A43  C8        INY  
 9A44  24 20     BIT  $20
 9A46  70 0C     BVS  $9A54
 9A48  A5 04     LDA  $04
 9A4A  91 00     STA  ($00), Y
 9A4C  C8        INY  
 9A4D  A5 05     LDA  $05
 9A4F  91 00     STA  ($00), Y
 9A51  C8        INY  
 9A52  80 1B     BRA  $9A6F
 9A54  A5 04     LDA  $04
 9A56  18        CLC  
 9A57  69 04     ADC  #$04
 9A59  85 24     STA  $24
 9A5B  A5 05     LDA  $05
 9A5D  69 00     ADC  #$00
 9A5F  85 25     STA  $25
 9A61  B2 24     LDA  ($24)
 9A63  91 00     STA  ($00), Y
 9A65  5A        PHY  
 9A66  A0 01     LDY  #$01
 9A68  B1 24     LDA  ($24), Y
 9A6A  7A        PLY  
 9A6B  C8        INY  
 9A6C  91 00     STA  ($00), Y
 9A6E  C8        INY  
 9A6F  98        TYA  
 9A70  18        CLC  
 9A71  65 00     ADC  $00
 9A73  85 00     STA  $00
 9A75  90 02     BCC  $9A79
 9A77  E6 01     INC  $01
 9A79  60        RTS  
 9A7A  A5 06     LDA  $06
 9A7C  D0 2D     BNE  $9AAB
 9A7E  CA        DEX  
 9A7F  CA        DEX  
 9A80  CA        DEX  
 9A81  CA        DEX  
 9A82  A5 08     LDA  $08
 9A84  95 02     STA  $02, X
 9A86  A5 09     LDA  $09
 9A88  95 03     STA  $03, X
 9A8A  64 0A     STZ  $0A
 9A8C  64 0B     STZ  $0B
 9A8E  A9 FF     LDA  #$FF
 9A90  95 00     STA  $00, X
 9A92  74 01     STZ  $01, X
 9A94  20 4E 81  JSR  $814E
 9A97  B5 00     LDA  $00, X
 9A99  85 0A     STA  $0A
 9A9B  B5 01     LDA  $01, X
 9A9D  85 0B     STA  $0B
 9A9F  64 0C     STZ  $0C
 9AA1  64 0D     STZ  $0D
 9AA3  A9 FF     LDA  #$FF
 9AA5  95 00     STA  $00, X
 9AA7  95 01     STA  $01, X
 9AA9  80 10     BRA  $9ABB
 9AAB  1A        INC  
 9AAC  D0 08     BNE  $9AB6
 9AAE  CA        DEX  
 9AAF  CA        DEX  
 9AB0  74 00     STZ  $00, X
 9AB2  74 01     STZ  $01, X
 9AB4  80 05     BRA  $9ABB
 9AB6  A9 01     LDA  #$01
 9AB8  4C 0F D6  JMP  $D60F
 9ABB  60        RTS  
 9ABC  20 89 82  JSR  $8289
 9ABF  20 62 91  JSR  $9162
 9AC2  20 2A A1  JSR  $A12A
 9AC5  20 09 A1  JSR  $A109
 9AC8  60        RTS  
 9AC9  A9 FF     LDA  #$FF
 9ACB  85 16     STA  $16
 9ACD  85 17     STA  $17
 9ACF  60        RTS  
 9AD0  CA        DEX  
 9AD1  CA        DEX  
 9AD2  A9 03     LDA  #$03
 9AD4  95 00     STA  $00, X
 9AD6  74 01     STZ  $01, X
 9AD8  60        RTS  
 9AD9  20 03 D6  JSR  $D603
 9ADC  B4 05     LDY  $05, X
 9ADE  B5 03     LDA  $03, X
 9AE0  95 05     STA  $05, X
 9AE2  B5 01     LDA  $01, X
 9AE4  95 03     STA  $03, X
 9AE6  94 01     STY  $01, X
 9AE8  B4 04     LDY  $04, X
 9AEA  B5 02     LDA  $02, X
 9AEC  95 04     STA  $04, X
 9AEE  B5 00     LDA  $00, X
 9AF0  95 02     STA  $02, X
 9AF2  94 00     STY  $00, X
 9AF4  60        RTS  
 9AF5  20 FE D5  JSR  $D5FE
 9AF8  B5 00     LDA  $00, X
 9AFA  29 0F     AND  #$0F
 9AFC  F0 08     BEQ  $9B06
 9AFE  A8        TAY  
 9AFF  56 03     LSR  $03, X
 9B01  76 02     ROR  $02, X
 9B03  88        DEY  
 9B04  D0 F9     BNE  $9AFF
 9B06  E8        INX  
 9B07  E8        INX  
 9B08  60        RTS  
 9B09  A9 FF     LDA  #$FF
 9B0B  85 26     STA  $26
 9B0D  64 27     STZ  $27
 9B0F  20 D5 9C  JSR  $9CD5
 9B12  60        RTS  
 9B13  C9 41     CMP  #$41
 9B15  90 07     BCC  $9B1E
 9B17  29 DF     AND  #$DF
 9B19  38        SEC  
 9B1A  E9 37     SBC  #$37
 9B1C  80 03     BRA  $9B21
 9B1E  38        SEC  
 9B1F  E9 30     SBC  #$30
 9B21  60        RTS  
 9B22  20 03 D6  JSR  $D603
 9B25  A5 1E     LDA  $1E
 9B27  18        CLC  
 9B28  69 06     ADC  #$06
 9B2A  85 26     STA  $26
 9B2C  A5 1F     LDA  $1F
 9B2E  69 00     ADC  #$00
 9B30  85 27     STA  $27
 9B32  B5 00     LDA  $00, X
 9B34  0A        ASL  
 9B35  65 26     ADC  $26
 9B37  85 26     STA  $26
 9B39  90 02     BCC  $9B3D
 9B3B  E6 27     INC  $27
 9B3D  E8        INX  
 9B3E  E8        INX  
 9B3F  B5 00     LDA  $00, X
 9B41  15 01     ORA  $01, X
 9B43  D0 03     BNE  $9B48
 9B45  4C 00 9C  JMP  $9C00
 9B48  A5 26     LDA  $26
 9B4A  05 27     ORA  $27
 9B4C  D0 03     BNE  $9B51
 9B4E  4C 00 9C  JMP  $9C00
 9B51  B2 26     LDA  ($26)
 9B53  85 24     STA  $24
 9B55  E6 26     INC  $26
 9B57  D0 02     BNE  $9B5B
 9B59  E6 27     INC  $27
 9B5B  B2 26     LDA  ($26)
 9B5D  85 25     STA  $25
 9B5F  B5 02     LDA  $02, X
 9B61  85 26     STA  $26
 9B63  B5 03     LDA  $03, X
 9B65  85 27     STA  $27
 9B67  B2 24     LDA  ($24)
 9B69  D5 00     CMP  $00, X
 9B6B  D0 7B     BNE  $9BE8
 9B6D  B2 26     LDA  ($26)
 9B6F  C9 5B     CMP  #$5B
 9B71  B0 07     BCS  $9B7A
 9B73  C9 41     CMP  #$41
 9B75  90 03     BCC  $9B7A
 9B77  18        CLC  
 9B78  69 20     ADC  #$20
 9B7A  A0 08     LDY  #$08
 9B7C  D1 24     CMP  ($24), Y
 9B7E  D0 68     BNE  $9BE8
 9B80  B5 00     LDA  $00, X
 9B82  3A        DEC  
 9B83  F0 2C     BEQ  $9BB1
 9B85  A5 24     LDA  $24
 9B87  48        PHA  
 9B88  18        CLC  
 9B89  69 08     ADC  #$08
 9B8B  85 24     STA  $24
 9B8D  A5 25     LDA  $25
 9B8F  48        PHA  
 9B90  69 00     ADC  #$00
 9B92  85 25     STA  $25
 9B94  B4 00     LDY  $00, X
 9B96  88        DEY  
 9B97  B1 26     LDA  ($26), Y
 9B99  C9 5B     CMP  #$5B
 9B9B  B0 07     BCS  $9BA4
 9B9D  C9 41     CMP  #$41
 9B9F  90 03     BCC  $9BA4
 9BA1  18        CLC  
 9BA2  69 20     ADC  #$20
 9BA4  D1 24     CMP  ($24), Y
 9BA6  D0 3A     BNE  $9BE2
 9BA8  88        DEY  
 9BA9  D0 EC     BNE  $9B97
 9BAB  68        PLA  
 9BAC  85 25     STA  $25
 9BAE  68        PLA  
 9BAF  85 24     STA  $24
 9BB1  E8        INX  
 9BB2  E8        INX  
 9BB3  A5 24     LDA  $24
 9BB5  95 00     STA  $00, X
 9BB7  A5 25     LDA  $25
 9BB9  95 01     STA  $01, X
 9BBB  20 9F 8D  JSR  $8D9F
 9BBE  20 D1 95  JSR  $95D1
 9BC1  20 2A A1  JSR  $A12A
 9BC4  A0 00     LDY  #$00
 9BC6  F6 00     INC  $00, X
 9BC8  D0 02     BNE  $9BCC
 9BCA  F6 01     INC  $01, X
 9BCC  A1 00     LDA  ($00, X)
 9BCE  29 04     AND  #$04
 9BD0  D0 08     BNE  $9BDA
 9BD2  A9 FF     LDA  #$FF
 9BD4  95 00     STA  $00, X
 9BD6  95 01     STA  $01, X
 9BD8  80 28     BRA  $9C02
 9BDA  A9 01     LDA  #$01
 9BDC  95 00     STA  $00, X
 9BDE  74 01     STZ  $01, X
 9BE0  80 20     BRA  $9C02
 9BE2  68        PLA  
 9BE3  85 25     STA  $25
 9BE5  68        PLA  
 9BE6  85 24     STA  $24
 9BE8  A0 02     LDY  #$02
 9BEA  B1 24     LDA  ($24), Y
 9BEC  48        PHA  
 9BED  C8        INY  
 9BEE  B1 24     LDA  ($24), Y
 9BF0  85 25     STA  $25
 9BF2  68        PLA  
 9BF3  85 24     STA  $24
 9BF5  05 25     ORA  $25
 9BF7  F0 03     BEQ  $9BFC
 9BF9  4C 67 9B  JMP  $9B67
 9BFC  74 02     STZ  $02, X
 9BFE  74 03     STZ  $03, X
 9C00  E8        INX  
 9C01  E8        INX  
 9C02  60        RTS  
 9C03  20 61 98  JSR  $9861
 9C06  20 CB 8F  JSR  $8FCB
 9C09  B5 00     LDA  $00, X
 9C0B  15 01     ORA  $01, X
 9C0D  D0 05     BNE  $9C14
 9C0F  A9 05     LDA  #$05
 9C11  4C 0F D6  JMP  $D60F
 9C14  20 53 89  JSR  $8953
 9C17  A5 18     LDA  $18
 9C19  48        PHA  
 9C1A  20 6D 91  JSR  $916D
 9C1D  A9 0A     LDA  #$0A
 9C1F  20 25 D6  JSR  $D625
 9C22  20 9F 8D  JSR  $8D9F
 9C25  20 AA A4  JSR  $A4AA
 9C28  20 A0 A0  JSR  $A0A0
 9C2B  20 9F 8D  JSR  $8D9F
 9C2E  20 D1 95  JSR  $95D1
 9C31  A9 0B     LDA  #$0B
 9C33  20 25 D6  JSR  $D625
 9C36  20 9F 8D  JSR  $8D9F
 9C39  20 AA A4  JSR  $A4AA
 9C3C  20 53 89  JSR  $8953
 9C3F  A9 09     LDA  #$09
 9C41  20 25 D6  JSR  $D625
 9C44  20 15 98  JSR  $9815
 9C47  20 9F 97  JSR  $979F
 9C4A  20 70 8F  JSR  $8F70
 9C4D  B5 00     LDA  $00, X
 9C4F  A0 06     LDY  #$06
 9C51  48        PHA  
 9C52  29 01     AND  #$01
 9C54  18        CLC  
 9C55  69 30     ADC  #$30
 9C57  20 E6 8D  JSR  $8DE6
 9C5A  20 A0 A0  JSR  $A0A0
 9C5D  68        PLA  
 9C5E  6A        ROR  
 9C5F  88        DEY  
 9C60  D0 EF     BNE  $9C51
 9C62  20 53 89  JSR  $8953
 9C65  E8        INX  
 9C66  E8        INX  
 9C67  A9 0C     LDA  #$0C
 9C69  20 25 D6  JSR  $D625
 9C6C  20 2A A1  JSR  $A12A
 9C6F  20 F0 A6  JSR  $A6F0
 9C72  20 9F 8D  JSR  $8D9F
 9C75  20 95 8A  JSR  $8A95
 9C78  20 AA A4  JSR  $A4AA
 9C7B  20 6D 91  JSR  $916D
 9C7E  20 53 89  JSR  $8953
 9C81  20 34 A3  JSR  $A334
 9C84  20 24 8D  JSR  $8D24
 9C87  20 53 89  JSR  $8953
 9C8A  20 2A 8B  JSR  $8B2A
 9C8D  68        PLA  
 9C8E  85 18     STA  $18
 9C90  60        RTS  
 9C91  20 F9 D5  JSR  $D5F9
 9C94  A0 04     LDY  #$04
 9C96  B5 00     LDA  $00, X
 9C98  91 1E     STA  ($1E), Y
 9C9A  E8        INX  
 9C9B  E8        INX  
 9C9C  60        RTS  
 9C9D  A9 FF     LDA  #$FF
 9C9F  D5 01     CMP  $01, X
 9CA1  D0 12     BNE  $9CB5
 9CA3  D5 00     CMP  $00, X
 9CA5  D0 0E     BNE  $9CB5
 9CA7  CA        DEX  
 9CA8  CA        DEX  
 9CA9  74 03     STZ  $03, X
 9CAB  A9 03     LDA  #$03
 9CAD  95 02     STA  $02, X
 9CAF  74 01     STZ  $01, X
 9CB1  A9 01     LDA  #$01
 9CB3  95 00     STA  $00, X
 9CB5  A0 1E     LDY  #$1E
 9CB7  B5 00     LDA  $00, X
 9CB9  91 1E     STA  ($1E), Y
 9CBB  85 24     STA  $24
 9CBD  E8        INX  
 9CBE  E8        INX  
 9CBF  A5 24     LDA  $24
 9CC1  F0 0D     BEQ  $9CD0
 9CC3  A0 1F     LDY  #$1F
 9CC5  B5 00     LDA  $00, X
 9CC7  91 1E     STA  ($1E), Y
 9CC9  C8        INY  
 9CCA  E8        INX  
 9CCB  E8        INX  
 9CCC  C6 24     DEC  $24
 9CCE  D0 F5     BNE  $9CC5
 9CD0  60        RTS  
 9CD1  64 26     STZ  $26
 9CD3  64 27     STZ  $27
 9CD5  CA        DEX  
 9CD6  CA        DEX  
 9CD7  CA        DEX  
 9CD8  CA        DEX  
 9CD9  A9 4C     LDA  #$4C
 9CDB  20 AC D4  JSR  $D4AC
 9CDE  20 AC D4  JSR  $D4AC
 9CE1  20 AC D4  JSR  $D4AC
 9CE4  A5 00     LDA  $00
 9CE6  95 02     STA  $02, X
 9CE8  A5 01     LDA  $01
 9CEA  95 03     STA  $03, X
 9CEC  A5 0D     LDA  $0D
 9CEE  C5 0B     CMP  $0B
 9CF0  90 2A     BCC  $9D1C
 9CF2  A5 0C     LDA  $0C
 9CF4  C5 0A     CMP  $0A
 9CF6  90 24     BCC  $9D1C
 9CF8  A5 26     LDA  $26
 9CFA  48        PHA  
 9CFB  A5 27     LDA  $27
 9CFD  48        PHA  
 9CFE  A5 28     LDA  $28
 9D00  48        PHA  
 9D01  20 7A 9A  JSR  $9A7A
 9D04  68        PLA  
 9D05  85 28     STA  $28
 9D07  68        PLA  
 9D08  85 27     STA  $27
 9D0A  68        PLA  
 9D0B  85 26     STA  $26
 9D0D  B5 00     LDA  $00, X
 9D0F  15 01     ORA  $01, X
 9D11  D0 05     BNE  $9D18
 9D13  A9 06     LDA  #$06
 9D15  4C 0F D6  JMP  $D60F
 9D18  E8        INX  
 9D19  E8        INX  
 9D1A  80 D0     BRA  $9CEC
 9D1C  A5 08     LDA  $08
 9D1E  18        CLC  
 9D1F  65 0C     ADC  $0C
 9D21  85 24     STA  $24
 9D23  A5 09     LDA  $09
 9D25  65 0D     ADC  $0D
 9D27  85 25     STA  $25
 9D29  B2 24     LDA  ($24)
 9D2B  24 26     BIT  $26
 9D2D  30 03     BMI  $9D32
 9D2F  4C EA 9D  JMP  $9DEA
 9D32  24 27     BIT  $27
 9D34  30 03     BMI  $9D39
 9D36  4C E0 9D  JMP  $9DE0
 9D39  70 22     BVS  $9D5D
 9D3B  A9 01     LDA  #$01
 9D3D  24 27     BIT  $27
 9D3F  D0 10     BNE  $9D51
 9D41  E6 27     INC  $27
 9D43  B2 24     LDA  ($24)
 9D45  20 13 9B  JSR  $9B13
 9D48  0A        ASL  
 9D49  0A        ASL  
 9D4A  0A        ASL  
 9D4B  0A        ASL  
 9D4C  85 28     STA  $28
 9D4E  4C F1 9D  JMP  $9DF1
 9D51  64 27     STZ  $27
 9D53  B2 24     LDA  ($24)
 9D55  20 13 9B  JSR  $9B13
 9D58  05 28     ORA  $28
 9D5A  4C EE 9D  JMP  $9DEE
 9D5D  64 27     STZ  $27
 9D5F  C9 61     CMP  #$61
 9D61  D0 05     BNE  $9D68
 9D63  A9 07     LDA  #$07
 9D65  4C EE 9D  JMP  $9DEE
 9D68  C9 62     CMP  #$62
 9D6A  D0 05     BNE  $9D71
 9D6C  A9 08     LDA  #$08
 9D6E  4C EE 9D  JMP  $9DEE
 9D71  C9 65     CMP  #$65
 9D73  D0 04     BNE  $9D79
 9D75  A9 1B     LDA  #$1B
 9D77  80 75     BRA  $9DEE
 9D79  C9 66     CMP  #$66
 9D7B  D0 04     BNE  $9D81
 9D7D  A9 0C     LDA  #$0C
 9D7F  80 6D     BRA  $9DEE
 9D81  C9 6C     CMP  #$6C
 9D83  D0 04     BNE  $9D89
 9D85  A9 0A     LDA  #$0A
 9D87  80 65     BRA  $9DEE
 9D89  C9 6D     CMP  #$6D
 9D8B  D0 09     BNE  $9D96
 9D8D  A9 0D     LDA  #$0D
 9D8F  20 AC D4  JSR  $D4AC
 9D92  A9 0A     LDA  #$0A
 9D94  80 58     BRA  $9DEE
 9D96  C9 6E     CMP  #$6E
 9D98  D0 04     BNE  $9D9E
 9D9A  A9 0A     LDA  #$0A
 9D9C  80 50     BRA  $9DEE
 9D9E  C9 71     CMP  #$71
 9DA0  D0 04     BNE  $9DA6
 9DA2  A9 22     LDA  #$22
 9DA4  80 48     BRA  $9DEE
 9DA6  C9 72     CMP  #$72
 9DA8  D0 04     BNE  $9DAE
 9DAA  A9 0D     LDA  #$0D
 9DAC  80 40     BRA  $9DEE
 9DAE  C9 74     CMP  #$74
 9DB0  D0 04     BNE  $9DB6
 9DB2  A9 09     LDA  #$09
 9DB4  80 38     BRA  $9DEE
 9DB6  C9 76     CMP  #$76
 9DB8  D0 04     BNE  $9DBE
 9DBA  A9 0B     LDA  #$0B
 9DBC  80 30     BRA  $9DEE
 9DBE  C9 7A     CMP  #$7A
 9DC0  D0 04     BNE  $9DC6
 9DC2  A9 00     LDA  #$00
 9DC4  80 28     BRA  $9DEE
 9DC6  C9 22     CMP  #$22
 9DC8  D0 04     BNE  $9DCE
 9DCA  A9 22     LDA  #$22
 9DCC  80 20     BRA  $9DEE
 9DCE  C9 78     CMP  #$78
 9DD0  D0 06     BNE  $9DD8
 9DD2  A9 BE     LDA  #$BE
 9DD4  85 27     STA  $27
 9DD6  80 19     BRA  $9DF1
 9DD8  C9 5C     CMP  #$5C
 9DDA  D0 04     BNE  $9DE0
 9DDC  A9 5C     LDA  #$5C
 9DDE  80 0E     BRA  $9DEE
 9DE0  C9 5C     CMP  #$5C
 9DE2  D0 06     BNE  $9DEA
 9DE4  A9 FF     LDA  #$FF
 9DE6  85 27     STA  $27
 9DE8  80 07     BRA  $9DF1
 9DEA  C9 22     CMP  #$22
 9DEC  F0 0C     BEQ  $9DFA
 9DEE  20 AC D4  JSR  $D4AC
 9DF1  E6 0C     INC  $0C
 9DF3  D0 02     BNE  $9DF7
 9DF5  E6 0D     INC  $0D
 9DF7  4C EC 9C  JMP  $9CEC
 9DFA  E6 0C     INC  $0C
 9DFC  D0 02     BNE  $9E00
 9DFE  E6 0D     INC  $0D
 9E00  A5 00     LDA  $00
 9E02  38        SEC  
 9E03  F5 02     SBC  $02, X
 9E05  95 00     STA  $00, X
 9E07  A5 01     LDA  $01
 9E09  F5 03     SBC  $03, X
 9E0B  95 01     STA  $01, X
 9E0D  B5 02     LDA  $02, X
 9E0F  38        SEC  
 9E10  E9 02     SBC  #$02
 9E12  85 24     STA  $24
 9E14  B5 03     LDA  $03, X
 9E16  E9 00     SBC  #$00
 9E18  85 25     STA  $25
 9E1A  A5 00     LDA  $00
 9E1C  92 24     STA  ($24)
 9E1E  A0 01     LDY  #$01
 9E20  A5 01     LDA  $01
 9E22  91 24     STA  ($24), Y
 9E24  A5 16     LDA  $16
 9E26  05 17     ORA  $17
 9E28  F0 03     BEQ  $9E2D
 9E2A  20 11 A0  JSR  $A011
 9E2D  60        RTS  
 9E2E  20 F9 D5  JSR  $D5F9
 9E31  CA        DEX  
 9E32  CA        DEX  
 9E33  74 00     STZ  $00, X
 9E35  74 01     STZ  $01, X
 9E37  B5 03     LDA  $03, X
 9E39  10 04     BPL  $9E3F
 9E3B  D6 00     DEC  $00, X
 9E3D  D6 01     DEC  $01, X
 9E3F  60        RTS  
 9E40  A0 2C     LDY  #$2C
 9E42  B1 1E     LDA  ($1E), Y
 9E44  C9 03     CMP  #$03
 9E46  D0 12     BNE  $9E5A
 9E48  20 A3 83  JSR  $83A3
 9E4B  20 95 85  JSR  $8595
 9E4E  20 70 8F  JSR  $8F70
 9E51  20 50 85  JSR  $8550
 9E54  A9 01     LDA  #$01
 9E56  A0 2C     LDY  #$2C
 9E58  91 1E     STA  ($1E), Y
 9E5A  60        RTS  
 9E5B  CA        DEX  
 9E5C  CA        DEX  
 9E5D  18        CLC  
 9E5E  A5 1E     LDA  $1E
 9E60  69 02     ADC  #$02
 9E62  95 00     STA  $00, X
 9E64  A5 1F     LDA  $1F
 9E66  69 00     ADC  #$00
 9E68  95 01     STA  $01, X
 9E6A  60        RTS  
 9E6B  20 08 D6  JSR  $D608
 9E6E  B5 00     LDA  $00, X
 9E70  15 01     ORA  $01, X
 9E72  D0 0B     BNE  $9E7F
 9E74  E8        INX  
 9E75  E8        INX  
 9E76  A9 FF     LDA  #$FF
 9E78  95 00     STA  $00, X
 9E7A  95 01     STA  $01, X
 9E7C  4C 09 9F  JMP  $9F09
 9E7F  20 23 A7  JSR  $A723
 9E82  18        CLC  
 9E83  B5 00     LDA  $00, X
 9E85  75 02     ADC  $02, X
 9E87  85 24     STA  $24
 9E89  B5 01     LDA  $01, X
 9E8B  75 03     ADC  $03, X
 9E8D  D5 07     CMP  $07, X
 9E8F  90 12     BCC  $9EA3
 9E91  D0 06     BNE  $9E99
 9E93  B5 06     LDA  $06, X
 9E95  C5 24     CMP  $24
 9E97  B0 0A     BCS  $9EA3
 9E99  E8        INX  
 9E9A  E8        INX  
 9E9B  E8        INX  
 9E9C  E8        INX  
 9E9D  74 00     STZ  $00, X
 9E9F  74 01     STZ  $01, X
 9EA1  80 66     BRA  $9F09
 9EA3  18        CLC  
 9EA4  B5 08     LDA  $08, X
 9EA6  75 00     ADC  $00, X
 9EA8  85 24     STA  $24
 9EAA  B5 09     LDA  $09, X
 9EAC  75 01     ADC  $01, X
 9EAE  85 25     STA  $25
 9EB0  B5 04     LDA  $04, X
 9EB2  85 26     STA  $26
 9EB4  B5 05     LDA  $05, X
 9EB6  85 27     STA  $27
 9EB8  B5 02     LDA  $02, X
 9EBA  85 28     STA  $28
 9EBC  B5 03     LDA  $03, X
 9EBE  85 29     STA  $29
 9EC0  B2 24     LDA  ($24)
 9EC2  D2 26     CMP  ($26)
 9EC4  F0 05     BEQ  $9ECB
 9EC6  20 9F 97  JSR  $979F
 9EC9  80 B7     BRA  $9E82
 9ECB  E6 24     INC  $24
 9ECD  D0 02     BNE  $9ED1
 9ECF  E6 25     INC  $25
 9ED1  E6 26     INC  $26
 9ED3  D0 02     BNE  $9ED7
 9ED5  E6 27     INC  $27
 9ED7  A5 28     LDA  $28
 9ED9  D0 02     BNE  $9EDD
 9EDB  C6 29     DEC  $29
 9EDD  C6 28     DEC  $28
 9EDF  A5 28     LDA  $28
 9EE1  05 29     ORA  $29
 9EE3  D0 DB     BNE  $9EC0
 9EE5  18        CLC  
 9EE6  B5 00     LDA  $00, X
 9EE8  75 08     ADC  $08, X
 9EEA  95 08     STA  $08, X
 9EEC  B5 01     LDA  $01, X
 9EEE  75 09     ADC  $09, X
 9EF0  95 09     STA  $09, X
 9EF2  38        SEC  
 9EF3  B5 06     LDA  $06, X
 9EF5  F5 00     SBC  $00, X
 9EF7  95 06     STA  $06, X
 9EF9  B5 07     LDA  $07, X
 9EFB  F5 01     SBC  $01, X
 9EFD  95 07     STA  $07, X
 9EFF  E8        INX  
 9F00  E8        INX  
 9F01  E8        INX  
 9F02  E8        INX  
 9F03  A9 FF     LDA  #$FF
 9F05  95 00     STA  $00, X
 9F07  95 01     STA  $01, X
 9F09  60        RTS  
 9F0A  24 20     BIT  $20
 9F0C  70 11     BVS  $9F1F
 9F0E  A9 60     LDA  #$60
 9F10  20 AC D4  JSR  $D4AC
 9F13  CA        DEX  
 9F14  CA        DEX  
 9F15  A5 04     LDA  $04
 9F17  95 00     STA  $00, X
 9F19  A5 05     LDA  $05
 9F1B  95 01     STA  $01, X
 9F1D  80 45     BRA  $9F64
 9F1F  A0 06     LDY  #$06
 9F21  A5 00     LDA  $00
 9F23  91 04     STA  ($04), Y
 9F25  C8        INY  
 9F26  A5 01     LDA  $01
 9F28  91 04     STA  ($04), Y
 9F2A  A9 60     LDA  #$60
 9F2C  20 AC D4  JSR  $D4AC
 9F2F  24 20     BIT  $20
 9F31  10 26     BPL  $9F59
 9F33  CA        DEX  
 9F34  CA        DEX  
 9F35  CA        DEX  
 9F36  CA        DEX  
 9F37  B2 04     LDA  ($04)
 9F39  95 00     STA  $00, X
 9F3B  74 01     STZ  $01, X
 9F3D  A5 04     LDA  $04
 9F3F  18        CLC  
 9F40  69 08     ADC  #$08
 9F42  95 02     STA  $02, X
 9F44  A5 05     LDA  $05
 9F46  69 00     ADC  #$00
 9F48  95 03     STA  $03, X
 9F4A  A9 02     LDA  #$02
 9F4C  20 25 D6  JSR  $D625
 9F4F  20 7F A4  JSR  $A47F
 9F52  20 A0 A0  JSR  $A0A0
 9F55  A9 80     LDA  #$80
 9F57  14 20     TRB  $20
 9F59  A5 04     LDA  $04
 9F5B  85 02     STA  $02
 9F5D  A5 05     LDA  $05
 9F5F  85 03     STA  $03
 9F61  20 4E D5  JSR  $D54E
 9F64  64 16     STZ  $16
 9F66  64 17     STZ  $17
 9F68  60        RTS  
 9F69  20 F9 D5  JSR  $D5F9
 9F6C  B5 01     LDA  $01, X
 9F6E  30 04     BMI  $9F74
 9F70  E8        INX  
 9F71  E8        INX  
 9F72  80 09     BRA  $9F7D
 9F74  A9 2D     LDA  #$2D
 9F76  95 00     STA  $00, X
 9F78  74 01     STZ  $01, X
 9F7A  20 C7 91  JSR  $91C7
 9F7D  60        RTS  
 9F7E  A9 00     LDA  #$00
 9F80  48        PHA  
 9F81  80 03     BRA  $9F86
 9F83  A9 FF     LDA  #$FF
 9F85  48        PHA  
 9F86  20 EC A2  JSR  $A2EC
 9F89  20 2E 9E  JSR  $9E2E
 9F8C  20 14 9A  JSR  $9A14
 9F8F  20 57 A0  JSR  $A057
 9F92  68        PLA  
 9F93  D0 05     BNE  $9F9A
 9F95  20 2A A1  JSR  $A12A
 9F98  E8        INX  
 9F99  E8        INX  
 9F9A  60        RTS  
 9F9B  20 03 D6  JSR  $D603
 9F9E  18        CLC  
 9F9F  B5 00     LDA  $00, X
 9FA1  75 04     ADC  $04, X
 9FA3  95 04     STA  $04, X
 9FA5  B5 01     LDA  $01, X
 9FA7  75 05     ADC  $05, X
 9FA9  95 05     STA  $05, X
 9FAB  38        SEC  
 9FAC  B5 02     LDA  $02, X
 9FAE  F5 00     SBC  $00, X
 9FB0  95 02     STA  $02, X
 9FB2  B5 03     LDA  $03, X
 9FB4  F5 01     SBC  $01, X
 9FB6  95 03     STA  $03, X
 9FB8  E8        INX  
 9FB9  E8        INX  
 9FBA  60        RTS  
 9FBB  20 FE D5  JSR  $D5FE
 9FBE  A9 4C     LDA  #$4C
 9FC0  20 AC D4  JSR  $D4AC
 9FC3  20 AC D4  JSR  $D4AC
 9FC6  20 AC D4  JSR  $D4AC
 9FC9  8A        TXA  
 9FCA  38        SEC  
 9FCB  E9 06     SBC  #$06
 9FCD  AA        TAX  
 9FCE  B5 08     LDA  $08, X
 9FD0  95 04     STA  $04, X
 9FD2  B5 09     LDA  $09, X
 9FD4  95 05     STA  $05, X
 9FD6  B5 06     LDA  $06, X
 9FD8  95 00     STA  $00, X
 9FDA  B5 07     LDA  $07, X
 9FDC  95 01     STA  $01, X
 9FDE  A5 00     LDA  $00
 9FE0  95 08     STA  $08, X
 9FE2  95 02     STA  $02, X
 9FE4  A5 01     LDA  $01
 9FE6  95 09     STA  $09, X
 9FE8  95 03     STA  $03, X
 9FEA  20 B2 95  JSR  $95B2
 9FED  18        CLC  
 9FEE  A5 00     LDA  $00
 9FF0  75 00     ADC  $00, X
 9FF2  85 00     STA  $00
 9FF4  A5 01     LDA  $01
 9FF6  75 01     ADC  $01, X
 9FF8  85 01     STA  $01
 9FFA  B5 02     LDA  $02, X
 9FFC  38        SEC  
 9FFD  E9 02     SBC  #$02
 9FFF  85 24     STA  $24
 A001  B5 03     LDA  $03, X
 A003  E9 00     SBC  #$00
 A005  85 25     STA  $25
 A007  A5 00     LDA  $00
 A009  92 24     STA  ($24)
 A00B  A0 01     LDY  #$01
 A00D  A5 01     LDA  $01
 A00F  91 24     STA  ($24), Y
 A011  A0 A0     LDY  #$A0
 A013  A9 2B     LDA  #$2B
 A015  20 9C D4  JSR  $D49C
 A018  B4 03     LDY  $03, X
 A01A  B5 02     LDA  $02, X
 A01C  20 A8 D4  JSR  $D4A8
 A01F  B4 01     LDY  $01, X
 A021  B5 00     LDA  $00, X
 A023  20 A8 D4  JSR  $D4A8
 A026  E8        INX  
 A027  E8        INX  
 A028  E8        INX  
 A029  E8        INX  
 A02A  60        RTS  
 A02B  CA        DEX  
 A02C  CA        DEX  
 A02D  CA        DEX  
 A02E  CA        DEX  
 A02F  68        PLA  
 A030  85 24     STA  $24
 A032  68        PLA  
 A033  85 25     STA  $25
 A035  A0 01     LDY  #$01
 A037  B1 24     LDA  ($24), Y
 A039  95 02     STA  $02, X
 A03B  C8        INY  
 A03C  B1 24     LDA  ($24), Y
 A03E  95 03     STA  $03, X
 A040  C8        INY  
 A041  B1 24     LDA  ($24), Y
 A043  95 00     STA  $00, X
 A045  C8        INY  
 A046  B1 24     LDA  ($24), Y
 A048  95 01     STA  $01, X
 A04A  18        CLC  
 A04B  A5 24     LDA  $24
 A04D  69 04     ADC  #$04
 A04F  A8        TAY  
 A050  A5 25     LDA  $25
 A052  69 00     ADC  #$00
 A054  48        PHA  
 A055  5A        PHY  
 A056  60        RTS  
 A057  20 03 D6  JSR  $D603
 A05A  B5 03     LDA  $03, X
 A05C  48        PHA  
 A05D  B5 01     LDA  $01, X
 A05F  55 03     EOR  $03, X
 A061  48        PHA  
 A062  20 39 81  JSR  $8139
 A065  E8        INX  
 A066  E8        INX  
 A067  20 76 8A  JSR  $8A76
 A06A  CA        DEX  
 A06B  CA        DEX  
 A06C  20 36 A5  JSR  $A536
 A06F  68        PLA  
 A070  10 03     BPL  $A075
 A072  20 13 96  JSR  $9613
 A075  68        PLA  
 A076  10 07     BPL  $A07F
 A078  E8        INX  
 A079  E8        INX  
 A07A  20 13 96  JSR  $9613
 A07D  CA        DEX  
 A07E  CA        DEX  
 A07F  60        RTS  
 A080  CA        DEX  
 A081  CA        DEX  
 A082  A5 08     LDA  $08
 A084  95 00     STA  $00, X
 A086  A5 09     LDA  $09
 A088  95 01     STA  $01, X
 A08A  CA        DEX  
 A08B  CA        DEX  
 A08C  A5 0A     LDA  $0A
 A08E  95 00     STA  $00, X
 A090  A5 0B     LDA  $0B
 A092  95 01     STA  $01, X
 A094  60        RTS  
 A095  CA        DEX  
 A096  CA        DEX  
 A097  A5 06     LDA  $06
 A099  95 00     STA  $00, X
 A09B  A5 07     LDA  $07
 A09D  95 01     STA  $01, X
 A09F  60        RTS  
 A0A0  A9 20     LDA  #$20
 A0A2  20 E6 8D  JSR  $8DE6
 A0A5  60        RTS  
 A0A6  20 F9 D5  JSR  $D5F9
 A0A9  B5 00     LDA  $00, X
 A0AB  15 01     ORA  $01, X
 A0AD  F0 2A     BEQ  $A0D9
 A0AF  B4 01     LDY  $01, X
 A0B1  D0 0C     BNE  $A0BF
 A0B3  B4 00     LDY  $00, X
 A0B5  A9 20     LDA  #$20
 A0B7  20 E6 8D  JSR  $8DE6
 A0BA  88        DEY  
 A0BB  F0 1C     BEQ  $A0D9
 A0BD  80 F6     BRA  $A0B5
 A0BF  B4 00     LDY  $00, X
 A0C1  F0 08     BEQ  $A0CB
 A0C3  A9 20     LDA  #$20
 A0C5  20 E6 8D  JSR  $8DE6
 A0C8  88        DEY  
 A0C9  80 F6     BRA  $A0C1
 A0CB  A0 00     LDY  #$00
 A0CD  A9 20     LDA  #$20
 A0CF  20 E6 8D  JSR  $8DE6
 A0D2  88        DEY  
 A0D3  D0 F8     BNE  $A0CD
 A0D5  D6 01     DEC  $01, X
 A0D7  D0 F2     BNE  $A0CB
 A0D9  E8        INX  
 A0DA  E8        INX  
 A0DB  60        RTS  
 A0DC  20 FE D5  JSR  $D5FE
 A0DF  20 78 A5  JSR  $A578
 A0E2  E8        INX  
 A0E3  E8        INX  
 A0E4  60        RTS  
 A0E5  20 EE A0  JSR  $A0EE
 A0E8  20 2A A1  JSR  $A12A
 A0EB  E8        INX  
 A0EC  E8        INX  
 A0ED  60        RTS  
 A0EE  20 03 D6  JSR  $D603
 A0F1  20 EC A2  JSR  $A2EC
 A0F4  20 7E 94  JSR  $947E
 A0F7  20 14 9A  JSR  $9A14
 A0FA  20 57 A0  JSR  $A057
 A0FD  60        RTS  
 A0FE  CA        DEX  
 A0FF  CA        DEX  
 A100  A9 16     LDA  #$16
 A102  95 00     STA  $00, X
 A104  A9 00     LDA  #$00
 A106  95 01     STA  $01, X
 A108  60        RTS  
 A109  20 FE D5  JSR  $D5FE
 A10C  B5 02     LDA  $02, X
 A10E  81 00     STA  ($00, X)
 A110  F6 00     INC  $00, X
 A112  D0 02     BNE  $A116
 A114  F6 01     INC  $01, X
 A116  B5 03     LDA  $03, X
 A118  81 00     STA  ($00, X)
 A11A  E8        INX  
 A11B  E8        INX  
 A11C  E8        INX  
 A11D  E8        INX  
 A11E  60        RTS  
 A11F  CA        DEX  
 A120  CA        DEX  
 A121  A9 1C     LDA  #$1C
 A123  95 00     STA  $00, X
 A125  A9 00     LDA  #$00
 A127  95 01     STA  $01, X
 A129  60        RTS  
 A12A  20 FE D5  JSR  $D5FE
 A12D  B5 00     LDA  $00, X
 A12F  B4 02     LDY  $02, X
 A131  95 02     STA  $02, X
 A133  94 00     STY  $00, X
 A135  B5 01     LDA  $01, X
 A137  B4 03     LDY  $03, X
 A139  95 03     STA  $03, X
 A13B  94 01     STY  $01, X
 A13D  60        RTS  
 A13E  20 62 91  JSR  $9162
 A141  20 2A A1  JSR  $A12A
 A144  20 09 A1  JSR  $A109
 A147  60        RTS  
 A148  20 FE D5  JSR  $D5FE
 A14B  B5 01     LDA  $01, X
 A14D  48        PHA  
 A14E  B5 00     LDA  $00, X
 A150  48        PHA  
 A151  E8        INX  
 A152  E8        INX  
 A153  B5 01     LDA  $01, X
 A155  48        PHA  
 A156  B5 00     LDA  $00, X
 A158  48        PHA  
 A159  20 A7 93  JSR  $93A7
 A15C  68        PLA  
 A15D  85 24     STA  $24
 A15F  68        PLA  
 A160  85 25     STA  $25
 A162  68        PLA  
 A163  85 26     STA  $26
 A165  68        PLA  
 A166  85 27     STA  $27
 A168  C5 25     CMP  $25
 A16A  D0 08     BNE  $A174
 A16C  A5 26     LDA  $26
 A16E  C5 24     CMP  $24
 A170  D0 02     BNE  $A174
 A172  80 18     BRA  $A18C
 A174  A5 27     LDA  $27
 A176  48        PHA  
 A177  A5 26     LDA  $26
 A179  48        PHA  
 A17A  E6 24     INC  $24
 A17C  D0 02     BNE  $A180
 A17E  E6 25     INC  $25
 A180  CA        DEX  
 A181  CA        DEX  
 A182  A5 24     LDA  $24
 A184  95 00     STA  $00, X
 A186  A5 25     LDA  $25
 A188  95 01     STA  $01, X
 A18A  80 C7     BRA  $A153
 A18C  60        RTS  
 A18D  20 61 98  JSR  $9861
 A190  B5 00     LDA  $00, X
 A192  15 01     ORA  $01, X
 A194  D0 05     BNE  $A19B
 A196  A9 05     LDA  #$05
 A198  4C 0F D6  JMP  $D60F
 A19B  20 CB 8F  JSR  $8FCB
 A19E  B5 00     LDA  $00, X
 A1A0  15 01     ORA  $01, X
 A1A2  D0 05     BNE  $A1A9
 A1A4  A9 08     LDA  #$08
 A1A6  4C 0F D6  JMP  $D60F
 A1A9  20 D1 95  JSR  $95D1
 A1AC  60        RTS  
 A1AD  20 8D A1  JSR  $A18D
 A1B0  B5 00     LDA  $00, X
 A1B2  18        CLC  
 A1B3  69 03     ADC  #$03
 A1B5  85 24     STA  $24
 A1B7  B5 01     LDA  $01, X
 A1B9  69 00     ADC  #$00
 A1BB  85 25     STA  $25
 A1BD  E8        INX  
 A1BE  E8        INX  
 A1BF  A5 16     LDA  $16
 A1C1  05 17     ORA  $17
 A1C3  F0 34     BEQ  $A1F9
 A1C5  A0 00     LDY  #$00
 A1C7  A9 B5     LDA  #$B5
 A1C9  20 A8 D4  JSR  $D4A8
 A1CC  A9 8D     LDA  #$8D
 A1CE  20 AC D4  JSR  $D4AC
 A1D1  A4 25     LDY  $25
 A1D3  A5 24     LDA  $24
 A1D5  20 A8 D4  JSR  $D4A8
 A1D8  A0 01     LDY  #$01
 A1DA  A9 B5     LDA  #$B5
 A1DC  20 A8 D4  JSR  $D4A8
 A1DF  A9 8D     LDA  #$8D
 A1E1  20 AC D4  JSR  $D4AC
 A1E4  E6 24     INC  $24
 A1E6  D0 02     BNE  $A1EA
 A1E8  E6 25     INC  $25
 A1EA  A4 25     LDY  $25
 A1EC  A5 24     LDA  $24
 A1EE  20 A8 D4  JSR  $D4A8
 A1F1  A0 E8     LDY  #$E8
 A1F3  98        TYA  
 A1F4  20 A8 D4  JSR  $D4A8
 A1F7  80 0F     BRA  $A208
 A1F9  20 F9 D5  JSR  $D5F9
 A1FC  B5 00     LDA  $00, X
 A1FE  92 24     STA  ($24)
 A200  A0 01     LDY  #$01
 A202  B5 01     LDA  $01, X
 A204  91 24     STA  ($24), Y
 A206  E8        INX  
 A207  E8        INX  
 A208  60        RTS  
 A209  20 F9 D5  JSR  $D5F9
 A20C  20 9F 8D  JSR  $8D9F
 A20F  20 68 92  JSR  $9268
 A212  F6 00     INC  $00, X
 A214  D0 02     BNE  $A218
 A216  F6 01     INC  $01, X
 A218  A1 00     LDA  ($00, X)
 A21A  29 20     AND  #$20
 A21C  F0 0D     BEQ  $A22B
 A21E  18        CLC  
 A21F  B5 02     LDA  $02, X
 A221  69 03     ADC  #$03
 A223  95 02     STA  $02, X
 A225  B5 03     LDA  $03, X
 A227  69 00     ADC  #$00
 A229  95 03     STA  $03, X
 A22B  E8        INX  
 A22C  E8        INX  
 A22D  60        RTS  
 A22E  CA        DEX  
 A22F  CA        DEX  
 A230  A9 0C     LDA  #$0C
 A232  95 00     STA  $00, X
 A234  A9 00     LDA  #$00
 A236  95 01     STA  $01, X
 A238  60        RTS  
 A239  20 08 D6  JSR  $D608
 A23C  B5 06     LDA  $06, X
 A23E  85 36     STA  $36
 A240  B5 07     LDA  $07, X
 A242  85 37     STA  $37
 A244  B5 04     LDA  $04, X
 A246  85 38     STA  $38
 A248  B5 05     LDA  $05, X
 A24A  85 39     STA  $39
 A24C  CA        DEX  
 A24D  CA        DEX  
 A24E  A1 04     LDA  ($04, X)
 A250  95 00     STA  $00, X
 A252  74 01     STZ  $01, X
 A254  20 F5 8A  JSR  $8AF5
 A257  B5 00     LDA  $00, X
 A259  D0 04     BNE  $A25F
 A25B  E8        INX  
 A25C  E8        INX  
 A25D  80 67     BRA  $A2C6
 A25F  B5 02     LDA  $02, X
 A261  85 3A     STA  $3A
 A263  B5 03     LDA  $03, X
 A265  85 3B     STA  $3B
 A267  A5 38     LDA  $38
 A269  95 02     STA  $02, X
 A26B  A5 39     LDA  $39
 A26D  95 03     STA  $03, X
 A26F  A5 18     LDA  $18
 A271  95 00     STA  $00, X
 A273  74 01     STZ  $01, X
 A275  20 78 A5  JSR  $A578
 A278  B5 02     LDA  $02, X
 A27A  85 3C     STA  $3C
 A27C  B5 03     LDA  $03, X
 A27E  85 3D     STA  $3D
 A280  A5 36     LDA  $36
 A282  95 02     STA  $02, X
 A284  A5 37     LDA  $37
 A286  95 03     STA  $03, X
 A288  A5 18     LDA  $18
 A28A  95 00     STA  $00, X
 A28C  74 01     STZ  $01, X
 A28E  20 78 A5  JSR  $A578
 A291  B5 00     LDA  $00, X
 A293  85 38     STA  $38
 A295  B5 01     LDA  $01, X
 A297  85 39     STA  $39
 A299  B5 02     LDA  $02, X
 A29B  85 36     STA  $36
 A29D  B5 03     LDA  $03, X
 A29F  85 37     STA  $37
 A2A1  18        CLC  
 A2A2  A5 36     LDA  $36
 A2A4  65 3A     ADC  $3A
 A2A6  85 36     STA  $36
 A2A8  A5 37     LDA  $37
 A2AA  65 3B     ADC  $3B
 A2AC  85 37     STA  $37
 A2AE  A5 38     LDA  $38
 A2B0  65 3C     ADC  $3C
 A2B2  85 38     STA  $38
 A2B4  A5 39     LDA  $39
 A2B6  65 3D     ADC  $3D
 A2B8  85 39     STA  $39
 A2BA  E8        INX  
 A2BB  E8        INX  
 A2BC  F6 04     INC  $04, X
 A2BE  D0 02     BNE  $A2C2
 A2C0  F6 05     INC  $05, X
 A2C2  D6 02     DEC  $02, X
 A2C4  D0 88     BNE  $A24E
 A2C6  E8        INX  
 A2C7  E8        INX  
 A2C8  A5 36     LDA  $36
 A2CA  95 06     STA  $06, X
 A2CC  A5 37     LDA  $37
 A2CE  95 07     STA  $07, X
 A2D0  A5 38     LDA  $38
 A2D2  95 04     STA  $04, X
 A2D4  A5 39     LDA  $39
 A2D6  95 05     STA  $05, X
 A2D8  60        RTS  
 A2D9  20 EC A2  JSR  $A2EC
 A2DC  20 24 91  JSR  $9124
 A2DF  20 14 9A  JSR  $9A14
 A2E2  20 2A A1  JSR  $A12A
 A2E5  20 9F 97  JSR  $979F
 A2E8  20 9D 9C  JSR  $9C9D
 A2EB  60        RTS  
 A2EC  68        PLA  
 A2ED  85 2C     STA  $2C
 A2EF  7A        PLY  
 A2F0  20 F9 D5  JSR  $D5F9
 A2F3  B5 01     LDA  $01, X
 A2F5  48        PHA  
 A2F6  B5 00     LDA  $00, X
 A2F8  48        PHA  
 A2F9  E8        INX  
 A2FA  E8        INX  
 A2FB  5A        PHY  
 A2FC  A5 2C     LDA  $2C
 A2FE  48        PHA  
 A2FF  60        RTS  
 A300  CA        DEX  
 A301  CA        DEX  
 A302  A9 FF     LDA  #$FF
 A304  95 00     STA  $00, X
 A306  95 01     STA  $01, X
 A308  60        RTS  
 A309  20 FE D5  JSR  $D5FE
 A30C  CA        DEX  
 A30D  CA        DEX  
 A30E  B4 04     LDY  $04, X
 A310  B5 02     LDA  $02, X
 A312  95 04     STA  $04, X
 A314  94 02     STY  $02, X
 A316  95 00     STA  $00, X
 A318  B4 05     LDY  $05, X
 A31A  B5 03     LDA  $03, X
 A31C  95 05     STA  $05, X
 A31E  94 03     STY  $03, X
 A320  95 01     STA  $01, X
 A322  60        RTS  
 A323  CA        DEX  
 A324  CA        DEX  
 A325  A9 02     LDA  #$02
 A327  95 00     STA  $00, X
 A329  74 01     STZ  $01, X
 A32B  60        RTS  
 A32C  20 FE D5  JSR  $D5FE
 A32F  E8        INX  
 A330  E8        INX  
 A331  E8        INX  
 A332  E8        INX  
 A333  60        RTS  
 A334  20 FE D5  JSR  $D5FE
 A337  CA        DEX  
 A338  CA        DEX  
 A339  CA        DEX  
 A33A  CA        DEX  
 A33B  B5 04     LDA  $04, X
 A33D  95 00     STA  $00, X
 A33F  B5 05     LDA  $05, X
 A341  95 01     STA  $01, X
 A343  B5 06     LDA  $06, X
 A345  95 02     STA  $02, X
 A347  B5 07     LDA  $07, X
 A349  95 03     STA  $03, X
 A34B  60        RTS  
 A34C  20 F9 D5  JSR  $D5F9
 A34F  B5 00     LDA  $00, X
 A351  85 24     STA  $24
 A353  B4 01     LDY  $01, X
 A355  84 25     STY  $25
 A357  CA        DEX  
 A358  CA        DEX  
 A359  B2 24     LDA  ($24)
 A35B  95 00     STA  $00, X
 A35D  A0 01     LDY  #$01
 A35F  B1 24     LDA  ($24), Y
 A361  95 01     STA  $01, X
 A363  C8        INY  
 A364  B1 24     LDA  ($24), Y
 A366  95 02     STA  $02, X
 A368  C8        INY  
 A369  B1 24     LDA  ($24), Y
 A36B  95 03     STA  $03, X
 A36D  60        RTS  
 A36E  20 08 D6  JSR  $D608
 A371  CA        DEX  
 A372  CA        DEX  
 A373  CA        DEX  
 A374  CA        DEX  
 A375  B5 08     LDA  $08, X
 A377  95 00     STA  $00, X
 A379  B5 09     LDA  $09, X
 A37B  95 01     STA  $01, X
 A37D  B5 0A     LDA  $0A, X
 A37F  95 02     STA  $02, X
 A381  B5 0B     LDA  $0B, X
 A383  95 03     STA  $03, X
 A385  60        RTS  
 A386  CA        DEX  
 A387  CA        DEX  
 A388  CA        DEX  
 A389  CA        DEX  
 A38A  8A        TXA  
 A38B  BA        TSX  
 A38C  DA        PHX  
 A38D  7A        PLY  
 A38E  AA        TAX  
 A38F  B9 03 01  LDA  $0103, Y
 A392  95 00     STA  $00, X
 A394  B9 04 01  LDA  $0104, Y
 A397  95 01     STA  $01, X
 A399  B9 05 01  LDA  $0105, Y
 A39C  95 02     STA  $02, X
 A39E  B9 06 01  LDA  $0106, Y
 A3A1  95 03     STA  $03, X
 A3A3  60        RTS  
 A3A4  68        PLA  
 A3A5  85 24     STA  $24
 A3A7  68        PLA  
 A3A8  85 25     STA  $25
 A3AA  CA        DEX  
 A3AB  CA        DEX  
 A3AC  CA        DEX  
 A3AD  CA        DEX  
 A3AE  68        PLA  
 A3AF  95 00     STA  $00, X
 A3B1  68        PLA  
 A3B2  95 01     STA  $01, X
 A3B4  68        PLA  
 A3B5  95 02     STA  $02, X
 A3B7  68        PLA  
 A3B8  95 03     STA  $03, X
 A3BA  A5 25     LDA  $25
 A3BC  48        PHA  
 A3BD  A5 24     LDA  $24
 A3BF  48        PHA  
 A3C0  60        RTS  
 A3C1  20 F9 D5  JSR  $D5F9
 A3C4  B5 01     LDA  $01, X
 A3C6  0A        ASL  
 A3C7  76 01     ROR  $01, X
 A3C9  76 00     ROR  $00, X
 A3CB  60        RTS  
 A3CC  20 F9 D5  JSR  $D5F9
 A3CF  16 00     ASL  $00, X
 A3D1  36 01     ROL  $01, X
 A3D3  60        RTS  
 A3D4  20 03 D6  JSR  $D603
 A3D7  B5 00     LDA  $00, X
 A3D9  85 24     STA  $24
 A3DB  B4 01     LDY  $01, X
 A3DD  84 25     STY  $25
 A3DF  E8        INX  
 A3E0  E8        INX  
 A3E1  B5 00     LDA  $00, X
 A3E3  92 24     STA  ($24)
 A3E5  B5 01     LDA  $01, X
 A3E7  A0 01     LDY  #$01
 A3E9  91 24     STA  ($24), Y
 A3EB  B5 02     LDA  $02, X
 A3ED  C8        INY  
 A3EE  91 24     STA  ($24), Y
 A3F0  B5 03     LDA  $03, X
 A3F2  C8        INY  
 A3F3  91 24     STA  ($24), Y
 A3F5  E8        INX  
 A3F6  E8        INX  
 A3F7  E8        INX  
 A3F8  E8        INX  
 A3F9  60        RTS  
 A3FA  20 08 D6  JSR  $D608
 A3FD  B5 00     LDA  $00, X
 A3FF  B4 04     LDY  $04, X
 A401  95 04     STA  $04, X
 A403  94 00     STY  $00, X
 A405  B5 01     LDA  $01, X
 A407  B4 05     LDY  $05, X
 A409  95 05     STA  $05, X
 A40B  94 01     STY  $01, X
 A40D  B5 02     LDA  $02, X
 A40F  B4 06     LDY  $06, X
 A411  95 06     STA  $06, X
 A413  94 02     STY  $02, X
 A415  B5 03     LDA  $03, X
 A417  B4 07     LDY  $07, X
 A419  95 07     STA  $07, X
 A41B  94 03     STY  $03, X
 A41D  60        RTS  
 A41E  68        PLA  
 A41F  85 24     STA  $24
 A421  68        PLA  
 A422  85 25     STA  $25
 A424  20 FE D5  JSR  $D5FE
 A427  B5 03     LDA  $03, X
 A429  48        PHA  
 A42A  B5 02     LDA  $02, X
 A42C  48        PHA  
 A42D  B5 01     LDA  $01, X
 A42F  48        PHA  
 A430  B5 00     LDA  $00, X
 A432  48        PHA  
 A433  E8        INX  
 A434  E8        INX  
 A435  E8        INX  
 A436  E8        INX  
 A437  A5 25     LDA  $25
 A439  48        PHA  
 A43A  A5 24     LDA  $24
 A43C  48        PHA  
 A43D  60        RTS  
 A43E  20 FE D5  JSR  $D5FE
 A441  20 59 89  JSR  $8959
 A444  20 2A A1  JSR  $A12A
 A447  20 5E 87  JSR  $875E
 A44A  20 5E 87  JSR  $875E
 A44D  20 F4 8B  JSR  $8BF4
 A450  20 E2 D4  JSR  $D4E2
 A453  20 9F 8D  JSR  $8D9F
 A456  20 70 8F  JSR  $8F70
 A459  20 2A A1  JSR  $A12A
 A45C  20 11 86  JSR  $8611
 A45F  20 70 8F  JSR  $8F70
 A462  60        RTS  
 A463  20 FE D5  JSR  $D5FE
 A466  20 2A A1  JSR  $A12A
 A469  20 7A 93  JSR  $937A
 A46C  20 7A 93  JSR  $937A
 A46F  60        RTS  
 A470  20 59 89  JSR  $8959
 A473  CA        DEX  
 A474  CA        DEX  
 A475  A9 04     LDA  #$04
 A477  95 00     STA  $00, X
 A479  74 01     STZ  $01, X
 A47B  20 AB 82  JSR  $82AB
 A47E  60        RTS  
 A47F  20 FE D5  JSR  $D5FE
 A482  B5 02     LDA  $02, X
 A484  85 24     STA  $24
 A486  B5 03     LDA  $03, X
 A488  85 25     STA  $25
 A48A  B5 00     LDA  $00, X
 A48C  15 01     ORA  $01, X
 A48E  F0 15     BEQ  $A4A5
 A490  B2 24     LDA  ($24)
 A492  20 E6 8D  JSR  $8DE6
 A495  E6 24     INC  $24
 A497  D0 02     BNE  $A49B
 A499  E6 25     INC  $25
 A49B  B5 00     LDA  $00, X
 A49D  D0 02     BNE  $A4A1
 A49F  D6 01     DEC  $01, X
 A4A1  D6 00     DEC  $00, X
 A4A3  80 E5     BRA  $A48A
 A4A5  E8        INX  
 A4A6  E8        INX  
 A4A7  E8        INX  
 A4A8  E8        INX  
 A4A9  60        RTS  
 A4AA  20 F9 D5  JSR  $D5F9
 A4AD  20 45 D6  JSR  $D645
 A4B0  A9 20     LDA  #$20
 A4B2  20 E6 8D  JSR  $8DE6
 A4B5  60        RTS  
 A4B6  20 FE D5  JSR  $D5FE
 A4B9  20 EC A2  JSR  $A2EC
 A4BC  20 23 A7  JSR  $A723
 A4BF  20 4A 93  JSR  $934A
 A4C2  20 60 97  JSR  $9760
 A4C5  20 3E 97  JSR  $973E
 A4C8  20 14 9A  JSR  $9A14
 A4CB  20 15 98  JSR  $9815
 A4CE  20 40 95  JSR  $9540
 A4D1  20 A6 A0  JSR  $A0A6
 A4D4  20 7F A4  JSR  $A47F
 A4D7  60        RTS  
 A4D8  20 FE D5  JSR  $D5FE
 A4DB  B5 00     LDA  $00, X
 A4DD  D5 02     CMP  $02, X
 A4DF  B5 01     LDA  $01, X
 A4E1  F5 03     SBC  $03, X
 A4E3  E8        INX  
 A4E4  E8        INX  
 A4E5  A9 00     LDA  #$00
 A4E7  69 FF     ADC  #$FF
 A4E9  95 00     STA  $00, X
 A4EB  95 01     STA  $01, X
 A4ED  60        RTS  
 A4EE  20 FE D5  JSR  $D5FE
 A4F1  B5 02     LDA  $02, X
 A4F3  D5 00     CMP  $00, X
 A4F5  B5 03     LDA  $03, X
 A4F7  F5 01     SBC  $01, X
 A4F9  E8        INX  
 A4FA  E8        INX  
 A4FB  A9 00     LDA  #$00
 A4FD  69 FF     ADC  #$FF
 A4FF  95 00     STA  $00, X
 A501  95 01     STA  $01, X
 A503  60        RTS  
 A504  20 FE D5  JSR  $D5FE
 A507  20 4A 93  JSR  $934A
 A50A  20 60 97  JSR  $9760
 A50D  20 3E 97  JSR  $973E
 A510  20 7F A4  JSR  $A47F
 A513  20 A0 A0  JSR  $A0A0
 A516  60        RTS  
 A517  20 03 D6  JSR  $D603
 A51A  20 EC A2  JSR  $A2EC
 A51D  20 4A 93  JSR  $934A
 A520  20 60 97  JSR  $9760
 A523  20 3E 97  JSR  $973E
 A526  20 14 9A  JSR  $9A14
 A529  20 15 98  JSR  $9815
 A52C  20 40 95  JSR  $9540
 A52F  20 A6 A0  JSR  $A0A6
 A532  20 7F A4  JSR  $A47F
 A535  60        RTS  
 A536  20 03 D6  JSR  $D603
 A539  B5 00     LDA  $00, X
 A53B  15 01     ORA  $01, X
 A53D  D0 05     BNE  $A544
 A53F  A9 04     LDA  #$04
 A541  4C 0F D6  JMP  $D60F
 A544  A9 11     LDA  #$11
 A546  85 2C     STA  $2C
 A548  36 04     ROL  $04, X
 A54A  36 05     ROL  $05, X
 A54C  C6 2C     DEC  $2C
 A54E  F0 22     BEQ  $A572
 A550  36 02     ROL  $02, X
 A552  36 03     ROL  $03, X
 A554  64 24     STZ  $24
 A556  26 24     ROL  $24
 A558  38        SEC  
 A559  B5 02     LDA  $02, X
 A55B  F5 00     SBC  $00, X
 A55D  85 25     STA  $25
 A55F  B5 03     LDA  $03, X
 A561  F5 01     SBC  $01, X
 A563  A8        TAY  
 A564  A5 24     LDA  $24
 A566  E9 00     SBC  #$00
 A568  90 DE     BCC  $A548
 A56A  A5 25     LDA  $25
 A56C  95 02     STA  $02, X
 A56E  94 03     STY  $03, X
 A570  80 D6     BRA  $A548
 A572  E8        INX  
 A573  E8        INX  
 A574  20 2A A1  JSR  $A12A
 A577  60        RTS  
 A578  20 FE D5  JSR  $D5FE
 A57B  18        CLC  
 A57C  B5 00     LDA  $00, X
 A57E  E9 00     SBC  #$00
 A580  85 26     STA  $26
 A582  B5 01     LDA  $01, X
 A584  E9 00     SBC  #$00
 A586  90 31     BCC  $A5B9
 A588  85 27     STA  $27
 A58A  A9 00     LDA  #$00
 A58C  85 24     STA  $24
 A58E  86 28     STX  $28
 A590  CA        DEX  
 A591  CA        DEX  
 A592  A0 08     LDY  #$08
 A594  56 04     LSR  $04, X
 A596  90 0C     BCC  $A5A4
 A598  85 25     STA  $25
 A59A  A5 24     LDA  $24
 A59C  65 26     ADC  $26
 A59E  85 24     STA  $24
 A5A0  A5 25     LDA  $25
 A5A2  65 27     ADC  $27
 A5A4  6A        ROR  
 A5A5  66 24     ROR  $24
 A5A7  76 04     ROR  $04, X
 A5A9  88        DEY  
 A5AA  D0 EA     BNE  $A596
 A5AC  E8        INX  
 A5AD  E4 28     CPX  $28
 A5AF  D0 E1     BNE  $A592
 A5B1  95 01     STA  $01, X
 A5B3  A5 24     LDA  $24
 A5B5  95 00     STA  $00, X
 A5B7  80 04     BRA  $A5BD
 A5B9  74 02     STZ  $02, X
 A5BB  74 03     STZ  $03, X
 A5BD  60        RTS  
 A5BE  68        PLA  
 A5BF  68        PLA  
 A5C0  68        PLA  
 A5C1  68        PLA  
 A5C2  68        PLA  
 A5C3  68        PLA  
 A5C4  60        RTS  
 A5C5  A0 92     LDY  #$92
 A5C7  A9 04     LDA  #$04
 A5C9  20 9C D4  JSR  $D49C
 A5CC  20 5E 87  JSR  $875E
 A5CF  60        RTS  
 A5D0  CA        DEX  
 A5D1  CA        DEX  
 A5D2  A9 03     LDA  #$03
 A5D4  38        SEC  
 A5D5  E5 00     SBC  $00
 A5D7  95 00     STA  $00, X
 A5D9  A9 7A     LDA  #$7A
 A5DB  E5 01     SBC  $01
 A5DD  95 01     STA  $01, X
 A5DF  60        RTS  
 A5E0  A0 2C     LDY  #$2C
 A5E2  B1 1E     LDA  ($1E), Y
 A5E4  09 02     ORA  #$02
 A5E6  91 1E     STA  ($1E), Y
 A5E8  60        RTS  
 A5E9  CA        DEX  
 A5EA  CA        DEX  
 A5EB  A9 1E     LDA  #$1E
 A5ED  95 00     STA  $00, X
 A5EF  A9 00     LDA  #$00
 A5F1  95 01     STA  $01, X
 A5F3  60        RTS  
 A5F4  20 59 89  JSR  $8959
 A5F7  A9 00     LDA  #$00
 A5F9  92 00     STA  ($00)
 A5FB  E6 00     INC  $00
 A5FD  D0 02     BNE  $A601
 A5FF  E6 01     INC  $01
 A601  92 00     STA  ($00)
 A603  E6 00     INC  $00
 A605  D0 02     BNE  $A609
 A607  E6 01     INC  $01
 A609  20 21 89  JSR  $8921
 A60C  60        RTS  
 A60D  A0 92     LDY  #$92
 A60F  A9 04     LDA  #$04
 A611  20 9C D4  JSR  $D49C
 A614  20 62 91  JSR  $9162
 A617  20 23 A7  JSR  $A723
 A61A  20 5E 87  JSR  $875E
 A61D  20 2A A1  JSR  $A12A
 A620  60        RTS  
 A621  20 03 D6  JSR  $D603
 A624  20 15 98  JSR  $9815
 A627  20 40 95  JSR  $9540
 A62A  20 EC A2  JSR  $A2EC
 A62D  20 40 95  JSR  $9540
 A630  20 14 9A  JSR  $9A14
 A633  20 EE A4  JSR  $A4EE
 A636  60        RTS  
 A637  20 F9 D5  JSR  $D5F9
 A63A  A4 0C     LDY  $0C
 A63C  C4 0A     CPY  $0A
 A63E  F0 09     BEQ  $A649
 A640  B1 08     LDA  ($08), Y
 A642  D5 00     CMP  $00, X
 A644  D0 03     BNE  $A649
 A646  C8        INY  
 A647  80 F3     BRA  $A63C
 A649  84 0C     STY  $0C
 A64B  20 BC 98  JSR  $98BC
 A64E  B5 00     LDA  $00, X
 A650  92 00     STA  ($00)
 A652  48        PHA  
 A653  20 9F 8D  JSR  $8D9F
 A656  A5 00     LDA  $00
 A658  18        CLC  
 A659  69 01     ADC  #$01
 A65B  95 02     STA  $02, X
 A65D  A5 01     LDA  $01
 A65F  69 00     ADC  #$00
 A661  95 03     STA  $03, X
 A663  20 B2 95  JSR  $95B2
 A666  CA        DEX  
 A667  CA        DEX  
 A668  A5 00     LDA  $00
 A66A  95 00     STA  $00, X
 A66C  A5 01     LDA  $01
 A66E  95 01     STA  $01, X
 A670  68        PLA  
 A671  18        CLC  
 A672  65 00     ADC  $00
 A674  85 00     STA  $00
 A676  A5 01     LDA  $01
 A678  69 00     ADC  #$00
 A67A  85 01     STA  $01
 A67C  60        RTS  
 A67D  A0 05     LDY  #$05
 A67F  B1 1E     LDA  ($1E), Y
 A681  C9 0C     CMP  #$0C
 A683  D0 05     BNE  $A68A
 A685  A9 0B     LDA  #$0B
 A687  4C 0F D6  JMP  $D60F
 A68A  1A        INC  
 A68B  91 1E     STA  ($1E), Y
 A68D  CA        DEX  
 A68E  CA        DEX  
 A68F  95 00     STA  $00, X
 A691  74 01     STZ  $01, X
 A693  60        RTS  
 A694  20 53 89  JSR  $8953
 A697  A9 00     LDA  #$00
 A699  48        PHA  
 A69A  CA        DEX  
 A69B  CA        DEX  
 A69C  64 28     STZ  $28
 A69E  A0 1E     LDY  #$1E
 A6A0  A5 28     LDA  $28
 A6A2  D1 1E     CMP  ($1E), Y
 A6A4  D0 02     BNE  $A6A8
 A6A6  80 44     BRA  $A6EC
 A6A8  18        CLC  
 A6A9  69 1F     ADC  #$1F
 A6AB  A8        TAY  
 A6AC  B1 1E     LDA  ($1E), Y
 A6AE  0A        ASL  
 A6AF  18        CLC  
 A6B0  69 06     ADC  #$06
 A6B2  A8        TAY  
 A6B3  B1 1E     LDA  ($1E), Y
 A6B5  95 00     STA  $00, X
 A6B7  C8        INY  
 A6B8  B1 1E     LDA  ($1E), Y
 A6BA  95 01     STA  $01, X
 A6BC  20 9F 8D  JSR  $8D9F
 A6BF  20 EE 95  JSR  $95EE
 A6C2  68        PLA  
 A6C3  18        CLC  
 A6C4  75 00     ADC  $00, X
 A6C6  1A        INC  
 A6C7  C9 4F     CMP  #$4F
 A6C9  90 05     BCC  $A6D0
 A6CB  20 53 89  JSR  $8953
 A6CE  A9 00     LDA  #$00
 A6D0  48        PHA  
 A6D1  20 7F A4  JSR  $A47F
 A6D4  A9 20     LDA  #$20
 A6D6  20 E6 8D  JSR  $8DE6
 A6D9  20 9F 97  JSR  $979F
 A6DC  20 9F 97  JSR  $979F
 A6DF  20 70 8F  JSR  $8F70
 A6E2  B5 00     LDA  $00, X
 A6E4  15 01     ORA  $01, X
 A6E6  D0 D4     BNE  $A6BC
 A6E8  E6 28     INC  $28
 A6EA  80 B2     BRA  $A69E
 A6EC  68        PLA  
 A6ED  E8        INX  
 A6EE  E8        INX  
 A6EF  60        RTS  
 A6F0  20 F9 D5  JSR  $D5F9
 A6F3  B5 00     LDA  $00, X
 A6F5  85 24     STA  $24
 A6F7  B5 01     LDA  $01, X
 A6F9  85 25     STA  $25
 A6FB  A0 06     LDY  #$06
 A6FD  B1 24     LDA  ($24), Y
 A6FF  88        DEY  
 A700  88        DEY  
 A701  38        SEC  
 A702  F1 24     SBC  ($24), Y
 A704  95 00     STA  $00, X
 A706  A0 07     LDY  #$07
 A708  B1 24     LDA  ($24), Y
 A70A  88        DEY  
 A70B  88        DEY  
 A70C  F1 24     SBC  ($24), Y
 A70E  95 01     STA  $01, X
 A710  60        RTS  
 A711  20 FE D5  JSR  $D5FE
 A714  B5 00     LDA  $00, X
 A716  55 02     EOR  $02, X
 A718  95 02     STA  $02, X
 A71A  B5 01     LDA  $01, X
 A71C  55 03     EOR  $03, X
 A71E  95 03     STA  $03, X
 A720  E8        INX  
 A721  E8        INX  
 A722  60        RTS  
 A723  CA        DEX  
 A724  CA        DEX  
 A725  74 00     STZ  $00, X
 A727  74 01     STZ  $01, X
 A729  60        RTS  
 A72A  20 F9 D5  JSR  $D5F9
 A72D  B5 00     LDA  $00, X
 A72F  15 01     ORA  $01, X
 A731  F0 04     BEQ  $A737
 A733  A9 00     LDA  #$00
 A735  80 02     BRA  $A739
 A737  A9 FF     LDA  #$FF
 A739  95 00     STA  $00, X
 A73B  95 01     STA  $01, X
 A73D  60        RTS  
 A73E  20 F9 D5  JSR  $D5F9
 A741  A0 00     LDY  #$00
 A743  B5 01     LDA  $01, X
 A745  30 05     BMI  $A74C
 A747  15 00     ORA  $00, X
 A749  F0 01     BEQ  $A74C
 A74B  88        DEY  
 A74C  98        TYA  
 A74D  95 00     STA  $00, X
 A74F  95 01     STA  $01, X
 A751  60        RTS  
 A752  20 F9 D5  JSR  $D5F9
 A755  A0 00     LDY  #$00
 A757  B5 01     LDA  $01, X
 A759  10 01     BPL  $A75C
 A75B  88        DEY  
 A75C  98        TYA  
 A75D  95 00     STA  $00, X
 A75F  95 01     STA  $01, X
 A761  60        RTS  
 A762  20 F9 D5  JSR  $D5F9
 A765  A0 00     LDY  #$00
 A767  B5 00     LDA  $00, X
 A769  15 01     ORA  $01, X
 A76B  F0 01     BEQ  $A76E
 A76D  88        DEY  
 A76E  98        TYA  
 A76F  95 00     STA  $00, X
 A771  95 01     STA  $01, X
 A773  60        RTS  
 A774  20 9F 8D  JSR  $8D9F
 A777  20 5B 9E  JSR  $9E5B
 A77A  20 09 A1  JSR  $A109
 A77D  20 A5 85  JSR  $85A5
 A780  60        RTS  
 A781  20 74 A7  JSR  $A774
 A784  20 1E 8D  JSR  $8D1E
 A787  64 2E     STZ  $2E
 A789  CA        DEX  
 A78A  CA        DEX  
 A78B  A5 2E     LDA  $2E
 A78D  95 00     STA  $00, X
 A78F  74 01     STZ  $01, X
 A791  20 56 A8  JSR  $A856
 A794  E6 2E     INC  $2E
 A796  A9 10     LDA  #$10
 A798  C5 2E     CMP  $2E
 A79A  D0 ED     BNE  $A789
 A79C  60        RTS  
 A79D  20 74 A7  JSR  $A774
 A7A0  CA        DEX  
 A7A1  CA        DEX  
 A7A2  74 00     STZ  $00, X
 A7A4  A9 04     LDA  #$04
 A7A6  95 01     STA  $01, X
 A7A8  20 DA 8E  JSR  $8EDA
 A7AB  20 E0 A5  JSR  $A5E0
 A7AE  60        RTS  
 A7AF  20 3D A8  JSR  $A83D
 A7B2  CA        DEX  
 A7B3  CA        DEX  
 A7B4  A9 40     LDA  #$40
 A7B6  95 00     STA  $00, X
 A7B8  74 01     STZ  $01, X
 A7BA  20 DA 8E  JSR  $8EDA
 A7BD  20 E0 A5  JSR  $A5E0
 A7C0  60        RTS  
 A7C1  CA        DEX  
 A7C2  CA        DEX  
 A7C3  A0 02     LDY  #$02
 A7C5  B1 1E     LDA  ($1E), Y
 A7C7  95 00     STA  $00, X
 A7C9  C8        INY  
 A7CA  B1 1E     LDA  ($1E), Y
 A7CC  95 01     STA  $01, X
 A7CE  20 B1 83  JSR  $83B1
 A7D1  20 53 89  JSR  $8953
 A7D4  80 08     BRA  $A7DE
 A7D6  53 63 72 65 65 6E 20 23                          |Screen #        |
 A7DE  20 2B A0  JSR  $A02B
 A7E1  D6 A7 08 00                                      |....            |
 A7E5  20 7F A4  JSR  $A47F
 A7E8  20 5B 9E  JSR  $9E5B
 A7EB  20 70 8F  JSR  $8F70
 A7EE  CA        DEX  
 A7EF  CA        DEX  
 A7F0  A9 04     LDA  #$04
 A7F2  95 00     STA  $00, X
 A7F4  74 01     STZ  $01, X
 A7F6  20 B6 A4  JSR  $A4B6
 A7F9  64 28     STZ  $28
 A7FB  20 53 89  JSR  $8953
 A7FE  CA        DEX  
 A7FF  CA        DEX  
 A800  CA        DEX  
 A801  CA        DEX  
 A802  74 03     STZ  $03, X
 A804  A5 28     LDA  $28
 A806  95 02     STA  $02, X
 A808  74 01     STZ  $01, X
 A80A  A9 02     LDA  #$02
 A80C  95 00     STA  $00, X
 A80E  20 B6 A4  JSR  $A4B6
 A811  20 A0 A0  JSR  $A0A0
 A814  20 9F 8D  JSR  $8D9F
 A817  CA        DEX  
 A818  CA        DEX  
 A819  A9 40     LDA  #$40
 A81B  95 00     STA  $00, X
 A81D  74 01     STZ  $01, X
 A81F  20 7F A4  JSR  $A47F
 A822  18        CLC  
 A823  A9 40     LDA  #$40
 A825  75 00     ADC  $00, X
 A827  95 00     STA  $00, X
 A829  B5 01     LDA  $01, X
 A82B  69 00     ADC  #$00
 A82D  95 01     STA  $01, X
 A82F  E6 28     INC  $28
 A831  A5 28     LDA  $28
 A833  C9 10     CMP  #$10
 A835  D0 C4     BNE  $A7FB
 A837  20 53 89  JSR  $8953
 A83A  E8        INX  
 A83B  E8        INX  
 A83C  60        RTS  
 A83D  20 F9 D5  JSR  $D5F9
 A840  A0 06     LDY  #$06
 A842  16 00     ASL  $00, X
 A844  36 01     ROL  $01, X
 A846  88        DEY  
 A847  D0 F9     BNE  $A842
 A849  20 5B 9E  JSR  $9E5B
 A84C  20 70 8F  JSR  $8F70
 A84F  20 B1 83  JSR  $83B1
 A852  20 65 99  JSR  $9965
 A855  60        RTS  
 A856  20 53 89  JSR  $8953
 A859  20 9F 8D  JSR  $8D9F
 A85C  20 23 A3  JSR  $A323
 A85F  20 B6 A4  JSR  $A4B6
 A862  20 A0 A0  JSR  $A0A0
 A865  A9 2A     LDA  #$2A
 A867  20 E6 8D  JSR  $8DE6
 A86A  20 A0 A0  JSR  $A0A0
 A86D  20 3D A8  JSR  $A83D
 A870  20 9F 8D  JSR  $8D9F
 A873  CA        DEX  
 A874  CA        DEX  
 A875  A9 40     LDA  #$40
 A877  95 00     STA  $00, X
 A879  74 01     STZ  $01, X
 A87B  20 4E 81  JSR  $814E
 A87E  20 9F 8D  JSR  $8D9F
 A881  20 5E 96  JSR  $965E
 A884  20 65 99  JSR  $9965
 A887  CA        DEX  
 A888  CA        DEX  
 A889  A9 40     LDA  #$40
 A88B  95 00     STA  $00, X
 A88D  74 01     STZ  $01, X
 A88F  20 D9 9A  JSR  $9AD9
 A892  20 40 95  JSR  $9540
 A895  20 DA 8E  JSR  $8EDA
 A898  20 E0 A5  JSR  $A5E0
 A89B  60        RTS  
 A89C  20 F9 D5  JSR  $D5F9
 A89F  B5 00     LDA  $00, X
 A8A1  20 39 E5  JSR  $E539
 A8A4  60        RTS  
 A8A5  A9 69     LDA  #$69
 A8A7  4C 00 AC  JMP  $AC00
 A8AA  A9 7D     LDA  #$7D
 A8AC  4C 00 AC  JMP  $AC00
 A8AF  A9 79     LDA  #$79
 A8B1  4C 00 AC  JMP  $AC00
 A8B4  A9 65     LDA  #$65
 A8B6  4C 00 AC  JMP  $AC00
 A8B9  A9 72     LDA  #$72
 A8BB  4C 00 AC  JMP  $AC00
 A8BE  A9 71     LDA  #$71
 A8C0  4C 00 AC  JMP  $AC00
 A8C3  A9 75     LDA  #$75
 A8C5  4C 00 AC  JMP  $AC00
 A8C8  A9 61     LDA  #$61
 A8CA  4C 00 AC  JMP  $AC00
 A8CD  A9 2D     LDA  #$2D
 A8CF  4C 00 AC  JMP  $AC00
 A8D2  A9 29     LDA  #$29
 A8D4  4C 00 AC  JMP  $AC00
 A8D7  A9 3D     LDA  #$3D
 A8D9  4C 00 AC  JMP  $AC00
 A8DC  A9 39     LDA  #$39
 A8DE  4C 00 AC  JMP  $AC00
 A8E1  A9 25     LDA  #$25
 A8E3  4C 00 AC  JMP  $AC00
 A8E6  A9 32     LDA  #$32
 A8E8  4C 00 AC  JMP  $AC00
 A8EB  A9 31     LDA  #$31
 A8ED  4C 00 AC  JMP  $AC00
 A8F0  A9 35     LDA  #$35
 A8F2  4C 00 AC  JMP  $AC00
 A8F5  A9 21     LDA  #$21
 A8F7  4C 00 AC  JMP  $AC00
 A8FA  A9 0E     LDA  #$0E
 A8FC  4C 00 AC  JMP  $AC00
 A8FF  A9 0A     LDA  #$0A
 A901  4C 00 AC  JMP  $AC00
 A904  A9 1E     LDA  #$1E
 A906  4C 00 AC  JMP  $AC00
 A909  A9 06     LDA  #$06
 A90B  4C 00 AC  JMP  $AC00
 A90E  A9 16     LDA  #$16
 A910  4C 00 AC  JMP  $AC00
 A913  A9 90     LDA  #$90
 A915  4C 00 AC  JMP  $AC00
 A918  A9 B0     LDA  #$B0
 A91A  A0 02     LDY  #$02
 A91C  4C 00 AC  JMP  $AC00
 A91F  A9 F0     LDA  #$F0
 A921  4C 00 AC  JMP  $AC00
 A924  A9 2C     LDA  #$2C
 A926  4C 00 AC  JMP  $AC00
 A929  A9 89     LDA  #$89
 A92B  4C 00 AC  JMP  $AC00
 A92E  A9 3C     LDA  #$3C
 A930  4C 00 AC  JMP  $AC00
 A933  A9 24     LDA  #$24
 A935  4C 00 AC  JMP  $AC00
 A938  A9 34     LDA  #$34
 A93A  4C 00 AC  JMP  $AC00
 A93D  A9 30     LDA  #$30
 A93F  4C 00 AC  JMP  $AC00
 A942  A9 D0     LDA  #$D0
 A944  4C 00 AC  JMP  $AC00
 A947  A9 10     LDA  #$10
 A949  4C 00 AC  JMP  $AC00
 A94C  A9 80     LDA  #$80
 A94E  4C 00 AC  JMP  $AC00
 A951  A9 00     LDA  #$00
 A953  4C 00 AC  JMP  $AC00
 A956  A9 50     LDA  #$50
 A958  4C 00 AC  JMP  $AC00
 A95B  A9 70     LDA  #$70
 A95D  4C 00 AC  JMP  $AC00
 A960  A9 18     LDA  #$18
 A962  4C 00 AC  JMP  $AC00
 A965  A9 D8     LDA  #$D8
 A967  4C 00 AC  JMP  $AC00
 A96A  A9 58     LDA  #$58
 A96C  4C 00 AC  JMP  $AC00
 A96F  A9 B8     LDA  #$B8
 A971  4C 00 AC  JMP  $AC00
 A974  A9 CD     LDA  #$CD
 A976  4C 00 AC  JMP  $AC00
 A979  A9 C9     LDA  #$C9
 A97B  4C 00 AC  JMP  $AC00
 A97E  A9 DD     LDA  #$DD
 A980  4C 00 AC  JMP  $AC00
 A983  A9 D9     LDA  #$D9
 A985  4C 00 AC  JMP  $AC00
 A988  A9 C5     LDA  #$C5
 A98A  4C 00 AC  JMP  $AC00
 A98D  A9 D2     LDA  #$D2
 A98F  4C 00 AC  JMP  $AC00
 A992  A9 D1     LDA  #$D1
 A994  4C 00 AC  JMP  $AC00
 A997  A9 D5     LDA  #$D5
 A999  4C 00 AC  JMP  $AC00
 A99C  A9 C1     LDA  #$C1
 A99E  4C 00 AC  JMP  $AC00
 A9A1  A9 EC     LDA  #$EC
 A9A3  4C 00 AC  JMP  $AC00
 A9A6  A9 E0     LDA  #$E0
 A9A8  4C 00 AC  JMP  $AC00
 A9AB  A9 E4     LDA  #$E4
 A9AD  4C 00 AC  JMP  $AC00
 A9B0  A9 CC     LDA  #$CC
 A9B2  A0 03     LDY  #$03
 A9B4  4C 00 AC  JMP  $AC00
 A9B7  A9 C0     LDA  #$C0
 A9B9  4C 00 AC  JMP  $AC00
 A9BC  A9 C4     LDA  #$C4
 A9BE  4C 00 AC  JMP  $AC00
 A9C1  A9 CE     LDA  #$CE
 A9C3  4C 00 AC  JMP  $AC00
 A9C6  A9 3A     LDA  #$3A
 A9C8  4C 00 AC  JMP  $AC00
 A9CB  A9 DE     LDA  #$DE
 A9CD  4C 00 AC  JMP  $AC00
 A9D0  A9 C6     LDA  #$C6
 A9D2  4C 00 AC  JMP  $AC00
 A9D5  A9 D6     LDA  #$D6
 A9D7  4C 00 AC  JMP  $AC00
 A9DA  A9 CA     LDA  #$CA
 A9DC  4C 00 AC  JMP  $AC00
 A9DF  A9 88     LDA  #$88
 A9E1  4C 00 AC  JMP  $AC00
 A9E4  A9 4D     LDA  #$4D
 A9E6  4C 00 AC  JMP  $AC00
 A9E9  A9 49     LDA  #$49
 A9EB  4C 00 AC  JMP  $AC00
 A9EE  A9 5D     LDA  #$5D
 A9F0  4C 00 AC  JMP  $AC00
 A9F3  A9 59     LDA  #$59
 A9F5  4C 00 AC  JMP  $AC00
 A9F8  A9 45     LDA  #$45
 A9FA  4C 00 AC  JMP  $AC00
 A9FD  A9 52     LDA  #$52
 A9FF  4C 00 AC  JMP  $AC00
 AA02  A9 51     LDA  #$51
 AA04  4C 00 AC  JMP  $AC00
 AA07  A9 55     LDA  #$55
 AA09  4C 00 AC  JMP  $AC00
 AA0C  A9 41     LDA  #$41
 AA0E  4C 00 AC  JMP  $AC00
 AA11  A9 EE     LDA  #$EE
 AA13  4C 00 AC  JMP  $AC00
 AA16  A9 1A     LDA  #$1A
 AA18  4C 00 AC  JMP  $AC00
 AA1B  A9 FE     LDA  #$FE
 AA1D  4C 00 AC  JMP  $AC00
 AA20  A9 E6     LDA  #$E6
 AA22  4C 00 AC  JMP  $AC00
 AA25  A9 F6     LDA  #$F6
 AA27  4C 00 AC  JMP  $AC00
 AA2A  A9 E8     LDA  #$E8
 AA2C  4C 00 AC  JMP  $AC00
 AA2F  A9 C8     LDA  #$C8
 AA31  4C 00 AC  JMP  $AC00
 AA34  A9 4C     LDA  #$4C
 AA36  4C 00 AC  JMP  $AC00
 AA39  A9 6C     LDA  #$6C
 AA3B  4C 00 AC  JMP  $AC00
 AA3E  A9 7C     LDA  #$7C
 AA40  4C 00 AC  JMP  $AC00
 AA43  A9 20     LDA  #$20
 AA45  4C 00 AC  JMP  $AC00
 AA48  A9 AD     LDA  #$AD
 AA4A  4C 00 AC  JMP  $AC00
 AA4D  A9 A9     LDA  #$A9
 AA4F  4C 00 AC  JMP  $AC00
 AA52  A9 BD     LDA  #$BD
 AA54  4C 00 AC  JMP  $AC00
 AA57  A9 B9     LDA  #$B9
 AA59  4C 00 AC  JMP  $AC00
 AA5C  A9 A5     LDA  #$A5
 AA5E  4C 00 AC  JMP  $AC00
 AA61  A9 B2     LDA  #$B2
 AA63  4C 00 AC  JMP  $AC00
 AA66  A9 B1     LDA  #$B1
 AA68  4C 00 AC  JMP  $AC00
 AA6B  A9 B5     LDA  #$B5
 AA6D  4C 00 AC  JMP  $AC00
 AA70  A9 A1     LDA  #$A1
 AA72  4C 00 AC  JMP  $AC00
 AA75  A9 AE     LDA  #$AE
 AA77  4C 00 AC  JMP  $AC00
 AA7A  A9 A2     LDA  #$A2
 AA7C  4C 00 AC  JMP  $AC00
 AA7F  A9 BE     LDA  #$BE
 AA81  4C 00 AC  JMP  $AC00
 AA84  A9 A6     LDA  #$A6
 AA86  4C 00 AC  JMP  $AC00
 AA89  A9 B6     LDA  #$B6
 AA8B  4C 00 AC  JMP  $AC00
 AA8E  A9 AC     LDA  #$AC
 AA90  4C 00 AC  JMP  $AC00
 AA93  A9 A0     LDA  #$A0
 AA95  4C 00 AC  JMP  $AC00
 AA98  A9 BC     LDA  #$BC
 AA9A  4C 00 AC  JMP  $AC00
 AA9D  A9 A4     LDA  #$A4
 AA9F  4C 00 AC  JMP  $AC00
 AAA2  A9 B4     LDA  #$B4
 AAA4  4C 00 AC  JMP  $AC00
 AAA7  A9 4E     LDA  #$4E
 AAA9  4C 00 AC  JMP  $AC00
 AAAC  A9 4A     LDA  #$4A
 AAAE  4C 00 AC  JMP  $AC00
 AAB1  A9 5E     LDA  #$5E
 AAB3  4C 00 AC  JMP  $AC00
 AAB6  A9 46     LDA  #$46
 AAB8  4C 00 AC  JMP  $AC00
 AABB  A9 56     LDA  #$56
 AABD  4C 00 AC  JMP  $AC00
 AAC0  A9 EA     LDA  #$EA
 AAC2  4C 00 AC  JMP  $AC00
 AAC5  A9 0D     LDA  #$0D
 AAC7  4C 00 AC  JMP  $AC00
 AACA  A9 09     LDA  #$09
 AACC  4C 00 AC  JMP  $AC00
 AACF  A9 1D     LDA  #$1D
 AAD1  4C 00 AC  JMP  $AC00
 AAD4  A9 19     LDA  #$19
 AAD6  4C 00 AC  JMP  $AC00
 AAD9  A9 05     LDA  #$05
 AADB  4C 00 AC  JMP  $AC00
 AADE  A9 12     LDA  #$12
 AAE0  A0 02     LDY  #$02
 AAE2  4C 00 AC  JMP  $AC00
 AAE5  A9 11     LDA  #$11
 AAE7  4C 00 AC  JMP  $AC00
 AAEA  A9 15     LDA  #$15
 AAEC  4C 00 AC  JMP  $AC00
 AAEF  A9 01     LDA  #$01
 AAF1  4C 00 AC  JMP  $AC00
 AAF4  A9 48     LDA  #$48
 AAF6  4C 00 AC  JMP  $AC00
 AAF9  A9 08     LDA  #$08
 AAFB  4C 00 AC  JMP  $AC00
 AAFE  A9 DA     LDA  #$DA
 AB00  4C 00 AC  JMP  $AC00
 AB03  A9 5A     LDA  #$5A
 AB05  4C 00 AC  JMP  $AC00
 AB08  A9 68     LDA  #$68
 AB0A  4C 00 AC  JMP  $AC00
 AB0D  A9 28     LDA  #$28
 AB0F  4C 00 AC  JMP  $AC00
 AB12  A9 FA     LDA  #$FA
 AB14  4C 00 AC  JMP  $AC00
 AB17  A9 7A     LDA  #$7A
 AB19  4C 00 AC  JMP  $AC00
 AB1C  A9 2E     LDA  #$2E
 AB1E  4C 00 AC  JMP  $AC00
 AB21  A9 2A     LDA  #$2A
 AB23  4C 00 AC  JMP  $AC00
 AB26  A9 3E     LDA  #$3E
 AB28  4C 00 AC  JMP  $AC00
 AB2B  A9 26     LDA  #$26
 AB2D  4C 00 AC  JMP  $AC00
 AB30  A9 36     LDA  #$36
 AB32  4C 00 AC  JMP  $AC00
 AB35  A9 6E     LDA  #$6E
 AB37  4C 00 AC  JMP  $AC00
 AB3A  A9 6A     LDA  #$6A
 AB3C  4C 00 AC  JMP  $AC00
 AB3F  A9 7E     LDA  #$7E
 AB41  4C 00 AC  JMP  $AC00
 AB44  A9 66     LDA  #$66
 AB46  4C 00 AC  JMP  $AC00
 AB49  A9 76     LDA  #$76
 AB4B  4C 00 AC  JMP  $AC00
 AB4E  A9 40     LDA  #$40
 AB50  4C 00 AC  JMP  $AC00
 AB53  A9 60     LDA  #$60
 AB55  4C 00 AC  JMP  $AC00
 AB58  A9 ED     LDA  #$ED
 AB5A  4C 00 AC  JMP  $AC00
 AB5D  A9 E9     LDA  #$E9
 AB5F  4C 00 AC  JMP  $AC00
 AB62  A9 FD     LDA  #$FD
 AB64  4C 00 AC  JMP  $AC00
 AB67  A9 F9     LDA  #$F9
 AB69  4C 00 AC  JMP  $AC00
 AB6C  A9 E5     LDA  #$E5
 AB6E  4C 00 AC  JMP  $AC00
 AB71  A9 F2     LDA  #$F2
 AB73  4C 00 AC  JMP  $AC00
 AB76  A9 F1     LDA  #$F1
 AB78  4C 00 AC  JMP  $AC00
 AB7B  A9 F5     LDA  #$F5
 AB7D  4C 00 AC  JMP  $AC00
 AB80  A9 E1     LDA  #$E1
 AB82  80 7C     BRA  $AC00
 AB84  A9 38     LDA  #$38
 AB86  80 78     BRA  $AC00
 AB88  A9 F8     LDA  #$F8
 AB8A  80 74     BRA  $AC00
 AB8C  A9 78     LDA  #$78
 AB8E  80 70     BRA  $AC00
 AB90  A9 8D     LDA  #$8D
 AB92  80 6C     BRA  $AC00
 AB94  A9 9D     LDA  #$9D
 AB96  80 68     BRA  $AC00
 AB98  A9 99     LDA  #$99
 AB9A  80 64     BRA  $AC00
 AB9C  A9 85     LDA  #$85
 AB9E  80 60     BRA  $AC00
 ABA0  A9 92     LDA  #$92
 ABA2  80 5C     BRA  $AC00
 ABA4  A9 91     LDA  #$91
 ABA6  80 58     BRA  $AC00
 ABA8  A9 95     LDA  #$95
 ABAA  80 54     BRA  $AC00
 ABAC  A9 81     LDA  #$81
 ABAE  80 50     BRA  $AC00
 ABB0  A9 8E     LDA  #$8E
 ABB2  80 4C     BRA  $AC00
 ABB4  A9 86     LDA  #$86
 ABB6  80 48     BRA  $AC00
 ABB8  A9 96     LDA  #$96
 ABBA  80 44     BRA  $AC00
 ABBC  A9 8C     LDA  #$8C
 ABBE  80 40     BRA  $AC00
 ABC0  A9 84     LDA  #$84
 ABC2  80 3C     BRA  $AC00
 ABC4  A9 94     LDA  #$94
 ABC6  80 38     BRA  $AC00
 ABC8  A9 9C     LDA  #$9C
 ABCA  80 34     BRA  $AC00
 ABCC  A9 9E     LDA  #$9E
 ABCE  80 30     BRA  $AC00
 ABD0  A9 64     LDA  #$64
 ABD2  80 2C     BRA  $AC00
 ABD4  A9 74     LDA  #$74
 ABD6  80 28     BRA  $AC00
 ABD8  A9 AA     LDA  #$AA
 ABDA  80 24     BRA  $AC00
 ABDC  A9 A8     LDA  #$A8
 ABDE  80 20     BRA  $AC00
 ABE0  A9 1C     LDA  #$1C
 ABE2  80 1C     BRA  $AC00
 ABE4  A9 14     LDA  #$14
 ABE6  80 18     BRA  $AC00
 ABE8  A9 0C     LDA  #$0C
 ABEA  80 14     BRA  $AC00
 ABEC  A9 04     LDA  #$04
 ABEE  80 10     BRA  $AC00
 ABF0  A9 BA     LDA  #$BA
 ABF2  80 0C     BRA  $AC00
 ABF4  A9 8A     LDA  #$8A
 ABF6  80 08     BRA  $AC00
 ABF8  A9 9A     LDA  #$9A
 ABFA  80 04     BRA  $AC00
 ABFC  A9 98     LDA  #$98
 ABFE  80 00     BRA  $AC00
 AC00  A8        TAY  
 AC01  20 AC D4  JSR  $D4AC
 AC04  A9 FF     LDA  #$FF
 AC06  85 26     STA  $26
 AC08  A9 AC     LDA  #$AC
 AC0A  85 27     STA  $27
 AC0C  98        TYA  
 AC0D  0A        ASL  
 AC0E  90 02     BCC  $AC12
 AC10  E6 27     INC  $27
 AC12  A8        TAY  
 AC13  B1 26     LDA  ($26), Y
 AC15  85 28     STA  $28
 AC17  C8        INY  
 AC18  B1 26     LDA  ($26), Y
 AC1A  85 29     STA  $29
 AC1C  B2 28     LDA  ($28)
 AC1E  2A        ROL  
 AC1F  2A        ROL  
 AC20  2A        ROL  
 AC21  29 03     AND  #$03
 AC23  A8        TAY  
 AC24  88        DEY  
 AC25  F0 12     BEQ  $AC39
 AC27  20 F9 D5  JSR  $D5F9
 AC2A  B5 00     LDA  $00, X
 AC2C  20 AC D4  JSR  $D4AC
 AC2F  88        DEY  
 AC30  F0 05     BEQ  $AC37
 AC32  B5 01     LDA  $01, X
 AC34  20 AC D4  JSR  $D4AC
 AC37  E8        INX  
 AC38  E8        INX  
 AC39  60        RTS  
 AC3A  A0 00     LDY  #$00
 AC3C  B9 4A AC  LDA  $AC4A, Y
 AC3F  C9 FF     CMP  #$FF
 AC41  F0 06     BEQ  $AC49
 AC43  20 AC D4  JSR  $D4AC
 AC46  C8        INY  
 AC47  80 F3     BRA  $AC3C
 AC49  60        RTS  
 AC4A  CA CA 95 00 74 01 FF                             |....t..         |
 AC51  60        RTS  
 AC52  20 62 91  JSR  $9162
 AC55  20 40 95  JSR  $9540
 AC58  3A        DEC  
 AC59  3A        DEC  
 AC5A  60        RTS  
 AC5B  20 53 89  JSR  $8953
 AC5E  20 15 98  JSR  $9815
 AC61  20 AA A4  JSR  $A4AA
 AC64  20 A0 A0  JSR  $A0A0
 AC67  A9 FF     LDA  #$FF
 AC69  85 26     STA  $26
 AC6B  A9 AC     LDA  #$AC
 AC6D  85 27     STA  $27
 AC6F  A1 02     LDA  ($02, X)
 AC71  0A        ASL  
 AC72  90 02     BCC  $AC76
 AC74  E6 27     INC  $27
 AC76  A8        TAY  
 AC77  B1 26     LDA  ($26), Y
 AC79  85 28     STA  $28
 AC7B  48        PHA  
 AC7C  C8        INY  
 AC7D  B1 26     LDA  ($26), Y
 AC7F  85 29     STA  $29
 AC81  48        PHA  
 AC82  B2 28     LDA  ($28)
 AC84  A8        TAY  
 AC85  10 38     BPL  $ACBF
 AC87  20 23 A7  JSR  $A723
 AC8A  F6 04     INC  $04, X
 AC8C  D0 02     BNE  $AC90
 AC8E  F6 05     INC  $05, X
 AC90  B5 02     LDA  $02, X
 AC92  D0 02     BNE  $AC96
 AC94  D6 03     DEC  $03, X
 AC96  D6 02     DEC  $02, X
 AC98  A1 04     LDA  ($04, X)
 AC9A  95 00     STA  $00, X
 AC9C  98        TYA  
 AC9D  2A        ROL  
 AC9E  10 12     BPL  $ACB2
 ACA0  F6 04     INC  $04, X
 ACA2  D0 02     BNE  $ACA6
 ACA4  F6 05     INC  $05, X
 ACA6  B5 02     LDA  $02, X
 ACA8  D0 02     BNE  $ACAC
 ACAA  D6 03     DEC  $03, X
 ACAC  D6 02     DEC  $02, X
 ACAE  A1 04     LDA  ($04, X)
 ACB0  95 01     STA  $01, X
 ACB2  CA        DEX  
 ACB3  CA        DEX  
 ACB4  A9 05     LDA  #$05
 ACB6  95 00     STA  $00, X
 ACB8  74 01     STZ  $01, X
 ACBA  20 B6 A4  JSR  $A4B6
 ACBD  80 0B     BRA  $ACCA
 ACBF  CA        DEX  
 ACC0  CA        DEX  
 ACC1  A9 05     LDA  #$05
 ACC3  95 00     STA  $00, X
 ACC5  74 01     STZ  $01, X
 ACC7  20 A6 A0  JSR  $A0A6
 ACCA  20 A0 A0  JSR  $A0A0
 ACCD  CA        DEX  
 ACCE  CA        DEX  
 ACCF  68        PLA  
 ACD0  95 01     STA  $01, X
 ACD2  68        PLA  
 ACD3  95 00     STA  $00, X
 ACD5  20 3F 89  JSR  $893F
 ACD8  74 01     STZ  $01, X
 ACDA  B5 00     LDA  $00, X
 ACDC  29 07     AND  #$07
 ACDE  95 00     STA  $00, X
 ACE0  20 7F A4  JSR  $A47F
 ACE3  20 53 89  JSR  $8953
 ACE6  F6 02     INC  $02, X
 ACE8  D0 02     BNE  $ACEC
 ACEA  F6 03     INC  $03, X
 ACEC  20 93 97  JSR  $9793
 ACEF  B5 00     LDA  $00, X
 ACF1  15 01     ORA  $01, X
 ACF3  F0 07     BEQ  $ACFC
 ACF5  B5 01     LDA  $01, X
 ACF7  30 03     BMI  $ACFC
 ACF9  4C 5E AC  JMP  $AC5E
 ACFC  4C 2C A3  JMP  $A32C
 ACFF  FF AE 03 AF 97 B3 97 B3 0B AF 11 AF 17 AF 97 B3  |................|
 AD0F  1D AF 21 AF 27 AF 97 B3 2D AF 31 AF 35 AF 39 AF  |..!.'...-.1.5.9.|
 AD1F  3E AF 42 AF 4A AF 97 B3 51 AF 57 AF 5E AF 65 AF  |>.B.J...Q.W.^.e.|
 AD2F  6C AF 70 AF 76 AF 97 B3 7C AF 80 AF 97 B3 86 AF  |l.p.v...|.......|
 AD3F  8C AF 90 AF 97 B3 97 B3 98 AF 9E AF A4 AF AA AF  |................|
 AD4F  B1 AF B5 AF BB AF 97 B3 C1 AF C5 AF CA AF CE AF  |................|
 AD5F  D3 AF D7 AF DF AF 97 B3 E6 AF EE AF F5 AF FC AF  |................|
 AD6F  03 B0 07 B0 0D B0 97 B3 13 B0 19 B0 1F B0 39 AF  |..............9.|
 AD7F  2A B0 2E B0 97 B3 97 B3 97 B3 36 B0 3C B0 42 B0  |*.........6.<.B.|
 AD8F  49 B0 4D B0 53 B0 97 B3 59 B0 5D B0 61 B0 65 B0  |I.M.S...Y.].a.e.|
 AD9F  6A B0 6E B0 76 B0 97 B3 97 B3 7D B0 84 B0 8B B0  |j.n.v.....}.....|
 ADAF  92 B0 96 B0 9C B0 97 B3 97 B3 97 B3 A6 B0 AC B0  |................|
 ADBF  B1 B0 B5 B0 97 B3 97 B3 BD B0 C3 B0 C9 B0 CF B0  |................|
 ADCF  D6 B0 DA B0 E0 B0 97 B3 E6 B0 EC B0 F0 B0 F4 B0  |................|
 ADDF  F9 B0 FD B0 05 B1 97 B3 0C B1 13 B1 1A B1 21 B1  |..............!.|
 ADEF  28 B1 2C B1 32 B1 97 B3 36 B1 3D B1 43 B1 49 B1  |(.,.2...6.=.C.I.|
 ADFF  4E B1 52 B1 97 B3 97 B3 5A B1 60 B1 66 B1 97 B3  |N.R.....Z.`.f...|
 AE0F  6C B1 70 B1 76 B1 97 B3 7A B1 7E B1 82 B1 86 B1  |l.p.v...z.~.....|
 AE1F  8B B1 8F B1 97 B1 97 B3 9E B1 A5 B1 AC B1 B3 B1  |................|
 AE2F  BA B1 BE B1 C4 B1 97 B3 C8 B1 CC B1 D2 B1 D8 B1  |................|
 AE3F  DD B1 E3 B1 EB B1 97 B3 F1 B1 F7 B1 FD B1 03 B2  |................|
 AE4F  0A B2 0E B2 14 B2 97 B3 18 B2 1C B2 20 B2 24 B2  |............ .$.|
 AE5F  29 B2 2D B2 35 B2 97 B3 3C B2 43 B2 4A B2 51 B2  |).-.5...<.C.J.Q.|
 AE6F  58 B2 5C B2 62 B2 97 B3 66 B2 6C B2 72 B2 78 B2  |X.\.b...f.l.r.x.|
 AE7F  7D B2 83 B2 97 B3 97 B3 8B B2 91 B2 97 B2 9D B2  |}...............|
 AE8F  A4 B2 A8 B2 AE B2 97 B3 B2 B2 B6 B2 BA B2 BE B2  |................|
 AE9F  C3 B2 C7 B2 CF B2 97 B3 97 B3 D6 B2 DD B2 E4 B2  |................|
 AEAF  EB B2 EF B2 F5 B2 97 B3 97 B3 F9 B2 FF B2 05 B3  |................|
 AEBF  0A B3 10 B3 97 B3 97 B3 18 B3 1E B3 24 B3 2A B3  |............$.*.|
 AECF  31 B3 35 B3 3B B3 97 B3 3F B3 43 B3 47 B3 4B B3  |1.5.;...?.C.G.K.|
 AEDF  50 B3 54 B3 5C B3 97 B3 97 B3 63 B3 6A B3 71 B3  |P.T.\.....c.j.q.|
 AEEF  78 B3 7C B3 82 B3 97 B3 97 B3 86 B3 8C B3 92 B3  |x.|.............|
 AEFF  83 62 72 6B 87 6F 72 61 2E 7A 78 69 85 74 73 62  |.brk.ora.zxi.tsb|
 AF0F  2E 7A 85 6F 72 64 2E 7A 85 61 73 6C 2E 7A 43 70  |.z.ord.z.asl.zCp|
 AF1F  68 70 85 6F 72 61 2E 23 45 61 73 6C 2E 61 C3 74  |hp.ora.#Easl.a.t|
 AF2F  73 62 C3 6F 72 61 C3 61 73 6C C4 62 62 72 30 83  |sb.ora.asl.bbr0.|
 AF3F  62 70 6C 87 6F 72 61 2E 7A 69 79 86 6F 72 61 2E  |bpl.ora.ziy.ora.|
 AF4F  7A 69 85 74 72 62 2E 7A 86 6F 72 61 2E 7A 78 86  |zi.trb.z.ora.zx.|
 AF5F  61 73 6C 2E 7A 78 86 72 6D 62 31 2E 7A 43 63 6C  |asl.zx.rmb1.zCcl|
 AF6F  63 C5 6F 72 61 2E 79 45 69 6E 63 2E 61 C3 74 72  |c.ora.yEinc.a.tr|
 AF7F  62 C5 6F 72 61 2E 78 C5 61 73 6C 2E 78 C3 6A 73  |b.ora.x.asl.x.js|
 AF8F  72 87 61 6E 64 2E 7A 78 69 85 62 69 74 2E 7A 85  |r.and.zxi.bit.z.|
 AF9F  61 6E 64 2E 7A 85 72 6F 6C 2E 7A 86 72 6D 62 32  |and.z.rol.z.rmb2|
 AFAF  2E 7A 43 70 6C 70 85 61 6E 64 2E 23 45 72 6F 6C  |.zCplp.and.#Erol|
 AFBF  2E 61 C3 62 69 74 C4 61 6E 64 2E C3 72 6F 6C C4  |.a.bit.and..rol.|
 AFCF  62 62 72 32 83 62 6D 69 87 61 6E 64 2E 7A 69 79  |bbr2.bmi.and.ziy|
 AFDF  86 61 6E 64 2E 7A 69 87 62 69 74 2E 7A 78 69 86  |.and.zi.bit.zxi.|
 AFEF  61 6E 64 2E 7A 78 86 72 6F 6C 2E 7A 78 86 72 6D  |and.zx.rol.zx.rm|
 AFFF  62 33 2E 7A 43 73 65 63 C5 61 6E 64 2E 79 45 64  |b3.zCsec.and.yEd|
 B00F  65 63 2E 61 C5 62 69 74 2E 78 C5 61 6E 64 2E 78  |ec.a.bit.x.and.x|
 B01F  C5 72 6F 6C 2E 78 C4 62 62 72 33 43 72 74 69 87  |.rol.x.bbr3Crti.|
 B02F  65 6F 72 2E 7A 78 69 85 65 6F 72 2E 7A 85 6C 73  |eor.zxi.eor.z.ls|
 B03F  72 2E 7A 86 72 62 6D 34 2E 7A 43 70 68 61 85 65  |r.z.rbm4.zCpha.e|
 B04F  6F 72 2E 23 45 6C 73 72 2E 61 C3 6A 6D 70 C3 65  |or.#Elsr.a.jmp.e|
 B05F  6F 72 C3 6C 73 72 C4 62 62 72 34 83 62 76 63 87  |or.lsr.bbr4.bvc.|
 B06F  65 6F 72 2E 7A 69 79 86 65 6F 72 2E 7A 69 86 65  |eor.ziy.eor.zi.e|
 B07F  6F 72 2E 7A 78 86 6C 73 72 2E 7A 78 86 72 62 6D  |or.zx.lsr.zx.rbm|
 B08F  35 2E 7A 43 63 6C 69 C5 65 6F 72 2E 79 43 70 68  |5.zCcli.eor.yCph|
 B09F  79 C5 65 6F 72 2E 78 C5 6C 73 72 2E 78 C4 62 62  |y.eor.x.lsr.x.bb|
 B0AF  72 35 43 72 74 73 87 61 64 63 2E 7A 78 69 85 73  |r5Crts.adc.zxi.s|
 B0BF  74 7A 2E 7A 85 61 64 63 2E 7A 85 72 6F 72 2E 7A  |tz.z.adc.z.ror.z|
 B0CF  86 72 6D 62 36 2E 7A 43 70 6C 61 85 61 64 63 2E  |.rmb6.zCpla.adc.|
 B0DF  23 45 72 6F 72 2E 61 C5 6A 6D 70 2E 69 C3 61 64  |#Eror.a.jmp.i.ad|
 B0EF  63 C3 72 6F 72 C4 62 62 72 36 83 62 76 73 87 61  |c.ror.bbr6.bvs.a|
 B0FF  64 63 2E 7A 69 79 86 61 64 63 2E 7A 69 86 73 74  |dc.ziy.adc.zi.st|
 B10F  7A 2E 7A 78 86 61 64 63 2E 7A 78 86 72 6F 72 2E  |z.zx.adc.zx.ror.|
 B11F  7A 78 86 72 6D 62 37 2E 7A 43 73 65 69 C5 61 64  |zx.rmb7.zCsei.ad|
 B12F  63 2E 79 43 70 6C 79 C6 6A 6D 70 2E 78 69 C5 61  |c.yCply.jmp.xi.a|
 B13F  64 63 2E 78 C5 72 6F 72 2E 78 C4 62 62 72 37 83  |dc.x.ror.x.bbr7.|
 B14F  62 72 61 87 73 74 61 2E 7A 78 69 85 73 74 79 2E  |bra.sta.zxi.sty.|
 B15F  7A 85 73 74 61 2E 7A 85 73 74 78 2E 7A 43 64 65  |z.sta.z.stx.zCde|
 B16F  79 85 62 69 74 2E 23 43 74 78 61 C3 73 74 79 C3  |y.bit.#Ctxa.sty.|
 B17F  73 74 61 C3 73 74 78 C4 62 62 73 30 83 62 63 63  |sta.stx.bbs0.bcc|
 B18F  87 73 74 61 2E 7A 69 79 86 73 74 61 2E 7A 69 86  |.sta.ziy.sta.zi.|
 B19F  73 74 79 2E 7A 78 86 73 74 61 2E 7A 78 86 73 74  |sty.zx.sta.zx.st|
 B1AF  78 2E 7A 79 86 73 6D 62 31 2E 7A 43 74 79 61 C5  |x.zy.smb1.zCtya.|
 B1BF  73 74 61 2E 79 43 74 78 73 C3 73 74 7A C5 73 74  |sta.yCtxs.stz.st|
 B1CF  61 2E 78 C5 73 74 7A 2E 78 C4 62 62 73 31 85 6C  |a.x.stz.x.bbs1.l|
 B1DF  64 79 2E 23 87 6C 64 61 2E 7A 78 69 85 6C 64 78  |dy.#.lda.zxi.ldx|
 B1EF  2E 23 85 6C 64 79 2E 7A 85 6C 64 61 2E 7A 85 6C  |.#.ldy.z.lda.z.l|
 B1FF  64 78 2E 7A 86 73 6D 62 32 2E 7A 43 74 61 79 85  |dx.z.smb2.zCtay.|
 B20F  6C 64 61 2E 23 43 74 61 78 C3 6C 64 79 C3 6C 64  |lda.#Ctax.ldy.ld|
 B21F  61 C3 6C 64 78 C4 62 62 73 32 83 62 63 73 87 6C  |a.ldx.bbs2.bcs.l|
 B22F  64 61 2E 7A 69 79 86 6C 64 61 2E 7A 69 86 6C 64  |da.ziy.lda.zi.ld|
 B23F  79 2E 7A 78 86 6C 64 61 2E 7A 78 86 6C 64 78 2E  |y.zx.lda.zx.ldx.|
 B24F  7A 79 86 73 6D 62 33 2E 7A 43 63 6C 76 C5 6C 64  |zy.smb3.zCclv.ld|
 B25F  61 2E 79 43 74 73 78 C5 6C 64 79 2E 78 C5 6C 64  |a.yCtsx.ldy.x.ld|
 B26F  61 2E 78 C5 6C 64 78 2E 79 C4 62 62 73 34 85 63  |a.x.ldx.y.bbs4.c|
 B27F  70 79 2E 23 87 63 6D 70 2E 7A 78 69 85 63 70 79  |py.#.cmp.zxi.cpy|
 B28F  2E 7A 85 63 6D 70 2E 7A 85 64 65 63 2E 7A 86 73  |.z.cmp.z.dec.z.s|
 B29F  6D 62 34 2E 7A 43 69 6E 79 85 63 6D 70 2E 23 43  |mb4.zCiny.cmp.#C|
 B2AF  64 65 78 C3 63 70 79 C3 63 6D 70 C3 64 65 63 C4  |dex.cpy.cmp.dec.|
 B2BF  62 62 73 34 83 62 6E 65 87 63 6D 70 2E 7A 69 79  |bbs4.bne.cmp.ziy|
 B2CF  86 63 6D 70 2E 7A 69 86 63 6D 70 2E 7A 78 86 64  |.cmp.zi.cmp.zx.d|
 B2DF  65 63 2E 7A 78 86 73 6D 62 35 2E 7A 43 63 6C 64  |ec.zx.smb5.zCcld|
 B2EF  C5 63 6D 70 2E 79 43 70 68 78 C5 63 6D 70 2E 78  |.cmp.yCphx.cmp.x|
 B2FF  C5 64 65 63 2E 78 C4 62 62 73 35 85 63 70 78 2E  |.dec.x.bbs5.cpx.|
 B30F  23 87 73 62 63 2E 7A 78 69 85 63 70 78 2E 7A 85  |#.sbc.zxi.cpx.z.|
 B31F  73 62 63 2E 7A 85 69 6E 63 2E 7A 86 73 6D 62 36  |sbc.z.inc.z.smb6|
 B32F  2E 7A 43 69 6E 78 85 73 62 63 2E 23 43 6E 6F 70  |.zCinx.sbc.#Cnop|
 B33F  C3 63 70 78 C3 73 62 63 C3 69 6E 63 C4 62 62 73  |.cpx.sbc.inc.bbs|
 B34F  36 83 62 65 71 87 73 62 63 2E 7A 69 79 86 73 62  |6.beq.sbc.ziy.sb|
 B35F  63 2E 7A 69 86 73 62 63 2E 7A 78 86 69 6E 63 2E  |c.zi.sbc.zx.inc.|
 B36F  7A 78 86 73 6D 62 37 2E 7A 43 73 65 64 C5 73 62  |zx.smb7.zCsed.sb|
 B37F  63 2E 79 43 70 6C 78 C5 73 62 63 2E 78 C5 69 6E  |c.yCplx.sbc.x.in|
 B38F  63 2E 78 C4 62 62 73 37 01 3F                    |c.x.bbs7.?      |
 B399  64 2E     STZ  $2E
 B39B  64 2F     STZ  $2F
 B39D  64 30     STZ  $30
 B39F  64 31     STZ  $31
 B3A1  64 32     STZ  $32
 B3A3  20 23 A7  JSR  $A723
 B3A6  20 23 A7  JSR  $A723
 B3A9  20 53 89  JSR  $8953
 B3AC  A9 81     LDA  #$81
 B3AE  14 32     TRB  $32
 B3B0  20 77 B8  JSR  $B877
 B3B3  A5 0A     LDA  $0A
 B3B5  D0 1F     BNE  $B3D6
 B3B7  CA        DEX  
 B3B8  CA        DEX  
 B3B9  A5 30     LDA  $30
 B3BB  95 00     STA  $00, X
 B3BD  A5 31     LDA  $31
 B3BF  95 01     STA  $01, X
 B3C1  A9 80     LDA  #$80
 B3C3  04 32     TSB  $32
 B3C5  20 9F 97  JSR  $979F
 B3C8  20 93 B8  JSR  $B893
 B3CB  B0 03     BCS  $B3D0
 B3CD  4C 67 B8  JMP  $B867
 B3D0  20 23 A7  JSR  $A723
 B3D3  4C A1 B4  JMP  $B4A1
 B3D6  20 23 A7  JSR  $A723
 B3D9  20 23 A7  JSR  $A723
 B3DC  B2 08     LDA  ($08)
 B3DE  C9 2E     CMP  #$2E
 B3E0  D0 3A     BNE  $B41C
 B3E2  20 88 B8  JSR  $B888
 B3E5  A5 30     LDA  $30
 B3E7  95 02     STA  $02, X
 B3E9  A5 31     LDA  $31
 B3EB  95 03     STA  $03, X
 B3ED  A9 80     LDA  #$80
 B3EF  04 32     TSB  $32
 B3F1  A5 0A     LDA  $0A
 B3F3  3A        DEC  
 B3F4  D0 03     BNE  $B3F9
 B3F6  4C A1 B4  JMP  $B4A1
 B3F9  CA        DEX  
 B3FA  CA        DEX  
 B3FB  CA        DEX  
 B3FC  CA        DEX  
 B3FD  A5 08     LDA  $08
 B3FF  95 02     STA  $02, X
 B401  A5 09     LDA  $09
 B403  95 03     STA  $03, X
 B405  A5 0A     LDA  $0A
 B407  95 00     STA  $00, X
 B409  A5 0B     LDA  $0B
 B40B  95 01     STA  $01, X
 B40D  20 93 97  JSR  $9793
 B410  20 2A A1  JSR  $A12A
 B413  20 9F 97  JSR  $979F
 B416  20 2A A1  JSR  $A12A
 B419  4C F9 B4  JMP  $B4F9
 B41C  B2 08     LDA  ($08)
 B41E  C9 24     CMP  #$24
 B420  D0 1C     BNE  $B43E
 B422  20 88 B8  JSR  $B888
 B425  E8        INX  
 B426  E8        INX  
 B427  20 B5 B8  JSR  $B8B5
 B42A  20 2A A1  JSR  $A12A
 B42D  A9 80     LDA  #$80
 B42F  04 32     TSB  $32
 B431  A5 0A     LDA  $0A
 B433  3A        DEC  
 B434  D0 03     BNE  $B439
 B436  4C A1 B4  JMP  $B4A1
 B439  A0 01     LDY  #$01
 B43B  4C 75 B5  JMP  $B575
 B43E  B2 08     LDA  ($08)
 B440  C9 25     CMP  #$25
 B442  F0 04     BEQ  $B448
 B444  C9 2C     CMP  #$2C
 B446  D0 17     BNE  $B45F
 B448  20 88 B8  JSR  $B888
 B44B  A9 01     LDA  #$01
 B44D  95 02     STA  $02, X
 B44F  74 03     STZ  $03, X
 B451  E8        INX  
 B452  E8        INX  
 B453  20 B5 B8  JSR  $B8B5
 B456  A9 80     LDA  #$80
 B458  04 32     TSB  $32
 B45A  A0 01     LDY  #$01
 B45C  4C 75 B5  JMP  $B575
 B45F  B2 08     LDA  ($08)
 B461  C9 3B     CMP  #$3B
 B463  D0 0D     BNE  $B472
 B465  20 88 B8  JSR  $B888
 B468  A5 30     LDA  $30
 B46A  95 02     STA  $02, X
 B46C  A5 31     LDA  $31
 B46E  95 03     STA  $03, X
 B470  80 DF     BRA  $B451
 B472  20 23 A7  JSR  $A723
 B475  20 23 A7  JSR  $A723
 B478  CA        DEX  
 B479  CA        DEX  
 B47A  CA        DEX  
 B47B  CA        DEX  
 B47C  A5 08     LDA  $08
 B47E  95 02     STA  $02, X
 B480  A5 09     LDA  $09
 B482  95 03     STA  $03, X
 B484  A5 0A     LDA  $0A
 B486  95 00     STA  $00, X
 B488  A5 0B     LDA  $0B
 B48A  95 01     STA  $01, X
 B48C  20 39 A2  JSR  $A239
 B48F  B5 00     LDA  $00, X
 B491  15 01     ORA  $01, X
 B493  D0 24     BNE  $B4B9
 B495  E8        INX  
 B496  E8        INX  
 B497  E8        INX  
 B498  E8        INX  
 B499  20 70 8A  JSR  $8A70
 B49C  20 5E 96  JSR  $965E
 B49F  E8        INX  
 B4A0  E8        INX  
 B4A1  20 2A A1  JSR  $A12A
 B4A4  20 93 B8  JSR  $B893
 B4A7  B0 03     BCS  $B4AC
 B4A9  4C 65 B8  JMP  $B865
 B4AC  20 2A A1  JSR  $A12A
 B4AF  20 22 B9  JSR  $B922
 B4B2  A9 80     LDA  #$80
 B4B4  04 32     TSB  $32
 B4B6  4C 50 B7  JMP  $B750
 B4B9  20 9F 8D  JSR  $8D9F
 B4BC  CA        DEX  
 B4BD  CA        DEX  
 B4BE  A5 0A     LDA  $0A
 B4C0  95 00     STA  $00, X
 B4C2  A5 0B     LDA  $0B
 B4C4  95 01     STA  $01, X
 B4C6  20 BE 8E  JSR  $8EBE
 B4C9  B5 00     LDA  $00, X
 B4CB  15 01     ORA  $01, X
 B4CD  F0 0E     BEQ  $B4DD
 B4CF  8A        TXA  
 B4D0  18        CLC  
 B4D1  69 0A     ADC  #$0A
 B4D3  AA        TAX  
 B4D4  A9 80     LDA  #$80
 B4D6  14 32     TRB  $32
 B4D8  A0 00     LDY  #$00
 B4DA  4C 75 B5  JMP  $B575
 B4DD  E8        INX  
 B4DE  E8        INX  
 B4DF  20 EC A2  JSR  $A2EC
 B4E2  20 5E 96  JSR  $965E
 B4E5  20 70 8A  JSR  $8A70
 B4E8  B5 00     LDA  $00, X
 B4EA  95 06     STA  $06, X
 B4EC  B5 01     LDA  $01, X
 B4EE  95 07     STA  $07, X
 B4F0  E8        INX  
 B4F1  E8        INX  
 B4F2  20 14 9A  JSR  $9A14
 B4F5  A9 80     LDA  #$80
 B4F7  04 32     TSB  $32
 B4F9  A1 02     LDA  ($02, X)
 B4FB  C9 2C     CMP  #$2C
 B4FD  F0 0D     BEQ  $B50C
 B4FF  38        SEC  
 B500  A5 0A     LDA  $0A
 B502  F5 00     SBC  $00, X
 B504  A8        TAY  
 B505  E8        INX  
 B506  E8        INX  
 B507  E8        INX  
 B508  E8        INX  
 B509  4C 75 B5  JMP  $B575
 B50C  F6 02     INC  $02, X
 B50E  D0 02     BNE  $B512
 B510  F6 03     INC  $03, X
 B512  B5 01     LDA  $01, X
 B514  F0 02     BEQ  $B518
 B516  D6 01     DEC  $01, X
 B518  D6 00     DEC  $00, X
 B51A  A1 02     LDA  ($02, X)
 B51C  C9 24     CMP  #$24
 B51E  D0 14     BNE  $B534
 B520  38        SEC  
 B521  A5 0A     LDA  $0A
 B523  F5 02     SBC  $02, X
 B525  A8        TAY  
 B526  C8        INY  
 B527  5A        PHY  
 B528  8A        TXA  
 B529  18        CLC  
 B52A  69 06     ADC  #$06
 B52C  AA        TAX  
 B52D  20 B5 B8  JSR  $B8B5
 B530  7A        PLY  
 B531  4C 75 B5  JMP  $B575
 B534  20 EC A2  JSR  $A2EC
 B537  20 23 A7  JSR  $A723
 B53A  20 23 A7  JSR  $A723
 B53D  20 D9 9A  JSR  $9AD9
 B540  20 14 9A  JSR  $9A14
 B543  20 9F 8D  JSR  $8D9F
 B546  20 EC A2  JSR  $A2EC
 B549  20 39 A2  JSR  $A239
 B54C  20 9F 8D  JSR  $8D9F
 B54F  20 14 9A  JSR  $9A14
 B552  20 BE 8E  JSR  $8EBE
 B555  B5 00     LDA  $00, X
 B557  15 01     ORA  $01, X
 B559  F0 08     BEQ  $B563
 B55B  8A        TXA  
 B55C  18        CLC  
 B55D  69 0C     ADC  #$0C
 B55F  AA        TAX  
 B560  4C 69 B8  JMP  $B869
 B563  E8        INX  
 B564  E8        INX  
 B565  38        SEC  
 B566  A5 0A     LDA  $0A
 B568  F5 00     SBC  $00, X
 B56A  48        PHA  
 B56B  20 2C A3  JSR  $A32C
 B56E  20 70 8A  JSR  $8A70
 B571  20 32 96  JSR  $9632
 B574  7A        PLY  
 B575  B1 08     LDA  ($08), Y
 B577  85 24     STA  $24
 B579  DA        PHX  
 B57A  A2 00     LDX  #$00
 B57C  BD 4D B9  LDA  $B94D, X
 B57F  F0 07     BEQ  $B588
 B581  C5 24     CMP  $24
 B583  F0 07     BEQ  $B58C
 B585  E8        INX  
 B586  80 F4     BRA  $B57C
 B588  FA        PLX  
 B589  4C 65 B8  JMP  $B865
 B58C  8A        TXA  
 B58D  0A        ASL  
 B58E  AA        TAX  
 B58F  7C 58 B9  JMP  ($B958, X)
 B592  E8        INX  
 B593  E8        INX  
 B594  E8        INX  
 B595  E8        INX  
 B596  4C AC B3  JMP  $B3AC
 B599  64 0A     STZ  $0A
 B59B  64 0B     STZ  $0B
 B59D  20 2C A3  JSR  $A32C
 B5A0  60        RTS  
 B5A1  FA        PLX  
 B5A2  E8        INX  
 B5A3  E8        INX  
 B5A4  24 32     BIT  $32
 B5A6  30 08     BMI  $B5B0
 B5A8  A5 30     LDA  $30
 B5AA  95 00     STA  $00, X
 B5AC  A5 31     LDA  $31
 B5AE  95 01     STA  $01, X
 B5B0  20 EB B8  JSR  $B8EB
 B5B3  20 53 89  JSR  $8953
 B5B6  20 77 B8  JSR  $B877
 B5B9  B2 08     LDA  ($08)
 B5BB  C9 2E     CMP  #$2E
 B5BD  D0 16     BNE  $B5D5
 B5BF  A4 0A     LDY  $0A
 B5C1  C0 01     CPY  #$01
 B5C3  D0 10     BNE  $B5D5
 B5C5  A4 0B     LDY  $0B
 B5C7  D0 0C     BNE  $B5D5
 B5C9  E8        INX  
 B5CA  E8        INX  
 B5CB  A9 40     LDA  #$40
 B5CD  04 32     TSB  $32
 B5CF  20 53 89  JSR  $8953
 B5D2  4C AC B3  JMP  $B3AC
 B5D5  20 9F 8D  JSR  $8D9F
 B5D8  20 62 91  JSR  $9162
 B5DB  20 2A A1  JSR  $A12A
 B5DE  20 70 8F  JSR  $8F70
 B5E1  20 5E 87  JSR  $875E
 B5E4  20 09 A3  JSR  $A309
 B5E7  20 2A A1  JSR  $A12A
 B5EA  20 09 A1  JSR  $A109
 B5ED  20 62 91  JSR  $9162
 B5F0  A5 00     LDA  $00
 B5F2  18        CLC  
 B5F3  69 04     ADC  #$04
 B5F5  85 00     STA  $00
 B5F7  90 02     BCC  $B5FB
 B5F9  E6 01     INC  $01
 B5FB  E6 30     INC  $30
 B5FD  D0 02     BNE  $B601
 B5FF  E6 31     INC  $31
 B601  20 62 91  JSR  $9162
 B604  20 9F 8D  JSR  $8D9F
 B607  CA        DEX  
 B608  CA        DEX  
 B609  A5 08     LDA  $08
 B60B  95 00     STA  $00, X
 B60D  A5 09     LDA  $09
 B60F  95 01     STA  $01, X
 B611  20 2A A1  JSR  $A12A
 B614  CA        DEX  
 B615  CA        DEX  
 B616  A5 0A     LDA  $0A
 B618  95 00     STA  $00, X
 B61A  A5 0B     LDA  $0B
 B61C  95 01     STA  $01, X
 B61E  20 B2 95  JSR  $95B2
 B621  18        CLC  
 B622  A5 00     LDA  $00
 B624  65 0A     ADC  $0A
 B626  85 00     STA  $00
 B628  90 06     BCC  $B630
 B62A  A5 01     LDA  $01
 B62C  65 0B     ADC  $0B
 B62E  85 01     STA  $01
 B630  20 15 98  JSR  $9815
 B633  20 09 A1  JSR  $A109
 B636  20 9F 97  JSR  $979F
 B639  20 9F 97  JSR  $979F
 B63C  20 9F 8D  JSR  $8D9F
 B63F  A5 0A     LDA  $0A
 B641  95 02     STA  $02, X
 B643  A5 0B     LDA  $0B
 B645  95 03     STA  $03, X
 B647  20 09 A1  JSR  $A109
 B64A  20 53 89  JSR  $8953
 B64D  4C B6 B5  JMP  $B5B6
 B650  FA        PLX  
 B651  20 88 B8  JSR  $B888
 B654  20 DD B8  JSR  $B8DD
 B657  B5 00     LDA  $00, X
 B659  15 01     ORA  $01, X
 B65B  D0 08     BNE  $B665
 B65D  20 15 98  JSR  $9815
 B660  20 A2 B6  JSR  $B6A2
 B663  80 33     BRA  $B698
 B665  20 93 B8  JSR  $B893
 B668  B0 03     BCS  $B66D
 B66A  4C 65 B8  JMP  $B865
 B66D  20 34 A3  JSR  $A334
 B670  20 4D 91  JSR  $914D
 B673  B5 00     LDA  $00, X
 B675  15 01     ORA  $01, X
 B677  D0 0D     BNE  $B686
 B679  E8        INX  
 B67A  E8        INX  
 B67B  20 9F 8D  JSR  $8D9F
 B67E  20 A2 B6  JSR  $B6A2
 B681  20 93 97  JSR  $9793
 B684  80 E7     BRA  $B66D
 B686  E8        INX  
 B687  E8        INX  
 B688  B5 02     LDA  $02, X
 B68A  D0 02     BNE  $B68E
 B68C  D6 03     DEC  $03, X
 B68E  D6 02     DEC  $02, X
 B690  B5 02     LDA  $02, X
 B692  85 30     STA  $30
 B694  B5 03     LDA  $03, X
 B696  85 31     STA  $31
 B698  A9 40     LDA  #$40
 B69A  04 32     TSB  $32
 B69C  20 53 89  JSR  $8953
 B69F  4C 92 B5  JMP  $B592
 B6A2  20 9F 8D  JSR  $8D9F
 B6A5  20 EB B8  JSR  $B8EB
 B6A8  20 70 8F  JSR  $8F70
 B6AB  20 2A A1  JSR  $A12A
 B6AE  20 93 97  JSR  $9793
 B6B1  20 EB B8  JSR  $B8EB
 B6B4  20 09 A1  JSR  $A109
 B6B7  60        RTS  
 B6B8  FA        PLX  
 B6B9  A5 2E     LDA  $2E
 B6BB  05 2F     ORA  $2F
 B6BD  D0 08     BNE  $B6C7
 B6BF  CA        DEX  
 B6C0  CA        DEX  
 B6C1  74 00     STZ  $00, X
 B6C3  74 01     STZ  $01, X
 B6C5  80 21     BRA  $B6E8
 B6C7  20 DD B8  JSR  $B8DD
 B6CA  24 32     BIT  $32
 B6CC  30 0C     BMI  $B6DA
 B6CE  CA        DEX  
 B6CF  CA        DEX  
 B6D0  A5 30     LDA  $30
 B6D2  95 00     STA  $00, X
 B6D4  A5 31     LDA  $31
 B6D6  95 01     STA  $01, X
 B6D8  80 0E     BRA  $B6E8
 B6DA  B5 00     LDA  $00, X
 B6DC  15 01     ORA  $01, X
 B6DE  D0 05     BNE  $B6E5
 B6E0  20 15 98  JSR  $9815
 B6E3  80 03     BRA  $B6E8
 B6E5  20 9F 8D  JSR  $8D9F
 B6E8  20 53 89  JSR  $8953
 B6EB  20 AA A4  JSR  $A4AA
 B6EE  20 53 89  JSR  $8953
 B6F1  4C 92 B5  JMP  $B592
 B6F4  FA        PLX  
 B6F5  24 32     BIT  $32
 B6F7  30 17     BMI  $B710
 B6F9  20 53 89  JSR  $8953
 B6FC  20 EC A2  JSR  $A2EC
 B6FF  20 D9 9A  JSR  $9AD9
 B702  20 9F 8D  JSR  $8D9F
 B705  20 AA A4  JSR  $A4AA
 B708  20 5E 96  JSR  $965E
 B70B  20 14 9A  JSR  $9A14
 B70E  80 11     BRA  $B721
 B710  20 15 98  JSR  $9815
 B713  20 53 89  JSR  $8953
 B716  20 AA A4  JSR  $A4AA
 B719  B5 02     LDA  $02, X
 B71B  95 06     STA  $06, X
 B71D  B5 03     LDA  $03, X
 B71F  95 07     STA  $07, X
 B721  20 53 89  JSR  $8953
 B724  4C 92 B5  JMP  $B592
 B727  FA        PLX  
 B728  E8        INX  
 B729  E8        INX  
 B72A  24 32     BIT  $32
 B72C  30 08     BMI  $B736
 B72E  A5 30     LDA  $30
 B730  95 00     STA  $00, X
 B732  A5 31     LDA  $31
 B734  95 01     STA  $01, X
 B736  B5 00     LDA  $00, X
 B738  15 01     ORA  $01, X
 B73A  F0 09     BEQ  $B745
 B73C  20 93 97  JSR  $9793
 B73F  20 23 A7  JSR  $A723
 B742  20 08 95  JSR  $9508
 B745  4C B0 B5  JMP  $B5B0
 B748  FA        PLX  
 B749  A9 01     LDA  #$01
 B74B  04 32     TSB  $32
 B74D  80 05     BRA  $B754
 B74F  FA        PLX  
 B750  A9 01     LDA  #$01
 B752  14 32     TRB  $32
 B754  20 88 B8  JSR  $B888
 B757  20 DD B8  JSR  $B8DD
 B75A  20 53 89  JSR  $8953
 B75D  B5 00     LDA  $00, X
 B75F  15 01     ORA  $01, X
 B761  D0 08     BNE  $B76B
 B763  20 15 98  JSR  $9815
 B766  20 8C B7  JSR  $B78C
 B769  80 1E     BRA  $B789
 B76B  20 34 A3  JSR  $A334
 B76E  20 4D 91  JSR  $914D
 B771  B5 00     LDA  $00, X
 B773  15 01     ORA  $01, X
 B775  D0 10     BNE  $B787
 B777  E8        INX  
 B778  E8        INX  
 B779  20 15 98  JSR  $9815
 B77C  20 8C B7  JSR  $B78C
 B77F  F6 02     INC  $02, X
 B781  D0 02     BNE  $B785
 B783  F6 03     INC  $03, X
 B785  80 E4     BRA  $B76B
 B787  E8        INX  
 B788  E8        INX  
 B789  4C 92 B5  JMP  $B592
 B78C  A5 32     LDA  $32
 B78E  4A        LSR  
 B78F  90 0B     BCC  $B79C
 B791  20 9F 8D  JSR  $8D9F
 B794  20 AA A4  JSR  $A4AA
 B797  A9 09     LDA  #$09
 B799  20 E6 8D  JSR  $8DE6
 B79C  20 EB B8  JSR  $B8EB
 B79F  20 2B B9  JSR  $B92B
 B7A2  60        RTS  
 B7A3  FA        PLX  
 B7A4  24 32     BIT  $32
 B7A6  50 03     BVC  $B7AB
 B7A8  4C 65 B8  JMP  $B865
 B7AB  4C 99 B5  JMP  $B599
 B7AE  FA        PLX  
 B7AF  4C 99 B5  JMP  $B599
 B7B2  FA        PLX  
 B7B3  20 88 B8  JSR  $B888
 B7B6  24 32     BIT  $32
 B7B8  30 13     BMI  $B7CD
 B7BA  B5 06     LDA  $06, X
 B7BC  15 07     ORA  $07, X
 B7BE  D0 03     BNE  $B7C3
 B7C0  4C 65 B8  JMP  $B865
 B7C3  B5 06     LDA  $06, X
 B7C5  95 02     STA  $02, X
 B7C7  B5 07     LDA  $07, X
 B7C9  95 03     STA  $03, X
 B7CB  80 08     BRA  $B7D5
 B7CD  B5 02     LDA  $02, X
 B7CF  95 06     STA  $06, X
 B7D1  B5 03     LDA  $03, X
 B7D3  95 07     STA  $07, X
 B7D5  A9 2E     LDA  #$2E
 B7D7  95 00     STA  $00, X
 B7D9  A9 00     LDA  #$00
 B7DB  95 01     STA  $01, X
 B7DD  20 15 98  JSR  $9815
 B7E0  20 EC A2  JSR  $A2EC
 B7E3  20 70 8F  JSR  $8F70
 B7E6  B5 00     LDA  $00, X
 B7E8  15 01     ORA  $01, X
 B7EA  F0 55     BEQ  $B841
 B7EC  20 34 A3  JSR  $A334
 B7EF  20 1E A4  JSR  $A41E
 B7F2  20 9F 97  JSR  $979F
 B7F5  20 9F 97  JSR  $979F
 B7F8  20 9F 8D  JSR  $8D9F
 B7FB  20 70 8F  JSR  $8F70
 B7FE  20 2A A1  JSR  $A12A
 B801  20 9F 97  JSR  $979F
 B804  20 9F 97  JSR  $979F
 B807  20 70 8F  JSR  $8F70
 B80A  20 5E 96  JSR  $965E
 B80D  20 2A A1  JSR  $A12A
 B810  20 D9 9A  JSR  $9AD9
 B813  20 9F 8D  JSR  $8D9F
 B816  20 EC A2  JSR  $A2EC
 B819  20 B2 95  JSR  $95B2
 B81C  20 14 9A  JSR  $9A14
 B81F  20 A4 A3  JSR  $A3A4
 B822  20 5E 96  JSR  $965E
 B825  20 65 99  JSR  $9965
 B828  20 9F 8D  JSR  $8D9F
 B82B  CA        DEX  
 B82C  CA        DEX  
 B82D  A9 0A     LDA  #$0A
 B82F  95 00     STA  $00, X
 B831  74 01     STZ  $01, X
 B833  20 2A A1  JSR  $A12A
 B836  20 09 A1  JSR  $A109
 B839  20 9F 97  JSR  $979F
 B83C  20 2A A1  JSR  $A12A
 B83F  80 A2     BRA  $B7E3
 B841  20 2A A1  JSR  $A12A
 B844  20 14 9A  JSR  $9A14
 B847  20 40 95  JSR  $9540
 B84A  B5 00     LDA  $00, X
 B84C  95 04     STA  $04, X
 B84E  B5 01     LDA  $01, X
 B850  95 05     STA  $05, X
 B852  20 53 89  JSR  $8953
 B855  20 9F 8D  JSR  $8D9F
 B858  20 AA A4  JSR  $A4AA
 B85B  20 53 89  JSR  $8953
 B85E  A9 40     LDA  #$40
 B860  14 32     TRB  $32
 B862  4C 92 B5  JMP  $B592
 B865  E8        INX  
 B866  E8        INX  
 B867  E8        INX  
 B868  E8        INX  
 B869  20 53 89  JSR  $8953
 B86C  A9 3F     LDA  #$3F
 B86E  20 E6 8D  JSR  $8DE6
 B871  20 53 89  JSR  $8953
 B874  4C AC B3  JMP  $B3AC
 B877  20 7A 9A  JSR  $9A7A
 B87A  B5 00     LDA  $00, X
 B87C  15 01     ORA  $01, X
 B87E  D0 05     BNE  $B885
 B880  7A        PLY  
 B881  7A        PLY  
 B882  4C 67 B8  JMP  $B867
 B885  E8        INX  
 B886  E8        INX  
 B887  60        RTS  
 B888  A5 2E     LDA  $2E
 B88A  05 2F     ORA  $2F
 B88C  D0 04     BNE  $B892
 B88E  7A        PLY  
 B88F  7A        PLY  
 B890  80 D7     BRA  $B869
 B892  60        RTS  
 B893  38        SEC  
 B894  B5 00     LDA  $00, X
 B896  15 01     ORA  $01, X
 B898  F0 19     BEQ  $B8B3
 B89A  20 9F 8D  JSR  $8D9F
 B89D  20 B5 B8  JSR  $B8B5
 B8A0  20 2A A1  JSR  $A12A
 B8A3  20 58 93  JSR  $9358
 B8A6  B5 00     LDA  $00, X
 B8A8  15 01     ORA  $01, X
 B8AA  D0 05     BNE  $B8B1
 B8AC  E8        INX  
 B8AD  E8        INX  
 B8AE  38        SEC  
 B8AF  80 03     BRA  $B8B4
 B8B1  E8        INX  
 B8B2  E8        INX  
 B8B3  18        CLC  
 B8B4  60        RTS  
 B8B5  64 24     STZ  $24
 B8B7  64 25     STZ  $25
 B8B9  CA        DEX  
 B8BA  CA        DEX  
 B8BB  A9 2E     LDA  #$2E
 B8BD  95 00     STA  $00, X
 B8BF  A9 00     LDA  #$00
 B8C1  95 01     STA  $01, X
 B8C3  20 70 8F  JSR  $8F70
 B8C6  B5 00     LDA  $00, X
 B8C8  15 01     ORA  $01, X
 B8CA  F0 08     BEQ  $B8D4
 B8CC  E6 24     INC  $24
 B8CE  D0 02     BNE  $B8D2
 B8D0  E6 25     INC  $25
 B8D2  80 EF     BRA  $B8C3
 B8D4  A5 24     LDA  $24
 B8D6  95 00     STA  $00, X
 B8D8  A5 25     LDA  $25
 B8DA  95 01     STA  $01, X
 B8DC  60        RTS  
 B8DD  B5 02     LDA  $02, X
 B8DF  15 03     ORA  $03, X
 B8E1  D0 07     BNE  $B8EA
 B8E3  24 32     BIT  $32
 B8E5  10 03     BPL  $B8EA
 B8E7  4C 65 B8  JMP  $B865
 B8EA  60        RTS  
 B8EB  CA        DEX  
 B8EC  CA        DEX  
 B8ED  A9 2E     LDA  #$2E
 B8EF  95 00     STA  $00, X
 B8F1  A9 00     LDA  #$00
 B8F3  95 01     STA  $01, X
 B8F5  B5 02     LDA  $02, X
 B8F7  15 03     ORA  $03, X
 B8F9  D0 05     BNE  $B900
 B8FB  20 32 96  JSR  $9632
 B8FE  80 21     BRA  $B921
 B900  20 70 8F  JSR  $8F70
 B903  B5 00     LDA  $00, X
 B905  15 01     ORA  $01, X
 B907  D0 05     BNE  $B90E
 B909  20 32 96  JSR  $9632
 B90C  80 13     BRA  $B921
 B90E  20 2A A1  JSR  $A12A
 B911  20 93 97  JSR  $9793
 B914  B5 00     LDA  $00, X
 B916  15 01     ORA  $01, X
 B918  F0 05     BEQ  $B91F
 B91A  20 2A A1  JSR  $A12A
 B91D  80 E1     BRA  $B900
 B91F  E8        INX  
 B920  E8        INX  
 B921  60        RTS  
 B922  B5 02     LDA  $02, X
 B924  85 30     STA  $30
 B926  B5 03     LDA  $03, X
 B928  85 31     STA  $31
 B92A  60        RTS  
 B92B  20 9F 97  JSR  $979F
 B92E  20 9F 97  JSR  $979F
 B931  20 9F 8D  JSR  $8D9F
 B934  20 9F 97  JSR  $979F
 B937  20 9F 97  JSR  $979F
 B93A  20 70 8F  JSR  $8F70
 B93D  20 2A A1  JSR  $A12A
 B940  20 70 8F  JSR  $8F70
 B943  20 2A A1  JSR  $A12A
 B946  20 7F A4  JSR  $A47F
 B949  20 53 89  JSR  $8953
 B94C  60        RTS  
 B94D  61 66 69 64 70 6E 3D 77 71 51 00 A1 B5 F4 B6 27  |afidpn=wqQ.....'|
 B95D  B7 50 B6 4F B7 48 B7 B8 B6 B2 B7 A3 B7 AE B7 20  |.P.O.H......... |
 B96D  3A 20 75 70 74 69 6D 65 20 20 31 33 30 20 40 20  |: uptime  130 @ |
 B97D  31 33 32 20 40 20 32 30 30 20 75 6D 2F 6D 6F 64  |132 @ 200 um/mod|
 B98D  20 73 3E 64 20 36 30 20 75 6D 2F 6D 6F 64 20 73  | s>d 60 um/mod s|
 B99D  3E 64 20 36 30 20 75 6D 2F 6D 6F 64 20 63 72 20  |>d 60 um/mod cr |
 B9AD  2E 20 2E 22 20 68 20 22 20 2E 20 2E 22 20 6D 20  |. ." h " . ." m |
 B9BD  22 20 2E 20 2E 22 20 2C 22 20 32 2F 20 2E 20 2E  |" . ." ," 2/ . .|
 B9CD  22 20 73 22 20 63 72 20 3B 0A 20 3A 20 6C 20 32  |" s" cr ;. : l 2|
 B9DD  35 36 20 30 20 64 6F 20 69 20 36 35 34 32 35 20  |56 0 do i 65425 |
 B9ED  21 20 6C 6F 6F 70 20 3B 0A 20 3A 20 6C 69 67 68  |! loop ;. : ligh|
 B9FD  74 73 20 30 20 64 6F 20 6C 20 6C 6F 6F 70 20 3B  |ts 0 do l loop ;|
 BA0D  0A 0A 63 72 20 2E 28 20 54 61 6C 69 20 46 6F 72  |..cr .( Tali For|
 BA1D  74 68 20 32 29 20 63 72 20 20 03 00 00 00 ED 85  |th 2) cr  ......|
 BA2D  F0 85 62 79 65 04 00 27 BA 00 80 C5 80 63 6F 6C  |..bye..'.....col|
 BA3D  64 08 10 32 BA 9C A8 A4 A8 6C 63 64 70 72 69 6E  |d..2.....lcdprin|
 BA4D  74 02 08 3E BA AD 8D B0 8D 65 64 03 08 4E BA 03  |t..>.....ed..N..|
 BA5D  9C 90 9C 73 65 65 05 00 58 BA B8 90 BE 90 66 6F  |...see..X.....fo|
 BA6D  72 74 68 05 00 63 BA C7 97 F1 97 6F 72 64 65 72  |rth..c.....order|
 BA7D  06 00 70 BA D9 A2 EB A2 3E 6F 72 64 65 72 08 00  |..p.....>order..|
 BA8D  7D BA D7 99 E3 99 70 72 65 76 69 6F 75 73 04 00  |}.....previous..|
 BA9D  8B BA 20 83 2F 83 61 6C 73 6F 04 00 9B BA A9 97  |.. ./.also......|
 BAAD  B4 97 6F 6E 6C 79 0E 00 A7 BA 23 A7 29 A7 66 6F  |..only....#.).fo|
 BABD  72 74 68 2D 77 6F 72 64 6C 69 73 74 0F 00 B3 BA  |rth-wordlist....|
 BACD  8A 97 92 97 65 64 69 74 6F 72 2D 77 6F 72 64 6C  |....editor-wordl|
 BADD  69 73 74 12 00 C9 BA 23 A3 2B A3 61 73 73 65 6D  |ist....#.+.assem|
 BAED  62 6C 65 72 2D 77 6F 72 64 6C 69 73 74 0D 00 E0  |bler-wordlist...|
 BAFD  BA D0 9A D8 9A 72 6F 6F 74 2D 77 6F 72 64 6C 69  |.....root-wordli|
 BB0D  73 74 09 00 FA BA 24 91 4C 91 67 65 74 2D 6F 72  |st....$.L.get-or|
 BB1D  64 65 72 09 00 0F BB 9D 9C D0 9C 73 65 74 2D 6F  |der........set-o|
 BB2D  72 64 65 72 0B 00 20 BB 19 91 23 91 67 65 74 2D  |rder.. ...#.get-|
 BB3D  63 75 72 72 65 6E 74 0B 10 31 BB 91 9C 9C 9C 73  |current..1.....s|
 BB4D  65 74 2D 63 75 72 72 65 6E 74 0F 10 44 BB 22 9B  |et-current..D.".|
 BB5D  02 9C 73 65 61 72 63 68 2D 77 6F 72 64 6C 69 73  |..search-wordlis|
 BB6D  74 08 00 57 BB 7D A6 93 A6 77 6F 72 64 6C 69 73  |t..W.}...wordlis|
 BB7D  74 0B 00 6E BB DD 8A E5 8A 64 65 66 69 6E 69 74  |t..n.....definit|
 BB8D  69 6F 6E 73 13 10 7E BB 04 84 2C 85 62 6C 6F 63  |ions..~...,.bloc|
 BB9D  6B 2D 72 61 6D 64 72 69 76 65 2D 69 6E 69 74 04  |k-ramdrive-init.|
 BBAD  10 91 BB 6D 93 79 93 6C 69 73 74 04 10 AC BB 48  |...m.y.list....H|
 BBBD  A1 8C A1 74 68 72 75 04 10 B8 BB A7 93 EA 93 6C  |...thru........l|
 BBCD  6F 61 64 05 00 C4 BB 77 90 80 90 66 6C 75 73 68  |oad....w...flush|
 BBDD  0D 00 D0 BB E9 8D EF 8D 65 6D 70 74 79 2D 62 75  |........empty-bu|
 BBED  66 66 65 72 73 06 00 DD BB A5 85 D5 85 62 75 66  |ffers........buf|
 BBFD  66 65 72 06 00 F2 BB E0 A5 E8 A5 75 70 64 61 74  |fer........updat|
 BC0D  65 05 00 00 BC B1 83 03 84 62 6C 6F 63 6B 0C 00  |e........block..|
 BC1D  0E BC 40 9E 5A 9E 73 61 76 65 2D 62 75 66 66 65  |..@.Z.save-buffe|
 BC2D  72 73 11 28 1B BC 3B 85 4A 85 62 6C 6F 63 6B 2D  |rs.(..;.J.block-|
 BC3D  72 65 61 64 2D 76 65 63 74 6F 72 0A 28 2F BC 2D  |read-vector.(/.-|
 BC4D  85 3B 85 62 6C 6F 63 6B 2D 72 65 61 64 12 08 48  |.;.block-read..H|
 BC5D  BC 5E 85 6D 85 62 6C 6F 63 6B 2D 77 72 69 74 65  |.^.m.block-write|
 BC6D  2D 76 65 63 74 6F 72 0B 08 5A BC 50 85 5E 85 62  |-vector..Z.P.^.b|
 BC7D  6C 6F 63 6B 2D 77 72 69 74 65 03 00 74 BC 93 83  |lock-write..t...|
 BC8D  A2 83 62 6C 6B 03 00 87 BC 5B 9E 6A 9E 73 63 72  |..blk....[.j.scr|
 BC9D  09 00 92 BC A3 83 B0 83 62 6C 6B 62 75 66 66 65  |........blkbuffe|
 BCAD  72 0C 00 9D BC 95 85 A4 85 62 75 66 66 62 6C 6F  |r........buffblo|
 BCBD  63 6B 6E 75 6D 0A 00 AE BC DD 85 EC 85 62 75 66  |cknum........buf|
 BCCD  66 73 74 61 74 75 73 07 00 C2 BC D6 85 DC 85 62  |fstatus........b|
 BCDD  75 66 66 65 72 3A 08 00 D4 BC E9 A5 F3 A5 75 73  |uffer:........us|
 BCED  65 72 61 64 64 72 09 04 E3 BC 70 82 88 82 61 63  |eraddr....p...ac|
 BCFD  74 69 6F 6E 2D 6F 66 02 04 F3 BC EB 92 03 93 69  |tion-of........i|
 BD0D  73 06 00 04 BD D6 8A DC 8A 64 65 66 65 72 21 06  |s........defer!.|
 BD1D  00 0E BD CF 8A D5 8A 64 65 66 65 72 40 07 0D 1C  |.......defer@...|
 BD2D  BD F0 8D 04 8E 65 6E 64 63 61 73 65 05 0D 2A BD  |.....endcase..*.|
 BD3D  B1 8D CA 8D 65 6E 64 6F 66 02 0D 39 BD 71 97 89  |....endof..9.q..|
 BD4D  97 6F 66 04 0D 46 BD 23 A7 29 A7 63 61 73 65 05  |.of..F.#.).case.|
 BD5D  0D 50 BD 0D A6 20 A6 77 68 69 6C 65 05 0D 5C BD  |.P... .while..\.|
 BD6D  C5 A5 CF A5 75 6E 74 69 6C 06 0D 69 BD BC 9A C8  |....until..i....|
 BD7D  9A 72 65 70 65 61 74 04 0D 76 BD B1 8D CA 8D 65  |.repeat..v.....e|
 BD8D  6C 73 65 04 0D 84 BD 3E A1 47 A1 74 68 65 6E 02  |lse....>.G.then.|
 BD9D  0D 90 BD F3 91 03 92 69 66 02 04 9C BD 48 8C 56  |.......if....H.V|
 BDAD  8C 2E 28 01 04 A6 BD 51 98 60 98 28 04 10 B0 BD  |..(....Q.`.(....|
 BDBD  37 A6 7C A6 77 6F 72 64 04 10 B9 BD 83 8F CA 8F  |7.|.word........|
 BDCD  66 69 6E 64 0C 10 C5 BD 05 8E 81 8E 65 6E 76 69  |find........envi|
 BDDD  72 6F 6E 6D 65 6E 74 3F 06 18 D1 BD 6B 9E 09 9F  |ronment?....k...|
 BDED  73 65 61 72 63 68 07 10 E5 BD 78 87 DC 87 63 6F  |search....x...co|
 BDFD  6D 70 61 72 65 06 10 F3 BD 2A 8B 30 8B 64 69 73  |mpare....*.0.dis|
 BE0D  61 73 6D 02 00 02 BE 90 8C D3 8C 2E 73 04 10 10  |asm.........s...|
 BE1D  BE 24 8D 8A 8D 64 75 6D 70 04 00 1A BE 84 83 89  |.$...dump.......|
 BE2D  83 62 65 6C 6C 05 00 26 BE AA 82 AA 82 61 6C 69  |.bell..&.....ali|
 BE3D  67 6E 07 00 32 BE AA 82 AA 82 61 6C 69 67 6E 65  |gn..2.....aligne|
 BE4D  64 08 10 3F BE F0 A6 10 A7 77 6F 72 64 73 69 7A  |d..?.....wordsiz|
 BE5D  65 05 00 4E BE 94 A6 EF A6 77 6F 72 64 73 06 04  |e..N.....words..|
 BE6D  5E BE 99 94 D6 94 6D 61 72 6B 65 72 05 10 6B BE  |^.....marker..k.|
 BE7D  50 83 6D 83 61 74 2D 78 79 04 00 79 BE 33 98 50  |P.m.at-xy..y.3.P|
 BE8D  98 70 61 67 65 02 00 86 BE 53 89 58 89 63 72 05  |.page....S.X.cr.|
 BE9D  00 92 BE 47 92 51 92 69 6E 70 75 74 06 00 9C BE  |...G.Q.input....|
 BEAD  0A 98 14 98 6F 75 74 70 75 74 04 10 A9 BE 69 9F  |....output....i.|
 BEBD  7D 9F 73 69 67 6E 04 10 B7 BE C7 91 D8 91 68 6F  |}.sign........ho|
 BECD  6C 64 02 10 C3 BE 3E 97 5F 97 23 3E 02 10 CF BE  |ld....>._.#>....|
 BEDD  60 97 70 97 23 73 01 10 D9 BE 09 97 3D 97 23 02  |`.p.#s......=.#.|
 BEED  00 E3 BE 4A 93 57 93 3C 23 03 00 EC BE 2E A2 38  |...J.W.<#......8|
 BEFD  A2 3E 69 6E 06 10 F6 BE 21 A6 36 A6 77 69 74 68  |.>in....!.6.with|
 BF0D  69 6E 08 10 01 BF 74 91 C6 91 68 65 78 73 74 6F  |in....t...hexsto|
 BF1D  72 65 06 10 0F BF 3C 86 88 86 63 6C 65 61 76 65  |re....<...cleave|
 BF2D  03 00 1F BF 23 98 32 98 70 61 64 05 10 2D BF 89  |....#.2.pad..-..|
 BF3D  86 C3 86 63 6D 6F 76 65 06 10 38 BF C4 86 FE 86  |...cmove..8.....|
 BF4D  63 6D 6F 76 65 3E 04 18 45 BF B2 95 D0 95 6D 6F  |cmove>..E.....mo|
 BF5D  76 65 01 04 53 BF 6E 83 76 83 5C 02 10 5F BF E5  |ve..S.n.v.\.._..|
 BF6D  A0 ED A0 2A 2F 05 10 68 BF EE A0 FD A0 2A 2F 6D  |...*/..h.....*/m|
 BF7D  6F 64 03 10 72 BF A9 95 B1 95 6D 6F 64 04 10 7F  |od..r.....mod...|
 BF8D  BF 83 9F 9A 9F 2F 6D 6F 64 01 10 8A BF 7E 9F 9A  |...../mod....~..|
 BF9D  9F 2F 06 10 96 BF 81 90 B7 90 66 6D 2F 6D 6F 64  |./........fm/mod|
 BFAD  06 10 9F BF 57 A0 7F A0 73 6D 2F 72 65 6D 06 10  |....W...sm/rem..|
 BFBD  AD BF 36 A5 77 A5 75 6D 2F 6D 6F 64 01 10 BB BF  |..6.w.um/mod....|
 BFCD  DC A0 E4 A0 2A 03 10 C9 BF 78 A5 BD A5 75 6D 2A  |....*....x...um*|
 BFDD  02 10 D2 BF 7E 94 98 94 6D 2A 05 10 DD BF 3F 89  |....~...m*....?.|
 BFED  52 89 63 6F 75 6E 74 07 00 E7 BF 95 8A 9B 8A 64  |R.count........d|
 BFFD  65 63 69 6D 61 6C 03 00 F4 BF 6D 91 73 91 68 65  |ecimal....m.s.he|
 C00D  78 07 10 03 C0 39 A2 D8 A2 3E 6E 75 6D 62 65 72  |x....9...>number|
 C01D  06 10 0E C0 7A 96 08 97 6E 75 6D 62 65 72 06 10  |....z...number..|
 C02D  1D C0 F5 8A 29 8B 64 69 67 69 74 3F 04 00 2B C0  |....).digit?..+.|
 C03D  77 83 7F 83 62 61 73 65 08 10 39 C0 C5 90 18 91  |w...base..9.....|
 C04D  65 76 61 6C 75 61 74 65 05 00 45 C0 FE A0 08 A1  |evaluate..E.....|
 C05D  73 74 61 74 65 05 17 55 C0 89 82 A9 82 61 67 61  |state..U.....aga|
 C06D  69 6E 05 07 62 C0 80 83 83 83 62 65 67 69 6E 04  |in..b.....begin.|
 C07D  00 6F C0 83 80 C5 80 71 75 69 74 07 0D 7C C0 3D  |.o.....quit..|.=|
 C08D  9A 79 9A 72 65 63 75 72 73 65 05 03 88 C0 40 93  |.y.recurse....@.|
 C09D  45 93 6C 65 61 76 65 06 03 97 C0 BE A5 C4 A5 75  |E.leave........u|
 C0AD  6E 6C 6F 6F 70 04 03 A4 C0 68 8F 69 8F 65 78 69  |nloop....h.i.exi|
 C0BD  74 05 05 B2 C0 F2 93 58 94 2B 6C 6F 6F 70 04 05  |t......X.+loop..|
 C0CD  BE C0 EB 93 58 94 6C 6F 6F 70 01 03 CB C0 04 93  |....X.loop......|
 C0DD  1D 93 6A 01 03 D7 C0 D9 91 F2 91 69 03 0D E0 C0  |..j........i....|
 C0ED  4C 8B AC 8B 3F 64 6F 02 0D E9 C0 52 8B AC 8B 64  |L...?do....R...d|
 C0FD  6F 06 0D F4 C0 19 81 23 81 61 62 6F 72 74 22 05  |o......#.abort".|
 C10D  00 FE C0 81 80 C5 80 61 62 6F 72 74 0F 00 0C C1  |.......abort....|
 C11D  1F A1 29 A1 73 74 72 69 70 2D 75 6E 64 65 72 66  |..).strip-underf|
 C12D  6C 6F 77 08 00 19 C1 08 96 12 96 6E 63 2D 6C 69  |low........nc-li|
 C13D  6D 69 74 0C 00 30 C1 14 83 1F 83 61 6C 6C 6F 77  |mit..0.....allow|
 C14D  2D 6E 61 74 69 76 65 0D 00 40 C1 30 83 3D 83 61  |-native..@.0.=.a|
 C15D  6C 77 61 79 73 2D 6E 61 74 69 76 65 0C 00 54 C1  |lways-native..T.|
 C16D  24 96 31 96 6E 65 76 65 72 2D 6E 61 74 69 76 65  |$.1.never-native|
 C17D  0C 00 69 C1 F5 88 00 89 63 6F 6D 70 69 6C 65 2D  |..i.....compile-|
 C18D  6F 6E 6C 79 09 00 7D C1 3B 92 46 92 69 6D 6D 65  |only..}.;.F.imme|
 C19D  64 69 61 74 65 08 05 91 C1 98 99 D6 99 70 6F 73  |diate........pos|
 C1AD  74 70 6F 6E 65 03 04 A2 C1 09 9B 12 9B 73 5C 22  |tpone........s\"|
 C1BD  02 0C B2 C1 D1 9C 2D 9E 73 22 02 05 BD C1 57 8C  |......-.s"....W.|
 C1CD  61 8C 2E 22 08 15 C7 C1 BB 9F 2A A0 73 6C 69 74  |a.."......*.slit|
 C1DD  65 72 61 6C 07 15 D1 C1 7A 93 87 93 6C 69 74 65  |eral....z...lite|
 C1ED  72 61 6C 01 04 E1 C1 C9 9A CF 9A 5D 01 05 F0 C1  |ral........]....|
 C1FD  45 93 49 93 5B 08 18 F9 C1 DD 87 F4 88 63 6F 6D  |E.I.[........com|
 C20D  70 69 6C 65 2C 07 00 02 C2 42 87 5D 87 3A 6E 6F  |pile,....B.].:no|
 C21D  6E 61 6D 65 01 05 12 C2 0A 9F 68 9F 3B 01 00 21  |name......h.;..!|
 C22D  C2 FF 86 41 87 3A 09 00 2A C2 95 A0 9F A0 73 6F  |...A.:..*.....so|
 C23D  75 72 63 65 2D 69 64 06 00 33 C2 80 A0 94 A0 73  |urce-id..3.....s|
 C24D  6F 75 72 63 65 0F 10 44 C2 41 8F 67 8F 65 78 65  |ource..D.A.g.exe|
 C25D  63 75 74 65 2D 70 61 72 73 69 6E 67 05 10 52 C2  |cute-parsing..R.|
 C26D  BC 98 53 99 70 61 72 73 65 0A 08 69 C2 61 98 53  |..S.parse..i.a.S|
 C27D  99 70 61 72 73 65 2D 6E 61 6D 65 08 00 76 C2 2B  |.parse-name..v.+|
 C28D  93 38 93 6C 61 74 65 73 74 6E 74 08 00 88 C2 39  |.8.latestnt....9|
 C29D  93 3F 93 6C 61 74 65 73 74 78 74 05 00 98 C2 9C  |.?.latestxt.....|
 C2AD  8A CE 8A 64 65 66 65 72 05 10 A8 C2 09 A2 2D A2  |...defer......-.|
 C2BD  3E 62 6F 64 79 0B 10 B5 C2 EE 95 07 96 6E 61 6D  |>body........nam|
 C2CD  65 3E 73 74 72 69 6E 67 08 10 C2 C2 68 92 DA 92  |e>string....h...|
 C2DD  69 6E 74 3E 6E 61 6D 65 08 10 D5 C2 D1 95 ED 95  |int>name........|
 C2ED  6E 61 6D 65 3E 69 6E 74 03 05 E5 C2 8E 85 94 85  |name>int........|
 C2FD  5B 27 5D 01 00 F5 C2 8D A1 AC A1 27 09 10 00 C3  |[']........'....|
 C30D  CB 8F 76 90 66 69 6E 64 2D 6E 61 6D 65 04 10 09  |..v.find-name...|
 C31D  C3 EA 8E 2C 8F 66 69 6C 6C 05 00 1A C3 DA 8E 2C  |...,.fill......,|
 C32D  8F 62 6C 61 6E 6B 05 00 26 C3 E4 8E 2C 8F 65 72  |.blank..&...,.er|
 C33D  61 73 65 02 10 33 C3 4F 8A 6F 8A 64 2B 02 10 40  |ase..3.O.o.d+..@|
 C34D  C3 2E 8A 4E 8A 64 2D 03 10 4A C3 70 8A 75 8A 64  |...N.d-..J.p.u.d|
 C35D  3E 73 03 10 54 C3 2E 9E 3F 9E 73 3E 64 02 0C 5F  |>s..T...?.s>d.._|
 C36D  C3 AD A1 08 A2 74 6F 05 10 6A C3 01 89 3E 89 76  |.....to..j...>.v|
 C37D  61 6C 75 65 08 10 74 C3 01 89 3E 89 63 6F 6E 73  |alue..t...>.cons|
 C38D  74 61 6E 74 08 00 81 C3 F4 A5 0C A6 76 61 72 69  |tant........vari|
 C39D  61 62 6C 65 05 05 91 C3 E5 8B F3 8B 64 6F 65 73  |able........does|
 C3AD  3E 06 00 A1 C3 59 89 2D 8A 63 72 65 61 74 65 05  |>....Y.-.create.|
 C3BD  10 AE C3 AB 82 13 83 61 6C 6C 6F 74 03 00 BC C3  |.......allot....|
 C3CD  1E 93 27 93 6B 65 79 05 00 C9 C3 E6 8A F4 8A 64  |..'.key........d|
 C3DD  65 70 74 68 06 00 D4 C3 D0 A5 DF A5 75 6E 75 73  |epth........unus|
 C3ED  65 64 07 08 E1 C3 25 9A 3C 9A 72 3E 69 6E 70 75  |ed....%.<.r>inpu|
 C3FD  74 07 08 EF C3 52 92 67 92 69 6E 70 75 74 3E 72  |t....R.g.input>r|
 C40D  06 18 FE C3 4E 81 46 82 61 63 63 65 70 74 06 00  |....N.F.accept..|
 C41D  0D C4 7A 9A BB 9A 72 65 66 69 6C 6C 07 10 1B C4  |..z...refill....|
 C42D  9B 9F BA 9F 2F 73 74 72 69 6E 67 08 10 29 C4 53  |..../string..).S|
 C43D  95 6B 95 2D 6C 65 61 64 69 6E 67 09 10 38 C4 6C  |.k.-leading..8.l|
 C44D  95 A8 95 2D 74 72 61 69 6C 69 6E 67 02 00 48 C4  |...-trailing..H.|
 C45D  8A 83 92 83 62 6C 06 10 59 C4 A6 A0 DB A0 73 70  |....bl..Y.....sp|
 C46D  61 63 65 73 06 10 63 C4 6E 85 86 85 62 6F 75 6E  |aces..c.n...boun|
 C47D  64 73 02 10 71 C4 F0 85 FA 85 63 2C 07 10 7F C4  |ds..q.....c,....|
 C48D  31 8B 4B 8B 64 6E 65 67 61 74 65 06 10 89 C4 13  |1.K.dnegate.....|
 C49D  96 23 96 6E 65 67 61 74 65 06 10 98 C4 DB 92 EA  |.#.negate.......|
 C4AD  92 69 6E 76 65 72 74 03 11 A6 C4 1E A4 3D A4 32  |.invert......=.2|
 C4BD  3E 72 03 01 B4 C4 A4 A3 C0 A3 32 72 3E 03 09 BF  |>r........2r>...|
 C4CD  C4 86 A3 A3 A3 32 72 40 08 14 CA C4 63 A4 6F A4  |.....2r@....c.o.|
 C4DD  32 6C 69 74 65 72 61 6C 09 10 D5 C4 3E A4 62 A4  |2literal....>.b.|
 C4ED  32 63 6F 6E 73 74 61 6E 74 09 00 E5 C4 70 A4 7E  |2constant....p.~|
 C4FD  A4 32 76 61 72 69 61 62 6C 65 02 10 F6 C4 4C A3  |.2variable....L.|
 C50D  6D A3 32 40 02 10 07 C5 D4 A3 F9 A3 32 21 05 10  |m.2@........2!..|
 C51D  11 C5 6E A3 85 A3 32 6F 76 65 72 05 10 1B C5 FA  |..n...2over.....|
 C52D  A3 1D A4 32 73 77 61 70 05 10 28 C5 2C A3 33 A3  |...2swap..(.,.3.|
 C53D  32 64 72 6F 70 03 10 35 C5 08 95 23 95 6D 61 78  |2drop..5...#.max|
 C54D  03 10 42 C5 24 95 3F 95 6D 69 6E 02 10 4D C5 52  |..B.$.?.min..M.R|
 C55D  A7 61 A7 30 3C 02 10 58 C5 3E A7 51 A7 30 3E 03  |.a.0<..X.>.Q.0>.|
 C56D  10 62 C5 62 A7 73 A7 30 3C 3E 02 10 6C C5 2A A7  |.b.b.s.0<>..l.*.|
 C57D  3D A7 30 3D 01 10 77 C5 4D 91 61 91 3E 02 10 81  |=.0=..w.M.a.>...|
 C58D  C5 D8 A4 ED A4 75 3E 02 10 8A C5 EE A4 03 A5 75  |.....u>........u|
 C59D  3C 01 10 94 C5 58 93 6C 93 3C 02 10 9E C5 40 96  |<....X.l.<....@.|
 C5AD  5D 96 3C 3E 01 10 A7 C5 BE 8E D9 8E 3D 02 10 B1  |].<>........=...|
 C5BD  C5 C1 A3 CB A3 32 2F 02 10 BA C5 CC A3 D3 A3 32  |.....2/........2|
 C5CD  2A 02 10 C4 C5 9F 97 A8 97 31 2B 02 10 CE C5 93  |*........1+.....|
 C5DD  97 9E 97 31 2D 04 00 D8 C5 62 91 6C 91 68 65 72  |...1-....b.l.her|
 C5ED  65 05 10 E2 C5 11 86 20 86 63 65 6C 6C 2B 05 00  |e...... .cell+..|
 C5FD  EE C5 CC A3 D3 A3 63 65 6C 6C 73 05 12 FB C5 38  |......cells....8|
 C60D  86 3B 86 63 68 61 72 73 05 00 08 C6 9F 97 A8 97  |.;.chars........|
 C61D  63 68 61 72 2B 06 05 15 C6 87 85 8D 85 5B 63 68  |char+........[ch|
 C62D  61 72 5D 04 00 22 C6 21 86 37 86 63 68 61 72 04  |ar]..".!.7.char.|
 C63D  00 30 C6 54 99 64 99 70 69 63 6B 06 10 3C C6 6A  |.0.T.d.pick..<.j|
 C64D  94 7D 94 6C 73 68 69 66 74 06 10 48 C6 F5 9A 08  |.}.lshift..H....|
 C65D  9B 72 73 68 69 66 74 03 10 56 C6 11 A7 22 A7 78  |.rshift..V...".x|
 C66D  6F 72 02 10 64 C6 B5 97 C6 97 6F 72 03 10 6F C6  |or..d.....or..o.|
 C67D  3E 83 4F 83 61 6E 64 04 10 79 C6 76 8A 94 8A 64  |>.O.and..y.v...d|
 C68D  61 62 73 03 10 84 C6 39 81 4D 81 61 62 73 01 10  |abs....9.M.abs..|
 C69D  90 C6 40 95 52 95 2D 01 10 9B C6 65 99 77 99 2B  |..@.R.-....e.w.+|
 C6AD  04 10 A4 C6 EB 99 FE 99 3F 64 75 70 04 10 AD C6  |........?dup....|
 C6BD  34 A3 4B A3 32 64 75 70 01 00 B9 C6 23 A3 2B A3  |4.K.2dup....#.+.|
 C6CD  32 01 00 C5 C6 8A 97 92 97 31 01 00 CE C6 23 A7  |2........1....#.|
 C6DD  29 A7 30 05 00 D7 C6 A0 A0 A5 A0 73 70 61 63 65  |).0........space|
 C6ED  04 00 E0 C6 00 A3 08 A3 74 72 75 65 05 00 ED C6  |........true....|
 C6FD  69 8F 6F 8F 66 61 6C 73 65 01 00 F9 C6 E4 99 EA  |i.o.false.......|
 C70D  99 3F 04 10 06 C7 17 A5 35 A5 75 64 2E 72 03 10  |.?......5.ud.r..|
 C71D  0F C7 04 A5 16 A5 75 64 2E 03 10 1B C7 F3 8C 1D  |......ud........|
 C72D  8D 64 2E 72 02 10 26 C7 D4 8C F2 8C 64 2E 02 10  |.d.r..&.....d...|
 C73D  31 C7 62 8C 8F 8C 2E 72 03 10 3B C7 B6 A4 D7 A4  |1.b....r..;.....|
 C74D  75 2E 72 02 10 45 C7 AA A4 B5 A4 75 2E 01 10 50  |u.r..E.....u...P|
 C75D  C7 26 8C 47 8C 2E 04 10 5A C7 7F A4 A9 A4 74 79  |.&.G....Z.....ty|
 C76D  70 65 04 18 63 C7 DF 8D E9 8D 65 6D 69 74 07 10  |pe..c.....emit..|
 C77D  6F C7 2D 8F 33 8F 65 78 65 63 75 74 65 02 10 7B  |o.-.3.execute..{|
 C78D  C7 78 99 97 99 2B 21 02 10 8A C7 05 86 10 86 63  |.x...+!........c|
 C79D  21 02 10 94 C7 FB 85 04 86 63 40 01 10 9E C7 5E  |!........c@....^|
 C7AD  87 77 87 2C 04 10 A8 C7 09 A3 22 A3 74 75 63 6B  |.w.,......".tuck|
 C7BD  04 10 B1 C7 5E 96 79 96 2D 72 6F 74 03 10 BD C7  |....^.y.-rot....|
 C7CD  D9 9A F4 9A 72 6F 74 03 10 C9 C7 32 96 3F 96 6E  |....rot....2.?.n|
 C7DD  69 70 02 01 D4 C7 FF 99 13 9A 72 40 02 01 DF C7  |ip........r@....|
 C7ED  14 9A 24 9A 72 3E 02 11 E9 C7 EC A2 FF A2 3E 72  |..$.r>........>r|
 C7FD  04 10 F3 C7 15 98 22 98 6F 76 65 72 01 10 FD C7  |......".over....|
 C80D  70 8F 82 8F 40 01 10 09 C8 09 A1 1E A1 21 04 10  |p...@........!..|
 C81D  12 C8 2A A1 3D A1 73 77 61 70 03 10 1B C8 9F 8D  |..*.=.swap......|
 C82D  AC 8D 64 75 70 04 10 27 C8 1E 8D 23 8D 64 72 6F  |..dup..'...#.dro|
 C83D  70 05 00 00 00 94 A6 EF A6 77 6F 72 64 73 0E 00  |p........words..|
 C84D  3E C8 23 A7 29 A7 66 6F 72 74 68 2D 77 6F 72 64  |>.#.).forth-word|
 C85D  6C 69 73 74 05 00 4B C8 B8 90 BE 90 66 6F 72 74  |list..K.....fort|
 C86D  68 09 00 61 C8 9D 9C D0 9C 73 65 74 2D 6F 72 64  |h..a.....set-ord|
 C87D  65 72 0C 00 00 00 81 A7 9C A7 65 6E 74 65 72 2D  |er........enter-|
 C88D  73 63 72 65 65 6E 0C 00 7F C8 9D A7 AE A7 65 72  |screen........er|
 C89D  61 73 65 2D 73 63 72 65 65 6E 02 00 93 C8 AF A7  |ase-screen......|
 C8AD  C0 A7 65 6C 01 00 A7 C8 C1 A7 3C A8 6C 04 10 B1  |..el......<.l...|
 C8BD  C8 3D A8 55 A8 6C 69 6E 65 01 00 BA C8 56 A8 9B  |.=.U.line....V..|
 C8CD  A8 6F 05 04 DC C8 A5 A8 AA A8 61 64 63 2E 23 05  |.o........adc.#.|
 C8DD  04 E9 C8 AA A8 AF A8 61 64 63 2E 78 05 04 F6 C8  |.......adc.x....|
 C8ED  AF A8 B4 A8 61 64 63 2E 79 05 04 03 C9 B4 A8 B9  |....adc.y.......|
 C8FD  A8 61 64 63 2E 7A 06 04 11 C9 B9 A8 BE A8 61 64  |.adc.z........ad|
 C90D  63 2E 7A 69 07 04 20 C9 BE A8 C3 A8 61 64 63 2E  |c.zi.. .....adc.|
 C91D  7A 69 79 06 04 2E C9 C3 A8 C8 A8 61 64 63 2E 7A  |ziy........adc.z|
 C92D  78 07 04 3D C9 C8 A8 CD A8 61 64 63 2E 7A 78 69  |x..=.....adc.zxi|
 C93D  04 04 49 C9 CD A8 D2 A8 61 6E 64 2E 05 04 56 C9  |..I.....and...V.|
 C94D  D2 A8 D7 A8 61 6E 64 2E 23 05 04 63 C9 D7 A8 DC  |....and.#..c....|
 C95D  A8 61 6E 64 2E 78 05 04 70 C9 DC A8 E1 A8 61 6E  |.and.x..p.....an|
 C96D  64 2E 79 05 04 7D C9 E1 A8 E6 A8 61 6E 64 2E 7A  |d.y..}.....and.z|
 C97D  06 04 8B C9 E6 A8 EB A8 61 6E 64 2E 7A 69 07 04  |........and.zi..|
 C98D  9A C9 EB A8 F0 A8 61 6E 64 2E 7A 69 79 06 04 A8  |......and.ziy...|
 C99D  C9 F0 A8 F5 A8 61 6E 64 2E 7A 78 07 04 B7 C9 F5  |.....and.zx.....|
 C9AD  A8 FA A8 61 6E 64 2E 7A 78 69 03 04 C2 C9 FA A8  |...and.zxi......|
 C9BD  FF A8 61 73 6C 05 04 CF C9 FF A8 04 A9 61 73 6C  |..asl........asl|
 C9CD  2E 61 05 04 DC C9 04 A9 09 A9 61 73 6C 2E 78 05  |.a........asl.x.|
 C9DD  04 E9 C9 09 A9 0E A9 61 73 6C 2E 7A 06 04 F7 C9  |.......asl.z....|
 C9ED  0E A9 13 A9 61 73 6C 2E 7A 78 03 04 02 CA 13 A9  |....asl.zx......|
 C9FD  18 A9 62 63 63 03 04 0D CA 18 A9 1F A9 62 63 73  |..bcc........bcs|
 CA0D  03 04 18 CA 1F A9 24 A9 62 65 71 03 04 23 CA 24  |......$.beq..#.$|
 CA1D  A9 29 A9 62 69 74 05 04 30 CA 29 A9 2E A9 62 69  |.).bit..0.)...bi|
 CA2D  74 2E 23 05 04 3D CA 2E A9 33 A9 62 69 74 2E 78  |t.#..=...3.bit.x|
 CA3D  05 04 4A CA 33 A9 38 A9 62 69 74 2E 7A 06 04 58  |..J.3.8.bit.z..X|
 CA4D  CA 38 A9 3D A9 62 69 74 2E 7A 78 03 04 63 CA 3D  |.8.=.bit.zx..c.=|
 CA5D  A9 42 A9 62 6D 69 03 04 6E CA 42 A9 47 A9 62 6E  |.B.bmi..n.B.G.bn|
 CA6D  65 03 04 79 CA 47 A9 4C A9 62 70 6C 03 04 84 CA  |e..y.G.L.bpl....|
 CA7D  4C A9 51 A9 62 72 61 03 04 8F CA 51 A9 56 A9 62  |L.Q.bra....Q.V.b|
 CA8D  72 6B 03 04 9A CA 56 A9 5B A9 62 76 63 03 04 A5  |rk....V.[.bvc...|
 CA9D  CA 5B A9 60 A9 62 76 73 03 04 B0 CA 60 A9 65 A9  |.[.`.bvs....`.e.|
 CAAD  63 6C 63 03 04 BB CA 65 A9 6A A9 63 6C 64 03 04  |clc....e.j.cld..|
 CABD  C6 CA 6A A9 6F A9 63 6C 69 03 04 D1 CA 6F A9 74  |..j.o.cli....o.t|
 CACD  A9 63 6C 76 03 04 DC CA 74 A9 79 A9 63 6D 70 05  |.clv....t.y.cmp.|
 CADD  04 E9 CA 79 A9 7E A9 63 6D 70 2E 23 05 04 F6 CA  |...y.~.cmp.#....|
 CAED  7E A9 83 A9 63 6D 70 2E 78 05 04 03 CB 83 A9 88  |~...cmp.x.......|
 CAFD  A9 63 6D 70 2E 79 05 04 10 CB 88 A9 8D A9 63 6D  |.cmp.y........cm|
 CB0D  70 2E 7A 06 04 1E CB 8D A9 92 A9 63 6D 70 2E 7A  |p.z........cmp.z|
 CB1D  69 07 04 2D CB 92 A9 97 A9 63 6D 70 2E 7A 69 79  |i..-.....cmp.ziy|
 CB2D  06 04 3B CB 97 A9 9C A9 63 6D 70 2E 7A 78 07 04  |..;.....cmp.zx..|
 CB3D  4A CB 9C A9 A1 A9 63 6D 70 2E 7A 78 69 03 04 55  |J.....cmp.zxi..U|
 CB4D  CB A1 A9 A6 A9 63 70 78 05 04 62 CB A6 A9 AB A9  |.....cpx..b.....|
 CB5D  63 70 78 2E 23 05 04 6F CB AB A9 B0 A9 63 70 78  |cpx.#..o.....cpx|
 CB6D  2E 7A 03 04 7A CB B0 A9 B7 A9 63 70 79 05 04 87  |.z..z.....cpy...|
 CB7D  CB B7 A9 BC A9 63 70 79 2E 23 05 04 94 CB BC A9  |.....cpy.#......|
 CB8D  C1 A9 63 70 79 2E 7A 03 04 9F CB C1 A9 C6 A9 64  |..cpy.z........d|
 CB9D  65 63 05 04 AC CB C6 A9 CB A9 64 65 63 2E 61 05  |ec........dec.a.|
 CBAD  04 B9 CB CB A9 D0 A9 64 65 63 2E 78 05 04 C6 CB  |.......dec.x....|
 CBBD  D0 A9 D5 A9 64 65 63 2E 7A 06 04 D4 CB D5 A9 DA  |....dec.z.......|
 CBCD  A9 64 65 63 2E 7A 78 03 04 DF CB DA A9 DF A9 64  |.dec.zx........d|
 CBDD  65 78 03 04 EA CB DF A9 E4 A9 64 65 79 03 04 F5  |ex........dey...|
 CBED  CB E4 A9 E9 A9 65 6F 72 05 04 02 CC E9 A9 EE A9  |.....eor........|
 CBFD  65 6F 72 2E 23 05 04 0F CC EE A9 F3 A9 65 6F 72  |eor.#........eor|
 CC0D  2E 78 05 04 1C CC F3 A9 F8 A9 65 6F 72 2E 79 05  |.x........eor.y.|
 CC1D  04 29 CC F8 A9 FD A9 65 6F 72 2E 7A 06 04 37 CC  |.).....eor.z..7.|
 CC2D  FD A9 02 AA 65 6F 72 2E 7A 69 07 04 46 CC 02 AA  |....eor.zi..F...|
 CC3D  07 AA 65 6F 72 2E 7A 69 79 06 04 54 CC 07 AA 0C  |..eor.ziy..T....|
 CC4D  AA 65 6F 72 2E 7A 78 07 04 63 CC 0C AA 11 AA 65  |.eor.zx..c.....e|
 CC5D  6F 72 2E 7A 78 69 03 04 6E CC 11 AA 16 AA 69 6E  |or.zxi..n.....in|
 CC6D  63 05 04 7B CC 16 AA 1B AA 69 6E 63 2E 61 05 04  |c..{.....inc.a..|
 CC7D  88 CC 1B AA 20 AA 69 6E 63 2E 78 05 04 95 CC 20  |.... .inc.x.... |
 CC8D  AA 25 AA 69 6E 63 2E 7A 06 04 A3 CC 25 AA 2A AA  |.%.inc.z....%.*.|
 CC9D  69 6E 63 2E 7A 78 03 04 AE CC 2A AA 2F AA 69 6E  |inc.zx....*./.in|
 CCAD  78 03 04 B9 CC 2F AA 34 AA 69 6E 79 03 04 C4 CC  |x..../.4.iny....|
 CCBD  34 AA 39 AA 6A 6D 70 05 04 D1 CC 39 AA 3E AA 6A  |4.9.jmp....9.>.j|
 CCCD  6D 70 2E 69 06 04 DF CC 3E AA 43 AA 6A 6D 70 2E  |mp.i....>.C.jmp.|
 CCDD  78 69 03 04 EA CC 43 AA 48 AA 6A 73 72 03 04 F5  |xi....C.H.jsr...|
 CCED  CC 48 AA 4D AA 6C 64 61 05 04 02 CD 4D AA 52 AA  |.H.M.lda....M.R.|
 CCFD  6C 64 61 2E 23 05 04 0F CD 52 AA 57 AA 6C 64 61  |lda.#....R.W.lda|
 CD0D  2E 78 05 04 1C CD 57 AA 5C AA 6C 64 61 2E 79 05  |.x....W.\.lda.y.|
 CD1D  04 29 CD 5C AA 61 AA 6C 64 61 2E 7A 06 04 37 CD  |.).\.a.lda.z..7.|
 CD2D  61 AA 66 AA 6C 64 61 2E 7A 69 07 04 46 CD 66 AA  |a.f.lda.zi..F.f.|
 CD3D  6B AA 6C 64 61 2E 7A 69 79 06 04 54 CD 6B AA 70  |k.lda.ziy..T.k.p|
 CD4D  AA 6C 64 61 2E 7A 78 07 04 63 CD 70 AA 75 AA 6C  |.lda.zx..c.p.u.l|
 CD5D  64 61 2E 7A 78 69 03 04 6E CD 75 AA 7A AA 6C 64  |da.zxi..n.u.z.ld|
 CD6D  78 05 04 7B CD 7A AA 7F AA 6C 64 78 2E 23 05 04  |x..{.z...ldx.#..|
 CD7D  88 CD 7F AA 84 AA 6C 64 78 2E 79 05 04 95 CD 84  |......ldx.y.....|
 CD8D  AA 89 AA 6C 64 78 2E 7A 06 04 A3 CD 89 AA 8E AA  |...ldx.z........|
 CD9D  6C 64 78 2E 7A 79 03 04 AE CD 8E AA 93 AA 6C 64  |ldx.zy........ld|
 CDAD  79 05 04 BB CD 93 AA 98 AA 6C 64 79 2E 23 05 04  |y........ldy.#..|
 CDBD  C8 CD 98 AA 9D AA 6C 64 79 2E 78 05 04 D5 CD 9D  |......ldy.x.....|
 CDCD  AA A2 AA 6C 64 79 2E 7A 06 04 E3 CD A2 AA A7 AA  |...ldy.z........|
 CDDD  6C 64 79 2E 7A 78 03 04 EE CD A7 AA AC AA 6C 73  |ldy.zx........ls|
 CDED  72 05 04 FB CD AC AA B1 AA 6C 73 72 2E 61 05 04  |r........lsr.a..|
 CDFD  08 CE B1 AA B6 AA 6C 73 72 2E 78 05 04 15 CE B6  |......lsr.x.....|
 CE0D  AA BB AA 6C 73 72 2E 7A 06 04 23 CE BB AA C0 AA  |...lsr.z..#.....|
 CE1D  6C 73 72 2E 7A 78 03 04 2E CE C0 AA C5 AA 6E 6F  |lsr.zx........no|
 CE2D  70 03 04 39 CE C5 AA CA AA 6F 72 61 05 04 46 CE  |p..9.....ora..F.|
 CE3D  CA AA CF AA 6F 72 61 2E 23 05 04 53 CE CF AA D4  |....ora.#..S....|
 CE4D  AA 6F 72 61 2E 78 05 04 60 CE D4 AA D9 AA 6F 72  |.ora.x..`.....or|
 CE5D  61 2E 79 05 04 6D CE D9 AA DE AA 6F 72 61 2E 7A  |a.y..m.....ora.z|
 CE6D  06 04 7B CE DE AA E5 AA 6F 72 61 2E 7A 69 07 04  |..{.....ora.zi..|
 CE7D  8A CE E5 AA EA AA 6F 72 61 2E 7A 69 79 06 04 98  |......ora.ziy...|
 CE8D  CE EA AA EF AA 6F 72 61 2E 7A 78 07 04 A7 CE EF  |.....ora.zx.....|
 CE9D  AA F4 AA 6F 72 61 2E 7A 78 69 03 04 B2 CE F4 AA  |...ora.zxi......|
 CEAD  F9 AA 70 68 61 03 04 BD CE F9 AA FE AA 70 68 70  |..pha........php|
 CEBD  03 04 C8 CE FE AA 03 AB 70 68 78 03 04 D3 CE 03  |........phx.....|
 CECD  AB 08 AB 70 68 79 03 04 DE CE 08 AB 0D AB 70 6C  |...phy........pl|
 CEDD  61 03 04 E9 CE 0D AB 12 AB 70 6C 70 03 04 F4 CE  |a........plp....|
 CEED  12 AB 17 AB 70 6C 78 03 04 FF CE 17 AB 1C AB 70  |....plx........p|
 CEFD  6C 79 03 04 0A CF 1C AB 21 AB 72 6F 6C 05 04 17  |ly......!.rol...|
 CF0D  CF 21 AB 26 AB 72 6F 6C 2E 61 05 04 24 CF 26 AB  |.!.&.rol.a..$.&.|
 CF1D  2B AB 72 6F 6C 2E 78 05 04 31 CF 2B AB 30 AB 72  |+.rol.x..1.+.0.r|
 CF2D  6F 6C 2E 7A 06 04 3F CF 30 AB 35 AB 72 6F 6C 2E  |ol.z..?.0.5.rol.|
 CF3D  7A 78 03 04 4A CF 35 AB 3A AB 72 6F 72 05 04 57  |zx..J.5.:.ror..W|
 CF4D  CF 3A AB 3F AB 72 6F 72 2E 61 05 04 64 CF 3F AB  |.:.?.ror.a..d.?.|
 CF5D  44 AB 72 6F 72 2E 78 05 04 71 CF 44 AB 49 AB 72  |D.ror.x..q.D.I.r|
 CF6D  6F 72 2E 7A 06 04 7F CF 49 AB 4E AB 72 6F 72 2E  |or.z....I.N.ror.|
 CF7D  7A 78 03 04 8A CF 4E AB 53 AB 72 74 69 03 04 95  |zx....N.S.rti...|
 CF8D  CF 53 AB 58 AB 72 74 73 03 04 A0 CF 58 AB 5D AB  |.S.X.rts....X.].|
 CF9D  73 62 63 05 04 AD CF 5D AB 62 AB 73 62 63 2E 23  |sbc....].b.sbc.#|
 CFAD  05 04 BA CF 62 AB 67 AB 73 62 63 2E 78 05 04 C7  |....b.g.sbc.x...|
 CFBD  CF 67 AB 6C AB 73 62 63 2E 79 05 04 D4 CF 6C AB  |.g.l.sbc.y....l.|
 CFCD  71 AB 73 62 63 2E 7A 06 04 E2 CF 71 AB 76 AB 73  |q.sbc.z....q.v.s|
 CFDD  62 63 2E 7A 69 07 04 F1 CF 76 AB 7B AB 73 62 63  |bc.zi....v.{.sbc|
 CFED  2E 7A 69 79 06 04 FF CF 7B AB 80 AB 73 62 63 2E  |.ziy....{...sbc.|
 CFFD  7A 78 07 04 0E D0 80 AB 84 AB 73 62 63 2E 7A 78  |zx........sbc.zx|
 D00D  69 03 04 19 D0 84 AB 88 AB 73 65 63 03 04 24 D0  |i........sec..$.|
 D01D  88 AB 8C AB 73 65 64 03 04 2F D0 8C AB 90 AB 73  |....sed../.....s|
 D02D  65 69 03 04 3A D0 90 AB 94 AB 73 74 61 05 04 47  |ei..:.....sta..G|
 D03D  D0 94 AB 98 AB 73 74 61 2E 78 05 04 54 D0 98 AB  |.....sta.x..T...|
 D04D  9C AB 73 74 61 2E 79 05 04 61 D0 9C AB A0 AB 73  |..sta.y..a.....s|
 D05D  74 61 2E 7A 06 04 6F D0 A0 AB A4 AB 73 74 61 2E  |ta.z..o.....sta.|
 D06D  7A 69 07 04 7E D0 A4 AB A8 AB 73 74 61 2E 7A 69  |zi..~.....sta.zi|
 D07D  79 06 04 8C D0 A8 AB AC AB 73 74 61 2E 7A 78 07  |y........sta.zx.|
 D08D  04 9B D0 AC AB B0 AB 73 74 61 2E 7A 78 69 03 04  |.......sta.zxi..|
 D09D  A6 D0 B0 AB B4 AB 73 74 78 05 04 B3 D0 B4 AB B8  |......stx.......|
 D0AD  AB 73 74 78 2E 7A 06 04 C1 D0 B8 AB BC AB 73 74  |.stx.z........st|
 D0BD  78 2E 7A 79 03 04 CC D0 BC AB C0 AB 73 74 79 05  |x.zy........sty.|
 D0CD  04 D9 D0 C0 AB C4 AB 73 74 79 2E 7A 06 04 E7 D0  |.......sty.z....|
 D0DD  C4 AB C8 AB 73 74 79 2E 7A 78 03 04 F2 D0 C8 AB  |....sty.zx......|
 D0ED  CC AB 73 74 7A 05 04 FF D0 CC AB D0 AB 73 74 7A  |..stz........stz|
 D0FD  2E 78 05 04 0C D1 D0 AB D4 AB 73 74 7A 2E 7A 06  |.x........stz.z.|
 D10D  04 1A D1 D4 AB D8 AB 73 74 7A 2E 7A 78 03 04 25  |.......stz.zx..%|
 D11D  D1 D8 AB DC AB 74 61 78 03 04 30 D1 DC AB E0 AB  |.....tax..0.....|
 D12D  74 61 79 03 04 3B D1 E0 AB E4 AB 74 72 62 05 04  |tay..;.....trb..|
 D13D  48 D1 E4 AB E8 AB 74 72 62 2E 7A 03 04 53 D1 E8  |H.....trb.z..S..|
 D14D  AB EC AB 74 73 62 05 04 60 D1 EC AB F0 AB 74 73  |...tsb..`.....ts|
 D15D  62 2E 7A 03 04 6B D1 F0 AB F4 AB 74 73 78 03 04  |b.z..k.....tsx..|
 D16D  76 D1 F4 AB F8 AB 74 78 61 03 04 81 D1 F8 AB FC  |v.....txa.......|
 D17D  AB 74 78 73 03 04 8C D1 FC AB 00 AC 74 79 61 03  |.txs........tya.|
 D18D  04 97 D1 62 91 6C 91 2D 2D 3E 02 04 A1 D1 51 AC  |...b.l.-->....Q.|
 D19D  51 AC 3C 6A 02 04 AB D1 52 AC 5A AC 3C 62 06 04  |Q.<j....R.Z.<b..|
 D1AD  00 00 3A AC 49 AC 70 75 73 68 2D 61 D3 D1 D7 D1  |..:.I.push-a....|
 D1BD  E1 D1 47 D2 EC D1 10 D2 3F D2 34 D2 4E D2 54 D2  |..G.....?.4.N.T.|
 D1CD  70 D2 75 D2 7A D2 20 6F 6B 00 20 63 6F 6D 70 69  |p.u.z. ok. compi|
 D1DD  6C 65 64 00 72 65 64 65 66 69 6E 65 64 20 00 30  |led.redefined .0|
 D1ED  31 32 33 34 35 36 37 38 39 61 62 63 64 65 66 67  |123456789abcdefg|
 D1FD  68 69 6A 6B 6C 6D 6E 6F 70 71 72 73 74 75 76 77  |hijklmnopqrstuvw|
 D20D  78 79 7A 30 31 32 33 34 35 36 37 38 39 41 42 43  |xyz0123456789ABC|
 D21D  44 45 46 47 48 49 4A 4B 4C 4D 4E 4F 50 51 52 53  |DEFGHIJKLMNOPQRS|
 D22D  54 55 56 57 58 59 5A 41 73 73 65 6D 62 6C 65 72  |TUVWXYZAssembler|
 D23D  20 00 45 64 69 74 6F 72 20 00 46 6F 72 74 68 20  | .Editor .Forth |
 D24D  00 52 6F 6F 74 20 00 66 6C 61 67 73 20 28 43 4F  |.Root .flags (CO|
 D25D  20 41 4E 20 49 4D 20 4E 4E 20 55 46 20 48 43 29  | AN IM NN UF HC)|
 D26D  3A 20 00 6E 74 3A 20 00 78 74 3A 20 00 73 69 7A  |: .nt: .xt: .siz|
 D27D  65 20 28 64 65 63 69 6D 61 6C 29 3A 20 00 A5 D2  |e (decimal): ...|
 D28D  C6 D2 E6 D2 07 D3 24 D3 35 D3 45 D3 73 D3 8B D3  |......$.5.E.s...|
 D29D  9A D3 AA D3 C6 D3 DD D3 41 4C 4C 4F 54 20 75 73  |........ALLOT us|
 D2AD  69 6E 67 20 61 6C 6C 20 61 76 61 69 6C 61 62 6C  |ing all availabl|
 D2BD  65 20 6D 65 6D 6F 72 79 00 49 6C 6C 65 67 61 6C  |e memory.Illegal|
 D2CD  20 53 4F 55 52 43 45 2D 49 44 20 64 75 72 69 6E  | SOURCE-ID durin|
 D2DD  67 20 52 45 46 49 4C 4C 00 49 6E 74 65 72 70 72  |g REFILL.Interpr|
 D2ED  65 74 69 6E 67 20 61 20 63 6F 6D 70 69 6C 65 2D  |eting a compile-|
 D2FD  6F 6E 6C 79 20 77 6F 72 64 00 44 45 46 45 52 65  |only word.DEFERe|
 D30D  64 20 77 6F 72 64 20 6E 6F 74 20 64 65 66 69 6E  |d word not defin|
 D31D  65 64 20 79 65 74 00 44 69 76 69 73 69 6F 6E 20  |ed yet.Division |
 D32D  62 79 20 7A 65 72 6F 00 50 61 72 73 69 6E 67 20  |by zero.Parsing |
 D33D  66 61 69 6C 75 72 65 00 51 55 49 54 20 63 6F 75  |failure.QUIT cou|
 D34D  6C 64 20 6E 6F 74 20 67 65 74 20 69 6E 70 75 74  |ld not get input|
 D35D  20 28 52 45 46 49 4C 4C 20 72 65 74 75 72 6E 65  | (REFILL returne|
 D36D  64 20 2D 31 29 00 41 6C 72 65 61 64 79 20 69 6E  |d -1).Already in|
 D37D  20 63 6F 6D 70 69 6C 65 20 6D 6F 64 65 00 55 6E  | compile mode.Un|
 D38D  64 65 66 69 6E 65 64 20 77 6F 72 64 00 53 74 61  |defined word.Sta|
 D39D  63 6B 20 75 6E 64 65 72 66 6C 6F 77 00 4D 61 78  |ck underflow.Max|
 D3AD  20 6D 65 6D 6F 72 79 20 66 72 65 65 64 20 77 69  | memory freed wi|
 D3BD  74 68 20 41 4C 4C 4F 54 00 4E 6F 20 77 6F 72 64  |th ALLOT.No word|
 D3CD  6C 69 73 74 73 20 61 76 61 69 6C 61 62 6C 65 00  |lists available.|
 D3DD  50 6C 65 61 73 65 20 61 73 73 69 67 6E 20 76 65  |Please assign ve|
 D3ED  63 74 6F 72 73 20 42 4C 4F 43 4B 2D 52 45 41 44  |ctors BLOCK-READ|
 D3FD  2D 56 45 43 54 4F 52 20 61 6E 64 20 42 4C 4F 43  |-VECTOR and BLOC|
 D40D  4B 2D 57 52 49 54 45 2D 56 45 43 54 4F 52 00 0F  |K-WRITE-VECTOR..|
 D41D  2F 43 4F 55 4E 54 45 44 2D 53 54 52 49 4E 47 05  |/COUNTED-STRING.|
 D42D  2F 48 4F 4C 44 04 2F 50 41 44 11 41 44 44 52 45  |/HOLD./PAD.ADDRE|
 D43D  53 53 2D 55 4E 49 54 2D 42 49 54 53 07 46 4C 4F  |SS-UNIT-BITS.FLO|
 D44D  4F 52 45 44 08 4D 41 58 2D 43 48 41 52 05 4D 41  |ORED.MAX-CHAR.MA|
 D45D  58 2D 4E 05 4D 41 58 2D 55 12 52 45 54 55 52 4E  |X-N.MAX-U.RETURN|
 D46D  2D 53 54 41 43 4B 2D 43 45 4C 4C 53 0B 53 54 41  |-STACK-CELLS.STA|
 D47D  43 4B 2D 43 45 4C 4C 53 09 57 4F 52 44 4C 49 53  |CK-CELLS.WORDLIS|
 D48D  54 53 05 4D 41 58 2D 44 06 4D 41 58 2D 55 44     |TS.MAX-D.MAX-UD |
 D49C  48        PHA  
 D49D  A9 20     LDA  #$20
 D49F  80 03     BRA  $D4A4
 D4A1  48        PHA  
 D4A2  A9 4C     LDA  #$4C
 D4A4  20 AC D4  JSR  $D4AC
 D4A7  68        PLA  
 D4A8  20 AC D4  JSR  $D4AC
 D4AB  98        TYA  
 D4AC  92 00     STA  ($00)
 D4AE  E6 00     INC  $00
 D4B0  D0 02     BNE  $D4B4
 D4B2  E6 01     INC  $01
 D4B4  60        RTS  
 D4B5  CA        DEX  
 D4B6  CA        DEX  
 D4B7  68        PLA  
 D4B8  85 24     STA  $24
 D4BA  68        PLA  
 D4BB  85 25     STA  $25
 D4BD  A0 01     LDY  #$01
 D4BF  B1 24     LDA  ($24), Y
 D4C1  95 00     STA  $00, X
 D4C3  C8        INY  
 D4C4  B1 24     LDA  ($24), Y
 D4C6  95 01     STA  $01, X
 D4C8  60        RTS  
 D4C9  68        PLA  
 D4CA  85 24     STA  $24
 D4CC  68        PLA  
 D4CD  85 25     STA  $25
 D4CF  A0 01     LDY  #$01
 D4D1  B1 24     LDA  ($24), Y
 D4D3  85 26     STA  $26
 D4D5  C8        INY  
 D4D6  B1 24     LDA  ($24), Y
 D4D8  85 27     STA  $27
 D4DA  6C 26 00  JMP  ($0026)
 D4DD  A9 03     LDA  #$03
 D4DF  4C 0F D6  JMP  $D60F
 D4E2  7A        PLY  
 D4E3  68        PLA  
 D4E4  C8        INY  
 D4E5  D0 01     BNE  $D4E8
 D4E7  1A        INC  
 D4E8  84 26     STY  $26
 D4EA  85 27     STA  $27
 D4EC  CA        DEX  
 D4ED  CA        DEX  
 D4EE  7A        PLY  
 D4EF  68        PLA  
 D4F0  C8        INY  
 D4F1  D0 01     BNE  $D4F4
 D4F3  1A        INC  
 D4F4  94 00     STY  $00, X
 D4F6  95 01     STA  $01, X
 D4F8  6C 26 00  JMP  ($0026)
 D4FB  7A        PLY  
 D4FC  68        PLA  
 D4FD  C8        INY  
 D4FE  D0 01     BNE  $D501
 D500  1A        INC  
 D501  CA        DEX  
 D502  CA        DEX  
 D503  95 01     STA  $01, X
 D505  98        TYA  
 D506  95 00     STA  $00, X
 D508  60        RTS  
 D509  48        PHA  
 D50A  4A        LSR  
 D50B  4A        LSR  
 D50C  4A        LSR  
 D50D  4A        LSR  
 D50E  20 12 D5  JSR  $D512
 D511  68        PLA  
 D512  29 0F     AND  #$0F
 D514  09 30     ORA  #$30
 D516  C9 3A     CMP  #$3A
 D518  90 02     BCC  $D51C
 D51A  69 06     ADC  #$06
 D51C  4C E6 8D  JMP  $8DE6
 D51F  60        RTS  
 D520  B5 00     LDA  $00, X
 D522  D5 02     CMP  $02, X
 D524  F0 0A     BEQ  $D530
 D526  B5 01     LDA  $01, X
 D528  F5 03     SBC  $03, X
 D52A  09 01     ORA  #$01
 D52C  70 08     BVS  $D536
 D52E  80 08     BRA  $D538
 D530  B5 01     LDA  $01, X
 D532  F5 03     SBC  $03, X
 D534  50 04     BVC  $D53A
 D536  49 80     EOR  #$80
 D538  09 01     ORA  #$01
 D53A  60        RTS  
 D53B  A0 04     LDY  #$04
 D53D  B1 1E     LDA  ($1E), Y
 D53F  0A        ASL  
 D540  18        CLC  
 D541  69 06     ADC  #$06
 D543  A8        TAY  
 D544  B1 1E     LDA  ($1E), Y
 D546  85 02     STA  $02
 D548  C8        INY  
 D549  B1 1E     LDA  ($1E), Y
 D54B  85 03     STA  $03
 D54D  60        RTS  
 D54E  A0 04     LDY  #$04
 D550  B1 1E     LDA  ($1E), Y
 D552  0A        ASL  
 D553  18        CLC  
 D554  69 06     ADC  #$06
 D556  A8        TAY  
 D557  A5 02     LDA  $02
 D559  91 1E     STA  ($1E), Y
 D55B  C8        INY  
 D55C  A5 03     LDA  $03
 D55E  91 1E     STA  ($1E), Y
 D560  60        RTS  
 D561  20 61 98  JSR  $9861
 D564  B5 00     LDA  $00, X
 D566  15 01     ORA  $01, X
 D568  F0 70     BEQ  $D5DA
 D56A  20 34 A3  JSR  $A334
 D56D  20 CB 8F  JSR  $8FCB
 D570  B5 00     LDA  $00, X
 D572  15 01     ORA  $01, X
 D574  D0 28     BNE  $D59E
 D576  E8        INX  
 D577  E8        INX  
 D578  20 7A 96  JSR  $967A
 D57B  A5 16     LDA  $16
 D57D  F0 E2     BEQ  $D561
 D57F  A9 20     LDA  #$20
 D581  24 20     BIT  $20
 D583  F0 0D     BEQ  $D592
 D585  20 2A A1  JSR  $A12A
 D588  A0 93     LDY  #$93
 D58A  A9 88     LDA  #$88
 D58C  20 9C D4  JSR  $D49C
 D58F  20 5E 87  JSR  $875E
 D592  A0 93     LDY  #$93
 D594  A9 88     LDA  #$88
 D596  20 9C D4  JSR  $D49C
 D599  20 5E 87  JSR  $875E
 D59C  80 C3     BRA  $D561
 D59E  B5 00     LDA  $00, X
 D5A0  95 04     STA  $04, X
 D5A2  B5 01     LDA  $01, X
 D5A4  95 05     STA  $05, X
 D5A6  E8        INX  
 D5A7  E8        INX  
 D5A8  E8        INX  
 D5A9  E8        INX  
 D5AA  B5 00     LDA  $00, X
 D5AC  85 22     STA  $22
 D5AE  B5 01     LDA  $01, X
 D5B0  85 23     STA  $23
 D5B2  20 D1 95  JSR  $95D1
 D5B5  A5 16     LDA  $16
 D5B7  D0 13     BNE  $D5CC
 D5B9  A0 01     LDY  #$01
 D5BB  B1 22     LDA  ($22), Y
 D5BD  29 01     AND  #$01
 D5BF  F0 05     BEQ  $D5C6
 D5C1  A9 02     LDA  #$02
 D5C3  4C 0F D6  JMP  $D60F
 D5C6  20 2D 8F  JSR  $8F2D
 D5C9  4C 61 D5  JMP  $D561
 D5CC  A0 01     LDY  #$01
 D5CE  B1 22     LDA  ($22), Y
 D5D0  29 04     AND  #$04
 D5D2  D0 F2     BNE  $D5C6
 D5D4  20 DD 87  JSR  $87DD
 D5D7  4C 61 D5  JMP  $D561
 D5DA  E8        INX  
 D5DB  E8        INX  
 D5DC  E8        INX  
 D5DD  E8        INX  
 D5DE  60        RTS  
 D5DF  C9 20     CMP  #$20
 D5E1  90 08     BCC  $D5EB
 D5E3  C9 7F     CMP  #$7F
 D5E5  B0 03     BCS  $D5EA
 D5E7  38        SEC  
 D5E8  80 01     BRA  $D5EB
 D5EA  18        CLC  
 D5EB  60        RTS  
 D5EC  C9 00     CMP  #$00
 D5EE  90 08     BCC  $D5F8
 D5F0  C9 21     CMP  #$21
 D5F2  B0 03     BCS  $D5F7
 D5F4  38        SEC  
 D5F5  80 01     BRA  $D5F8
 D5F7  18        CLC  
 D5F8  60        RTS  
 D5F9  E0 77     CPX  #$77
 D5FB  10 10     BPL  $D60D
 D5FD  60        RTS  
 D5FE  E0 75     CPX  #$75
 D600  10 0B     BPL  $D60D
 D602  60        RTS  
 D603  E0 73     CPX  #$73
 D605  10 06     BPL  $D60D
 D607  60        RTS  
 D608  E0 71     CPX  #$71
 D60A  10 01     BPL  $D60D
 D60C  60        RTS  
 D60D  A9 09     LDA  #$09
 D60F  0A        ASL  
 D610  A8        TAY  
 D611  B9 8B D2  LDA  $D28B, Y
 D614  85 28     STA  $28
 D616  C8        INY  
 D617  B9 8B D2  LDA  $D28B, Y
 D61A  85 29     STA  $29
 D61C  20 32 D6  JSR  $D632
 D61F  20 53 89  JSR  $8953
 D622  4C 81 80  JMP  $8081
 D625  0A        ASL  
 D626  A8        TAY  
 D627  B9 B9 D1  LDA  $D1B9, Y
 D62A  85 28     STA  $28
 D62C  C8        INY  
 D62D  B9 B9 D1  LDA  $D1B9, Y
 D630  85 29     STA  $29
 D632  A0 00     LDY  #$00
 D634  B1 28     LDA  ($28), Y
 D636  F0 06     BEQ  $D63E
 D638  20 E6 8D  JSR  $8DE6
 D63B  C8        INY  
 D63C  80 F6     BRA  $D634
 D63E  60        RTS  
 D63F  20 25 D6  JSR  $D625
 D642  4C 53 89  JMP  $8953
 D645  20 23 A7  JSR  $A723
 D648  20 4A 93  JSR  $934A
 D64B  20 60 97  JSR  $9760
 D64E  20 3E 97  JSR  $973E
 D651  4C 7F A4  JMP  $A47F
 D654  00 00 00 00 00 00 00 00 00 00 00 00 00 00 00 00  |................|
 D664  00 00 00 00 00 00 00 00 00 00 00 00 00 00 00 00  |................|
 D674  00 00 00 00 00 00 00 00 00 00 00 00 00 00 00 00  |................|
 D684  00 00 00 00 00 00 00 00 00 00 00 00 00 00 00 00  |................|
 D694  00 00 00 00 00 00 00 00 00 00 00 00 00 00 00 00  |................|
 D6A4  00 00 00 00 00 00 00 00 00 00 00 00 00 00 00 00  |................|
 D6B4  00 00 00 00 00 00 00 00 00 00 00 00 00 00 00 00  |................|
 D6C4  00 00 00 00 00 00 00 00 00 00 00 00 00 00 00 00  |................|
 D6D4  00 00 00 00 00 00 00 00 00 00 00 00 00 00 00 00  |................|
 D6E4  00 00 00 00 00 00 00 00 00 00 00 00 00 00 00 00  |................|
 D6F4  00 00 00 00 00 00 00 00 00 00 00 00 00 00 00 00  |................|
 D704  00 00 00 00 00 00 00 00 00 00 00 00 00 00 00 00  |................|
 D714  00 00 00 00 00 00 00 00 00 00 00 00 00 00 00 00  |................|
 D724  00 00 00 00 00 00 00 00 00 00 00 00 00 00 00 00  |................|
 D734  00 00 00 00 00 00 00 00 00 00 00 00 00 00 00 00  |................|
 D744  00 00 00 00 00 00 00 00 00 00 00 00 00 00 00 00  |................|
 D754  00 00 00 00 00 00 00 00 00 00 00 00 00 00 00 00  |................|
 D764  00 00 00 00 00 00 00 00 00 00 00 00 00 00 00 00  |................|
 D774  00 00 00 00 00 00 00 00 00 00 00 00 00 00 00 00  |................|
 D784  00 00 00 00 00 00 00 00 00 00 00 00 00 00 00 00  |................|
 D794  00 00 00 00 00 00 00 00 00 00 00 00 00 00 00 00  |................|
 D7A4  00 00 00 00 00 00 00 00 00 00 00 00 00 00 00 00  |................|
 D7B4  00 00 00 00 00 00 00 00 00 00 00 00 00 00 00 00  |................|
 D7C4  00 00 00 00 00 00 00 00 00 00 00 00 00 00 00 00  |................|
 D7D4  00 00 00 00 00 00 00 00 00 00 00 00 00 00 00 00  |................|
 D7E4  00 00 00 00 00 00 00 00 00 00 00 00 00 00 00 00  |................|
 D7F4  00 00 00 00 00 00 00 00 00 00 00 00 00 00 00 00  |................|
 D804  00 00 00 00 00 00 00 00 00 00 00 00 00 00 00 00  |................|
 D814  00 00 00 00 00 00 00 00 00 00 00 00 00 00 00 00  |................|
 D824  00 00 00 00 00 00 00 00 00 00 00 00 00 00 00 00  |................|
 D834  00 00 00 00 00 00 00 00 00 00 00 00 00 00 00 00  |................|
 D844  00 00 00 00 00 00 00 00 00 00 00 00 00 00 00 00  |................|
 D854  00 00 00 00 00 00 00 00 00 00 00 00 00 00 00 00  |................|
 D864  00 00 00 00 00 00 00 00 00 00 00 00 00 00 00 00  |................|
 D874  00 00 00 00 00 00 00 00 00 00 00 00 00 00 00 00  |................|
 D884  00 00 00 00 00 00 00 00 00 00 00 00 00 00 00 00  |................|
 D894  00 00 00 00 00 00 00 00 00 00 00 00 00 00 00 00  |................|
 D8A4  00 00 00 00 00 00 00 00 00 00 00 00 00 00 00 00  |................|
 D8B4  00 00 00 00 00 00 00 00 00 00 00 00 00 00 00 00  |................|
 D8C4  00 00 00 00 00 00 00 00 00 00 00 00 00 00 00 00  |................|
 D8D4  00 00 00 00 00 00 00 00 00 00 00 00 00 00 00 00  |................|
 D8E4  00 00 00 00 00 00 00 00 00 00 00 00 00 00 00 00  |................|
 D8F4  00 00 00 00 00 00 00 00 00 00 00 00 00 00 00 00  |................|
 D904  00 00 00 00 00 00 00 00 00 00 00 00 00 00 00 00  |................|
 D914  00 00 00 00 00 00 00 00 00 00 00 00 00 00 00 00  |................|
 D924  00 00 00 00 00 00 00 00 00 00 00 00 00 00 00 00  |................|
 D934  00 00 00 00 00 00 00 00 00 00 00 00 00 00 00 00  |................|
 D944  00 00 00 00 00 00 00 00 00 00 00 00 00 00 00 00  |................|
 D954  00 00 00 00 00 00 00 00 00 00 00 00 00 00 00 00  |................|
 D964  00 00 00 00 00 00 00 00 00 00 00 00 00 00 00 00  |................|
 D974  00 00 00 00 00 00 00 00 00 00 00 00 00 00 00 00  |................|
 D984  00 00 00 00 00 00 00 00 00 00 00 00 00 00 00 00  |................|
 D994  00 00 00 00 00 00 00 00 00 00 00 00 00 00 00 00  |................|
 D9A4  00 00 00 00 00 00 00 00 00 00 00 00 00 00 00 00  |................|
 D9B4  00 00 00 00 00 00 00 00 00 00 00 00 00 00 00 00  |................|
 D9C4  00 00 00 00 00 00 00 00 00 00 00 00 00 00 00 00  |................|
 D9D4  00 00 00 00 00 00 00 00 00 00 00 00 00 00 00 00  |................|
 D9E4  00 00 00 00 00 00 00 00 00 00 00 00 00 00 00 00  |................|
 D9F4  00 00 00 00 00 00 00 00 00 00 00 00 00 00 00 00  |................|
 DA04  00 00 00 00 00 00 00 00 00 00 00 00 00 00 00 00  |................|
 DA14  00 00 00 00 00 00 00 00 00 00 00 00 00 00 00 00  |................|
 DA24  00 00 00 00 00 00 00 00 00 00 00 00 00 00 00 00  |................|
 DA34  00 00 00 00 00 00 00 00 00 00 00 00 00 00 00 00  |................|
 DA44  00 00 00 00 00 00 00 00 00 00 00 00 00 00 00 00  |................|
 DA54  00 00 00 00 00 00 00 00 00 00 00 00 00 00 00 00  |................|
 DA64  00 00 00 00 00 00 00 00 00 00 00 00 00 00 00 00  |................|
 DA74  00 00 00 00 00 00 00 00 00 00 00 00 00 00 00 00  |................|
 DA84  00 00 00 00 00 00 00 00 00 00 00 00 00 00 00 00  |................|
 DA94  00 00 00 00 00 00 00 00 00 00 00 00 00 00 00 00  |................|
 DAA4  00 00 00 00 00 00 00 00 00 00 00 00 00 00 00 00  |................|
 DAB4  00 00 00 00 00 00 00 00 00 00 00 00 00 00 00 00  |................|
 DAC4  00 00 00 00 00 00 00 00 00 00 00 00 00 00 00 00  |................|
 DAD4  00 00 00 00 00 00 00 00 00 00 00 00 00 00 00 00  |................|
 DAE4  00 00 00 00 00 00 00 00 00 00 00 00 00 00 00 00  |................|
 DAF4  00 00 00 00 00 00 00 00 00 00 00 00 00 00 00 00  |................|
 DB04  00 00 00 00 00 00 00 00 00 00 00 00 00 00 00 00  |................|
 DB14  00 00 00 00 00 00 00 00 00 00 00 00 00 00 00 00  |................|
 DB24  00 00 00 00 00 00 00 00 00 00 00 00 00 00 00 00  |................|
 DB34  00 00 00 00 00 00 00 00 00 00 00 00 00 00 00 00  |................|
 DB44  00 00 00 00 00 00 00 00 00 00 00 00 00 00 00 00  |................|
 DB54  00 00 00 00 00 00 00 00 00 00 00 00 00 00 00 00  |................|
 DB64  00 00 00 00 00 00 00 00 00 00 00 00 00 00 00 00  |................|
 DB74  00 00 00 00 00 00 00 00 00 00 00 00 00 00 00 00  |................|
 DB84  00 00 00 00 00 00 00 00 00 00 00 00 00 00 00 00  |................|
 DB94  00 00 00 00 00 00 00 00 00 00 00 00 00 00 00 00  |................|
 DBA4  00 00 00 00 00 00 00 00 00 00 00 00 00 00 00 00  |................|
 DBB4  00 00 00 00 00 00 00 00 00 00 00 00 00 00 00 00  |................|
 DBC4  00 00 00 00 00 00 00 00 00 00 00 00 00 00 00 00  |................|
 DBD4  00 00 00 00 00 00 00 00 00 00 00 00 00 00 00 00  |................|
 DBE4  00 00 00 00 00 00 00 00 00 00 00 00 00 00 00 00  |................|
 DBF4  00 00 00 00 00 00 00 00 00 00 00 00 00 00 00 00  |................|
 DC04  00 00 00 00 00 00 00 00 00 00 00 00 00 00 00 00  |................|
 DC14  00 00 00 00 00 00 00 00 00 00 00 00 00 00 00 00  |................|
 DC24  00 00 00 00 00 00 00 00 00 00 00 00 00 00 00 00  |................|
 DC34  00 00 00 00 00 00 00 00 00 00 00 00 00 00 00 00  |................|
 DC44  00 00 00 00 00 00 00 00 00 00 00 00 00 00 00 00  |................|
 DC54  00 00 00 00 00 00 00 00 00 00 00 00 00 00 00 00  |................|
 DC64  00 00 00 00 00 00 00 00 00 00 00 00 00 00 00 00  |................|
 DC74  00 00 00 00 00 00 00 00 00 00 00 00 00 00 00 00  |................|
 DC84  00 00 00 00 00 00 00 00 00 00 00 00 00 00 00 00  |................|
 DC94  00 00 00 00 00 00 00 00 00 00 00 00 00 00 00 00  |................|
 DCA4  00 00 00 00 00 00 00 00 00 00 00 00 00 00 00 00  |................|
 DCB4  00 00 00 00 00 00 00 00 00 00 00 00 00 00 00 00  |................|
 DCC4  00 00 00 00 00 00 00 00 00 00 00 00 00 00 00 00  |................|
 DCD4  00 00 00 00 00 00 00 00 00 00 00 00 00 00 00 00  |................|
 DCE4  00 00 00 00 00 00 00 00 00 00 00 00 00 00 00 00  |................|
 DCF4  00 00 00 00 00 00 00 00 00 00 00 00 00 00 00 00  |................|
 DD04  00 00 00 00 00 00 00 00 00 00 00 00 00 00 00 00  |................|
 DD14  00 00 00 00 00 00 00 00 00 00 00 00 00 00 00 00  |................|
 DD24  00 00 00 00 00 00 00 00 00 00 00 00 00 00 00 00  |................|
 DD34  00 00 00 00 00 00 00 00 00 00 00 00 00 00 00 00  |................|
 DD44  00 00 00 00 00 00 00 00 00 00 00 00 00 00 00 00  |................|
 DD54  00 00 00 00 00 00 00 00 00 00 00 00 00 00 00 00  |................|
 DD64  00 00 00 00 00 00 00 00 00 00 00 00 00 00 00 00  |................|
 DD74  00 00 00 00 00 00 00 00 00 00 00 00 00 00 00 00  |................|
 DD84  00 00 00 00 00 00 00 00 00 00 00 00 00 00 00 00  |................|
 DD94  00 00 00 00 00 00 00 00 00 00 00 00 00 00 00 00  |................|
 DDA4  00 00 00 00 00 00 00 00 00 00 00 00 00 00 00 00  |................|
 DDB4  00 00 00 00 00 00 00 00 00 00 00 00 00 00 00 00  |................|
 DDC4  00 00 00 00 00 00 00 00 00 00 00 00 00 00 00 00  |................|
 DDD4  00 00 00 00 00 00 00 00 00 00 00 00 00 00 00 00  |................|
 DDE4  00 00 00 00 00 00 00 00 00 00 00 00 00 00 00 00  |................|
 DDF4  00 00 00 00 00 00 00 00 00 00 00 00 00 00 00 00  |................|
 DE04  00 00 00 00 00 00 00 00 00 00 00 00 00 00 00 00  |................|
 DE14  00 00 00 00 00 00 00 00 00 00 00 00 00 00 00 00  |................|
 DE24  00 00 00 00 00 00 00 00 00 00 00 00 00 00 00 00  |................|
 DE34  00 00 00 00 00 00 00 00 00 00 00 00 00 00 00 00  |................|
 DE44  00 00 00 00 00 00 00 00 00 00 00 00 00 00 00 00  |................|
 DE54  00 00 00 00 00 00 00 00 00 00 00 00 00 00 00 00  |................|
 DE64  00 00 00 00 00 00 00 00 00 00 00 00 00 00 00 00  |................|
 DE74  00 00 00 00 00 00 00 00 00 00 00 00 00 00 00 00  |................|
 DE84  00 00 00 00 00 00 00 00 00 00 00 00 00 00 00 00  |................|
 DE94  00 00 00 00 00 00 00 00 00 00 00 00 00 00 00 00  |................|
 DEA4  00 00 00 00 00 00 00 00 00 00 00 00 00 00 00 00  |................|
 DEB4  00 00 00 00 00 00 00 00 00 00 00 00 00 00 00 00  |................|
 DEC4  00 00 00 00 00 00 00 00 00 00 00 00 00 00 00 00  |................|
 DED4  00 00 00 00 00 00 00 00 00 00 00 00 00 00 00 00  |................|
 DEE4  00 00 00 00 00 00 00 00 00 00 00 00 00 00 00 00  |................|
 DEF4  00 00 00 00 00 00 00 00 00 00 00 00 00 00 00 00  |................|
 DF04  00 00 00 00 00 00 00 00 00 00 00 00 00 00 00 00  |................|
 DF14  00 00 00 00 00 00 00 00 00 00 00 00 00 00 00 00  |................|
 DF24  00 00 00 00 00 00 00 00 00 00 00 00 00 00 00 00  |................|
 DF34  00 00 00 00 00 00 00 00 00 00 00 00 00 00 00 00  |................|
 DF44  00 00 00 00 00 00 00 00 00 00 00 00 00 00 00 00  |................|
 DF54  00 00 00 00 00 00 00 00 00 00 00 00 00 00 00 00  |................|
 DF64  00 00 00 00 00 00 00 00 00 00 00 00 00 00 00 00  |................|
 DF74  00 00 00 00 00 00 00 00 00 00 00 00 00 00 00 00  |................|
 DF84  00 00 00 00 00 00 00 00 00 00 00 00 00 00 00 00  |................|
 DF94  00 00 00 00 00 00 00 00 00 00 00 00 00 00 00 00  |................|
 DFA4  00 00 00 00 00 00 00 00 00 00 00 00 00 00 00 00  |................|
 DFB4  00 00 00 00 00 00 00 00 00 00 00 00 00 00 00 00  |................|
 DFC4  00 00 00 00 00 00 00 00 00 00 00 00 00 00 00 00  |................|
 DFD4  00 00 00 00 00 00 00 00 00 00 00 00 00 00 00 00  |................|
 DFE4  00 00 00 00 00 00 00 00 00 00 00 00 00 00 00 00  |................|
 DFF4  00 00 00 00 00 00 00 00 00 00 00 00              |............    |
 E000  DA        PHX  
 E001  5A        PHY  
 E002  A2 FF     LDX  #$FF
 E004  EA        NOP  
 E005  EA        NOP  
 E006  CA        DEX  
 E007  D0 FB     BNE  $E004
 E009  88        DEY  
 E00A  D0 F6     BNE  $E002
 E00C  7A        PLY  
 E00D  FA        PLX  
 E00E  60        RTS  
 E00F  48        PHA  
 E010  5A        PHY  
 E011  DA        PHX  
 E012  98        TYA  
 E013  AA        TAX  
 E014  A0 FF     LDY  #$FF
 E016  20 00 E0  JSR  $E000
 E019  CA        DEX  
 E01A  D0 F8     BNE  $E014
 E01C  FA        PLX  
 E01D  7A        PLY  
 E01E  68        PLA  
 E01F  60        RTS  
 E020  5A        PHY  
 E021  EA        NOP  
 E022  EA        NOP  
 E023  EA        NOP  
 E024  EA        NOP  
 E025  EA        NOP  
 E026  EA        NOP  
 E027  EA        NOP  
 E028  88        DEY  
 E029  D0 F6     BNE  $E021
 E02B  7A        PLY  
 E02C  60        RTS  
 E02D  78        SEI  
 E02E  A2 00     LDX  #$00
 E030  BD 3B E0  LDA  $E03B, X
 E033  F0 1A     BEQ  $E04F
 E035  20 AA E7  JSR  $E7AA
 E038  E8        INX  
 E039  80 F5     BRA  $E030
 E03B  44 65 74 65 63 74 69 6E 67 20 6B 65 79 62 6F 61  |Detecting keyboa|
 E04B  72 64 0D 00                                      |rd..            |
 E04F  AD 9E FF  LDA  $FF9E
 E052  09 88     ORA  #$88
 E054  8D 9E FF  STA  $FF9E
 E057  A9 00     LDA  #$00
 E059  8D 9C FF  STA  $FF9C
 E05C  85 8E     STA  $8E
 E05E  85 92     STA  $92
 E060  85 8D     STA  $8D
 E062  85 8C     STA  $8C
 E064  85 91     STA  $91
 E066  85 8F     STA  $8F
 E068  85 90     STA  $90
 E06A  85 93     STA  $93
 E06C  85 94     STA  $94
 E06E  85 95     STA  $95
 E070  85 96     STA  $96
 E072  85 98     STA  $98
 E074  20 58 E1  JSR  $E158
 E077  A9 00     LDA  #$00
 E079  85 93     STA  $93
 E07B  58        CLI  
 E07C  A0 0A     LDY  #$0A
 E07E  20 00 E0  JSR  $E000
 E081  E6 94     INC  $94
 E083  F0 19     BEQ  $E09E
 E085  A5 8C     LDA  $8C
 E087  D0 F3     BNE  $E07C
 E089  A6 93     LDX  $93
 E08B  E0 00     CPX  #$00
 E08D  F0 06     BEQ  $E095
 E08F  E0 01     CPX  #$01
 E091  F0 0B     BEQ  $E09E
 E093  80 09     BRA  $E09E
 E095  20 C5 E0  JSR  $E0C5
 E098  A9 01     LDA  #$01
 E09A  85 93     STA  $93
 E09C  80 DE     BRA  $E07C
 E09E  A9 0F     LDA  #$0F
 E0A0  8D 91 FF  STA  $FF91
 E0A3  A9 00     LDA  #$00
 E0A5  8D 92 FF  STA  $FF92
 E0A8  8D 9C FF  STA  $FF9C
 E0AB  85 96     STA  $96
 E0AD  85 95     STA  $95
 E0AF  85 97     STA  $97
 E0B1  85 8C     STA  $8C
 E0B3  85 95     STA  $95
 E0B5  85 98     STA  $98
 E0B7  85 8E     STA  $8E
 E0B9  85 93     STA  $93
 E0BB  85 92     STA  $92
 E0BD  85 8D     STA  $8D
 E0BF  85 8F     STA  $8F
 E0C1  85 90     STA  $90
 E0C3  58        CLI  
 E0C4  60        RTS  
 E0C5  A9 00     LDA  #$00
 E0C7  85 94     STA  $94
 E0C9  A9 F0     LDA  #$F0
 E0CB  8D 91 FF  STA  $FF91
 E0CE  78        SEI  
 E0CF  20 FC E0  JSR  $E0FC
 E0D2  A9 FF     LDA  #$FF
 E0D4  85 8C     STA  $8C
 E0D6  58        CLI  
 E0D7  60        RTS  
 E0D8  A2 00     LDX  #$00
 E0DA  BD E5 E0  LDA  $E0E5, X
 E0DD  F0 BF     BEQ  $E09E
 E0DF  20 AA E7  JSR  $E7AA
 E0E2  E8        INX  
 E0E3  80 F5     BRA  $E0DA
 E0E5  4E 6F 20 6B 65 79 62 6F 61 72 64 20 63 6F 6E 6E  |No keyboard conn|
 E0F5  65 63 74 65 64 0D 00                             |ected..         |
 E0FC  48        PHA  
 E0FD  5A        PHY  
 E0FE  A9 C0     LDA  #$C0
 E100  8D 9C FF  STA  $FF9C
 E103  A0 80     LDY  #$80
 E105  20 00 E0  JSR  $E000
 E108  AD 90 FF  LDA  $FF90
 E10B  29 7F     AND  #$7F
 E10D  8D 90 FF  STA  $FF90
 E110  AD 92 FF  LDA  $FF92
 E113  09 80     ORA  #$80
 E115  8D 92 FF  STA  $FF92
 E118  A0 40     LDY  #$40
 E11A  20 00 E0  JSR  $E000
 E11D  A9 01     LDA  #$01
 E11F  85 8D     STA  $8D
 E121  A9 00     LDA  #$00
 E123  85 8C     STA  $8C
 E125  85 91     STA  $91
 E127  8D 9C FF  STA  $FF9C
 E12A  7A        PLY  
 E12B  68        PLA  
 E12C  60        RTS  
 E12D  48        PHA  
 E12E  A5 85     LDA  $85
 E130  C5 89     CMP  $89
 E132  90 16     BCC  $E14A
 E134  A5 84     LDA  $84
 E136  C5 88     CMP  $88
 E138  90 10     BCC  $E14A
 E13A  A5 83     LDA  $83
 E13C  C5 87     CMP  $87
 E13E  90 0A     BCC  $E14A
 E140  A5 82     LDA  $82
 E142  69 01     ADC  #$01
 E144  C5 86     CMP  $86
 E146  90 02     BCC  $E14A
 E148  68        PLA  
 E149  60        RTS  
 E14A  A9 00     LDA  #$00
 E14C  85 8E     STA  $8E
 E14E  85 92     STA  $92
 E150  85 8D     STA  $8D
 E152  85 8F     STA  $8F
 E154  85 90     STA  $90
 E156  F0 F0     BEQ  $E148
 E158  DA        PHX  
 E159  A2 FF     LDX  #$FF
 E15B  9E 01 7B  STZ  $7B01, X
 E15E  CA        DEX  
 E15F  D0 FA     BNE  $E15B
 E161  FA        PLX  
 E162  60        RTS  
 E163  48        PHA  
 E164  DA        PHX  
 E165  A5 8C     LDA  $8C
 E167  D0 21     BNE  $E18A
 E169  A5 8D     LDA  $8D
 E16B  C9 00     CMP  #$00
 E16D  F0 0F     BEQ  $E17E
 E16F  C9 01     CMP  #$01
 E171  F0 1A     BEQ  $E18D
 E173  C9 02     CMP  #$02
 E175  F0 31     BEQ  $E1A8
 E177  C9 03     CMP  #$03
 E179  F0 33     BEQ  $E1AE
 E17B  4C E1 E1  JMP  $E1E1
 E17E  A9 01     LDA  #$01
 E180  85 8D     STA  $8D
 E182  A9 00     LDA  #$00
 E184  85 8E     STA  $8E
 E186  85 92     STA  $92
 E188  80 57     BRA  $E1E1
 E18A  4C 13 E2  JMP  $E213
 E18D  AD 90 FF  LDA  $FF90
 E190  29 80     AND  #$80
 E192  05 8E     ORA  $8E
 E194  85 8E     STA  $8E
 E196  E6 92     INC  $92
 E198  A5 92     LDA  $92
 E19A  C9 08     CMP  #$08
 E19C  F0 04     BEQ  $E1A2
 E19E  46 8E     LSR  $8E
 E1A0  80 3F     BRA  $E1E1
 E1A2  A9 02     LDA  #$02
 E1A4  85 8D     STA  $8D
 E1A6  80 39     BRA  $E1E1
 E1A8  A9 03     LDA  #$03
 E1AA  85 8D     STA  $8D
 E1AC  80 33     BRA  $E1E1
 E1AE  A9 00     LDA  #$00
 E1B0  85 8D     STA  $8D
 E1B2  A5 96     LDA  $96
 E1B4  D0 3B     BNE  $E1F1
 E1B6  A6 8E     LDX  $8E
 E1B8  E0 AA     CPX  #$AA
 E1BA  F0 2B     BEQ  $E1E7
 E1BC  E0 FA     CPX  #$FA
 E1BE  F0 27     BEQ  $E1E7
 E1C0  E0 F0     CPX  #$F0
 E1C2  F0 27     BEQ  $E1EB
 E1C4  E0 12     CPX  #$12
 E1C6  F0 43     BEQ  $E20B
 E1C8  E0 59     CPX  #$59
 E1CA  F0 3F     BEQ  $E20B
 E1CC  A5 97     LDA  $97
 E1CE  29 01     AND  #$01
 E1D0  D0 05     BNE  $E1D7
 E1D2  BD 85 E2  LDA  $E285, X
 E1D5  80 03     BRA  $E1DA
 E1D7  BD 05 E3  LDA  $E305, X
 E1DA  A6 8F     LDX  $8F
 E1DC  9D 01 7B  STA  $7B01, X
 E1DF  E6 8F     INC  $8F
 E1E1  2C 90 FF  BIT  $FF90
 E1E4  FA        PLX  
 E1E5  68        PLA  
 E1E6  60        RTS  
 E1E7  86 95     STX  $95
 E1E9  80 F6     BRA  $E1E1
 E1EB  A9 01     LDA  #$01
 E1ED  85 96     STA  $96
 E1EF  80 F0     BRA  $E1E1
 E1F1  A6 8E     LDX  $8E
 E1F3  E0 12     CPX  #$12
 E1F5  F0 0A     BEQ  $E201
 E1F7  E0 59     CPX  #$59
 E1F9  F0 06     BEQ  $E201
 E1FB  A9 00     LDA  #$00
 E1FD  85 96     STA  $96
 E1FF  80 E0     BRA  $E1E1
 E201  A9 00     LDA  #$00
 E203  85 96     STA  $96
 E205  A9 00     LDA  #$00
 E207  85 97     STA  $97
 E209  80 D6     BRA  $E1E1
 E20B  A5 97     LDA  $97
 E20D  09 01     ORA  #$01
 E20F  85 97     STA  $97
 E211  80 CE     BRA  $E1E1
 E213  A5 8D     LDA  $8D
 E215  C9 01     CMP  #$01
 E217  F0 0A     BEQ  $E223
 E219  C9 02     CMP  #$02
 E21B  F0 2E     BEQ  $E24B
 E21D  C9 03     CMP  #$03
 E21F  F0 4D     BEQ  $E26E
 E221  80 BE     BRA  $E1E1
 E223  A5 8C     LDA  $8C
 E225  29 01     AND  #$01
 E227  F0 0C     BEQ  $E235
 E229  AD 90 FF  LDA  $FF90
 E22C  09 80     ORA  #$80
 E22E  8D 90 FF  STA  $FF90
 E231  E6 91     INC  $91
 E233  80 08     BRA  $E23D
 E235  AD 90 FF  LDA  $FF90
 E238  29 7F     AND  #$7F
 E23A  8D 90 FF  STA  $FF90
 E23D  E6 92     INC  $92
 E23F  A5 92     LDA  $92
 E241  C9 08     CMP  #$08
 E243  4C A2 E1  JMP  $E1A2
 E246  46 8C     LSR  $8C
 E248  18        CLC  
 E249  80 96     BRA  $E1E1
 E24B  A5 91     LDA  $91
 E24D  29 01     AND  #$01
 E24F  F0 0E     BEQ  $E25F
 E251  AD 90 FF  LDA  $FF90
 E254  09 80     ORA  #$80
 E256  8D 90 FF  STA  $FF90
 E259  A9 03     LDA  #$03
 E25B  85 8D     STA  $8D
 E25D  80 82     BRA  $E1E1
 E25F  AD 90 FF  LDA  $FF90
 E262  29 7F     AND  #$7F
 E264  8D 90 FF  STA  $FF90
 E267  A9 03     LDA  #$03
 E269  85 8D     STA  $8D
 E26B  4C E1 E1  JMP  $E1E1
 E26E  A9 00     LDA  #$00
 E270  85 8D     STA  $8D
 E272  A9 00     LDA  #$00
 E274  85 8C     STA  $8C
 E276  85 92     STA  $92
 E278  85 91     STA  $91
 E27A  AD 92 FF  LDA  $FF92
 E27D  29 7F     AND  #$7F
 E27F  8D 92 FF  STA  $FF92
 E282  4C E1 E1  JMP  $E1E1
 E285  00 89 87 85 83 81 82 8C 00 8A 88 86 84 09 60 8F  |..............`.|
 E295  03 A0 00 E0 00 71 31 00 00 00 7A 73 61 77 32 A1  |.....q1...zsaw2.|
 E2A5  02 63 78 64 65 34 33 A2 00 20 76 66 74 72 35 A3  |.cxde43.. vftr5.|
 E2B5  00 6E 62 68 67 79 36 00 00 00 6D 6A 75 37 38 00  |.nbhgy6...mju78.|
 E2C5  00 2C 6B 69 6F 30 39 00 00 2E 2F 6C 3B 70 2D 00  |.,kio09.../l;p-.|
 E2D5  00 00 27 00 5B 3D 00 00 00 00 0D 5D 00 5C 00 00  |..'.[=.....].\..|
 E2E5  00 00 00 00 00 00 08 00 00 31 2F 34 37 00 00 00  |.........1/47...|
 E2F5  30 2E 32 35 36 38 1B 00 8B 2B 33 2D 2A 39 8D 00  |0.2568...+3-*9..|
 E305  00 C9 C7 C5 C3 C1 C2 CC 00 CA C8 C6 C4 09 7E CF  |..............~.|
 E315  03 A0 00 E0 00 51 21 00 00 00 5A 53 41 57 40 E1  |.....Q!...ZSAW@.|
 E325  02 43 58 44 45 24 23 E2 00 20 56 46 54 52 25 E3  |.CXDE$#.. VFTR%.|
 E335  00 4E 42 48 47 59 5E 00 00 00 4D 4A 55 26 2A 00  |.NBHGY^...MJU&*.|
 E345  00 3C 4B 49 4F 29 28 00 00 3E 3F 4C 3A 50 5F 00  |.<KIO)(..>?L:P_.|
 E355  00 00 22 00 7B 2B 00 00 00 00 0D 7D 00 7C 00 00  |..".{+.....}.|..|
 E365  00 00 00 00 00 00 08 00 00 91 2F 94 97 00 00 00  |........../.....|
 E375  90 7F 92 95 96 98 1B 00 CB 2B 93 2D 2A 99 CD     |.........+.-*.. |
 E384  AD 9E FF  LDA  $FF9E
 E387  09 C0     ORA  #$C0
 E389  8D 9E FF  STA  $FF9E
 E38C  A9 40     LDA  #$40
 E38E  8D 9B FF  STA  $FF9B
 E391  A9 D9     LDA  #$D9
 E393  8D 94 FF  STA  $FF94
 E396  A9 F5     LDA  #$F5
 E398  8D 95 FF  STA  $FF95
 E39B  A9 00     LDA  #$00
 E39D  85 82     STA  $82
 E39F  85 83     STA  $83
 E3A1  85 84     STA  $84
 E3A3  85 85     STA  $85
 E3A5  58        CLI  
 E3A6  60        RTS  
 E3A7  E6 82     INC  $82
 E3A9  F0 04     BEQ  $E3AF
 E3AB  20 2D E1  JSR  $E12D
 E3AE  60        RTS  
 E3AF  E6 83     INC  $83
 E3B1  F0 02     BEQ  $E3B5
 E3B3  80 F6     BRA  $E3AB
 E3B5  E6 84     INC  $84
 E3B7  F0 02     BEQ  $E3BB
 E3B9  80 F0     BRA  $E3AB
 E3BB  E6 85     INC  $85
 E3BD  80 EC     BRA  $E3AB
 E3BF  20 43 E6  JSR  $E643
 E3C2  A9 00     LDA  #$00
 E3C4  85 9F     STA  $9F
 E3C6  8D 91 FF  STA  $FF91
 E3C9  85 9B     STA  $9B
 E3CB  85 9C     STA  $9C
 E3CD  A9 FF     LDA  #$FF
 E3CF  8D 93 FF  STA  $FF93
 E3D2  A2 03     LDX  #$03
 E3D4  A9 30     LDA  #$30
 E3D6  20 D9 E4  JSR  $E4D9
 E3D9  A0 FF     LDY  #$FF
 E3DB  20 00 E0  JSR  $E000
 E3DE  CA        DEX  
 E3DF  D0 F3     BNE  $E3D4
 E3E1  A0 FF     LDY  #$FF
 E3E3  20 00 E0  JSR  $E000
 E3E6  A9 28     LDA  #$28
 E3E8  20 FE E4  JSR  $E4FE
 E3EB  A0 FF     LDY  #$FF
 E3ED  20 00 E0  JSR  $E000
 E3F0  A0 FF     LDY  #$FF
 E3F2  20 00 E0  JSR  $E000
 E3F5  A9 06     LDA  #$06
 E3F7  20 F7 E4  JSR  $E4F7
 E3FA  A9 0F     LDA  #$0F
 E3FC  20 F7 E4  JSR  $E4F7
 E3FF  A9 01     LDA  #$01
 E401  20 F7 E4  JSR  $E4F7
 E404  A9 80     LDA  #$80
 E406  20 F7 E4  JSR  $E4F7
 E409  60        RTS  
 E40A  48        PHA  
 E40B  DA        PHX  
 E40C  5A        PHY  
 E40D  A9 0E     LDA  #$0E
 E40F  8D 93 FF  STA  $FF93
 E412  A9 04     LDA  #$04
 E414  8D 91 FF  STA  $FF91
 E417  A9 0C     LDA  #$0C
 E419  8D 91 FF  STA  $FF91
 E41C  A2 FF     LDX  #$FF
 E41E  A0 10     LDY  #$10
 E420  20 20 E0  JSR  $E020
 E423  CA        DEX  
 E424  F0 07     BEQ  $E42D
 E426  2C 91 FF  BIT  $FF91
 E429  30 F3     BMI  $E41E
 E42B  10 04     BPL  $E431
 E42D  A9 01     LDA  #$01
 E42F  85 9F     STA  $9F
 E431  A9 04     LDA  #$04
 E433  8D 91 FF  STA  $FF91
 E436  A9 0C     LDA  #$0C
 E438  8D 91 FF  STA  $FF91
 E43B  A9 00     LDA  #$00
 E43D  8D 91 FF  STA  $FF91
 E440  7A        PLY  
 E441  FA        PLX  
 E442  68        PLA  
 E443  60        RTS  
 E444  48        PHA  
 E445  DA        PHX  
 E446  5A        PHY  
 E447  A2 FE     LDX  #$FE
 E449  8E 93 FF  STX  $FF93
 E44C  AA        TAX  
 E44D  29 F0     AND  #$F0
 E44F  09 02     ORA  #$02
 E451  8D 91 FF  STA  $FF91
 E454  09 08     ORA  #$08
 E456  8D 91 FF  STA  $FF91
 E459  29 F7     AND  #$F7
 E45B  8D 91 FF  STA  $FF91
 E45E  8A        TXA  
 E45F  0A        ASL  
 E460  0A        ASL  
 E461  0A        ASL  
 E462  0A        ASL  
 E463  29 F0     AND  #$F0
 E465  09 02     ORA  #$02
 E467  8D 91 FF  STA  $FF91
 E46A  09 08     ORA  #$08
 E46C  8D 91 FF  STA  $FF91
 E46F  29 F7     AND  #$F7
 E471  8D 91 FF  STA  $FF91
 E474  20 0A E4  JSR  $E40A
 E477  7A        PLY  
 E478  FA        PLX  
 E479  68        PLA  
 E47A  60        RTS  
 E47B  A9 0E     LDA  #$0E
 E47D  8D 93 FF  STA  $FF93
 E480  A9 04     LDA  #$04
 E482  8D 91 FF  STA  $FF91
 E485  A9 0C     LDA  #$0C
 E487  8D 91 FF  STA  $FF91
 E48A  AD 91 FF  LDA  $FF91
 E48D  29 70     AND  #$70
 E48F  85 9A     STA  $9A
 E491  A9 04     LDA  #$04
 E493  8D 91 FF  STA  $FF91
 E496  A9 0C     LDA  #$0C
 E498  8D 91 FF  STA  $FF91
 E49B  AD 91 FF  LDA  $FF91
 E49E  29 F0     AND  #$F0
 E4A0  4A        LSR  
 E4A1  4A        LSR  
 E4A2  4A        LSR  
 E4A3  4A        LSR  
 E4A4  05 9A     ORA  $9A
 E4A6  20 0A E4  JSR  $E40A
 E4A9  60        RTS  
 E4AA  A9 0E     LDA  #$0E
 E4AC  8D 93 FF  STA  $FF93
 E4AF  A9 04     LDA  #$04
 E4B1  8D 91 FF  STA  $FF91
 E4B4  A9 0E     LDA  #$0E
 E4B6  8D 91 FF  STA  $FF91
 E4B9  AD 91 FF  LDA  $FF91
 E4BC  29 70     AND  #$70
 E4BE  85 9A     STA  $9A
 E4C0  A9 04     LDA  #$04
 E4C2  8D 91 FF  STA  $FF91
 E4C5  A9 0E     LDA  #$0E
 E4C7  8D 91 FF  STA  $FF91
 E4CA  AD 91 FF  LDA  $FF91
 E4CD  29 F0     AND  #$F0
 E4CF  4A        LSR  
 E4D0  4A        LSR  
 E4D1  4A        LSR  
 E4D2  4A        LSR  
 E4D3  05 9A     ORA  $9A
 E4D5  20 0A E4  JSR  $E40A
 E4D8  60        RTS  
 E4D9  48        PHA  
 E4DA  5A        PHY  
 E4DB  A0 FE     LDY  #$FE
 E4DD  8C 93 FF  STY  $FF93
 E4E0  29 F0     AND  #$F0
 E4E2  8D 91 FF  STA  $FF91
 E4E5  09 08     ORA  #$08
 E4E7  8D 91 FF  STA  $FF91
 E4EA  29 F7     AND  #$F7
 E4EC  8D 91 FF  STA  $FF91
 E4EF  A0 FF     LDY  #$FF
 E4F1  20 00 E0  JSR  $E000
 E4F4  7A        PLY  
 E4F5  68        PLA  
 E4F6  60        RTS  
 E4F7  20 FE E4  JSR  $E4FE
 E4FA  20 0A E4  JSR  $E40A
 E4FD  60        RTS  
 E4FE  48        PHA  
 E4FF  5A        PHY  
 E500  DA        PHX  
 E501  A0 FE     LDY  #$FE
 E503  8C 93 FF  STY  $FF93
 E506  AA        TAX  
 E507  29 F0     AND  #$F0
 E509  8D 91 FF  STA  $FF91
 E50C  09 08     ORA  #$08
 E50E  8D 91 FF  STA  $FF91
 E511  29 F7     AND  #$F7
 E513  8D 91 FF  STA  $FF91
 E516  8A        TXA  
 E517  0A        ASL  
 E518  0A        ASL  
 E519  0A        ASL  
 E51A  0A        ASL  
 E51B  8D 91 FF  STA  $FF91
 E51E  09 08     ORA  #$08
 E520  8D 91 FF  STA  $FF91
 E523  29 F7     AND  #$F7
 E525  8D 91 FF  STA  $FF91
 E528  FA        PLX  
 E529  7A        PLY  
 E52A  68        PLA  
 E52B  60        RTS  
 E52C  48        PHA  
 E52D  A9 01     LDA  #$01
 E52F  20 F7 E4  JSR  $E4F7
 E532  A9 80     LDA  #$80
 E534  20 F7 E4  JSR  $E4F7
 E537  68        PLA  
 E538  60        RTS  
 E539  48        PHA  
 E53A  DA        PHX  
 E53B  5A        PHY  
 E53C  A6 9F     LDX  $9F
 E53E  D0 3A     BNE  $E57A
 E540  A0 00     LDY  #$00
 E542  48        PHA  
 E543  C9 0A     CMP  #$0A
 E545  F0 5F     BEQ  $E5A6
 E547  C9 0D     CMP  #$0D
 E549  F0 5B     BEQ  $E5A6
 E54B  C9 08     CMP  #$08
 E54D  F0 2F     BEQ  $E57E
 E54F  48        PHA  
 E550  20 7B E4  JSR  $E47B
 E553  AA        TAX  
 E554  68        PLA  
 E555  20 44 E4  JSR  $E444
 E558  9D 82 7A  STA  $7A82, X
 E55B  8A        TXA  
 E55C  29 7F     AND  #$7F
 E55E  C9 67     CMP  #$67
 E560  F0 3D     BEQ  $E59F
 E562  C9 53     CMP  #$53
 E564  F0 31     BEQ  $E597
 E566  C9 27     CMP  #$27
 E568  F0 31     BEQ  $E59B
 E56A  C9 13     CMP  #$13
 E56C  F0 25     BEQ  $E593
 E56E  68        PLA  
 E56F  9D 82 7A  STA  $7A82, X
 E572  98        TYA  
 E573  F0 05     BEQ  $E57A
 E575  09 80     ORA  #$80
 E577  20 F7 E4  JSR  $E4F7
 E57A  7A        PLY  
 E57B  FA        PLX  
 E57C  68        PLA  
 E57D  60        RTS  
 E57E  A9 10     LDA  #$10
 E580  20 F7 E4  JSR  $E4F7
 E583  A9 20     LDA  #$20
 E585  20 44 E4  JSR  $E444
 E588  A9 10     LDA  #$10
 E58A  20 F7 E4  JSR  $E4F7
 E58D  68        PLA  
 E58E  A9 20     LDA  #$20
 E590  48        PHA  
 E591  80 DB     BRA  $E56E
 E593  A0 C0     LDY  #$C0
 E595  80 D7     BRA  $E56E
 E597  A0 94     LDY  #$94
 E599  80 D3     BRA  $E56E
 E59B  A0 D4     LDY  #$D4
 E59D  80 CF     BRA  $E56E
 E59F  20 BB E5  JSR  $E5BB
 E5A2  A0 00     LDY  #$00
 E5A4  80 C8     BRA  $E56E
 E5A6  20 7B E4  JSR  $E47B
 E5A9  29 7F     AND  #$7F
 E5AB  C9 54     CMP  #$54
 E5AD  B0 F0     BCS  $E59F
 E5AF  C9 40     CMP  #$40
 E5B1  B0 E4     BCS  $E597
 E5B3  C9 14     CMP  #$14
 E5B5  B0 E4     BCS  $E59B
 E5B7  C9 00     CMP  #$00
 E5B9  B0 D8     BCS  $E593
 E5BB  48        PHA  
 E5BC  DA        PHX  
 E5BD  5A        PHY  
 E5BE  20 2C E5  JSR  $E52C
 E5C1  A9 80     LDA  #$80
 E5C3  20 F7 E4  JSR  $E4F7
 E5C6  A2 40     LDX  #$40
 E5C8  20 7B E4  JSR  $E47B
 E5CB  48        PHA  
 E5CC  BD 82 7A  LDA  $7A82, X
 E5CF  A8        TAY  
 E5D0  20 44 E4  JSR  $E444
 E5D3  68        PLA  
 E5D4  DA        PHX  
 E5D5  AA        TAX  
 E5D6  98        TYA  
 E5D7  9D 82 7A  STA  $7A82, X
 E5DA  FA        PLX  
 E5DB  E8        INX  
 E5DC  E0 54     CPX  #$54
 E5DE  90 E8     BCC  $E5C8
 E5E0  A9 40     LDA  #$40
 E5E2  09 80     ORA  #$80
 E5E4  20 F7 E4  JSR  $E4F7
 E5E7  A2 14     LDX  #$14
 E5E9  20 7B E4  JSR  $E47B
 E5EC  48        PHA  
 E5ED  BD 82 7A  LDA  $7A82, X
 E5F0  A8        TAY  
 E5F1  20 44 E4  JSR  $E444
 E5F4  68        PLA  
 E5F5  DA        PHX  
 E5F6  AA        TAX  
 E5F7  98        TYA  
 E5F8  9D 82 7A  STA  $7A82, X
 E5FB  FA        PLX  
 E5FC  E8        INX  
 E5FD  E0 27     CPX  #$27
 E5FF  90 E8     BCC  $E5E9
 E601  A9 14     LDA  #$14
 E603  09 80     ORA  #$80
 E605  20 F7 E4  JSR  $E4F7
 E608  A2 54     LDX  #$54
 E60A  20 7B E4  JSR  $E47B
 E60D  48        PHA  
 E60E  BD 82 7A  LDA  $7A82, X
 E611  A8        TAY  
 E612  20 44 E4  JSR  $E444
 E615  68        PLA  
 E616  DA        PHX  
 E617  AA        TAX  
 E618  98        TYA  
 E619  9D 82 7A  STA  $7A82, X
 E61C  FA        PLX  
 E61D  E8        INX  
 E61E  E0 67     CPX  #$67
 E620  90 E8     BCC  $E60A
 E622  A9 54     LDA  #$54
 E624  09 80     ORA  #$80
 E626  20 F7 E4  JSR  $E4F7
 E629  A2 54     LDX  #$54
 E62B  A9 20     LDA  #$20
 E62D  9D 82 7A  STA  $7A82, X
 E630  20 44 E4  JSR  $E444
 E633  E8        INX  
 E634  E0 66     CPX  #$66
 E636  90 F5     BCC  $E62D
 E638  A9 54     LDA  #$54
 E63A  09 80     ORA  #$80
 E63C  20 F7 E4  JSR  $E4F7
 E63F  7A        PLY  
 E640  FA        PLX  
 E641  68        PLA  
 E642  60        RTS  
 E643  48        PHA  
 E644  DA        PHX  
 E645  A2 80     LDX  #$80
 E647  A9 20     LDA  #$20
 E649  9D 82 7A  STA  $7A82, X
 E64C  CA        DEX  
 E64D  D0 FA     BNE  $E649
 E64F  FA        PLX  
 E650  68        PLA  
 E651  60        RTS  
 E652  A9 00     LDA  #$00
 E654  8D 84 FF  STA  $FF84
 E657  8D 81 FF  STA  $FF81
 E65A  8D 82 FF  STA  $FF82
 E65D  A9 05     LDA  #$05
 E65F  8D 80 FF  STA  $FF80
 E662  20 B1 E6  JSR  $E6B1
 E665  60        RTS  
 E666  48        PHA  
 E667  DA        PHX  
 E668  5A        PHY  
 E669  C9 0D     CMP  #$0D
 E66B  F0 13     BEQ  $E680
 E66D  C9 0A     CMP  #$0A
 E66F  F0 0F     BEQ  $E680
 E671  8D 83 FF  STA  $FF83
 E674  E6 9E     INC  $9E
 E676  A6 9E     LDX  $9E
 E678  E0 50     CPX  #$50
 E67A  F0 04     BEQ  $E680
 E67C  7A        PLY  
 E67D  FA        PLX  
 E67E  68        PLA  
 E67F  60        RTS  
 E680  E6 9D     INC  $9D
 E682  64 9E     STZ  $9E
 E684  A6 9D     LDX  $9D
 E686  E0 3C     CPX  #$3C
 E688  90 05     BCC  $E68F
 E68A  20 9D E6  JSR  $E69D
 E68D  80 ED     BRA  $E67C
 E68F  BD DF E6  LDA  $E6DF, X
 E692  8D 82 FF  STA  $FF82
 E695  BD 1C E7  LDA  $E71C, X
 E698  8D 81 FF  STA  $FF81
 E69B  80 DF     BRA  $E67C
 E69D  48        PHA  
 E69E  A9 01     LDA  #$01
 E6A0  8D 87 FF  STA  $FF87
 E6A3  AD 1B E7  LDA  $E71B
 E6A6  8D 82 FF  STA  $FF82
 E6A9  AD 58 E7  LDA  $E758
 E6AC  8D 81 FF  STA  $FF81
 E6AF  68        PLA  
 E6B0  60        RTS  
 E6B1  48        PHA  
 E6B2  DA        PHX  
 E6B3  5A        PHY  
 E6B4  A9 00     LDA  #$00
 E6B6  85 9D     STA  $9D
 E6B8  A9 00     LDA  #$00
 E6BA  8D 82 FF  STA  $FF82
 E6BD  8D 81 FF  STA  $FF81
 E6C0  A9 20     LDA  #$20
 E6C2  A0 50     LDY  #$50
 E6C4  A2 3C     LDX  #$3C
 E6C6  8D 83 FF  STA  $FF83
 E6C9  CA        DEX  
 E6CA  D0 FA     BNE  $E6C6
 E6CC  88        DEY  
 E6CD  D0 F5     BNE  $E6C4
 E6CF  A9 00     LDA  #$00
 E6D1  85 9D     STA  $9D
 E6D3  A9 00     LDA  #$00
 E6D5  8D 82 FF  STA  $FF82
 E6D8  8D 81 FF  STA  $FF81
 E6DB  7A        PLY  
 E6DC  FA        PLX  
 E6DD  68        PLA  
 E6DE  60        RTS  
 E6DF  00 02 05 07 0A 0C 0F 11 14 16 19 1B 1E 20 23 25  |............. #%|
 E6EF  28 2A 2D 2F 32 34 37 39 3C 3E 41 43 46 48 4B 4D  |(*-/2479<>ACFHKM|
 E6FF  50 52 55 57 5A 5C 5F 61 64 66 69 6B 6E 70 73 75  |PRUWZ\_adfiknpsu|
 E70F  78 7A 7D 7F 82 84 87 89 8C 8E 91 93 96 00 10 00  |xz}.............|
 E71F  10 00 10 00 10 00 10 00 10 00 10 00 10 00 10 00  |................|
 E72F  10 00 10 00 10 00 10 00 10 00 10 00 10 00 10 00  |................|
 E73F  10 00 10 00 10 00 10 00 10 00 10 00 10 00 10 00  |................|
 E74F  10 00 10 00 10 00 10 00 10 00                    |..........      |
 E759  A9 FF     LDA  #$FF
 E75B  8D 93 FF  STA  $FF93
 E75E  20 75 E7  JSR  $E775
 E761  20 2D E0  JSR  $E02D
 E764  20 84 E3  JSR  $E384
 E767  20 BF E3  JSR  $E3BF
 E76A  A9 00     LDA  #$00
 E76C  8D 92 FF  STA  $FF92
 E76F  4C 00 80  JMP  $8000
 E772  4C 59 E7  JMP  $E759
 E775  8D A1 FF  STA  $FFA1
 E778  A9 0B     LDA  #$0B
 E77A  8D A2 FF  STA  $FFA2
 E77D  A9 10     LDA  #$10
 E77F  8D A3 FF  STA  $FFA3
 E782  60        RTS  
 E783  AD A1 FF  LDA  $FFA1
 E786  29 08     AND  #$08
 E788  F0 05     BEQ  $E78F
 E78A  AD A0 FF  LDA  $FFA0
 E78D  38        SEC  
 E78E  60        RTS  
 E78F  DA        PHX  
 E790  A6 90     LDX  $90
 E792  BD 01 7B  LDA  $7B01, X
 E795  F0 08     BEQ  $E79F
 E797  9E 01 7B  STZ  $7B01, X
 E79A  E6 90     INC  $90
 E79C  38        SEC  
 E79D  FA        PLX  
 E79E  60        RTS  
 E79F  E6 90     INC  $90
 E7A1  FA        PLX  
 E7A2  18        CLC  
 E7A3  60        RTS  
 E7A4  20 83 E7  JSR  $E783
 E7A7  90 FB     BCC  $E7A4
 E7A9  60        RTS  
 E7AA  5A        PHY  
 E7AB  8D A0 FF  STA  $FFA0
 E7AE  A0 10     LDY  #$10
 E7B0  20 20 E0  JSR  $E020
 E7B3  20 39 E5  JSR  $E539
 E7B6  7A        PLY  
 E7B7  60        RTS  
 E7B8  48        PHA  
 E7B9  5A        PHY  
 E7BA  AD 9D FF  LDA  $FF9D
 E7BD  10 32     BPL  $E7F1
 E7BF  29 08     AND  #$08
 E7C1  D0 09     BNE  $E7CC
 E7C3  AD 9D FF  LDA  $FF9D
 E7C6  29 40     AND  #$40
 E7C8  D0 21     BNE  $E7EB
 E7CA  80 25     BRA  $E7F1
 E7CC  A5 82     LDA  $82
 E7CE  85 86     STA  $86
 E7D0  A5 83     LDA  $83
 E7D2  85 87     STA  $87
 E7D4  A5 84     LDA  $84
 E7D6  85 88     STA  $88
 E7D8  A5 85     LDA  $85
 E7DA  85 89     STA  $89
 E7DC  A0 04     LDY  #$04
 E7DE  20 20 E0  JSR  $E020
 E7E1  20 63 E1  JSR  $E163
 E7E4  A0 04     LDY  #$04
 E7E6  20 20 E0  JSR  $E020
 E7E9  80 06     BRA  $E7F1
 E7EB  AD 94 FF  LDA  $FF94
 E7EE  20 A7 E3  JSR  $E3A7
 E7F1  7A        PLY  
 E7F2  68        PLA  
 E7F3  40        RTI  
 E7F4  54 61 6C 69 20 46 6F 72 74 68 20 32 20 64 65 66  |Tali Forth 2 def|
 E804  61 75 6C 74 20 6B 65 72 6E 65 6C 20 66 6F 72 20  |ault kernel for |
 E814  70 72 6F 74 6F 20 53 42 43 20 28 30 33 2F 30 31  |proto SBC (03/01|
 E824  2F 32 30 32 31 29 0A 00 00 00 00 00 00 00 00 00  |/2021)..........|
 E834  00 00 00 00 00 00 00 00 00 00 00 00 00 00 00 00  |................|
 E844  00 00 00 00 00 00 00 00 00 00 00 00 00 00 00 00  |................|
 E854  00 00 00 00 00 00 00 00 00 00 00 00 00 00 00 00  |................|
 E864  00 00 00 00 00 00 00 00 00 00 00 00 00 00 00 00  |................|
 E874  00 00 00 00 00 00 00 00 00 00 00 00 00 00 00 00  |................|
 E884  00 00 00 00 00 00 00 00 00 00 00 00 00 00 00 00  |................|
 E894  00 00 00 00 00 00 00 00 00 00 00 00 00 00 00 00  |................|
 E8A4  00 00 00 00 00 00 00 00 00 00 00 00 00 00 00 00  |................|
 E8B4  00 00 00 00 00 00 00 00 00 00 00 00 00 00 00 00  |................|
 E8C4  00 00 00 00 00 00 00 00 00 00 00 00 00 00 00 00  |................|
 E8D4  00 00 00 00 00 00 00 00 00 00 00 00 00 00 00 00  |................|
 E8E4  00 00 00 00 00 00 00 00 00 00 00 00 00 00 00 00  |................|
 E8F4  00 00 00 00 00 00 00 00 00 00 00 00 00 00 00 00  |................|
 E904  00 00 00 00 00 00 00 00 00 00 00 00 00 00 00 00  |................|
 E914  00 00 00 00 00 00 00 00 00 00 00 00 00 00 00 00  |................|
 E924  00 00 00 00 00 00 00 00 00 00 00 00 00 00 00 00  |................|
 E934  00 00 00 00 00 00 00 00 00 00 00 00 00 00 00 00  |................|
 E944  00 00 00 00 00 00 00 00 00 00 00 00 00 00 00 00  |................|
 E954  00 00 00 00 00 00 00 00 00 00 00 00 00 00 00 00  |................|
 E964  00 00 00 00 00 00 00 00 00 00 00 00 00 00 00 00  |................|
 E974  00 00 00 00 00 00 00 00 00 00 00 00 00 00 00 00  |................|
 E984  00 00 00 00 00 00 00 00 00 00 00 00 00 00 00 00  |................|
 E994  00 00 00 00 00 00 00 00 00 00 00 00 00 00 00 00  |................|
 E9A4  00 00 00 00 00 00 00 00 00 00 00 00 00 00 00 00  |................|
 E9B4  00 00 00 00 00 00 00 00 00 00 00 00 00 00 00 00  |................|
 E9C4  00 00 00 00 00 00 00 00 00 00 00 00 00 00 00 00  |................|
 E9D4  00 00 00 00 00 00 00 00 00 00 00 00 00 00 00 00  |................|
 E9E4  00 00 00 00 00 00 00 00 00 00 00 00 00 00 00 00  |................|
 E9F4  00 00 00 00 00 00 00 00 00 00 00 00 00 00 00 00  |................|
 EA04  00 00 00 00 00 00 00 00 00 00 00 00 00 00 00 00  |................|
 EA14  00 00 00 00 00 00 00 00 00 00 00 00 00 00 00 00  |................|
 EA24  00 00 00 00 00 00 00 00 00 00 00 00 00 00 00 00  |................|
 EA34  00 00 00 00 00 00 00 00 00 00 00 00 00 00 00 00  |................|
 EA44  00 00 00 00 00 00 00 00 00 00 00 00 00 00 00 00  |................|
 EA54  00 00 00 00 00 00 00 00 00 00 00 00 00 00 00 00  |................|
 EA64  00 00 00 00 00 00 00 00 00 00 00 00 00 00 00 00  |................|
 EA74  00 00 00 00 00 00 00 00 00 00 00 00 00 00 00 00  |................|
 EA84  00 00 00 00 00 00 00 00 00 00 00 00 00 00 00 00  |................|
 EA94  00 00 00 00 00 00 00 00 00 00 00 00 00 00 00 00  |................|
 EAA4  00 00 00 00 00 00 00 00 00 00 00 00 00 00 00 00  |................|
 EAB4  00 00 00 00 00 00 00 00 00 00 00 00 00 00 00 00  |................|
 EAC4  00 00 00 00 00 00 00 00 00 00 00 00 00 00 00 00  |................|
 EAD4  00 00 00 00 00 00 00 00 00 00 00 00 00 00 00 00  |................|
 EAE4  00 00 00 00 00 00 00 00 00 00 00 00 00 00 00 00  |................|
 EAF4  00 00 00 00 00 00 00 00 00 00 00 00 00 00 00 00  |................|
 EB04  00 00 00 00 00 00 00 00 00 00 00 00 00 00 00 00  |................|
 EB14  00 00 00 00 00 00 00 00 00 00 00 00 00 00 00 00  |................|
 EB24  00 00 00 00 00 00 00 00 00 00 00 00 00 00 00 00  |................|
 EB34  00 00 00 00 00 00 00 00 00 00 00 00 00 00 00 00  |................|
 EB44  00 00 00 00 00 00 00 00 00 00 00 00 00 00 00 00  |................|
 EB54  00 00 00 00 00 00 00 00 00 00 00 00 00 00 00 00  |................|
 EB64  00 00 00 00 00 00 00 00 00 00 00 00 00 00 00 00  |................|
 EB74  00 00 00 00 00 00 00 00 00 00 00 00 00 00 00 00  |................|
 EB84  00 00 00 00 00 00 00 00 00 00 00 00 00 00 00 00  |................|
 EB94  00 00 00 00 00 00 00 00 00 00 00 00 00 00 00 00  |................|
 EBA4  00 00 00 00 00 00 00 00 00 00 00 00 00 00 00 00  |................|
 EBB4  00 00 00 00 00 00 00 00 00 00 00 00 00 00 00 00  |................|
 EBC4  00 00 00 00 00 00 00 00 00 00 00 00 00 00 00 00  |................|
 EBD4  00 00 00 00 00 00 00 00 00 00 00 00 00 00 00 00  |................|
 EBE4  00 00 00 00 00 00 00 00 00 00 00 00 00 00 00 00  |................|
 EBF4  00 00 00 00 00 00 00 00 00 00 00 00 00 00 00 00  |................|
 EC04  00 00 00 00 00 00 00 00 00 00 00 00 00 00 00 00  |................|
 EC14  00 00 00 00 00 00 00 00 00 00 00 00 00 00 00 00  |................|
 EC24  00 00 00 00 00 00 00 00 00 00 00 00 00 00 00 00  |................|
 EC34  00 00 00 00 00 00 00 00 00 00 00 00 00 00 00 00  |................|
 EC44  00 00 00 00 00 00 00 00 00 00 00 00 00 00 00 00  |................|
 EC54  00 00 00 00 00 00 00 00 00 00 00 00 00 00 00 00  |................|
 EC64  00 00 00 00 00 00 00 00 00 00 00 00 00 00 00 00  |................|
 EC74  00 00 00 00 00 00 00 00 00 00 00 00 00 00 00 00  |................|
 EC84  00 00 00 00 00 00 00 00 00 00 00 00 00 00 00 00  |................|
 EC94  00 00 00 00 00 00 00 00 00 00 00 00 00 00 00 00  |................|
 ECA4  00 00 00 00 00 00 00 00 00 00 00 00 00 00 00 00  |................|
 ECB4  00 00 00 00 00 00 00 00 00 00 00 00 00 00 00 00  |................|
 ECC4  00 00 00 00 00 00 00 00 00 00 00 00 00 00 00 00  |................|
 ECD4  00 00 00 00 00 00 00 00 00 00 00 00 00 00 00 00  |................|
 ECE4  00 00 00 00 00 00 00 00 00 00 00 00 00 00 00 00  |................|
 ECF4  00 00 00 00 00 00 00 00 00 00 00 00 00 00 00 00  |................|
 ED04  00 00 00 00 00 00 00 00 00 00 00 00 00 00 00 00  |................|
 ED14  00 00 00 00 00 00 00 00 00 00 00 00 00 00 00 00  |................|
 ED24  00 00 00 00 00 00 00 00 00 00 00 00 00 00 00 00  |................|
 ED34  00 00 00 00 00 00 00 00 00 00 00 00 00 00 00 00  |................|
 ED44  00 00 00 00 00 00 00 00 00 00 00 00 00 00 00 00  |................|
 ED54  00 00 00 00 00 00 00 00 00 00 00 00 00 00 00 00  |................|
 ED64  00 00 00 00 00 00 00 00 00 00 00 00 00 00 00 00  |................|
 ED74  00 00 00 00 00 00 00 00 00 00 00 00 00 00 00 00  |................|
 ED84  00 00 00 00 00 00 00 00 00 00 00 00 00 00 00 00  |................|
 ED94  00 00 00 00 00 00 00 00 00 00 00 00 00 00 00 00  |................|
 EDA4  00 00 00 00 00 00 00 00 00 00 00 00 00 00 00 00  |................|
 EDB4  00 00 00 00 00 00 00 00 00 00 00 00 00 00 00 00  |................|
 EDC4  00 00 00 00 00 00 00 00 00 00 00 00 00 00 00 00  |................|
 EDD4  00 00 00 00 00 00 00 00 00 00 00 00 00 00 00 00  |................|
 EDE4  00 00 00 00 00 00 00 00 00 00 00 00 00 00 00 00  |................|
 EDF4  00 00 00 00 00 00 00 00 00 00 00 00 00 00 00 00  |................|
 EE04  00 00 00 00 00 00 00 00 00 00 00 00 00 00 00 00  |................|
 EE14  00 00 00 00 00 00 00 00 00 00 00 00 00 00 00 00  |................|
 EE24  00 00 00 00 00 00 00 00 00 00 00 00 00 00 00 00  |................|
 EE34  00 00 00 00 00 00 00 00 00 00 00 00 00 00 00 00  |................|
 EE44  00 00 00 00 00 00 00 00 00 00 00 00 00 00 00 00  |................|
 EE54  00 00 00 00 00 00 00 00 00 00 00 00 00 00 00 00  |................|
 EE64  00 00 00 00 00 00 00 00 00 00 00 00 00 00 00 00  |................|
 EE74  00 00 00 00 00 00 00 00 00 00 00 00 00 00 00 00  |................|
 EE84  00 00 00 00 00 00 00 00 00 00 00 00 00 00 00 00  |................|
 EE94  00 00 00 00 00 00 00 00 00 00 00 00 00 00 00 00  |................|
 EEA4  00 00 00 00 00 00 00 00 00 00 00 00 00 00 00 00  |................|
 EEB4  00 00 00 00 00 00 00 00 00 00 00 00 00 00 00 00  |................|
 EEC4  00 00 00 00 00 00 00 00 00 00 00 00 00 00 00 00  |................|
 EED4  00 00 00 00 00 00 00 00 00 00 00 00 00 00 00 00  |................|
 EEE4  00 00 00 00 00 00 00 00 00 00 00 00 00 00 00 00  |................|
 EEF4  00 00 00 00 00 00 00 00 00 00 00 00 00 00 00 00  |................|
 EF04  00 00 00 00 00 00 00 00 00 00 00 00 00 00 00 00  |................|
 EF14  00 00 00 00 00 00 00 00 00 00 00 00 00 00 00 00  |................|
 EF24  00 00 00 00 00 00 00 00 00 00 00 00 00 00 00 00  |................|
 EF34  00 00 00 00 00 00 00 00 00 00 00 00 00 00 00 00  |................|
 EF44  00 00 00 00 00 00 00 00 00 00 00 00 00 00 00 00  |................|
 EF54  00 00 00 00 00 00 00 00 00 00 00 00 00 00 00 00  |................|
 EF64  00 00 00 00 00 00 00 00 00 00 00 00 00 00 00 00  |................|
 EF74  00 00 00 00 00 00 00 00 00 00 00 00 00 00 00 00  |................|
 EF84  00 00 00 00 00 00 00 00 00 00 00 00 00 00 00 00  |................|
 EF94  00 00 00 00 00 00 00 00 00 00 00 00 00 00 00 00  |................|
 EFA4  00 00 00 00 00 00 00 00 00 00 00 00 00 00 00 00  |................|
 EFB4  00 00 00 00 00 00 00 00 00 00 00 00 00 00 00 00  |................|
 EFC4  00 00 00 00 00 00 00 00 00 00 00 00 00 00 00 00  |................|
 EFD4  00 00 00 00 00 00 00 00 00 00 00 00 00 00 00 00  |................|
 EFE4  00 00 00 00 00 00 00 00 00 00 00 00 00 00 00 00  |................|
 EFF4  00 00 00 00 00 00 00 00 00 00 00 00 00 00 00 00  |................|
 F004  00 00 00 00 00 00 00 00 00 00 00 00 00 00 00 00  |................|
 F014  00 00 00 00 00 00 00 00 00 00 00 00 00 00 00 00  |................|
 F024  00 00 00 00 00 00 00 00 00 00 00 00 00 00 00 00  |................|
 F034  00 00 00 00 00 00 00 00 00 00 00 00 00 00 00 00  |................|
 F044  00 00 00 00 00 00 00 00 00 00 00 00 00 00 00 00  |................|
 F054  00 00 00 00 00 00 00 00 00 00 00 00 00 00 00 00  |................|
 F064  00 00 00 00 00 00 00 00 00 00 00 00 00 00 00 00  |................|
 F074  00 00 00 00 00 00 00 00 00 00 00 00 00 00 00 00  |................|
 F084  00 00 00 00 00 00 00 00 00 00 00 00 00 00 00 00  |................|
 F094  00 00 00 00 00 00 00 00 00 00 00 00 00 00 00 00  |................|
 F0A4  00 00 00 00 00 00 00 00 00 00 00 00 00 00 00 00  |................|
 F0B4  00 00 00 00 00 00 00 00 00 00 00 00 00 00 00 00  |................|
 F0C4  00 00 00 00 00 00 00 00 00 00 00 00 00 00 00 00  |................|
 F0D4  00 00 00 00 00 00 00 00 00 00 00 00 00 00 00 00  |................|
 F0E4  00 00 00 00 00 00 00 00 00 00 00 00 00 00 00 00  |................|
 F0F4  00 00 00 00 00 00 00 00 00 00 00 00 00 00 00 00  |................|
 F104  00 00 00 00 00 00 00 00 00 00 00 00 00 00 00 00  |................|
 F114  00 00 00 00 00 00 00 00 00 00 00 00 00 00 00 00  |................|
 F124  00 00 00 00 00 00 00 00 00 00 00 00 00 00 00 00  |................|
 F134  00 00 00 00 00 00 00 00 00 00 00 00 00 00 00 00  |................|
 F144  00 00 00 00 00 00 00 00 00 00 00 00 00 00 00 00  |................|
 F154  00 00 00 00 00 00 00 00 00 00 00 00 00 00 00 00  |................|
 F164  00 00 00 00 00 00 00 00 00 00 00 00 00 00 00 00  |................|
 F174  00 00 00 00 00 00 00 00 00 00 00 00 00 00 00 00  |................|
 F184  00 00 00 00 00 00 00 00 00 00 00 00 00 00 00 00  |................|
 F194  00 00 00 00 00 00 00 00 00 00 00 00 00 00 00 00  |................|
 F1A4  00 00 00 00 00 00 00 00 00 00 00 00 00 00 00 00  |................|
 F1B4  00 00 00 00 00 00 00 00 00 00 00 00 00 00 00 00  |................|
 F1C4  00 00 00 00 00 00 00 00 00 00 00 00 00 00 00 00  |................|
 F1D4  00 00 00 00 00 00 00 00 00 00 00 00 00 00 00 00  |................|
 F1E4  00 00 00 00 00 00 00 00 00 00 00 00 00 00 00 00  |................|
 F1F4  00 00 00 00 00 00 00 00 00 00 00 00 00 00 00 00  |................|
 F204  00 00 00 00 00 00 00 00 00 00 00 00 00 00 00 00  |................|
 F214  00 00 00 00 00 00 00 00 00 00 00 00 00 00 00 00  |................|
 F224  00 00 00 00 00 00 00 00 00 00 00 00 00 00 00 00  |................|
 F234  00 00 00 00 00 00 00 00 00 00 00 00 00 00 00 00  |................|
 F244  00 00 00 00 00 00 00 00 00 00 00 00 00 00 00 00  |................|
 F254  00 00 00 00 00 00 00 00 00 00 00 00 00 00 00 00  |................|
 F264  00 00 00 00 00 00 00 00 00 00 00 00 00 00 00 00  |................|
 F274  00 00 00 00 00 00 00 00 00 00 00 00 00 00 00 00  |................|
 F284  00 00 00 00 00 00 00 00 00 00 00 00 00 00 00 00  |................|
 F294  00 00 00 00 00 00 00 00 00 00 00 00 00 00 00 00  |................|
 F2A4  00 00 00 00 00 00 00 00 00 00 00 00 00 00 00 00  |................|
 F2B4  00 00 00 00 00 00 00 00 00 00 00 00 00 00 00 00  |................|
 F2C4  00 00 00 00 00 00 00 00 00 00 00 00 00 00 00 00  |................|
 F2D4  00 00 00 00 00 00 00 00 00 00 00 00 00 00 00 00  |................|
 F2E4  00 00 00 00 00 00 00 00 00 00 00 00 00 00 00 00  |................|
 F2F4  00 00 00 00 00 00 00 00 00 00 00 00 00 00 00 00  |................|
 F304  00 00 00 00 00 00 00 00 00 00 00 00 00 00 00 00  |................|
 F314  00 00 00 00 00 00 00 00 00 00 00 00 00 00 00 00  |................|
 F324  00 00 00 00 00 00 00 00 00 00 00 00 00 00 00 00  |................|
 F334  00 00 00 00 00 00 00 00 00 00 00 00 00 00 00 00  |................|
 F344  00 00 00 00 00 00 00 00 00 00 00 00 00 00 00 00  |................|
 F354  00 00 00 00 00 00 00 00 00 00 00 00 00 00 00 00  |................|
 F364  00 00 00 00 00 00 00 00 00 00 00 00 00 00 00 00  |................|
 F374  00 00 00 00 00 00 00 00 00 00 00 00 00 00 00 00  |................|
 F384  00 00 00 00 00 00 00 00 00 00 00 00 00 00 00 00  |................|
 F394  00 00 00 00 00 00 00 00 00 00 00 00 00 00 00 00  |................|
 F3A4  00 00 00 00 00 00 00 00 00 00 00 00 00 00 00 00  |................|
 F3B4  00 00 00 00 00 00 00 00 00 00 00 00 00 00 00 00  |................|
 F3C4  00 00 00 00 00 00 00 00 00 00 00 00 00 00 00 00  |................|
 F3D4  00 00 00 00 00 00 00 00 00 00 00 00 00 00 00 00  |................|
 F3E4  00 00 00 00 00 00 00 00 00 00 00 00 00 00 00 00  |................|
 F3F4  00 00 00 00 00 00 00 00 00 00 00 00 00 00 00 00  |................|
 F404  00 00 00 00 00 00 00 00 00 00 00 00 00 00 00 00  |................|
 F414  00 00 00 00 00 00 00 00 00 00 00 00 00 00 00 00  |................|
 F424  00 00 00 00 00 00 00 00 00 00 00 00 00 00 00 00  |................|
 F434  00 00 00 00 00 00 00 00 00 00 00 00 00 00 00 00  |................|
 F444  00 00 00 00 00 00 00 00 00 00 00 00 00 00 00 00  |................|
 F454  00 00 00 00 00 00 00 00 00 00 00 00 00 00 00 00  |................|
 F464  00 00 00 00 00 00 00 00 00 00 00 00 00 00 00 00  |................|
 F474  00 00 00 00 00 00 00 00 00 00 00 00 00 00 00 00  |................|
 F484  00 00 00 00 00 00 00 00 00 00 00 00 00 00 00 00  |................|
 F494  00 00 00 00 00 00 00 00 00 00 00 00 00 00 00 00  |................|
 F4A4  00 00 00 00 00 00 00 00 00 00 00 00 00 00 00 00  |................|
 F4B4  00 00 00 00 00 00 00 00 00 00 00 00 00 00 00 00  |................|
 F4C4  00 00 00 00 00 00 00 00 00 00 00 00 00 00 00 00  |................|
 F4D4  00 00 00 00 00 00 00 00 00 00 00 00 00 00 00 00  |................|
 F4E4  00 00 00 00 00 00 00 00 00 00 00 00 00 00 00 00  |................|
 F4F4  00 00 00 00 00 00 00 00 00 00 00 00 00 00 00 00  |................|
 F504  00 00 00 00 00 00 00 00 00 00 00 00 00 00 00 00  |................|
 F514  00 00 00 00 00 00 00 00 00 00 00 00 00 00 00 00  |................|
 F524  00 00 00 00 00 00 00 00 00 00 00 00 00 00 00 00  |................|
 F534  00 00 00 00 00 00 00 00 00 00 00 00 00 00 00 00  |................|
 F544  00 00 00 00 00 00 00 00 00 00 00 00 00 00 00 00  |................|
 F554  00 00 00 00 00 00 00 00 00 00 00 00 00 00 00 00  |................|
 F564  00 00 00 00 00 00 00 00 00 00 00 00 00 00 00 00  |................|
 F574  00 00 00 00 00 00 00 00 00 00 00 00 00 00 00 00  |................|
 F584  00 00 00 00 00 00 00 00 00 00 00 00 00 00 00 00  |................|
 F594  00 00 00 00 00 00 00 00 00 00 00 00 00 00 00 00  |................|
 F5A4  00 00 00 00 00 00 00 00 00 00 00 00 00 00 00 00  |................|
 F5B4  00 00 00 00 00 00 00 00 00 00 00 00 00 00 00 00  |................|
 F5C4  00 00 00 00 00 00 00 00 00 00 00 00 00 00 00 00  |................|
 F5D4  00 00 00 00 00 00 00 00 00 00 00 00 00 00 00 00  |................|
 F5E4  00 00 00 00 00 00 00 00 00 00 00 00 00 00 00 00  |................|
 F5F4  00 00 00 00 00 00 00 00 00 00 00 00 00 00 00 00  |................|
 F604  00 00 00 00 00 00 00 00 00 00 00 00 00 00 00 00  |................|
 F614  00 00 00 00 00 00 00 00 00 00 00 00 00 00 00 00  |................|
 F624  00 00 00 00 00 00 00 00 00 00 00 00 00 00 00 00  |................|
 F634  00 00 00 00 00 00 00 00 00 00 00 00 00 00 00 00  |................|
 F644  00 00 00 00 00 00 00 00 00 00 00 00 00 00 00 00  |................|
 F654  00 00 00 00 00 00 00 00 00 00 00 00 00 00 00 00  |................|
 F664  00 00 00 00 00 00 00 00 00 00 00 00 00 00 00 00  |................|
 F674  00 00 00 00 00 00 00 00 00 00 00 00 00 00 00 00  |................|
 F684  00 00 00 00 00 00 00 00 00 00 00 00 00 00 00 00  |................|
 F694  00 00 00 00 00 00 00 00 00 00 00 00 00 00 00 00  |................|
 F6A4  00 00 00 00 00 00 00 00 00 00 00 00 00 00 00 00  |................|
 F6B4  00 00 00 00 00 00 00 00 00 00 00 00 00 00 00 00  |................|
 F6C4  00 00 00 00 00 00 00 00 00 00 00 00 00 00 00 00  |................|
 F6D4  00 00 00 00 00 00 00 00 00 00 00 00 00 00 00 00  |................|
 F6E4  00 00 00 00 00 00 00 00 00 00 00 00 00 00 00 00  |................|
 F6F4  00 00 00 00 00 00 00 00 00 00 00 00 00 00 00 00  |................|
 F704  00 00 00 00 00 00 00 00 00 00 00 00 00 00 00 00  |................|
 F714  00 00 00 00 00 00 00 00 00 00 00 00 00 00 00 00  |................|
 F724  00 00 00 00 00 00 00 00 00 00 00 00 00 00 00 00  |................|
 F734  00 00 00 00 00 00 00 00 00 00 00 00 00 00 00 00  |................|
 F744  00 00 00 00 00 00 00 00 00 00 00 00 00 00 00 00  |................|
 F754  00 00 00 00 00 00 00 00 00 00 00 00 00 00 00 00  |................|
 F764  00 00 00 00 00 00 00 00 00 00 00 00 00 00 00 00  |................|
 F774  00 00 00 00 00 00 00 00 00 00 00 00 00 00 00 00  |................|
 F784  00 00 00 00 00 00 00 00 00 00 00 00 00 00 00 00  |................|
 F794  00 00 00 00 00 00 00 00 00 00 00 00 00 00 00 00  |................|
 F7A4  00 00 00 00 00 00 00 00 00 00 00 00 00 00 00 00  |................|
 F7B4  00 00 00 00 00 00 00 00 00 00 00 00 00 00 00 00  |................|
 F7C4  00 00 00 00 00 00 00 00 00 00 00 00 00 00 00 00  |................|
 F7D4  00 00 00 00 00 00 00 00 00 00 00 00 00 00 00 00  |................|
 F7E4  00 00 00 00 00 00 00 00 00 00 00 00 00 00 00 00  |................|
 F7F4  00 00 00 00 00 00 00 00 00 00 00 00 00 00 00 00  |................|
 F804  00 00 00 00 00 00 00 00 00 00 00 00 00 00 00 00  |................|
 F814  00 00 00 00 00 00 00 00 00 00 00 00 00 00 00 00  |................|
 F824  00 00 00 00 00 00 00 00 00 00 00 00 00 00 00 00  |................|
 F834  00 00 00 00 00 00 00 00 00 00 00 00 00 00 00 00  |................|
 F844  00 00 00 00 00 00 00 00 00 00 00 00 00 00 00 00  |................|
 F854  00 00 00 00 00 00 00 00 00 00 00 00 00 00 00 00  |................|
 F864  00 00 00 00 00 00 00 00 00 00 00 00 00 00 00 00  |................|
 F874  00 00 00 00 00 00 00 00 00 00 00 00 00 00 00 00  |................|
 F884  00 00 00 00 00 00 00 00 00 00 00 00 00 00 00 00  |................|
 F894  00 00 00 00 00 00 00 00 00 00 00 00 00 00 00 00  |................|
 F8A4  00 00 00 00 00 00 00 00 00 00 00 00 00 00 00 00  |................|
 F8B4  00 00 00 00 00 00 00 00 00 00 00 00 00 00 00 00  |................|
 F8C4  00 00 00 00 00 00 00 00 00 00 00 00 00 00 00 00  |................|
 F8D4  00 00 00 00 00 00 00 00 00 00 00 00 00 00 00 00  |................|
 F8E4  00 00 00 00 00 00 00 00 00 00 00 00 00 00 00 00  |................|
 F8F4  00 00 00 00 00 00 00 00 00 00 00 00 00 00 00 00  |................|
 F904  00 00 00 00 00 00 00 00 00 00 00 00 00 00 00 00  |................|
 F914  00 00 00 00 00 00 00 00 00 00 00 00 00 00 00 00  |................|
 F924  00 00 00 00 00 00 00 00 00 00 00 00 00 00 00 00  |................|
 F934  00 00 00 00 00 00 00 00 00 00 00 00 00 00 00 00  |................|
 F944  00 00 00 00 00 00 00 00 00 00 00 00 00 00 00 00  |................|
 F954  00 00 00 00 00 00 00 00 00 00 00 00 00 00 00 00  |................|
 F964  00 00 00 00 00 00 00 00 00 00 00 00 00 00 00 00  |................|
 F974  00 00 00 00 00 00 00 00 00 00 00 00 00 00 00 00  |................|
 F984  00 00 00 00 00 00 00 00 00 00 00 00 00 00 00 00  |................|
 F994  00 00 00 00 00 00 00 00 00 00 00 00 00 00 00 00  |................|
 F9A4  00 00 00 00 00 00 00 00 00 00 00 00 00 00 00 00  |................|
 F9B4  00 00 00 00 00 00 00 00 00 00 00 00 00 00 00 00  |................|
 F9C4  00 00 00 00 00 00 00 00 00 00 00 00 00 00 00 00  |................|
 F9D4  00 00 00 00 00 00 00 00 00 00 00 00 00 00 00 00  |................|
 F9E4  00 00 00 00 00 00 00 00 00 00 00 00 00 00 00 00  |................|
 F9F4  00 00 00 00 00 00 00 00 00 00 00 00 00 00 00 00  |................|
 FA04  00 00 00 00 00 00 00 00 00 00 00 00 00 00 00 00  |................|
 FA14  00 00 00 00 00 00 00 00 00 00 00 00 00 00 00 00  |................|
 FA24  00 00 00 00 00 00 00 00 00 00 00 00 00 00 00 00  |................|
 FA34  00 00 00 00 00 00 00 00 00 00 00 00 00 00 00 00  |................|
 FA44  00 00 00 00 00 00 00 00 00 00 00 00 00 00 00 00  |................|
 FA54  00 00 00 00 00 00 00 00 00 00 00 00 00 00 00 00  |................|
 FA64  00 00 00 00 00 00 00 00 00 00 00 00 00 00 00 00  |................|
 FA74  00 00 00 00 00 00 00 00 00 00 00 00 00 00 00 00  |................|
 FA84  00 00 00 00 00 00 00 00 00 00 00 00 00 00 00 00  |................|
 FA94  00 00 00 00 00 00 00 00 00 00 00 00 00 00 00 00  |................|
 FAA4  00 00 00 00 00 00 00 00 00 00 00 00 00 00 00 00  |................|
 FAB4  00 00 00 00 00 00 00 00 00 00 00 00 00 00 00 00  |................|
 FAC4  00 00 00 00 00 00 00 00 00 00 00 00 00 00 00 00  |................|
 FAD4  00 00 00 00 00 00 00 00 00 00 00 00 00 00 00 00  |................|
 FAE4  00 00 00 00 00 00 00 00 00 00 00 00 00 00 00 00  |................|
 FAF4  00 00 00 00 00 00 00 00 00 00 00 00 00 00 00 00  |................|
 FB04  00 00 00 00 00 00 00 00 00 00 00 00 00 00 00 00  |................|
 FB14  00 00 00 00 00 00 00 00 00 00 00 00 00 00 00 00  |................|
 FB24  00 00 00 00 00 00 00 00 00 00 00 00 00 00 00 00  |................|
 FB34  00 00 00 00 00 00 00 00 00 00 00 00 00 00 00 00  |................|
 FB44  00 00 00 00 00 00 00 00 00 00 00 00 00 00 00 00  |................|
 FB54  00 00 00 00 00 00 00 00 00 00 00 00 00 00 00 00  |................|
 FB64  00 00 00 00 00 00 00 00 00 00 00 00 00 00 00 00  |................|
 FB74  00 00 00 00 00 00 00 00 00 00 00 00 00 00 00 00  |................|
 FB84  00 00 00 00 00 00 00 00 00 00 00 00 00 00 00 00  |................|
 FB94  00 00 00 00 00 00 00 00 00 00 00 00 00 00 00 00  |................|
 FBA4  00 00 00 00 00 00 00 00 00 00 00 00 00 00 00 00  |................|
 FBB4  00 00 00 00 00 00 00 00 00 00 00 00 00 00 00 00  |................|
 FBC4  00 00 00 00 00 00 00 00 00 00 00 00 00 00 00 00  |................|
 FBD4  00 00 00 00 00 00 00 00 00 00 00 00 00 00 00 00  |................|
 FBE4  00 00 00 00 00 00 00 00 00 00 00 00 00 00 00 00  |................|
 FBF4  00 00 00 00 00 00 00 00 00 00 00 00 00 00 00 00  |................|
 FC04  00 00 00 00 00 00 00 00 00 00 00 00 00 00 00 00  |................|
 FC14  00 00 00 00 00 00 00 00 00 00 00 00 00 00 00 00  |................|
 FC24  00 00 00 00 00 00 00 00 00 00 00 00 00 00 00 00  |................|
 FC34  00 00 00 00 00 00 00 00 00 00 00 00 00 00 00 00  |................|
 FC44  00 00 00 00 00 00 00 00 00 00 00 00 00 00 00 00  |................|
 FC54  00 00 00 00 00 00 00 00 00 00 00 00 00 00 00 00  |................|
 FC64  00 00 00 00 00 00 00 00 00 00 00 00 00 00 00 00  |................|
 FC74  00 00 00 00 00 00 00 00 00 00 00 00 00 00 00 00  |................|
 FC84  00 00 00 00 00 00 00 00 00 00 00 00 00 00 00 00  |................|
 FC94  00 00 00 00 00 00 00 00 00 00 00 00 00 00 00 00  |................|
 FCA4  00 00 00 00 00 00 00 00 00 00 00 00 00 00 00 00  |................|
 FCB4  00 00 00 00 00 00 00 00 00 00 00 00 00 00 00 00  |................|
 FCC4  00 00 00 00 00 00 00 00 00 00 00 00 00 00 00 00  |................|
 FCD4  00 00 00 00 00 00 00 00 00 00 00 00 00 00 00 00  |................|
 FCE4  00 00 00 00 00 00 00 00 00 00 00 00 00 00 00 00  |................|
 FCF4  00 00 00 00 00 00 00 00 00 00 00 00 00 00 00 00  |................|
 FD04  00 00 00 00 00 00 00 00 00 00 00 00 00 00 00 00  |................|
 FD14  00 00 00 00 00 00 00 00 00 00 00 00 00 00 00 00  |................|
 FD24  00 00 00 00 00 00 00 00 00 00 00 00 00 00 00 00  |................|
 FD34  00 00 00 00 00 00 00 00 00 00 00 00 00 00 00 00  |................|
 FD44  00 00 00 00 00 00 00 00 00 00 00 00 00 00 00 00  |................|
 FD54  00 00 00 00 00 00 00 00 00 00 00 00 00 00 00 00  |................|
 FD64  00 00 00 00 00 00 00 00 00 00 00 00 00 00 00 00  |................|
 FD74  00 00 00 00 00 00 00 00 00 00 00 00 00 00 00 00  |................|
 FD84  00 00 00 00 00 00 00 00 00 00 00 00 00 00 00 00  |................|
 FD94  00 00 00 00 00 00 00 00 00 00 00 00 00 00 00 00  |................|
 FDA4  00 00 00 00 00 00 00 00 00 00 00 00 00 00 00 00  |................|
 FDB4  00 00 00 00 00 00 00 00 00 00 00 00 00 00 00 00  |................|
 FDC4  00 00 00 00 00 00 00 00 00 00 00 00 00 00 00 00  |................|
 FDD4  00 00 00 00 00 00 00 00 00 00 00 00 00 00 00 00  |................|
 FDE4  00 00 00 00 00 00 00 00 00 00 00 00 00 00 00 00  |................|
 FDF4  00 00 00 00 00 00 00 00 00 00 00 00 00 00 00 00  |................|
 FE04  00 00 00 00 00 00 00 00 00 00 00 00 00 00 00 00  |................|
 FE14  00 00 00 00 00 00 00 00 00 00 00 00 00 00 00 00  |................|
 FE24  00 00 00 00 00 00 00 00 00 00 00 00 00 00 00 00  |................|
 FE34  00 00 00 00 00 00 00 00 00 00 00 00 00 00 00 00  |................|
 FE44  00 00 00 00 00 00 00 00 00 00 00 00 00 00 00 00  |................|
 FE54  00 00 00 00 00 00 00 00 00 00 00 00 00 00 00 00  |................|
 FE64  00 00 00 00 00 00 00 00 00 00 00 00 00 00 00 00  |................|
 FE74  00 00 00 00 00 00 00 00 00 00 00 00 00 00 00 00  |................|
 FE84  00 00 00 00 00 00 00 00 00 00 00 00 00 00 00 00  |................|
 FE94  00 00 00 00 00 00 00 00 00 00 00 00 00 00 00 00  |................|
 FEA4  00 00 00 00 00 00 00 00 00 00 00 00 00 00 00 00  |................|
 FEB4  00 00 00 00 00 00 00 00 00 00 00 00 00 00 00 00  |................|
 FEC4  00 00 00 00 00 00 00 00 00 00 00 00 00 00 00 00  |................|
 FED4  00 00 00 00 00 00 00 00 00 00 00 00 00 00 00 00  |................|
 FEE4  00 00 00 00 00 00 00 00 00 00 00 00 00 00 00 00  |................|
 FEF4  00 00 00 00 00 00 00 00 00 00 00 00 00 00 00 00  |................|
 FF04  00 00 00 00 00 00 00 00 00 00 00 00 00 00 00 00  |................|
 FF14  00 00 00 00 00 00 00 00 00 00 00 00 00 00 00 00  |................|
 FF24  00 00 00 00 00 00 00 00 00 00 00 00 00 00 00 00  |................|
 FF34  00 00 00 00 00 00 00 00 00 00 00 00 00 00 00 00  |................|
 FF44  00 00 00 00 00 00 00 00 00 00 00 00 00 00 00 00  |................|
 FF54  00 00 00 00 00 00 00 00 00 00 00 00 00 00 00 00  |................|
 FF64  00 00 00 00 00 00 00 00 00 00 00 00 00 00 00 00  |................|
 FF74  00 00 00 00 00 00 00 00 00 00 00 00 00 00 00 00  |................|
 FF84  00 00 00 00 00 00 00 00 00 00 00 00 00 00 00 00  |................|
 FF94  00 00 00 00 00 00 00 00 00 00 00 00 00 00 00 00  |................|
 FFA4  00 00 00 00 00 00 00 00 00 00 00 00 00 00 00 00  |................|
 FFB4  00 00 00 00 00 00 00 00 00 00 00 00 00 00 00 00  |................|
 FFC4  00 00 00 00 00 00 00 00 00 00 00 00 00 00 00 00  |................|
 FFD4  00 00 00 00 00 00 00 00 00 00 00 00 00 00 00 00  |................|
 FFE4  00 00 00 00 00 00 00 00 00 00 00 00 00 00 00 00  |................|
 FFF4  00 00 00 00 00 00 59 E7 59 E7 B8 E7              |......Y.Y...    |
