ARM GAS  C:\Users\santoree\AppData\Local\Temp\ccW4XfpI.s 			page 1


   1              		.syntax unified
   2              		.cpu cortex-m3
   3              		.fpu softvfp
   4              		.eabi_attribute 20, 1
   5              		.eabi_attribute 21, 1
   6              		.eabi_attribute 23, 3
   7              		.eabi_attribute 24, 1
   8              		.eabi_attribute 25, 1
   9              		.eabi_attribute 26, 1
  10              		.eabi_attribute 30, 1
  11              		.eabi_attribute 34, 1
  12              		.eabi_attribute 18, 4
  13              		.thumb
  14              		.syntax unified
  15              		.file	"CyFlash.c"
  16              		.text
  17              	.Ltext0:
  18              		.cfi_sections	.debug_frame
  19              		.section	.text.CyFlashGetSpcAlgorithm,"ax",%progbits
  20              		.align	2
  21              		.thumb
  22              		.thumb_func
  23              		.type	CyFlashGetSpcAlgorithm, %function
  24              	CyFlashGetSpcAlgorithm:
  25              	.LFB3:
  26              		.file 1 "Generated_Source\\PSoC5\\CyFlash.c"
   1:Generated_Source\PSoC5/CyFlash.c **** /***************************************************************************//**
   2:Generated_Source\PSoC5/CyFlash.c **** * \file CyFlash.c
   3:Generated_Source\PSoC5/CyFlash.c **** * \version 5.50
   4:Generated_Source\PSoC5/CyFlash.c **** *
   5:Generated_Source\PSoC5/CyFlash.c **** * \brief Provides an API for the FLASH/EEPROM.
   6:Generated_Source\PSoC5/CyFlash.c **** *
   7:Generated_Source\PSoC5/CyFlash.c **** * \note This code is endian agnostic.
   8:Generated_Source\PSoC5/CyFlash.c **** *
   9:Generated_Source\PSoC5/CyFlash.c **** * \note Documentation of the API's in this file is located in the System
  10:Generated_Source\PSoC5/CyFlash.c **** * Reference Guide provided with PSoC Creator.
  11:Generated_Source\PSoC5/CyFlash.c **** *
  12:Generated_Source\PSoC5/CyFlash.c **** ********************************************************************************
  13:Generated_Source\PSoC5/CyFlash.c **** * \copyright
  14:Generated_Source\PSoC5/CyFlash.c **** * Copyright 2008-2016, Cypress Semiconductor Corporation. All rights reserved.
  15:Generated_Source\PSoC5/CyFlash.c **** * You may use this file only in accordance with the license, terms, conditions,
  16:Generated_Source\PSoC5/CyFlash.c **** * disclaimers, and limitations in the end user license agreement accompanying
  17:Generated_Source\PSoC5/CyFlash.c **** * the software package with which this file was provided.
  18:Generated_Source\PSoC5/CyFlash.c **** *******************************************************************************/
  19:Generated_Source\PSoC5/CyFlash.c **** 
  20:Generated_Source\PSoC5/CyFlash.c **** #include "CyFlash.h"
  21:Generated_Source\PSoC5/CyFlash.c **** 
  22:Generated_Source\PSoC5/CyFlash.c **** /*  The number of EEPROM arrays */
  23:Generated_Source\PSoC5/CyFlash.c **** #define CY_FLASH_EEPROM_NUMBER_ARRAYS                 (1u)
  24:Generated_Source\PSoC5/CyFlash.c **** 
  25:Generated_Source\PSoC5/CyFlash.c **** 
  26:Generated_Source\PSoC5/CyFlash.c **** /*******************************************************************************
  27:Generated_Source\PSoC5/CyFlash.c **** * Holds the die temperature, updated by CySetTemp(). Used for flash writing.
  28:Generated_Source\PSoC5/CyFlash.c **** * The first byte is the sign of the temperature (0 = negative, 1 = positive).
  29:Generated_Source\PSoC5/CyFlash.c **** * The second byte is the magnitude.
  30:Generated_Source\PSoC5/CyFlash.c **** *******************************************************************************/
  31:Generated_Source\PSoC5/CyFlash.c **** uint8 dieTemperature[CY_FLASH_DIE_TEMP_DATA_SIZE];
ARM GAS  C:\Users\santoree\AppData\Local\Temp\ccW4XfpI.s 			page 2


  32:Generated_Source\PSoC5/CyFlash.c **** 
  33:Generated_Source\PSoC5/CyFlash.c **** #if(CYDEV_ECC_ENABLE == 0)
  34:Generated_Source\PSoC5/CyFlash.c ****     static uint8 * rowBuffer = 0;
  35:Generated_Source\PSoC5/CyFlash.c **** #endif  /* (CYDEV_ECC_ENABLE == 0) */
  36:Generated_Source\PSoC5/CyFlash.c **** 
  37:Generated_Source\PSoC5/CyFlash.c **** 
  38:Generated_Source\PSoC5/CyFlash.c **** static cystatus CySetTempInt(void);
  39:Generated_Source\PSoC5/CyFlash.c **** static cystatus CyFlashGetSpcAlgorithm(void);
  40:Generated_Source\PSoC5/CyFlash.c **** 
  41:Generated_Source\PSoC5/CyFlash.c **** 
  42:Generated_Source\PSoC5/CyFlash.c **** /*******************************************************************************
  43:Generated_Source\PSoC5/CyFlash.c **** * Function Name: CyFlash_Start
  44:Generated_Source\PSoC5/CyFlash.c **** ****************************************************************************//**
  45:Generated_Source\PSoC5/CyFlash.c **** *
  46:Generated_Source\PSoC5/CyFlash.c **** *  Enable the Flash.
  47:Generated_Source\PSoC5/CyFlash.c **** *
  48:Generated_Source\PSoC5/CyFlash.c **** *******************************************************************************/
  49:Generated_Source\PSoC5/CyFlash.c **** void CyFlash_Start(void) 
  50:Generated_Source\PSoC5/CyFlash.c **** {
  51:Generated_Source\PSoC5/CyFlash.c ****     uint8 interruptState;
  52:Generated_Source\PSoC5/CyFlash.c **** 
  53:Generated_Source\PSoC5/CyFlash.c ****     interruptState = CyEnterCriticalSection();
  54:Generated_Source\PSoC5/CyFlash.c **** 
  55:Generated_Source\PSoC5/CyFlash.c **** 
  56:Generated_Source\PSoC5/CyFlash.c ****     /***************************************************************************
  57:Generated_Source\PSoC5/CyFlash.c ****     * Enable SPC clock. This also internally enables the 36MHz IMO, since this
  58:Generated_Source\PSoC5/CyFlash.c ****     * is required for the SPC to function.
  59:Generated_Source\PSoC5/CyFlash.c ****     ***************************************************************************/
  60:Generated_Source\PSoC5/CyFlash.c ****     CY_FLASH_PM_ACT_CFG0_REG    |= CY_FLASH_PM_ACT_CFG0_EN_CLK_SPC;
  61:Generated_Source\PSoC5/CyFlash.c ****     CY_FLASH_PM_ALTACT_CFG0_REG |= CY_FLASH_PM_ALTACT_CFG0_EN_CLK_SPC;
  62:Generated_Source\PSoC5/CyFlash.c **** 
  63:Generated_Source\PSoC5/CyFlash.c **** 
  64:Generated_Source\PSoC5/CyFlash.c ****     /***************************************************************************
  65:Generated_Source\PSoC5/CyFlash.c ****     * The wake count defines the number of Bus Clock cycles it takes for the
  66:Generated_Source\PSoC5/CyFlash.c ****     * flash or eeprom to wake up from a low power mode independent of the chip
  67:Generated_Source\PSoC5/CyFlash.c ****     * power mode. Wake up time for these blocks is 5 us.
  68:Generated_Source\PSoC5/CyFlash.c ****     * The granularity of this register is 2 Bus Clock cycles, so a value of 0x1E
  69:Generated_Source\PSoC5/CyFlash.c ****     * (30d) defines the wake up time as 60 cycles of the Bus Clock.
  70:Generated_Source\PSoC5/CyFlash.c ****     * This register needs to be written with a value dependent on the Bus Clock
  71:Generated_Source\PSoC5/CyFlash.c ****     * frequency so that the duration of the cycles is equal to or greater than
  72:Generated_Source\PSoC5/CyFlash.c ****     * the 5 us delay required.
  73:Generated_Source\PSoC5/CyFlash.c ****     ***************************************************************************/
  74:Generated_Source\PSoC5/CyFlash.c ****     CY_FLASH_SPC_FM_EE_WAKE_CNT_REG = CY_FLASH_SPC_FM_EE_WAKE_CNT_80MHZ;
  75:Generated_Source\PSoC5/CyFlash.c **** 
  76:Generated_Source\PSoC5/CyFlash.c **** 
  77:Generated_Source\PSoC5/CyFlash.c ****     /***************************************************************************
  78:Generated_Source\PSoC5/CyFlash.c ****     * Enable flash. Active flash macros consume current, but re-enabling a
  79:Generated_Source\PSoC5/CyFlash.c ****     * disabled flash macro takes 5us. If the CPU attempts to fetch out of the
  80:Generated_Source\PSoC5/CyFlash.c ****     * macro during that time, it will be stalled. This bit allows the flash to
  81:Generated_Source\PSoC5/CyFlash.c ****     * be enabled even if the CPU is disabled, which allows a quicker return to
  82:Generated_Source\PSoC5/CyFlash.c ****     * code execution.
  83:Generated_Source\PSoC5/CyFlash.c ****     ***************************************************************************/
  84:Generated_Source\PSoC5/CyFlash.c ****     CY_FLASH_PM_ACT_CFG12_REG    |= CY_FLASH_PM_ACT_CFG12_EN_FM;
  85:Generated_Source\PSoC5/CyFlash.c ****     CY_FLASH_PM_ALTACT_CFG12_REG |= CY_FLASH_PM_ALTACT_CFG12_EN_FM;
  86:Generated_Source\PSoC5/CyFlash.c **** 
  87:Generated_Source\PSoC5/CyFlash.c ****     while(0u == (CY_FLASH_SPC_FM_EE_CR_REG & CY_FLASH_EE_EE_AWAKE))
  88:Generated_Source\PSoC5/CyFlash.c ****     {
ARM GAS  C:\Users\santoree\AppData\Local\Temp\ccW4XfpI.s 			page 3


  89:Generated_Source\PSoC5/CyFlash.c ****         /* Non-zero status denotes that the EEPROM/Flash is awake & powered. */
  90:Generated_Source\PSoC5/CyFlash.c ****     }
  91:Generated_Source\PSoC5/CyFlash.c **** 
  92:Generated_Source\PSoC5/CyFlash.c ****     CyExitCriticalSection(interruptState);
  93:Generated_Source\PSoC5/CyFlash.c **** }
  94:Generated_Source\PSoC5/CyFlash.c **** 
  95:Generated_Source\PSoC5/CyFlash.c **** 
  96:Generated_Source\PSoC5/CyFlash.c **** /*******************************************************************************
  97:Generated_Source\PSoC5/CyFlash.c **** * Function Name: CyFlash_Stop
  98:Generated_Source\PSoC5/CyFlash.c **** ****************************************************************************//**
  99:Generated_Source\PSoC5/CyFlash.c **** *
 100:Generated_Source\PSoC5/CyFlash.c **** *  Disable the Flash.
 101:Generated_Source\PSoC5/CyFlash.c **** *
 102:Generated_Source\PSoC5/CyFlash.c **** * \sideeffect
 103:Generated_Source\PSoC5/CyFlash.c **** *  This setting is ignored as long as the CPU is currently running.  This will
 104:Generated_Source\PSoC5/CyFlash.c **** *  only take effect when the CPU is later disabled.
 105:Generated_Source\PSoC5/CyFlash.c **** *
 106:Generated_Source\PSoC5/CyFlash.c **** *******************************************************************************/
 107:Generated_Source\PSoC5/CyFlash.c **** void CyFlash_Stop(void) 
 108:Generated_Source\PSoC5/CyFlash.c **** {
 109:Generated_Source\PSoC5/CyFlash.c ****     uint8 interruptState;
 110:Generated_Source\PSoC5/CyFlash.c **** 
 111:Generated_Source\PSoC5/CyFlash.c ****     interruptState = CyEnterCriticalSection();
 112:Generated_Source\PSoC5/CyFlash.c **** 
 113:Generated_Source\PSoC5/CyFlash.c ****     CY_FLASH_PM_ACT_CFG12_REG    &= ((uint8)(~CY_FLASH_PM_ACT_CFG12_EN_FM));
 114:Generated_Source\PSoC5/CyFlash.c ****     CY_FLASH_PM_ALTACT_CFG12_REG &= ((uint8)(~CY_FLASH_PM_ALTACT_CFG12_EN_FM));
 115:Generated_Source\PSoC5/CyFlash.c **** 
 116:Generated_Source\PSoC5/CyFlash.c ****     CyExitCriticalSection(interruptState);
 117:Generated_Source\PSoC5/CyFlash.c **** }
 118:Generated_Source\PSoC5/CyFlash.c **** 
 119:Generated_Source\PSoC5/CyFlash.c **** 
 120:Generated_Source\PSoC5/CyFlash.c **** /*******************************************************************************
 121:Generated_Source\PSoC5/CyFlash.c **** * Function Name: CySetTempInt
 122:Generated_Source\PSoC5/CyFlash.c **** ****************************************************************************//**
 123:Generated_Source\PSoC5/CyFlash.c **** *
 124:Generated_Source\PSoC5/CyFlash.c **** *  Sends a command to the SPC to read the die temperature. Sets a global value
 125:Generated_Source\PSoC5/CyFlash.c **** *  used by the Write function. This function must be called once before
 126:Generated_Source\PSoC5/CyFlash.c **** *  executing a series of Flash writing functions.
 127:Generated_Source\PSoC5/CyFlash.c **** *
 128:Generated_Source\PSoC5/CyFlash.c **** * \return
 129:Generated_Source\PSoC5/CyFlash.c **** *  status:
 130:Generated_Source\PSoC5/CyFlash.c **** *   CYRET_SUCCESS - if successful
 131:Generated_Source\PSoC5/CyFlash.c **** *   CYRET_LOCKED  - if Flash writing already in use
 132:Generated_Source\PSoC5/CyFlash.c **** *   CYRET_UNKNOWN - if there was an SPC error
 133:Generated_Source\PSoC5/CyFlash.c **** *
 134:Generated_Source\PSoC5/CyFlash.c **** *******************************************************************************/
 135:Generated_Source\PSoC5/CyFlash.c **** static cystatus CySetTempInt(void) 
 136:Generated_Source\PSoC5/CyFlash.c **** {
 137:Generated_Source\PSoC5/CyFlash.c ****     cystatus status;
 138:Generated_Source\PSoC5/CyFlash.c **** 
 139:Generated_Source\PSoC5/CyFlash.c ****     /* Make sure SPC is powered */
 140:Generated_Source\PSoC5/CyFlash.c ****     CySpcStart();
 141:Generated_Source\PSoC5/CyFlash.c **** 
 142:Generated_Source\PSoC5/CyFlash.c ****     /* Plan for failure. */
 143:Generated_Source\PSoC5/CyFlash.c ****     status = CYRET_UNKNOWN;
 144:Generated_Source\PSoC5/CyFlash.c **** 
 145:Generated_Source\PSoC5/CyFlash.c ****     if(CySpcLock() == CYRET_SUCCESS)
ARM GAS  C:\Users\santoree\AppData\Local\Temp\ccW4XfpI.s 			page 4


 146:Generated_Source\PSoC5/CyFlash.c ****     {
 147:Generated_Source\PSoC5/CyFlash.c ****         /* Write the command. */
 148:Generated_Source\PSoC5/CyFlash.c ****         if(CYRET_STARTED == CySpcGetTemp(CY_TEMP_NUMBER_OF_SAMPLES))
 149:Generated_Source\PSoC5/CyFlash.c ****         {
 150:Generated_Source\PSoC5/CyFlash.c ****             do
 151:Generated_Source\PSoC5/CyFlash.c ****             {
 152:Generated_Source\PSoC5/CyFlash.c ****                 if(CySpcReadData(dieTemperature, CY_FLASH_DIE_TEMP_DATA_SIZE) == CY_FLASH_DIE_TEMP_
 153:Generated_Source\PSoC5/CyFlash.c ****                 {
 154:Generated_Source\PSoC5/CyFlash.c ****                     status = CYRET_SUCCESS;
 155:Generated_Source\PSoC5/CyFlash.c **** 
 156:Generated_Source\PSoC5/CyFlash.c ****                     while(CY_SPC_BUSY)
 157:Generated_Source\PSoC5/CyFlash.c ****                     {
 158:Generated_Source\PSoC5/CyFlash.c ****                         /* Spin until idle. */
 159:Generated_Source\PSoC5/CyFlash.c ****                         CyDelayUs(1u);
 160:Generated_Source\PSoC5/CyFlash.c ****                     }
 161:Generated_Source\PSoC5/CyFlash.c ****                     break;
 162:Generated_Source\PSoC5/CyFlash.c ****                 }
 163:Generated_Source\PSoC5/CyFlash.c **** 
 164:Generated_Source\PSoC5/CyFlash.c ****             } while(CY_SPC_BUSY);
 165:Generated_Source\PSoC5/CyFlash.c ****         }
 166:Generated_Source\PSoC5/CyFlash.c **** 
 167:Generated_Source\PSoC5/CyFlash.c ****         CySpcUnlock();
 168:Generated_Source\PSoC5/CyFlash.c ****     }
 169:Generated_Source\PSoC5/CyFlash.c ****     else
 170:Generated_Source\PSoC5/CyFlash.c ****     {
 171:Generated_Source\PSoC5/CyFlash.c ****         status = CYRET_LOCKED;
 172:Generated_Source\PSoC5/CyFlash.c ****     }
 173:Generated_Source\PSoC5/CyFlash.c **** 
 174:Generated_Source\PSoC5/CyFlash.c ****     return (status);
 175:Generated_Source\PSoC5/CyFlash.c **** }
 176:Generated_Source\PSoC5/CyFlash.c **** 
 177:Generated_Source\PSoC5/CyFlash.c **** 
 178:Generated_Source\PSoC5/CyFlash.c **** /*******************************************************************************
 179:Generated_Source\PSoC5/CyFlash.c **** * Function Name: CyFlashGetSpcAlgorithm
 180:Generated_Source\PSoC5/CyFlash.c **** ****************************************************************************//**
 181:Generated_Source\PSoC5/CyFlash.c **** *
 182:Generated_Source\PSoC5/CyFlash.c **** *  Sends a command to the SPC to download code into RAM.
 183:Generated_Source\PSoC5/CyFlash.c **** *
 184:Generated_Source\PSoC5/CyFlash.c **** * \return
 185:Generated_Source\PSoC5/CyFlash.c **** *  status:
 186:Generated_Source\PSoC5/CyFlash.c **** *   CYRET_SUCCESS - if successful
 187:Generated_Source\PSoC5/CyFlash.c **** *   CYRET_LOCKED  - if Flash writing already in use
 188:Generated_Source\PSoC5/CyFlash.c **** *   CYRET_UNKNOWN - if there was an SPC error
 189:Generated_Source\PSoC5/CyFlash.c **** *
 190:Generated_Source\PSoC5/CyFlash.c **** *******************************************************************************/
 191:Generated_Source\PSoC5/CyFlash.c **** static cystatus CyFlashGetSpcAlgorithm(void) 
 192:Generated_Source\PSoC5/CyFlash.c **** {
  27              		.loc 1 192 0
  28              		.cfi_startproc
  29              		@ args = 0, pretend = 0, frame = 0
  30              		@ frame_needed = 0, uses_anonymous_args = 0
  31 0000 10B5     		push	{r4, lr}
  32              		.cfi_def_cfa_offset 8
  33              		.cfi_offset 4, -8
  34              		.cfi_offset 14, -4
 193:Generated_Source\PSoC5/CyFlash.c ****     cystatus status;
 194:Generated_Source\PSoC5/CyFlash.c **** 
ARM GAS  C:\Users\santoree\AppData\Local\Temp\ccW4XfpI.s 			page 5


 195:Generated_Source\PSoC5/CyFlash.c ****     /* Make sure SPC is powered */
 196:Generated_Source\PSoC5/CyFlash.c ****     CySpcStart();
  35              		.loc 1 196 0
  36 0002 FFF7FEFF 		bl	CySpcStart
  37              	.LVL0:
 197:Generated_Source\PSoC5/CyFlash.c **** 
 198:Generated_Source\PSoC5/CyFlash.c ****     if(CySpcLock() == CYRET_SUCCESS)
  38              		.loc 1 198 0
  39 0006 FFF7FEFF 		bl	CySpcLock
  40              	.LVL1:
  41 000a D0B9     		cbnz	r0, .L6
 199:Generated_Source\PSoC5/CyFlash.c ****     {
 200:Generated_Source\PSoC5/CyFlash.c ****         status = CySpcGetAlgorithm();
  42              		.loc 1 200 0
  43 000c FFF7FEFF 		bl	CySpcGetAlgorithm
  44              	.LVL2:
  45 0010 0446     		mov	r4, r0
  46              	.LVL3:
 201:Generated_Source\PSoC5/CyFlash.c **** 
 202:Generated_Source\PSoC5/CyFlash.c ****         if(CYRET_STARTED == status)
  47              		.loc 1 202 0
  48 0012 0728     		cmp	r0, #7
  49 0014 12D1     		bne	.L4
  50 0016 02E0     		b	.L3
  51              	.LVL4:
  52              	.L5:
 203:Generated_Source\PSoC5/CyFlash.c ****         {
 204:Generated_Source\PSoC5/CyFlash.c ****             while(CY_SPC_BUSY)
 205:Generated_Source\PSoC5/CyFlash.c ****             {
 206:Generated_Source\PSoC5/CyFlash.c ****                 /* Spin until idle. */
 207:Generated_Source\PSoC5/CyFlash.c ****                 CyDelayUs(1u);
  53              		.loc 1 207 0
  54 0018 0120     		movs	r0, #1
  55 001a FFF7FEFF 		bl	CyDelayUs
  56              	.LVL5:
  57              	.L3:
 204:Generated_Source\PSoC5/CyFlash.c ****             {
  58              		.loc 1 204 0
  59 001e 0A4B     		ldr	r3, .L9
  60 0020 1B78     		ldrb	r3, [r3]	@ zero_extendqisi2
  61 0022 13F0020F 		tst	r3, #2
  62 0026 F7D0     		beq	.L5
 208:Generated_Source\PSoC5/CyFlash.c ****             }
 209:Generated_Source\PSoC5/CyFlash.c **** 
 210:Generated_Source\PSoC5/CyFlash.c ****             if(CY_SPC_STATUS_SUCCESS == CY_SPC_READ_STATUS)
  63              		.loc 1 210 0
  64 0028 074B     		ldr	r3, .L9
  65 002a 1B78     		ldrb	r3, [r3]	@ zero_extendqisi2
  66 002c 13F0020F 		tst	r3, #2
  67 0030 04D0     		beq	.L4
  68              		.loc 1 210 0 is_stmt 0 discriminator 1
  69 0032 054B     		ldr	r3, .L9
  70 0034 1B78     		ldrb	r3, [r3]	@ zero_extendqisi2
  71 0036 9B08     		lsrs	r3, r3, #2
  72 0038 00D1     		bne	.L4
 211:Generated_Source\PSoC5/CyFlash.c ****             {
 212:Generated_Source\PSoC5/CyFlash.c ****                 status = CYRET_SUCCESS;
ARM GAS  C:\Users\santoree\AppData\Local\Temp\ccW4XfpI.s 			page 6


  73              		.loc 1 212 0 is_stmt 1
  74 003a 0024     		movs	r4, #0
  75              	.LVL6:
  76              	.L4:
 213:Generated_Source\PSoC5/CyFlash.c ****             }
 214:Generated_Source\PSoC5/CyFlash.c ****         }
 215:Generated_Source\PSoC5/CyFlash.c ****         CySpcUnlock();
  77              		.loc 1 215 0
  78 003c FFF7FEFF 		bl	CySpcUnlock
  79              	.LVL7:
  80 0040 00E0     		b	.L2
  81              	.LVL8:
  82              	.L6:
 216:Generated_Source\PSoC5/CyFlash.c ****     }
 217:Generated_Source\PSoC5/CyFlash.c ****     else
 218:Generated_Source\PSoC5/CyFlash.c ****     {
 219:Generated_Source\PSoC5/CyFlash.c ****         status = CYRET_LOCKED;
  83              		.loc 1 219 0
  84 0042 0424     		movs	r4, #4
  85              	.L2:
  86              	.LVL9:
 220:Generated_Source\PSoC5/CyFlash.c ****     }
 221:Generated_Source\PSoC5/CyFlash.c **** 
 222:Generated_Source\PSoC5/CyFlash.c ****     return (status);
 223:Generated_Source\PSoC5/CyFlash.c **** }
  87              		.loc 1 223 0
  88 0044 2046     		mov	r0, r4
  89 0046 10BD     		pop	{r4, pc}
  90              	.LVL10:
  91              	.L10:
  92              		.align	2
  93              	.L9:
  94 0048 22470040 		.word	1073760034
  95              		.cfi_endproc
  96              	.LFE3:
  97              		.size	CyFlashGetSpcAlgorithm, .-CyFlashGetSpcAlgorithm
  98              		.section	.text.CySetTempInt,"ax",%progbits
  99              		.align	2
 100              		.thumb
 101              		.thumb_func
 102              		.type	CySetTempInt, %function
 103              	CySetTempInt:
 104              	.LFB2:
 136:Generated_Source\PSoC5/CyFlash.c ****     cystatus status;
 105              		.loc 1 136 0
 106              		.cfi_startproc
 107              		@ args = 0, pretend = 0, frame = 0
 108              		@ frame_needed = 0, uses_anonymous_args = 0
 109 0000 10B5     		push	{r4, lr}
 110              		.cfi_def_cfa_offset 8
 111              		.cfi_offset 4, -8
 112              		.cfi_offset 14, -4
 140:Generated_Source\PSoC5/CyFlash.c **** 
 113              		.loc 1 140 0
 114 0002 FFF7FEFF 		bl	CySpcStart
 115              	.LVL11:
 145:Generated_Source\PSoC5/CyFlash.c ****     {
ARM GAS  C:\Users\santoree\AppData\Local\Temp\ccW4XfpI.s 			page 7


 116              		.loc 1 145 0
 117 0006 FFF7FEFF 		bl	CySpcLock
 118              	.LVL12:
 119 000a 10BB     		cbnz	r0, .L18
 148:Generated_Source\PSoC5/CyFlash.c ****         {
 120              		.loc 1 148 0
 121 000c 0120     		movs	r0, #1
 122 000e FFF7FEFF 		bl	CySpcGetTemp
 123              	.LVL13:
 124 0012 0728     		cmp	r0, #7
 125 0014 18D1     		bne	.L19
 126              	.L17:
 152:Generated_Source\PSoC5/CyFlash.c ****                 {
 127              		.loc 1 152 0
 128 0016 0221     		movs	r1, #2
 129 0018 0F48     		ldr	r0, .L22
 130 001a FFF7FEFF 		bl	CySpcReadData
 131              	.LVL14:
 132 001e 0228     		cmp	r0, #2
 133 0020 0AD1     		bne	.L20
 134 0022 02E0     		b	.L14
 135              	.L16:
 159:Generated_Source\PSoC5/CyFlash.c ****                     }
 136              		.loc 1 159 0
 137 0024 0120     		movs	r0, #1
 138 0026 FFF7FEFF 		bl	CyDelayUs
 139              	.LVL15:
 140              	.L14:
 156:Generated_Source\PSoC5/CyFlash.c ****                     {
 141              		.loc 1 156 0
 142 002a 0C4B     		ldr	r3, .L22+4
 143 002c 1B78     		ldrb	r3, [r3]	@ zero_extendqisi2
 144 002e 13F0020F 		tst	r3, #2
 145 0032 F7D0     		beq	.L16
 154:Generated_Source\PSoC5/CyFlash.c **** 
 146              		.loc 1 154 0
 147 0034 0024     		movs	r4, #0
 148 0036 09E0     		b	.L13
 149              	.L20:
 164:Generated_Source\PSoC5/CyFlash.c ****         }
 150              		.loc 1 164 0
 151 0038 084B     		ldr	r3, .L22+4
 152 003a 1B78     		ldrb	r3, [r3]	@ zero_extendqisi2
 153 003c 13F0020F 		tst	r3, #2
 154 0040 E9D0     		beq	.L17
 143:Generated_Source\PSoC5/CyFlash.c **** 
 155              		.loc 1 143 0
 156 0042 4FF0FF34 		mov	r4, #-1
 157 0046 01E0     		b	.L13
 158              	.L19:
 159 0048 4FF0FF34 		mov	r4, #-1
 160              	.L13:
 161              	.LVL16:
 167:Generated_Source\PSoC5/CyFlash.c ****     }
 162              		.loc 1 167 0
 163 004c FFF7FEFF 		bl	CySpcUnlock
 164              	.LVL17:
ARM GAS  C:\Users\santoree\AppData\Local\Temp\ccW4XfpI.s 			page 8


 165 0050 00E0     		b	.L12
 166              	.LVL18:
 167              	.L18:
 171:Generated_Source\PSoC5/CyFlash.c ****     }
 168              		.loc 1 171 0
 169 0052 0424     		movs	r4, #4
 170              	.LVL19:
 171              	.L12:
 175:Generated_Source\PSoC5/CyFlash.c **** 
 172              		.loc 1 175 0
 173 0054 2046     		mov	r0, r4
 174 0056 10BD     		pop	{r4, pc}
 175              	.LVL20:
 176              	.L23:
 177              		.align	2
 178              	.L22:
 179 0058 00000000 		.word	dieTemperature
 180 005c 22470040 		.word	1073760034
 181              		.cfi_endproc
 182              	.LFE2:
 183              		.size	CySetTempInt, .-CySetTempInt
 184              		.section	.text.CyFlash_Start,"ax",%progbits
 185              		.align	2
 186              		.global	CyFlash_Start
 187              		.thumb
 188              		.thumb_func
 189              		.type	CyFlash_Start, %function
 190              	CyFlash_Start:
 191              	.LFB0:
  50:Generated_Source\PSoC5/CyFlash.c ****     uint8 interruptState;
 192              		.loc 1 50 0
 193              		.cfi_startproc
 194              		@ args = 0, pretend = 0, frame = 0
 195              		@ frame_needed = 0, uses_anonymous_args = 0
 196 0000 08B5     		push	{r3, lr}
 197              		.cfi_def_cfa_offset 8
 198              		.cfi_offset 3, -8
 199              		.cfi_offset 14, -4
  53:Generated_Source\PSoC5/CyFlash.c **** 
 200              		.loc 1 53 0
 201 0002 FFF7FEFF 		bl	CyEnterCriticalSection
 202              	.LVL21:
  60:Generated_Source\PSoC5/CyFlash.c ****     CY_FLASH_PM_ALTACT_CFG0_REG |= CY_FLASH_PM_ALTACT_CFG0_EN_CLK_SPC;
 203              		.loc 1 60 0
 204 0006 0F4A     		ldr	r2, .L27
 205 0008 1378     		ldrb	r3, [r2]	@ zero_extendqisi2
 206 000a 43F00803 		orr	r3, r3, #8
 207 000e 1370     		strb	r3, [r2]
  61:Generated_Source\PSoC5/CyFlash.c **** 
 208              		.loc 1 61 0
 209 0010 1032     		adds	r2, r2, #16
 210 0012 1378     		ldrb	r3, [r2]	@ zero_extendqisi2
 211 0014 43F00803 		orr	r3, r3, #8
 212 0018 1370     		strb	r3, [r2]
  74:Generated_Source\PSoC5/CyFlash.c **** 
 213              		.loc 1 74 0
 214 001a C822     		movs	r2, #200
ARM GAS  C:\Users\santoree\AppData\Local\Temp\ccW4XfpI.s 			page 9


 215 001c 0A4B     		ldr	r3, .L27+4
 216 001e 1A70     		strb	r2, [r3]
  84:Generated_Source\PSoC5/CyFlash.c ****     CY_FLASH_PM_ALTACT_CFG12_REG |= CY_FLASH_PM_ALTACT_CFG12_EN_FM;
 217              		.loc 1 84 0
 218 0020 0A4A     		ldr	r2, .L27+8
 219 0022 1378     		ldrb	r3, [r2]	@ zero_extendqisi2
 220 0024 43F00F03 		orr	r3, r3, #15
 221 0028 1370     		strb	r3, [r2]
  85:Generated_Source\PSoC5/CyFlash.c **** 
 222              		.loc 1 85 0
 223 002a 1032     		adds	r2, r2, #16
 224 002c 1378     		ldrb	r3, [r2]	@ zero_extendqisi2
 225 002e 43F00F03 		orr	r3, r3, #15
 226 0032 1370     		strb	r3, [r2]
 227              	.L25:
  87:Generated_Source\PSoC5/CyFlash.c ****     {
 228              		.loc 1 87 0 discriminator 1
 229 0034 064B     		ldr	r3, .L27+12
 230 0036 1B78     		ldrb	r3, [r3]	@ zero_extendqisi2
 231 0038 13F0200F 		tst	r3, #32
 232 003c FAD0     		beq	.L25
  92:Generated_Source\PSoC5/CyFlash.c **** }
 233              		.loc 1 92 0
 234 003e FFF7FEFF 		bl	CyExitCriticalSection
 235              	.LVL22:
 236 0042 08BD     		pop	{r3, pc}
 237              	.L28:
 238              		.align	2
 239              	.L27:
 240 0044 A0430040 		.word	1073759136
 241 0048 01470040 		.word	1073760001
 242 004c AC430040 		.word	1073759148
 243 0050 00470040 		.word	1073760000
 244              		.cfi_endproc
 245              	.LFE0:
 246              		.size	CyFlash_Start, .-CyFlash_Start
 247              		.section	.text.CyFlash_Stop,"ax",%progbits
 248              		.align	2
 249              		.global	CyFlash_Stop
 250              		.thumb
 251              		.thumb_func
 252              		.type	CyFlash_Stop, %function
 253              	CyFlash_Stop:
 254              	.LFB1:
 108:Generated_Source\PSoC5/CyFlash.c ****     uint8 interruptState;
 255              		.loc 1 108 0
 256              		.cfi_startproc
 257              		@ args = 0, pretend = 0, frame = 0
 258              		@ frame_needed = 0, uses_anonymous_args = 0
 259 0000 08B5     		push	{r3, lr}
 260              		.cfi_def_cfa_offset 8
 261              		.cfi_offset 3, -8
 262              		.cfi_offset 14, -4
 111:Generated_Source\PSoC5/CyFlash.c **** 
 263              		.loc 1 111 0
 264 0002 FFF7FEFF 		bl	CyEnterCriticalSection
 265              	.LVL23:
ARM GAS  C:\Users\santoree\AppData\Local\Temp\ccW4XfpI.s 			page 10


 113:Generated_Source\PSoC5/CyFlash.c ****     CY_FLASH_PM_ALTACT_CFG12_REG &= ((uint8)(~CY_FLASH_PM_ALTACT_CFG12_EN_FM));
 266              		.loc 1 113 0
 267 0006 064A     		ldr	r2, .L31
 268 0008 1378     		ldrb	r3, [r2]	@ zero_extendqisi2
 269 000a 03F0F003 		and	r3, r3, #240
 270 000e 1370     		strb	r3, [r2]
 114:Generated_Source\PSoC5/CyFlash.c **** 
 271              		.loc 1 114 0
 272 0010 1032     		adds	r2, r2, #16
 273 0012 1378     		ldrb	r3, [r2]	@ zero_extendqisi2
 274 0014 03F0F003 		and	r3, r3, #240
 275 0018 1370     		strb	r3, [r2]
 116:Generated_Source\PSoC5/CyFlash.c **** }
 276              		.loc 1 116 0
 277 001a FFF7FEFF 		bl	CyExitCriticalSection
 278              	.LVL24:
 279 001e 08BD     		pop	{r3, pc}
 280              	.L32:
 281              		.align	2
 282              	.L31:
 283 0020 AC430040 		.word	1073759148
 284              		.cfi_endproc
 285              	.LFE1:
 286              		.size	CyFlash_Stop, .-CyFlash_Stop
 287              		.section	.text.CySetTemp,"ax",%progbits
 288              		.align	2
 289              		.global	CySetTemp
 290              		.thumb
 291              		.thumb_func
 292              		.type	CySetTemp, %function
 293              	CySetTemp:
 294              	.LFB4:
 224:Generated_Source\PSoC5/CyFlash.c **** 
 225:Generated_Source\PSoC5/CyFlash.c **** 
 226:Generated_Source\PSoC5/CyFlash.c **** /*******************************************************************************
 227:Generated_Source\PSoC5/CyFlash.c **** * Function Name: CySetTemp
 228:Generated_Source\PSoC5/CyFlash.c **** ****************************************************************************//**
 229:Generated_Source\PSoC5/CyFlash.c **** *
 230:Generated_Source\PSoC5/CyFlash.c **** *  This is a wraparound for CySetTempInt(). It is used to return the second
 231:Generated_Source\PSoC5/CyFlash.c **** *  successful read of the temperature value.
 232:Generated_Source\PSoC5/CyFlash.c **** *
 233:Generated_Source\PSoC5/CyFlash.c **** * \return
 234:Generated_Source\PSoC5/CyFlash.c **** *  status:
 235:Generated_Source\PSoC5/CyFlash.c **** *   CYRET_SUCCESS if successful.
 236:Generated_Source\PSoC5/CyFlash.c **** *   CYRET_LOCKED  if Flash writing already in use
 237:Generated_Source\PSoC5/CyFlash.c **** *   CYRET_UNKNOWN if there was an SPC error.
 238:Generated_Source\PSoC5/CyFlash.c **** *
 239:Generated_Source\PSoC5/CyFlash.c **** *  uint8 dieTemperature[2]:
 240:Generated_Source\PSoC5/CyFlash.c **** *   Holds the die temperature for the flash writing algorithm. The first byte is
 241:Generated_Source\PSoC5/CyFlash.c **** *   the sign of the temperature (0 = negative, 1 = positive). The second byte is
 242:Generated_Source\PSoC5/CyFlash.c **** *   the magnitude.
 243:Generated_Source\PSoC5/CyFlash.c **** *
 244:Generated_Source\PSoC5/CyFlash.c **** *******************************************************************************/
 245:Generated_Source\PSoC5/CyFlash.c **** cystatus CySetTemp(void) 
 246:Generated_Source\PSoC5/CyFlash.c **** {
 295              		.loc 1 246 0
 296              		.cfi_startproc
ARM GAS  C:\Users\santoree\AppData\Local\Temp\ccW4XfpI.s 			page 11


 297              		@ args = 0, pretend = 0, frame = 0
 298              		@ frame_needed = 0, uses_anonymous_args = 0
 299 0000 08B5     		push	{r3, lr}
 300              		.cfi_def_cfa_offset 8
 301              		.cfi_offset 3, -8
 302              		.cfi_offset 14, -4
 247:Generated_Source\PSoC5/CyFlash.c ****     cystatus status = CyFlashGetSpcAlgorithm();
 303              		.loc 1 247 0
 304 0002 FFF7FEFF 		bl	CyFlashGetSpcAlgorithm
 305              	.LVL25:
 248:Generated_Source\PSoC5/CyFlash.c **** 
 249:Generated_Source\PSoC5/CyFlash.c ****     if(status == CYRET_SUCCESS)
 306              		.loc 1 249 0
 307 0006 0346     		mov	r3, r0
 308 0008 10B9     		cbnz	r0, .L34
 250:Generated_Source\PSoC5/CyFlash.c ****     {
 251:Generated_Source\PSoC5/CyFlash.c ****         status = CySetTempInt();
 309              		.loc 1 251 0
 310 000a FFF7FEFF 		bl	CySetTempInt
 311              	.LVL26:
 312 000e 0346     		mov	r3, r0
 313              	.LVL27:
 314              	.L34:
 252:Generated_Source\PSoC5/CyFlash.c ****     }
 253:Generated_Source\PSoC5/CyFlash.c **** 
 254:Generated_Source\PSoC5/CyFlash.c ****     return (status);
 255:Generated_Source\PSoC5/CyFlash.c **** }
 315              		.loc 1 255 0
 316 0010 1846     		mov	r0, r3
 317 0012 08BD     		pop	{r3, pc}
 318              		.cfi_endproc
 319              	.LFE4:
 320              		.size	CySetTemp, .-CySetTemp
 321              		.section	.text.CySetFlashEEBuffer,"ax",%progbits
 322              		.align	2
 323              		.global	CySetFlashEEBuffer
 324              		.thumb
 325              		.thumb_func
 326              		.type	CySetFlashEEBuffer, %function
 327              	CySetFlashEEBuffer:
 328              	.LFB5:
 256:Generated_Source\PSoC5/CyFlash.c **** 
 257:Generated_Source\PSoC5/CyFlash.c **** 
 258:Generated_Source\PSoC5/CyFlash.c **** /*******************************************************************************
 259:Generated_Source\PSoC5/CyFlash.c **** * Function Name: CySetFlashEEBuffer
 260:Generated_Source\PSoC5/CyFlash.c **** ****************************************************************************//**
 261:Generated_Source\PSoC5/CyFlash.c **** *
 262:Generated_Source\PSoC5/CyFlash.c **** *  Sets the user supplied temporary buffer to store SPC data while performing
 263:Generated_Source\PSoC5/CyFlash.c **** *  Flash and EEPROM commands. This buffer is only necessary when the Flash ECC
 264:Generated_Source\PSoC5/CyFlash.c **** *  is disabled.
 265:Generated_Source\PSoC5/CyFlash.c **** *
 266:Generated_Source\PSoC5/CyFlash.c **** *  \param buffer:
 267:Generated_Source\PSoC5/CyFlash.c **** *   The address of a block of memory to store temporary memory. The size of the
 268:Generated_Source\PSoC5/CyFlash.c **** *   block of memory is CYDEV_FLS_ROW_SIZE + CYDEV_ECC_ROW_SIZE.
 269:Generated_Source\PSoC5/CyFlash.c **** *
 270:Generated_Source\PSoC5/CyFlash.c **** * \return
 271:Generated_Source\PSoC5/CyFlash.c **** *  status:
ARM GAS  C:\Users\santoree\AppData\Local\Temp\ccW4XfpI.s 			page 12


 272:Generated_Source\PSoC5/CyFlash.c **** *   CYRET_SUCCESS if successful.
 273:Generated_Source\PSoC5/CyFlash.c **** *   CYRET_BAD_PARAM if the buffer is NULL
 274:Generated_Source\PSoC5/CyFlash.c **** *
 275:Generated_Source\PSoC5/CyFlash.c **** *******************************************************************************/
 276:Generated_Source\PSoC5/CyFlash.c **** cystatus CySetFlashEEBuffer(uint8 * buffer) 
 277:Generated_Source\PSoC5/CyFlash.c **** {
 329              		.loc 1 277 0
 330              		.cfi_startproc
 331              		@ args = 0, pretend = 0, frame = 0
 332              		@ frame_needed = 0, uses_anonymous_args = 0
 333              	.LVL28:
 334 0000 10B5     		push	{r4, lr}
 335              		.cfi_def_cfa_offset 8
 336              		.cfi_offset 4, -8
 337              		.cfi_offset 14, -4
 338 0002 0446     		mov	r4, r0
 339              	.LVL29:
 278:Generated_Source\PSoC5/CyFlash.c ****     cystatus status = CYRET_SUCCESS;
 279:Generated_Source\PSoC5/CyFlash.c **** 
 280:Generated_Source\PSoC5/CyFlash.c ****     CySpcStart();
 340              		.loc 1 280 0
 341 0004 FFF7FEFF 		bl	CySpcStart
 342              	.LVL30:
 281:Generated_Source\PSoC5/CyFlash.c **** 
 282:Generated_Source\PSoC5/CyFlash.c ****     #if(CYDEV_ECC_ENABLE == 0)
 283:Generated_Source\PSoC5/CyFlash.c **** 
 284:Generated_Source\PSoC5/CyFlash.c ****         if(NULL == buffer)
 343              		.loc 1 284 0
 344 0008 34B1     		cbz	r4, .L38
 285:Generated_Source\PSoC5/CyFlash.c ****         {
 286:Generated_Source\PSoC5/CyFlash.c ****             rowBuffer = rowBuffer;
 287:Generated_Source\PSoC5/CyFlash.c ****             status = CYRET_BAD_PARAM;
 288:Generated_Source\PSoC5/CyFlash.c ****         }
 289:Generated_Source\PSoC5/CyFlash.c ****         else if(CySpcLock() != CYRET_SUCCESS)
 345              		.loc 1 289 0
 346 000a FFF7FEFF 		bl	CySpcLock
 347              	.LVL31:
 348 000e 28B9     		cbnz	r0, .L39
 290:Generated_Source\PSoC5/CyFlash.c ****         {
 291:Generated_Source\PSoC5/CyFlash.c ****             rowBuffer = rowBuffer;
 292:Generated_Source\PSoC5/CyFlash.c ****             status = CYRET_LOCKED;
 293:Generated_Source\PSoC5/CyFlash.c ****         }
 294:Generated_Source\PSoC5/CyFlash.c ****         else
 295:Generated_Source\PSoC5/CyFlash.c ****         {
 296:Generated_Source\PSoC5/CyFlash.c ****             rowBuffer = buffer;
 297:Generated_Source\PSoC5/CyFlash.c ****             CySpcUnlock();
 349              		.loc 1 297 0
 350 0010 FFF7FEFF 		bl	CySpcUnlock
 351              	.LVL32:
 278:Generated_Source\PSoC5/CyFlash.c **** 
 352              		.loc 1 278 0
 353 0014 0020     		movs	r0, #0
 354 0016 10BD     		pop	{r4, pc}
 355              	.LVL33:
 356              	.L38:
 287:Generated_Source\PSoC5/CyFlash.c ****         }
 357              		.loc 1 287 0
ARM GAS  C:\Users\santoree\AppData\Local\Temp\ccW4XfpI.s 			page 13


 358 0018 0120     		movs	r0, #1
 359 001a 10BD     		pop	{r4, pc}
 360              	.LVL34:
 361              	.L39:
 292:Generated_Source\PSoC5/CyFlash.c ****         }
 362              		.loc 1 292 0
 363 001c 0420     		movs	r0, #4
 364              	.LVL35:
 298:Generated_Source\PSoC5/CyFlash.c ****         }
 299:Generated_Source\PSoC5/CyFlash.c **** 
 300:Generated_Source\PSoC5/CyFlash.c ****     #else
 301:Generated_Source\PSoC5/CyFlash.c **** 
 302:Generated_Source\PSoC5/CyFlash.c ****         /* To suppress warning */
 303:Generated_Source\PSoC5/CyFlash.c ****         buffer = buffer;
 304:Generated_Source\PSoC5/CyFlash.c **** 
 305:Generated_Source\PSoC5/CyFlash.c ****     #endif  /* (CYDEV_ECC_ENABLE == 0u) */
 306:Generated_Source\PSoC5/CyFlash.c **** 
 307:Generated_Source\PSoC5/CyFlash.c ****     return(status);
 308:Generated_Source\PSoC5/CyFlash.c **** }
 365              		.loc 1 308 0
 366 001e 10BD     		pop	{r4, pc}
 367              		.cfi_endproc
 368              	.LFE5:
 369              		.size	CySetFlashEEBuffer, .-CySetFlashEEBuffer
 370              		.section	.text.CyWriteRowFull,"ax",%progbits
 371              		.align	2
 372              		.global	CyWriteRowFull
 373              		.thumb
 374              		.thumb_func
 375              		.type	CyWriteRowFull, %function
 376              	CyWriteRowFull:
 377              	.LFB7:
 309:Generated_Source\PSoC5/CyFlash.c **** 
 310:Generated_Source\PSoC5/CyFlash.c **** 
 311:Generated_Source\PSoC5/CyFlash.c **** /*******************************************************************************
 312:Generated_Source\PSoC5/CyFlash.c **** * Function Name: CyWriteRowData
 313:Generated_Source\PSoC5/CyFlash.c **** ****************************************************************************//**
 314:Generated_Source\PSoC5/CyFlash.c **** *
 315:Generated_Source\PSoC5/CyFlash.c **** *  Sends a command to the SPC to load and program a row of data in
 316:Generated_Source\PSoC5/CyFlash.c **** *  Flash or EEPROM.
 317:Generated_Source\PSoC5/CyFlash.c **** *
 318:Generated_Source\PSoC5/CyFlash.c **** *  \param arrayID:    ID of the array to write.
 319:Generated_Source\PSoC5/CyFlash.c **** *   The type of write, Flash or EEPROM, is determined from the array ID.
 320:Generated_Source\PSoC5/CyFlash.c **** *   The arrays in the part are sequential starting at the first ID for the
 321:Generated_Source\PSoC5/CyFlash.c **** *   specific memory type. The array ID for the Flash memory lasts from 0x00 to
 322:Generated_Source\PSoC5/CyFlash.c **** *   0x3F and for the EEPROM memory it lasts from 0x40 to 0x7F.
 323:Generated_Source\PSoC5/CyFlash.c **** *  \param rowAddress: rowAddress of flash row to program.
 324:Generated_Source\PSoC5/CyFlash.c **** *  \param rowData:    Array of bytes to write.
 325:Generated_Source\PSoC5/CyFlash.c **** *
 326:Generated_Source\PSoC5/CyFlash.c **** * \return
 327:Generated_Source\PSoC5/CyFlash.c **** *  status:
 328:Generated_Source\PSoC5/CyFlash.c **** *   CYRET_SUCCESS if successful.
 329:Generated_Source\PSoC5/CyFlash.c **** *   CYRET_LOCKED if the SPC is already in use.
 330:Generated_Source\PSoC5/CyFlash.c **** *   CYRET_CANCELED if command not accepted
 331:Generated_Source\PSoC5/CyFlash.c **** *   CYRET_UNKNOWN if there was an SPC error.
 332:Generated_Source\PSoC5/CyFlash.c **** *
 333:Generated_Source\PSoC5/CyFlash.c **** *******************************************************************************/
ARM GAS  C:\Users\santoree\AppData\Local\Temp\ccW4XfpI.s 			page 14


 334:Generated_Source\PSoC5/CyFlash.c **** cystatus CyWriteRowData(uint8 arrayId, uint16 rowAddress, const uint8 * rowData) 
 335:Generated_Source\PSoC5/CyFlash.c **** {
 336:Generated_Source\PSoC5/CyFlash.c ****     uint16 rowSize;
 337:Generated_Source\PSoC5/CyFlash.c ****     cystatus status;
 338:Generated_Source\PSoC5/CyFlash.c **** 
 339:Generated_Source\PSoC5/CyFlash.c ****     rowSize = (arrayId > CY_SPC_LAST_FLASH_ARRAYID) ? CYDEV_EEPROM_ROW_SIZE : CYDEV_FLS_ROW_SIZE;
 340:Generated_Source\PSoC5/CyFlash.c ****     status = CyWriteRowFull(arrayId, rowAddress, rowData, rowSize);
 341:Generated_Source\PSoC5/CyFlash.c **** 
 342:Generated_Source\PSoC5/CyFlash.c ****     return(status);
 343:Generated_Source\PSoC5/CyFlash.c **** }
 344:Generated_Source\PSoC5/CyFlash.c **** 
 345:Generated_Source\PSoC5/CyFlash.c **** 
 346:Generated_Source\PSoC5/CyFlash.c **** /*******************************************************************
 347:Generated_Source\PSoC5/CyFlash.c **** * If "Enable Error Correcting Code (ECC)" and "Store Configuration
 348:Generated_Source\PSoC5/CyFlash.c **** * Data in ECC" DWR options are disabled, ECC section is available
 349:Generated_Source\PSoC5/CyFlash.c **** * for user data.
 350:Generated_Source\PSoC5/CyFlash.c **** *******************************************************************/
 351:Generated_Source\PSoC5/CyFlash.c **** #if ((CYDEV_ECC_ENABLE == 0u) && (CYDEV_CONFIGURATION_ECC == 0u))
 352:Generated_Source\PSoC5/CyFlash.c **** 
 353:Generated_Source\PSoC5/CyFlash.c ****     /*******************************************************************************
 354:Generated_Source\PSoC5/CyFlash.c ****     * Function Name: CyWriteRowConfig
 355:Generated_Source\PSoC5/CyFlash.c ****     ****************************************************************************//**
 356:Generated_Source\PSoC5/CyFlash.c ****     *
 357:Generated_Source\PSoC5/CyFlash.c ****     *  Sends a command to the SPC to load and program a row of config data in the
 358:Generated_Source\PSoC5/CyFlash.c ****     *  Flash. This function is only valid for Flash array IDs (not for EEPROM).
 359:Generated_Source\PSoC5/CyFlash.c ****     *
 360:Generated_Source\PSoC5/CyFlash.c ****     *  \param arrayId:      ID of the array to write
 361:Generated_Source\PSoC5/CyFlash.c ****     *   The arrays in the part are sequential starting at the first ID for the
 362:Generated_Source\PSoC5/CyFlash.c ****     *   specific memory type. The array ID for the Flash memory lasts
 363:Generated_Source\PSoC5/CyFlash.c ****     *   from 0x00 to 0x3F.
 364:Generated_Source\PSoC5/CyFlash.c ****     *  \param rowAddress:   The address of the sector to erase.
 365:Generated_Source\PSoC5/CyFlash.c ****     *  \param rowECC:       The array of bytes to write.
 366:Generated_Source\PSoC5/CyFlash.c ****     *
 367:Generated_Source\PSoC5/CyFlash.c ****     * \return
 368:Generated_Source\PSoC5/CyFlash.c ****     *  status:
 369:Generated_Source\PSoC5/CyFlash.c ****     *   CYRET_SUCCESS if successful.
 370:Generated_Source\PSoC5/CyFlash.c ****     *   CYRET_LOCKED if the SPC is already in use.
 371:Generated_Source\PSoC5/CyFlash.c ****     *   CYRET_CANCELED if command not accepted
 372:Generated_Source\PSoC5/CyFlash.c ****     *   CYRET_UNKNOWN if there was an SPC error.
 373:Generated_Source\PSoC5/CyFlash.c ****     *
 374:Generated_Source\PSoC5/CyFlash.c ****     *******************************************************************************/
 375:Generated_Source\PSoC5/CyFlash.c ****     cystatus CyWriteRowConfig(uint8 arrayId, uint16 rowAddress, const uint8 * rowECC)\
 376:Generated_Source\PSoC5/CyFlash.c ****     
 377:Generated_Source\PSoC5/CyFlash.c ****     {
 378:Generated_Source\PSoC5/CyFlash.c ****         cystatus status;
 379:Generated_Source\PSoC5/CyFlash.c **** 
 380:Generated_Source\PSoC5/CyFlash.c ****         status = CyWriteRowFull(arrayId, rowAddress, rowECC, CYDEV_ECC_ROW_SIZE);
 381:Generated_Source\PSoC5/CyFlash.c **** 
 382:Generated_Source\PSoC5/CyFlash.c ****         return (status);
 383:Generated_Source\PSoC5/CyFlash.c ****     }
 384:Generated_Source\PSoC5/CyFlash.c **** 
 385:Generated_Source\PSoC5/CyFlash.c **** #endif  /* ((CYDEV_ECC_ENABLE == 0u) && (CYDEV_CONFIGURATION_ECC == 0u)) */
 386:Generated_Source\PSoC5/CyFlash.c **** 
 387:Generated_Source\PSoC5/CyFlash.c **** 
 388:Generated_Source\PSoC5/CyFlash.c **** 
 389:Generated_Source\PSoC5/CyFlash.c **** /*******************************************************************************
 390:Generated_Source\PSoC5/CyFlash.c **** * Function Name: CyWriteRowFull
ARM GAS  C:\Users\santoree\AppData\Local\Temp\ccW4XfpI.s 			page 15


 391:Generated_Source\PSoC5/CyFlash.c **** ****************************************************************************//**
 392:Generated_Source\PSoC5/CyFlash.c **** *  Sends a command to the SPC to load and program a row of data in the Flash.
 393:Generated_Source\PSoC5/CyFlash.c **** *  rowData array is expected to contain Flash and ECC data if needed.
 394:Generated_Source\PSoC5/CyFlash.c **** *
 395:Generated_Source\PSoC5/CyFlash.c **** *  \param arrayId:    FLASH or EEPROM array id.
 396:Generated_Source\PSoC5/CyFlash.c **** *  \param rowData:    Pointer to a row of data to write.
 397:Generated_Source\PSoC5/CyFlash.c **** *  \param rowNumber:  Zero based number of the row.
 398:Generated_Source\PSoC5/CyFlash.c **** *  \param rowSize:    Size of the row.
 399:Generated_Source\PSoC5/CyFlash.c **** *
 400:Generated_Source\PSoC5/CyFlash.c **** * \return
 401:Generated_Source\PSoC5/CyFlash.c **** *  CYRET_SUCCESS if successful.
 402:Generated_Source\PSoC5/CyFlash.c **** *  CYRET_LOCKED if the SPC is already in use.
 403:Generated_Source\PSoC5/CyFlash.c **** *  CYRET_CANCELED if command not accepted
 404:Generated_Source\PSoC5/CyFlash.c **** *  CYRET_UNKNOWN if there was an SPC error.
 405:Generated_Source\PSoC5/CyFlash.c **** *
 406:Generated_Source\PSoC5/CyFlash.c **** *******************************************************************************/
 407:Generated_Source\PSoC5/CyFlash.c **** cystatus CyWriteRowFull(uint8 arrayId, uint16 rowNumber, const uint8* rowData, uint16 rowSize) \
 408:Generated_Source\PSoC5/CyFlash.c ****         
 409:Generated_Source\PSoC5/CyFlash.c **** {
 378              		.loc 1 409 0
 379              		.cfi_startproc
 380              		@ args = 0, pretend = 0, frame = 0
 381              		@ frame_needed = 0, uses_anonymous_args = 0
 382              	.LVL36:
 383 0000 2DE9F041 		push	{r4, r5, r6, r7, r8, lr}
 384              		.cfi_def_cfa_offset 24
 385              		.cfi_offset 4, -24
 386              		.cfi_offset 5, -20
 387              		.cfi_offset 6, -16
 388              		.cfi_offset 7, -12
 389              		.cfi_offset 8, -8
 390              		.cfi_offset 14, -4
 391              	.LVL37:
 410:Generated_Source\PSoC5/CyFlash.c ****     cystatus status = CYRET_SUCCESS;
 411:Generated_Source\PSoC5/CyFlash.c **** 
 412:Generated_Source\PSoC5/CyFlash.c ****     if((arrayId <=  CY_SPC_LAST_FLASH_ARRAYID) && (arrayId > (CY_FLASH_NUMBER_ARRAYS  + CY_SPC_FIRS
 392              		.loc 1 412 0
 393 0004 C41E     		subs	r4, r0, #3
 394 0006 E4B2     		uxtb	r4, r4
 395 0008 3C2C     		cmp	r4, #60
 396 000a 01D9     		bls	.L56
 410:Generated_Source\PSoC5/CyFlash.c ****     cystatus status = CYRET_SUCCESS;
 397              		.loc 1 410 0
 398 000c 0025     		movs	r5, #0
 399 000e 00E0     		b	.L42
 400              	.L56:
 413:Generated_Source\PSoC5/CyFlash.c ****     {
 414:Generated_Source\PSoC5/CyFlash.c ****         status = CYRET_BAD_PARAM;
 401              		.loc 1 414 0
 402 0010 0125     		movs	r5, #1
 403              	.L42:
 404              	.LVL38:
 415:Generated_Source\PSoC5/CyFlash.c ****     }
 416:Generated_Source\PSoC5/CyFlash.c **** 
 417:Generated_Source\PSoC5/CyFlash.c ****     if(arrayId > CY_SPC_LAST_EE_ARRAYID)
 405              		.loc 1 417 0
 406 0012 10F0800F 		tst	r0, #128
ARM GAS  C:\Users\santoree\AppData\Local\Temp\ccW4XfpI.s 			page 16


 407 0016 00D0     		beq	.L43
 418:Generated_Source\PSoC5/CyFlash.c ****     {
 419:Generated_Source\PSoC5/CyFlash.c ****         status = CYRET_BAD_PARAM;
 408              		.loc 1 419 0
 409 0018 0125     		movs	r5, #1
 410              	.LVL39:
 411              	.L43:
 420:Generated_Source\PSoC5/CyFlash.c ****     }
 421:Generated_Source\PSoC5/CyFlash.c **** 
 422:Generated_Source\PSoC5/CyFlash.c ****     if((arrayId >= CY_SPC_FIRST_EE_ARRAYID) && (arrayId > (CY_FLASH_EEPROM_NUMBER_ARRAYS + CY_SPC_F
 412              		.loc 1 422 0
 413 001a 4128     		cmp	r0, #65
 414 001c 00D9     		bls	.L44
 423:Generated_Source\PSoC5/CyFlash.c ****     {
 424:Generated_Source\PSoC5/CyFlash.c ****         status = CYRET_BAD_PARAM;
 415              		.loc 1 424 0
 416 001e 0125     		movs	r5, #1
 417              	.LVL40:
 418              	.L44:
 425:Generated_Source\PSoC5/CyFlash.c ****     }
 426:Generated_Source\PSoC5/CyFlash.c **** 
 427:Generated_Source\PSoC5/CyFlash.c ****     if(arrayId <=  CY_SPC_LAST_FLASH_ARRAYID)
 419              		.loc 1 427 0
 420 0020 3F28     		cmp	r0, #63
 421 0022 03D8     		bhi	.L45
 428:Generated_Source\PSoC5/CyFlash.c ****     {
 429:Generated_Source\PSoC5/CyFlash.c ****         /* Flash */
 430:Generated_Source\PSoC5/CyFlash.c ****         if(rowNumber > (CY_FLASH_NUMBER_ROWS/CY_FLASH_NUMBER_ARRAYS))
 422              		.loc 1 430 0
 423 0024 B1F5807F 		cmp	r1, #256
 424 0028 06D8     		bhi	.L59
 425 002a 08E0     		b	.L46
 426              	.L45:
 431:Generated_Source\PSoC5/CyFlash.c ****         {
 432:Generated_Source\PSoC5/CyFlash.c ****             status = CYRET_BAD_PARAM;
 433:Generated_Source\PSoC5/CyFlash.c ****         }
 434:Generated_Source\PSoC5/CyFlash.c ****     }
 435:Generated_Source\PSoC5/CyFlash.c ****     else
 436:Generated_Source\PSoC5/CyFlash.c ****     {
 437:Generated_Source\PSoC5/CyFlash.c ****         /* EEPROM */
 438:Generated_Source\PSoC5/CyFlash.c ****         if(rowNumber > (CY_EEPROM_NUMBER_ROWS/CY_FLASH_EEPROM_NUMBER_ARRAYS))
 427              		.loc 1 438 0
 428 002c 8029     		cmp	r1, #128
 429 002e 00D9     		bls	.L47
 439:Generated_Source\PSoC5/CyFlash.c ****         {
 440:Generated_Source\PSoC5/CyFlash.c ****             status = CYRET_BAD_PARAM;
 430              		.loc 1 440 0
 431 0030 0125     		movs	r5, #1
 432              	.LVL41:
 433              	.L47:
 441:Generated_Source\PSoC5/CyFlash.c ****         }
 442:Generated_Source\PSoC5/CyFlash.c **** 
 443:Generated_Source\PSoC5/CyFlash.c ****         if(CY_EEPROM_SIZEOF_ROW != rowSize)
 434              		.loc 1 443 0
 435 0032 102B     		cmp	r3, #16
 436 0034 02D1     		bne	.L61
 437 0036 02E0     		b	.L46
ARM GAS  C:\Users\santoree\AppData\Local\Temp\ccW4XfpI.s 			page 17


 438              	.L59:
 432:Generated_Source\PSoC5/CyFlash.c ****         }
 439              		.loc 1 432 0
 440 0038 0125     		movs	r5, #1
 441              	.LVL42:
 442 003a 00E0     		b	.L46
 443              	.LVL43:
 444              	.L61:
 444:Generated_Source\PSoC5/CyFlash.c ****         {
 445:Generated_Source\PSoC5/CyFlash.c ****             status = CYRET_BAD_PARAM;
 445              		.loc 1 445 0
 446 003c 0125     		movs	r5, #1
 447              	.LVL44:
 448              	.L46:
 446:Generated_Source\PSoC5/CyFlash.c ****         }
 447:Generated_Source\PSoC5/CyFlash.c ****     }
 448:Generated_Source\PSoC5/CyFlash.c **** 
 449:Generated_Source\PSoC5/CyFlash.c ****     if(rowData == NULL)
 449              		.loc 1 449 0
 450 003e 02B9     		cbnz	r2, .L48
 450:Generated_Source\PSoC5/CyFlash.c ****     {
 451:Generated_Source\PSoC5/CyFlash.c ****         status = CYRET_BAD_PARAM;
 451              		.loc 1 451 0
 452 0040 0125     		movs	r5, #1
 453              	.LVL45:
 454              	.L48:
 452:Generated_Source\PSoC5/CyFlash.c ****     }
 453:Generated_Source\PSoC5/CyFlash.c **** 
 454:Generated_Source\PSoC5/CyFlash.c **** 
 455:Generated_Source\PSoC5/CyFlash.c ****     if(status == CYRET_SUCCESS)
 455              		.loc 1 455 0
 456 0042 002D     		cmp	r5, #0
 457 0044 50D1     		bne	.L49
 458 0046 9846     		mov	r8, r3
 459 0048 1646     		mov	r6, r2
 460 004a 0F46     		mov	r7, r1
 461 004c 0446     		mov	r4, r0
 456:Generated_Source\PSoC5/CyFlash.c ****     {
 457:Generated_Source\PSoC5/CyFlash.c ****         if(CySpcLock() == CYRET_SUCCESS)
 462              		.loc 1 457 0
 463 004e FFF7FEFF 		bl	CySpcLock
 464              	.LVL46:
 465 0052 0028     		cmp	r0, #0
 466 0054 47D1     		bne	.L63
 458:Generated_Source\PSoC5/CyFlash.c ****         {
 459:Generated_Source\PSoC5/CyFlash.c ****             /* Load row data into SPC internal latch */
 460:Generated_Source\PSoC5/CyFlash.c ****             status = CySpcLoadRowFull(arrayId, rowNumber, rowData, rowSize);
 467              		.loc 1 460 0
 468 0056 4346     		mov	r3, r8
 469 0058 3246     		mov	r2, r6
 470 005a 3946     		mov	r1, r7
 471 005c 2046     		mov	r0, r4
 472 005e FFF7FEFF 		bl	CySpcLoadRowFull
 473              	.LVL47:
 474 0062 0646     		mov	r6, r0
 475              	.LVL48:
 461:Generated_Source\PSoC5/CyFlash.c **** 
ARM GAS  C:\Users\santoree\AppData\Local\Temp\ccW4XfpI.s 			page 18


 462:Generated_Source\PSoC5/CyFlash.c ****             if(CYRET_STARTED == status)
 476              		.loc 1 462 0
 477 0064 0728     		cmp	r0, #7
 478 0066 3AD1     		bne	.L51
 479 0068 02E0     		b	.L50
 480              	.LVL49:
 481              	.L52:
 463:Generated_Source\PSoC5/CyFlash.c ****             {
 464:Generated_Source\PSoC5/CyFlash.c ****                 while(CY_SPC_BUSY)
 465:Generated_Source\PSoC5/CyFlash.c ****                 {
 466:Generated_Source\PSoC5/CyFlash.c ****                     /* Wait for SPC to finish and get SPC status */
 467:Generated_Source\PSoC5/CyFlash.c ****                     CyDelayUs(1u);
 482              		.loc 1 467 0
 483 006a 0120     		movs	r0, #1
 484 006c FFF7FEFF 		bl	CyDelayUs
 485              	.LVL50:
 486              	.L50:
 464:Generated_Source\PSoC5/CyFlash.c ****                 {
 487              		.loc 1 464 0
 488 0070 1F4B     		ldr	r3, .L68
 489 0072 1B78     		ldrb	r3, [r3]	@ zero_extendqisi2
 490 0074 13F0020F 		tst	r3, #2
 491 0078 F7D0     		beq	.L52
 468:Generated_Source\PSoC5/CyFlash.c ****                 }
 469:Generated_Source\PSoC5/CyFlash.c **** 
 470:Generated_Source\PSoC5/CyFlash.c ****                 /* Hide SPC status */
 471:Generated_Source\PSoC5/CyFlash.c ****                 if(CY_SPC_STATUS_SUCCESS == CY_SPC_READ_STATUS)
 492              		.loc 1 471 0
 493 007a 1D4B     		ldr	r3, .L68
 494 007c 1B78     		ldrb	r3, [r3]	@ zero_extendqisi2
 495 007e 13F0020F 		tst	r3, #2
 496 0082 06D0     		beq	.L64
 497              		.loc 1 471 0 is_stmt 0 discriminator 1
 498 0084 1A4B     		ldr	r3, .L68
 499 0086 1B78     		ldrb	r3, [r3]	@ zero_extendqisi2
 500 0088 9B08     		lsrs	r3, r3, #2
 501 008a 05D0     		beq	.L65
 472:Generated_Source\PSoC5/CyFlash.c ****                 {
 473:Generated_Source\PSoC5/CyFlash.c ****                     status = CYRET_SUCCESS;
 474:Generated_Source\PSoC5/CyFlash.c ****                 }
 475:Generated_Source\PSoC5/CyFlash.c ****                 else
 476:Generated_Source\PSoC5/CyFlash.c ****                 {
 477:Generated_Source\PSoC5/CyFlash.c ****                     status = CYRET_UNKNOWN;
 502              		.loc 1 477 0 is_stmt 1
 503 008c 4FF0FF36 		mov	r6, #-1
 504              	.LVL51:
 505 0090 03E0     		b	.L53
 506              	.LVL52:
 507              	.L64:
 508 0092 4FF0FF36 		mov	r6, #-1
 509              	.LVL53:
 510 0096 00E0     		b	.L53
 511              	.LVL54:
 512              	.L65:
 473:Generated_Source\PSoC5/CyFlash.c ****                 }
 513              		.loc 1 473 0
 514 0098 2E46     		mov	r6, r5
ARM GAS  C:\Users\santoree\AppData\Local\Temp\ccW4XfpI.s 			page 19


 515              	.LVL55:
 516              	.L53:
 478:Generated_Source\PSoC5/CyFlash.c ****                 }
 479:Generated_Source\PSoC5/CyFlash.c **** 
 480:Generated_Source\PSoC5/CyFlash.c ****                 if(CYRET_SUCCESS == status)
 517              		.loc 1 480 0
 518 009a 06BB     		cbnz	r6, .L51
 481:Generated_Source\PSoC5/CyFlash.c ****                 {
 482:Generated_Source\PSoC5/CyFlash.c ****                     /* Erase and program flash with data from SPC interval latch */
 483:Generated_Source\PSoC5/CyFlash.c ****                     status = CySpcWriteRow(arrayId, rowNumber, dieTemperature[0u], dieTemperature[1
 519              		.loc 1 483 0
 520 009c 154A     		ldr	r2, .L68+4
 521 009e 5378     		ldrb	r3, [r2, #1]	@ zero_extendqisi2
 522 00a0 1278     		ldrb	r2, [r2]	@ zero_extendqisi2
 523 00a2 3946     		mov	r1, r7
 524 00a4 2046     		mov	r0, r4
 525 00a6 FFF7FEFF 		bl	CySpcWriteRow
 526              	.LVL56:
 484:Generated_Source\PSoC5/CyFlash.c **** 
 485:Generated_Source\PSoC5/CyFlash.c ****                     if(CYRET_STARTED == status)
 527              		.loc 1 485 0
 528 00aa 0728     		cmp	r0, #7
 529 00ac 04D0     		beq	.L54
 483:Generated_Source\PSoC5/CyFlash.c **** 
 530              		.loc 1 483 0
 531 00ae 0646     		mov	r6, r0
 532 00b0 15E0     		b	.L51
 533              	.LVL57:
 534              	.L55:
 486:Generated_Source\PSoC5/CyFlash.c ****                     {
 487:Generated_Source\PSoC5/CyFlash.c ****                         while(CY_SPC_BUSY)
 488:Generated_Source\PSoC5/CyFlash.c ****                         {
 489:Generated_Source\PSoC5/CyFlash.c ****                             /* Wait for SPC to finish and get SPC status */
 490:Generated_Source\PSoC5/CyFlash.c ****                             CyDelayUs(1u);
 535              		.loc 1 490 0
 536 00b2 0120     		movs	r0, #1
 537 00b4 FFF7FEFF 		bl	CyDelayUs
 538              	.LVL58:
 539              	.L54:
 487:Generated_Source\PSoC5/CyFlash.c ****                         {
 540              		.loc 1 487 0
 541 00b8 0D4B     		ldr	r3, .L68
 542 00ba 1B78     		ldrb	r3, [r3]	@ zero_extendqisi2
 543 00bc 13F0020F 		tst	r3, #2
 544 00c0 F7D0     		beq	.L55
 491:Generated_Source\PSoC5/CyFlash.c ****                         }
 492:Generated_Source\PSoC5/CyFlash.c **** 
 493:Generated_Source\PSoC5/CyFlash.c ****                         /* Hide SPC status */
 494:Generated_Source\PSoC5/CyFlash.c ****                         if(CY_SPC_STATUS_SUCCESS == CY_SPC_READ_STATUS)
 545              		.loc 1 494 0
 546 00c2 0B4B     		ldr	r3, .L68
 547 00c4 1B78     		ldrb	r3, [r3]	@ zero_extendqisi2
 548 00c6 13F0020F 		tst	r3, #2
 549 00ca 06D0     		beq	.L66
 550              		.loc 1 494 0 is_stmt 0 discriminator 1
 551 00cc 084B     		ldr	r3, .L68
 552 00ce 1B78     		ldrb	r3, [r3]	@ zero_extendqisi2
ARM GAS  C:\Users\santoree\AppData\Local\Temp\ccW4XfpI.s 			page 20


 553 00d0 9B08     		lsrs	r3, r3, #2
 554 00d2 04D0     		beq	.L51
 495:Generated_Source\PSoC5/CyFlash.c ****                         {
 496:Generated_Source\PSoC5/CyFlash.c ****                             status = CYRET_SUCCESS;
 497:Generated_Source\PSoC5/CyFlash.c ****                         }
 498:Generated_Source\PSoC5/CyFlash.c ****                         else
 499:Generated_Source\PSoC5/CyFlash.c ****                         {
 500:Generated_Source\PSoC5/CyFlash.c ****                             status = CYRET_UNKNOWN;
 555              		.loc 1 500 0 is_stmt 1
 556 00d4 4FF0FF36 		mov	r6, #-1
 557 00d8 01E0     		b	.L51
 558              	.L66:
 559 00da 4FF0FF36 		mov	r6, #-1
 560              	.L51:
 561              	.LVL59:
 501:Generated_Source\PSoC5/CyFlash.c ****                         }
 502:Generated_Source\PSoC5/CyFlash.c ****                     }
 503:Generated_Source\PSoC5/CyFlash.c ****                 }
 504:Generated_Source\PSoC5/CyFlash.c ****             }
 505:Generated_Source\PSoC5/CyFlash.c ****             CySpcUnlock();
 562              		.loc 1 505 0
 563 00de FFF7FEFF 		bl	CySpcUnlock
 564              	.LVL60:
 565 00e2 3546     		mov	r5, r6
 566 00e4 00E0     		b	.L49
 567              	.LVL61:
 568              	.L63:
 506:Generated_Source\PSoC5/CyFlash.c ****         }   /* if(CySpcLock() == CYRET_SUCCESS) */
 507:Generated_Source\PSoC5/CyFlash.c ****         else
 508:Generated_Source\PSoC5/CyFlash.c ****         {
 509:Generated_Source\PSoC5/CyFlash.c ****             status = CYRET_LOCKED;
 569              		.loc 1 509 0
 570 00e6 0425     		movs	r5, #4
 571              	.LVL62:
 572              	.L49:
 510:Generated_Source\PSoC5/CyFlash.c ****         }
 511:Generated_Source\PSoC5/CyFlash.c ****     }
 512:Generated_Source\PSoC5/CyFlash.c **** 
 513:Generated_Source\PSoC5/CyFlash.c ****     return(status);
 514:Generated_Source\PSoC5/CyFlash.c **** }
 573              		.loc 1 514 0
 574 00e8 2846     		mov	r0, r5
 575 00ea BDE8F081 		pop	{r4, r5, r6, r7, r8, pc}
 576              	.LVL63:
 577              	.L69:
 578 00ee 00BF     		.align	2
 579              	.L68:
 580 00f0 22470040 		.word	1073760034
 581 00f4 00000000 		.word	dieTemperature
 582              		.cfi_endproc
 583              	.LFE7:
 584              		.size	CyWriteRowFull, .-CyWriteRowFull
 585              		.section	.text.CyWriteRowData,"ax",%progbits
 586              		.align	2
 587              		.global	CyWriteRowData
 588              		.thumb
 589              		.thumb_func
ARM GAS  C:\Users\santoree\AppData\Local\Temp\ccW4XfpI.s 			page 21


 590              		.type	CyWriteRowData, %function
 591              	CyWriteRowData:
 592              	.LFB6:
 335:Generated_Source\PSoC5/CyFlash.c ****     uint16 rowSize;
 593              		.loc 1 335 0
 594              		.cfi_startproc
 595              		@ args = 0, pretend = 0, frame = 0
 596              		@ frame_needed = 0, uses_anonymous_args = 0
 597              	.LVL64:
 598 0000 08B5     		push	{r3, lr}
 599              		.cfi_def_cfa_offset 8
 600              		.cfi_offset 3, -8
 601              		.cfi_offset 14, -4
 339:Generated_Source\PSoC5/CyFlash.c ****     status = CyWriteRowFull(arrayId, rowAddress, rowData, rowSize);
 602              		.loc 1 339 0
 603 0002 3F28     		cmp	r0, #63
 604 0004 01D9     		bls	.L72
 605 0006 1023     		movs	r3, #16
 606 0008 01E0     		b	.L71
 607              	.L72:
 608 000a 4FF48073 		mov	r3, #256
 609              	.L71:
 610              	.LVL65:
 340:Generated_Source\PSoC5/CyFlash.c **** 
 611              		.loc 1 340 0 discriminator 4
 612 000e FFF7FEFF 		bl	CyWriteRowFull
 613              	.LVL66:
 343:Generated_Source\PSoC5/CyFlash.c **** 
 614              		.loc 1 343 0 discriminator 4
 615 0012 08BD     		pop	{r3, pc}
 616              		.cfi_endproc
 617              	.LFE6:
 618              		.size	CyWriteRowData, .-CyWriteRowData
 619              		.section	.text.CyFlash_SetWaitCycles,"ax",%progbits
 620              		.align	2
 621              		.global	CyFlash_SetWaitCycles
 622              		.thumb
 623              		.thumb_func
 624              		.type	CyFlash_SetWaitCycles, %function
 625              	CyFlash_SetWaitCycles:
 626              	.LFB8:
 515:Generated_Source\PSoC5/CyFlash.c **** 
 516:Generated_Source\PSoC5/CyFlash.c **** 
 517:Generated_Source\PSoC5/CyFlash.c **** /*******************************************************************************
 518:Generated_Source\PSoC5/CyFlash.c **** * Function Name: CyFlash_SetWaitCycles
 519:Generated_Source\PSoC5/CyFlash.c **** ****************************************************************************//**
 520:Generated_Source\PSoC5/CyFlash.c **** *
 521:Generated_Source\PSoC5/CyFlash.c **** *  Sets the number of clock cycles the cache will wait before it samples data
 522:Generated_Source\PSoC5/CyFlash.c **** *  coming back from the Flash. This function must be called before increasing
 523:Generated_Source\PSoC5/CyFlash.c **** *  the CPU clock frequency. It can optionally be called after lowering the CPU
 524:Generated_Source\PSoC5/CyFlash.c **** *  clock frequency in order to improve the CPU performance.
 525:Generated_Source\PSoC5/CyFlash.c **** *
 526:Generated_Source\PSoC5/CyFlash.c **** *  \param uint8 freq:
 527:Generated_Source\PSoC5/CyFlash.c **** *   Frequency of operation in Megahertz.
 528:Generated_Source\PSoC5/CyFlash.c **** *
 529:Generated_Source\PSoC5/CyFlash.c **** *******************************************************************************/
 530:Generated_Source\PSoC5/CyFlash.c **** void CyFlash_SetWaitCycles(uint8 freq) 
ARM GAS  C:\Users\santoree\AppData\Local\Temp\ccW4XfpI.s 			page 22


 531:Generated_Source\PSoC5/CyFlash.c **** {
 627              		.loc 1 531 0
 628              		.cfi_startproc
 629              		@ args = 0, pretend = 0, frame = 0
 630              		@ frame_needed = 0, uses_anonymous_args = 0
 631              	.LVL67:
 632 0000 38B5     		push	{r3, r4, r5, lr}
 633              		.cfi_def_cfa_offset 16
 634              		.cfi_offset 3, -16
 635              		.cfi_offset 4, -12
 636              		.cfi_offset 5, -8
 637              		.cfi_offset 14, -4
 638 0002 0446     		mov	r4, r0
 532:Generated_Source\PSoC5/CyFlash.c ****     uint8 interruptState;
 533:Generated_Source\PSoC5/CyFlash.c **** 
 534:Generated_Source\PSoC5/CyFlash.c ****     /* Save current global interrupt enable and disable it */
 535:Generated_Source\PSoC5/CyFlash.c ****     interruptState = CyEnterCriticalSection();
 639              		.loc 1 535 0
 640 0004 FFF7FEFF 		bl	CyEnterCriticalSection
 641              	.LVL68:
 642 0008 0546     		mov	r5, r0
 643              	.LVL69:
 536:Generated_Source\PSoC5/CyFlash.c **** 
 537:Generated_Source\PSoC5/CyFlash.c ****     /***************************************************************************
 538:Generated_Source\PSoC5/CyFlash.c ****     * The number of clock cycles the cache will wait before it samples data
 539:Generated_Source\PSoC5/CyFlash.c ****     * coming back from the Flash must be equal or greater to to the CPU frequency
 540:Generated_Source\PSoC5/CyFlash.c ****     * outlined in clock cycles.
 541:Generated_Source\PSoC5/CyFlash.c ****     ***************************************************************************/
 542:Generated_Source\PSoC5/CyFlash.c **** 
 543:Generated_Source\PSoC5/CyFlash.c ****     if (freq < CY_FLASH_CACHE_WS_1_FREQ_MAX)
 644              		.loc 1 543 0
 645 000a 0F2C     		cmp	r4, #15
 646 000c 07D8     		bhi	.L75
 544:Generated_Source\PSoC5/CyFlash.c ****     {
 545:Generated_Source\PSoC5/CyFlash.c ****         CY_FLASH_CONTROL_REG = (CY_FLASH_CONTROL_REG & (uint8)(~CY_FLASH_CACHE_WS_VALUE_MASK)) |
 647              		.loc 1 545 0
 648 000e 1A4A     		ldr	r2, .L82
 649 0010 1378     		ldrb	r3, [r2]	@ zero_extendqisi2
 650 0012 03F01F03 		and	r3, r3, #31
 651 0016 43F04003 		orr	r3, r3, #64
 652 001a 1370     		strb	r3, [r2]
 653 001c 28E0     		b	.L76
 654              	.L75:
 546:Generated_Source\PSoC5/CyFlash.c ****                                     CY_FLASH_CACHE_WS_1_VALUE_MASK;
 547:Generated_Source\PSoC5/CyFlash.c ****     }
 548:Generated_Source\PSoC5/CyFlash.c ****     else if (freq < CY_FLASH_CACHE_WS_2_FREQ_MAX)
 655              		.loc 1 548 0
 656 001e 202C     		cmp	r4, #32
 657 0020 07D8     		bhi	.L77
 549:Generated_Source\PSoC5/CyFlash.c ****     {
 550:Generated_Source\PSoC5/CyFlash.c ****         CY_FLASH_CONTROL_REG = (CY_FLASH_CONTROL_REG & (uint8)(~CY_FLASH_CACHE_WS_VALUE_MASK)) |
 658              		.loc 1 550 0
 659 0022 154A     		ldr	r2, .L82
 660 0024 1378     		ldrb	r3, [r2]	@ zero_extendqisi2
 661 0026 03F01F03 		and	r3, r3, #31
 662 002a 43F08003 		orr	r3, r3, #128
 663 002e 1370     		strb	r3, [r2]
ARM GAS  C:\Users\santoree\AppData\Local\Temp\ccW4XfpI.s 			page 23


 664 0030 1EE0     		b	.L76
 665              	.L77:
 551:Generated_Source\PSoC5/CyFlash.c ****                                     CY_FLASH_CACHE_WS_2_VALUE_MASK;
 552:Generated_Source\PSoC5/CyFlash.c ****     }
 553:Generated_Source\PSoC5/CyFlash.c ****     else if (freq < CY_FLASH_CACHE_WS_3_FREQ_MAX)
 666              		.loc 1 553 0
 667 0032 312C     		cmp	r4, #49
 668 0034 07D8     		bhi	.L78
 554:Generated_Source\PSoC5/CyFlash.c ****     {
 555:Generated_Source\PSoC5/CyFlash.c ****         CY_FLASH_CONTROL_REG = (CY_FLASH_CONTROL_REG & (uint8)(~CY_FLASH_CACHE_WS_VALUE_MASK)) |
 669              		.loc 1 555 0
 670 0036 104A     		ldr	r2, .L82
 671 0038 1378     		ldrb	r3, [r2]	@ zero_extendqisi2
 672 003a 03F01F03 		and	r3, r3, #31
 673 003e 43F0C003 		orr	r3, r3, #192
 674 0042 1370     		strb	r3, [r2]
 675 0044 14E0     		b	.L76
 676              	.L78:
 556:Generated_Source\PSoC5/CyFlash.c ****                                     CY_FLASH_CACHE_WS_3_VALUE_MASK;
 557:Generated_Source\PSoC5/CyFlash.c ****     }
 558:Generated_Source\PSoC5/CyFlash.c **** #if (CY_PSOC5)
 559:Generated_Source\PSoC5/CyFlash.c ****     else if (freq < CY_FLASH_CACHE_WS_4_FREQ_MAX)
 677              		.loc 1 559 0
 678 0046 422C     		cmp	r4, #66
 679 0048 05D8     		bhi	.L79
 560:Generated_Source\PSoC5/CyFlash.c ****     {
 561:Generated_Source\PSoC5/CyFlash.c ****         CY_FLASH_CONTROL_REG = (CY_FLASH_CONTROL_REG & (uint8)(~CY_FLASH_CACHE_WS_VALUE_MASK)) |
 680              		.loc 1 561 0
 681 004a 0B4A     		ldr	r2, .L82
 682 004c 1378     		ldrb	r3, [r2]	@ zero_extendqisi2
 683 004e 03F01F03 		and	r3, r3, #31
 684 0052 1370     		strb	r3, [r2]
 685 0054 0CE0     		b	.L76
 686              	.L79:
 562:Generated_Source\PSoC5/CyFlash.c ****                                     CY_FLASH_CACHE_WS_4_VALUE_MASK;
 563:Generated_Source\PSoC5/CyFlash.c ****     }
 564:Generated_Source\PSoC5/CyFlash.c ****     else if (freq <= CY_FLASH_CACHE_WS_5_FREQ_MAX)
 687              		.loc 1 564 0
 688 0056 532C     		cmp	r4, #83
 689 0058 07D8     		bhi	.L80
 565:Generated_Source\PSoC5/CyFlash.c ****     {
 566:Generated_Source\PSoC5/CyFlash.c ****         CY_FLASH_CONTROL_REG = (CY_FLASH_CONTROL_REG & (uint8)(~CY_FLASH_CACHE_WS_VALUE_MASK)) |
 690              		.loc 1 566 0
 691 005a 074A     		ldr	r2, .L82
 692 005c 1378     		ldrb	r3, [r2]	@ zero_extendqisi2
 693 005e 03F01F03 		and	r3, r3, #31
 694 0062 43F02003 		orr	r3, r3, #32
 695 0066 1370     		strb	r3, [r2]
 696 0068 02E0     		b	.L76
 697              	.L80:
 567:Generated_Source\PSoC5/CyFlash.c ****                                     CY_FLASH_CACHE_WS_5_VALUE_MASK;
 568:Generated_Source\PSoC5/CyFlash.c ****     }
 569:Generated_Source\PSoC5/CyFlash.c **** #endif  /* (CY_PSOC5) */
 570:Generated_Source\PSoC5/CyFlash.c ****     else
 571:Generated_Source\PSoC5/CyFlash.c ****     {
 572:Generated_Source\PSoC5/CyFlash.c ****         /* Halt CPU in debug mode if frequency is invalid */
 573:Generated_Source\PSoC5/CyFlash.c ****         CYASSERT(0u != 0u);
ARM GAS  C:\Users\santoree\AppData\Local\Temp\ccW4XfpI.s 			page 24


 698              		.loc 1 573 0 discriminator 1
 699 006a 0020     		movs	r0, #0
 700 006c FFF7FEFF 		bl	CyHalt
 701              	.LVL70:
 702              	.L76:
 574:Generated_Source\PSoC5/CyFlash.c ****     }
 575:Generated_Source\PSoC5/CyFlash.c **** 
 576:Generated_Source\PSoC5/CyFlash.c ****     /* Restore global interrupt enable state */
 577:Generated_Source\PSoC5/CyFlash.c ****     CyExitCriticalSection(interruptState);
 703              		.loc 1 577 0
 704 0070 2846     		mov	r0, r5
 705 0072 FFF7FEFF 		bl	CyExitCriticalSection
 706              	.LVL71:
 707 0076 38BD     		pop	{r3, r4, r5, pc}
 708              	.LVL72:
 709              	.L83:
 710              		.align	2
 711              	.L82:
 712 0078 00480040 		.word	1073760256
 713              		.cfi_endproc
 714              	.LFE8:
 715              		.size	CyFlash_SetWaitCycles, .-CyFlash_SetWaitCycles
 716              		.section	.text.CyEEPROM_Start,"ax",%progbits
 717              		.align	2
 718              		.global	CyEEPROM_Start
 719              		.thumb
 720              		.thumb_func
 721              		.type	CyEEPROM_Start, %function
 722              	CyEEPROM_Start:
 723              	.LFB9:
 578:Generated_Source\PSoC5/CyFlash.c **** }
 579:Generated_Source\PSoC5/CyFlash.c **** 
 580:Generated_Source\PSoC5/CyFlash.c **** 
 581:Generated_Source\PSoC5/CyFlash.c **** /*******************************************************************************
 582:Generated_Source\PSoC5/CyFlash.c **** * Function Name: CyEEPROM_Start
 583:Generated_Source\PSoC5/CyFlash.c **** ****************************************************************************//**
 584:Generated_Source\PSoC5/CyFlash.c **** *
 585:Generated_Source\PSoC5/CyFlash.c **** *  Enable the EEPROM.
 586:Generated_Source\PSoC5/CyFlash.c **** *
 587:Generated_Source\PSoC5/CyFlash.c **** *******************************************************************************/
 588:Generated_Source\PSoC5/CyFlash.c **** void CyEEPROM_Start(void) 
 589:Generated_Source\PSoC5/CyFlash.c **** {
 724              		.loc 1 589 0
 725              		.cfi_startproc
 726              		@ args = 0, pretend = 0, frame = 0
 727              		@ frame_needed = 0, uses_anonymous_args = 0
 728 0000 08B5     		push	{r3, lr}
 729              		.cfi_def_cfa_offset 8
 730              		.cfi_offset 3, -8
 731              		.cfi_offset 14, -4
 590:Generated_Source\PSoC5/CyFlash.c ****     uint8 interruptState;
 591:Generated_Source\PSoC5/CyFlash.c **** 
 592:Generated_Source\PSoC5/CyFlash.c ****     interruptState = CyEnterCriticalSection();
 732              		.loc 1 592 0
 733 0002 FFF7FEFF 		bl	CyEnterCriticalSection
 734              	.LVL73:
 593:Generated_Source\PSoC5/CyFlash.c **** 
ARM GAS  C:\Users\santoree\AppData\Local\Temp\ccW4XfpI.s 			page 25


 594:Generated_Source\PSoC5/CyFlash.c **** 
 595:Generated_Source\PSoC5/CyFlash.c ****     /***************************************************************************
 596:Generated_Source\PSoC5/CyFlash.c ****     * Enable SPC clock. This also internally enables the 36MHz IMO, since this
 597:Generated_Source\PSoC5/CyFlash.c ****     * is required for the SPC to function.
 598:Generated_Source\PSoC5/CyFlash.c ****     ***************************************************************************/
 599:Generated_Source\PSoC5/CyFlash.c ****     CY_FLASH_PM_ACT_CFG0_REG    |= CY_FLASH_PM_ACT_CFG0_EN_CLK_SPC;
 735              		.loc 1 599 0
 736 0006 0F4A     		ldr	r2, .L87
 737 0008 1378     		ldrb	r3, [r2]	@ zero_extendqisi2
 738 000a 43F00803 		orr	r3, r3, #8
 739 000e 1370     		strb	r3, [r2]
 600:Generated_Source\PSoC5/CyFlash.c ****     CY_FLASH_PM_ALTACT_CFG0_REG |= CY_FLASH_PM_ALTACT_CFG0_EN_CLK_SPC;
 740              		.loc 1 600 0
 741 0010 1032     		adds	r2, r2, #16
 742 0012 1378     		ldrb	r3, [r2]	@ zero_extendqisi2
 743 0014 43F00803 		orr	r3, r3, #8
 744 0018 1370     		strb	r3, [r2]
 601:Generated_Source\PSoC5/CyFlash.c **** 
 602:Generated_Source\PSoC5/CyFlash.c **** 
 603:Generated_Source\PSoC5/CyFlash.c ****     /***************************************************************************
 604:Generated_Source\PSoC5/CyFlash.c ****     * The wake count defines the number of Bus Clock cycles it takes for the
 605:Generated_Source\PSoC5/CyFlash.c ****     * flash or EEPROM to wake up from a low power mode independent of the chip
 606:Generated_Source\PSoC5/CyFlash.c ****     * power mode. Wake up time for these blocks is 5 us.
 607:Generated_Source\PSoC5/CyFlash.c ****     * The granularity of this register is 2 Bus Clock cycles, so a value of 0x1E
 608:Generated_Source\PSoC5/CyFlash.c ****     * (30d) defines the wake up time as 60 cycles of the Bus Clock.
 609:Generated_Source\PSoC5/CyFlash.c ****     * This register needs to be written with a value dependent on the Bus Clock
 610:Generated_Source\PSoC5/CyFlash.c ****     * frequency so that the duration of the cycles is equal to or greater than
 611:Generated_Source\PSoC5/CyFlash.c ****     * the 5 us delay required.
 612:Generated_Source\PSoC5/CyFlash.c ****     ***************************************************************************/
 613:Generated_Source\PSoC5/CyFlash.c ****     CY_FLASH_SPC_FM_EE_WAKE_CNT_REG = CY_FLASH_SPC_FM_EE_WAKE_CNT_80MHZ;
 745              		.loc 1 613 0
 746 001a C822     		movs	r2, #200
 747 001c 0A4B     		ldr	r3, .L87+4
 748 001e 1A70     		strb	r2, [r3]
 614:Generated_Source\PSoC5/CyFlash.c **** 
 615:Generated_Source\PSoC5/CyFlash.c **** 
 616:Generated_Source\PSoC5/CyFlash.c ****     /***************************************************************************
 617:Generated_Source\PSoC5/CyFlash.c ****     * Enable EEPROM. Re-enabling an EEPROM macro takes 5us. During this time,
 618:Generated_Source\PSoC5/CyFlash.c ****     * the EE will not acknowledge a PHUB request.
 619:Generated_Source\PSoC5/CyFlash.c ****     ***************************************************************************/
 620:Generated_Source\PSoC5/CyFlash.c ****     CY_FLASH_PM_ACT_CFG12_REG    |= CY_FLASH_PM_ACT_CFG12_EN_EE;
 749              		.loc 1 620 0
 750 0020 0A4A     		ldr	r2, .L87+8
 751 0022 1378     		ldrb	r3, [r2]	@ zero_extendqisi2
 752 0024 43F01003 		orr	r3, r3, #16
 753 0028 1370     		strb	r3, [r2]
 621:Generated_Source\PSoC5/CyFlash.c ****     CY_FLASH_PM_ALTACT_CFG12_REG |= CY_FLASH_PM_ALTACT_CFG12_EN_EE;
 754              		.loc 1 621 0
 755 002a 1032     		adds	r2, r2, #16
 756 002c 1378     		ldrb	r3, [r2]	@ zero_extendqisi2
 757 002e 43F01003 		orr	r3, r3, #16
 758 0032 1370     		strb	r3, [r2]
 759              	.L85:
 622:Generated_Source\PSoC5/CyFlash.c **** 
 623:Generated_Source\PSoC5/CyFlash.c ****     while(0u == (CY_FLASH_SPC_FM_EE_CR_REG & CY_FLASH_EE_EE_AWAKE))
 760              		.loc 1 623 0 discriminator 1
 761 0034 064B     		ldr	r3, .L87+12
ARM GAS  C:\Users\santoree\AppData\Local\Temp\ccW4XfpI.s 			page 26


 762 0036 1B78     		ldrb	r3, [r3]	@ zero_extendqisi2
 763 0038 13F0200F 		tst	r3, #32
 764 003c FAD0     		beq	.L85
 624:Generated_Source\PSoC5/CyFlash.c ****     {
 625:Generated_Source\PSoC5/CyFlash.c ****         /* Non-zero status denotes that the EEPROM/Flash is awake & powered. */
 626:Generated_Source\PSoC5/CyFlash.c ****     }
 627:Generated_Source\PSoC5/CyFlash.c **** 
 628:Generated_Source\PSoC5/CyFlash.c ****     CyExitCriticalSection(interruptState);
 765              		.loc 1 628 0
 766 003e FFF7FEFF 		bl	CyExitCriticalSection
 767              	.LVL74:
 768 0042 08BD     		pop	{r3, pc}
 769              	.L88:
 770              		.align	2
 771              	.L87:
 772 0044 A0430040 		.word	1073759136
 773 0048 01470040 		.word	1073760001
 774 004c AC430040 		.word	1073759148
 775 0050 00470040 		.word	1073760000
 776              		.cfi_endproc
 777              	.LFE9:
 778              		.size	CyEEPROM_Start, .-CyEEPROM_Start
 779              		.section	.text.CyEEPROM_Stop,"ax",%progbits
 780              		.align	2
 781              		.global	CyEEPROM_Stop
 782              		.thumb
 783              		.thumb_func
 784              		.type	CyEEPROM_Stop, %function
 785              	CyEEPROM_Stop:
 786              	.LFB10:
 629:Generated_Source\PSoC5/CyFlash.c **** }
 630:Generated_Source\PSoC5/CyFlash.c **** 
 631:Generated_Source\PSoC5/CyFlash.c **** 
 632:Generated_Source\PSoC5/CyFlash.c **** /*******************************************************************************
 633:Generated_Source\PSoC5/CyFlash.c **** * Function Name: CyEEPROM_Stop
 634:Generated_Source\PSoC5/CyFlash.c **** ****************************************************************************//**
 635:Generated_Source\PSoC5/CyFlash.c **** *
 636:Generated_Source\PSoC5/CyFlash.c **** *  Disable the EEPROM.
 637:Generated_Source\PSoC5/CyFlash.c **** *
 638:Generated_Source\PSoC5/CyFlash.c **** *******************************************************************************/
 639:Generated_Source\PSoC5/CyFlash.c **** void CyEEPROM_Stop (void) 
 640:Generated_Source\PSoC5/CyFlash.c **** {
 787              		.loc 1 640 0
 788              		.cfi_startproc
 789              		@ args = 0, pretend = 0, frame = 0
 790              		@ frame_needed = 0, uses_anonymous_args = 0
 791 0000 08B5     		push	{r3, lr}
 792              		.cfi_def_cfa_offset 8
 793              		.cfi_offset 3, -8
 794              		.cfi_offset 14, -4
 641:Generated_Source\PSoC5/CyFlash.c ****     uint8 interruptState;
 642:Generated_Source\PSoC5/CyFlash.c **** 
 643:Generated_Source\PSoC5/CyFlash.c ****     interruptState = CyEnterCriticalSection();
 795              		.loc 1 643 0
 796 0002 FFF7FEFF 		bl	CyEnterCriticalSection
 797              	.LVL75:
 644:Generated_Source\PSoC5/CyFlash.c **** 
ARM GAS  C:\Users\santoree\AppData\Local\Temp\ccW4XfpI.s 			page 27


 645:Generated_Source\PSoC5/CyFlash.c ****     CY_FLASH_PM_ACT_CFG12_REG    &= ((uint8)(~CY_FLASH_PM_ACT_CFG12_EN_EE));
 798              		.loc 1 645 0
 799 0006 064A     		ldr	r2, .L91
 800 0008 1378     		ldrb	r3, [r2]	@ zero_extendqisi2
 801 000a 03F0EF03 		and	r3, r3, #239
 802 000e 1370     		strb	r3, [r2]
 646:Generated_Source\PSoC5/CyFlash.c ****     CY_FLASH_PM_ALTACT_CFG12_REG &= ((uint8)(~CY_FLASH_PM_ALTACT_CFG12_EN_EE));
 803              		.loc 1 646 0
 804 0010 1032     		adds	r2, r2, #16
 805 0012 1378     		ldrb	r3, [r2]	@ zero_extendqisi2
 806 0014 03F0EF03 		and	r3, r3, #239
 807 0018 1370     		strb	r3, [r2]
 647:Generated_Source\PSoC5/CyFlash.c **** 
 648:Generated_Source\PSoC5/CyFlash.c ****     CyExitCriticalSection(interruptState);
 808              		.loc 1 648 0
 809 001a FFF7FEFF 		bl	CyExitCriticalSection
 810              	.LVL76:
 811 001e 08BD     		pop	{r3, pc}
 812              	.L92:
 813              		.align	2
 814              	.L91:
 815 0020 AC430040 		.word	1073759148
 816              		.cfi_endproc
 817              	.LFE10:
 818              		.size	CyEEPROM_Stop, .-CyEEPROM_Stop
 819              		.section	.text.CyEEPROM_ReadReserve,"ax",%progbits
 820              		.align	2
 821              		.global	CyEEPROM_ReadReserve
 822              		.thumb
 823              		.thumb_func
 824              		.type	CyEEPROM_ReadReserve, %function
 825              	CyEEPROM_ReadReserve:
 826              	.LFB11:
 649:Generated_Source\PSoC5/CyFlash.c **** }
 650:Generated_Source\PSoC5/CyFlash.c **** 
 651:Generated_Source\PSoC5/CyFlash.c **** 
 652:Generated_Source\PSoC5/CyFlash.c **** /*******************************************************************************
 653:Generated_Source\PSoC5/CyFlash.c **** * Function Name: CyEEPROM_ReadReserve
 654:Generated_Source\PSoC5/CyFlash.c **** ****************************************************************************//**
 655:Generated_Source\PSoC5/CyFlash.c **** *
 656:Generated_Source\PSoC5/CyFlash.c **** *  Request access to the EEPROM for reading and wait until access is available.
 657:Generated_Source\PSoC5/CyFlash.c **** *
 658:Generated_Source\PSoC5/CyFlash.c **** *******************************************************************************/
 659:Generated_Source\PSoC5/CyFlash.c **** void CyEEPROM_ReadReserve(void) 
 660:Generated_Source\PSoC5/CyFlash.c **** {
 827              		.loc 1 660 0
 828              		.cfi_startproc
 829              		@ args = 0, pretend = 0, frame = 0
 830              		@ frame_needed = 0, uses_anonymous_args = 0
 831              		@ link register save eliminated.
 661:Generated_Source\PSoC5/CyFlash.c ****     /* Make request for PHUB to have access */
 662:Generated_Source\PSoC5/CyFlash.c ****     CY_FLASH_EE_SCR_REG |= CY_FLASH_EE_SCR_AHB_EE_REQ;
 832              		.loc 1 662 0
 833 0000 054A     		ldr	r2, .L95
 834 0002 1378     		ldrb	r3, [r2]	@ zero_extendqisi2
 835 0004 43F00103 		orr	r3, r3, #1
 836 0008 1370     		strb	r3, [r2]
ARM GAS  C:\Users\santoree\AppData\Local\Temp\ccW4XfpI.s 			page 28


 837              	.L94:
 663:Generated_Source\PSoC5/CyFlash.c **** 
 664:Generated_Source\PSoC5/CyFlash.c ****     while (0u == (CY_FLASH_EE_SCR_REG & CY_FLASH_EE_SCR_AHB_EE_ACK))
 838              		.loc 1 664 0 discriminator 1
 839 000a 034B     		ldr	r3, .L95
 840 000c 1B78     		ldrb	r3, [r3]	@ zero_extendqisi2
 841 000e 13F0020F 		tst	r3, #2
 842 0012 FAD0     		beq	.L94
 665:Generated_Source\PSoC5/CyFlash.c ****     {
 666:Generated_Source\PSoC5/CyFlash.c ****         /* Wait for acknowledgment from PHUB */
 667:Generated_Source\PSoC5/CyFlash.c ****     }
 668:Generated_Source\PSoC5/CyFlash.c **** }
 843              		.loc 1 668 0
 844 0014 7047     		bx	lr
 845              	.L96:
 846 0016 00BF     		.align	2
 847              	.L95:
 848 0018 02470040 		.word	1073760002
 849              		.cfi_endproc
 850              	.LFE11:
 851              		.size	CyEEPROM_ReadReserve, .-CyEEPROM_ReadReserve
 852              		.section	.text.CyEEPROM_ReadRelease,"ax",%progbits
 853              		.align	2
 854              		.global	CyEEPROM_ReadRelease
 855              		.thumb
 856              		.thumb_func
 857              		.type	CyEEPROM_ReadRelease, %function
 858              	CyEEPROM_ReadRelease:
 859              	.LFB12:
 669:Generated_Source\PSoC5/CyFlash.c **** 
 670:Generated_Source\PSoC5/CyFlash.c **** 
 671:Generated_Source\PSoC5/CyFlash.c **** /*******************************************************************************
 672:Generated_Source\PSoC5/CyFlash.c **** * Function Name: CyEEPROM_ReadRelease
 673:Generated_Source\PSoC5/CyFlash.c **** ****************************************************************************//**
 674:Generated_Source\PSoC5/CyFlash.c **** *
 675:Generated_Source\PSoC5/CyFlash.c **** *  Release the read reservation of the EEPROM.
 676:Generated_Source\PSoC5/CyFlash.c **** *
 677:Generated_Source\PSoC5/CyFlash.c **** *******************************************************************************/
 678:Generated_Source\PSoC5/CyFlash.c **** void CyEEPROM_ReadRelease(void) 
 679:Generated_Source\PSoC5/CyFlash.c **** {
 860              		.loc 1 679 0
 861              		.cfi_startproc
 862              		@ args = 0, pretend = 0, frame = 0
 863              		@ frame_needed = 0, uses_anonymous_args = 0
 864              		@ link register save eliminated.
 680:Generated_Source\PSoC5/CyFlash.c ****     CY_FLASH_EE_SCR_REG &= (uint8)(~CY_FLASH_EE_SCR_AHB_EE_REQ);
 865              		.loc 1 680 0
 866 0000 024A     		ldr	r2, .L98
 867 0002 1378     		ldrb	r3, [r2]	@ zero_extendqisi2
 868 0004 03F0FE03 		and	r3, r3, #254
 869 0008 1370     		strb	r3, [r2]
 870 000a 7047     		bx	lr
 871              	.L99:
 872              		.align	2
 873              	.L98:
 874 000c 02470040 		.word	1073760002
 875              		.cfi_endproc
ARM GAS  C:\Users\santoree\AppData\Local\Temp\ccW4XfpI.s 			page 29


 876              	.LFE12:
 877              		.size	CyEEPROM_ReadRelease, .-CyEEPROM_ReadRelease
 878              		.comm	dieTemperature,2,4
 879              		.text
 880              	.Letext0:
 881              		.file 2 "Generated_Source\\PSoC5\\cytypes.h"
 882              		.file 3 "Generated_Source\\PSoC5\\CySpc.h"
 883              		.file 4 "Generated_Source\\PSoC5\\CyLib.h"