ARM GAS  C:\Users\HPz420\AppData\Local\Temp\ccy8AjEg.s 			page 1


   1              		.syntax unified
   2              		.cpu cortex-m3
   3              		.fpu softvfp
   4              		.eabi_attribute 20, 1
   5              		.eabi_attribute 21, 1
   6              		.eabi_attribute 23, 3
   7              		.eabi_attribute 24, 1
   8              		.eabi_attribute 25, 1
   9              		.eabi_attribute 26, 1
  10              		.eabi_attribute 30, 6
  11              		.eabi_attribute 34, 1
  12              		.eabi_attribute 18, 4
  13              		.thumb
  14              		.syntax unified
  15              		.file	"CySpc.c"
  16              		.text
  17              	.Ltext0:
  18              		.cfi_sections	.debug_frame
  19              		.global	SpcLockState
  20              		.bss
  21              		.type	SpcLockState, %object
  22              		.size	SpcLockState, 1
  23              	SpcLockState:
  24 0000 00       		.space	1
  25 0001 000000   		.align	2
  26              	spcWaitPipeBypass:
  27 0004 00000000 		.space	4
  28              		.section	.text.CySpcStart,"ax",%progbits
  29              		.align	2
  30              		.global	CySpcStart
  31              		.thumb
  32              		.thumb_func
  33              		.type	CySpcStart, %function
  34              	CySpcStart:
  35              	.LFB0:
  36              		.file 1 "Generated_Source\\PSoC5\\CySpc.c"
   1:Generated_Source\PSoC5/CySpc.c **** /*******************************************************************************
   2:Generated_Source\PSoC5/CySpc.c **** * File Name: CySpc.c
   3:Generated_Source\PSoC5/CySpc.c **** * Version 4.20
   4:Generated_Source\PSoC5/CySpc.c **** *
   5:Generated_Source\PSoC5/CySpc.c **** *  Description:
   6:Generated_Source\PSoC5/CySpc.c **** *   Provides an API for the System Performance Component.
   7:Generated_Source\PSoC5/CySpc.c **** *   The SPC functions are not meant to be called directly by the user
   8:Generated_Source\PSoC5/CySpc.c **** *   application.
   9:Generated_Source\PSoC5/CySpc.c **** *
  10:Generated_Source\PSoC5/CySpc.c **** ********************************************************************************
  11:Generated_Source\PSoC5/CySpc.c **** * Copyright 2008-2014, Cypress Semiconductor Corporation.  All rights reserved.
  12:Generated_Source\PSoC5/CySpc.c **** * You may use this file only in accordance with the license, terms, conditions,
  13:Generated_Source\PSoC5/CySpc.c **** * disclaimers, and limitations in the end user license agreement accompanying
  14:Generated_Source\PSoC5/CySpc.c **** * the software package with which this file was provided.
  15:Generated_Source\PSoC5/CySpc.c **** *******************************************************************************/
  16:Generated_Source\PSoC5/CySpc.c **** 
  17:Generated_Source\PSoC5/CySpc.c **** #include "CySpc.h"
  18:Generated_Source\PSoC5/CySpc.c **** 
  19:Generated_Source\PSoC5/CySpc.c **** #define CY_SPC_KEY_ONE                      (0xB6u)
  20:Generated_Source\PSoC5/CySpc.c **** #define CY_SPC_KEY_TWO(x)                   ((uint8) (((uint16) 0xD3u) + ((uint16) (x))))
  21:Generated_Source\PSoC5/CySpc.c **** 
ARM GAS  C:\Users\HPz420\AppData\Local\Temp\ccy8AjEg.s 			page 2


  22:Generated_Source\PSoC5/CySpc.c **** /* Command Codes */
  23:Generated_Source\PSoC5/CySpc.c **** #define CY_SPC_CMD_LD_BYTE                  (0x00u)
  24:Generated_Source\PSoC5/CySpc.c **** #define CY_SPC_CMD_LD_MULTI_BYTE            (0x01u)
  25:Generated_Source\PSoC5/CySpc.c **** #define CY_SPC_CMD_LD_ROW                   (0x02u)
  26:Generated_Source\PSoC5/CySpc.c **** #define CY_SPC_CMD_RD_BYTE                  (0x03u)
  27:Generated_Source\PSoC5/CySpc.c **** #define CY_SPC_CMD_RD_MULTI_BYTE            (0x04u)
  28:Generated_Source\PSoC5/CySpc.c **** #define CY_SPC_CMD_WR_ROW                   (0x05u)
  29:Generated_Source\PSoC5/CySpc.c **** #define CY_SPC_CMD_WR_USER_NVL              (0x06u)
  30:Generated_Source\PSoC5/CySpc.c **** #define CY_SPC_CMD_PRG_ROW                  (0x07u)
  31:Generated_Source\PSoC5/CySpc.c **** #define CY_SPC_CMD_ER_SECTOR                (0x08u)
  32:Generated_Source\PSoC5/CySpc.c **** #define CY_SPC_CMD_ER_ALL                   (0x09u)
  33:Generated_Source\PSoC5/CySpc.c **** #define CY_SPC_CMD_RD_HIDDEN                (0x0Au)
  34:Generated_Source\PSoC5/CySpc.c **** #define CY_SPC_CMD_PRG_PROTECT              (0x0Bu)
  35:Generated_Source\PSoC5/CySpc.c **** #define CY_SPC_CMD_CHECKSUM                 (0x0Cu)
  36:Generated_Source\PSoC5/CySpc.c **** #define CY_SPC_CMD_DWNLD_ALGORITHM          (0x0Du)
  37:Generated_Source\PSoC5/CySpc.c **** #define CY_SPC_CMD_GET_TEMP                 (0x0Eu)
  38:Generated_Source\PSoC5/CySpc.c **** #define CY_SPC_CMD_GET_ADC                  (0x0Fu)
  39:Generated_Source\PSoC5/CySpc.c **** #define CY_SPC_CMD_RD_NVL_VOLATILE          (0x10u)
  40:Generated_Source\PSoC5/CySpc.c **** #define CY_SPC_CMD_SETUP_TS                 (0x11u)
  41:Generated_Source\PSoC5/CySpc.c **** #define CY_SPC_CMD_DISABLE_TS               (0x12u)
  42:Generated_Source\PSoC5/CySpc.c **** #define CY_SPC_CMD_ER_ROW                   (0x13u)
  43:Generated_Source\PSoC5/CySpc.c **** 
  44:Generated_Source\PSoC5/CySpc.c **** /* Enable bit in Active and Alternate Active mode templates */
  45:Generated_Source\PSoC5/CySpc.c **** #define PM_SPC_PM_EN                        (0x08u)
  46:Generated_Source\PSoC5/CySpc.c **** 
  47:Generated_Source\PSoC5/CySpc.c **** /* Gate calls to the SPC. */
  48:Generated_Source\PSoC5/CySpc.c **** uint8 SpcLockState = CY_SPC_UNLOCKED;
  49:Generated_Source\PSoC5/CySpc.c **** 
  50:Generated_Source\PSoC5/CySpc.c **** 
  51:Generated_Source\PSoC5/CySpc.c **** #if(CY_PSOC5)
  52:Generated_Source\PSoC5/CySpc.c **** 
  53:Generated_Source\PSoC5/CySpc.c ****     /***************************************************************************
  54:Generated_Source\PSoC5/CySpc.c ****     * The wait-state pipeline must be enabled prior to accessing the SPC
  55:Generated_Source\PSoC5/CySpc.c ****     * register interface regardless of CPU frequency. The CySpcLock() saves
  56:Generated_Source\PSoC5/CySpc.c ****     * current wait-state pipeline state and enables it. The CySpcUnlock()
  57:Generated_Source\PSoC5/CySpc.c ****     * function, which must be called after SPC transaction, restores original
  58:Generated_Source\PSoC5/CySpc.c ****     * state.
  59:Generated_Source\PSoC5/CySpc.c ****     ***************************************************************************/
  60:Generated_Source\PSoC5/CySpc.c ****     static uint32 spcWaitPipeBypass = 0u;
  61:Generated_Source\PSoC5/CySpc.c **** 
  62:Generated_Source\PSoC5/CySpc.c **** #endif  /* (CY_PSOC5) */
  63:Generated_Source\PSoC5/CySpc.c **** 
  64:Generated_Source\PSoC5/CySpc.c **** 
  65:Generated_Source\PSoC5/CySpc.c **** /*******************************************************************************
  66:Generated_Source\PSoC5/CySpc.c **** * Function Name: CySpcStart
  67:Generated_Source\PSoC5/CySpc.c **** ********************************************************************************
  68:Generated_Source\PSoC5/CySpc.c **** * Summary:
  69:Generated_Source\PSoC5/CySpc.c **** *  Starts the SPC.
  70:Generated_Source\PSoC5/CySpc.c **** *
  71:Generated_Source\PSoC5/CySpc.c **** * Parameters:
  72:Generated_Source\PSoC5/CySpc.c **** *  None
  73:Generated_Source\PSoC5/CySpc.c **** *
  74:Generated_Source\PSoC5/CySpc.c **** * Return:
  75:Generated_Source\PSoC5/CySpc.c **** *  None
  76:Generated_Source\PSoC5/CySpc.c **** *
  77:Generated_Source\PSoC5/CySpc.c **** *******************************************************************************/
  78:Generated_Source\PSoC5/CySpc.c **** void CySpcStart(void) 
ARM GAS  C:\Users\HPz420\AppData\Local\Temp\ccy8AjEg.s 			page 3


  79:Generated_Source\PSoC5/CySpc.c **** {
  37              		.loc 1 79 0
  38              		.cfi_startproc
  39              		@ args = 0, pretend = 0, frame = 8
  40              		@ frame_needed = 1, uses_anonymous_args = 0
  41 0000 80B5     		push	{r7, lr}
  42              		.cfi_def_cfa_offset 8
  43              		.cfi_offset 7, -8
  44              		.cfi_offset 14, -4
  45 0002 82B0     		sub	sp, sp, #8
  46              		.cfi_def_cfa_offset 16
  47 0004 00AF     		add	r7, sp, #0
  48              		.cfi_def_cfa_register 7
  80:Generated_Source\PSoC5/CySpc.c ****     /* Save current global interrupt enable and disable it */
  81:Generated_Source\PSoC5/CySpc.c ****     uint8 interruptState = CyEnterCriticalSection();
  49              		.loc 1 81 0
  50 0006 FFF7FEFF 		bl	CyEnterCriticalSection
  51 000a 0346     		mov	r3, r0
  52 000c FB71     		strb	r3, [r7, #7]
  82:Generated_Source\PSoC5/CySpc.c **** 
  83:Generated_Source\PSoC5/CySpc.c ****     CY_SPC_PM_ACT_REG  |= PM_SPC_PM_EN;
  53              		.loc 1 83 0
  54 000e 0C4A     		ldr	r2, .L2
  55 0010 0B4B     		ldr	r3, .L2
  56 0012 1B78     		ldrb	r3, [r3]
  57 0014 DBB2     		uxtb	r3, r3
  58 0016 43F00803 		orr	r3, r3, #8
  59 001a DBB2     		uxtb	r3, r3
  60 001c 1370     		strb	r3, [r2]
  84:Generated_Source\PSoC5/CySpc.c ****     CY_SPC_PM_STBY_REG |= PM_SPC_PM_EN;
  61              		.loc 1 84 0
  62 001e 094A     		ldr	r2, .L2+4
  63 0020 084B     		ldr	r3, .L2+4
  64 0022 1B78     		ldrb	r3, [r3]
  65 0024 DBB2     		uxtb	r3, r3
  66 0026 43F00803 		orr	r3, r3, #8
  67 002a DBB2     		uxtb	r3, r3
  68 002c 1370     		strb	r3, [r2]
  85:Generated_Source\PSoC5/CySpc.c **** 
  86:Generated_Source\PSoC5/CySpc.c ****     /* Restore global interrupt enable state */
  87:Generated_Source\PSoC5/CySpc.c ****     CyExitCriticalSection(interruptState);
  69              		.loc 1 87 0
  70 002e FB79     		ldrb	r3, [r7, #7]	@ zero_extendqisi2
  71 0030 1846     		mov	r0, r3
  72 0032 FFF7FEFF 		bl	CyExitCriticalSection
  88:Generated_Source\PSoC5/CySpc.c **** }
  73              		.loc 1 88 0
  74 0036 00BF     		nop
  75 0038 0837     		adds	r7, r7, #8
  76              		.cfi_def_cfa_offset 8
  77 003a BD46     		mov	sp, r7
  78              		.cfi_def_cfa_register 13
  79              		@ sp needed
  80 003c 80BD     		pop	{r7, pc}
  81              	.L3:
  82 003e 00BF     		.align	2
  83              	.L2:
ARM GAS  C:\Users\HPz420\AppData\Local\Temp\ccy8AjEg.s 			page 4


  84 0040 A0430040 		.word	1073759136
  85 0044 B0430040 		.word	1073759152
  86              		.cfi_endproc
  87              	.LFE0:
  88              		.size	CySpcStart, .-CySpcStart
  89              		.section	.text.CySpcStop,"ax",%progbits
  90              		.align	2
  91              		.global	CySpcStop
  92              		.thumb
  93              		.thumb_func
  94              		.type	CySpcStop, %function
  95              	CySpcStop:
  96              	.LFB1:
  89:Generated_Source\PSoC5/CySpc.c **** 
  90:Generated_Source\PSoC5/CySpc.c **** 
  91:Generated_Source\PSoC5/CySpc.c **** /*******************************************************************************
  92:Generated_Source\PSoC5/CySpc.c **** * Function Name: CySpcStop
  93:Generated_Source\PSoC5/CySpc.c **** ********************************************************************************
  94:Generated_Source\PSoC5/CySpc.c **** * Summary:
  95:Generated_Source\PSoC5/CySpc.c **** *  Stops the SPC.
  96:Generated_Source\PSoC5/CySpc.c **** *
  97:Generated_Source\PSoC5/CySpc.c **** * Parameters:
  98:Generated_Source\PSoC5/CySpc.c **** *  None
  99:Generated_Source\PSoC5/CySpc.c **** *
 100:Generated_Source\PSoC5/CySpc.c **** * Return:
 101:Generated_Source\PSoC5/CySpc.c **** *  None
 102:Generated_Source\PSoC5/CySpc.c **** *
 103:Generated_Source\PSoC5/CySpc.c **** *******************************************************************************/
 104:Generated_Source\PSoC5/CySpc.c **** void CySpcStop(void) 
 105:Generated_Source\PSoC5/CySpc.c **** {
  97              		.loc 1 105 0
  98              		.cfi_startproc
  99              		@ args = 0, pretend = 0, frame = 8
 100              		@ frame_needed = 1, uses_anonymous_args = 0
 101 0000 80B5     		push	{r7, lr}
 102              		.cfi_def_cfa_offset 8
 103              		.cfi_offset 7, -8
 104              		.cfi_offset 14, -4
 105 0002 82B0     		sub	sp, sp, #8
 106              		.cfi_def_cfa_offset 16
 107 0004 00AF     		add	r7, sp, #0
 108              		.cfi_def_cfa_register 7
 106:Generated_Source\PSoC5/CySpc.c ****     /* Save current global interrupt enable and disable it */
 107:Generated_Source\PSoC5/CySpc.c ****     uint8 interruptState = CyEnterCriticalSection();
 109              		.loc 1 107 0
 110 0006 FFF7FEFF 		bl	CyEnterCriticalSection
 111 000a 0346     		mov	r3, r0
 112 000c FB71     		strb	r3, [r7, #7]
 108:Generated_Source\PSoC5/CySpc.c **** 
 109:Generated_Source\PSoC5/CySpc.c ****     CY_SPC_PM_ACT_REG  &= ((uint8)(~PM_SPC_PM_EN));
 113              		.loc 1 109 0
 114 000e 0C4A     		ldr	r2, .L5
 115 0010 0B4B     		ldr	r3, .L5
 116 0012 1B78     		ldrb	r3, [r3]
 117 0014 DBB2     		uxtb	r3, r3
 118 0016 23F00803 		bic	r3, r3, #8
 119 001a DBB2     		uxtb	r3, r3
ARM GAS  C:\Users\HPz420\AppData\Local\Temp\ccy8AjEg.s 			page 5


 120 001c 1370     		strb	r3, [r2]
 110:Generated_Source\PSoC5/CySpc.c ****     CY_SPC_PM_STBY_REG &= ((uint8)(~PM_SPC_PM_EN));
 121              		.loc 1 110 0
 122 001e 094A     		ldr	r2, .L5+4
 123 0020 084B     		ldr	r3, .L5+4
 124 0022 1B78     		ldrb	r3, [r3]
 125 0024 DBB2     		uxtb	r3, r3
 126 0026 23F00803 		bic	r3, r3, #8
 127 002a DBB2     		uxtb	r3, r3
 128 002c 1370     		strb	r3, [r2]
 111:Generated_Source\PSoC5/CySpc.c **** 
 112:Generated_Source\PSoC5/CySpc.c ****     /* Restore global interrupt enable state */
 113:Generated_Source\PSoC5/CySpc.c ****     CyExitCriticalSection(interruptState);
 129              		.loc 1 113 0
 130 002e FB79     		ldrb	r3, [r7, #7]	@ zero_extendqisi2
 131 0030 1846     		mov	r0, r3
 132 0032 FFF7FEFF 		bl	CyExitCriticalSection
 114:Generated_Source\PSoC5/CySpc.c **** }
 133              		.loc 1 114 0
 134 0036 00BF     		nop
 135 0038 0837     		adds	r7, r7, #8
 136              		.cfi_def_cfa_offset 8
 137 003a BD46     		mov	sp, r7
 138              		.cfi_def_cfa_register 13
 139              		@ sp needed
 140 003c 80BD     		pop	{r7, pc}
 141              	.L6:
 142 003e 00BF     		.align	2
 143              	.L5:
 144 0040 A0430040 		.word	1073759136
 145 0044 B0430040 		.word	1073759152
 146              		.cfi_endproc
 147              	.LFE1:
 148              		.size	CySpcStop, .-CySpcStop
 149              		.section	.text.CySpcReadData,"ax",%progbits
 150              		.align	2
 151              		.global	CySpcReadData
 152              		.thumb
 153              		.thumb_func
 154              		.type	CySpcReadData, %function
 155              	CySpcReadData:
 156              	.LFB2:
 115:Generated_Source\PSoC5/CySpc.c **** 
 116:Generated_Source\PSoC5/CySpc.c **** 
 117:Generated_Source\PSoC5/CySpc.c **** /*******************************************************************************
 118:Generated_Source\PSoC5/CySpc.c **** * Function Name: CySpcReadData
 119:Generated_Source\PSoC5/CySpc.c **** ********************************************************************************
 120:Generated_Source\PSoC5/CySpc.c **** * Summary:
 121:Generated_Source\PSoC5/CySpc.c **** *  Reads data from the SPC.
 122:Generated_Source\PSoC5/CySpc.c **** *
 123:Generated_Source\PSoC5/CySpc.c **** * Parameters:
 124:Generated_Source\PSoC5/CySpc.c **** *  uint8 buffer:
 125:Generated_Source\PSoC5/CySpc.c **** *   Address to store data read.
 126:Generated_Source\PSoC5/CySpc.c **** *
 127:Generated_Source\PSoC5/CySpc.c **** *  uint8 size:
 128:Generated_Source\PSoC5/CySpc.c **** *   Number of bytes to read from the SPC.
 129:Generated_Source\PSoC5/CySpc.c **** *
ARM GAS  C:\Users\HPz420\AppData\Local\Temp\ccy8AjEg.s 			page 6


 130:Generated_Source\PSoC5/CySpc.c **** * Return:
 131:Generated_Source\PSoC5/CySpc.c **** *  uint8:
 132:Generated_Source\PSoC5/CySpc.c **** *   The number of bytes read from the SPC.
 133:Generated_Source\PSoC5/CySpc.c **** *
 134:Generated_Source\PSoC5/CySpc.c **** *******************************************************************************/
 135:Generated_Source\PSoC5/CySpc.c **** uint8 CySpcReadData(uint8 buffer[], uint8 size) 
 136:Generated_Source\PSoC5/CySpc.c **** {
 157              		.loc 1 136 0
 158              		.cfi_startproc
 159              		@ args = 0, pretend = 0, frame = 16
 160              		@ frame_needed = 1, uses_anonymous_args = 0
 161 0000 80B5     		push	{r7, lr}
 162              		.cfi_def_cfa_offset 8
 163              		.cfi_offset 7, -8
 164              		.cfi_offset 14, -4
 165 0002 84B0     		sub	sp, sp, #16
 166              		.cfi_def_cfa_offset 24
 167 0004 00AF     		add	r7, sp, #0
 168              		.cfi_def_cfa_register 7
 169 0006 7860     		str	r0, [r7, #4]
 170 0008 0B46     		mov	r3, r1
 171 000a FB70     		strb	r3, [r7, #3]
 137:Generated_Source\PSoC5/CySpc.c ****     uint8 i;
 138:Generated_Source\PSoC5/CySpc.c **** 
 139:Generated_Source\PSoC5/CySpc.c ****     for(i = 0u; i < size; i++)
 172              		.loc 1 139 0
 173 000c 0023     		movs	r3, #0
 174 000e FB73     		strb	r3, [r7, #15]
 175 0010 13E0     		b	.L8
 176              	.L10:
 140:Generated_Source\PSoC5/CySpc.c ****     {
 141:Generated_Source\PSoC5/CySpc.c ****         while(!CY_SPC_DATA_READY)
 142:Generated_Source\PSoC5/CySpc.c ****         {
 143:Generated_Source\PSoC5/CySpc.c ****             CyDelayUs(1u);
 177              		.loc 1 143 0
 178 0012 0120     		movs	r0, #1
 179 0014 FFF7FEFF 		bl	CyDelayUs
 180              	.L9:
 141:Generated_Source\PSoC5/CySpc.c ****         {
 181              		.loc 1 141 0
 182 0018 0C4B     		ldr	r3, .L13
 183 001a 1B78     		ldrb	r3, [r3]
 184 001c DBB2     		uxtb	r3, r3
 185 001e 03F00103 		and	r3, r3, #1
 186 0022 002B     		cmp	r3, #0
 187 0024 F5D0     		beq	.L10
 144:Generated_Source\PSoC5/CySpc.c ****         }
 145:Generated_Source\PSoC5/CySpc.c ****         buffer[i] = CY_SPC_CPU_DATA_REG;
 188              		.loc 1 145 0 discriminator 2
 189 0026 FB7B     		ldrb	r3, [r7, #15]	@ zero_extendqisi2
 190 0028 7A68     		ldr	r2, [r7, #4]
 191 002a 1344     		add	r3, r3, r2
 192 002c 084A     		ldr	r2, .L13+4
 193 002e 1278     		ldrb	r2, [r2]
 194 0030 D2B2     		uxtb	r2, r2
 195 0032 1A70     		strb	r2, [r3]
 139:Generated_Source\PSoC5/CySpc.c ****     {
ARM GAS  C:\Users\HPz420\AppData\Local\Temp\ccy8AjEg.s 			page 7


 196              		.loc 1 139 0 discriminator 2
 197 0034 FB7B     		ldrb	r3, [r7, #15]	@ zero_extendqisi2
 198 0036 0133     		adds	r3, r3, #1
 199 0038 FB73     		strb	r3, [r7, #15]
 200              	.L8:
 139:Generated_Source\PSoC5/CySpc.c ****     {
 201              		.loc 1 139 0 is_stmt 0 discriminator 1
 202 003a FA7B     		ldrb	r2, [r7, #15]	@ zero_extendqisi2
 203 003c FB78     		ldrb	r3, [r7, #3]	@ zero_extendqisi2
 204 003e 9A42     		cmp	r2, r3
 205 0040 EAD3     		bcc	.L9
 146:Generated_Source\PSoC5/CySpc.c ****     }
 147:Generated_Source\PSoC5/CySpc.c **** 
 148:Generated_Source\PSoC5/CySpc.c ****     return(i);
 206              		.loc 1 148 0 is_stmt 1
 207 0042 FB7B     		ldrb	r3, [r7, #15]	@ zero_extendqisi2
 149:Generated_Source\PSoC5/CySpc.c **** }
 208              		.loc 1 149 0
 209 0044 1846     		mov	r0, r3
 210 0046 1037     		adds	r7, r7, #16
 211              		.cfi_def_cfa_offset 8
 212 0048 BD46     		mov	sp, r7
 213              		.cfi_def_cfa_register 13
 214              		@ sp needed
 215 004a 80BD     		pop	{r7, pc}
 216              	.L14:
 217              		.align	2
 218              	.L13:
 219 004c 22470040 		.word	1073760034
 220 0050 20470040 		.word	1073760032
 221              		.cfi_endproc
 222              	.LFE2:
 223              		.size	CySpcReadData, .-CySpcReadData
 224              		.section	.text.CySpcLoadMultiByte,"ax",%progbits
 225              		.align	2
 226              		.global	CySpcLoadMultiByte
 227              		.thumb
 228              		.thumb_func
 229              		.type	CySpcLoadMultiByte, %function
 230              	CySpcLoadMultiByte:
 231              	.LFB3:
 150:Generated_Source\PSoC5/CySpc.c **** 
 151:Generated_Source\PSoC5/CySpc.c **** 
 152:Generated_Source\PSoC5/CySpc.c **** /*******************************************************************************
 153:Generated_Source\PSoC5/CySpc.c **** * Function Name: CySpcLoadMultiByte
 154:Generated_Source\PSoC5/CySpc.c **** ********************************************************************************
 155:Generated_Source\PSoC5/CySpc.c **** * Summary:
 156:Generated_Source\PSoC5/CySpc.c **** *  Loads 1 to 32 bytes of data into the row latch of a Flash/EEPROM array.
 157:Generated_Source\PSoC5/CySpc.c **** *
 158:Generated_Source\PSoC5/CySpc.c **** * Parameters:
 159:Generated_Source\PSoC5/CySpc.c **** *  uint8 array:
 160:Generated_Source\PSoC5/CySpc.c **** *   Id of the array.
 161:Generated_Source\PSoC5/CySpc.c **** *
 162:Generated_Source\PSoC5/CySpc.c **** *  uint16 address:
 163:Generated_Source\PSoC5/CySpc.c **** *   Flash/eeprom addrress
 164:Generated_Source\PSoC5/CySpc.c **** *
 165:Generated_Source\PSoC5/CySpc.c **** *  uint8* buffer:
ARM GAS  C:\Users\HPz420\AppData\Local\Temp\ccy8AjEg.s 			page 8


 166:Generated_Source\PSoC5/CySpc.c **** *   Data to load to the row latch
 167:Generated_Source\PSoC5/CySpc.c **** *
 168:Generated_Source\PSoC5/CySpc.c **** *  uint16 number:
 169:Generated_Source\PSoC5/CySpc.c **** *   Number bytes to load.
 170:Generated_Source\PSoC5/CySpc.c **** *
 171:Generated_Source\PSoC5/CySpc.c **** * Return:
 172:Generated_Source\PSoC5/CySpc.c **** *  CYRET_STARTED
 173:Generated_Source\PSoC5/CySpc.c **** *  CYRET_CANCELED
 174:Generated_Source\PSoC5/CySpc.c **** *  CYRET_LOCKED
 175:Generated_Source\PSoC5/CySpc.c **** *  CYRET_BAD_PARAM
 176:Generated_Source\PSoC5/CySpc.c **** *
 177:Generated_Source\PSoC5/CySpc.c **** *******************************************************************************/
 178:Generated_Source\PSoC5/CySpc.c **** cystatus CySpcLoadMultiByte(uint8 array, uint16 address, const uint8 buffer[], uint8 size)\
 179:Generated_Source\PSoC5/CySpc.c **** 
 180:Generated_Source\PSoC5/CySpc.c **** {
 232              		.loc 1 180 0
 233              		.cfi_startproc
 234              		@ args = 0, pretend = 0, frame = 16
 235              		@ frame_needed = 1, uses_anonymous_args = 0
 236              		@ link register save eliminated.
 237 0000 80B4     		push	{r7}
 238              		.cfi_def_cfa_offset 4
 239              		.cfi_offset 7, -4
 240 0002 85B0     		sub	sp, sp, #20
 241              		.cfi_def_cfa_offset 24
 242 0004 00AF     		add	r7, sp, #0
 243              		.cfi_def_cfa_register 7
 244 0006 3A60     		str	r2, [r7]
 245 0008 1A46     		mov	r2, r3
 246 000a 0346     		mov	r3, r0
 247 000c FB71     		strb	r3, [r7, #7]
 248 000e 0B46     		mov	r3, r1	@ movhi
 249 0010 BB80     		strh	r3, [r7, #4]	@ movhi
 250 0012 1346     		mov	r3, r2
 251 0014 BB71     		strb	r3, [r7, #6]
 181:Generated_Source\PSoC5/CySpc.c ****     cystatus status = CYRET_STARTED;
 252              		.loc 1 181 0
 253 0016 0723     		movs	r3, #7
 254 0018 FB60     		str	r3, [r7, #12]
 182:Generated_Source\PSoC5/CySpc.c ****     uint8 i;
 183:Generated_Source\PSoC5/CySpc.c **** 
 184:Generated_Source\PSoC5/CySpc.c ****     /***************************************************************************
 185:Generated_Source\PSoC5/CySpc.c ****     * Check if number is correct for array. Number must be less than
 186:Generated_Source\PSoC5/CySpc.c ****     * 32 for Flash or less than 16 for EEPROM.
 187:Generated_Source\PSoC5/CySpc.c ****     ***************************************************************************/
 188:Generated_Source\PSoC5/CySpc.c ****     if(((array < CY_SPC_LAST_FLASH_ARRAYID) && (size < 32u)) ||
 255              		.loc 1 188 0
 256 001a FB79     		ldrb	r3, [r7, #7]	@ zero_extendqisi2
 257 001c 3E2B     		cmp	r3, #62
 258 001e 02D8     		bhi	.L16
 259              		.loc 1 188 0 is_stmt 0 discriminator 1
 260 0020 BB79     		ldrb	r3, [r7, #6]	@ zero_extendqisi2
 261 0022 1F2B     		cmp	r3, #31
 262 0024 05D9     		bls	.L17
 263              	.L16:
 264              		.loc 1 188 0 discriminator 3
 265 0026 FB79     		ldrb	r3, [r7, #7]	@ zero_extendqisi2
ARM GAS  C:\Users\HPz420\AppData\Local\Temp\ccy8AjEg.s 			page 9


 266 0028 3F2B     		cmp	r3, #63
 267 002a 45D9     		bls	.L18
 189:Generated_Source\PSoC5/CySpc.c ****        ((array > CY_SPC_LAST_FLASH_ARRAYID) && (size < 16u)))
 268              		.loc 1 189 0 is_stmt 1
 269 002c BB79     		ldrb	r3, [r7, #6]	@ zero_extendqisi2
 270 002e 0F2B     		cmp	r3, #15
 271 0030 42D8     		bhi	.L18
 272              	.L17:
 190:Generated_Source\PSoC5/CySpc.c ****     {
 191:Generated_Source\PSoC5/CySpc.c ****         if(CY_SPC_IDLE)
 273              		.loc 1 191 0
 274 0032 254B     		ldr	r3, .L27
 275 0034 1B78     		ldrb	r3, [r3]
 276 0036 DBB2     		uxtb	r3, r3
 277 0038 03F00203 		and	r3, r3, #2
 278 003c 002B     		cmp	r3, #0
 279 003e 38D0     		beq	.L19
 192:Generated_Source\PSoC5/CySpc.c ****         {
 193:Generated_Source\PSoC5/CySpc.c ****             CY_SPC_CPU_DATA_REG = CY_SPC_KEY_ONE;
 280              		.loc 1 193 0
 281 0040 224B     		ldr	r3, .L27+4
 282 0042 B622     		movs	r2, #182
 283 0044 1A70     		strb	r2, [r3]
 194:Generated_Source\PSoC5/CySpc.c ****             CY_SPC_CPU_DATA_REG = CY_SPC_KEY_TWO(CY_SPC_CMD_LD_MULTI_BYTE);
 284              		.loc 1 194 0
 285 0046 214B     		ldr	r3, .L27+4
 286 0048 D422     		movs	r2, #212
 287 004a 1A70     		strb	r2, [r3]
 195:Generated_Source\PSoC5/CySpc.c ****             CY_SPC_CPU_DATA_REG = CY_SPC_CMD_LD_MULTI_BYTE;
 288              		.loc 1 195 0
 289 004c 1F4B     		ldr	r3, .L27+4
 290 004e 0122     		movs	r2, #1
 291 0050 1A70     		strb	r2, [r3]
 196:Generated_Source\PSoC5/CySpc.c **** 
 197:Generated_Source\PSoC5/CySpc.c ****             if(CY_SPC_BUSY)
 292              		.loc 1 197 0
 293 0052 1D4B     		ldr	r3, .L27
 294 0054 1B78     		ldrb	r3, [r3]
 295 0056 DBB2     		uxtb	r3, r3
 296 0058 03F00203 		and	r3, r3, #2
 297 005c 002B     		cmp	r3, #0
 298 005e 25D1     		bne	.L20
 198:Generated_Source\PSoC5/CySpc.c ****             {
 199:Generated_Source\PSoC5/CySpc.c ****                 CY_SPC_CPU_DATA_REG = array;
 299              		.loc 1 199 0
 300 0060 1A4A     		ldr	r2, .L27+4
 301 0062 FB79     		ldrb	r3, [r7, #7]
 302 0064 1370     		strb	r3, [r2]
 200:Generated_Source\PSoC5/CySpc.c ****                 CY_SPC_CPU_DATA_REG = 1u & HI8(address);
 303              		.loc 1 200 0
 304 0066 194A     		ldr	r2, .L27+4
 305 0068 BB88     		ldrh	r3, [r7, #4]
 306 006a 1B0A     		lsrs	r3, r3, #8
 307 006c 9BB2     		uxth	r3, r3
 308 006e DBB2     		uxtb	r3, r3
 309 0070 03F00103 		and	r3, r3, #1
 310 0074 DBB2     		uxtb	r3, r3
ARM GAS  C:\Users\HPz420\AppData\Local\Temp\ccy8AjEg.s 			page 10


 311 0076 1370     		strb	r3, [r2]
 201:Generated_Source\PSoC5/CySpc.c ****                 CY_SPC_CPU_DATA_REG = LO8(address);
 312              		.loc 1 201 0
 313 0078 144B     		ldr	r3, .L27+4
 314 007a BA88     		ldrh	r2, [r7, #4]	@ movhi
 315 007c D2B2     		uxtb	r2, r2
 316 007e 1A70     		strb	r2, [r3]
 202:Generated_Source\PSoC5/CySpc.c ****                 CY_SPC_CPU_DATA_REG = ((uint8)(size - 1u));
 317              		.loc 1 202 0
 318 0080 124A     		ldr	r2, .L27+4
 319 0082 BB79     		ldrb	r3, [r7, #6]
 320 0084 013B     		subs	r3, r3, #1
 321 0086 DBB2     		uxtb	r3, r3
 322 0088 1370     		strb	r3, [r2]
 203:Generated_Source\PSoC5/CySpc.c **** 
 204:Generated_Source\PSoC5/CySpc.c ****                 for(i = 0u; i < size; i++)
 323              		.loc 1 204 0
 324 008a 0023     		movs	r3, #0
 325 008c FB72     		strb	r3, [r7, #11]
 326 008e 08E0     		b	.L21
 327              	.L22:
 205:Generated_Source\PSoC5/CySpc.c ****                 {
 206:Generated_Source\PSoC5/CySpc.c ****                     CY_SPC_CPU_DATA_REG = buffer[i];
 328              		.loc 1 206 0 discriminator 3
 329 0090 0E49     		ldr	r1, .L27+4
 330 0092 FB7A     		ldrb	r3, [r7, #11]	@ zero_extendqisi2
 331 0094 3A68     		ldr	r2, [r7]
 332 0096 1344     		add	r3, r3, r2
 333 0098 1B78     		ldrb	r3, [r3]	@ zero_extendqisi2
 334 009a 0B70     		strb	r3, [r1]
 204:Generated_Source\PSoC5/CySpc.c ****                 {
 335              		.loc 1 204 0 discriminator 3
 336 009c FB7A     		ldrb	r3, [r7, #11]	@ zero_extendqisi2
 337 009e 0133     		adds	r3, r3, #1
 338 00a0 FB72     		strb	r3, [r7, #11]
 339              	.L21:
 204:Generated_Source\PSoC5/CySpc.c ****                 {
 340              		.loc 1 204 0 is_stmt 0 discriminator 1
 341 00a2 FA7A     		ldrb	r2, [r7, #11]	@ zero_extendqisi2
 342 00a4 BB79     		ldrb	r3, [r7, #6]	@ zero_extendqisi2
 343 00a6 9A42     		cmp	r2, r3
 344 00a8 F2D3     		bcc	.L22
 191:Generated_Source\PSoC5/CySpc.c ****         {
 345              		.loc 1 191 0 is_stmt 1
 346 00aa 07E0     		b	.L25
 347              	.L20:
 207:Generated_Source\PSoC5/CySpc.c ****                 }
 208:Generated_Source\PSoC5/CySpc.c ****             }
 209:Generated_Source\PSoC5/CySpc.c ****             else
 210:Generated_Source\PSoC5/CySpc.c ****             {
 211:Generated_Source\PSoC5/CySpc.c ****                 status = CYRET_CANCELED;
 348              		.loc 1 211 0
 349 00ac 0923     		movs	r3, #9
 350 00ae FB60     		str	r3, [r7, #12]
 191:Generated_Source\PSoC5/CySpc.c ****         {
 351              		.loc 1 191 0
 352 00b0 04E0     		b	.L25
ARM GAS  C:\Users\HPz420\AppData\Local\Temp\ccy8AjEg.s 			page 11


 353              	.L19:
 212:Generated_Source\PSoC5/CySpc.c ****             }
 213:Generated_Source\PSoC5/CySpc.c ****         }
 214:Generated_Source\PSoC5/CySpc.c ****         else
 215:Generated_Source\PSoC5/CySpc.c ****         {
 216:Generated_Source\PSoC5/CySpc.c ****             status = CYRET_LOCKED;
 354              		.loc 1 216 0
 355 00b2 0423     		movs	r3, #4
 356 00b4 FB60     		str	r3, [r7, #12]
 191:Generated_Source\PSoC5/CySpc.c ****         {
 357              		.loc 1 191 0
 358 00b6 01E0     		b	.L25
 359              	.L18:
 217:Generated_Source\PSoC5/CySpc.c ****         }
 218:Generated_Source\PSoC5/CySpc.c ****     }
 219:Generated_Source\PSoC5/CySpc.c ****     else
 220:Generated_Source\PSoC5/CySpc.c ****     {
 221:Generated_Source\PSoC5/CySpc.c ****         status = CYRET_BAD_PARAM;
 360              		.loc 1 221 0
 361 00b8 0123     		movs	r3, #1
 362 00ba FB60     		str	r3, [r7, #12]
 363              	.L25:
 222:Generated_Source\PSoC5/CySpc.c ****     }
 223:Generated_Source\PSoC5/CySpc.c **** 
 224:Generated_Source\PSoC5/CySpc.c ****     return(status);
 364              		.loc 1 224 0
 365 00bc FB68     		ldr	r3, [r7, #12]
 225:Generated_Source\PSoC5/CySpc.c **** }
 366              		.loc 1 225 0
 367 00be 1846     		mov	r0, r3
 368 00c0 1437     		adds	r7, r7, #20
 369              		.cfi_def_cfa_offset 4
 370 00c2 BD46     		mov	sp, r7
 371              		.cfi_def_cfa_register 13
 372              		@ sp needed
 373 00c4 80BC     		pop	{r7}
 374              		.cfi_restore 7
 375              		.cfi_def_cfa_offset 0
 376 00c6 7047     		bx	lr
 377              	.L28:
 378              		.align	2
 379              	.L27:
 380 00c8 22470040 		.word	1073760034
 381 00cc 20470040 		.word	1073760032
 382              		.cfi_endproc
 383              	.LFE3:
 384              		.size	CySpcLoadMultiByte, .-CySpcLoadMultiByte
 385              		.section	.text.CySpcLoadRow,"ax",%progbits
 386              		.align	2
 387              		.global	CySpcLoadRow
 388              		.thumb
 389              		.thumb_func
 390              		.type	CySpcLoadRow, %function
 391              	CySpcLoadRow:
 392              	.LFB4:
 226:Generated_Source\PSoC5/CySpc.c **** 
 227:Generated_Source\PSoC5/CySpc.c **** 
ARM GAS  C:\Users\HPz420\AppData\Local\Temp\ccy8AjEg.s 			page 12


 228:Generated_Source\PSoC5/CySpc.c **** /*******************************************************************************
 229:Generated_Source\PSoC5/CySpc.c **** * Function Name: CySpcLoadRow
 230:Generated_Source\PSoC5/CySpc.c **** ********************************************************************************
 231:Generated_Source\PSoC5/CySpc.c **** * Summary:
 232:Generated_Source\PSoC5/CySpc.c **** *  Loads a row of data into the row latch of a Flash/EEPROM array.
 233:Generated_Source\PSoC5/CySpc.c **** *
 234:Generated_Source\PSoC5/CySpc.c **** *  The buffer pointer should point to the data that should be written to the
 235:Generated_Source\PSoC5/CySpc.c **** *  flash row directly (no data in ECC/flash will be preserved). It is Flash API
 236:Generated_Source\PSoC5/CySpc.c **** *  responsibility to prepare data: the preserved data are copied from flash into
 237:Generated_Source\PSoC5/CySpc.c **** *  array with the modified data.
 238:Generated_Source\PSoC5/CySpc.c **** *
 239:Generated_Source\PSoC5/CySpc.c **** * Parameters:
 240:Generated_Source\PSoC5/CySpc.c **** *  uint8 array:
 241:Generated_Source\PSoC5/CySpc.c **** *   Id of the array.
 242:Generated_Source\PSoC5/CySpc.c **** *
 243:Generated_Source\PSoC5/CySpc.c **** *  uint8* buffer:
 244:Generated_Source\PSoC5/CySpc.c **** *   Data to be loaded to the row latch
 245:Generated_Source\PSoC5/CySpc.c **** *
 246:Generated_Source\PSoC5/CySpc.c **** *  uint8 size:
 247:Generated_Source\PSoC5/CySpc.c **** *   The number of data bytes that the SPC expects to be written. Depends on the
 248:Generated_Source\PSoC5/CySpc.c **** *   type of the array and, if the array is Flash, whether ECC is being enabled
 249:Generated_Source\PSoC5/CySpc.c **** *   or not. There are following values: flash row latch size with ECC enabled,
 250:Generated_Source\PSoC5/CySpc.c **** *   flash row latch size with ECC disabled and EEPROM row latch size.
 251:Generated_Source\PSoC5/CySpc.c **** *
 252:Generated_Source\PSoC5/CySpc.c **** * Return:
 253:Generated_Source\PSoC5/CySpc.c **** *  CYRET_STARTED
 254:Generated_Source\PSoC5/CySpc.c **** *  CYRET_CANCELED
 255:Generated_Source\PSoC5/CySpc.c **** *  CYRET_LOCKED
 256:Generated_Source\PSoC5/CySpc.c **** *
 257:Generated_Source\PSoC5/CySpc.c **** *******************************************************************************/
 258:Generated_Source\PSoC5/CySpc.c **** cystatus CySpcLoadRow(uint8 array, const uint8 buffer[], uint16 size)
 259:Generated_Source\PSoC5/CySpc.c **** {
 393              		.loc 1 259 0
 394              		.cfi_startproc
 395              		@ args = 0, pretend = 0, frame = 16
 396              		@ frame_needed = 1, uses_anonymous_args = 0
 397              		@ link register save eliminated.
 398 0000 80B4     		push	{r7}
 399              		.cfi_def_cfa_offset 4
 400              		.cfi_offset 7, -4
 401 0002 85B0     		sub	sp, sp, #20
 402              		.cfi_def_cfa_offset 24
 403 0004 00AF     		add	r7, sp, #0
 404              		.cfi_def_cfa_register 7
 405 0006 0346     		mov	r3, r0
 406 0008 3960     		str	r1, [r7]
 407 000a FB71     		strb	r3, [r7, #7]
 408 000c 1346     		mov	r3, r2	@ movhi
 409 000e BB80     		strh	r3, [r7, #4]	@ movhi
 260:Generated_Source\PSoC5/CySpc.c ****     cystatus status = CYRET_STARTED;
 410              		.loc 1 260 0
 411 0010 0723     		movs	r3, #7
 412 0012 FB60     		str	r3, [r7, #12]
 261:Generated_Source\PSoC5/CySpc.c ****     uint16 i;
 262:Generated_Source\PSoC5/CySpc.c **** 
 263:Generated_Source\PSoC5/CySpc.c ****     /* Make sure the SPC is ready to accept command */
 264:Generated_Source\PSoC5/CySpc.c ****     if(CY_SPC_IDLE)
ARM GAS  C:\Users\HPz420\AppData\Local\Temp\ccy8AjEg.s 			page 13


 413              		.loc 1 264 0
 414 0014 1A4B     		ldr	r3, .L37
 415 0016 1B78     		ldrb	r3, [r3]
 416 0018 DBB2     		uxtb	r3, r3
 417 001a 03F00203 		and	r3, r3, #2
 418 001e 002B     		cmp	r3, #0
 419 0020 26D0     		beq	.L30
 265:Generated_Source\PSoC5/CySpc.c ****     {
 266:Generated_Source\PSoC5/CySpc.c ****         CY_SPC_CPU_DATA_REG = CY_SPC_KEY_ONE;
 420              		.loc 1 266 0
 421 0022 184B     		ldr	r3, .L37+4
 422 0024 B622     		movs	r2, #182
 423 0026 1A70     		strb	r2, [r3]
 267:Generated_Source\PSoC5/CySpc.c ****         CY_SPC_CPU_DATA_REG = CY_SPC_KEY_TWO(CY_SPC_CMD_LD_ROW);
 424              		.loc 1 267 0
 425 0028 164B     		ldr	r3, .L37+4
 426 002a D522     		movs	r2, #213
 427 002c 1A70     		strb	r2, [r3]
 268:Generated_Source\PSoC5/CySpc.c ****         CY_SPC_CPU_DATA_REG = CY_SPC_CMD_LD_ROW;
 428              		.loc 1 268 0
 429 002e 154B     		ldr	r3, .L37+4
 430 0030 0222     		movs	r2, #2
 431 0032 1A70     		strb	r2, [r3]
 269:Generated_Source\PSoC5/CySpc.c **** 
 270:Generated_Source\PSoC5/CySpc.c ****         /* Make sure the command was accepted */
 271:Generated_Source\PSoC5/CySpc.c ****         if(CY_SPC_BUSY)
 432              		.loc 1 271 0
 433 0034 124B     		ldr	r3, .L37
 434 0036 1B78     		ldrb	r3, [r3]
 435 0038 DBB2     		uxtb	r3, r3
 436 003a 03F00203 		and	r3, r3, #2
 437 003e 002B     		cmp	r3, #0
 438 0040 13D1     		bne	.L31
 272:Generated_Source\PSoC5/CySpc.c ****         {
 273:Generated_Source\PSoC5/CySpc.c ****             CY_SPC_CPU_DATA_REG = array;
 439              		.loc 1 273 0
 440 0042 104A     		ldr	r2, .L37+4
 441 0044 FB79     		ldrb	r3, [r7, #7]
 442 0046 1370     		strb	r3, [r2]
 274:Generated_Source\PSoC5/CySpc.c **** 
 275:Generated_Source\PSoC5/CySpc.c ****             for(i = 0u; i < size; i++)
 443              		.loc 1 275 0
 444 0048 0023     		movs	r3, #0
 445 004a 7B81     		strh	r3, [r7, #10]	@ movhi
 446 004c 08E0     		b	.L32
 447              	.L33:
 276:Generated_Source\PSoC5/CySpc.c ****             {
 277:Generated_Source\PSoC5/CySpc.c ****                 CY_SPC_CPU_DATA_REG = buffer[i];
 448              		.loc 1 277 0 discriminator 3
 449 004e 0D49     		ldr	r1, .L37+4
 450 0050 7B89     		ldrh	r3, [r7, #10]
 451 0052 3A68     		ldr	r2, [r7]
 452 0054 1344     		add	r3, r3, r2
 453 0056 1B78     		ldrb	r3, [r3]	@ zero_extendqisi2
 454 0058 0B70     		strb	r3, [r1]
 275:Generated_Source\PSoC5/CySpc.c ****             {
 455              		.loc 1 275 0 discriminator 3
ARM GAS  C:\Users\HPz420\AppData\Local\Temp\ccy8AjEg.s 			page 14


 456 005a 7B89     		ldrh	r3, [r7, #10]
 457 005c 0133     		adds	r3, r3, #1
 458 005e 7B81     		strh	r3, [r7, #10]	@ movhi
 459              	.L32:
 275:Generated_Source\PSoC5/CySpc.c ****             {
 460              		.loc 1 275 0 is_stmt 0 discriminator 1
 461 0060 7A89     		ldrh	r2, [r7, #10]
 462 0062 BB88     		ldrh	r3, [r7, #4]
 463 0064 9A42     		cmp	r2, r3
 464 0066 F2D3     		bcc	.L33
 465 0068 04E0     		b	.L35
 466              	.L31:
 278:Generated_Source\PSoC5/CySpc.c ****             }
 279:Generated_Source\PSoC5/CySpc.c ****         }
 280:Generated_Source\PSoC5/CySpc.c ****         else
 281:Generated_Source\PSoC5/CySpc.c ****         {
 282:Generated_Source\PSoC5/CySpc.c ****             status = CYRET_CANCELED;
 467              		.loc 1 282 0 is_stmt 1
 468 006a 0923     		movs	r3, #9
 469 006c FB60     		str	r3, [r7, #12]
 470 006e 01E0     		b	.L35
 471              	.L30:
 283:Generated_Source\PSoC5/CySpc.c ****         }
 284:Generated_Source\PSoC5/CySpc.c ****     }
 285:Generated_Source\PSoC5/CySpc.c ****     else
 286:Generated_Source\PSoC5/CySpc.c ****     {
 287:Generated_Source\PSoC5/CySpc.c ****         status = CYRET_LOCKED;
 472              		.loc 1 287 0
 473 0070 0423     		movs	r3, #4
 474 0072 FB60     		str	r3, [r7, #12]
 475              	.L35:
 288:Generated_Source\PSoC5/CySpc.c ****     }
 289:Generated_Source\PSoC5/CySpc.c **** 
 290:Generated_Source\PSoC5/CySpc.c ****     return(status);
 476              		.loc 1 290 0
 477 0074 FB68     		ldr	r3, [r7, #12]
 291:Generated_Source\PSoC5/CySpc.c **** }
 478              		.loc 1 291 0
 479 0076 1846     		mov	r0, r3
 480 0078 1437     		adds	r7, r7, #20
 481              		.cfi_def_cfa_offset 4
 482 007a BD46     		mov	sp, r7
 483              		.cfi_def_cfa_register 13
 484              		@ sp needed
 485 007c 80BC     		pop	{r7}
 486              		.cfi_restore 7
 487              		.cfi_def_cfa_offset 0
 488 007e 7047     		bx	lr
 489              	.L38:
 490              		.align	2
 491              	.L37:
 492 0080 22470040 		.word	1073760034
 493 0084 20470040 		.word	1073760032
 494              		.cfi_endproc
 495              	.LFE4:
 496              		.size	CySpcLoadRow, .-CySpcLoadRow
 497              		.section	.text.CySpcLoadRowFull,"ax",%progbits
ARM GAS  C:\Users\HPz420\AppData\Local\Temp\ccy8AjEg.s 			page 15


 498              		.align	2
 499              		.global	CySpcLoadRowFull
 500              		.thumb
 501              		.thumb_func
 502              		.type	CySpcLoadRowFull, %function
 503              	CySpcLoadRowFull:
 504              	.LFB5:
 292:Generated_Source\PSoC5/CySpc.c **** 
 293:Generated_Source\PSoC5/CySpc.c **** 
 294:Generated_Source\PSoC5/CySpc.c **** /*******************************************************************************
 295:Generated_Source\PSoC5/CySpc.c **** * Function Name: CySpcLoadRowFull
 296:Generated_Source\PSoC5/CySpc.c **** ********************************************************************************
 297:Generated_Source\PSoC5/CySpc.c **** * Summary:
 298:Generated_Source\PSoC5/CySpc.c **** *  Loads a row of data into the row latch of a Flash/EEPROM array.
 299:Generated_Source\PSoC5/CySpc.c **** *
 300:Generated_Source\PSoC5/CySpc.c **** *  The only data that are going to be changed should be passed. The function
 301:Generated_Source\PSoC5/CySpc.c **** *  will handle unmodified data preservation based on DWR settings and input
 302:Generated_Source\PSoC5/CySpc.c **** *  parameters.
 303:Generated_Source\PSoC5/CySpc.c **** *
 304:Generated_Source\PSoC5/CySpc.c **** * Parameters:
 305:Generated_Source\PSoC5/CySpc.c **** *  uint8 array:
 306:Generated_Source\PSoC5/CySpc.c **** *   Id of the array.
 307:Generated_Source\PSoC5/CySpc.c **** *
 308:Generated_Source\PSoC5/CySpc.c **** *  uint16 row:
 309:Generated_Source\PSoC5/CySpc.c **** *   Flash row number to be loaded.
 310:Generated_Source\PSoC5/CySpc.c **** *
 311:Generated_Source\PSoC5/CySpc.c **** *  uint8* buffer:
 312:Generated_Source\PSoC5/CySpc.c **** *   Data to be loaded to the row latch
 313:Generated_Source\PSoC5/CySpc.c **** *
 314:Generated_Source\PSoC5/CySpc.c **** *  uint8 size:
 315:Generated_Source\PSoC5/CySpc.c **** *   The number of data bytes that the SPC expects to be written. Depends on the
 316:Generated_Source\PSoC5/CySpc.c **** *   type of the array and, if the array is Flash, whether ECC is being enabled
 317:Generated_Source\PSoC5/CySpc.c **** *   or not. There are following values: flash row latch size with ECC enabled,
 318:Generated_Source\PSoC5/CySpc.c **** *   flash row latch size with ECC disabled and EEPROM row latch size.
 319:Generated_Source\PSoC5/CySpc.c **** *
 320:Generated_Source\PSoC5/CySpc.c **** * Return:
 321:Generated_Source\PSoC5/CySpc.c **** *  CYRET_STARTED
 322:Generated_Source\PSoC5/CySpc.c **** *  CYRET_CANCELED
 323:Generated_Source\PSoC5/CySpc.c **** *  CYRET_LOCKED
 324:Generated_Source\PSoC5/CySpc.c **** *
 325:Generated_Source\PSoC5/CySpc.c **** *******************************************************************************/
 326:Generated_Source\PSoC5/CySpc.c **** cystatus CySpcLoadRowFull(uint8 array, uint16 row, const uint8 buffer[], uint16 size)\
 327:Generated_Source\PSoC5/CySpc.c **** 
 328:Generated_Source\PSoC5/CySpc.c **** {
 505              		.loc 1 328 0
 506              		.cfi_startproc
 507              		@ args = 0, pretend = 0, frame = 32
 508              		@ frame_needed = 1, uses_anonymous_args = 0
 509              		@ link register save eliminated.
 510 0000 80B4     		push	{r7}
 511              		.cfi_def_cfa_offset 4
 512              		.cfi_offset 7, -4
 513 0002 89B0     		sub	sp, sp, #36
 514              		.cfi_def_cfa_offset 40
 515 0004 00AF     		add	r7, sp, #0
 516              		.cfi_def_cfa_register 7
 517 0006 BA60     		str	r2, [r7, #8]
ARM GAS  C:\Users\HPz420\AppData\Local\Temp\ccy8AjEg.s 			page 16


 518 0008 1A46     		mov	r2, r3
 519 000a 0346     		mov	r3, r0
 520 000c FB73     		strb	r3, [r7, #15]
 521 000e 0B46     		mov	r3, r1	@ movhi
 522 0010 BB81     		strh	r3, [r7, #12]	@ movhi
 523 0012 1346     		mov	r3, r2	@ movhi
 524 0014 FB80     		strh	r3, [r7, #6]	@ movhi
 329:Generated_Source\PSoC5/CySpc.c ****     cystatus status = CYRET_STARTED;
 525              		.loc 1 329 0
 526 0016 0723     		movs	r3, #7
 527 0018 FB61     		str	r3, [r7, #28]
 330:Generated_Source\PSoC5/CySpc.c ****     uint16 i;
 331:Generated_Source\PSoC5/CySpc.c **** 
 332:Generated_Source\PSoC5/CySpc.c ****     #if (CYDEV_ECC_ENABLE == 0)
 333:Generated_Source\PSoC5/CySpc.c ****         uint32 offset;
 334:Generated_Source\PSoC5/CySpc.c ****     #endif /* (CYDEV_ECC_ENABLE == 0) */
 335:Generated_Source\PSoC5/CySpc.c **** 
 336:Generated_Source\PSoC5/CySpc.c ****     /* Make sure the SPC is ready to accept command */
 337:Generated_Source\PSoC5/CySpc.c ****     if(CY_SPC_IDLE)
 528              		.loc 1 337 0
 529 001a 2A4B     		ldr	r3, .L49
 530 001c 1B78     		ldrb	r3, [r3]
 531 001e DBB2     		uxtb	r3, r3
 532 0020 03F00203 		and	r3, r3, #2
 533 0024 002B     		cmp	r3, #0
 534 0026 45D0     		beq	.L40
 338:Generated_Source\PSoC5/CySpc.c ****     {
 339:Generated_Source\PSoC5/CySpc.c ****         CY_SPC_CPU_DATA_REG = CY_SPC_KEY_ONE;
 535              		.loc 1 339 0
 536 0028 274B     		ldr	r3, .L49+4
 537 002a B622     		movs	r2, #182
 538 002c 1A70     		strb	r2, [r3]
 340:Generated_Source\PSoC5/CySpc.c ****         CY_SPC_CPU_DATA_REG = CY_SPC_KEY_TWO(CY_SPC_CMD_LD_ROW);
 539              		.loc 1 340 0
 540 002e 264B     		ldr	r3, .L49+4
 541 0030 D522     		movs	r2, #213
 542 0032 1A70     		strb	r2, [r3]
 341:Generated_Source\PSoC5/CySpc.c ****         CY_SPC_CPU_DATA_REG = CY_SPC_CMD_LD_ROW;
 543              		.loc 1 341 0
 544 0034 244B     		ldr	r3, .L49+4
 545 0036 0222     		movs	r2, #2
 546 0038 1A70     		strb	r2, [r3]
 342:Generated_Source\PSoC5/CySpc.c **** 
 343:Generated_Source\PSoC5/CySpc.c ****         /* Make sure the command was accepted */
 344:Generated_Source\PSoC5/CySpc.c ****         if(CY_SPC_BUSY)
 547              		.loc 1 344 0
 548 003a 224B     		ldr	r3, .L49
 549 003c 1B78     		ldrb	r3, [r3]
 550 003e DBB2     		uxtb	r3, r3
 551 0040 03F00203 		and	r3, r3, #2
 552 0044 002B     		cmp	r3, #0
 553 0046 32D1     		bne	.L41
 345:Generated_Source\PSoC5/CySpc.c ****         {
 346:Generated_Source\PSoC5/CySpc.c ****             CY_SPC_CPU_DATA_REG = array;
 554              		.loc 1 346 0
 555 0048 1F4A     		ldr	r2, .L49+4
 556 004a FB7B     		ldrb	r3, [r7, #15]
ARM GAS  C:\Users\HPz420\AppData\Local\Temp\ccy8AjEg.s 			page 17


 557 004c 1370     		strb	r3, [r2]
 347:Generated_Source\PSoC5/CySpc.c **** 
 348:Generated_Source\PSoC5/CySpc.c ****             /*******************************************************************
 349:Generated_Source\PSoC5/CySpc.c ****             * If "Enable Error Correcting Code (ECC)" and "Store Configuration
 350:Generated_Source\PSoC5/CySpc.c ****             * Data in ECC" DWR options are disabled, ECC section is available
 351:Generated_Source\PSoC5/CySpc.c ****             * for user data.
 352:Generated_Source\PSoC5/CySpc.c ****             *******************************************************************/
 353:Generated_Source\PSoC5/CySpc.c ****             #if ((CYDEV_ECC_ENABLE == 0u) && (CYDEV_CONFIGURATION_ECC == 0u))
 354:Generated_Source\PSoC5/CySpc.c **** 
 355:Generated_Source\PSoC5/CySpc.c ****                 /*******************************************************************
 356:Generated_Source\PSoC5/CySpc.c ****                 * If size parameter equals size of the ECC row and selected array
 357:Generated_Source\PSoC5/CySpc.c ****                 * identification corresponds to the flash array (but not to EEPROM
 358:Generated_Source\PSoC5/CySpc.c ****                 * array) then data are going to be written to the ECC section.
 359:Generated_Source\PSoC5/CySpc.c ****                 * In this case flash data must be preserved. The flash data copied
 360:Generated_Source\PSoC5/CySpc.c ****                 * from flash data section to the SPC data register.
 361:Generated_Source\PSoC5/CySpc.c ****                 *******************************************************************/
 362:Generated_Source\PSoC5/CySpc.c ****                 if ((size == CYDEV_ECC_ROW_SIZE) && (array <= CY_SPC_LAST_FLASH_ARRAYID))
 363:Generated_Source\PSoC5/CySpc.c ****                 {
 364:Generated_Source\PSoC5/CySpc.c ****                     offset = CYDEV_FLS_BASE +
 365:Generated_Source\PSoC5/CySpc.c ****                              ((uint32) array * CYDEV_FLS_SECTOR_SIZE) +
 366:Generated_Source\PSoC5/CySpc.c ****                              ((uint32)   row * CYDEV_FLS_ROW_SIZE   );
 367:Generated_Source\PSoC5/CySpc.c **** 
 368:Generated_Source\PSoC5/CySpc.c ****                     for (i = 0u; i < CYDEV_FLS_ROW_SIZE; i++)
 369:Generated_Source\PSoC5/CySpc.c ****                     {
 370:Generated_Source\PSoC5/CySpc.c ****                         CY_SPC_CPU_DATA_REG = CY_GET_XTND_REG8((void CYFAR *)(offset + i));
 371:Generated_Source\PSoC5/CySpc.c ****                     }
 372:Generated_Source\PSoC5/CySpc.c ****                 }
 373:Generated_Source\PSoC5/CySpc.c **** 
 374:Generated_Source\PSoC5/CySpc.c ****             #endif /* ((CYDEV_ECC_ENABLE == 0u) && (CYDEV_CONFIGURATION_ECC == 0u)) */
 375:Generated_Source\PSoC5/CySpc.c **** 
 376:Generated_Source\PSoC5/CySpc.c **** 
 377:Generated_Source\PSoC5/CySpc.c ****             for(i = 0u; i < size; i++)
 558              		.loc 1 377 0
 559 004e 0023     		movs	r3, #0
 560 0050 7B83     		strh	r3, [r7, #26]	@ movhi
 561 0052 08E0     		b	.L42
 562              	.L43:
 378:Generated_Source\PSoC5/CySpc.c ****             {
 379:Generated_Source\PSoC5/CySpc.c ****                 CY_SPC_CPU_DATA_REG = buffer[i];
 563              		.loc 1 379 0 discriminator 3
 564 0054 1C49     		ldr	r1, .L49+4
 565 0056 7B8B     		ldrh	r3, [r7, #26]
 566 0058 BA68     		ldr	r2, [r7, #8]
 567 005a 1344     		add	r3, r3, r2
 568 005c 1B78     		ldrb	r3, [r3]	@ zero_extendqisi2
 569 005e 0B70     		strb	r3, [r1]
 377:Generated_Source\PSoC5/CySpc.c ****             {
 570              		.loc 1 377 0 discriminator 3
 571 0060 7B8B     		ldrh	r3, [r7, #26]
 572 0062 0133     		adds	r3, r3, #1
 573 0064 7B83     		strh	r3, [r7, #26]	@ movhi
 574              	.L42:
 377:Generated_Source\PSoC5/CySpc.c ****             {
 575              		.loc 1 377 0 is_stmt 0 discriminator 1
 576 0066 7A8B     		ldrh	r2, [r7, #26]
 577 0068 FB88     		ldrh	r3, [r7, #6]
 578 006a 9A42     		cmp	r2, r3
ARM GAS  C:\Users\HPz420\AppData\Local\Temp\ccy8AjEg.s 			page 18


 579 006c F2D3     		bcc	.L43
 380:Generated_Source\PSoC5/CySpc.c ****             }
 381:Generated_Source\PSoC5/CySpc.c **** 
 382:Generated_Source\PSoC5/CySpc.c **** 
 383:Generated_Source\PSoC5/CySpc.c ****             /*******************************************************************
 384:Generated_Source\PSoC5/CySpc.c ****             * If "Enable Error Correcting Code (ECC)" DWR option is disabled,
 385:Generated_Source\PSoC5/CySpc.c ****             * ECC section can be used for storing device configuration data
 386:Generated_Source\PSoC5/CySpc.c ****             * ("Store Configuration Data in ECC" DWR option is enabled) or for
 387:Generated_Source\PSoC5/CySpc.c ****             * storing user data in the ECC section ("Store Configuration Data in
 388:Generated_Source\PSoC5/CySpc.c ****             * ECC" DWR option is enabled). In both cases, the data in the ECC
 389:Generated_Source\PSoC5/CySpc.c ****             * section must be preserved if flash data is written.
 390:Generated_Source\PSoC5/CySpc.c ****             *******************************************************************/
 391:Generated_Source\PSoC5/CySpc.c ****             #if (CYDEV_ECC_ENABLE == 0)
 392:Generated_Source\PSoC5/CySpc.c **** 
 393:Generated_Source\PSoC5/CySpc.c **** 
 394:Generated_Source\PSoC5/CySpc.c ****                 /*******************************************************************
 395:Generated_Source\PSoC5/CySpc.c ****                 * If size parameter equals size of the flash row and selected array
 396:Generated_Source\PSoC5/CySpc.c ****                 * identification corresponds to the flash array (but not to EEPROM
 397:Generated_Source\PSoC5/CySpc.c ****                 * array) then data are going to be written to the flash data
 398:Generated_Source\PSoC5/CySpc.c ****                 * section. In this case, ECC section data must be preserved.
 399:Generated_Source\PSoC5/CySpc.c ****                 * The ECC section data copied from ECC section to the SPC data
 400:Generated_Source\PSoC5/CySpc.c ****                 * register.
 401:Generated_Source\PSoC5/CySpc.c ****                 *******************************************************************/
 402:Generated_Source\PSoC5/CySpc.c ****                 if ((size == CYDEV_FLS_ROW_SIZE) && (array <= CY_SPC_LAST_FLASH_ARRAYID))
 580              		.loc 1 402 0 is_stmt 1
 581 006e FB88     		ldrh	r3, [r7, #6]
 582 0070 B3F5807F 		cmp	r3, #256
 583 0074 20D1     		bne	.L47
 584              		.loc 1 402 0 is_stmt 0 discriminator 1
 585 0076 FB7B     		ldrb	r3, [r7, #15]	@ zero_extendqisi2
 586 0078 3F2B     		cmp	r3, #63
 587 007a 1DD8     		bhi	.L47
 403:Generated_Source\PSoC5/CySpc.c ****                 {
 404:Generated_Source\PSoC5/CySpc.c ****                     offset = CYDEV_ECC_BASE +
 405:Generated_Source\PSoC5/CySpc.c ****                             ((uint32) array * CYDEV_ECC_SECTOR_SIZE) +
 588              		.loc 1 405 0 is_stmt 1
 589 007c FB7B     		ldrb	r3, [r7, #15]	@ zero_extendqisi2
 590 007e 03F51033 		add	r3, r3, #147456
 591 0082 1A02     		lsls	r2, r3, #8
 406:Generated_Source\PSoC5/CySpc.c ****                             ((uint32) row   * CYDEV_ECC_ROW_SIZE   );
 592              		.loc 1 406 0
 593 0084 BB89     		ldrh	r3, [r7, #12]
 405:Generated_Source\PSoC5/CySpc.c ****                             ((uint32) row   * CYDEV_ECC_ROW_SIZE   );
 594              		.loc 1 405 0
 595 0086 1344     		add	r3, r3, r2
 404:Generated_Source\PSoC5/CySpc.c ****                             ((uint32) array * CYDEV_ECC_SECTOR_SIZE) +
 596              		.loc 1 404 0
 597 0088 5B01     		lsls	r3, r3, #5
 598 008a 7B61     		str	r3, [r7, #20]
 407:Generated_Source\PSoC5/CySpc.c **** 
 408:Generated_Source\PSoC5/CySpc.c ****                     for (i = 0u; i < CYDEV_ECC_ROW_SIZE; i++)
 599              		.loc 1 408 0
 600 008c 0023     		movs	r3, #0
 601 008e 7B83     		strh	r3, [r7, #26]	@ movhi
 602 0090 09E0     		b	.L45
 603              	.L46:
 409:Generated_Source\PSoC5/CySpc.c ****                     {
ARM GAS  C:\Users\HPz420\AppData\Local\Temp\ccy8AjEg.s 			page 19


 410:Generated_Source\PSoC5/CySpc.c ****                         CY_SPC_CPU_DATA_REG = CY_GET_XTND_REG8((void CYFAR *)(offset + i));
 604              		.loc 1 410 0 discriminator 3
 605 0092 0D49     		ldr	r1, .L49+4
 606 0094 7A8B     		ldrh	r2, [r7, #26]
 607 0096 7B69     		ldr	r3, [r7, #20]
 608 0098 1344     		add	r3, r3, r2
 609 009a 1B78     		ldrb	r3, [r3]
 610 009c DBB2     		uxtb	r3, r3
 611 009e 0B70     		strb	r3, [r1]
 408:Generated_Source\PSoC5/CySpc.c ****                     {
 612              		.loc 1 408 0 discriminator 3
 613 00a0 7B8B     		ldrh	r3, [r7, #26]
 614 00a2 0133     		adds	r3, r3, #1
 615 00a4 7B83     		strh	r3, [r7, #26]	@ movhi
 616              	.L45:
 408:Generated_Source\PSoC5/CySpc.c ****                     {
 617              		.loc 1 408 0 is_stmt 0 discriminator 1
 618 00a6 7B8B     		ldrh	r3, [r7, #26]
 619 00a8 1F2B     		cmp	r3, #31
 620 00aa F2D9     		bls	.L46
 621 00ac 04E0     		b	.L47
 622              	.L41:
 411:Generated_Source\PSoC5/CySpc.c ****                     }
 412:Generated_Source\PSoC5/CySpc.c ****                 }
 413:Generated_Source\PSoC5/CySpc.c **** 
 414:Generated_Source\PSoC5/CySpc.c ****             #else
 415:Generated_Source\PSoC5/CySpc.c **** 
 416:Generated_Source\PSoC5/CySpc.c ****                 if(0u != row)
 417:Generated_Source\PSoC5/CySpc.c ****                 {
 418:Generated_Source\PSoC5/CySpc.c ****                     /* To remove unreferenced local variable warning */
 419:Generated_Source\PSoC5/CySpc.c ****                 }
 420:Generated_Source\PSoC5/CySpc.c **** 
 421:Generated_Source\PSoC5/CySpc.c ****             #endif /* (CYDEV_ECC_ENABLE == 0) */
 422:Generated_Source\PSoC5/CySpc.c ****         }
 423:Generated_Source\PSoC5/CySpc.c ****         else
 424:Generated_Source\PSoC5/CySpc.c ****         {
 425:Generated_Source\PSoC5/CySpc.c ****             status = CYRET_CANCELED;
 623              		.loc 1 425 0 is_stmt 1
 624 00ae 0923     		movs	r3, #9
 625 00b0 FB61     		str	r3, [r7, #28]
 626 00b2 01E0     		b	.L47
 627              	.L40:
 426:Generated_Source\PSoC5/CySpc.c ****         }
 427:Generated_Source\PSoC5/CySpc.c ****     }
 428:Generated_Source\PSoC5/CySpc.c ****     else
 429:Generated_Source\PSoC5/CySpc.c ****     {
 430:Generated_Source\PSoC5/CySpc.c ****         status = CYRET_LOCKED;
 628              		.loc 1 430 0
 629 00b4 0423     		movs	r3, #4
 630 00b6 FB61     		str	r3, [r7, #28]
 631              	.L47:
 431:Generated_Source\PSoC5/CySpc.c ****     }
 432:Generated_Source\PSoC5/CySpc.c **** 
 433:Generated_Source\PSoC5/CySpc.c ****     return(status);
 632              		.loc 1 433 0
 633 00b8 FB69     		ldr	r3, [r7, #28]
 434:Generated_Source\PSoC5/CySpc.c **** }
ARM GAS  C:\Users\HPz420\AppData\Local\Temp\ccy8AjEg.s 			page 20


 634              		.loc 1 434 0
 635 00ba 1846     		mov	r0, r3
 636 00bc 2437     		adds	r7, r7, #36
 637              		.cfi_def_cfa_offset 4
 638 00be BD46     		mov	sp, r7
 639              		.cfi_def_cfa_register 13
 640              		@ sp needed
 641 00c0 80BC     		pop	{r7}
 642              		.cfi_restore 7
 643              		.cfi_def_cfa_offset 0
 644 00c2 7047     		bx	lr
 645              	.L50:
 646              		.align	2
 647              	.L49:
 648 00c4 22470040 		.word	1073760034
 649 00c8 20470040 		.word	1073760032
 650              		.cfi_endproc
 651              	.LFE5:
 652              		.size	CySpcLoadRowFull, .-CySpcLoadRowFull
 653              		.section	.text.CySpcWriteRow,"ax",%progbits
 654              		.align	2
 655              		.global	CySpcWriteRow
 656              		.thumb
 657              		.thumb_func
 658              		.type	CySpcWriteRow, %function
 659              	CySpcWriteRow:
 660              	.LFB6:
 435:Generated_Source\PSoC5/CySpc.c **** 
 436:Generated_Source\PSoC5/CySpc.c **** 
 437:Generated_Source\PSoC5/CySpc.c **** /*******************************************************************************
 438:Generated_Source\PSoC5/CySpc.c **** * Function Name: CySpcWriteRow
 439:Generated_Source\PSoC5/CySpc.c **** ********************************************************************************
 440:Generated_Source\PSoC5/CySpc.c **** * Summary:
 441:Generated_Source\PSoC5/CySpc.c **** *  Erases then programs a row in Flash/EEPROM with data in row latch.
 442:Generated_Source\PSoC5/CySpc.c **** *
 443:Generated_Source\PSoC5/CySpc.c **** * Parameters:
 444:Generated_Source\PSoC5/CySpc.c **** *  uint8 array:
 445:Generated_Source\PSoC5/CySpc.c **** *   Id of the array.
 446:Generated_Source\PSoC5/CySpc.c **** *
 447:Generated_Source\PSoC5/CySpc.c **** *  uint16 address:
 448:Generated_Source\PSoC5/CySpc.c **** *   flash/eeprom addrress
 449:Generated_Source\PSoC5/CySpc.c **** *
 450:Generated_Source\PSoC5/CySpc.c **** *  uint8 tempPolarity:
 451:Generated_Source\PSoC5/CySpc.c **** *   temperature polarity.
 452:Generated_Source\PSoC5/CySpc.c **** *   1: the Temp Magnitude is interpreted as a positive value
 453:Generated_Source\PSoC5/CySpc.c **** *   0: the Temp Magnitude is interpreted as a negative value
 454:Generated_Source\PSoC5/CySpc.c **** *
 455:Generated_Source\PSoC5/CySpc.c **** *  uint8 tempMagnitude:
 456:Generated_Source\PSoC5/CySpc.c **** *   temperature magnitude.
 457:Generated_Source\PSoC5/CySpc.c **** *
 458:Generated_Source\PSoC5/CySpc.c **** * Return:
 459:Generated_Source\PSoC5/CySpc.c **** *  CYRET_STARTED
 460:Generated_Source\PSoC5/CySpc.c **** *  CYRET_CANCELED
 461:Generated_Source\PSoC5/CySpc.c **** *  CYRET_LOCKED
 462:Generated_Source\PSoC5/CySpc.c **** *
 463:Generated_Source\PSoC5/CySpc.c **** *******************************************************************************/
 464:Generated_Source\PSoC5/CySpc.c **** cystatus CySpcWriteRow(uint8 array, uint16 address, uint8 tempPolarity, uint8 tempMagnitude)\
ARM GAS  C:\Users\HPz420\AppData\Local\Temp\ccy8AjEg.s 			page 21


 465:Generated_Source\PSoC5/CySpc.c **** 
 466:Generated_Source\PSoC5/CySpc.c **** {
 661              		.loc 1 466 0
 662              		.cfi_startproc
 663              		@ args = 0, pretend = 0, frame = 16
 664              		@ frame_needed = 1, uses_anonymous_args = 0
 665              		@ link register save eliminated.
 666 0000 90B4     		push	{r4, r7}
 667              		.cfi_def_cfa_offset 8
 668              		.cfi_offset 4, -8
 669              		.cfi_offset 7, -4
 670 0002 84B0     		sub	sp, sp, #16
 671              		.cfi_def_cfa_offset 24
 672 0004 00AF     		add	r7, sp, #0
 673              		.cfi_def_cfa_register 7
 674 0006 0446     		mov	r4, r0
 675 0008 0846     		mov	r0, r1
 676 000a 1146     		mov	r1, r2
 677 000c 1A46     		mov	r2, r3
 678 000e 2346     		mov	r3, r4
 679 0010 FB71     		strb	r3, [r7, #7]
 680 0012 0346     		mov	r3, r0	@ movhi
 681 0014 BB80     		strh	r3, [r7, #4]	@ movhi
 682 0016 0B46     		mov	r3, r1
 683 0018 BB71     		strb	r3, [r7, #6]
 684 001a 1346     		mov	r3, r2
 685 001c FB70     		strb	r3, [r7, #3]
 467:Generated_Source\PSoC5/CySpc.c ****     cystatus status = CYRET_STARTED;
 686              		.loc 1 467 0
 687 001e 0723     		movs	r3, #7
 688 0020 FB60     		str	r3, [r7, #12]
 468:Generated_Source\PSoC5/CySpc.c **** 
 469:Generated_Source\PSoC5/CySpc.c ****     /* Make sure the SPC is ready to accept command */
 470:Generated_Source\PSoC5/CySpc.c ****     if(CY_SPC_IDLE)
 689              		.loc 1 470 0
 690 0022 1B4B     		ldr	r3, .L57
 691 0024 1B78     		ldrb	r3, [r3]
 692 0026 DBB2     		uxtb	r3, r3
 693 0028 03F00203 		and	r3, r3, #2
 694 002c 002B     		cmp	r3, #0
 695 002e 26D0     		beq	.L52
 471:Generated_Source\PSoC5/CySpc.c ****     {
 472:Generated_Source\PSoC5/CySpc.c ****         CY_SPC_CPU_DATA_REG = CY_SPC_KEY_ONE;
 696              		.loc 1 472 0
 697 0030 184B     		ldr	r3, .L57+4
 698 0032 B622     		movs	r2, #182
 699 0034 1A70     		strb	r2, [r3]
 473:Generated_Source\PSoC5/CySpc.c ****         CY_SPC_CPU_DATA_REG = CY_SPC_KEY_TWO(CY_SPC_CMD_WR_ROW);
 700              		.loc 1 473 0
 701 0036 174B     		ldr	r3, .L57+4
 702 0038 D822     		movs	r2, #216
 703 003a 1A70     		strb	r2, [r3]
 474:Generated_Source\PSoC5/CySpc.c ****         CY_SPC_CPU_DATA_REG = CY_SPC_CMD_WR_ROW;
 704              		.loc 1 474 0
 705 003c 154B     		ldr	r3, .L57+4
 706 003e 0522     		movs	r2, #5
 707 0040 1A70     		strb	r2, [r3]
ARM GAS  C:\Users\HPz420\AppData\Local\Temp\ccy8AjEg.s 			page 22


 475:Generated_Source\PSoC5/CySpc.c **** 
 476:Generated_Source\PSoC5/CySpc.c ****         /* Make sure the command was accepted */
 477:Generated_Source\PSoC5/CySpc.c ****         if(CY_SPC_BUSY)
 708              		.loc 1 477 0
 709 0042 134B     		ldr	r3, .L57
 710 0044 1B78     		ldrb	r3, [r3]
 711 0046 DBB2     		uxtb	r3, r3
 712 0048 03F00203 		and	r3, r3, #2
 713 004c 002B     		cmp	r3, #0
 714 004e 13D1     		bne	.L53
 478:Generated_Source\PSoC5/CySpc.c ****         {
 479:Generated_Source\PSoC5/CySpc.c ****             CY_SPC_CPU_DATA_REG = array;
 715              		.loc 1 479 0
 716 0050 104A     		ldr	r2, .L57+4
 717 0052 FB79     		ldrb	r3, [r7, #7]
 718 0054 1370     		strb	r3, [r2]
 480:Generated_Source\PSoC5/CySpc.c ****             CY_SPC_CPU_DATA_REG = HI8(address);
 719              		.loc 1 480 0
 720 0056 0F4A     		ldr	r2, .L57+4
 721 0058 BB88     		ldrh	r3, [r7, #4]
 722 005a 1B0A     		lsrs	r3, r3, #8
 723 005c 9BB2     		uxth	r3, r3
 724 005e DBB2     		uxtb	r3, r3
 725 0060 1370     		strb	r3, [r2]
 481:Generated_Source\PSoC5/CySpc.c ****             CY_SPC_CPU_DATA_REG = LO8(address);
 726              		.loc 1 481 0
 727 0062 0C4B     		ldr	r3, .L57+4
 728 0064 BA88     		ldrh	r2, [r7, #4]	@ movhi
 729 0066 D2B2     		uxtb	r2, r2
 730 0068 1A70     		strb	r2, [r3]
 482:Generated_Source\PSoC5/CySpc.c ****             CY_SPC_CPU_DATA_REG = tempPolarity;
 731              		.loc 1 482 0
 732 006a 0A4A     		ldr	r2, .L57+4
 733 006c BB79     		ldrb	r3, [r7, #6]
 734 006e 1370     		strb	r3, [r2]
 483:Generated_Source\PSoC5/CySpc.c ****             CY_SPC_CPU_DATA_REG = tempMagnitude;
 735              		.loc 1 483 0
 736 0070 084A     		ldr	r2, .L57+4
 737 0072 FB78     		ldrb	r3, [r7, #3]
 738 0074 1370     		strb	r3, [r2]
 739 0076 04E0     		b	.L55
 740              	.L53:
 484:Generated_Source\PSoC5/CySpc.c ****         }
 485:Generated_Source\PSoC5/CySpc.c ****         else
 486:Generated_Source\PSoC5/CySpc.c ****         {
 487:Generated_Source\PSoC5/CySpc.c ****             status = CYRET_CANCELED;
 741              		.loc 1 487 0
 742 0078 0923     		movs	r3, #9
 743 007a FB60     		str	r3, [r7, #12]
 744 007c 01E0     		b	.L55
 745              	.L52:
 488:Generated_Source\PSoC5/CySpc.c ****         }
 489:Generated_Source\PSoC5/CySpc.c ****     }
 490:Generated_Source\PSoC5/CySpc.c ****     else
 491:Generated_Source\PSoC5/CySpc.c ****     {
 492:Generated_Source\PSoC5/CySpc.c ****         status = CYRET_LOCKED;
 746              		.loc 1 492 0
ARM GAS  C:\Users\HPz420\AppData\Local\Temp\ccy8AjEg.s 			page 23


 747 007e 0423     		movs	r3, #4
 748 0080 FB60     		str	r3, [r7, #12]
 749              	.L55:
 493:Generated_Source\PSoC5/CySpc.c ****     }
 494:Generated_Source\PSoC5/CySpc.c **** 
 495:Generated_Source\PSoC5/CySpc.c ****     return(status);
 750              		.loc 1 495 0
 751 0082 FB68     		ldr	r3, [r7, #12]
 496:Generated_Source\PSoC5/CySpc.c **** }
 752              		.loc 1 496 0
 753 0084 1846     		mov	r0, r3
 754 0086 1037     		adds	r7, r7, #16
 755              		.cfi_def_cfa_offset 8
 756 0088 BD46     		mov	sp, r7
 757              		.cfi_def_cfa_register 13
 758              		@ sp needed
 759 008a 90BC     		pop	{r4, r7}
 760              		.cfi_restore 7
 761              		.cfi_restore 4
 762              		.cfi_def_cfa_offset 0
 763 008c 7047     		bx	lr
 764              	.L58:
 765 008e 00BF     		.align	2
 766              	.L57:
 767 0090 22470040 		.word	1073760034
 768 0094 20470040 		.word	1073760032
 769              		.cfi_endproc
 770              	.LFE6:
 771              		.size	CySpcWriteRow, .-CySpcWriteRow
 772              		.section	.text.CySpcEraseSector,"ax",%progbits
 773              		.align	2
 774              		.global	CySpcEraseSector
 775              		.thumb
 776              		.thumb_func
 777              		.type	CySpcEraseSector, %function
 778              	CySpcEraseSector:
 779              	.LFB7:
 497:Generated_Source\PSoC5/CySpc.c **** 
 498:Generated_Source\PSoC5/CySpc.c **** 
 499:Generated_Source\PSoC5/CySpc.c **** /*******************************************************************************
 500:Generated_Source\PSoC5/CySpc.c **** * Function Name: CySpcEraseSector
 501:Generated_Source\PSoC5/CySpc.c **** ********************************************************************************
 502:Generated_Source\PSoC5/CySpc.c **** * Summary:
 503:Generated_Source\PSoC5/CySpc.c **** *  Erases all data in the addressed sector (block of 64 rows).
 504:Generated_Source\PSoC5/CySpc.c **** *
 505:Generated_Source\PSoC5/CySpc.c **** * Parameters:
 506:Generated_Source\PSoC5/CySpc.c **** *  uint8 array:
 507:Generated_Source\PSoC5/CySpc.c **** *   Id of the array.
 508:Generated_Source\PSoC5/CySpc.c **** *
 509:Generated_Source\PSoC5/CySpc.c **** *  uint8 sectorNumber:
 510:Generated_Source\PSoC5/CySpc.c **** *   Zero based sector number within Flash/EEPROM array
 511:Generated_Source\PSoC5/CySpc.c **** *
 512:Generated_Source\PSoC5/CySpc.c **** * Return:
 513:Generated_Source\PSoC5/CySpc.c **** *  CYRET_STARTED
 514:Generated_Source\PSoC5/CySpc.c **** *  CYRET_CANCELED
 515:Generated_Source\PSoC5/CySpc.c **** *  CYRET_LOCKED
 516:Generated_Source\PSoC5/CySpc.c **** *
ARM GAS  C:\Users\HPz420\AppData\Local\Temp\ccy8AjEg.s 			page 24


 517:Generated_Source\PSoC5/CySpc.c **** *******************************************************************************/
 518:Generated_Source\PSoC5/CySpc.c **** cystatus CySpcEraseSector(uint8 array, uint8 sectorNumber)
 519:Generated_Source\PSoC5/CySpc.c **** {
 780              		.loc 1 519 0
 781              		.cfi_startproc
 782              		@ args = 0, pretend = 0, frame = 16
 783              		@ frame_needed = 1, uses_anonymous_args = 0
 784              		@ link register save eliminated.
 785 0000 80B4     		push	{r7}
 786              		.cfi_def_cfa_offset 4
 787              		.cfi_offset 7, -4
 788 0002 85B0     		sub	sp, sp, #20
 789              		.cfi_def_cfa_offset 24
 790 0004 00AF     		add	r7, sp, #0
 791              		.cfi_def_cfa_register 7
 792 0006 0346     		mov	r3, r0
 793 0008 0A46     		mov	r2, r1
 794 000a FB71     		strb	r3, [r7, #7]
 795 000c 1346     		mov	r3, r2
 796 000e BB71     		strb	r3, [r7, #6]
 520:Generated_Source\PSoC5/CySpc.c ****     cystatus status = CYRET_STARTED;
 797              		.loc 1 520 0
 798 0010 0723     		movs	r3, #7
 799 0012 FB60     		str	r3, [r7, #12]
 521:Generated_Source\PSoC5/CySpc.c **** 
 522:Generated_Source\PSoC5/CySpc.c ****     /* Make sure the SPC is ready to accept command */
 523:Generated_Source\PSoC5/CySpc.c ****     if(CY_SPC_IDLE)
 800              		.loc 1 523 0
 801 0014 144B     		ldr	r3, .L65
 802 0016 1B78     		ldrb	r3, [r3]
 803 0018 DBB2     		uxtb	r3, r3
 804 001a 03F00203 		and	r3, r3, #2
 805 001e 002B     		cmp	r3, #0
 806 0020 19D0     		beq	.L60
 524:Generated_Source\PSoC5/CySpc.c ****     {
 525:Generated_Source\PSoC5/CySpc.c ****         CY_SPC_CPU_DATA_REG = CY_SPC_KEY_ONE;
 807              		.loc 1 525 0
 808 0022 124B     		ldr	r3, .L65+4
 809 0024 B622     		movs	r2, #182
 810 0026 1A70     		strb	r2, [r3]
 526:Generated_Source\PSoC5/CySpc.c ****         CY_SPC_CPU_DATA_REG = CY_SPC_KEY_TWO(CY_SPC_CMD_ER_SECTOR);
 811              		.loc 1 526 0
 812 0028 104B     		ldr	r3, .L65+4
 813 002a DB22     		movs	r2, #219
 814 002c 1A70     		strb	r2, [r3]
 527:Generated_Source\PSoC5/CySpc.c ****         CY_SPC_CPU_DATA_REG = CY_SPC_CMD_ER_SECTOR;
 815              		.loc 1 527 0
 816 002e 0F4B     		ldr	r3, .L65+4
 817 0030 0822     		movs	r2, #8
 818 0032 1A70     		strb	r2, [r3]
 528:Generated_Source\PSoC5/CySpc.c **** 
 529:Generated_Source\PSoC5/CySpc.c ****         /* Make sure the command was accepted */
 530:Generated_Source\PSoC5/CySpc.c ****         if(CY_SPC_BUSY)
 819              		.loc 1 530 0
 820 0034 0C4B     		ldr	r3, .L65
 821 0036 1B78     		ldrb	r3, [r3]
 822 0038 DBB2     		uxtb	r3, r3
ARM GAS  C:\Users\HPz420\AppData\Local\Temp\ccy8AjEg.s 			page 25


 823 003a 03F00203 		and	r3, r3, #2
 824 003e 002B     		cmp	r3, #0
 825 0040 06D1     		bne	.L61
 531:Generated_Source\PSoC5/CySpc.c ****         {
 532:Generated_Source\PSoC5/CySpc.c ****             CY_SPC_CPU_DATA_REG = array;
 826              		.loc 1 532 0
 827 0042 0A4A     		ldr	r2, .L65+4
 828 0044 FB79     		ldrb	r3, [r7, #7]
 829 0046 1370     		strb	r3, [r2]
 533:Generated_Source\PSoC5/CySpc.c ****             CY_SPC_CPU_DATA_REG = sectorNumber;
 830              		.loc 1 533 0
 831 0048 084A     		ldr	r2, .L65+4
 832 004a BB79     		ldrb	r3, [r7, #6]
 833 004c 1370     		strb	r3, [r2]
 834 004e 04E0     		b	.L63
 835              	.L61:
 534:Generated_Source\PSoC5/CySpc.c ****         }
 535:Generated_Source\PSoC5/CySpc.c ****         else
 536:Generated_Source\PSoC5/CySpc.c ****         {
 537:Generated_Source\PSoC5/CySpc.c ****             status = CYRET_CANCELED;
 836              		.loc 1 537 0
 837 0050 0923     		movs	r3, #9
 838 0052 FB60     		str	r3, [r7, #12]
 839 0054 01E0     		b	.L63
 840              	.L60:
 538:Generated_Source\PSoC5/CySpc.c ****         }
 539:Generated_Source\PSoC5/CySpc.c ****     }
 540:Generated_Source\PSoC5/CySpc.c ****     else
 541:Generated_Source\PSoC5/CySpc.c ****     {
 542:Generated_Source\PSoC5/CySpc.c ****         status = CYRET_LOCKED;
 841              		.loc 1 542 0
 842 0056 0423     		movs	r3, #4
 843 0058 FB60     		str	r3, [r7, #12]
 844              	.L63:
 543:Generated_Source\PSoC5/CySpc.c ****     }
 544:Generated_Source\PSoC5/CySpc.c **** 
 545:Generated_Source\PSoC5/CySpc.c ****     return(status);
 845              		.loc 1 545 0
 846 005a FB68     		ldr	r3, [r7, #12]
 546:Generated_Source\PSoC5/CySpc.c **** }
 847              		.loc 1 546 0
 848 005c 1846     		mov	r0, r3
 849 005e 1437     		adds	r7, r7, #20
 850              		.cfi_def_cfa_offset 4
 851 0060 BD46     		mov	sp, r7
 852              		.cfi_def_cfa_register 13
 853              		@ sp needed
 854 0062 80BC     		pop	{r7}
 855              		.cfi_restore 7
 856              		.cfi_def_cfa_offset 0
 857 0064 7047     		bx	lr
 858              	.L66:
 859 0066 00BF     		.align	2
 860              	.L65:
 861 0068 22470040 		.word	1073760034
 862 006c 20470040 		.word	1073760032
 863              		.cfi_endproc
ARM GAS  C:\Users\HPz420\AppData\Local\Temp\ccy8AjEg.s 			page 26


 864              	.LFE7:
 865              		.size	CySpcEraseSector, .-CySpcEraseSector
 866              		.section	.text.CySpcGetTemp,"ax",%progbits
 867              		.align	2
 868              		.global	CySpcGetTemp
 869              		.thumb
 870              		.thumb_func
 871              		.type	CySpcGetTemp, %function
 872              	CySpcGetTemp:
 873              	.LFB8:
 547:Generated_Source\PSoC5/CySpc.c **** 
 548:Generated_Source\PSoC5/CySpc.c **** 
 549:Generated_Source\PSoC5/CySpc.c **** /*******************************************************************************
 550:Generated_Source\PSoC5/CySpc.c **** * Function Name: CySpcGetTemp
 551:Generated_Source\PSoC5/CySpc.c **** ********************************************************************************
 552:Generated_Source\PSoC5/CySpc.c **** * Summary:
 553:Generated_Source\PSoC5/CySpc.c **** *  Returns the internal die temperature
 554:Generated_Source\PSoC5/CySpc.c **** *
 555:Generated_Source\PSoC5/CySpc.c **** * Parameters:
 556:Generated_Source\PSoC5/CySpc.c **** *  uint8 numSamples:
 557:Generated_Source\PSoC5/CySpc.c **** *   Number of samples. Valid values are 1-5, resulting in 2 - 32 samples
 558:Generated_Source\PSoC5/CySpc.c **** *   respectively.
 559:Generated_Source\PSoC5/CySpc.c **** *
 560:Generated_Source\PSoC5/CySpc.c **** * uint16 timerPeriod:
 561:Generated_Source\PSoC5/CySpc.c **** *   Number of ADC ACLK cycles. A valid 14 bit value is accepted, higher 2 bits
 562:Generated_Source\PSoC5/CySpc.c **** *   of 16 bit values are ignored.
 563:Generated_Source\PSoC5/CySpc.c **** *
 564:Generated_Source\PSoC5/CySpc.c **** * uint8 clkDivSelect:
 565:Generated_Source\PSoC5/CySpc.c **** *   ADC ACLK clock divide value. Valid values are 2 - 225.
 566:Generated_Source\PSoC5/CySpc.c **** *
 567:Generated_Source\PSoC5/CySpc.c **** * Return:
 568:Generated_Source\PSoC5/CySpc.c **** *  CYRET_STARTED
 569:Generated_Source\PSoC5/CySpc.c **** *  CYRET_CANCELED
 570:Generated_Source\PSoC5/CySpc.c **** *  CYRET_LOCKED
 571:Generated_Source\PSoC5/CySpc.c **** *
 572:Generated_Source\PSoC5/CySpc.c **** *******************************************************************************/
 573:Generated_Source\PSoC5/CySpc.c **** cystatus CySpcGetTemp(uint8 numSamples)
 574:Generated_Source\PSoC5/CySpc.c **** {
 874              		.loc 1 574 0
 875              		.cfi_startproc
 876              		@ args = 0, pretend = 0, frame = 16
 877              		@ frame_needed = 1, uses_anonymous_args = 0
 878              		@ link register save eliminated.
 879 0000 80B4     		push	{r7}
 880              		.cfi_def_cfa_offset 4
 881              		.cfi_offset 7, -4
 882 0002 85B0     		sub	sp, sp, #20
 883              		.cfi_def_cfa_offset 24
 884 0004 00AF     		add	r7, sp, #0
 885              		.cfi_def_cfa_register 7
 886 0006 0346     		mov	r3, r0
 887 0008 FB71     		strb	r3, [r7, #7]
 575:Generated_Source\PSoC5/CySpc.c ****     cystatus status = CYRET_STARTED;
 888              		.loc 1 575 0
 889 000a 0723     		movs	r3, #7
 890 000c FB60     		str	r3, [r7, #12]
 576:Generated_Source\PSoC5/CySpc.c **** 
ARM GAS  C:\Users\HPz420\AppData\Local\Temp\ccy8AjEg.s 			page 27


 577:Generated_Source\PSoC5/CySpc.c ****     /* Make sure the SPC is ready to accept command */
 578:Generated_Source\PSoC5/CySpc.c ****     if(CY_SPC_IDLE)
 891              		.loc 1 578 0
 892 000e 134B     		ldr	r3, .L73
 893 0010 1B78     		ldrb	r3, [r3]
 894 0012 DBB2     		uxtb	r3, r3
 895 0014 03F00203 		and	r3, r3, #2
 896 0018 002B     		cmp	r3, #0
 897 001a 16D0     		beq	.L68
 579:Generated_Source\PSoC5/CySpc.c ****     {
 580:Generated_Source\PSoC5/CySpc.c ****         CY_SPC_CPU_DATA_REG = CY_SPC_KEY_ONE;
 898              		.loc 1 580 0
 899 001c 104B     		ldr	r3, .L73+4
 900 001e B622     		movs	r2, #182
 901 0020 1A70     		strb	r2, [r3]
 581:Generated_Source\PSoC5/CySpc.c ****         CY_SPC_CPU_DATA_REG = CY_SPC_KEY_TWO(CY_SPC_CMD_GET_TEMP);
 902              		.loc 1 581 0
 903 0022 0F4B     		ldr	r3, .L73+4
 904 0024 E122     		movs	r2, #225
 905 0026 1A70     		strb	r2, [r3]
 582:Generated_Source\PSoC5/CySpc.c ****         CY_SPC_CPU_DATA_REG = CY_SPC_CMD_GET_TEMP;
 906              		.loc 1 582 0
 907 0028 0D4B     		ldr	r3, .L73+4
 908 002a 0E22     		movs	r2, #14
 909 002c 1A70     		strb	r2, [r3]
 583:Generated_Source\PSoC5/CySpc.c **** 
 584:Generated_Source\PSoC5/CySpc.c ****         /* Make sure the command was accepted */
 585:Generated_Source\PSoC5/CySpc.c ****         if(CY_SPC_BUSY)
 910              		.loc 1 585 0
 911 002e 0B4B     		ldr	r3, .L73
 912 0030 1B78     		ldrb	r3, [r3]
 913 0032 DBB2     		uxtb	r3, r3
 914 0034 03F00203 		and	r3, r3, #2
 915 0038 002B     		cmp	r3, #0
 916 003a 03D1     		bne	.L69
 586:Generated_Source\PSoC5/CySpc.c ****         {
 587:Generated_Source\PSoC5/CySpc.c ****             CY_SPC_CPU_DATA_REG = numSamples;
 917              		.loc 1 587 0
 918 003c 084A     		ldr	r2, .L73+4
 919 003e FB79     		ldrb	r3, [r7, #7]
 920 0040 1370     		strb	r3, [r2]
 921 0042 04E0     		b	.L71
 922              	.L69:
 588:Generated_Source\PSoC5/CySpc.c ****         }
 589:Generated_Source\PSoC5/CySpc.c ****         else
 590:Generated_Source\PSoC5/CySpc.c ****         {
 591:Generated_Source\PSoC5/CySpc.c ****             status = CYRET_CANCELED;
 923              		.loc 1 591 0
 924 0044 0923     		movs	r3, #9
 925 0046 FB60     		str	r3, [r7, #12]
 926 0048 01E0     		b	.L71
 927              	.L68:
 592:Generated_Source\PSoC5/CySpc.c ****         }
 593:Generated_Source\PSoC5/CySpc.c ****     }
 594:Generated_Source\PSoC5/CySpc.c ****     else
 595:Generated_Source\PSoC5/CySpc.c ****     {
 596:Generated_Source\PSoC5/CySpc.c ****         status = CYRET_LOCKED;
ARM GAS  C:\Users\HPz420\AppData\Local\Temp\ccy8AjEg.s 			page 28


 928              		.loc 1 596 0
 929 004a 0423     		movs	r3, #4
 930 004c FB60     		str	r3, [r7, #12]
 931              	.L71:
 597:Generated_Source\PSoC5/CySpc.c ****     }
 598:Generated_Source\PSoC5/CySpc.c **** 
 599:Generated_Source\PSoC5/CySpc.c ****     return(status);
 932              		.loc 1 599 0
 933 004e FB68     		ldr	r3, [r7, #12]
 600:Generated_Source\PSoC5/CySpc.c **** }
 934              		.loc 1 600 0
 935 0050 1846     		mov	r0, r3
 936 0052 1437     		adds	r7, r7, #20
 937              		.cfi_def_cfa_offset 4
 938 0054 BD46     		mov	sp, r7
 939              		.cfi_def_cfa_register 13
 940              		@ sp needed
 941 0056 80BC     		pop	{r7}
 942              		.cfi_restore 7
 943              		.cfi_def_cfa_offset 0
 944 0058 7047     		bx	lr
 945              	.L74:
 946 005a 00BF     		.align	2
 947              	.L73:
 948 005c 22470040 		.word	1073760034
 949 0060 20470040 		.word	1073760032
 950              		.cfi_endproc
 951              	.LFE8:
 952              		.size	CySpcGetTemp, .-CySpcGetTemp
 953              		.section	.text.CySpcLock,"ax",%progbits
 954              		.align	2
 955              		.global	CySpcLock
 956              		.thumb
 957              		.thumb_func
 958              		.type	CySpcLock, %function
 959              	CySpcLock:
 960              	.LFB9:
 601:Generated_Source\PSoC5/CySpc.c **** 
 602:Generated_Source\PSoC5/CySpc.c **** 
 603:Generated_Source\PSoC5/CySpc.c **** /*******************************************************************************
 604:Generated_Source\PSoC5/CySpc.c **** * Function Name: CySpcLock
 605:Generated_Source\PSoC5/CySpc.c **** ********************************************************************************
 606:Generated_Source\PSoC5/CySpc.c **** * Summary:
 607:Generated_Source\PSoC5/CySpc.c **** *  Locks the SPC so it can not be used by someone else:
 608:Generated_Source\PSoC5/CySpc.c **** *   - Saves wait-pipeline enable state and enable pipeline (PSoC5)
 609:Generated_Source\PSoC5/CySpc.c **** *
 610:Generated_Source\PSoC5/CySpc.c **** * Parameters:
 611:Generated_Source\PSoC5/CySpc.c **** *  Note
 612:Generated_Source\PSoC5/CySpc.c **** *
 613:Generated_Source\PSoC5/CySpc.c **** * Return:
 614:Generated_Source\PSoC5/CySpc.c **** *  CYRET_SUCCESS - if the resource was free.
 615:Generated_Source\PSoC5/CySpc.c **** *  CYRET_LOCKED  - if the SPC is in use.
 616:Generated_Source\PSoC5/CySpc.c **** *
 617:Generated_Source\PSoC5/CySpc.c **** *******************************************************************************/
 618:Generated_Source\PSoC5/CySpc.c **** cystatus CySpcLock(void)
 619:Generated_Source\PSoC5/CySpc.c **** {
 961              		.loc 1 619 0
ARM GAS  C:\Users\HPz420\AppData\Local\Temp\ccy8AjEg.s 			page 29


 962              		.cfi_startproc
 963              		@ args = 0, pretend = 0, frame = 8
 964              		@ frame_needed = 1, uses_anonymous_args = 0
 965 0000 80B5     		push	{r7, lr}
 966              		.cfi_def_cfa_offset 8
 967              		.cfi_offset 7, -8
 968              		.cfi_offset 14, -4
 969 0002 82B0     		sub	sp, sp, #8
 970              		.cfi_def_cfa_offset 16
 971 0004 00AF     		add	r7, sp, #0
 972              		.cfi_def_cfa_register 7
 620:Generated_Source\PSoC5/CySpc.c ****     cystatus status = CYRET_LOCKED;
 973              		.loc 1 620 0
 974 0006 0423     		movs	r3, #4
 975 0008 7B60     		str	r3, [r7, #4]
 621:Generated_Source\PSoC5/CySpc.c ****     uint8 interruptState;
 622:Generated_Source\PSoC5/CySpc.c **** 
 623:Generated_Source\PSoC5/CySpc.c ****     /* Enter critical section */
 624:Generated_Source\PSoC5/CySpc.c ****     interruptState = CyEnterCriticalSection();
 976              		.loc 1 624 0
 977 000a FFF7FEFF 		bl	CyEnterCriticalSection
 978 000e 0346     		mov	r3, r0
 979 0010 FB70     		strb	r3, [r7, #3]
 625:Generated_Source\PSoC5/CySpc.c **** 
 626:Generated_Source\PSoC5/CySpc.c ****     if(CY_SPC_UNLOCKED == SpcLockState)
 980              		.loc 1 626 0
 981 0012 124B     		ldr	r3, .L78
 982 0014 1B78     		ldrb	r3, [r3]	@ zero_extendqisi2
 983 0016 002B     		cmp	r3, #0
 984 0018 16D1     		bne	.L76
 627:Generated_Source\PSoC5/CySpc.c ****     {
 628:Generated_Source\PSoC5/CySpc.c ****         SpcLockState = CY_SPC_LOCKED;
 985              		.loc 1 628 0
 986 001a 104B     		ldr	r3, .L78
 987 001c 0122     		movs	r2, #1
 988 001e 1A70     		strb	r2, [r3]
 629:Generated_Source\PSoC5/CySpc.c ****         status = CYRET_SUCCESS;
 989              		.loc 1 629 0
 990 0020 0023     		movs	r3, #0
 991 0022 7B60     		str	r3, [r7, #4]
 630:Generated_Source\PSoC5/CySpc.c **** 
 631:Generated_Source\PSoC5/CySpc.c ****         #if(CY_PSOC5)
 632:Generated_Source\PSoC5/CySpc.c **** 
 633:Generated_Source\PSoC5/CySpc.c ****             if(0u != (CY_SPC_CPU_WAITPIPE_REG & CY_SPC_CPU_WAITPIPE_BYPASS))
 992              		.loc 1 633 0
 993 0024 0E4B     		ldr	r3, .L78+4
 994 0026 1B68     		ldr	r3, [r3]
 995 0028 03F00103 		and	r3, r3, #1
 996 002c 002B     		cmp	r3, #0
 997 002e 0BD0     		beq	.L76
 634:Generated_Source\PSoC5/CySpc.c ****             {
 635:Generated_Source\PSoC5/CySpc.c ****                 /* Enable pipeline registers */
 636:Generated_Source\PSoC5/CySpc.c ****                 CY_SPC_CPU_WAITPIPE_REG &= ((uint32)(~CY_SPC_CPU_WAITPIPE_BYPASS));
 998              		.loc 1 636 0
 999 0030 0B4A     		ldr	r2, .L78+4
 1000 0032 0B4B     		ldr	r3, .L78+4
 1001 0034 1B68     		ldr	r3, [r3]
ARM GAS  C:\Users\HPz420\AppData\Local\Temp\ccy8AjEg.s 			page 30


 1002 0036 23F00103 		bic	r3, r3, #1
 1003 003a 1360     		str	r3, [r2]
 637:Generated_Source\PSoC5/CySpc.c **** 
 638:Generated_Source\PSoC5/CySpc.c ****                 /* At least 2 NOP instructions are recommended */
 639:Generated_Source\PSoC5/CySpc.c ****                 CY_NOP;
 1004              		.loc 1 639 0
 1005              		.syntax unified
 1006              	@ 639 "Generated_Source\PSoC5\CySpc.c" 1
 1007 003c 00BF     		NOP
 1008              	
 1009              	@ 0 "" 2
 640:Generated_Source\PSoC5/CySpc.c ****                 CY_NOP;
 1010              		.loc 1 640 0
 1011              	@ 640 "Generated_Source\PSoC5\CySpc.c" 1
 1012 003e 00BF     		NOP
 1013              	
 1014              	@ 0 "" 2
 641:Generated_Source\PSoC5/CySpc.c ****                 CY_NOP;
 1015              		.loc 1 641 0
 1016              	@ 641 "Generated_Source\PSoC5\CySpc.c" 1
 1017 0040 00BF     		NOP
 1018              	
 1019              	@ 0 "" 2
 642:Generated_Source\PSoC5/CySpc.c **** 
 643:Generated_Source\PSoC5/CySpc.c ****                 spcWaitPipeBypass = CY_SPC_CPU_WAITPIPE_BYPASS;
 1020              		.loc 1 643 0
 1021              		.thumb
 1022              		.syntax unified
 1023 0042 084B     		ldr	r3, .L78+8
 1024 0044 0122     		movs	r2, #1
 1025 0046 1A60     		str	r2, [r3]
 1026              	.L76:
 644:Generated_Source\PSoC5/CySpc.c ****             }
 645:Generated_Source\PSoC5/CySpc.c **** 
 646:Generated_Source\PSoC5/CySpc.c ****         #endif  /* (CY_PSOC5) */
 647:Generated_Source\PSoC5/CySpc.c ****     }
 648:Generated_Source\PSoC5/CySpc.c **** 
 649:Generated_Source\PSoC5/CySpc.c ****     /* Exit critical section */
 650:Generated_Source\PSoC5/CySpc.c ****     CyExitCriticalSection(interruptState);
 1027              		.loc 1 650 0
 1028 0048 FB78     		ldrb	r3, [r7, #3]	@ zero_extendqisi2
 1029 004a 1846     		mov	r0, r3
 1030 004c FFF7FEFF 		bl	CyExitCriticalSection
 651:Generated_Source\PSoC5/CySpc.c **** 
 652:Generated_Source\PSoC5/CySpc.c ****     return(status);
 1031              		.loc 1 652 0
 1032 0050 7B68     		ldr	r3, [r7, #4]
 653:Generated_Source\PSoC5/CySpc.c **** }
 1033              		.loc 1 653 0
 1034 0052 1846     		mov	r0, r3
 1035 0054 0837     		adds	r7, r7, #8
 1036              		.cfi_def_cfa_offset 8
 1037 0056 BD46     		mov	sp, r7
 1038              		.cfi_def_cfa_register 13
 1039              		@ sp needed
 1040 0058 80BD     		pop	{r7, pc}
 1041              	.L79:
ARM GAS  C:\Users\HPz420\AppData\Local\Temp\ccy8AjEg.s 			page 31


 1042 005a 00BF     		.align	2
 1043              	.L78:
 1044 005c 00000000 		.word	SpcLockState
 1045 0060 04000840 		.word	1074266116
 1046 0064 04000000 		.word	spcWaitPipeBypass
 1047              		.cfi_endproc
 1048              	.LFE9:
 1049              		.size	CySpcLock, .-CySpcLock
 1050              		.section	.text.CySpcUnlock,"ax",%progbits
 1051              		.align	2
 1052              		.global	CySpcUnlock
 1053              		.thumb
 1054              		.thumb_func
 1055              		.type	CySpcUnlock, %function
 1056              	CySpcUnlock:
 1057              	.LFB10:
 654:Generated_Source\PSoC5/CySpc.c **** 
 655:Generated_Source\PSoC5/CySpc.c **** 
 656:Generated_Source\PSoC5/CySpc.c **** /*******************************************************************************
 657:Generated_Source\PSoC5/CySpc.c **** * Function Name: CySpcUnlock
 658:Generated_Source\PSoC5/CySpc.c **** ********************************************************************************
 659:Generated_Source\PSoC5/CySpc.c **** * Summary:
 660:Generated_Source\PSoC5/CySpc.c **** *  Unlocks the SPC so it can be used by someone else:
 661:Generated_Source\PSoC5/CySpc.c **** *   - Restores wait-pipeline enable state (PSoC5)
 662:Generated_Source\PSoC5/CySpc.c **** *
 663:Generated_Source\PSoC5/CySpc.c **** * Parameters:
 664:Generated_Source\PSoC5/CySpc.c **** *  None
 665:Generated_Source\PSoC5/CySpc.c **** *
 666:Generated_Source\PSoC5/CySpc.c **** * Return:
 667:Generated_Source\PSoC5/CySpc.c **** *  None
 668:Generated_Source\PSoC5/CySpc.c **** *
 669:Generated_Source\PSoC5/CySpc.c **** *******************************************************************************/
 670:Generated_Source\PSoC5/CySpc.c **** void CySpcUnlock(void)
 671:Generated_Source\PSoC5/CySpc.c **** {
 1058              		.loc 1 671 0
 1059              		.cfi_startproc
 1060              		@ args = 0, pretend = 0, frame = 8
 1061              		@ frame_needed = 1, uses_anonymous_args = 0
 1062 0000 80B5     		push	{r7, lr}
 1063              		.cfi_def_cfa_offset 8
 1064              		.cfi_offset 7, -8
 1065              		.cfi_offset 14, -4
 1066 0002 82B0     		sub	sp, sp, #8
 1067              		.cfi_def_cfa_offset 16
 1068 0004 00AF     		add	r7, sp, #0
 1069              		.cfi_def_cfa_register 7
 672:Generated_Source\PSoC5/CySpc.c ****     uint8 interruptState;
 673:Generated_Source\PSoC5/CySpc.c **** 
 674:Generated_Source\PSoC5/CySpc.c ****     /* Enter critical section */
 675:Generated_Source\PSoC5/CySpc.c ****     interruptState = CyEnterCriticalSection();
 1070              		.loc 1 675 0
 1071 0006 FFF7FEFF 		bl	CyEnterCriticalSection
 1072 000a 0346     		mov	r3, r0
 1073 000c FB71     		strb	r3, [r7, #7]
 676:Generated_Source\PSoC5/CySpc.c **** 
 677:Generated_Source\PSoC5/CySpc.c ****     /* Release the SPC object */
 678:Generated_Source\PSoC5/CySpc.c ****     SpcLockState = CY_SPC_UNLOCKED;
ARM GAS  C:\Users\HPz420\AppData\Local\Temp\ccy8AjEg.s 			page 32


 1074              		.loc 1 678 0
 1075 000e 0D4B     		ldr	r3, .L82
 1076 0010 0022     		movs	r2, #0
 1077 0012 1A70     		strb	r2, [r3]
 679:Generated_Source\PSoC5/CySpc.c **** 
 680:Generated_Source\PSoC5/CySpc.c ****     #if(CY_PSOC5)
 681:Generated_Source\PSoC5/CySpc.c **** 
 682:Generated_Source\PSoC5/CySpc.c ****         if(CY_SPC_CPU_WAITPIPE_BYPASS == spcWaitPipeBypass)
 1078              		.loc 1 682 0
 1079 0014 0C4B     		ldr	r3, .L82+4
 1080 0016 1B68     		ldr	r3, [r3]
 1081 0018 012B     		cmp	r3, #1
 1082 001a 0BD1     		bne	.L81
 683:Generated_Source\PSoC5/CySpc.c ****         {
 684:Generated_Source\PSoC5/CySpc.c ****             /* Force to bypass pipeline registers */
 685:Generated_Source\PSoC5/CySpc.c ****             CY_SPC_CPU_WAITPIPE_REG |= CY_SPC_CPU_WAITPIPE_BYPASS;
 1083              		.loc 1 685 0
 1084 001c 0B4A     		ldr	r2, .L82+8
 1085 001e 0B4B     		ldr	r3, .L82+8
 1086 0020 1B68     		ldr	r3, [r3]
 1087 0022 43F00103 		orr	r3, r3, #1
 1088 0026 1360     		str	r3, [r2]
 686:Generated_Source\PSoC5/CySpc.c **** 
 687:Generated_Source\PSoC5/CySpc.c ****             /* At least 2 NOP instructions are recommended */
 688:Generated_Source\PSoC5/CySpc.c ****             CY_NOP;
 1089              		.loc 1 688 0
 1090              		.syntax unified
 1091              	@ 688 "Generated_Source\PSoC5\CySpc.c" 1
 1092 0028 00BF     		NOP
 1093              	
 1094              	@ 0 "" 2
 689:Generated_Source\PSoC5/CySpc.c ****             CY_NOP;
 1095              		.loc 1 689 0
 1096              	@ 689 "Generated_Source\PSoC5\CySpc.c" 1
 1097 002a 00BF     		NOP
 1098              	
 1099              	@ 0 "" 2
 690:Generated_Source\PSoC5/CySpc.c ****             CY_NOP;
 1100              		.loc 1 690 0
 1101              	@ 690 "Generated_Source\PSoC5\CySpc.c" 1
 1102 002c 00BF     		NOP
 1103              	
 1104              	@ 0 "" 2
 691:Generated_Source\PSoC5/CySpc.c **** 
 692:Generated_Source\PSoC5/CySpc.c ****             spcWaitPipeBypass = 0u;
 1105              		.loc 1 692 0
 1106              		.thumb
 1107              		.syntax unified
 1108 002e 064B     		ldr	r3, .L82+4
 1109 0030 0022     		movs	r2, #0
 1110 0032 1A60     		str	r2, [r3]
 1111              	.L81:
 693:Generated_Source\PSoC5/CySpc.c ****         }
 694:Generated_Source\PSoC5/CySpc.c **** 
 695:Generated_Source\PSoC5/CySpc.c ****     #endif  /* (CY_PSOC5) */
 696:Generated_Source\PSoC5/CySpc.c **** 
 697:Generated_Source\PSoC5/CySpc.c ****     /* Exit critical section */
ARM GAS  C:\Users\HPz420\AppData\Local\Temp\ccy8AjEg.s 			page 33


 698:Generated_Source\PSoC5/CySpc.c ****     CyExitCriticalSection(interruptState);
 1112              		.loc 1 698 0
 1113 0034 FB79     		ldrb	r3, [r7, #7]	@ zero_extendqisi2
 1114 0036 1846     		mov	r0, r3
 1115 0038 FFF7FEFF 		bl	CyExitCriticalSection
 699:Generated_Source\PSoC5/CySpc.c **** }
 1116              		.loc 1 699 0
 1117 003c 00BF     		nop
 1118 003e 0837     		adds	r7, r7, #8
 1119              		.cfi_def_cfa_offset 8
 1120 0040 BD46     		mov	sp, r7
 1121              		.cfi_def_cfa_register 13
 1122              		@ sp needed
 1123 0042 80BD     		pop	{r7, pc}
 1124              	.L83:
 1125              		.align	2
 1126              	.L82:
 1127 0044 00000000 		.word	SpcLockState
 1128 0048 04000000 		.word	spcWaitPipeBypass
 1129 004c 04000840 		.word	1074266116
 1130              		.cfi_endproc
 1131              	.LFE10:
 1132              		.size	CySpcUnlock, .-CySpcUnlock
 1133              		.section	.text.CySpcGetAlgorithm,"ax",%progbits
 1134              		.align	2
 1135              		.global	CySpcGetAlgorithm
 1136              		.thumb
 1137              		.thumb_func
 1138              		.type	CySpcGetAlgorithm, %function
 1139              	CySpcGetAlgorithm:
 1140              	.LFB11:
 700:Generated_Source\PSoC5/CySpc.c **** 
 701:Generated_Source\PSoC5/CySpc.c **** 
 702:Generated_Source\PSoC5/CySpc.c **** /*******************************************************************************
 703:Generated_Source\PSoC5/CySpc.c **** * Function Name: CySpcGetAlgorithm
 704:Generated_Source\PSoC5/CySpc.c **** ********************************************************************************
 705:Generated_Source\PSoC5/CySpc.c **** * Summary:
 706:Generated_Source\PSoC5/CySpc.c **** *  Downloads SPC algorithm from SPC SROM into SRAM.
 707:Generated_Source\PSoC5/CySpc.c **** *
 708:Generated_Source\PSoC5/CySpc.c **** * Parameters:
 709:Generated_Source\PSoC5/CySpc.c **** *  None
 710:Generated_Source\PSoC5/CySpc.c **** *
 711:Generated_Source\PSoC5/CySpc.c **** * Return:
 712:Generated_Source\PSoC5/CySpc.c **** *  CYRET_STARTED
 713:Generated_Source\PSoC5/CySpc.c **** *  CYRET_LOCKED
 714:Generated_Source\PSoC5/CySpc.c **** *
 715:Generated_Source\PSoC5/CySpc.c **** *******************************************************************************/
 716:Generated_Source\PSoC5/CySpc.c **** cystatus CySpcGetAlgorithm(void)
 717:Generated_Source\PSoC5/CySpc.c **** {
 1141              		.loc 1 717 0
 1142              		.cfi_startproc
 1143              		@ args = 0, pretend = 0, frame = 8
 1144              		@ frame_needed = 1, uses_anonymous_args = 0
 1145              		@ link register save eliminated.
 1146 0000 80B4     		push	{r7}
 1147              		.cfi_def_cfa_offset 4
 1148              		.cfi_offset 7, -4
ARM GAS  C:\Users\HPz420\AppData\Local\Temp\ccy8AjEg.s 			page 34


 1149 0002 83B0     		sub	sp, sp, #12
 1150              		.cfi_def_cfa_offset 16
 1151 0004 00AF     		add	r7, sp, #0
 1152              		.cfi_def_cfa_register 7
 718:Generated_Source\PSoC5/CySpc.c ****     cystatus status = CYRET_STARTED;
 1153              		.loc 1 718 0
 1154 0006 0723     		movs	r3, #7
 1155 0008 7B60     		str	r3, [r7, #4]
 719:Generated_Source\PSoC5/CySpc.c **** 
 720:Generated_Source\PSoC5/CySpc.c ****     /* Make sure the SPC is ready to accept command */
 721:Generated_Source\PSoC5/CySpc.c ****     if(CY_SPC_IDLE)
 1156              		.loc 1 721 0
 1157 000a 0C4B     		ldr	r3, .L88
 1158 000c 1B78     		ldrb	r3, [r3]
 1159 000e DBB2     		uxtb	r3, r3
 1160 0010 03F00203 		and	r3, r3, #2
 1161 0014 002B     		cmp	r3, #0
 1162 0016 09D0     		beq	.L85
 722:Generated_Source\PSoC5/CySpc.c ****     {
 723:Generated_Source\PSoC5/CySpc.c ****         CY_SPC_CPU_DATA_REG = CY_SPC_KEY_ONE;
 1163              		.loc 1 723 0
 1164 0018 094B     		ldr	r3, .L88+4
 1165 001a B622     		movs	r2, #182
 1166 001c 1A70     		strb	r2, [r3]
 724:Generated_Source\PSoC5/CySpc.c ****         CY_SPC_CPU_DATA_REG = CY_SPC_KEY_TWO(CY_SPC_CMD_DWNLD_ALGORITHM);
 1167              		.loc 1 724 0
 1168 001e 084B     		ldr	r3, .L88+4
 1169 0020 E022     		movs	r2, #224
 1170 0022 1A70     		strb	r2, [r3]
 725:Generated_Source\PSoC5/CySpc.c ****         CY_SPC_CPU_DATA_REG = CY_SPC_CMD_DWNLD_ALGORITHM;
 1171              		.loc 1 725 0
 1172 0024 064B     		ldr	r3, .L88+4
 1173 0026 0D22     		movs	r2, #13
 1174 0028 1A70     		strb	r2, [r3]
 1175 002a 01E0     		b	.L86
 1176              	.L85:
 726:Generated_Source\PSoC5/CySpc.c ****     }
 727:Generated_Source\PSoC5/CySpc.c ****     else
 728:Generated_Source\PSoC5/CySpc.c ****     {
 729:Generated_Source\PSoC5/CySpc.c ****         status = CYRET_LOCKED;
 1177              		.loc 1 729 0
 1178 002c 0423     		movs	r3, #4
 1179 002e 7B60     		str	r3, [r7, #4]
 1180              	.L86:
 730:Generated_Source\PSoC5/CySpc.c ****     }
 731:Generated_Source\PSoC5/CySpc.c **** 
 732:Generated_Source\PSoC5/CySpc.c ****     return(status);
 1181              		.loc 1 732 0
 1182 0030 7B68     		ldr	r3, [r7, #4]
 733:Generated_Source\PSoC5/CySpc.c **** }
 1183              		.loc 1 733 0
 1184 0032 1846     		mov	r0, r3
 1185 0034 0C37     		adds	r7, r7, #12
 1186              		.cfi_def_cfa_offset 4
 1187 0036 BD46     		mov	sp, r7
 1188              		.cfi_def_cfa_register 13
 1189              		@ sp needed
ARM GAS  C:\Users\HPz420\AppData\Local\Temp\ccy8AjEg.s 			page 35


 1190 0038 80BC     		pop	{r7}
 1191              		.cfi_restore 7
 1192              		.cfi_def_cfa_offset 0
 1193 003a 7047     		bx	lr
 1194              	.L89:
 1195              		.align	2
 1196              	.L88:
 1197 003c 22470040 		.word	1073760034
 1198 0040 20470040 		.word	1073760032
 1199              		.cfi_endproc
 1200              	.LFE11:
 1201              		.size	CySpcGetAlgorithm, .-CySpcGetAlgorithm
 1202              		.text
 1203              	.Letext0:
 1204              		.file 2 "Generated_Source\\PSoC5\\cytypes.h"