ARM GAS  C:\Users\HPz420\AppData\Local\Temp\cchNsnDk.s 			page 1


   1              		.syntax unified
   2              		.cpu cortex-m3
   3              		.fpu softvfp
   4              		.eabi_attribute 20, 1
   5              		.eabi_attribute 21, 1
   6              		.eabi_attribute 23, 3
   7              		.eabi_attribute 24, 1
   8              		.eabi_attribute 25, 1
   9              		.eabi_attribute 26, 1
  10              		.eabi_attribute 30, 6
  11              		.eabi_attribute 34, 1
  12              		.eabi_attribute 18, 4
  13              		.thumb
  14              		.syntax unified
  15              		.file	"cyutils.c"
  16              		.text
  17              	.Ltext0:
  18              		.cfi_sections	.debug_frame
  19              		.section	.text.CySetReg24,"ax",%progbits
  20              		.align	2
  21              		.global	CySetReg24
  22              		.thumb
  23              		.thumb_func
  24              		.type	CySetReg24, %function
  25              	CySetReg24:
  26              	.LFB0:
  27              		.file 1 "Generated_Source\\PSoC5\\cyutils.c"
   1:Generated_Source\PSoC5/cyutils.c **** /*******************************************************************************
   2:Generated_Source\PSoC5/cyutils.c **** * FILENAME: cyutils.c
   3:Generated_Source\PSoC5/cyutils.c **** * Version 4.20
   4:Generated_Source\PSoC5/cyutils.c **** *
   5:Generated_Source\PSoC5/cyutils.c **** *  Description:
   6:Generated_Source\PSoC5/cyutils.c **** *   CyUtils provides a function to handle 24-bit value writes.
   7:Generated_Source\PSoC5/cyutils.c **** *
   8:Generated_Source\PSoC5/cyutils.c **** ********************************************************************************
   9:Generated_Source\PSoC5/cyutils.c **** * Copyright 2008-2014, Cypress Semiconductor Corporation.  All rights reserved.
  10:Generated_Source\PSoC5/cyutils.c **** * You may use this file only in accordance with the license, terms, conditions,
  11:Generated_Source\PSoC5/cyutils.c **** * disclaimers, and limitations in the end user license agreement accompanying
  12:Generated_Source\PSoC5/cyutils.c **** * the software package with which this file was provided.
  13:Generated_Source\PSoC5/cyutils.c **** *******************************************************************************/
  14:Generated_Source\PSoC5/cyutils.c **** 
  15:Generated_Source\PSoC5/cyutils.c **** #include "cytypes.h"
  16:Generated_Source\PSoC5/cyutils.c **** 
  17:Generated_Source\PSoC5/cyutils.c **** #if (!CY_PSOC3)
  18:Generated_Source\PSoC5/cyutils.c **** 
  19:Generated_Source\PSoC5/cyutils.c ****     /***************************************************************************
  20:Generated_Source\PSoC5/cyutils.c ****     * Function Name: CySetReg24
  21:Generated_Source\PSoC5/cyutils.c ****     ****************************************************************************
  22:Generated_Source\PSoC5/cyutils.c ****     *
  23:Generated_Source\PSoC5/cyutils.c ****     * Summary:
  24:Generated_Source\PSoC5/cyutils.c ****     *  Writes a 24-bit value to the specified register.
  25:Generated_Source\PSoC5/cyutils.c ****     *
  26:Generated_Source\PSoC5/cyutils.c ****     * Parameters:
  27:Generated_Source\PSoC5/cyutils.c ****     *  addr : the address where data must be written.
  28:Generated_Source\PSoC5/cyutils.c ****     *  value: the data that must be written.
  29:Generated_Source\PSoC5/cyutils.c ****     *
  30:Generated_Source\PSoC5/cyutils.c ****     * Return:
ARM GAS  C:\Users\HPz420\AppData\Local\Temp\cchNsnDk.s 			page 2


  31:Generated_Source\PSoC5/cyutils.c ****     *  None
  32:Generated_Source\PSoC5/cyutils.c ****     *
  33:Generated_Source\PSoC5/cyutils.c ****     * Reentrant:
  34:Generated_Source\PSoC5/cyutils.c ****     *  No
  35:Generated_Source\PSoC5/cyutils.c ****     *
  36:Generated_Source\PSoC5/cyutils.c ****     ***************************************************************************/
  37:Generated_Source\PSoC5/cyutils.c ****     void CySetReg24(uint32 volatile * addr, uint32 value)
  38:Generated_Source\PSoC5/cyutils.c ****     {
  28              		.loc 1 38 0
  29              		.cfi_startproc
  30              		@ args = 0, pretend = 0, frame = 16
  31              		@ frame_needed = 1, uses_anonymous_args = 0
  32              		@ link register save eliminated.
  33 0000 80B4     		push	{r7}
  34              		.cfi_def_cfa_offset 4
  35              		.cfi_offset 7, -4
  36 0002 85B0     		sub	sp, sp, #20
  37              		.cfi_def_cfa_offset 24
  38 0004 00AF     		add	r7, sp, #0
  39              		.cfi_def_cfa_register 7
  40 0006 7860     		str	r0, [r7, #4]
  41 0008 3960     		str	r1, [r7]
  39:Generated_Source\PSoC5/cyutils.c ****         uint8 volatile *tmpAddr;
  40:Generated_Source\PSoC5/cyutils.c **** 
  41:Generated_Source\PSoC5/cyutils.c ****         tmpAddr = (uint8 volatile *) addr;
  42              		.loc 1 41 0
  43 000a 7B68     		ldr	r3, [r7, #4]
  44 000c FB60     		str	r3, [r7, #12]
  42:Generated_Source\PSoC5/cyutils.c **** 
  43:Generated_Source\PSoC5/cyutils.c ****         tmpAddr[0u] = (uint8) value;
  45              		.loc 1 43 0
  46 000e 3B68     		ldr	r3, [r7]
  47 0010 DAB2     		uxtb	r2, r3
  48 0012 FB68     		ldr	r3, [r7, #12]
  49 0014 1A70     		strb	r2, [r3]
  44:Generated_Source\PSoC5/cyutils.c ****         tmpAddr[1u] = (uint8) (value >> 8u);
  50              		.loc 1 44 0
  51 0016 FB68     		ldr	r3, [r7, #12]
  52 0018 0133     		adds	r3, r3, #1
  53 001a 3A68     		ldr	r2, [r7]
  54 001c 120A     		lsrs	r2, r2, #8
  55 001e D2B2     		uxtb	r2, r2
  56 0020 1A70     		strb	r2, [r3]
  45:Generated_Source\PSoC5/cyutils.c ****         tmpAddr[2u] = (uint8) (value >> 16u);
  57              		.loc 1 45 0
  58 0022 FB68     		ldr	r3, [r7, #12]
  59 0024 0233     		adds	r3, r3, #2
  60 0026 3A68     		ldr	r2, [r7]
  61 0028 120C     		lsrs	r2, r2, #16
  62 002a D2B2     		uxtb	r2, r2
  63 002c 1A70     		strb	r2, [r3]
  46:Generated_Source\PSoC5/cyutils.c ****     }
  64              		.loc 1 46 0
  65 002e 00BF     		nop
  66 0030 1437     		adds	r7, r7, #20
  67              		.cfi_def_cfa_offset 4
  68 0032 BD46     		mov	sp, r7
ARM GAS  C:\Users\HPz420\AppData\Local\Temp\cchNsnDk.s 			page 3


  69              		.cfi_def_cfa_register 13
  70              		@ sp needed
  71 0034 80BC     		pop	{r7}
  72              		.cfi_restore 7
  73              		.cfi_def_cfa_offset 0
  74 0036 7047     		bx	lr
  75              		.cfi_endproc
  76              	.LFE0:
  77              		.size	CySetReg24, .-CySetReg24
  78              		.text
  79              	.Letext0:
  80              		.file 2 "Generated_Source\\PSoC5\\cytypes.h"