ARM GAS  C:\Users\HPz420\AppData\Local\Temp\ccvmBXi1.s 			page 1


   1              		.syntax unified
   2              		.cpu cortex-m3
   3              		.fpu softvfp
   4              		.eabi_attribute 20, 1
   5              		.eabi_attribute 21, 1
   6              		.eabi_attribute 23, 3
   7              		.eabi_attribute 24, 1
   8              		.eabi_attribute 25, 1
   9              		.eabi_attribute 26, 1
  10              		.eabi_attribute 30, 6
  11              		.eabi_attribute 34, 1
  12              		.eabi_attribute 18, 4
  13              		.thumb
  14              		.syntax unified
  15              		.file	"NSDSPI_RX_dma.c"
  16              		.text
  17              	.Ltext0:
  18              		.cfi_sections	.debug_frame
  19              		.global	NSDSPI_RX_DmaHandle
  20              		.data
  21              		.type	NSDSPI_RX_DmaHandle, %object
  22              		.size	NSDSPI_RX_DmaHandle, 1
  23              	NSDSPI_RX_DmaHandle:
  24 0000 FF       		.byte	-1
  25              		.section	.text.NSDSPI_RX_DmaInitialize,"ax",%progbits
  26              		.align	2
  27              		.global	NSDSPI_RX_DmaInitialize
  28              		.thumb
  29              		.thumb_func
  30              		.type	NSDSPI_RX_DmaInitialize, %function
  31              	NSDSPI_RX_DmaInitialize:
  32              	.LFB0:
  33              		.file 1 "Generated_Source\\PSoC5\\NSDSPI_RX_dma.c"
   1:Generated_Source\PSoC5/NSDSPI_RX_dma.c **** /***************************************************************************
   2:Generated_Source\PSoC5/NSDSPI_RX_dma.c **** * File Name: NSDSPI_RX_dma.c  
   3:Generated_Source\PSoC5/NSDSPI_RX_dma.c **** * Version 1.70
   4:Generated_Source\PSoC5/NSDSPI_RX_dma.c **** *
   5:Generated_Source\PSoC5/NSDSPI_RX_dma.c **** *  Description:
   6:Generated_Source\PSoC5/NSDSPI_RX_dma.c **** *   Provides an API for the DMAC component. The API includes functions
   7:Generated_Source\PSoC5/NSDSPI_RX_dma.c **** *   for the DMA controller, DMA channels and Transfer Descriptors.
   8:Generated_Source\PSoC5/NSDSPI_RX_dma.c **** *
   9:Generated_Source\PSoC5/NSDSPI_RX_dma.c **** *
  10:Generated_Source\PSoC5/NSDSPI_RX_dma.c **** *   Note:
  11:Generated_Source\PSoC5/NSDSPI_RX_dma.c **** *     This module requires the developer to finish or fill in the auto
  12:Generated_Source\PSoC5/NSDSPI_RX_dma.c **** *     generated funcions and setup the dma channel and TD's.
  13:Generated_Source\PSoC5/NSDSPI_RX_dma.c **** *
  14:Generated_Source\PSoC5/NSDSPI_RX_dma.c **** ********************************************************************************
  15:Generated_Source\PSoC5/NSDSPI_RX_dma.c **** * Copyright 2008-2010, Cypress Semiconductor Corporation.  All rights reserved.
  16:Generated_Source\PSoC5/NSDSPI_RX_dma.c **** * You may use this file only in accordance with the license, terms, conditions, 
  17:Generated_Source\PSoC5/NSDSPI_RX_dma.c **** * disclaimers, and limitations in the end user license agreement accompanying 
  18:Generated_Source\PSoC5/NSDSPI_RX_dma.c **** * the software package with which this file was provided.
  19:Generated_Source\PSoC5/NSDSPI_RX_dma.c **** ********************************************************************************/
  20:Generated_Source\PSoC5/NSDSPI_RX_dma.c **** #include <CYLIB.H>
  21:Generated_Source\PSoC5/NSDSPI_RX_dma.c **** #include <CYDMAC.H>
  22:Generated_Source\PSoC5/NSDSPI_RX_dma.c **** #include <NSDSPI_RX_dma.H>
  23:Generated_Source\PSoC5/NSDSPI_RX_dma.c **** 
  24:Generated_Source\PSoC5/NSDSPI_RX_dma.c **** 
ARM GAS  C:\Users\HPz420\AppData\Local\Temp\ccvmBXi1.s 			page 2


  25:Generated_Source\PSoC5/NSDSPI_RX_dma.c **** 
  26:Generated_Source\PSoC5/NSDSPI_RX_dma.c **** /****************************************************************************
  27:Generated_Source\PSoC5/NSDSPI_RX_dma.c **** * 
  28:Generated_Source\PSoC5/NSDSPI_RX_dma.c **** * The following defines are available in Cyfitter.h
  29:Generated_Source\PSoC5/NSDSPI_RX_dma.c **** * 
  30:Generated_Source\PSoC5/NSDSPI_RX_dma.c **** * 
  31:Generated_Source\PSoC5/NSDSPI_RX_dma.c **** * 
  32:Generated_Source\PSoC5/NSDSPI_RX_dma.c **** * NSDSPI_RX__DRQ_CTL_REG
  33:Generated_Source\PSoC5/NSDSPI_RX_dma.c **** * 
  34:Generated_Source\PSoC5/NSDSPI_RX_dma.c **** * 
  35:Generated_Source\PSoC5/NSDSPI_RX_dma.c **** * NSDSPI_RX__DRQ_NUMBER
  36:Generated_Source\PSoC5/NSDSPI_RX_dma.c **** * 
  37:Generated_Source\PSoC5/NSDSPI_RX_dma.c **** * Number of TD's used by this channel.
  38:Generated_Source\PSoC5/NSDSPI_RX_dma.c **** * NSDSPI_RX__NUMBEROF_TDS
  39:Generated_Source\PSoC5/NSDSPI_RX_dma.c **** * 
  40:Generated_Source\PSoC5/NSDSPI_RX_dma.c **** * Priority of this channel.
  41:Generated_Source\PSoC5/NSDSPI_RX_dma.c **** * NSDSPI_RX__PRIORITY
  42:Generated_Source\PSoC5/NSDSPI_RX_dma.c **** * 
  43:Generated_Source\PSoC5/NSDSPI_RX_dma.c **** * True if NSDSPI_RX_TERMIN_SEL is used.
  44:Generated_Source\PSoC5/NSDSPI_RX_dma.c **** * NSDSPI_RX__TERMIN_EN
  45:Generated_Source\PSoC5/NSDSPI_RX_dma.c **** * 
  46:Generated_Source\PSoC5/NSDSPI_RX_dma.c **** * TERMIN interrupt line to signal terminate.
  47:Generated_Source\PSoC5/NSDSPI_RX_dma.c **** * NSDSPI_RX__TERMIN_SEL
  48:Generated_Source\PSoC5/NSDSPI_RX_dma.c **** * 
  49:Generated_Source\PSoC5/NSDSPI_RX_dma.c **** * 
  50:Generated_Source\PSoC5/NSDSPI_RX_dma.c **** * True if NSDSPI_RX_TERMOUT0_SEL is used.
  51:Generated_Source\PSoC5/NSDSPI_RX_dma.c **** * NSDSPI_RX__TERMOUT0_EN
  52:Generated_Source\PSoC5/NSDSPI_RX_dma.c **** * 
  53:Generated_Source\PSoC5/NSDSPI_RX_dma.c **** * 
  54:Generated_Source\PSoC5/NSDSPI_RX_dma.c **** * TERMOUT0 interrupt line to signal completion.
  55:Generated_Source\PSoC5/NSDSPI_RX_dma.c **** * NSDSPI_RX__TERMOUT0_SEL
  56:Generated_Source\PSoC5/NSDSPI_RX_dma.c **** * 
  57:Generated_Source\PSoC5/NSDSPI_RX_dma.c **** * 
  58:Generated_Source\PSoC5/NSDSPI_RX_dma.c **** * True if NSDSPI_RX_TERMOUT1_SEL is used.
  59:Generated_Source\PSoC5/NSDSPI_RX_dma.c **** * NSDSPI_RX__TERMOUT1_EN
  60:Generated_Source\PSoC5/NSDSPI_RX_dma.c **** * 
  61:Generated_Source\PSoC5/NSDSPI_RX_dma.c **** * 
  62:Generated_Source\PSoC5/NSDSPI_RX_dma.c **** * TERMOUT1 interrupt line to signal completion.
  63:Generated_Source\PSoC5/NSDSPI_RX_dma.c **** * NSDSPI_RX__TERMOUT1_SEL
  64:Generated_Source\PSoC5/NSDSPI_RX_dma.c **** * 
  65:Generated_Source\PSoC5/NSDSPI_RX_dma.c **** ****************************************************************************/
  66:Generated_Source\PSoC5/NSDSPI_RX_dma.c **** 
  67:Generated_Source\PSoC5/NSDSPI_RX_dma.c **** 
  68:Generated_Source\PSoC5/NSDSPI_RX_dma.c **** /* Zero based index of NSDSPI_RX dma channel */
  69:Generated_Source\PSoC5/NSDSPI_RX_dma.c **** uint8 NSDSPI_RX_DmaHandle = DMA_INVALID_CHANNEL;
  70:Generated_Source\PSoC5/NSDSPI_RX_dma.c **** 
  71:Generated_Source\PSoC5/NSDSPI_RX_dma.c **** /*********************************************************************
  72:Generated_Source\PSoC5/NSDSPI_RX_dma.c **** * Function Name: uint8 NSDSPI_RX_DmaInitalize
  73:Generated_Source\PSoC5/NSDSPI_RX_dma.c **** **********************************************************************
  74:Generated_Source\PSoC5/NSDSPI_RX_dma.c **** * Summary:
  75:Generated_Source\PSoC5/NSDSPI_RX_dma.c **** *   Allocates and initialises a channel of the DMAC to be used by the
  76:Generated_Source\PSoC5/NSDSPI_RX_dma.c **** *   caller.
  77:Generated_Source\PSoC5/NSDSPI_RX_dma.c **** *
  78:Generated_Source\PSoC5/NSDSPI_RX_dma.c **** * Parameters:
  79:Generated_Source\PSoC5/NSDSPI_RX_dma.c **** *   BurstCount.
  80:Generated_Source\PSoC5/NSDSPI_RX_dma.c **** *       
  81:Generated_Source\PSoC5/NSDSPI_RX_dma.c **** *       
ARM GAS  C:\Users\HPz420\AppData\Local\Temp\ccvmBXi1.s 			page 3


  82:Generated_Source\PSoC5/NSDSPI_RX_dma.c **** *   ReqestPerBurst.
  83:Generated_Source\PSoC5/NSDSPI_RX_dma.c **** *       
  84:Generated_Source\PSoC5/NSDSPI_RX_dma.c **** *       
  85:Generated_Source\PSoC5/NSDSPI_RX_dma.c **** *   UpperSrcAddress.
  86:Generated_Source\PSoC5/NSDSPI_RX_dma.c **** *       
  87:Generated_Source\PSoC5/NSDSPI_RX_dma.c **** *       
  88:Generated_Source\PSoC5/NSDSPI_RX_dma.c **** *   UpperDestAddress.
  89:Generated_Source\PSoC5/NSDSPI_RX_dma.c **** *       
  90:Generated_Source\PSoC5/NSDSPI_RX_dma.c **** *
  91:Generated_Source\PSoC5/NSDSPI_RX_dma.c **** * Return:
  92:Generated_Source\PSoC5/NSDSPI_RX_dma.c **** *   The channel that can be used by the caller for DMA activity.
  93:Generated_Source\PSoC5/NSDSPI_RX_dma.c **** *   DMA_INVALID_CHANNEL (0xFF) if there are no channels left. 
  94:Generated_Source\PSoC5/NSDSPI_RX_dma.c **** *
  95:Generated_Source\PSoC5/NSDSPI_RX_dma.c **** *
  96:Generated_Source\PSoC5/NSDSPI_RX_dma.c **** *******************************************************************/
  97:Generated_Source\PSoC5/NSDSPI_RX_dma.c **** uint8 NSDSPI_RX_DmaInitialize(uint8 BurstCount, uint8 ReqestPerBurst, uint16 UpperSrcAddress, uint1
  98:Generated_Source\PSoC5/NSDSPI_RX_dma.c **** {
  34              		.loc 1 98 0
  35              		.cfi_startproc
  36              		@ args = 0, pretend = 0, frame = 8
  37              		@ frame_needed = 1, uses_anonymous_args = 0
  38 0000 90B5     		push	{r4, r7, lr}
  39              		.cfi_def_cfa_offset 12
  40              		.cfi_offset 4, -12
  41              		.cfi_offset 7, -8
  42              		.cfi_offset 14, -4
  43 0002 85B0     		sub	sp, sp, #20
  44              		.cfi_def_cfa_offset 32
  45 0004 02AF     		add	r7, sp, #8
  46              		.cfi_def_cfa 7, 24
  47 0006 0446     		mov	r4, r0
  48 0008 0846     		mov	r0, r1
  49 000a 1146     		mov	r1, r2
  50 000c 1A46     		mov	r2, r3
  51 000e 2346     		mov	r3, r4
  52 0010 FB71     		strb	r3, [r7, #7]
  53 0012 0346     		mov	r3, r0
  54 0014 BB71     		strb	r3, [r7, #6]
  55 0016 0B46     		mov	r3, r1	@ movhi
  56 0018 BB80     		strh	r3, [r7, #4]	@ movhi
  57 001a 1346     		mov	r3, r2	@ movhi
  58 001c 7B80     		strh	r3, [r7, #2]	@ movhi
  99:Generated_Source\PSoC5/NSDSPI_RX_dma.c **** 
 100:Generated_Source\PSoC5/NSDSPI_RX_dma.c ****     /* Allocate a DMA channel. */
 101:Generated_Source\PSoC5/NSDSPI_RX_dma.c ****     NSDSPI_RX_DmaHandle = (uint8)NSDSPI_RX__DRQ_NUMBER;
  59              		.loc 1 101 0
  60 001e 104B     		ldr	r3, .L3
  61 0020 0022     		movs	r2, #0
  62 0022 1A70     		strb	r2, [r3]
 102:Generated_Source\PSoC5/NSDSPI_RX_dma.c **** 
 103:Generated_Source\PSoC5/NSDSPI_RX_dma.c ****     /* Configure the channel. */
 104:Generated_Source\PSoC5/NSDSPI_RX_dma.c ****     (void)CyDmaChSetConfiguration(NSDSPI_RX_DmaHandle,
  63              		.loc 1 104 0
  64 0024 0E4B     		ldr	r3, .L3
  65 0026 1878     		ldrb	r0, [r3]	@ zero_extendqisi2
  66 0028 BA79     		ldrb	r2, [r7, #6]	@ zero_extendqisi2
  67 002a F979     		ldrb	r1, [r7, #7]	@ zero_extendqisi2
ARM GAS  C:\Users\HPz420\AppData\Local\Temp\ccvmBXi1.s 			page 4


  68 002c 0023     		movs	r3, #0
  69 002e 0193     		str	r3, [sp, #4]
  70 0030 0023     		movs	r3, #0
  71 0032 0093     		str	r3, [sp]
  72 0034 0023     		movs	r3, #0
  73 0036 FFF7FEFF 		bl	CyDmaChSetConfiguration
 105:Generated_Source\PSoC5/NSDSPI_RX_dma.c ****                                   BurstCount,
 106:Generated_Source\PSoC5/NSDSPI_RX_dma.c ****                                   ReqestPerBurst,
 107:Generated_Source\PSoC5/NSDSPI_RX_dma.c ****                                   (uint8)NSDSPI_RX__TERMOUT0_SEL,
 108:Generated_Source\PSoC5/NSDSPI_RX_dma.c ****                                   (uint8)NSDSPI_RX__TERMOUT1_SEL,
 109:Generated_Source\PSoC5/NSDSPI_RX_dma.c ****                                   (uint8)NSDSPI_RX__TERMIN_SEL);
 110:Generated_Source\PSoC5/NSDSPI_RX_dma.c **** 
 111:Generated_Source\PSoC5/NSDSPI_RX_dma.c ****     /* Set the extended address for the transfers */
 112:Generated_Source\PSoC5/NSDSPI_RX_dma.c ****     (void)CyDmaChSetExtendedAddress(NSDSPI_RX_DmaHandle, UpperSrcAddress, UpperDestAddress);
  74              		.loc 1 112 0
  75 003a 094B     		ldr	r3, .L3
  76 003c 1B78     		ldrb	r3, [r3]	@ zero_extendqisi2
  77 003e 7A88     		ldrh	r2, [r7, #2]
  78 0040 B988     		ldrh	r1, [r7, #4]
  79 0042 1846     		mov	r0, r3
  80 0044 FFF7FEFF 		bl	CyDmaChSetExtendedAddress
 113:Generated_Source\PSoC5/NSDSPI_RX_dma.c **** 
 114:Generated_Source\PSoC5/NSDSPI_RX_dma.c ****     /* Set the priority for this channel */
 115:Generated_Source\PSoC5/NSDSPI_RX_dma.c ****     (void)CyDmaChPriority(NSDSPI_RX_DmaHandle, (uint8)NSDSPI_RX__PRIORITY);
  81              		.loc 1 115 0
  82 0048 054B     		ldr	r3, .L3
  83 004a 1B78     		ldrb	r3, [r3]	@ zero_extendqisi2
  84 004c 0121     		movs	r1, #1
  85 004e 1846     		mov	r0, r3
  86 0050 FFF7FEFF 		bl	CyDmaChPriority
 116:Generated_Source\PSoC5/NSDSPI_RX_dma.c ****     
 117:Generated_Source\PSoC5/NSDSPI_RX_dma.c ****     return NSDSPI_RX_DmaHandle;
  87              		.loc 1 117 0
  88 0054 024B     		ldr	r3, .L3
  89 0056 1B78     		ldrb	r3, [r3]	@ zero_extendqisi2
 118:Generated_Source\PSoC5/NSDSPI_RX_dma.c **** }
  90              		.loc 1 118 0
  91 0058 1846     		mov	r0, r3
  92 005a 0C37     		adds	r7, r7, #12
  93              		.cfi_def_cfa_offset 12
  94 005c BD46     		mov	sp, r7
  95              		.cfi_def_cfa_register 13
  96              		@ sp needed
  97 005e 90BD     		pop	{r4, r7, pc}
  98              	.L4:
  99              		.align	2
 100              	.L3:
 101 0060 00000000 		.word	NSDSPI_RX_DmaHandle
 102              		.cfi_endproc
 103              	.LFE0:
 104              		.size	NSDSPI_RX_DmaInitialize, .-NSDSPI_RX_DmaInitialize
 105              		.section	.text.NSDSPI_RX_DmaRelease,"ax",%progbits
 106              		.align	2
 107              		.global	NSDSPI_RX_DmaRelease
 108              		.thumb
 109              		.thumb_func
 110              		.type	NSDSPI_RX_DmaRelease, %function
ARM GAS  C:\Users\HPz420\AppData\Local\Temp\ccvmBXi1.s 			page 5


 111              	NSDSPI_RX_DmaRelease:
 112              	.LFB1:
 119:Generated_Source\PSoC5/NSDSPI_RX_dma.c **** 
 120:Generated_Source\PSoC5/NSDSPI_RX_dma.c **** /*********************************************************************
 121:Generated_Source\PSoC5/NSDSPI_RX_dma.c **** * Function Name: void NSDSPI_RX_DmaRelease
 122:Generated_Source\PSoC5/NSDSPI_RX_dma.c **** **********************************************************************
 123:Generated_Source\PSoC5/NSDSPI_RX_dma.c **** * Summary:
 124:Generated_Source\PSoC5/NSDSPI_RX_dma.c **** *   Frees the channel associated with NSDSPI_RX.
 125:Generated_Source\PSoC5/NSDSPI_RX_dma.c **** *
 126:Generated_Source\PSoC5/NSDSPI_RX_dma.c **** *
 127:Generated_Source\PSoC5/NSDSPI_RX_dma.c **** * Parameters:
 128:Generated_Source\PSoC5/NSDSPI_RX_dma.c **** *   void.
 129:Generated_Source\PSoC5/NSDSPI_RX_dma.c **** *
 130:Generated_Source\PSoC5/NSDSPI_RX_dma.c **** *
 131:Generated_Source\PSoC5/NSDSPI_RX_dma.c **** *
 132:Generated_Source\PSoC5/NSDSPI_RX_dma.c **** * Return:
 133:Generated_Source\PSoC5/NSDSPI_RX_dma.c **** *   void.
 134:Generated_Source\PSoC5/NSDSPI_RX_dma.c **** *
 135:Generated_Source\PSoC5/NSDSPI_RX_dma.c **** *******************************************************************/
 136:Generated_Source\PSoC5/NSDSPI_RX_dma.c **** void NSDSPI_RX_DmaRelease(void) 
 137:Generated_Source\PSoC5/NSDSPI_RX_dma.c **** {
 113              		.loc 1 137 0
 114              		.cfi_startproc
 115              		@ args = 0, pretend = 0, frame = 0
 116              		@ frame_needed = 1, uses_anonymous_args = 0
 117 0000 80B5     		push	{r7, lr}
 118              		.cfi_def_cfa_offset 8
 119              		.cfi_offset 7, -8
 120              		.cfi_offset 14, -4
 121 0002 00AF     		add	r7, sp, #0
 122              		.cfi_def_cfa_register 7
 138:Generated_Source\PSoC5/NSDSPI_RX_dma.c ****     /* Disable the channel */
 139:Generated_Source\PSoC5/NSDSPI_RX_dma.c ****     (void)CyDmaChDisable(NSDSPI_RX_DmaHandle);
 123              		.loc 1 139 0
 124 0004 034B     		ldr	r3, .L6
 125 0006 1B78     		ldrb	r3, [r3]	@ zero_extendqisi2
 126 0008 1846     		mov	r0, r3
 127 000a FFF7FEFF 		bl	CyDmaChDisable
 140:Generated_Source\PSoC5/NSDSPI_RX_dma.c **** }
 128              		.loc 1 140 0
 129 000e 00BF     		nop
 130 0010 80BD     		pop	{r7, pc}
 131              	.L7:
 132 0012 00BF     		.align	2
 133              	.L6:
 134 0014 00000000 		.word	NSDSPI_RX_DmaHandle
 135              		.cfi_endproc
 136              	.LFE1:
 137              		.size	NSDSPI_RX_DmaRelease, .-NSDSPI_RX_DmaRelease
 138              		.text
 139              	.Letext0:
 140              		.file 2 "Generated_Source\\PSoC5/cytypes.h"