ARM GAS  C:\Users\HPz420\AppData\Local\Temp\cc9OCjDk.s 			page 1


   1              		.syntax unified
   2              		.cpu cortex-m3
   3              		.fpu softvfp
   4              		.eabi_attribute 20, 1
   5              		.eabi_attribute 21, 1
   6              		.eabi_attribute 23, 3
   7              		.eabi_attribute 24, 1
   8              		.eabi_attribute 25, 1
   9              		.eabi_attribute 26, 1
  10              		.eabi_attribute 30, 6
  11              		.eabi_attribute 34, 1
  12              		.eabi_attribute 18, 4
  13              		.thumb
  14              		.syntax unified
  15              		.file	"NSDSPI_RX_BYTE_COUNTER_PM.c"
  16              		.text
  17              	.Ltext0:
  18              		.cfi_sections	.debug_frame
  19              		.bss
  20              		.align	2
  21              	NSDSPI_RX_BYTE_COUNTER_backup:
  22 0000 00000000 		.space	4
  23              		.section	.text.NSDSPI_RX_BYTE_COUNTER_SaveConfig,"ax",%progbits
  24              		.align	2
  25              		.global	NSDSPI_RX_BYTE_COUNTER_SaveConfig
  26              		.thumb
  27              		.thumb_func
  28              		.type	NSDSPI_RX_BYTE_COUNTER_SaveConfig, %function
  29              	NSDSPI_RX_BYTE_COUNTER_SaveConfig:
  30              	.LFB0:
  31              		.file 1 "Generated_Source\\PSoC5\\NSDSPI_RX_BYTE_COUNTER_PM.c"
   1:Generated_Source\PSoC5/NSDSPI_RX_BYTE_COUNTER_PM.c **** /*******************************************************************************
   2:Generated_Source\PSoC5/NSDSPI_RX_BYTE_COUNTER_PM.c **** * File Name: NSDSPI_RX_BYTE_COUNTER_PM.c  
   3:Generated_Source\PSoC5/NSDSPI_RX_BYTE_COUNTER_PM.c **** * Version 3.0
   4:Generated_Source\PSoC5/NSDSPI_RX_BYTE_COUNTER_PM.c **** *
   5:Generated_Source\PSoC5/NSDSPI_RX_BYTE_COUNTER_PM.c **** *  Description:
   6:Generated_Source\PSoC5/NSDSPI_RX_BYTE_COUNTER_PM.c **** *    This file provides the power management source code to API for the
   7:Generated_Source\PSoC5/NSDSPI_RX_BYTE_COUNTER_PM.c **** *    Counter.  
   8:Generated_Source\PSoC5/NSDSPI_RX_BYTE_COUNTER_PM.c **** *
   9:Generated_Source\PSoC5/NSDSPI_RX_BYTE_COUNTER_PM.c **** *   Note:
  10:Generated_Source\PSoC5/NSDSPI_RX_BYTE_COUNTER_PM.c **** *     None
  11:Generated_Source\PSoC5/NSDSPI_RX_BYTE_COUNTER_PM.c **** *
  12:Generated_Source\PSoC5/NSDSPI_RX_BYTE_COUNTER_PM.c **** ********************************************************************************
  13:Generated_Source\PSoC5/NSDSPI_RX_BYTE_COUNTER_PM.c **** * Copyright 2008-2012, Cypress Semiconductor Corporation.  All rights reserved.
  14:Generated_Source\PSoC5/NSDSPI_RX_BYTE_COUNTER_PM.c **** * You may use this file only in accordance with the license, terms, conditions, 
  15:Generated_Source\PSoC5/NSDSPI_RX_BYTE_COUNTER_PM.c **** * disclaimers, and limitations in the end user license agreement accompanying 
  16:Generated_Source\PSoC5/NSDSPI_RX_BYTE_COUNTER_PM.c **** * the software package with which this file was provided.
  17:Generated_Source\PSoC5/NSDSPI_RX_BYTE_COUNTER_PM.c **** *******************************************************************************/
  18:Generated_Source\PSoC5/NSDSPI_RX_BYTE_COUNTER_PM.c **** 
  19:Generated_Source\PSoC5/NSDSPI_RX_BYTE_COUNTER_PM.c **** #include "NSDSPI_RX_BYTE_COUNTER.h"
  20:Generated_Source\PSoC5/NSDSPI_RX_BYTE_COUNTER_PM.c **** 
  21:Generated_Source\PSoC5/NSDSPI_RX_BYTE_COUNTER_PM.c **** static NSDSPI_RX_BYTE_COUNTER_backupStruct NSDSPI_RX_BYTE_COUNTER_backup;
  22:Generated_Source\PSoC5/NSDSPI_RX_BYTE_COUNTER_PM.c **** 
  23:Generated_Source\PSoC5/NSDSPI_RX_BYTE_COUNTER_PM.c **** 
  24:Generated_Source\PSoC5/NSDSPI_RX_BYTE_COUNTER_PM.c **** /*******************************************************************************
  25:Generated_Source\PSoC5/NSDSPI_RX_BYTE_COUNTER_PM.c **** * Function Name: NSDSPI_RX_BYTE_COUNTER_SaveConfig
  26:Generated_Source\PSoC5/NSDSPI_RX_BYTE_COUNTER_PM.c **** ********************************************************************************
ARM GAS  C:\Users\HPz420\AppData\Local\Temp\cc9OCjDk.s 			page 2


  27:Generated_Source\PSoC5/NSDSPI_RX_BYTE_COUNTER_PM.c **** * Summary:
  28:Generated_Source\PSoC5/NSDSPI_RX_BYTE_COUNTER_PM.c **** *     Save the current user configuration
  29:Generated_Source\PSoC5/NSDSPI_RX_BYTE_COUNTER_PM.c **** *
  30:Generated_Source\PSoC5/NSDSPI_RX_BYTE_COUNTER_PM.c **** * Parameters:  
  31:Generated_Source\PSoC5/NSDSPI_RX_BYTE_COUNTER_PM.c **** *  void
  32:Generated_Source\PSoC5/NSDSPI_RX_BYTE_COUNTER_PM.c **** *
  33:Generated_Source\PSoC5/NSDSPI_RX_BYTE_COUNTER_PM.c **** * Return: 
  34:Generated_Source\PSoC5/NSDSPI_RX_BYTE_COUNTER_PM.c **** *  void
  35:Generated_Source\PSoC5/NSDSPI_RX_BYTE_COUNTER_PM.c **** *
  36:Generated_Source\PSoC5/NSDSPI_RX_BYTE_COUNTER_PM.c **** * Global variables:
  37:Generated_Source\PSoC5/NSDSPI_RX_BYTE_COUNTER_PM.c **** *  NSDSPI_RX_BYTE_COUNTER_backup:  Variables of this global structure are modified to 
  38:Generated_Source\PSoC5/NSDSPI_RX_BYTE_COUNTER_PM.c **** *  store the values of non retention configuration registers when Sleep() API is 
  39:Generated_Source\PSoC5/NSDSPI_RX_BYTE_COUNTER_PM.c **** *  called.
  40:Generated_Source\PSoC5/NSDSPI_RX_BYTE_COUNTER_PM.c **** *
  41:Generated_Source\PSoC5/NSDSPI_RX_BYTE_COUNTER_PM.c **** *******************************************************************************/
  42:Generated_Source\PSoC5/NSDSPI_RX_BYTE_COUNTER_PM.c **** void NSDSPI_RX_BYTE_COUNTER_SaveConfig(void) 
  43:Generated_Source\PSoC5/NSDSPI_RX_BYTE_COUNTER_PM.c **** {
  32              		.loc 1 43 0
  33              		.cfi_startproc
  34              		@ args = 0, pretend = 0, frame = 0
  35              		@ frame_needed = 1, uses_anonymous_args = 0
  36 0000 80B5     		push	{r7, lr}
  37              		.cfi_def_cfa_offset 8
  38              		.cfi_offset 7, -8
  39              		.cfi_offset 14, -4
  40 0002 00AF     		add	r7, sp, #0
  41              		.cfi_def_cfa_register 7
  44:Generated_Source\PSoC5/NSDSPI_RX_BYTE_COUNTER_PM.c ****     #if (!NSDSPI_RX_BYTE_COUNTER_UsingFixedFunction)
  45:Generated_Source\PSoC5/NSDSPI_RX_BYTE_COUNTER_PM.c **** 
  46:Generated_Source\PSoC5/NSDSPI_RX_BYTE_COUNTER_PM.c ****         NSDSPI_RX_BYTE_COUNTER_backup.CounterUdb = NSDSPI_RX_BYTE_COUNTER_ReadCounter();
  42              		.loc 1 46 0
  43 0004 FFF7FEFF 		bl	NSDSPI_RX_BYTE_COUNTER_ReadCounter
  44 0008 0346     		mov	r3, r0
  45 000a 1A46     		mov	r2, r3
  46 000c 014B     		ldr	r3, .L2
  47 000e 5A80     		strh	r2, [r3, #2]	@ movhi
  47:Generated_Source\PSoC5/NSDSPI_RX_BYTE_COUNTER_PM.c **** 
  48:Generated_Source\PSoC5/NSDSPI_RX_BYTE_COUNTER_PM.c ****         #if(!NSDSPI_RX_BYTE_COUNTER_ControlRegRemoved)
  49:Generated_Source\PSoC5/NSDSPI_RX_BYTE_COUNTER_PM.c ****             NSDSPI_RX_BYTE_COUNTER_backup.CounterControlRegister = NSDSPI_RX_BYTE_COUNTER_ReadContr
  50:Generated_Source\PSoC5/NSDSPI_RX_BYTE_COUNTER_PM.c ****         #endif /* (!NSDSPI_RX_BYTE_COUNTER_ControlRegRemoved) */
  51:Generated_Source\PSoC5/NSDSPI_RX_BYTE_COUNTER_PM.c **** 
  52:Generated_Source\PSoC5/NSDSPI_RX_BYTE_COUNTER_PM.c ****     #endif /* (!NSDSPI_RX_BYTE_COUNTER_UsingFixedFunction) */
  53:Generated_Source\PSoC5/NSDSPI_RX_BYTE_COUNTER_PM.c **** }
  48              		.loc 1 53 0
  49 0010 00BF     		nop
  50 0012 80BD     		pop	{r7, pc}
  51              	.L3:
  52              		.align	2
  53              	.L2:
  54 0014 00000000 		.word	NSDSPI_RX_BYTE_COUNTER_backup
  55              		.cfi_endproc
  56              	.LFE0:
  57              		.size	NSDSPI_RX_BYTE_COUNTER_SaveConfig, .-NSDSPI_RX_BYTE_COUNTER_SaveConfig
  58              		.section	.text.NSDSPI_RX_BYTE_COUNTER_RestoreConfig,"ax",%progbits
  59              		.align	2
  60              		.global	NSDSPI_RX_BYTE_COUNTER_RestoreConfig
  61              		.thumb
ARM GAS  C:\Users\HPz420\AppData\Local\Temp\cc9OCjDk.s 			page 3


  62              		.thumb_func
  63              		.type	NSDSPI_RX_BYTE_COUNTER_RestoreConfig, %function
  64              	NSDSPI_RX_BYTE_COUNTER_RestoreConfig:
  65              	.LFB1:
  54:Generated_Source\PSoC5/NSDSPI_RX_BYTE_COUNTER_PM.c **** 
  55:Generated_Source\PSoC5/NSDSPI_RX_BYTE_COUNTER_PM.c **** 
  56:Generated_Source\PSoC5/NSDSPI_RX_BYTE_COUNTER_PM.c **** /*******************************************************************************
  57:Generated_Source\PSoC5/NSDSPI_RX_BYTE_COUNTER_PM.c **** * Function Name: NSDSPI_RX_BYTE_COUNTER_RestoreConfig
  58:Generated_Source\PSoC5/NSDSPI_RX_BYTE_COUNTER_PM.c **** ********************************************************************************
  59:Generated_Source\PSoC5/NSDSPI_RX_BYTE_COUNTER_PM.c **** *
  60:Generated_Source\PSoC5/NSDSPI_RX_BYTE_COUNTER_PM.c **** * Summary:
  61:Generated_Source\PSoC5/NSDSPI_RX_BYTE_COUNTER_PM.c **** *  Restores the current user configuration.
  62:Generated_Source\PSoC5/NSDSPI_RX_BYTE_COUNTER_PM.c **** *
  63:Generated_Source\PSoC5/NSDSPI_RX_BYTE_COUNTER_PM.c **** * Parameters:  
  64:Generated_Source\PSoC5/NSDSPI_RX_BYTE_COUNTER_PM.c **** *  void
  65:Generated_Source\PSoC5/NSDSPI_RX_BYTE_COUNTER_PM.c **** *
  66:Generated_Source\PSoC5/NSDSPI_RX_BYTE_COUNTER_PM.c **** * Return: 
  67:Generated_Source\PSoC5/NSDSPI_RX_BYTE_COUNTER_PM.c **** *  void
  68:Generated_Source\PSoC5/NSDSPI_RX_BYTE_COUNTER_PM.c **** *
  69:Generated_Source\PSoC5/NSDSPI_RX_BYTE_COUNTER_PM.c **** * Global variables:
  70:Generated_Source\PSoC5/NSDSPI_RX_BYTE_COUNTER_PM.c **** *  NSDSPI_RX_BYTE_COUNTER_backup:  Variables of this global structure are used to 
  71:Generated_Source\PSoC5/NSDSPI_RX_BYTE_COUNTER_PM.c **** *  restore the values of non retention registers on wakeup from sleep mode.
  72:Generated_Source\PSoC5/NSDSPI_RX_BYTE_COUNTER_PM.c **** *
  73:Generated_Source\PSoC5/NSDSPI_RX_BYTE_COUNTER_PM.c **** *******************************************************************************/
  74:Generated_Source\PSoC5/NSDSPI_RX_BYTE_COUNTER_PM.c **** void NSDSPI_RX_BYTE_COUNTER_RestoreConfig(void) 
  75:Generated_Source\PSoC5/NSDSPI_RX_BYTE_COUNTER_PM.c **** {      
  66              		.loc 1 75 0
  67              		.cfi_startproc
  68              		@ args = 0, pretend = 0, frame = 0
  69              		@ frame_needed = 1, uses_anonymous_args = 0
  70 0000 80B5     		push	{r7, lr}
  71              		.cfi_def_cfa_offset 8
  72              		.cfi_offset 7, -8
  73              		.cfi_offset 14, -4
  74 0002 00AF     		add	r7, sp, #0
  75              		.cfi_def_cfa_register 7
  76:Generated_Source\PSoC5/NSDSPI_RX_BYTE_COUNTER_PM.c ****     #if (!NSDSPI_RX_BYTE_COUNTER_UsingFixedFunction)
  77:Generated_Source\PSoC5/NSDSPI_RX_BYTE_COUNTER_PM.c **** 
  78:Generated_Source\PSoC5/NSDSPI_RX_BYTE_COUNTER_PM.c ****        NSDSPI_RX_BYTE_COUNTER_WriteCounter(NSDSPI_RX_BYTE_COUNTER_backup.CounterUdb);
  76              		.loc 1 78 0
  77 0004 034B     		ldr	r3, .L5
  78 0006 5B88     		ldrh	r3, [r3, #2]
  79 0008 1846     		mov	r0, r3
  80 000a FFF7FEFF 		bl	NSDSPI_RX_BYTE_COUNTER_WriteCounter
  79:Generated_Source\PSoC5/NSDSPI_RX_BYTE_COUNTER_PM.c **** 
  80:Generated_Source\PSoC5/NSDSPI_RX_BYTE_COUNTER_PM.c ****         #if(!NSDSPI_RX_BYTE_COUNTER_ControlRegRemoved)
  81:Generated_Source\PSoC5/NSDSPI_RX_BYTE_COUNTER_PM.c ****             NSDSPI_RX_BYTE_COUNTER_WriteControlRegister(NSDSPI_RX_BYTE_COUNTER_backup.CounterContro
  82:Generated_Source\PSoC5/NSDSPI_RX_BYTE_COUNTER_PM.c ****         #endif /* (!NSDSPI_RX_BYTE_COUNTER_ControlRegRemoved) */
  83:Generated_Source\PSoC5/NSDSPI_RX_BYTE_COUNTER_PM.c **** 
  84:Generated_Source\PSoC5/NSDSPI_RX_BYTE_COUNTER_PM.c ****     #endif /* (!NSDSPI_RX_BYTE_COUNTER_UsingFixedFunction) */
  85:Generated_Source\PSoC5/NSDSPI_RX_BYTE_COUNTER_PM.c **** }
  81              		.loc 1 85 0
  82 000e 00BF     		nop
  83 0010 80BD     		pop	{r7, pc}
  84              	.L6:
  85 0012 00BF     		.align	2
  86              	.L5:
ARM GAS  C:\Users\HPz420\AppData\Local\Temp\cc9OCjDk.s 			page 4


  87 0014 00000000 		.word	NSDSPI_RX_BYTE_COUNTER_backup
  88              		.cfi_endproc
  89              	.LFE1:
  90              		.size	NSDSPI_RX_BYTE_COUNTER_RestoreConfig, .-NSDSPI_RX_BYTE_COUNTER_RestoreConfig
  91              		.section	.text.NSDSPI_RX_BYTE_COUNTER_Sleep,"ax",%progbits
  92              		.align	2
  93              		.global	NSDSPI_RX_BYTE_COUNTER_Sleep
  94              		.thumb
  95              		.thumb_func
  96              		.type	NSDSPI_RX_BYTE_COUNTER_Sleep, %function
  97              	NSDSPI_RX_BYTE_COUNTER_Sleep:
  98              	.LFB2:
  86:Generated_Source\PSoC5/NSDSPI_RX_BYTE_COUNTER_PM.c **** 
  87:Generated_Source\PSoC5/NSDSPI_RX_BYTE_COUNTER_PM.c **** 
  88:Generated_Source\PSoC5/NSDSPI_RX_BYTE_COUNTER_PM.c **** /*******************************************************************************
  89:Generated_Source\PSoC5/NSDSPI_RX_BYTE_COUNTER_PM.c **** * Function Name: NSDSPI_RX_BYTE_COUNTER_Sleep
  90:Generated_Source\PSoC5/NSDSPI_RX_BYTE_COUNTER_PM.c **** ********************************************************************************
  91:Generated_Source\PSoC5/NSDSPI_RX_BYTE_COUNTER_PM.c **** * Summary:
  92:Generated_Source\PSoC5/NSDSPI_RX_BYTE_COUNTER_PM.c **** *     Stop and Save the user configuration
  93:Generated_Source\PSoC5/NSDSPI_RX_BYTE_COUNTER_PM.c **** *
  94:Generated_Source\PSoC5/NSDSPI_RX_BYTE_COUNTER_PM.c **** * Parameters:  
  95:Generated_Source\PSoC5/NSDSPI_RX_BYTE_COUNTER_PM.c **** *  void
  96:Generated_Source\PSoC5/NSDSPI_RX_BYTE_COUNTER_PM.c **** *
  97:Generated_Source\PSoC5/NSDSPI_RX_BYTE_COUNTER_PM.c **** * Return: 
  98:Generated_Source\PSoC5/NSDSPI_RX_BYTE_COUNTER_PM.c **** *  void
  99:Generated_Source\PSoC5/NSDSPI_RX_BYTE_COUNTER_PM.c **** *
 100:Generated_Source\PSoC5/NSDSPI_RX_BYTE_COUNTER_PM.c **** * Global variables:
 101:Generated_Source\PSoC5/NSDSPI_RX_BYTE_COUNTER_PM.c **** *  NSDSPI_RX_BYTE_COUNTER_backup.enableState:  Is modified depending on the enable 
 102:Generated_Source\PSoC5/NSDSPI_RX_BYTE_COUNTER_PM.c **** *  state of the block before entering sleep mode.
 103:Generated_Source\PSoC5/NSDSPI_RX_BYTE_COUNTER_PM.c **** *
 104:Generated_Source\PSoC5/NSDSPI_RX_BYTE_COUNTER_PM.c **** *******************************************************************************/
 105:Generated_Source\PSoC5/NSDSPI_RX_BYTE_COUNTER_PM.c **** void NSDSPI_RX_BYTE_COUNTER_Sleep(void) 
 106:Generated_Source\PSoC5/NSDSPI_RX_BYTE_COUNTER_PM.c **** {
  99              		.loc 1 106 0
 100              		.cfi_startproc
 101              		@ args = 0, pretend = 0, frame = 0
 102              		@ frame_needed = 1, uses_anonymous_args = 0
 103 0000 80B5     		push	{r7, lr}
 104              		.cfi_def_cfa_offset 8
 105              		.cfi_offset 7, -8
 106              		.cfi_offset 14, -4
 107 0002 00AF     		add	r7, sp, #0
 108              		.cfi_def_cfa_register 7
 107:Generated_Source\PSoC5/NSDSPI_RX_BYTE_COUNTER_PM.c ****     #if(!NSDSPI_RX_BYTE_COUNTER_ControlRegRemoved)
 108:Generated_Source\PSoC5/NSDSPI_RX_BYTE_COUNTER_PM.c ****         /* Save Counter's enable state */
 109:Generated_Source\PSoC5/NSDSPI_RX_BYTE_COUNTER_PM.c ****         if(NSDSPI_RX_BYTE_COUNTER_CTRL_ENABLE == (NSDSPI_RX_BYTE_COUNTER_CONTROL & NSDSPI_RX_BYTE_C
 110:Generated_Source\PSoC5/NSDSPI_RX_BYTE_COUNTER_PM.c ****         {
 111:Generated_Source\PSoC5/NSDSPI_RX_BYTE_COUNTER_PM.c ****             /* Counter is enabled */
 112:Generated_Source\PSoC5/NSDSPI_RX_BYTE_COUNTER_PM.c ****             NSDSPI_RX_BYTE_COUNTER_backup.CounterEnableState = 1u;
 113:Generated_Source\PSoC5/NSDSPI_RX_BYTE_COUNTER_PM.c ****         }
 114:Generated_Source\PSoC5/NSDSPI_RX_BYTE_COUNTER_PM.c ****         else
 115:Generated_Source\PSoC5/NSDSPI_RX_BYTE_COUNTER_PM.c ****         {
 116:Generated_Source\PSoC5/NSDSPI_RX_BYTE_COUNTER_PM.c ****             /* Counter is disabled */
 117:Generated_Source\PSoC5/NSDSPI_RX_BYTE_COUNTER_PM.c ****             NSDSPI_RX_BYTE_COUNTER_backup.CounterEnableState = 0u;
 118:Generated_Source\PSoC5/NSDSPI_RX_BYTE_COUNTER_PM.c ****         }
 119:Generated_Source\PSoC5/NSDSPI_RX_BYTE_COUNTER_PM.c ****     #else
 120:Generated_Source\PSoC5/NSDSPI_RX_BYTE_COUNTER_PM.c ****         NSDSPI_RX_BYTE_COUNTER_backup.CounterEnableState = 1u;
ARM GAS  C:\Users\HPz420\AppData\Local\Temp\cc9OCjDk.s 			page 5


 109              		.loc 1 120 0
 110 0004 074B     		ldr	r3, .L9
 111 0006 0122     		movs	r2, #1
 112 0008 1A70     		strb	r2, [r3]
 121:Generated_Source\PSoC5/NSDSPI_RX_BYTE_COUNTER_PM.c ****         if(NSDSPI_RX_BYTE_COUNTER_backup.CounterEnableState != 0u)
 113              		.loc 1 121 0
 114 000a 064B     		ldr	r3, .L9
 115 000c 1B78     		ldrb	r3, [r3]	@ zero_extendqisi2
 116 000e 002B     		cmp	r3, #0
 117 0010 02D0     		beq	.L8
 122:Generated_Source\PSoC5/NSDSPI_RX_BYTE_COUNTER_PM.c ****         {
 123:Generated_Source\PSoC5/NSDSPI_RX_BYTE_COUNTER_PM.c ****             NSDSPI_RX_BYTE_COUNTER_backup.CounterEnableState = 0u;
 118              		.loc 1 123 0
 119 0012 044B     		ldr	r3, .L9
 120 0014 0022     		movs	r2, #0
 121 0016 1A70     		strb	r2, [r3]
 122              	.L8:
 124:Generated_Source\PSoC5/NSDSPI_RX_BYTE_COUNTER_PM.c ****         }
 125:Generated_Source\PSoC5/NSDSPI_RX_BYTE_COUNTER_PM.c ****     #endif /* (!NSDSPI_RX_BYTE_COUNTER_ControlRegRemoved) */
 126:Generated_Source\PSoC5/NSDSPI_RX_BYTE_COUNTER_PM.c ****     
 127:Generated_Source\PSoC5/NSDSPI_RX_BYTE_COUNTER_PM.c ****     NSDSPI_RX_BYTE_COUNTER_Stop();
 123              		.loc 1 127 0
 124 0018 FFF7FEFF 		bl	NSDSPI_RX_BYTE_COUNTER_Stop
 128:Generated_Source\PSoC5/NSDSPI_RX_BYTE_COUNTER_PM.c ****     NSDSPI_RX_BYTE_COUNTER_SaveConfig();
 125              		.loc 1 128 0
 126 001c FFF7FEFF 		bl	NSDSPI_RX_BYTE_COUNTER_SaveConfig
 129:Generated_Source\PSoC5/NSDSPI_RX_BYTE_COUNTER_PM.c **** }
 127              		.loc 1 129 0
 128 0020 00BF     		nop
 129 0022 80BD     		pop	{r7, pc}
 130              	.L10:
 131              		.align	2
 132              	.L9:
 133 0024 00000000 		.word	NSDSPI_RX_BYTE_COUNTER_backup
 134              		.cfi_endproc
 135              	.LFE2:
 136              		.size	NSDSPI_RX_BYTE_COUNTER_Sleep, .-NSDSPI_RX_BYTE_COUNTER_Sleep
 137              		.section	.text.NSDSPI_RX_BYTE_COUNTER_Wakeup,"ax",%progbits
 138              		.align	2
 139              		.global	NSDSPI_RX_BYTE_COUNTER_Wakeup
 140              		.thumb
 141              		.thumb_func
 142              		.type	NSDSPI_RX_BYTE_COUNTER_Wakeup, %function
 143              	NSDSPI_RX_BYTE_COUNTER_Wakeup:
 144              	.LFB3:
 130:Generated_Source\PSoC5/NSDSPI_RX_BYTE_COUNTER_PM.c **** 
 131:Generated_Source\PSoC5/NSDSPI_RX_BYTE_COUNTER_PM.c **** 
 132:Generated_Source\PSoC5/NSDSPI_RX_BYTE_COUNTER_PM.c **** /*******************************************************************************
 133:Generated_Source\PSoC5/NSDSPI_RX_BYTE_COUNTER_PM.c **** * Function Name: NSDSPI_RX_BYTE_COUNTER_Wakeup
 134:Generated_Source\PSoC5/NSDSPI_RX_BYTE_COUNTER_PM.c **** ********************************************************************************
 135:Generated_Source\PSoC5/NSDSPI_RX_BYTE_COUNTER_PM.c **** *
 136:Generated_Source\PSoC5/NSDSPI_RX_BYTE_COUNTER_PM.c **** * Summary:
 137:Generated_Source\PSoC5/NSDSPI_RX_BYTE_COUNTER_PM.c **** *  Restores and enables the user configuration
 138:Generated_Source\PSoC5/NSDSPI_RX_BYTE_COUNTER_PM.c **** *  
 139:Generated_Source\PSoC5/NSDSPI_RX_BYTE_COUNTER_PM.c **** * Parameters:  
 140:Generated_Source\PSoC5/NSDSPI_RX_BYTE_COUNTER_PM.c **** *  void
 141:Generated_Source\PSoC5/NSDSPI_RX_BYTE_COUNTER_PM.c **** *
ARM GAS  C:\Users\HPz420\AppData\Local\Temp\cc9OCjDk.s 			page 6


 142:Generated_Source\PSoC5/NSDSPI_RX_BYTE_COUNTER_PM.c **** * Return: 
 143:Generated_Source\PSoC5/NSDSPI_RX_BYTE_COUNTER_PM.c **** *  void
 144:Generated_Source\PSoC5/NSDSPI_RX_BYTE_COUNTER_PM.c **** *
 145:Generated_Source\PSoC5/NSDSPI_RX_BYTE_COUNTER_PM.c **** * Global variables:
 146:Generated_Source\PSoC5/NSDSPI_RX_BYTE_COUNTER_PM.c **** *  NSDSPI_RX_BYTE_COUNTER_backup.enableState:  Is used to restore the enable state of 
 147:Generated_Source\PSoC5/NSDSPI_RX_BYTE_COUNTER_PM.c **** *  block on wakeup from sleep mode.
 148:Generated_Source\PSoC5/NSDSPI_RX_BYTE_COUNTER_PM.c **** *
 149:Generated_Source\PSoC5/NSDSPI_RX_BYTE_COUNTER_PM.c **** *******************************************************************************/
 150:Generated_Source\PSoC5/NSDSPI_RX_BYTE_COUNTER_PM.c **** void NSDSPI_RX_BYTE_COUNTER_Wakeup(void) 
 151:Generated_Source\PSoC5/NSDSPI_RX_BYTE_COUNTER_PM.c **** {
 145              		.loc 1 151 0
 146              		.cfi_startproc
 147              		@ args = 0, pretend = 0, frame = 0
 148              		@ frame_needed = 1, uses_anonymous_args = 0
 149 0000 80B5     		push	{r7, lr}
 150              		.cfi_def_cfa_offset 8
 151              		.cfi_offset 7, -8
 152              		.cfi_offset 14, -4
 153 0002 00AF     		add	r7, sp, #0
 154              		.cfi_def_cfa_register 7
 152:Generated_Source\PSoC5/NSDSPI_RX_BYTE_COUNTER_PM.c ****     NSDSPI_RX_BYTE_COUNTER_RestoreConfig();
 155              		.loc 1 152 0
 156 0004 FFF7FEFF 		bl	NSDSPI_RX_BYTE_COUNTER_RestoreConfig
 153:Generated_Source\PSoC5/NSDSPI_RX_BYTE_COUNTER_PM.c ****     #if(!NSDSPI_RX_BYTE_COUNTER_ControlRegRemoved)
 154:Generated_Source\PSoC5/NSDSPI_RX_BYTE_COUNTER_PM.c ****         if(NSDSPI_RX_BYTE_COUNTER_backup.CounterEnableState == 1u)
 155:Generated_Source\PSoC5/NSDSPI_RX_BYTE_COUNTER_PM.c ****         {
 156:Generated_Source\PSoC5/NSDSPI_RX_BYTE_COUNTER_PM.c ****             /* Enable Counter's operation */
 157:Generated_Source\PSoC5/NSDSPI_RX_BYTE_COUNTER_PM.c ****             NSDSPI_RX_BYTE_COUNTER_Enable();
 158:Generated_Source\PSoC5/NSDSPI_RX_BYTE_COUNTER_PM.c ****         } /* Do nothing if Counter was disabled before */    
 159:Generated_Source\PSoC5/NSDSPI_RX_BYTE_COUNTER_PM.c ****     #endif /* (!NSDSPI_RX_BYTE_COUNTER_ControlRegRemoved) */
 160:Generated_Source\PSoC5/NSDSPI_RX_BYTE_COUNTER_PM.c ****     
 161:Generated_Source\PSoC5/NSDSPI_RX_BYTE_COUNTER_PM.c **** }
 157              		.loc 1 161 0
 158 0008 00BF     		nop
 159 000a 80BD     		pop	{r7, pc}
 160              		.cfi_endproc
 161              	.LFE3:
 162              		.size	NSDSPI_RX_BYTE_COUNTER_Wakeup, .-NSDSPI_RX_BYTE_COUNTER_Wakeup
 163              		.text
 164              	.Letext0:
 165              		.file 2 "Generated_Source\\PSoC5\\cytypes.h"
 166              		.file 3 "Generated_Source\\PSoC5\\NSDSPI_RX_BYTE_COUNTER.h"