ARM GAS  C:\Users\HPz420\AppData\Local\Temp\cclzAzD7.s 			page 1


   1              		.syntax unified
   2              		.cpu cortex-m3
   3              		.fpu softvfp
   4              		.eabi_attribute 20, 1
   5              		.eabi_attribute 21, 1
   6              		.eabi_attribute 23, 3
   7              		.eabi_attribute 24, 1
   8              		.eabi_attribute 25, 1
   9              		.eabi_attribute 26, 1
  10              		.eabi_attribute 30, 6
  11              		.eabi_attribute 34, 1
  12              		.eabi_attribute 18, 4
  13              		.thumb
  14              		.syntax unified
  15              		.file	"NSDSPI_RX_BYTE_COUNTER.c"
  16              		.text
  17              	.Ltext0:
  18              		.cfi_sections	.debug_frame
  19              		.global	NSDSPI_RX_BYTE_COUNTER_initVar
  20              		.bss
  21              		.type	NSDSPI_RX_BYTE_COUNTER_initVar, %object
  22              		.size	NSDSPI_RX_BYTE_COUNTER_initVar, 1
  23              	NSDSPI_RX_BYTE_COUNTER_initVar:
  24 0000 00       		.space	1
  25              		.section	.text.NSDSPI_RX_BYTE_COUNTER_Init,"ax",%progbits
  26              		.align	2
  27              		.global	NSDSPI_RX_BYTE_COUNTER_Init
  28              		.thumb
  29              		.thumb_func
  30              		.type	NSDSPI_RX_BYTE_COUNTER_Init, %function
  31              	NSDSPI_RX_BYTE_COUNTER_Init:
  32              	.LFB0:
  33              		.file 1 "Generated_Source\\PSoC5\\NSDSPI_RX_BYTE_COUNTER.c"
   1:Generated_Source\PSoC5/NSDSPI_RX_BYTE_COUNTER.c **** /*******************************************************************************
   2:Generated_Source\PSoC5/NSDSPI_RX_BYTE_COUNTER.c **** * File Name: NSDSPI_RX_BYTE_COUNTER.c  
   3:Generated_Source\PSoC5/NSDSPI_RX_BYTE_COUNTER.c **** * Version 3.0
   4:Generated_Source\PSoC5/NSDSPI_RX_BYTE_COUNTER.c **** *
   5:Generated_Source\PSoC5/NSDSPI_RX_BYTE_COUNTER.c **** *  Description:
   6:Generated_Source\PSoC5/NSDSPI_RX_BYTE_COUNTER.c **** *     The Counter component consists of a 8, 16, 24 or 32-bit counter with
   7:Generated_Source\PSoC5/NSDSPI_RX_BYTE_COUNTER.c **** *     a selectable period between 2 and 2^Width - 1.  
   8:Generated_Source\PSoC5/NSDSPI_RX_BYTE_COUNTER.c **** *
   9:Generated_Source\PSoC5/NSDSPI_RX_BYTE_COUNTER.c **** *   Note:
  10:Generated_Source\PSoC5/NSDSPI_RX_BYTE_COUNTER.c **** *     None
  11:Generated_Source\PSoC5/NSDSPI_RX_BYTE_COUNTER.c **** *
  12:Generated_Source\PSoC5/NSDSPI_RX_BYTE_COUNTER.c **** ********************************************************************************
  13:Generated_Source\PSoC5/NSDSPI_RX_BYTE_COUNTER.c **** * Copyright 2008-2012, Cypress Semiconductor Corporation.  All rights reserved.
  14:Generated_Source\PSoC5/NSDSPI_RX_BYTE_COUNTER.c **** * You may use this file only in accordance with the license, terms, conditions, 
  15:Generated_Source\PSoC5/NSDSPI_RX_BYTE_COUNTER.c **** * disclaimers, and limitations in the end user license agreement accompanying 
  16:Generated_Source\PSoC5/NSDSPI_RX_BYTE_COUNTER.c **** * the software package with which this file was provided.
  17:Generated_Source\PSoC5/NSDSPI_RX_BYTE_COUNTER.c **** *******************************************************************************/
  18:Generated_Source\PSoC5/NSDSPI_RX_BYTE_COUNTER.c **** 
  19:Generated_Source\PSoC5/NSDSPI_RX_BYTE_COUNTER.c **** #include "NSDSPI_RX_BYTE_COUNTER.h"
  20:Generated_Source\PSoC5/NSDSPI_RX_BYTE_COUNTER.c **** 
  21:Generated_Source\PSoC5/NSDSPI_RX_BYTE_COUNTER.c **** uint8 NSDSPI_RX_BYTE_COUNTER_initVar = 0u;
  22:Generated_Source\PSoC5/NSDSPI_RX_BYTE_COUNTER.c **** 
  23:Generated_Source\PSoC5/NSDSPI_RX_BYTE_COUNTER.c **** 
  24:Generated_Source\PSoC5/NSDSPI_RX_BYTE_COUNTER.c **** /*******************************************************************************
ARM GAS  C:\Users\HPz420\AppData\Local\Temp\cclzAzD7.s 			page 2


  25:Generated_Source\PSoC5/NSDSPI_RX_BYTE_COUNTER.c **** * Function Name: NSDSPI_RX_BYTE_COUNTER_Init
  26:Generated_Source\PSoC5/NSDSPI_RX_BYTE_COUNTER.c **** ********************************************************************************
  27:Generated_Source\PSoC5/NSDSPI_RX_BYTE_COUNTER.c **** * Summary:
  28:Generated_Source\PSoC5/NSDSPI_RX_BYTE_COUNTER.c **** *     Initialize to the schematic state
  29:Generated_Source\PSoC5/NSDSPI_RX_BYTE_COUNTER.c **** * 
  30:Generated_Source\PSoC5/NSDSPI_RX_BYTE_COUNTER.c **** * Parameters:  
  31:Generated_Source\PSoC5/NSDSPI_RX_BYTE_COUNTER.c **** *  void  
  32:Generated_Source\PSoC5/NSDSPI_RX_BYTE_COUNTER.c **** *
  33:Generated_Source\PSoC5/NSDSPI_RX_BYTE_COUNTER.c **** * Return: 
  34:Generated_Source\PSoC5/NSDSPI_RX_BYTE_COUNTER.c **** *  void
  35:Generated_Source\PSoC5/NSDSPI_RX_BYTE_COUNTER.c **** *
  36:Generated_Source\PSoC5/NSDSPI_RX_BYTE_COUNTER.c **** *******************************************************************************/
  37:Generated_Source\PSoC5/NSDSPI_RX_BYTE_COUNTER.c **** void NSDSPI_RX_BYTE_COUNTER_Init(void) 
  38:Generated_Source\PSoC5/NSDSPI_RX_BYTE_COUNTER.c **** {
  34              		.loc 1 38 0
  35              		.cfi_startproc
  36              		@ args = 0, pretend = 0, frame = 8
  37              		@ frame_needed = 1, uses_anonymous_args = 0
  38 0000 80B5     		push	{r7, lr}
  39              		.cfi_def_cfa_offset 8
  40              		.cfi_offset 7, -8
  41              		.cfi_offset 14, -4
  42 0002 82B0     		sub	sp, sp, #8
  43              		.cfi_def_cfa_offset 16
  44 0004 00AF     		add	r7, sp, #0
  45              		.cfi_def_cfa_register 7
  39:Generated_Source\PSoC5/NSDSPI_RX_BYTE_COUNTER.c ****         #if (!NSDSPI_RX_BYTE_COUNTER_UsingFixedFunction && !NSDSPI_RX_BYTE_COUNTER_ControlRegRemove
  40:Generated_Source\PSoC5/NSDSPI_RX_BYTE_COUNTER.c ****             uint8 ctrl;
  41:Generated_Source\PSoC5/NSDSPI_RX_BYTE_COUNTER.c ****         #endif /* (!NSDSPI_RX_BYTE_COUNTER_UsingFixedFunction && !NSDSPI_RX_BYTE_COUNTER_ControlReg
  42:Generated_Source\PSoC5/NSDSPI_RX_BYTE_COUNTER.c ****         
  43:Generated_Source\PSoC5/NSDSPI_RX_BYTE_COUNTER.c ****         #if(!NSDSPI_RX_BYTE_COUNTER_UsingFixedFunction) 
  44:Generated_Source\PSoC5/NSDSPI_RX_BYTE_COUNTER.c ****             /* Interrupt State Backup for Critical Region*/
  45:Generated_Source\PSoC5/NSDSPI_RX_BYTE_COUNTER.c ****             uint8 NSDSPI_RX_BYTE_COUNTER_interruptState;
  46:Generated_Source\PSoC5/NSDSPI_RX_BYTE_COUNTER.c ****         #endif /* (!NSDSPI_RX_BYTE_COUNTER_UsingFixedFunction) */
  47:Generated_Source\PSoC5/NSDSPI_RX_BYTE_COUNTER.c ****         
  48:Generated_Source\PSoC5/NSDSPI_RX_BYTE_COUNTER.c ****         #if (NSDSPI_RX_BYTE_COUNTER_UsingFixedFunction)
  49:Generated_Source\PSoC5/NSDSPI_RX_BYTE_COUNTER.c ****             /* Clear all bits but the enable bit (if it's already set for Timer operation */
  50:Generated_Source\PSoC5/NSDSPI_RX_BYTE_COUNTER.c ****             NSDSPI_RX_BYTE_COUNTER_CONTROL &= NSDSPI_RX_BYTE_COUNTER_CTRL_ENABLE;
  51:Generated_Source\PSoC5/NSDSPI_RX_BYTE_COUNTER.c ****             
  52:Generated_Source\PSoC5/NSDSPI_RX_BYTE_COUNTER.c ****             /* Clear the mode bits for continuous run mode */
  53:Generated_Source\PSoC5/NSDSPI_RX_BYTE_COUNTER.c ****             #if (CY_PSOC5A)
  54:Generated_Source\PSoC5/NSDSPI_RX_BYTE_COUNTER.c ****                 NSDSPI_RX_BYTE_COUNTER_CONTROL2 &= ((uint8)(~NSDSPI_RX_BYTE_COUNTER_CTRL_MODE_MASK)
  55:Generated_Source\PSoC5/NSDSPI_RX_BYTE_COUNTER.c ****             #endif /* (CY_PSOC5A) */
  56:Generated_Source\PSoC5/NSDSPI_RX_BYTE_COUNTER.c ****             #if (CY_PSOC3 || CY_PSOC5LP)
  57:Generated_Source\PSoC5/NSDSPI_RX_BYTE_COUNTER.c ****                 NSDSPI_RX_BYTE_COUNTER_CONTROL3 &= ((uint8)(~NSDSPI_RX_BYTE_COUNTER_CTRL_MODE_MASK)
  58:Generated_Source\PSoC5/NSDSPI_RX_BYTE_COUNTER.c ****             #endif /* (CY_PSOC3 || CY_PSOC5LP) */
  59:Generated_Source\PSoC5/NSDSPI_RX_BYTE_COUNTER.c ****             /* Check if One Shot mode is enabled i.e. RunMode !=0*/
  60:Generated_Source\PSoC5/NSDSPI_RX_BYTE_COUNTER.c ****             #if (NSDSPI_RX_BYTE_COUNTER_RunModeUsed != 0x0u)
  61:Generated_Source\PSoC5/NSDSPI_RX_BYTE_COUNTER.c ****                 /* Set 3rd bit of Control register to enable one shot mode */
  62:Generated_Source\PSoC5/NSDSPI_RX_BYTE_COUNTER.c ****                 NSDSPI_RX_BYTE_COUNTER_CONTROL |= NSDSPI_RX_BYTE_COUNTER_ONESHOT;
  63:Generated_Source\PSoC5/NSDSPI_RX_BYTE_COUNTER.c ****             #endif /* (NSDSPI_RX_BYTE_COUNTER_RunModeUsed != 0x0u) */
  64:Generated_Source\PSoC5/NSDSPI_RX_BYTE_COUNTER.c ****             
  65:Generated_Source\PSoC5/NSDSPI_RX_BYTE_COUNTER.c ****             /* Set the IRQ to use the status register interrupts */
  66:Generated_Source\PSoC5/NSDSPI_RX_BYTE_COUNTER.c ****             NSDSPI_RX_BYTE_COUNTER_CONTROL2 |= NSDSPI_RX_BYTE_COUNTER_CTRL2_IRQ_SEL;
  67:Generated_Source\PSoC5/NSDSPI_RX_BYTE_COUNTER.c ****             
  68:Generated_Source\PSoC5/NSDSPI_RX_BYTE_COUNTER.c ****             /* Clear and Set SYNCTC and SYNCCMP bits of RT1 register */
  69:Generated_Source\PSoC5/NSDSPI_RX_BYTE_COUNTER.c ****             NSDSPI_RX_BYTE_COUNTER_RT1 &= ((uint8)(~NSDSPI_RX_BYTE_COUNTER_RT1_MASK));
ARM GAS  C:\Users\HPz420\AppData\Local\Temp\cclzAzD7.s 			page 3


  70:Generated_Source\PSoC5/NSDSPI_RX_BYTE_COUNTER.c ****             NSDSPI_RX_BYTE_COUNTER_RT1 |= NSDSPI_RX_BYTE_COUNTER_SYNC;     
  71:Generated_Source\PSoC5/NSDSPI_RX_BYTE_COUNTER.c ****                     
  72:Generated_Source\PSoC5/NSDSPI_RX_BYTE_COUNTER.c ****             /*Enable DSI Sync all all inputs of the Timer*/
  73:Generated_Source\PSoC5/NSDSPI_RX_BYTE_COUNTER.c ****             NSDSPI_RX_BYTE_COUNTER_RT1 &= ((uint8)(~NSDSPI_RX_BYTE_COUNTER_SYNCDSI_MASK));
  74:Generated_Source\PSoC5/NSDSPI_RX_BYTE_COUNTER.c ****             NSDSPI_RX_BYTE_COUNTER_RT1 |= NSDSPI_RX_BYTE_COUNTER_SYNCDSI_EN;
  75:Generated_Source\PSoC5/NSDSPI_RX_BYTE_COUNTER.c **** 
  76:Generated_Source\PSoC5/NSDSPI_RX_BYTE_COUNTER.c ****         #else
  77:Generated_Source\PSoC5/NSDSPI_RX_BYTE_COUNTER.c ****             #if(!NSDSPI_RX_BYTE_COUNTER_ControlRegRemoved)
  78:Generated_Source\PSoC5/NSDSPI_RX_BYTE_COUNTER.c ****             /* Set the default compare mode defined in the parameter */
  79:Generated_Source\PSoC5/NSDSPI_RX_BYTE_COUNTER.c ****             ctrl = NSDSPI_RX_BYTE_COUNTER_CONTROL & ((uint8)(~NSDSPI_RX_BYTE_COUNTER_CTRL_CMPMODE_M
  80:Generated_Source\PSoC5/NSDSPI_RX_BYTE_COUNTER.c ****             NSDSPI_RX_BYTE_COUNTER_CONTROL = ctrl | NSDSPI_RX_BYTE_COUNTER_DEFAULT_COMPARE_MODE;
  81:Generated_Source\PSoC5/NSDSPI_RX_BYTE_COUNTER.c ****             
  82:Generated_Source\PSoC5/NSDSPI_RX_BYTE_COUNTER.c ****             /* Set the default capture mode defined in the parameter */
  83:Generated_Source\PSoC5/NSDSPI_RX_BYTE_COUNTER.c ****             ctrl = NSDSPI_RX_BYTE_COUNTER_CONTROL & ((uint8)(~NSDSPI_RX_BYTE_COUNTER_CTRL_CAPMODE_M
  84:Generated_Source\PSoC5/NSDSPI_RX_BYTE_COUNTER.c ****             
  85:Generated_Source\PSoC5/NSDSPI_RX_BYTE_COUNTER.c ****             #if( 0 != NSDSPI_RX_BYTE_COUNTER_CAPTURE_MODE_CONF)
  86:Generated_Source\PSoC5/NSDSPI_RX_BYTE_COUNTER.c ****                 NSDSPI_RX_BYTE_COUNTER_CONTROL = ctrl | NSDSPI_RX_BYTE_COUNTER_DEFAULT_CAPTURE_MODE
  87:Generated_Source\PSoC5/NSDSPI_RX_BYTE_COUNTER.c ****             #else
  88:Generated_Source\PSoC5/NSDSPI_RX_BYTE_COUNTER.c ****                 NSDSPI_RX_BYTE_COUNTER_CONTROL = ctrl;
  89:Generated_Source\PSoC5/NSDSPI_RX_BYTE_COUNTER.c ****             #endif /* 0 != NSDSPI_RX_BYTE_COUNTER_CAPTURE_MODE */ 
  90:Generated_Source\PSoC5/NSDSPI_RX_BYTE_COUNTER.c ****             
  91:Generated_Source\PSoC5/NSDSPI_RX_BYTE_COUNTER.c ****             #endif /* (!NSDSPI_RX_BYTE_COUNTER_ControlRegRemoved) */
  92:Generated_Source\PSoC5/NSDSPI_RX_BYTE_COUNTER.c ****         #endif /* (NSDSPI_RX_BYTE_COUNTER_UsingFixedFunction) */
  93:Generated_Source\PSoC5/NSDSPI_RX_BYTE_COUNTER.c ****         
  94:Generated_Source\PSoC5/NSDSPI_RX_BYTE_COUNTER.c ****         /* Clear all data in the FIFO's */
  95:Generated_Source\PSoC5/NSDSPI_RX_BYTE_COUNTER.c ****         #if (!NSDSPI_RX_BYTE_COUNTER_UsingFixedFunction)
  96:Generated_Source\PSoC5/NSDSPI_RX_BYTE_COUNTER.c ****             NSDSPI_RX_BYTE_COUNTER_ClearFIFO();
  46              		.loc 1 96 0
  47 0006 FFF7FEFF 		bl	NSDSPI_RX_BYTE_COUNTER_ClearFIFO
  97:Generated_Source\PSoC5/NSDSPI_RX_BYTE_COUNTER.c ****         #endif /* (!NSDSPI_RX_BYTE_COUNTER_UsingFixedFunction) */
  98:Generated_Source\PSoC5/NSDSPI_RX_BYTE_COUNTER.c ****         
  99:Generated_Source\PSoC5/NSDSPI_RX_BYTE_COUNTER.c ****         /* Set Initial values from Configuration */
 100:Generated_Source\PSoC5/NSDSPI_RX_BYTE_COUNTER.c ****         NSDSPI_RX_BYTE_COUNTER_WritePeriod(NSDSPI_RX_BYTE_COUNTER_INIT_PERIOD_VALUE);
  48              		.loc 1 100 0
  49 000a 4FF6FF70 		movw	r0, #65535
  50 000e FFF7FEFF 		bl	NSDSPI_RX_BYTE_COUNTER_WritePeriod
 101:Generated_Source\PSoC5/NSDSPI_RX_BYTE_COUNTER.c ****         #if (!(NSDSPI_RX_BYTE_COUNTER_UsingFixedFunction && (CY_PSOC5A)))
 102:Generated_Source\PSoC5/NSDSPI_RX_BYTE_COUNTER.c ****             NSDSPI_RX_BYTE_COUNTER_WriteCounter(NSDSPI_RX_BYTE_COUNTER_INIT_COUNTER_VALUE);
  51              		.loc 1 102 0
  52 0012 0020     		movs	r0, #0
  53 0014 FFF7FEFF 		bl	NSDSPI_RX_BYTE_COUNTER_WriteCounter
 103:Generated_Source\PSoC5/NSDSPI_RX_BYTE_COUNTER.c ****         #endif /* (!(NSDSPI_RX_BYTE_COUNTER_UsingFixedFunction && (CY_PSOC5A))) */
 104:Generated_Source\PSoC5/NSDSPI_RX_BYTE_COUNTER.c ****         NSDSPI_RX_BYTE_COUNTER_SetInterruptMode(NSDSPI_RX_BYTE_COUNTER_INIT_INTERRUPTS_MASK);
  54              		.loc 1 104 0
  55 0018 0020     		movs	r0, #0
  56 001a FFF7FEFF 		bl	NSDSPI_RX_BYTE_COUNTER_SetInterruptMode
 105:Generated_Source\PSoC5/NSDSPI_RX_BYTE_COUNTER.c ****         
 106:Generated_Source\PSoC5/NSDSPI_RX_BYTE_COUNTER.c ****         #if (!NSDSPI_RX_BYTE_COUNTER_UsingFixedFunction)
 107:Generated_Source\PSoC5/NSDSPI_RX_BYTE_COUNTER.c ****             /* Read the status register to clear the unwanted interrupts */
 108:Generated_Source\PSoC5/NSDSPI_RX_BYTE_COUNTER.c ****             (void)NSDSPI_RX_BYTE_COUNTER_ReadStatusRegister();
  57              		.loc 1 108 0
  58 001e FFF7FEFF 		bl	NSDSPI_RX_BYTE_COUNTER_ReadStatusRegister
 109:Generated_Source\PSoC5/NSDSPI_RX_BYTE_COUNTER.c ****             /* Set the compare value (only available to non-fixed function implementation */
 110:Generated_Source\PSoC5/NSDSPI_RX_BYTE_COUNTER.c ****             NSDSPI_RX_BYTE_COUNTER_WriteCompare(NSDSPI_RX_BYTE_COUNTER_INIT_COMPARE_VALUE);
  59              		.loc 1 110 0
  60 0022 0120     		movs	r0, #1
  61 0024 FFF7FEFF 		bl	NSDSPI_RX_BYTE_COUNTER_WriteCompare
ARM GAS  C:\Users\HPz420\AppData\Local\Temp\cclzAzD7.s 			page 4


 111:Generated_Source\PSoC5/NSDSPI_RX_BYTE_COUNTER.c ****             /* Use the interrupt output of the status register for IRQ output */
 112:Generated_Source\PSoC5/NSDSPI_RX_BYTE_COUNTER.c ****             
 113:Generated_Source\PSoC5/NSDSPI_RX_BYTE_COUNTER.c ****             /* CyEnterCriticalRegion and CyExitCriticalRegion are used to mark following region cri
 114:Generated_Source\PSoC5/NSDSPI_RX_BYTE_COUNTER.c ****             /* Enter Critical Region*/
 115:Generated_Source\PSoC5/NSDSPI_RX_BYTE_COUNTER.c ****             NSDSPI_RX_BYTE_COUNTER_interruptState = CyEnterCriticalSection();
  62              		.loc 1 115 0
  63 0028 FFF7FEFF 		bl	CyEnterCriticalSection
  64 002c 0346     		mov	r3, r0
  65 002e FB71     		strb	r3, [r7, #7]
 116:Generated_Source\PSoC5/NSDSPI_RX_BYTE_COUNTER.c ****             
 117:Generated_Source\PSoC5/NSDSPI_RX_BYTE_COUNTER.c ****             NSDSPI_RX_BYTE_COUNTER_STATUS_AUX_CTRL |= NSDSPI_RX_BYTE_COUNTER_STATUS_ACTL_INT_EN_MAS
  66              		.loc 1 117 0
  67 0030 074A     		ldr	r2, .L2
  68 0032 074B     		ldr	r3, .L2
  69 0034 1B78     		ldrb	r3, [r3]
  70 0036 DBB2     		uxtb	r3, r3
  71 0038 43F01003 		orr	r3, r3, #16
  72 003c DBB2     		uxtb	r3, r3
  73 003e 1370     		strb	r3, [r2]
 118:Generated_Source\PSoC5/NSDSPI_RX_BYTE_COUNTER.c ****             
 119:Generated_Source\PSoC5/NSDSPI_RX_BYTE_COUNTER.c ****             /* Exit Critical Region*/
 120:Generated_Source\PSoC5/NSDSPI_RX_BYTE_COUNTER.c ****             CyExitCriticalSection(NSDSPI_RX_BYTE_COUNTER_interruptState);
  74              		.loc 1 120 0
  75 0040 FB79     		ldrb	r3, [r7, #7]	@ zero_extendqisi2
  76 0042 1846     		mov	r0, r3
  77 0044 FFF7FEFF 		bl	CyExitCriticalSection
 121:Generated_Source\PSoC5/NSDSPI_RX_BYTE_COUNTER.c ****             
 122:Generated_Source\PSoC5/NSDSPI_RX_BYTE_COUNTER.c ****         #endif /* (!NSDSPI_RX_BYTE_COUNTER_UsingFixedFunction) */
 123:Generated_Source\PSoC5/NSDSPI_RX_BYTE_COUNTER.c **** }
  78              		.loc 1 123 0
  79 0048 00BF     		nop
  80 004a 0837     		adds	r7, r7, #8
  81              		.cfi_def_cfa_offset 8
  82 004c BD46     		mov	sp, r7
  83              		.cfi_def_cfa_register 13
  84              		@ sp needed
  85 004e 80BD     		pop	{r7, pc}
  86              	.L3:
  87              		.align	2
  88              	.L2:
  89 0050 9B640040 		.word	1073767579
  90              		.cfi_endproc
  91              	.LFE0:
  92              		.size	NSDSPI_RX_BYTE_COUNTER_Init, .-NSDSPI_RX_BYTE_COUNTER_Init
  93              		.section	.text.NSDSPI_RX_BYTE_COUNTER_Enable,"ax",%progbits
  94              		.align	2
  95              		.global	NSDSPI_RX_BYTE_COUNTER_Enable
  96              		.thumb
  97              		.thumb_func
  98              		.type	NSDSPI_RX_BYTE_COUNTER_Enable, %function
  99              	NSDSPI_RX_BYTE_COUNTER_Enable:
 100              	.LFB1:
 124:Generated_Source\PSoC5/NSDSPI_RX_BYTE_COUNTER.c **** 
 125:Generated_Source\PSoC5/NSDSPI_RX_BYTE_COUNTER.c **** 
 126:Generated_Source\PSoC5/NSDSPI_RX_BYTE_COUNTER.c **** /*******************************************************************************
 127:Generated_Source\PSoC5/NSDSPI_RX_BYTE_COUNTER.c **** * Function Name: NSDSPI_RX_BYTE_COUNTER_Enable
 128:Generated_Source\PSoC5/NSDSPI_RX_BYTE_COUNTER.c **** ********************************************************************************
ARM GAS  C:\Users\HPz420\AppData\Local\Temp\cclzAzD7.s 			page 5


 129:Generated_Source\PSoC5/NSDSPI_RX_BYTE_COUNTER.c **** * Summary:
 130:Generated_Source\PSoC5/NSDSPI_RX_BYTE_COUNTER.c **** *     Enable the Counter
 131:Generated_Source\PSoC5/NSDSPI_RX_BYTE_COUNTER.c **** * 
 132:Generated_Source\PSoC5/NSDSPI_RX_BYTE_COUNTER.c **** * Parameters:  
 133:Generated_Source\PSoC5/NSDSPI_RX_BYTE_COUNTER.c **** *  void  
 134:Generated_Source\PSoC5/NSDSPI_RX_BYTE_COUNTER.c **** *
 135:Generated_Source\PSoC5/NSDSPI_RX_BYTE_COUNTER.c **** * Return: 
 136:Generated_Source\PSoC5/NSDSPI_RX_BYTE_COUNTER.c **** *  void
 137:Generated_Source\PSoC5/NSDSPI_RX_BYTE_COUNTER.c **** *
 138:Generated_Source\PSoC5/NSDSPI_RX_BYTE_COUNTER.c **** * Side Effects: 
 139:Generated_Source\PSoC5/NSDSPI_RX_BYTE_COUNTER.c **** *   If the Enable mode is set to Hardware only then this function has no effect 
 140:Generated_Source\PSoC5/NSDSPI_RX_BYTE_COUNTER.c **** *   on the operation of the counter.
 141:Generated_Source\PSoC5/NSDSPI_RX_BYTE_COUNTER.c **** *
 142:Generated_Source\PSoC5/NSDSPI_RX_BYTE_COUNTER.c **** *******************************************************************************/
 143:Generated_Source\PSoC5/NSDSPI_RX_BYTE_COUNTER.c **** void NSDSPI_RX_BYTE_COUNTER_Enable(void) 
 144:Generated_Source\PSoC5/NSDSPI_RX_BYTE_COUNTER.c **** {
 101              		.loc 1 144 0
 102              		.cfi_startproc
 103              		@ args = 0, pretend = 0, frame = 0
 104              		@ frame_needed = 1, uses_anonymous_args = 0
 105              		@ link register save eliminated.
 106 0000 80B4     		push	{r7}
 107              		.cfi_def_cfa_offset 4
 108              		.cfi_offset 7, -4
 109 0002 00AF     		add	r7, sp, #0
 110              		.cfi_def_cfa_register 7
 145:Generated_Source\PSoC5/NSDSPI_RX_BYTE_COUNTER.c ****     /* Globally Enable the Fixed Function Block chosen */
 146:Generated_Source\PSoC5/NSDSPI_RX_BYTE_COUNTER.c ****     #if (NSDSPI_RX_BYTE_COUNTER_UsingFixedFunction)
 147:Generated_Source\PSoC5/NSDSPI_RX_BYTE_COUNTER.c ****         NSDSPI_RX_BYTE_COUNTER_GLOBAL_ENABLE |= NSDSPI_RX_BYTE_COUNTER_BLOCK_EN_MASK;
 148:Generated_Source\PSoC5/NSDSPI_RX_BYTE_COUNTER.c ****         NSDSPI_RX_BYTE_COUNTER_GLOBAL_STBY_ENABLE |= NSDSPI_RX_BYTE_COUNTER_BLOCK_STBY_EN_MASK;
 149:Generated_Source\PSoC5/NSDSPI_RX_BYTE_COUNTER.c ****     #endif /* (NSDSPI_RX_BYTE_COUNTER_UsingFixedFunction) */  
 150:Generated_Source\PSoC5/NSDSPI_RX_BYTE_COUNTER.c ****         
 151:Generated_Source\PSoC5/NSDSPI_RX_BYTE_COUNTER.c ****     /* Enable the counter from the control register  */
 152:Generated_Source\PSoC5/NSDSPI_RX_BYTE_COUNTER.c ****     /* If Fixed Function then make sure Mode is set correctly */
 153:Generated_Source\PSoC5/NSDSPI_RX_BYTE_COUNTER.c ****     /* else make sure reset is clear */
 154:Generated_Source\PSoC5/NSDSPI_RX_BYTE_COUNTER.c ****     #if(!NSDSPI_RX_BYTE_COUNTER_ControlRegRemoved || NSDSPI_RX_BYTE_COUNTER_UsingFixedFunction)
 155:Generated_Source\PSoC5/NSDSPI_RX_BYTE_COUNTER.c ****         NSDSPI_RX_BYTE_COUNTER_CONTROL |= NSDSPI_RX_BYTE_COUNTER_CTRL_ENABLE;                
 156:Generated_Source\PSoC5/NSDSPI_RX_BYTE_COUNTER.c ****     #endif /* (!NSDSPI_RX_BYTE_COUNTER_ControlRegRemoved || NSDSPI_RX_BYTE_COUNTER_UsingFixedFuncti
 157:Generated_Source\PSoC5/NSDSPI_RX_BYTE_COUNTER.c ****     
 158:Generated_Source\PSoC5/NSDSPI_RX_BYTE_COUNTER.c **** }
 111              		.loc 1 158 0
 112 0004 00BF     		nop
 113 0006 BD46     		mov	sp, r7
 114              		.cfi_def_cfa_register 13
 115              		@ sp needed
 116 0008 80BC     		pop	{r7}
 117              		.cfi_restore 7
 118              		.cfi_def_cfa_offset 0
 119 000a 7047     		bx	lr
 120              		.cfi_endproc
 121              	.LFE1:
 122              		.size	NSDSPI_RX_BYTE_COUNTER_Enable, .-NSDSPI_RX_BYTE_COUNTER_Enable
 123              		.section	.text.NSDSPI_RX_BYTE_COUNTER_Start,"ax",%progbits
 124              		.align	2
 125              		.global	NSDSPI_RX_BYTE_COUNTER_Start
 126              		.thumb
 127              		.thumb_func
ARM GAS  C:\Users\HPz420\AppData\Local\Temp\cclzAzD7.s 			page 6


 128              		.type	NSDSPI_RX_BYTE_COUNTER_Start, %function
 129              	NSDSPI_RX_BYTE_COUNTER_Start:
 130              	.LFB2:
 159:Generated_Source\PSoC5/NSDSPI_RX_BYTE_COUNTER.c **** 
 160:Generated_Source\PSoC5/NSDSPI_RX_BYTE_COUNTER.c **** 
 161:Generated_Source\PSoC5/NSDSPI_RX_BYTE_COUNTER.c **** /*******************************************************************************
 162:Generated_Source\PSoC5/NSDSPI_RX_BYTE_COUNTER.c **** * Function Name: NSDSPI_RX_BYTE_COUNTER_Start
 163:Generated_Source\PSoC5/NSDSPI_RX_BYTE_COUNTER.c **** ********************************************************************************
 164:Generated_Source\PSoC5/NSDSPI_RX_BYTE_COUNTER.c **** * Summary:
 165:Generated_Source\PSoC5/NSDSPI_RX_BYTE_COUNTER.c **** *  Enables the counter for operation 
 166:Generated_Source\PSoC5/NSDSPI_RX_BYTE_COUNTER.c **** *
 167:Generated_Source\PSoC5/NSDSPI_RX_BYTE_COUNTER.c **** * Parameters:  
 168:Generated_Source\PSoC5/NSDSPI_RX_BYTE_COUNTER.c **** *  void  
 169:Generated_Source\PSoC5/NSDSPI_RX_BYTE_COUNTER.c **** *
 170:Generated_Source\PSoC5/NSDSPI_RX_BYTE_COUNTER.c **** * Return: 
 171:Generated_Source\PSoC5/NSDSPI_RX_BYTE_COUNTER.c **** *  void
 172:Generated_Source\PSoC5/NSDSPI_RX_BYTE_COUNTER.c **** *
 173:Generated_Source\PSoC5/NSDSPI_RX_BYTE_COUNTER.c **** * Global variables:
 174:Generated_Source\PSoC5/NSDSPI_RX_BYTE_COUNTER.c **** *  NSDSPI_RX_BYTE_COUNTER_initVar: Is modified when this function is called for the  
 175:Generated_Source\PSoC5/NSDSPI_RX_BYTE_COUNTER.c **** *   first time. Is used to ensure that initialization happens only once.
 176:Generated_Source\PSoC5/NSDSPI_RX_BYTE_COUNTER.c **** *
 177:Generated_Source\PSoC5/NSDSPI_RX_BYTE_COUNTER.c **** *******************************************************************************/
 178:Generated_Source\PSoC5/NSDSPI_RX_BYTE_COUNTER.c **** void NSDSPI_RX_BYTE_COUNTER_Start(void) 
 179:Generated_Source\PSoC5/NSDSPI_RX_BYTE_COUNTER.c **** {
 131              		.loc 1 179 0
 132              		.cfi_startproc
 133              		@ args = 0, pretend = 0, frame = 0
 134              		@ frame_needed = 1, uses_anonymous_args = 0
 135 0000 80B5     		push	{r7, lr}
 136              		.cfi_def_cfa_offset 8
 137              		.cfi_offset 7, -8
 138              		.cfi_offset 14, -4
 139 0002 00AF     		add	r7, sp, #0
 140              		.cfi_def_cfa_register 7
 180:Generated_Source\PSoC5/NSDSPI_RX_BYTE_COUNTER.c ****     if(NSDSPI_RX_BYTE_COUNTER_initVar == 0u)
 141              		.loc 1 180 0
 142 0004 064B     		ldr	r3, .L7
 143 0006 1B78     		ldrb	r3, [r3]	@ zero_extendqisi2
 144 0008 002B     		cmp	r3, #0
 145 000a 04D1     		bne	.L6
 181:Generated_Source\PSoC5/NSDSPI_RX_BYTE_COUNTER.c ****     {
 182:Generated_Source\PSoC5/NSDSPI_RX_BYTE_COUNTER.c ****         NSDSPI_RX_BYTE_COUNTER_Init();
 146              		.loc 1 182 0
 147 000c FFF7FEFF 		bl	NSDSPI_RX_BYTE_COUNTER_Init
 183:Generated_Source\PSoC5/NSDSPI_RX_BYTE_COUNTER.c ****         
 184:Generated_Source\PSoC5/NSDSPI_RX_BYTE_COUNTER.c ****         NSDSPI_RX_BYTE_COUNTER_initVar = 1u; /* Clear this bit for Initialization */        
 148              		.loc 1 184 0
 149 0010 034B     		ldr	r3, .L7
 150 0012 0122     		movs	r2, #1
 151 0014 1A70     		strb	r2, [r3]
 152              	.L6:
 185:Generated_Source\PSoC5/NSDSPI_RX_BYTE_COUNTER.c ****     }
 186:Generated_Source\PSoC5/NSDSPI_RX_BYTE_COUNTER.c ****     
 187:Generated_Source\PSoC5/NSDSPI_RX_BYTE_COUNTER.c ****     /* Enable the Counter */
 188:Generated_Source\PSoC5/NSDSPI_RX_BYTE_COUNTER.c ****     NSDSPI_RX_BYTE_COUNTER_Enable();        
 153              		.loc 1 188 0
 154 0016 FFF7FEFF 		bl	NSDSPI_RX_BYTE_COUNTER_Enable
ARM GAS  C:\Users\HPz420\AppData\Local\Temp\cclzAzD7.s 			page 7


 189:Generated_Source\PSoC5/NSDSPI_RX_BYTE_COUNTER.c **** }
 155              		.loc 1 189 0
 156 001a 00BF     		nop
 157 001c 80BD     		pop	{r7, pc}
 158              	.L8:
 159 001e 00BF     		.align	2
 160              	.L7:
 161 0020 00000000 		.word	NSDSPI_RX_BYTE_COUNTER_initVar
 162              		.cfi_endproc
 163              	.LFE2:
 164              		.size	NSDSPI_RX_BYTE_COUNTER_Start, .-NSDSPI_RX_BYTE_COUNTER_Start
 165              		.section	.text.NSDSPI_RX_BYTE_COUNTER_Stop,"ax",%progbits
 166              		.align	2
 167              		.global	NSDSPI_RX_BYTE_COUNTER_Stop
 168              		.thumb
 169              		.thumb_func
 170              		.type	NSDSPI_RX_BYTE_COUNTER_Stop, %function
 171              	NSDSPI_RX_BYTE_COUNTER_Stop:
 172              	.LFB3:
 190:Generated_Source\PSoC5/NSDSPI_RX_BYTE_COUNTER.c **** 
 191:Generated_Source\PSoC5/NSDSPI_RX_BYTE_COUNTER.c **** 
 192:Generated_Source\PSoC5/NSDSPI_RX_BYTE_COUNTER.c **** /*******************************************************************************
 193:Generated_Source\PSoC5/NSDSPI_RX_BYTE_COUNTER.c **** * Function Name: NSDSPI_RX_BYTE_COUNTER_Stop
 194:Generated_Source\PSoC5/NSDSPI_RX_BYTE_COUNTER.c **** ********************************************************************************
 195:Generated_Source\PSoC5/NSDSPI_RX_BYTE_COUNTER.c **** * Summary:
 196:Generated_Source\PSoC5/NSDSPI_RX_BYTE_COUNTER.c **** * Halts the counter, but does not change any modes or disable interrupts.
 197:Generated_Source\PSoC5/NSDSPI_RX_BYTE_COUNTER.c **** *
 198:Generated_Source\PSoC5/NSDSPI_RX_BYTE_COUNTER.c **** * Parameters:  
 199:Generated_Source\PSoC5/NSDSPI_RX_BYTE_COUNTER.c **** *  void  
 200:Generated_Source\PSoC5/NSDSPI_RX_BYTE_COUNTER.c **** *
 201:Generated_Source\PSoC5/NSDSPI_RX_BYTE_COUNTER.c **** * Return: 
 202:Generated_Source\PSoC5/NSDSPI_RX_BYTE_COUNTER.c **** *  void
 203:Generated_Source\PSoC5/NSDSPI_RX_BYTE_COUNTER.c **** *
 204:Generated_Source\PSoC5/NSDSPI_RX_BYTE_COUNTER.c **** * Side Effects: If the Enable mode is set to Hardware only then this function
 205:Generated_Source\PSoC5/NSDSPI_RX_BYTE_COUNTER.c **** *               has no effect on the operation of the counter.
 206:Generated_Source\PSoC5/NSDSPI_RX_BYTE_COUNTER.c **** *
 207:Generated_Source\PSoC5/NSDSPI_RX_BYTE_COUNTER.c **** *******************************************************************************/
 208:Generated_Source\PSoC5/NSDSPI_RX_BYTE_COUNTER.c **** void NSDSPI_RX_BYTE_COUNTER_Stop(void) 
 209:Generated_Source\PSoC5/NSDSPI_RX_BYTE_COUNTER.c **** {
 173              		.loc 1 209 0
 174              		.cfi_startproc
 175              		@ args = 0, pretend = 0, frame = 0
 176              		@ frame_needed = 1, uses_anonymous_args = 0
 177              		@ link register save eliminated.
 178 0000 80B4     		push	{r7}
 179              		.cfi_def_cfa_offset 4
 180              		.cfi_offset 7, -4
 181 0002 00AF     		add	r7, sp, #0
 182              		.cfi_def_cfa_register 7
 210:Generated_Source\PSoC5/NSDSPI_RX_BYTE_COUNTER.c ****     /* Disable Counter */
 211:Generated_Source\PSoC5/NSDSPI_RX_BYTE_COUNTER.c ****     #if(!NSDSPI_RX_BYTE_COUNTER_ControlRegRemoved || NSDSPI_RX_BYTE_COUNTER_UsingFixedFunction)
 212:Generated_Source\PSoC5/NSDSPI_RX_BYTE_COUNTER.c ****         NSDSPI_RX_BYTE_COUNTER_CONTROL &= ((uint8)(~NSDSPI_RX_BYTE_COUNTER_CTRL_ENABLE));        
 213:Generated_Source\PSoC5/NSDSPI_RX_BYTE_COUNTER.c ****     #endif /* (!NSDSPI_RX_BYTE_COUNTER_ControlRegRemoved || NSDSPI_RX_BYTE_COUNTER_UsingFixedFuncti
 214:Generated_Source\PSoC5/NSDSPI_RX_BYTE_COUNTER.c ****     
 215:Generated_Source\PSoC5/NSDSPI_RX_BYTE_COUNTER.c ****     /* Globally disable the Fixed Function Block chosen */
 216:Generated_Source\PSoC5/NSDSPI_RX_BYTE_COUNTER.c ****     #if (NSDSPI_RX_BYTE_COUNTER_UsingFixedFunction)
 217:Generated_Source\PSoC5/NSDSPI_RX_BYTE_COUNTER.c ****         NSDSPI_RX_BYTE_COUNTER_GLOBAL_ENABLE &= ((uint8)(~NSDSPI_RX_BYTE_COUNTER_BLOCK_EN_MASK));
ARM GAS  C:\Users\HPz420\AppData\Local\Temp\cclzAzD7.s 			page 8


 218:Generated_Source\PSoC5/NSDSPI_RX_BYTE_COUNTER.c ****         NSDSPI_RX_BYTE_COUNTER_GLOBAL_STBY_ENABLE &= ((uint8)(~NSDSPI_RX_BYTE_COUNTER_BLOCK_STBY_EN
 219:Generated_Source\PSoC5/NSDSPI_RX_BYTE_COUNTER.c ****     #endif /* (NSDSPI_RX_BYTE_COUNTER_UsingFixedFunction) */
 220:Generated_Source\PSoC5/NSDSPI_RX_BYTE_COUNTER.c **** }
 183              		.loc 1 220 0
 184 0004 00BF     		nop
 185 0006 BD46     		mov	sp, r7
 186              		.cfi_def_cfa_register 13
 187              		@ sp needed
 188 0008 80BC     		pop	{r7}
 189              		.cfi_restore 7
 190              		.cfi_def_cfa_offset 0
 191 000a 7047     		bx	lr
 192              		.cfi_endproc
 193              	.LFE3:
 194              		.size	NSDSPI_RX_BYTE_COUNTER_Stop, .-NSDSPI_RX_BYTE_COUNTER_Stop
 195              		.section	.text.NSDSPI_RX_BYTE_COUNTER_SetInterruptMode,"ax",%progbits
 196              		.align	2
 197              		.global	NSDSPI_RX_BYTE_COUNTER_SetInterruptMode
 198              		.thumb
 199              		.thumb_func
 200              		.type	NSDSPI_RX_BYTE_COUNTER_SetInterruptMode, %function
 201              	NSDSPI_RX_BYTE_COUNTER_SetInterruptMode:
 202              	.LFB4:
 221:Generated_Source\PSoC5/NSDSPI_RX_BYTE_COUNTER.c **** 
 222:Generated_Source\PSoC5/NSDSPI_RX_BYTE_COUNTER.c **** 
 223:Generated_Source\PSoC5/NSDSPI_RX_BYTE_COUNTER.c **** /*******************************************************************************
 224:Generated_Source\PSoC5/NSDSPI_RX_BYTE_COUNTER.c **** * Function Name: NSDSPI_RX_BYTE_COUNTER_SetInterruptMode
 225:Generated_Source\PSoC5/NSDSPI_RX_BYTE_COUNTER.c **** ********************************************************************************
 226:Generated_Source\PSoC5/NSDSPI_RX_BYTE_COUNTER.c **** * Summary:
 227:Generated_Source\PSoC5/NSDSPI_RX_BYTE_COUNTER.c **** * Configures which interrupt sources are enabled to generate the final interrupt
 228:Generated_Source\PSoC5/NSDSPI_RX_BYTE_COUNTER.c **** *
 229:Generated_Source\PSoC5/NSDSPI_RX_BYTE_COUNTER.c **** * Parameters:  
 230:Generated_Source\PSoC5/NSDSPI_RX_BYTE_COUNTER.c **** *  InterruptsMask: This parameter is an or'd collection of the status bits
 231:Generated_Source\PSoC5/NSDSPI_RX_BYTE_COUNTER.c **** *                   which will be allowed to generate the counters interrupt.   
 232:Generated_Source\PSoC5/NSDSPI_RX_BYTE_COUNTER.c **** *
 233:Generated_Source\PSoC5/NSDSPI_RX_BYTE_COUNTER.c **** * Return: 
 234:Generated_Source\PSoC5/NSDSPI_RX_BYTE_COUNTER.c **** *  void
 235:Generated_Source\PSoC5/NSDSPI_RX_BYTE_COUNTER.c **** *
 236:Generated_Source\PSoC5/NSDSPI_RX_BYTE_COUNTER.c **** *******************************************************************************/
 237:Generated_Source\PSoC5/NSDSPI_RX_BYTE_COUNTER.c **** void NSDSPI_RX_BYTE_COUNTER_SetInterruptMode(uint8 interruptsMask) 
 238:Generated_Source\PSoC5/NSDSPI_RX_BYTE_COUNTER.c **** {
 203              		.loc 1 238 0
 204              		.cfi_startproc
 205              		@ args = 0, pretend = 0, frame = 8
 206              		@ frame_needed = 1, uses_anonymous_args = 0
 207              		@ link register save eliminated.
 208 0000 80B4     		push	{r7}
 209              		.cfi_def_cfa_offset 4
 210              		.cfi_offset 7, -4
 211 0002 83B0     		sub	sp, sp, #12
 212              		.cfi_def_cfa_offset 16
 213 0004 00AF     		add	r7, sp, #0
 214              		.cfi_def_cfa_register 7
 215 0006 0346     		mov	r3, r0
 216 0008 FB71     		strb	r3, [r7, #7]
 239:Generated_Source\PSoC5/NSDSPI_RX_BYTE_COUNTER.c ****     NSDSPI_RX_BYTE_COUNTER_STATUS_MASK = interruptsMask;
 217              		.loc 1 239 0
ARM GAS  C:\Users\HPz420\AppData\Local\Temp\cclzAzD7.s 			page 9


 218 000a 044A     		ldr	r2, .L11
 219 000c FB79     		ldrb	r3, [r7, #7]
 220 000e 1370     		strb	r3, [r2]
 240:Generated_Source\PSoC5/NSDSPI_RX_BYTE_COUNTER.c **** }
 221              		.loc 1 240 0
 222 0010 00BF     		nop
 223 0012 0C37     		adds	r7, r7, #12
 224              		.cfi_def_cfa_offset 4
 225 0014 BD46     		mov	sp, r7
 226              		.cfi_def_cfa_register 13
 227              		@ sp needed
 228 0016 80BC     		pop	{r7}
 229              		.cfi_restore 7
 230              		.cfi_def_cfa_offset 0
 231 0018 7047     		bx	lr
 232              	.L12:
 233 001a 00BF     		.align	2
 234              	.L11:
 235 001c 8B640040 		.word	1073767563
 236              		.cfi_endproc
 237              	.LFE4:
 238              		.size	NSDSPI_RX_BYTE_COUNTER_SetInterruptMode, .-NSDSPI_RX_BYTE_COUNTER_SetInterruptMode
 239              		.section	.text.NSDSPI_RX_BYTE_COUNTER_ReadStatusRegister,"ax",%progbits
 240              		.align	2
 241              		.global	NSDSPI_RX_BYTE_COUNTER_ReadStatusRegister
 242              		.thumb
 243              		.thumb_func
 244              		.type	NSDSPI_RX_BYTE_COUNTER_ReadStatusRegister, %function
 245              	NSDSPI_RX_BYTE_COUNTER_ReadStatusRegister:
 246              	.LFB5:
 241:Generated_Source\PSoC5/NSDSPI_RX_BYTE_COUNTER.c **** 
 242:Generated_Source\PSoC5/NSDSPI_RX_BYTE_COUNTER.c **** 
 243:Generated_Source\PSoC5/NSDSPI_RX_BYTE_COUNTER.c **** /*******************************************************************************
 244:Generated_Source\PSoC5/NSDSPI_RX_BYTE_COUNTER.c **** * Function Name: NSDSPI_RX_BYTE_COUNTER_ReadStatusRegister
 245:Generated_Source\PSoC5/NSDSPI_RX_BYTE_COUNTER.c **** ********************************************************************************
 246:Generated_Source\PSoC5/NSDSPI_RX_BYTE_COUNTER.c **** * Summary:
 247:Generated_Source\PSoC5/NSDSPI_RX_BYTE_COUNTER.c **** *   Reads the status register and returns it's state. This function should use
 248:Generated_Source\PSoC5/NSDSPI_RX_BYTE_COUNTER.c **** *       defined types for the bit-field information as the bits in this
 249:Generated_Source\PSoC5/NSDSPI_RX_BYTE_COUNTER.c **** *       register may be permuteable.
 250:Generated_Source\PSoC5/NSDSPI_RX_BYTE_COUNTER.c **** *
 251:Generated_Source\PSoC5/NSDSPI_RX_BYTE_COUNTER.c **** * Parameters:  
 252:Generated_Source\PSoC5/NSDSPI_RX_BYTE_COUNTER.c **** *  void
 253:Generated_Source\PSoC5/NSDSPI_RX_BYTE_COUNTER.c **** *
 254:Generated_Source\PSoC5/NSDSPI_RX_BYTE_COUNTER.c **** * Return: 
 255:Generated_Source\PSoC5/NSDSPI_RX_BYTE_COUNTER.c **** *  (uint8) The contents of the status register
 256:Generated_Source\PSoC5/NSDSPI_RX_BYTE_COUNTER.c **** *
 257:Generated_Source\PSoC5/NSDSPI_RX_BYTE_COUNTER.c **** * Side Effects:
 258:Generated_Source\PSoC5/NSDSPI_RX_BYTE_COUNTER.c **** *   Status register bits may be clear on read. 
 259:Generated_Source\PSoC5/NSDSPI_RX_BYTE_COUNTER.c **** *
 260:Generated_Source\PSoC5/NSDSPI_RX_BYTE_COUNTER.c **** *******************************************************************************/
 261:Generated_Source\PSoC5/NSDSPI_RX_BYTE_COUNTER.c **** uint8   NSDSPI_RX_BYTE_COUNTER_ReadStatusRegister(void) 
 262:Generated_Source\PSoC5/NSDSPI_RX_BYTE_COUNTER.c **** {
 247              		.loc 1 262 0
 248              		.cfi_startproc
 249              		@ args = 0, pretend = 0, frame = 0
 250              		@ frame_needed = 1, uses_anonymous_args = 0
 251              		@ link register save eliminated.
ARM GAS  C:\Users\HPz420\AppData\Local\Temp\cclzAzD7.s 			page 10


 252 0000 80B4     		push	{r7}
 253              		.cfi_def_cfa_offset 4
 254              		.cfi_offset 7, -4
 255 0002 00AF     		add	r7, sp, #0
 256              		.cfi_def_cfa_register 7
 263:Generated_Source\PSoC5/NSDSPI_RX_BYTE_COUNTER.c ****     return NSDSPI_RX_BYTE_COUNTER_STATUS;
 257              		.loc 1 263 0
 258 0004 034B     		ldr	r3, .L15
 259 0006 1B78     		ldrb	r3, [r3]
 260 0008 DBB2     		uxtb	r3, r3
 264:Generated_Source\PSoC5/NSDSPI_RX_BYTE_COUNTER.c **** }
 261              		.loc 1 264 0
 262 000a 1846     		mov	r0, r3
 263 000c BD46     		mov	sp, r7
 264              		.cfi_def_cfa_register 13
 265              		@ sp needed
 266 000e 80BC     		pop	{r7}
 267              		.cfi_restore 7
 268              		.cfi_def_cfa_offset 0
 269 0010 7047     		bx	lr
 270              	.L16:
 271 0012 00BF     		.align	2
 272              	.L15:
 273 0014 6B640040 		.word	1073767531
 274              		.cfi_endproc
 275              	.LFE5:
 276              		.size	NSDSPI_RX_BYTE_COUNTER_ReadStatusRegister, .-NSDSPI_RX_BYTE_COUNTER_ReadStatusRegister
 277              		.section	.text.NSDSPI_RX_BYTE_COUNTER_WriteCounter,"ax",%progbits
 278              		.align	2
 279              		.global	NSDSPI_RX_BYTE_COUNTER_WriteCounter
 280              		.thumb
 281              		.thumb_func
 282              		.type	NSDSPI_RX_BYTE_COUNTER_WriteCounter, %function
 283              	NSDSPI_RX_BYTE_COUNTER_WriteCounter:
 284              	.LFB6:
 265:Generated_Source\PSoC5/NSDSPI_RX_BYTE_COUNTER.c **** 
 266:Generated_Source\PSoC5/NSDSPI_RX_BYTE_COUNTER.c **** 
 267:Generated_Source\PSoC5/NSDSPI_RX_BYTE_COUNTER.c **** #if(!NSDSPI_RX_BYTE_COUNTER_ControlRegRemoved)
 268:Generated_Source\PSoC5/NSDSPI_RX_BYTE_COUNTER.c **** /*******************************************************************************
 269:Generated_Source\PSoC5/NSDSPI_RX_BYTE_COUNTER.c **** * Function Name: NSDSPI_RX_BYTE_COUNTER_ReadControlRegister
 270:Generated_Source\PSoC5/NSDSPI_RX_BYTE_COUNTER.c **** ********************************************************************************
 271:Generated_Source\PSoC5/NSDSPI_RX_BYTE_COUNTER.c **** * Summary:
 272:Generated_Source\PSoC5/NSDSPI_RX_BYTE_COUNTER.c **** *   Reads the control register and returns it's state. This function should use
 273:Generated_Source\PSoC5/NSDSPI_RX_BYTE_COUNTER.c **** *       defined types for the bit-field information as the bits in this
 274:Generated_Source\PSoC5/NSDSPI_RX_BYTE_COUNTER.c **** *       register may be permuteable.
 275:Generated_Source\PSoC5/NSDSPI_RX_BYTE_COUNTER.c **** *
 276:Generated_Source\PSoC5/NSDSPI_RX_BYTE_COUNTER.c **** * Parameters:  
 277:Generated_Source\PSoC5/NSDSPI_RX_BYTE_COUNTER.c **** *  void
 278:Generated_Source\PSoC5/NSDSPI_RX_BYTE_COUNTER.c **** *
 279:Generated_Source\PSoC5/NSDSPI_RX_BYTE_COUNTER.c **** * Return: 
 280:Generated_Source\PSoC5/NSDSPI_RX_BYTE_COUNTER.c **** *  (uint8) The contents of the control register
 281:Generated_Source\PSoC5/NSDSPI_RX_BYTE_COUNTER.c **** *
 282:Generated_Source\PSoC5/NSDSPI_RX_BYTE_COUNTER.c **** *******************************************************************************/
 283:Generated_Source\PSoC5/NSDSPI_RX_BYTE_COUNTER.c **** uint8   NSDSPI_RX_BYTE_COUNTER_ReadControlRegister(void) 
 284:Generated_Source\PSoC5/NSDSPI_RX_BYTE_COUNTER.c **** {
 285:Generated_Source\PSoC5/NSDSPI_RX_BYTE_COUNTER.c ****     return NSDSPI_RX_BYTE_COUNTER_CONTROL;
 286:Generated_Source\PSoC5/NSDSPI_RX_BYTE_COUNTER.c **** }
ARM GAS  C:\Users\HPz420\AppData\Local\Temp\cclzAzD7.s 			page 11


 287:Generated_Source\PSoC5/NSDSPI_RX_BYTE_COUNTER.c **** 
 288:Generated_Source\PSoC5/NSDSPI_RX_BYTE_COUNTER.c **** 
 289:Generated_Source\PSoC5/NSDSPI_RX_BYTE_COUNTER.c **** /*******************************************************************************
 290:Generated_Source\PSoC5/NSDSPI_RX_BYTE_COUNTER.c **** * Function Name: NSDSPI_RX_BYTE_COUNTER_WriteControlRegister
 291:Generated_Source\PSoC5/NSDSPI_RX_BYTE_COUNTER.c **** ********************************************************************************
 292:Generated_Source\PSoC5/NSDSPI_RX_BYTE_COUNTER.c **** * Summary:
 293:Generated_Source\PSoC5/NSDSPI_RX_BYTE_COUNTER.c **** *   Sets the bit-field of the control register.  This function should use
 294:Generated_Source\PSoC5/NSDSPI_RX_BYTE_COUNTER.c **** *       defined types for the bit-field information as the bits in this
 295:Generated_Source\PSoC5/NSDSPI_RX_BYTE_COUNTER.c **** *       register may be permuteable.
 296:Generated_Source\PSoC5/NSDSPI_RX_BYTE_COUNTER.c **** *
 297:Generated_Source\PSoC5/NSDSPI_RX_BYTE_COUNTER.c **** * Parameters:  
 298:Generated_Source\PSoC5/NSDSPI_RX_BYTE_COUNTER.c **** *  void
 299:Generated_Source\PSoC5/NSDSPI_RX_BYTE_COUNTER.c **** *
 300:Generated_Source\PSoC5/NSDSPI_RX_BYTE_COUNTER.c **** * Return: 
 301:Generated_Source\PSoC5/NSDSPI_RX_BYTE_COUNTER.c **** *  (uint8) The contents of the control register
 302:Generated_Source\PSoC5/NSDSPI_RX_BYTE_COUNTER.c **** *
 303:Generated_Source\PSoC5/NSDSPI_RX_BYTE_COUNTER.c **** *******************************************************************************/
 304:Generated_Source\PSoC5/NSDSPI_RX_BYTE_COUNTER.c **** void    NSDSPI_RX_BYTE_COUNTER_WriteControlRegister(uint8 control) 
 305:Generated_Source\PSoC5/NSDSPI_RX_BYTE_COUNTER.c **** {
 306:Generated_Source\PSoC5/NSDSPI_RX_BYTE_COUNTER.c ****     NSDSPI_RX_BYTE_COUNTER_CONTROL = control;
 307:Generated_Source\PSoC5/NSDSPI_RX_BYTE_COUNTER.c **** }
 308:Generated_Source\PSoC5/NSDSPI_RX_BYTE_COUNTER.c **** 
 309:Generated_Source\PSoC5/NSDSPI_RX_BYTE_COUNTER.c **** #endif  /* (!NSDSPI_RX_BYTE_COUNTER_ControlRegRemoved) */
 310:Generated_Source\PSoC5/NSDSPI_RX_BYTE_COUNTER.c **** 
 311:Generated_Source\PSoC5/NSDSPI_RX_BYTE_COUNTER.c **** 
 312:Generated_Source\PSoC5/NSDSPI_RX_BYTE_COUNTER.c **** #if (!(NSDSPI_RX_BYTE_COUNTER_UsingFixedFunction && (CY_PSOC5A)))
 313:Generated_Source\PSoC5/NSDSPI_RX_BYTE_COUNTER.c **** /*******************************************************************************
 314:Generated_Source\PSoC5/NSDSPI_RX_BYTE_COUNTER.c **** * Function Name: NSDSPI_RX_BYTE_COUNTER_WriteCounter
 315:Generated_Source\PSoC5/NSDSPI_RX_BYTE_COUNTER.c **** ********************************************************************************
 316:Generated_Source\PSoC5/NSDSPI_RX_BYTE_COUNTER.c **** * Summary:
 317:Generated_Source\PSoC5/NSDSPI_RX_BYTE_COUNTER.c **** *   This funtion is used to set the counter to a specific value
 318:Generated_Source\PSoC5/NSDSPI_RX_BYTE_COUNTER.c **** *
 319:Generated_Source\PSoC5/NSDSPI_RX_BYTE_COUNTER.c **** * Parameters:  
 320:Generated_Source\PSoC5/NSDSPI_RX_BYTE_COUNTER.c **** *  counter:  New counter value. 
 321:Generated_Source\PSoC5/NSDSPI_RX_BYTE_COUNTER.c **** *
 322:Generated_Source\PSoC5/NSDSPI_RX_BYTE_COUNTER.c **** * Return: 
 323:Generated_Source\PSoC5/NSDSPI_RX_BYTE_COUNTER.c **** *  void 
 324:Generated_Source\PSoC5/NSDSPI_RX_BYTE_COUNTER.c **** *
 325:Generated_Source\PSoC5/NSDSPI_RX_BYTE_COUNTER.c **** *******************************************************************************/
 326:Generated_Source\PSoC5/NSDSPI_RX_BYTE_COUNTER.c **** void NSDSPI_RX_BYTE_COUNTER_WriteCounter(uint16 counter) \
 327:Generated_Source\PSoC5/NSDSPI_RX_BYTE_COUNTER.c ****                                    
 328:Generated_Source\PSoC5/NSDSPI_RX_BYTE_COUNTER.c **** {
 285              		.loc 1 328 0
 286              		.cfi_startproc
 287              		@ args = 0, pretend = 0, frame = 8
 288              		@ frame_needed = 1, uses_anonymous_args = 0
 289              		@ link register save eliminated.
 290 0000 80B4     		push	{r7}
 291              		.cfi_def_cfa_offset 4
 292              		.cfi_offset 7, -4
 293 0002 83B0     		sub	sp, sp, #12
 294              		.cfi_def_cfa_offset 16
 295 0004 00AF     		add	r7, sp, #0
 296              		.cfi_def_cfa_register 7
 297 0006 0346     		mov	r3, r0
 298 0008 FB80     		strh	r3, [r7, #6]	@ movhi
 329:Generated_Source\PSoC5/NSDSPI_RX_BYTE_COUNTER.c ****     #if(NSDSPI_RX_BYTE_COUNTER_UsingFixedFunction)
ARM GAS  C:\Users\HPz420\AppData\Local\Temp\cclzAzD7.s 			page 12


 330:Generated_Source\PSoC5/NSDSPI_RX_BYTE_COUNTER.c ****         /* assert if block is already enabled */
 331:Generated_Source\PSoC5/NSDSPI_RX_BYTE_COUNTER.c ****         CYASSERT (0u == (NSDSPI_RX_BYTE_COUNTER_GLOBAL_ENABLE & NSDSPI_RX_BYTE_COUNTER_BLOCK_EN_MAS
 332:Generated_Source\PSoC5/NSDSPI_RX_BYTE_COUNTER.c ****         /* If block is disabled, enable it and then write the counter */
 333:Generated_Source\PSoC5/NSDSPI_RX_BYTE_COUNTER.c ****         NSDSPI_RX_BYTE_COUNTER_GLOBAL_ENABLE |= NSDSPI_RX_BYTE_COUNTER_BLOCK_EN_MASK;
 334:Generated_Source\PSoC5/NSDSPI_RX_BYTE_COUNTER.c ****         CY_SET_REG16(NSDSPI_RX_BYTE_COUNTER_COUNTER_LSB_PTR, (uint16)counter);
 335:Generated_Source\PSoC5/NSDSPI_RX_BYTE_COUNTER.c ****         NSDSPI_RX_BYTE_COUNTER_GLOBAL_ENABLE &= ((uint8)(~NSDSPI_RX_BYTE_COUNTER_BLOCK_EN_MASK));
 336:Generated_Source\PSoC5/NSDSPI_RX_BYTE_COUNTER.c ****     #else
 337:Generated_Source\PSoC5/NSDSPI_RX_BYTE_COUNTER.c ****         CY_SET_REG16(NSDSPI_RX_BYTE_COUNTER_COUNTER_LSB_PTR, counter);
 299              		.loc 1 337 0
 300 000a 044A     		ldr	r2, .L18
 301 000c FB88     		ldrh	r3, [r7, #6]	@ movhi
 302 000e 1380     		strh	r3, [r2]	@ movhi
 338:Generated_Source\PSoC5/NSDSPI_RX_BYTE_COUNTER.c ****     #endif /* (NSDSPI_RX_BYTE_COUNTER_UsingFixedFunction) */
 339:Generated_Source\PSoC5/NSDSPI_RX_BYTE_COUNTER.c **** }
 303              		.loc 1 339 0
 304 0010 00BF     		nop
 305 0012 0C37     		adds	r7, r7, #12
 306              		.cfi_def_cfa_offset 4
 307 0014 BD46     		mov	sp, r7
 308              		.cfi_def_cfa_register 13
 309              		@ sp needed
 310 0016 80BC     		pop	{r7}
 311              		.cfi_restore 7
 312              		.cfi_def_cfa_offset 0
 313 0018 7047     		bx	lr
 314              	.L19:
 315 001a 00BF     		.align	2
 316              	.L18:
 317 001c 14680040 		.word	1073768468
 318              		.cfi_endproc
 319              	.LFE6:
 320              		.size	NSDSPI_RX_BYTE_COUNTER_WriteCounter, .-NSDSPI_RX_BYTE_COUNTER_WriteCounter
 321              		.section	.text.NSDSPI_RX_BYTE_COUNTER_ReadCounter,"ax",%progbits
 322              		.align	2
 323              		.global	NSDSPI_RX_BYTE_COUNTER_ReadCounter
 324              		.thumb
 325              		.thumb_func
 326              		.type	NSDSPI_RX_BYTE_COUNTER_ReadCounter, %function
 327              	NSDSPI_RX_BYTE_COUNTER_ReadCounter:
 328              	.LFB7:
 340:Generated_Source\PSoC5/NSDSPI_RX_BYTE_COUNTER.c **** #endif /* (!(NSDSPI_RX_BYTE_COUNTER_UsingFixedFunction && (CY_PSOC5A))) */
 341:Generated_Source\PSoC5/NSDSPI_RX_BYTE_COUNTER.c **** 
 342:Generated_Source\PSoC5/NSDSPI_RX_BYTE_COUNTER.c **** 
 343:Generated_Source\PSoC5/NSDSPI_RX_BYTE_COUNTER.c **** /*******************************************************************************
 344:Generated_Source\PSoC5/NSDSPI_RX_BYTE_COUNTER.c **** * Function Name: NSDSPI_RX_BYTE_COUNTER_ReadCounter
 345:Generated_Source\PSoC5/NSDSPI_RX_BYTE_COUNTER.c **** ********************************************************************************
 346:Generated_Source\PSoC5/NSDSPI_RX_BYTE_COUNTER.c **** * Summary:
 347:Generated_Source\PSoC5/NSDSPI_RX_BYTE_COUNTER.c **** * Returns the current value of the counter.  It doesn't matter
 348:Generated_Source\PSoC5/NSDSPI_RX_BYTE_COUNTER.c **** * if the counter is enabled or running.
 349:Generated_Source\PSoC5/NSDSPI_RX_BYTE_COUNTER.c **** *
 350:Generated_Source\PSoC5/NSDSPI_RX_BYTE_COUNTER.c **** * Parameters:  
 351:Generated_Source\PSoC5/NSDSPI_RX_BYTE_COUNTER.c **** *  void:  
 352:Generated_Source\PSoC5/NSDSPI_RX_BYTE_COUNTER.c **** *
 353:Generated_Source\PSoC5/NSDSPI_RX_BYTE_COUNTER.c **** * Return: 
 354:Generated_Source\PSoC5/NSDSPI_RX_BYTE_COUNTER.c **** *  (uint16) The present value of the counter.
 355:Generated_Source\PSoC5/NSDSPI_RX_BYTE_COUNTER.c **** *
 356:Generated_Source\PSoC5/NSDSPI_RX_BYTE_COUNTER.c **** *******************************************************************************/
ARM GAS  C:\Users\HPz420\AppData\Local\Temp\cclzAzD7.s 			page 13


 357:Generated_Source\PSoC5/NSDSPI_RX_BYTE_COUNTER.c **** uint16 NSDSPI_RX_BYTE_COUNTER_ReadCounter(void) 
 358:Generated_Source\PSoC5/NSDSPI_RX_BYTE_COUNTER.c **** {
 329              		.loc 1 358 0
 330              		.cfi_startproc
 331              		@ args = 0, pretend = 0, frame = 0
 332              		@ frame_needed = 1, uses_anonymous_args = 0
 333              		@ link register save eliminated.
 334 0000 80B4     		push	{r7}
 335              		.cfi_def_cfa_offset 4
 336              		.cfi_offset 7, -4
 337 0002 00AF     		add	r7, sp, #0
 338              		.cfi_def_cfa_register 7
 359:Generated_Source\PSoC5/NSDSPI_RX_BYTE_COUNTER.c ****     /* Force capture by reading Accumulator */
 360:Generated_Source\PSoC5/NSDSPI_RX_BYTE_COUNTER.c ****     /* Must first do a software capture to be able to read the counter */
 361:Generated_Source\PSoC5/NSDSPI_RX_BYTE_COUNTER.c ****     /* It is up to the user code to make sure there isn't already captured data in the FIFO */
 362:Generated_Source\PSoC5/NSDSPI_RX_BYTE_COUNTER.c ****     #if(NSDSPI_RX_BYTE_COUNTER_UsingFixedFunction)
 363:Generated_Source\PSoC5/NSDSPI_RX_BYTE_COUNTER.c **** 		(void)CY_GET_REG16(NSDSPI_RX_BYTE_COUNTER_COUNTER_LSB_PTR);
 364:Generated_Source\PSoC5/NSDSPI_RX_BYTE_COUNTER.c **** 	#else
 365:Generated_Source\PSoC5/NSDSPI_RX_BYTE_COUNTER.c **** 		(void)CY_GET_REG8(NSDSPI_RX_BYTE_COUNTER_COUNTER_LSB_PTR_8BIT);
 339              		.loc 1 365 0
 340 0004 044B     		ldr	r3, .L22
 341 0006 1B78     		ldrb	r3, [r3]
 366:Generated_Source\PSoC5/NSDSPI_RX_BYTE_COUNTER.c **** 	#endif/* (NSDSPI_RX_BYTE_COUNTER_UsingFixedFunction) */
 367:Generated_Source\PSoC5/NSDSPI_RX_BYTE_COUNTER.c ****     
 368:Generated_Source\PSoC5/NSDSPI_RX_BYTE_COUNTER.c ****     /* Read the data from the FIFO (or capture register for Fixed Function)*/
 369:Generated_Source\PSoC5/NSDSPI_RX_BYTE_COUNTER.c ****     #if(NSDSPI_RX_BYTE_COUNTER_UsingFixedFunction)
 370:Generated_Source\PSoC5/NSDSPI_RX_BYTE_COUNTER.c ****         return ((uint16)CY_GET_REG16(NSDSPI_RX_BYTE_COUNTER_STATICCOUNT_LSB_PTR));
 371:Generated_Source\PSoC5/NSDSPI_RX_BYTE_COUNTER.c ****     #else
 372:Generated_Source\PSoC5/NSDSPI_RX_BYTE_COUNTER.c ****         return (CY_GET_REG16(NSDSPI_RX_BYTE_COUNTER_STATICCOUNT_LSB_PTR));
 342              		.loc 1 372 0
 343 0008 044B     		ldr	r3, .L22+4
 344 000a 1B88     		ldrh	r3, [r3]	@ movhi
 345 000c 9BB2     		uxth	r3, r3
 373:Generated_Source\PSoC5/NSDSPI_RX_BYTE_COUNTER.c ****     #endif /* (NSDSPI_RX_BYTE_COUNTER_UsingFixedFunction) */
 374:Generated_Source\PSoC5/NSDSPI_RX_BYTE_COUNTER.c **** }
 346              		.loc 1 374 0
 347 000e 1846     		mov	r0, r3
 348 0010 BD46     		mov	sp, r7
 349              		.cfi_def_cfa_register 13
 350              		@ sp needed
 351 0012 80BC     		pop	{r7}
 352              		.cfi_restore 7
 353              		.cfi_def_cfa_offset 0
 354 0014 7047     		bx	lr
 355              	.L23:
 356 0016 00BF     		.align	2
 357              	.L22:
 358 0018 0A640040 		.word	1073767434
 359 001c 94680040 		.word	1073768596
 360              		.cfi_endproc
 361              	.LFE7:
 362              		.size	NSDSPI_RX_BYTE_COUNTER_ReadCounter, .-NSDSPI_RX_BYTE_COUNTER_ReadCounter
 363              		.section	.text.NSDSPI_RX_BYTE_COUNTER_ReadCapture,"ax",%progbits
 364              		.align	2
 365              		.global	NSDSPI_RX_BYTE_COUNTER_ReadCapture
 366              		.thumb
 367              		.thumb_func
ARM GAS  C:\Users\HPz420\AppData\Local\Temp\cclzAzD7.s 			page 14


 368              		.type	NSDSPI_RX_BYTE_COUNTER_ReadCapture, %function
 369              	NSDSPI_RX_BYTE_COUNTER_ReadCapture:
 370              	.LFB8:
 375:Generated_Source\PSoC5/NSDSPI_RX_BYTE_COUNTER.c **** 
 376:Generated_Source\PSoC5/NSDSPI_RX_BYTE_COUNTER.c **** 
 377:Generated_Source\PSoC5/NSDSPI_RX_BYTE_COUNTER.c **** /*******************************************************************************
 378:Generated_Source\PSoC5/NSDSPI_RX_BYTE_COUNTER.c **** * Function Name: NSDSPI_RX_BYTE_COUNTER_ReadCapture
 379:Generated_Source\PSoC5/NSDSPI_RX_BYTE_COUNTER.c **** ********************************************************************************
 380:Generated_Source\PSoC5/NSDSPI_RX_BYTE_COUNTER.c **** * Summary:
 381:Generated_Source\PSoC5/NSDSPI_RX_BYTE_COUNTER.c **** *   This function returns the last value captured.
 382:Generated_Source\PSoC5/NSDSPI_RX_BYTE_COUNTER.c **** *
 383:Generated_Source\PSoC5/NSDSPI_RX_BYTE_COUNTER.c **** * Parameters:  
 384:Generated_Source\PSoC5/NSDSPI_RX_BYTE_COUNTER.c **** *  void
 385:Generated_Source\PSoC5/NSDSPI_RX_BYTE_COUNTER.c **** *
 386:Generated_Source\PSoC5/NSDSPI_RX_BYTE_COUNTER.c **** * Return: 
 387:Generated_Source\PSoC5/NSDSPI_RX_BYTE_COUNTER.c **** *  (uint16) Present Capture value.
 388:Generated_Source\PSoC5/NSDSPI_RX_BYTE_COUNTER.c **** *
 389:Generated_Source\PSoC5/NSDSPI_RX_BYTE_COUNTER.c **** *******************************************************************************/
 390:Generated_Source\PSoC5/NSDSPI_RX_BYTE_COUNTER.c **** uint16 NSDSPI_RX_BYTE_COUNTER_ReadCapture(void) 
 391:Generated_Source\PSoC5/NSDSPI_RX_BYTE_COUNTER.c **** {
 371              		.loc 1 391 0
 372              		.cfi_startproc
 373              		@ args = 0, pretend = 0, frame = 0
 374              		@ frame_needed = 1, uses_anonymous_args = 0
 375              		@ link register save eliminated.
 376 0000 80B4     		push	{r7}
 377              		.cfi_def_cfa_offset 4
 378              		.cfi_offset 7, -4
 379 0002 00AF     		add	r7, sp, #0
 380              		.cfi_def_cfa_register 7
 392:Generated_Source\PSoC5/NSDSPI_RX_BYTE_COUNTER.c ****     #if(NSDSPI_RX_BYTE_COUNTER_UsingFixedFunction)
 393:Generated_Source\PSoC5/NSDSPI_RX_BYTE_COUNTER.c ****         return ((uint16)CY_GET_REG16(NSDSPI_RX_BYTE_COUNTER_STATICCOUNT_LSB_PTR));
 394:Generated_Source\PSoC5/NSDSPI_RX_BYTE_COUNTER.c ****     #else
 395:Generated_Source\PSoC5/NSDSPI_RX_BYTE_COUNTER.c ****         return (CY_GET_REG16(NSDSPI_RX_BYTE_COUNTER_STATICCOUNT_LSB_PTR));
 381              		.loc 1 395 0
 382 0004 034B     		ldr	r3, .L26
 383 0006 1B88     		ldrh	r3, [r3]	@ movhi
 384 0008 9BB2     		uxth	r3, r3
 396:Generated_Source\PSoC5/NSDSPI_RX_BYTE_COUNTER.c ****     #endif /* (NSDSPI_RX_BYTE_COUNTER_UsingFixedFunction) */
 397:Generated_Source\PSoC5/NSDSPI_RX_BYTE_COUNTER.c **** }
 385              		.loc 1 397 0
 386 000a 1846     		mov	r0, r3
 387 000c BD46     		mov	sp, r7
 388              		.cfi_def_cfa_register 13
 389              		@ sp needed
 390 000e 80BC     		pop	{r7}
 391              		.cfi_restore 7
 392              		.cfi_def_cfa_offset 0
 393 0010 7047     		bx	lr
 394              	.L27:
 395 0012 00BF     		.align	2
 396              	.L26:
 397 0014 94680040 		.word	1073768596
 398              		.cfi_endproc
 399              	.LFE8:
 400              		.size	NSDSPI_RX_BYTE_COUNTER_ReadCapture, .-NSDSPI_RX_BYTE_COUNTER_ReadCapture
 401              		.section	.text.NSDSPI_RX_BYTE_COUNTER_WritePeriod,"ax",%progbits
ARM GAS  C:\Users\HPz420\AppData\Local\Temp\cclzAzD7.s 			page 15


 402              		.align	2
 403              		.global	NSDSPI_RX_BYTE_COUNTER_WritePeriod
 404              		.thumb
 405              		.thumb_func
 406              		.type	NSDSPI_RX_BYTE_COUNTER_WritePeriod, %function
 407              	NSDSPI_RX_BYTE_COUNTER_WritePeriod:
 408              	.LFB9:
 398:Generated_Source\PSoC5/NSDSPI_RX_BYTE_COUNTER.c **** 
 399:Generated_Source\PSoC5/NSDSPI_RX_BYTE_COUNTER.c **** 
 400:Generated_Source\PSoC5/NSDSPI_RX_BYTE_COUNTER.c **** /*******************************************************************************
 401:Generated_Source\PSoC5/NSDSPI_RX_BYTE_COUNTER.c **** * Function Name: NSDSPI_RX_BYTE_COUNTER_WritePeriod
 402:Generated_Source\PSoC5/NSDSPI_RX_BYTE_COUNTER.c **** ********************************************************************************
 403:Generated_Source\PSoC5/NSDSPI_RX_BYTE_COUNTER.c **** * Summary:
 404:Generated_Source\PSoC5/NSDSPI_RX_BYTE_COUNTER.c **** * Changes the period of the counter.  The new period 
 405:Generated_Source\PSoC5/NSDSPI_RX_BYTE_COUNTER.c **** * will be loaded the next time terminal count is detected.
 406:Generated_Source\PSoC5/NSDSPI_RX_BYTE_COUNTER.c **** *
 407:Generated_Source\PSoC5/NSDSPI_RX_BYTE_COUNTER.c **** * Parameters:  
 408:Generated_Source\PSoC5/NSDSPI_RX_BYTE_COUNTER.c **** *  period: (uint16) A value of 0 will result in
 409:Generated_Source\PSoC5/NSDSPI_RX_BYTE_COUNTER.c **** *         the counter remaining at zero.  
 410:Generated_Source\PSoC5/NSDSPI_RX_BYTE_COUNTER.c **** *
 411:Generated_Source\PSoC5/NSDSPI_RX_BYTE_COUNTER.c **** * Return: 
 412:Generated_Source\PSoC5/NSDSPI_RX_BYTE_COUNTER.c **** *  void
 413:Generated_Source\PSoC5/NSDSPI_RX_BYTE_COUNTER.c **** *
 414:Generated_Source\PSoC5/NSDSPI_RX_BYTE_COUNTER.c **** *******************************************************************************/
 415:Generated_Source\PSoC5/NSDSPI_RX_BYTE_COUNTER.c **** void NSDSPI_RX_BYTE_COUNTER_WritePeriod(uint16 period) 
 416:Generated_Source\PSoC5/NSDSPI_RX_BYTE_COUNTER.c **** {
 409              		.loc 1 416 0
 410              		.cfi_startproc
 411              		@ args = 0, pretend = 0, frame = 8
 412              		@ frame_needed = 1, uses_anonymous_args = 0
 413              		@ link register save eliminated.
 414 0000 80B4     		push	{r7}
 415              		.cfi_def_cfa_offset 4
 416              		.cfi_offset 7, -4
 417 0002 83B0     		sub	sp, sp, #12
 418              		.cfi_def_cfa_offset 16
 419 0004 00AF     		add	r7, sp, #0
 420              		.cfi_def_cfa_register 7
 421 0006 0346     		mov	r3, r0
 422 0008 FB80     		strh	r3, [r7, #6]	@ movhi
 417:Generated_Source\PSoC5/NSDSPI_RX_BYTE_COUNTER.c ****     #if(NSDSPI_RX_BYTE_COUNTER_UsingFixedFunction)
 418:Generated_Source\PSoC5/NSDSPI_RX_BYTE_COUNTER.c ****         CY_SET_REG16(NSDSPI_RX_BYTE_COUNTER_PERIOD_LSB_PTR,(uint16)period);
 419:Generated_Source\PSoC5/NSDSPI_RX_BYTE_COUNTER.c ****     #else
 420:Generated_Source\PSoC5/NSDSPI_RX_BYTE_COUNTER.c ****         CY_SET_REG16(NSDSPI_RX_BYTE_COUNTER_PERIOD_LSB_PTR, period);
 423              		.loc 1 420 0
 424 000a 044A     		ldr	r2, .L29
 425 000c FB88     		ldrh	r3, [r7, #6]	@ movhi
 426 000e 1380     		strh	r3, [r2]	@ movhi
 421:Generated_Source\PSoC5/NSDSPI_RX_BYTE_COUNTER.c ****     #endif /* (NSDSPI_RX_BYTE_COUNTER_UsingFixedFunction) */
 422:Generated_Source\PSoC5/NSDSPI_RX_BYTE_COUNTER.c **** }
 427              		.loc 1 422 0
 428 0010 00BF     		nop
 429 0012 0C37     		adds	r7, r7, #12
 430              		.cfi_def_cfa_offset 4
 431 0014 BD46     		mov	sp, r7
 432              		.cfi_def_cfa_register 13
 433              		@ sp needed
ARM GAS  C:\Users\HPz420\AppData\Local\Temp\cclzAzD7.s 			page 16


 434 0016 80BC     		pop	{r7}
 435              		.cfi_restore 7
 436              		.cfi_def_cfa_offset 0
 437 0018 7047     		bx	lr
 438              	.L30:
 439 001a 00BF     		.align	2
 440              	.L29:
 441 001c 54680040 		.word	1073768532
 442              		.cfi_endproc
 443              	.LFE9:
 444              		.size	NSDSPI_RX_BYTE_COUNTER_WritePeriod, .-NSDSPI_RX_BYTE_COUNTER_WritePeriod
 445              		.section	.text.NSDSPI_RX_BYTE_COUNTER_ReadPeriod,"ax",%progbits
 446              		.align	2
 447              		.global	NSDSPI_RX_BYTE_COUNTER_ReadPeriod
 448              		.thumb
 449              		.thumb_func
 450              		.type	NSDSPI_RX_BYTE_COUNTER_ReadPeriod, %function
 451              	NSDSPI_RX_BYTE_COUNTER_ReadPeriod:
 452              	.LFB10:
 423:Generated_Source\PSoC5/NSDSPI_RX_BYTE_COUNTER.c **** 
 424:Generated_Source\PSoC5/NSDSPI_RX_BYTE_COUNTER.c **** 
 425:Generated_Source\PSoC5/NSDSPI_RX_BYTE_COUNTER.c **** /*******************************************************************************
 426:Generated_Source\PSoC5/NSDSPI_RX_BYTE_COUNTER.c **** * Function Name: NSDSPI_RX_BYTE_COUNTER_ReadPeriod
 427:Generated_Source\PSoC5/NSDSPI_RX_BYTE_COUNTER.c **** ********************************************************************************
 428:Generated_Source\PSoC5/NSDSPI_RX_BYTE_COUNTER.c **** * Summary:
 429:Generated_Source\PSoC5/NSDSPI_RX_BYTE_COUNTER.c **** * Reads the current period value without affecting counter operation.
 430:Generated_Source\PSoC5/NSDSPI_RX_BYTE_COUNTER.c **** *
 431:Generated_Source\PSoC5/NSDSPI_RX_BYTE_COUNTER.c **** * Parameters:  
 432:Generated_Source\PSoC5/NSDSPI_RX_BYTE_COUNTER.c **** *  void:  
 433:Generated_Source\PSoC5/NSDSPI_RX_BYTE_COUNTER.c **** *
 434:Generated_Source\PSoC5/NSDSPI_RX_BYTE_COUNTER.c **** * Return: 
 435:Generated_Source\PSoC5/NSDSPI_RX_BYTE_COUNTER.c **** *  (uint16) Present period value.
 436:Generated_Source\PSoC5/NSDSPI_RX_BYTE_COUNTER.c **** *
 437:Generated_Source\PSoC5/NSDSPI_RX_BYTE_COUNTER.c **** *******************************************************************************/
 438:Generated_Source\PSoC5/NSDSPI_RX_BYTE_COUNTER.c **** uint16 NSDSPI_RX_BYTE_COUNTER_ReadPeriod(void) 
 439:Generated_Source\PSoC5/NSDSPI_RX_BYTE_COUNTER.c **** {
 453              		.loc 1 439 0
 454              		.cfi_startproc
 455              		@ args = 0, pretend = 0, frame = 0
 456              		@ frame_needed = 1, uses_anonymous_args = 0
 457              		@ link register save eliminated.
 458 0000 80B4     		push	{r7}
 459              		.cfi_def_cfa_offset 4
 460              		.cfi_offset 7, -4
 461 0002 00AF     		add	r7, sp, #0
 462              		.cfi_def_cfa_register 7
 440:Generated_Source\PSoC5/NSDSPI_RX_BYTE_COUNTER.c ****     #if(NSDSPI_RX_BYTE_COUNTER_UsingFixedFunction)
 441:Generated_Source\PSoC5/NSDSPI_RX_BYTE_COUNTER.c ****         return ((uint16)CY_GET_REG16(NSDSPI_RX_BYTE_COUNTER_PERIOD_LSB_PTR));
 442:Generated_Source\PSoC5/NSDSPI_RX_BYTE_COUNTER.c ****     #else
 443:Generated_Source\PSoC5/NSDSPI_RX_BYTE_COUNTER.c ****         return (CY_GET_REG16(NSDSPI_RX_BYTE_COUNTER_PERIOD_LSB_PTR));
 463              		.loc 1 443 0
 464 0004 034B     		ldr	r3, .L33
 465 0006 1B88     		ldrh	r3, [r3]	@ movhi
 466 0008 9BB2     		uxth	r3, r3
 444:Generated_Source\PSoC5/NSDSPI_RX_BYTE_COUNTER.c ****     #endif /* (NSDSPI_RX_BYTE_COUNTER_UsingFixedFunction) */
 445:Generated_Source\PSoC5/NSDSPI_RX_BYTE_COUNTER.c **** }
 467              		.loc 1 445 0
ARM GAS  C:\Users\HPz420\AppData\Local\Temp\cclzAzD7.s 			page 17


 468 000a 1846     		mov	r0, r3
 469 000c BD46     		mov	sp, r7
 470              		.cfi_def_cfa_register 13
 471              		@ sp needed
 472 000e 80BC     		pop	{r7}
 473              		.cfi_restore 7
 474              		.cfi_def_cfa_offset 0
 475 0010 7047     		bx	lr
 476              	.L34:
 477 0012 00BF     		.align	2
 478              	.L33:
 479 0014 54680040 		.word	1073768532
 480              		.cfi_endproc
 481              	.LFE10:
 482              		.size	NSDSPI_RX_BYTE_COUNTER_ReadPeriod, .-NSDSPI_RX_BYTE_COUNTER_ReadPeriod
 483              		.section	.text.NSDSPI_RX_BYTE_COUNTER_WriteCompare,"ax",%progbits
 484              		.align	2
 485              		.global	NSDSPI_RX_BYTE_COUNTER_WriteCompare
 486              		.thumb
 487              		.thumb_func
 488              		.type	NSDSPI_RX_BYTE_COUNTER_WriteCompare, %function
 489              	NSDSPI_RX_BYTE_COUNTER_WriteCompare:
 490              	.LFB11:
 446:Generated_Source\PSoC5/NSDSPI_RX_BYTE_COUNTER.c **** 
 447:Generated_Source\PSoC5/NSDSPI_RX_BYTE_COUNTER.c **** 
 448:Generated_Source\PSoC5/NSDSPI_RX_BYTE_COUNTER.c **** #if (!NSDSPI_RX_BYTE_COUNTER_UsingFixedFunction)
 449:Generated_Source\PSoC5/NSDSPI_RX_BYTE_COUNTER.c **** /*******************************************************************************
 450:Generated_Source\PSoC5/NSDSPI_RX_BYTE_COUNTER.c **** * Function Name: NSDSPI_RX_BYTE_COUNTER_WriteCompare
 451:Generated_Source\PSoC5/NSDSPI_RX_BYTE_COUNTER.c **** ********************************************************************************
 452:Generated_Source\PSoC5/NSDSPI_RX_BYTE_COUNTER.c **** * Summary:
 453:Generated_Source\PSoC5/NSDSPI_RX_BYTE_COUNTER.c **** * Changes the compare value.  The compare output will 
 454:Generated_Source\PSoC5/NSDSPI_RX_BYTE_COUNTER.c **** * reflect the new value on the next UDB clock.  The compare output will be 
 455:Generated_Source\PSoC5/NSDSPI_RX_BYTE_COUNTER.c **** * driven high when the present counter value compares true based on the 
 456:Generated_Source\PSoC5/NSDSPI_RX_BYTE_COUNTER.c **** * configured compare mode setting. 
 457:Generated_Source\PSoC5/NSDSPI_RX_BYTE_COUNTER.c **** *
 458:Generated_Source\PSoC5/NSDSPI_RX_BYTE_COUNTER.c **** * Parameters:  
 459:Generated_Source\PSoC5/NSDSPI_RX_BYTE_COUNTER.c **** *  Compare:  New compare value. 
 460:Generated_Source\PSoC5/NSDSPI_RX_BYTE_COUNTER.c **** *
 461:Generated_Source\PSoC5/NSDSPI_RX_BYTE_COUNTER.c **** * Return: 
 462:Generated_Source\PSoC5/NSDSPI_RX_BYTE_COUNTER.c **** *  void
 463:Generated_Source\PSoC5/NSDSPI_RX_BYTE_COUNTER.c **** *
 464:Generated_Source\PSoC5/NSDSPI_RX_BYTE_COUNTER.c **** *******************************************************************************/
 465:Generated_Source\PSoC5/NSDSPI_RX_BYTE_COUNTER.c **** void NSDSPI_RX_BYTE_COUNTER_WriteCompare(uint16 compare) \
 466:Generated_Source\PSoC5/NSDSPI_RX_BYTE_COUNTER.c ****                                    
 467:Generated_Source\PSoC5/NSDSPI_RX_BYTE_COUNTER.c **** {
 491              		.loc 1 467 0
 492              		.cfi_startproc
 493              		@ args = 0, pretend = 0, frame = 8
 494              		@ frame_needed = 1, uses_anonymous_args = 0
 495              		@ link register save eliminated.
 496 0000 80B4     		push	{r7}
 497              		.cfi_def_cfa_offset 4
 498              		.cfi_offset 7, -4
 499 0002 83B0     		sub	sp, sp, #12
 500              		.cfi_def_cfa_offset 16
 501 0004 00AF     		add	r7, sp, #0
 502              		.cfi_def_cfa_register 7
ARM GAS  C:\Users\HPz420\AppData\Local\Temp\cclzAzD7.s 			page 18


 503 0006 0346     		mov	r3, r0
 504 0008 FB80     		strh	r3, [r7, #6]	@ movhi
 468:Generated_Source\PSoC5/NSDSPI_RX_BYTE_COUNTER.c ****     #if(NSDSPI_RX_BYTE_COUNTER_UsingFixedFunction)
 469:Generated_Source\PSoC5/NSDSPI_RX_BYTE_COUNTER.c ****         CY_SET_REG16(NSDSPI_RX_BYTE_COUNTER_COMPARE_LSB_PTR, (uint16)compare);
 470:Generated_Source\PSoC5/NSDSPI_RX_BYTE_COUNTER.c ****     #else
 471:Generated_Source\PSoC5/NSDSPI_RX_BYTE_COUNTER.c ****         CY_SET_REG16(NSDSPI_RX_BYTE_COUNTER_COMPARE_LSB_PTR, compare);
 505              		.loc 1 471 0
 506 000a 044A     		ldr	r2, .L36
 507 000c FB88     		ldrh	r3, [r7, #6]	@ movhi
 508 000e 1380     		strh	r3, [r2]	@ movhi
 472:Generated_Source\PSoC5/NSDSPI_RX_BYTE_COUNTER.c ****     #endif /* (NSDSPI_RX_BYTE_COUNTER_UsingFixedFunction) */
 473:Generated_Source\PSoC5/NSDSPI_RX_BYTE_COUNTER.c **** }
 509              		.loc 1 473 0
 510 0010 00BF     		nop
 511 0012 0C37     		adds	r7, r7, #12
 512              		.cfi_def_cfa_offset 4
 513 0014 BD46     		mov	sp, r7
 514              		.cfi_def_cfa_register 13
 515              		@ sp needed
 516 0016 80BC     		pop	{r7}
 517              		.cfi_restore 7
 518              		.cfi_def_cfa_offset 0
 519 0018 7047     		bx	lr
 520              	.L37:
 521 001a 00BF     		.align	2
 522              	.L36:
 523 001c 74680040 		.word	1073768564
 524              		.cfi_endproc
 525              	.LFE11:
 526              		.size	NSDSPI_RX_BYTE_COUNTER_WriteCompare, .-NSDSPI_RX_BYTE_COUNTER_WriteCompare
 527              		.section	.text.NSDSPI_RX_BYTE_COUNTER_ReadCompare,"ax",%progbits
 528              		.align	2
 529              		.global	NSDSPI_RX_BYTE_COUNTER_ReadCompare
 530              		.thumb
 531              		.thumb_func
 532              		.type	NSDSPI_RX_BYTE_COUNTER_ReadCompare, %function
 533              	NSDSPI_RX_BYTE_COUNTER_ReadCompare:
 534              	.LFB12:
 474:Generated_Source\PSoC5/NSDSPI_RX_BYTE_COUNTER.c **** 
 475:Generated_Source\PSoC5/NSDSPI_RX_BYTE_COUNTER.c **** 
 476:Generated_Source\PSoC5/NSDSPI_RX_BYTE_COUNTER.c **** /*******************************************************************************
 477:Generated_Source\PSoC5/NSDSPI_RX_BYTE_COUNTER.c **** * Function Name: NSDSPI_RX_BYTE_COUNTER_ReadCompare
 478:Generated_Source\PSoC5/NSDSPI_RX_BYTE_COUNTER.c **** ********************************************************************************
 479:Generated_Source\PSoC5/NSDSPI_RX_BYTE_COUNTER.c **** * Summary:
 480:Generated_Source\PSoC5/NSDSPI_RX_BYTE_COUNTER.c **** * Returns the compare value.
 481:Generated_Source\PSoC5/NSDSPI_RX_BYTE_COUNTER.c **** *
 482:Generated_Source\PSoC5/NSDSPI_RX_BYTE_COUNTER.c **** * Parameters:  
 483:Generated_Source\PSoC5/NSDSPI_RX_BYTE_COUNTER.c **** *  void:
 484:Generated_Source\PSoC5/NSDSPI_RX_BYTE_COUNTER.c **** *
 485:Generated_Source\PSoC5/NSDSPI_RX_BYTE_COUNTER.c **** * Return: 
 486:Generated_Source\PSoC5/NSDSPI_RX_BYTE_COUNTER.c **** *  (uint16) Present compare value.
 487:Generated_Source\PSoC5/NSDSPI_RX_BYTE_COUNTER.c **** *
 488:Generated_Source\PSoC5/NSDSPI_RX_BYTE_COUNTER.c **** *******************************************************************************/
 489:Generated_Source\PSoC5/NSDSPI_RX_BYTE_COUNTER.c **** uint16 NSDSPI_RX_BYTE_COUNTER_ReadCompare(void) 
 490:Generated_Source\PSoC5/NSDSPI_RX_BYTE_COUNTER.c **** {
 535              		.loc 1 490 0
 536              		.cfi_startproc
ARM GAS  C:\Users\HPz420\AppData\Local\Temp\cclzAzD7.s 			page 19


 537              		@ args = 0, pretend = 0, frame = 0
 538              		@ frame_needed = 1, uses_anonymous_args = 0
 539              		@ link register save eliminated.
 540 0000 80B4     		push	{r7}
 541              		.cfi_def_cfa_offset 4
 542              		.cfi_offset 7, -4
 543 0002 00AF     		add	r7, sp, #0
 544              		.cfi_def_cfa_register 7
 491:Generated_Source\PSoC5/NSDSPI_RX_BYTE_COUNTER.c ****     return (CY_GET_REG16(NSDSPI_RX_BYTE_COUNTER_COMPARE_LSB_PTR));
 545              		.loc 1 491 0
 546 0004 034B     		ldr	r3, .L40
 547 0006 1B88     		ldrh	r3, [r3]	@ movhi
 548 0008 9BB2     		uxth	r3, r3
 492:Generated_Source\PSoC5/NSDSPI_RX_BYTE_COUNTER.c **** }
 549              		.loc 1 492 0
 550 000a 1846     		mov	r0, r3
 551 000c BD46     		mov	sp, r7
 552              		.cfi_def_cfa_register 13
 553              		@ sp needed
 554 000e 80BC     		pop	{r7}
 555              		.cfi_restore 7
 556              		.cfi_def_cfa_offset 0
 557 0010 7047     		bx	lr
 558              	.L41:
 559 0012 00BF     		.align	2
 560              	.L40:
 561 0014 74680040 		.word	1073768564
 562              		.cfi_endproc
 563              	.LFE12:
 564              		.size	NSDSPI_RX_BYTE_COUNTER_ReadCompare, .-NSDSPI_RX_BYTE_COUNTER_ReadCompare
 565              		.section	.text.NSDSPI_RX_BYTE_COUNTER_ClearFIFO,"ax",%progbits
 566              		.align	2
 567              		.global	NSDSPI_RX_BYTE_COUNTER_ClearFIFO
 568              		.thumb
 569              		.thumb_func
 570              		.type	NSDSPI_RX_BYTE_COUNTER_ClearFIFO, %function
 571              	NSDSPI_RX_BYTE_COUNTER_ClearFIFO:
 572              	.LFB13:
 493:Generated_Source\PSoC5/NSDSPI_RX_BYTE_COUNTER.c **** 
 494:Generated_Source\PSoC5/NSDSPI_RX_BYTE_COUNTER.c **** 
 495:Generated_Source\PSoC5/NSDSPI_RX_BYTE_COUNTER.c **** #if (NSDSPI_RX_BYTE_COUNTER_COMPARE_MODE_SOFTWARE)
 496:Generated_Source\PSoC5/NSDSPI_RX_BYTE_COUNTER.c **** /*******************************************************************************
 497:Generated_Source\PSoC5/NSDSPI_RX_BYTE_COUNTER.c **** * Function Name: NSDSPI_RX_BYTE_COUNTER_SetCompareMode
 498:Generated_Source\PSoC5/NSDSPI_RX_BYTE_COUNTER.c **** ********************************************************************************
 499:Generated_Source\PSoC5/NSDSPI_RX_BYTE_COUNTER.c **** * Summary:
 500:Generated_Source\PSoC5/NSDSPI_RX_BYTE_COUNTER.c **** *  Sets the software controlled Compare Mode.
 501:Generated_Source\PSoC5/NSDSPI_RX_BYTE_COUNTER.c **** *
 502:Generated_Source\PSoC5/NSDSPI_RX_BYTE_COUNTER.c **** * Parameters:
 503:Generated_Source\PSoC5/NSDSPI_RX_BYTE_COUNTER.c **** *  compareMode:  Compare Mode Enumerated Type.
 504:Generated_Source\PSoC5/NSDSPI_RX_BYTE_COUNTER.c **** *
 505:Generated_Source\PSoC5/NSDSPI_RX_BYTE_COUNTER.c **** * Return:
 506:Generated_Source\PSoC5/NSDSPI_RX_BYTE_COUNTER.c **** *  void
 507:Generated_Source\PSoC5/NSDSPI_RX_BYTE_COUNTER.c **** *
 508:Generated_Source\PSoC5/NSDSPI_RX_BYTE_COUNTER.c **** *******************************************************************************/
 509:Generated_Source\PSoC5/NSDSPI_RX_BYTE_COUNTER.c **** void NSDSPI_RX_BYTE_COUNTER_SetCompareMode(uint8 compareMode) 
 510:Generated_Source\PSoC5/NSDSPI_RX_BYTE_COUNTER.c **** {
 511:Generated_Source\PSoC5/NSDSPI_RX_BYTE_COUNTER.c ****     /* Clear the compare mode bits in the control register */
ARM GAS  C:\Users\HPz420\AppData\Local\Temp\cclzAzD7.s 			page 20


 512:Generated_Source\PSoC5/NSDSPI_RX_BYTE_COUNTER.c ****     NSDSPI_RX_BYTE_COUNTER_CONTROL &= ((uint8)(~NSDSPI_RX_BYTE_COUNTER_CTRL_CMPMODE_MASK));
 513:Generated_Source\PSoC5/NSDSPI_RX_BYTE_COUNTER.c ****     
 514:Generated_Source\PSoC5/NSDSPI_RX_BYTE_COUNTER.c ****     /* Write the new setting */
 515:Generated_Source\PSoC5/NSDSPI_RX_BYTE_COUNTER.c ****     NSDSPI_RX_BYTE_COUNTER_CONTROL |= compareMode;
 516:Generated_Source\PSoC5/NSDSPI_RX_BYTE_COUNTER.c **** }
 517:Generated_Source\PSoC5/NSDSPI_RX_BYTE_COUNTER.c **** #endif  /* (NSDSPI_RX_BYTE_COUNTER_COMPARE_MODE_SOFTWARE) */
 518:Generated_Source\PSoC5/NSDSPI_RX_BYTE_COUNTER.c **** 
 519:Generated_Source\PSoC5/NSDSPI_RX_BYTE_COUNTER.c **** 
 520:Generated_Source\PSoC5/NSDSPI_RX_BYTE_COUNTER.c **** #if (NSDSPI_RX_BYTE_COUNTER_CAPTURE_MODE_SOFTWARE)
 521:Generated_Source\PSoC5/NSDSPI_RX_BYTE_COUNTER.c **** /*******************************************************************************
 522:Generated_Source\PSoC5/NSDSPI_RX_BYTE_COUNTER.c **** * Function Name: NSDSPI_RX_BYTE_COUNTER_SetCaptureMode
 523:Generated_Source\PSoC5/NSDSPI_RX_BYTE_COUNTER.c **** ********************************************************************************
 524:Generated_Source\PSoC5/NSDSPI_RX_BYTE_COUNTER.c **** * Summary:
 525:Generated_Source\PSoC5/NSDSPI_RX_BYTE_COUNTER.c **** *  Sets the software controlled Capture Mode.
 526:Generated_Source\PSoC5/NSDSPI_RX_BYTE_COUNTER.c **** *
 527:Generated_Source\PSoC5/NSDSPI_RX_BYTE_COUNTER.c **** * Parameters:
 528:Generated_Source\PSoC5/NSDSPI_RX_BYTE_COUNTER.c **** *  captureMode:  Capture Mode Enumerated Type.
 529:Generated_Source\PSoC5/NSDSPI_RX_BYTE_COUNTER.c **** *
 530:Generated_Source\PSoC5/NSDSPI_RX_BYTE_COUNTER.c **** * Return:
 531:Generated_Source\PSoC5/NSDSPI_RX_BYTE_COUNTER.c **** *  void
 532:Generated_Source\PSoC5/NSDSPI_RX_BYTE_COUNTER.c **** *
 533:Generated_Source\PSoC5/NSDSPI_RX_BYTE_COUNTER.c **** *******************************************************************************/
 534:Generated_Source\PSoC5/NSDSPI_RX_BYTE_COUNTER.c **** void NSDSPI_RX_BYTE_COUNTER_SetCaptureMode(uint8 captureMode) 
 535:Generated_Source\PSoC5/NSDSPI_RX_BYTE_COUNTER.c **** {
 536:Generated_Source\PSoC5/NSDSPI_RX_BYTE_COUNTER.c ****     /* Clear the capture mode bits in the control register */
 537:Generated_Source\PSoC5/NSDSPI_RX_BYTE_COUNTER.c ****     NSDSPI_RX_BYTE_COUNTER_CONTROL &= ((uint8)(~NSDSPI_RX_BYTE_COUNTER_CTRL_CAPMODE_MASK));
 538:Generated_Source\PSoC5/NSDSPI_RX_BYTE_COUNTER.c ****     
 539:Generated_Source\PSoC5/NSDSPI_RX_BYTE_COUNTER.c ****     /* Write the new setting */
 540:Generated_Source\PSoC5/NSDSPI_RX_BYTE_COUNTER.c ****     NSDSPI_RX_BYTE_COUNTER_CONTROL |= ((uint8)((uint8)captureMode << NSDSPI_RX_BYTE_COUNTER_CTRL_CA
 541:Generated_Source\PSoC5/NSDSPI_RX_BYTE_COUNTER.c **** }
 542:Generated_Source\PSoC5/NSDSPI_RX_BYTE_COUNTER.c **** #endif  /* (NSDSPI_RX_BYTE_COUNTER_CAPTURE_MODE_SOFTWARE) */
 543:Generated_Source\PSoC5/NSDSPI_RX_BYTE_COUNTER.c **** 
 544:Generated_Source\PSoC5/NSDSPI_RX_BYTE_COUNTER.c **** 
 545:Generated_Source\PSoC5/NSDSPI_RX_BYTE_COUNTER.c **** /*******************************************************************************
 546:Generated_Source\PSoC5/NSDSPI_RX_BYTE_COUNTER.c **** * Function Name: NSDSPI_RX_BYTE_COUNTER_ClearFIFO
 547:Generated_Source\PSoC5/NSDSPI_RX_BYTE_COUNTER.c **** ********************************************************************************
 548:Generated_Source\PSoC5/NSDSPI_RX_BYTE_COUNTER.c **** * Summary:
 549:Generated_Source\PSoC5/NSDSPI_RX_BYTE_COUNTER.c **** *   This function clears all capture data from the capture FIFO
 550:Generated_Source\PSoC5/NSDSPI_RX_BYTE_COUNTER.c **** *
 551:Generated_Source\PSoC5/NSDSPI_RX_BYTE_COUNTER.c **** * Parameters:  
 552:Generated_Source\PSoC5/NSDSPI_RX_BYTE_COUNTER.c **** *  void:
 553:Generated_Source\PSoC5/NSDSPI_RX_BYTE_COUNTER.c **** *
 554:Generated_Source\PSoC5/NSDSPI_RX_BYTE_COUNTER.c **** * Return: 
 555:Generated_Source\PSoC5/NSDSPI_RX_BYTE_COUNTER.c **** *  None
 556:Generated_Source\PSoC5/NSDSPI_RX_BYTE_COUNTER.c **** *
 557:Generated_Source\PSoC5/NSDSPI_RX_BYTE_COUNTER.c **** *******************************************************************************/
 558:Generated_Source\PSoC5/NSDSPI_RX_BYTE_COUNTER.c **** void NSDSPI_RX_BYTE_COUNTER_ClearFIFO(void) 
 559:Generated_Source\PSoC5/NSDSPI_RX_BYTE_COUNTER.c **** {
 573              		.loc 1 559 0
 574              		.cfi_startproc
 575              		@ args = 0, pretend = 0, frame = 0
 576              		@ frame_needed = 1, uses_anonymous_args = 0
 577 0000 80B5     		push	{r7, lr}
 578              		.cfi_def_cfa_offset 8
 579              		.cfi_offset 7, -8
 580              		.cfi_offset 14, -4
 581 0002 00AF     		add	r7, sp, #0
ARM GAS  C:\Users\HPz420\AppData\Local\Temp\cclzAzD7.s 			page 21


 582              		.cfi_def_cfa_register 7
 560:Generated_Source\PSoC5/NSDSPI_RX_BYTE_COUNTER.c **** 
 561:Generated_Source\PSoC5/NSDSPI_RX_BYTE_COUNTER.c ****     while(0u != (NSDSPI_RX_BYTE_COUNTER_ReadStatusRegister() & NSDSPI_RX_BYTE_COUNTER_STATUS_FIFONE
 583              		.loc 1 561 0
 584 0004 01E0     		b	.L43
 585              	.L44:
 562:Generated_Source\PSoC5/NSDSPI_RX_BYTE_COUNTER.c ****     {
 563:Generated_Source\PSoC5/NSDSPI_RX_BYTE_COUNTER.c ****         (void)NSDSPI_RX_BYTE_COUNTER_ReadCapture();
 586              		.loc 1 563 0
 587 0006 FFF7FEFF 		bl	NSDSPI_RX_BYTE_COUNTER_ReadCapture
 588              	.L43:
 561:Generated_Source\PSoC5/NSDSPI_RX_BYTE_COUNTER.c ****     {
 589              		.loc 1 561 0
 590 000a FFF7FEFF 		bl	NSDSPI_RX_BYTE_COUNTER_ReadStatusRegister
 591 000e 0346     		mov	r3, r0
 592 0010 03F04003 		and	r3, r3, #64
 593 0014 002B     		cmp	r3, #0
 594 0016 F6D1     		bne	.L44
 564:Generated_Source\PSoC5/NSDSPI_RX_BYTE_COUNTER.c ****     }
 565:Generated_Source\PSoC5/NSDSPI_RX_BYTE_COUNTER.c **** 
 566:Generated_Source\PSoC5/NSDSPI_RX_BYTE_COUNTER.c **** }
 595              		.loc 1 566 0
 596 0018 00BF     		nop
 597 001a 80BD     		pop	{r7, pc}
 598              		.cfi_endproc
 599              	.LFE13:
 600              		.size	NSDSPI_RX_BYTE_COUNTER_ClearFIFO, .-NSDSPI_RX_BYTE_COUNTER_ClearFIFO
 601              		.text
 602              	.Letext0:
 603              		.file 2 "Generated_Source\\PSoC5\\cytypes.h"