ARM GAS  C:\Users\HPz420\AppData\Local\Temp\ccibvOJj.s 			page 1


   1              		.syntax unified
   2              		.cpu cortex-m3
   3              		.fpu softvfp
   4              		.eabi_attribute 20, 1
   5              		.eabi_attribute 21, 1
   6              		.eabi_attribute 23, 3
   7              		.eabi_attribute 24, 1
   8              		.eabi_attribute 25, 1
   9              		.eabi_attribute 26, 1
  10              		.eabi_attribute 30, 6
  11              		.eabi_attribute 34, 1
  12              		.eabi_attribute 18, 4
  13              		.thumb
  14              		.syntax unified
  15              		.file	"NSDSPI_CTRL.c"
  16              		.text
  17              	.Ltext0:
  18              		.cfi_sections	.debug_frame
  19              		.section	.text.NSDSPI_CTRL_Write,"ax",%progbits
  20              		.align	2
  21              		.global	NSDSPI_CTRL_Write
  22              		.thumb
  23              		.thumb_func
  24              		.type	NSDSPI_CTRL_Write, %function
  25              	NSDSPI_CTRL_Write:
  26              	.LFB0:
  27              		.file 1 "Generated_Source\\PSoC5\\NSDSPI_CTRL.c"
   1:Generated_Source\PSoC5/NSDSPI_CTRL.c **** /*******************************************************************************
   2:Generated_Source\PSoC5/NSDSPI_CTRL.c **** * File Name: NSDSPI_CTRL.c  
   3:Generated_Source\PSoC5/NSDSPI_CTRL.c **** * Version 1.80
   4:Generated_Source\PSoC5/NSDSPI_CTRL.c **** *
   5:Generated_Source\PSoC5/NSDSPI_CTRL.c **** * Description:
   6:Generated_Source\PSoC5/NSDSPI_CTRL.c **** *  This file contains API to enable firmware control of a Control Register.
   7:Generated_Source\PSoC5/NSDSPI_CTRL.c **** *
   8:Generated_Source\PSoC5/NSDSPI_CTRL.c **** * Note:
   9:Generated_Source\PSoC5/NSDSPI_CTRL.c **** *
  10:Generated_Source\PSoC5/NSDSPI_CTRL.c **** ********************************************************************************
  11:Generated_Source\PSoC5/NSDSPI_CTRL.c **** * Copyright 2008-2015, Cypress Semiconductor Corporation.  All rights reserved.
  12:Generated_Source\PSoC5/NSDSPI_CTRL.c **** * You may use this file only in accordance with the license, terms, conditions, 
  13:Generated_Source\PSoC5/NSDSPI_CTRL.c **** * disclaimers, and limitations in the end user license agreement accompanying 
  14:Generated_Source\PSoC5/NSDSPI_CTRL.c **** * the software package with which this file was provided.
  15:Generated_Source\PSoC5/NSDSPI_CTRL.c **** *******************************************************************************/
  16:Generated_Source\PSoC5/NSDSPI_CTRL.c **** 
  17:Generated_Source\PSoC5/NSDSPI_CTRL.c **** #include "NSDSPI_CTRL.h"
  18:Generated_Source\PSoC5/NSDSPI_CTRL.c **** 
  19:Generated_Source\PSoC5/NSDSPI_CTRL.c **** /* Check for removal by optimization */
  20:Generated_Source\PSoC5/NSDSPI_CTRL.c **** #if !defined(NSDSPI_CTRL_Sync_ctrl_reg__REMOVED)
  21:Generated_Source\PSoC5/NSDSPI_CTRL.c **** 
  22:Generated_Source\PSoC5/NSDSPI_CTRL.c ****     
  23:Generated_Source\PSoC5/NSDSPI_CTRL.c **** /*******************************************************************************
  24:Generated_Source\PSoC5/NSDSPI_CTRL.c **** * Function Name: NSDSPI_CTRL_Write
  25:Generated_Source\PSoC5/NSDSPI_CTRL.c **** ********************************************************************************
  26:Generated_Source\PSoC5/NSDSPI_CTRL.c **** *
  27:Generated_Source\PSoC5/NSDSPI_CTRL.c **** * Summary:
  28:Generated_Source\PSoC5/NSDSPI_CTRL.c **** *  Write a byte to the Control Register.
  29:Generated_Source\PSoC5/NSDSPI_CTRL.c **** *
  30:Generated_Source\PSoC5/NSDSPI_CTRL.c **** * Parameters:
ARM GAS  C:\Users\HPz420\AppData\Local\Temp\ccibvOJj.s 			page 2


  31:Generated_Source\PSoC5/NSDSPI_CTRL.c **** *  control:  The value to be assigned to the Control Register.
  32:Generated_Source\PSoC5/NSDSPI_CTRL.c **** *
  33:Generated_Source\PSoC5/NSDSPI_CTRL.c **** * Return:
  34:Generated_Source\PSoC5/NSDSPI_CTRL.c **** *  None.
  35:Generated_Source\PSoC5/NSDSPI_CTRL.c **** *
  36:Generated_Source\PSoC5/NSDSPI_CTRL.c **** *******************************************************************************/
  37:Generated_Source\PSoC5/NSDSPI_CTRL.c **** void NSDSPI_CTRL_Write(uint8 control) 
  38:Generated_Source\PSoC5/NSDSPI_CTRL.c **** {
  28              		.loc 1 38 0
  29              		.cfi_startproc
  30              		@ args = 0, pretend = 0, frame = 8
  31              		@ frame_needed = 1, uses_anonymous_args = 0
  32              		@ link register save eliminated.
  33 0000 80B4     		push	{r7}
  34              		.cfi_def_cfa_offset 4
  35              		.cfi_offset 7, -4
  36 0002 83B0     		sub	sp, sp, #12
  37              		.cfi_def_cfa_offset 16
  38 0004 00AF     		add	r7, sp, #0
  39              		.cfi_def_cfa_register 7
  40 0006 0346     		mov	r3, r0
  41 0008 FB71     		strb	r3, [r7, #7]
  39:Generated_Source\PSoC5/NSDSPI_CTRL.c ****     NSDSPI_CTRL_Control = control;
  42              		.loc 1 39 0
  43 000a 044A     		ldr	r2, .L2
  44 000c FB79     		ldrb	r3, [r7, #7]
  45 000e 1370     		strb	r3, [r2]
  40:Generated_Source\PSoC5/NSDSPI_CTRL.c **** }
  46              		.loc 1 40 0
  47 0010 00BF     		nop
  48 0012 0C37     		adds	r7, r7, #12
  49              		.cfi_def_cfa_offset 4
  50 0014 BD46     		mov	sp, r7
  51              		.cfi_def_cfa_register 13
  52              		@ sp needed
  53 0016 80BC     		pop	{r7}
  54              		.cfi_restore 7
  55              		.cfi_def_cfa_offset 0
  56 0018 7047     		bx	lr
  57              	.L3:
  58 001a 00BF     		.align	2
  59              	.L2:
  60 001c 7B640040 		.word	1073767547
  61              		.cfi_endproc
  62              	.LFE0:
  63              		.size	NSDSPI_CTRL_Write, .-NSDSPI_CTRL_Write
  64              		.section	.text.NSDSPI_CTRL_Read,"ax",%progbits
  65              		.align	2
  66              		.global	NSDSPI_CTRL_Read
  67              		.thumb
  68              		.thumb_func
  69              		.type	NSDSPI_CTRL_Read, %function
  70              	NSDSPI_CTRL_Read:
  71              	.LFB1:
  41:Generated_Source\PSoC5/NSDSPI_CTRL.c **** 
  42:Generated_Source\PSoC5/NSDSPI_CTRL.c **** 
  43:Generated_Source\PSoC5/NSDSPI_CTRL.c **** /*******************************************************************************
ARM GAS  C:\Users\HPz420\AppData\Local\Temp\ccibvOJj.s 			page 3


  44:Generated_Source\PSoC5/NSDSPI_CTRL.c **** * Function Name: NSDSPI_CTRL_Read
  45:Generated_Source\PSoC5/NSDSPI_CTRL.c **** ********************************************************************************
  46:Generated_Source\PSoC5/NSDSPI_CTRL.c **** *
  47:Generated_Source\PSoC5/NSDSPI_CTRL.c **** * Summary:
  48:Generated_Source\PSoC5/NSDSPI_CTRL.c **** *  Reads the current value assigned to the Control Register.
  49:Generated_Source\PSoC5/NSDSPI_CTRL.c **** *
  50:Generated_Source\PSoC5/NSDSPI_CTRL.c **** * Parameters:
  51:Generated_Source\PSoC5/NSDSPI_CTRL.c **** *  None.
  52:Generated_Source\PSoC5/NSDSPI_CTRL.c **** *
  53:Generated_Source\PSoC5/NSDSPI_CTRL.c **** * Return:
  54:Generated_Source\PSoC5/NSDSPI_CTRL.c **** *  Returns the current value in the Control Register.
  55:Generated_Source\PSoC5/NSDSPI_CTRL.c **** *
  56:Generated_Source\PSoC5/NSDSPI_CTRL.c **** *******************************************************************************/
  57:Generated_Source\PSoC5/NSDSPI_CTRL.c **** uint8 NSDSPI_CTRL_Read(void) 
  58:Generated_Source\PSoC5/NSDSPI_CTRL.c **** {
  72              		.loc 1 58 0
  73              		.cfi_startproc
  74              		@ args = 0, pretend = 0, frame = 0
  75              		@ frame_needed = 1, uses_anonymous_args = 0
  76              		@ link register save eliminated.
  77 0000 80B4     		push	{r7}
  78              		.cfi_def_cfa_offset 4
  79              		.cfi_offset 7, -4
  80 0002 00AF     		add	r7, sp, #0
  81              		.cfi_def_cfa_register 7
  59:Generated_Source\PSoC5/NSDSPI_CTRL.c ****     return NSDSPI_CTRL_Control;
  82              		.loc 1 59 0
  83 0004 034B     		ldr	r3, .L6
  84 0006 1B78     		ldrb	r3, [r3]
  85 0008 DBB2     		uxtb	r3, r3
  60:Generated_Source\PSoC5/NSDSPI_CTRL.c **** }
  86              		.loc 1 60 0
  87 000a 1846     		mov	r0, r3
  88 000c BD46     		mov	sp, r7
  89              		.cfi_def_cfa_register 13
  90              		@ sp needed
  91 000e 80BC     		pop	{r7}
  92              		.cfi_restore 7
  93              		.cfi_def_cfa_offset 0
  94 0010 7047     		bx	lr
  95              	.L7:
  96 0012 00BF     		.align	2
  97              	.L6:
  98 0014 7B640040 		.word	1073767547
  99              		.cfi_endproc
 100              	.LFE1:
 101              		.size	NSDSPI_CTRL_Read, .-NSDSPI_CTRL_Read
 102              		.text
 103              	.Letext0:
 104              		.file 2 "Generated_Source\\PSoC5\\cytypes.h"