       1                                         .title test27 - scoped div test
       2 000000 000167  000774                   jmp st
       3                                ;         .word 0   ;                    0
       4                                ;         .word 0   ;                    2
       5 000004 000000                           .word 0   ;                    4
       6 000006 000000                           .word 0   ;                    6
       7 000010 000000                           .word 0   ;                   10
       8 000012 000000                           .word 0   ;                   12
       9 000014 000000                           .word 0   ;                   14
      10 000016 000000                           .word 0   ;                   16
      11 000020 000000                           .word 0   ;                   20
      12 000022 000000                           .word 0   ;                   22
      13 000024 000000                           .word 0   ;                   24
      14 000026 000000                           .word 0   ;                   26
      15 000030 000000                           .word 0   ;                   30
      16 000032 000000                           .word 0   ;                   32
      17 000034 000000                           .word 0   ;                   34
      18 000036 000000                           .word 0   ;                   36
      19 000040 000000                           .word 0   ;                   40
      20 000042 000000                           .word 0   ;                   42
      21 000044 000000                           .word 0   ;                   44
      22 000046 000000                           .word 0   ;                   46
      23 000050 000000                           .word 0   ;                   50
      24 000052 000000                           .word 0   ;                   52
      25 000054 000000                           .word 0   ;                   54
      26 000056 000000                           .word 0   ;                   56
      27 000060 000000                           .word 0   ;                   60
      28 000062 000000                           .word 0   ;                   62
      29 000064 000000                           .word 0   ;                   64
      30 000066 000000                           .word 0   ;                   66
      31 000070 000000                           .word 0   ;                   70
      32 000072 000000                           .word 0   ;                   72
      33 000074 000000                           .word 0   ;                   74
      34 000076 000000                           .word 0   ;                   76
      35 000100 000000                           .word 0   ;                  100
      36 000102 000000                           .word 0   ;                  102
      37 000104 000000                           .word 0   ;                  104
      38 000106 000000                           .word 0   ;                  106
      39 000110 000000                           .word 0   ;                  110
      40 000112 000000                           .word 0   ;                  112
      41 000114 000000                           .word 0   ;                  114
      42 000116 000000                           .word 0   ;                  116
      43 000120 000000                           .word 0   ;                  120
      44 000122 000000                           .word 0   ;                  122
      45 000124 000000                           .word 0   ;                  124
      46 000126 000000                           .word 0   ;                  126
      47 000130 000000                           .word 0   ;                  130
      48 000132 000000                           .word 0   ;                  132
      49 000134 000000                           .word 0   ;                  134
      50 000136 000000                           .word 0   ;                  136
      51 000140 000000                           .word 0   ;                  140
      52 000142 000000                           .word 0   ;                  142
      53 000144 000000                           .word 0   ;                  144
      54 000146 000000                           .word 0   ;                  146
      55 000150 000000                           .word 0   ;                  150
      56 000152 000000                           .word 0   ;                  152
      57 000154 000000                           .word 0   ;                  154
      58 000156 000000                           .word 0   ;                  156
      59 000160 000000                           .word 0   ;                  160
      60 000162 000000                           .word 0   ;                  162
      61 000164 000000                           .word 0   ;                  164
      62 000166 000000                           .word 0   ;                  166
      63 000170 000000                           .word 0   ;                  170
      64 000172 000000                           .word 0   ;                  172
      65 000174 000000                           .word 0   ;                  174
      66 000176 000000                           .word 0   ;                  176
      67 000200 000000                           .word 0   ;                  200
      68 000202 000000                           .word 0   ;                  202
      69 000204 000000                           .word 0   ;                  204
      70 000206 000000                           .word 0   ;                  206
      71 000210 000000                           .word 0   ;                  210
      72 000212 000000                           .word 0   ;                  212
      73 000214 000000                           .word 0   ;                  214
      74 000216 000000                           .word 0   ;                  216
      75 000220 000000                           .word 0   ;                  220
      76 000222 000000                           .word 0   ;                  222
      77 000224 000000                           .word 0   ;                  224
      78 000226 000000                           .word 0   ;                  226
      79 000230 000000                           .word 0   ;                  230
      80 000232 000000                           .word 0   ;                  232
      81 000234 000000                           .word 0   ;                  234
      82 000236 000000                           .word 0   ;                  236
      83 000240 000000                           .word 0   ;                  240
      84 000242 000000                           .word 0   ;                  242
      85 000244 000000                           .word 0   ;                  244
      86 000246 000000                           .word 0   ;                  246
      87 000250 000000                           .word 0   ;                  250
      88 000252 000000                           .word 0   ;                  252
      89 000254 000000                           .word 0   ;                  254
      90 000256 000000                           .word 0   ;                  256
      91 000260 000000                           .word 0   ;                  260
      92 000262 000000                           .word 0   ;                  262
      93 000264 000000                           .word 0   ;                  264
      94 000266 000000                           .word 0   ;                  266
      95 000270 000000                           .word 0   ;                  270
      96 000272 000000                           .word 0   ;                  272
      97 000274 000000                           .word 0   ;                  274
      98 000276 000000                           .word 0   ;                  276
      99 000300 000000                           .word 0   ;                  300
     100 000302 000000                           .word 0   ;                  302
     101 000304 000000                           .word 0   ;                  304
     102 000306 000000                           .word 0   ;                  306
     103 000310 000000                           .word 0   ;                  310
     104 000312 000000                           .word 0   ;                  312
     105 000314 000000                           .word 0   ;                  314
     106 000316 000000                           .word 0   ;                  316
     107 000320 000000                           .word 0   ;                  320
     108 000322 000000                           .word 0   ;                  322
     109 000324 000000                           .word 0   ;                  324
     110 000326 000000                           .word 0   ;                  326
     111 000330 000000                           .word 0   ;                  330
     112 000332 000000                           .word 0   ;                  332
     113 000334 000000                           .word 0   ;                  334
     114 000336 000000                           .word 0   ;                  336
     115 000340 000000                           .word 0   ;                  340
     116 000342 000000                           .word 0   ;                  342
     117 000344 000000                           .word 0   ;                  344
     118 000346 000000                           .word 0   ;                  346
     119 000350 000000                           .word 0   ;                  350
     120 000352 000000                           .word 0   ;                  352
     121 000354 000000                           .word 0   ;                  354
     122 000356 000000                           .word 0   ;                  356
     123 000360 000000                           .word 0   ;                  360
     124 000362 000000                           .word 0   ;                  362
     125 000364 000000                           .word 0   ;                  364
     126 000366 000000                           .word 0   ;                  366
     127 000370 000000                           .word 0   ;                  370
     128 000372 000000                           .word 0   ;                  372
     129 000374 000000                           .word 0   ;                  374
     130 000376 000000                           .word 0   ;                  376
     131 000400 000000                           .word 0   ;                  400
     132 000402 000000                           .word 0   ;                  402
     133 000404 000000                           .word 0   ;                  404
     134 000406 000000                           .word 0   ;                  406
     135 000410 000000                           .word 0   ;                  410
     136 000412 000000                           .word 0   ;                  412
     137 000414 000000                           .word 0   ;                  414
     138 000416 000000                           .word 0   ;                  416
     139 000420 000000                           .word 0   ;                  420
     140 000422 000000                           .word 0   ;                  422
     141 000424 000000                           .word 0   ;                  424
     142 000426 000000                           .word 0   ;                  426
     143 000430 000000                           .word 0   ;                  430
     144 000432 000000                           .word 0   ;                  432
     145 000434 000000                           .word 0   ;                  434
     146 000436 000000                           .word 0   ;                  436
     147 000440 000000                           .word 0   ;                  440
     148 000442 000000                           .word 0   ;                  442
     149 000444 000000                           .word 0   ;                  444
     150 000446 000000                           .word 0   ;                  446
     151 000450 000000                           .word 0   ;                  450
     152 000452 000000                           .word 0   ;                  452
     153 000454 000000                           .word 0   ;                  454
     154 000456 000000                           .word 0   ;                  456
     155 000460 000000                           .word 0   ;                  460
     156 000462 000000                           .word 0   ;                  462
     157 000464 000000                           .word 0   ;                  464
     158 000466 000000                           .word 0   ;                  466
     159 000470 000000                           .word 0   ;                  470
     160 000472 000000                           .word 0   ;                  472
     161 000474 000000                           .word 0   ;                  474
     162 000476 000000                           .word 0   ;                  476
     163                                stbot:
     164                                stk:
     165 000500 000000                           .word 0   ;                  500
     166 000502 000000                           .word 0   ;                  502
     167 000504 000000                           .word 0   ;                  504
     168 000506 000000                           .word 0   ;                  506
     169 000510 000000                           .word 0   ;                  510
     170 000512 000000                           .word 0   ;                  512
     171 000514 000000                           .word 0   ;                  514
     172 000516 000000                           .word 0   ;                  516
     173 000520 000000                           .word 0   ;                  520
     174 000522 000000                           .word 0   ;                  522
     175 000524 000000                           .word 0   ;                  524
     176 000526 000000                           .word 0   ;                  526
     177 000530 000000                           .word 0   ;                  530
     178 000532 000000                           .word 0   ;                  532
     179 000534 000000                           .word 0   ;                  534
     180 000536 000000                           .word 0   ;                  536
     181 000540 000000                           .word 0   ;                  540
     182 000542 000000                           .word 0   ;                  542
     183 000544 000000                           .word 0   ;                  544
     184 000546 000000                           .word 0   ;                  546
     185 000550 000000                           .word 0   ;                  550
     186 000552 000000                           .word 0   ;                  552
     187 000554 000000                           .word 0   ;                  554
     188 000556 000000                           .word 0   ;                  556
     189 000560 000000                           .word 0   ;                  560
     190 000562 000000                           .word 0   ;                  562
     191 000564 000000                           .word 0   ;                  564
     192 000566 000000                           .word 0   ;                  566
     193 000570 000000                           .word 0   ;                  570
     194 000572 000000                           .word 0   ;                  572
     195 000574 000000                           .word 0   ;                  574
     196 000576 000000                           .word 0   ;                  576
     197 000600 000000                           .word 0   ;                  600
     198 000602 000000                           .word 0   ;                  602
     199 000604 000000                           .word 0   ;                  604
     200 000606 000000                           .word 0   ;                  606
     201 000610 000000                           .word 0   ;                  610
     202 000612 000000                           .word 0   ;                  612
     203 000614 000000                           .word 0   ;                  614
     204 000616 000000                           .word 0   ;                  616
     205 000620 000000                           .word 0   ;                  620
     206 000622 000000                           .word 0   ;                  622
     207 000624 000000                           .word 0   ;                  624
     208 000626 000000                           .word 0   ;                  626
     209 000630 000000                           .word 0   ;                  630
     210 000632 000000                           .word 0   ;                  632
     211 000634 000000                           .word 0   ;                  634
     212 000636 000000                           .word 0   ;                  636
     213 000640 000000                           .word 0   ;                  640
     214 000642 000000                           .word 0   ;                  642
     215 000644 000000                           .word 0   ;                  644
     216 000646 000000                           .word 0   ;                  646
     217 000650 000000                           .word 0   ;                  650
     218 000652 000000                           .word 0   ;                  652
     219 000654 000000                           .word 0   ;                  654
     220 000656 000000                           .word 0   ;                  656
     221 000660 000000                           .word 0   ;                  660
     222 000662 000000                           .word 0   ;                  662
     223 000664 000000                           .word 0   ;                  664
     224 000666 000000                           .word 0   ;                  666
     225 000670 000000                           .word 0   ;                  670
     226 000672 000000                           .word 0   ;                  672
     227 000674 000000                           .word 0   ;                  674
     228 000676 000000                           .word 0   ;                  676
     229 000700 000000                           .word 0   ;                  700
     230 000702 000000                           .word 0   ;                  702
     231 000704 000000                           .word 0   ;                  704
     232 000706 000000                           .word 0   ;                  706
     233 000710 000000                           .word 0   ;                  710
     234 000712 000000                           .word 0   ;                  712
     235 000714 000000                           .word 0   ;                  714
     236 000716 000000                           .word 0   ;                  716
     237 000720 000000                           .word 0   ;                  720
     238 000722 000000                           .word 0   ;                  722
     239 000724 000000                           .word 0   ;                  724
     240 000726 000000                           .word 0   ;                  726
     241 000730 000000                           .word 0   ;                  730
     242 000732 000000                           .word 0   ;                  732
     243 000734 000000                           .word 0   ;                  734
     244 000736 000000                           .word 0   ;                  736
     245 000740 000000                           .word 0   ;                  740
     246 000742 000000                           .word 0   ;                  742
     247 000744 000000                           .word 0   ;                  744
     248 000746 000000                           .word 0   ;                  746
     249 000750 000000                           .word 0   ;                  750
     250 000752 000000                           .word 0   ;                  752
     251 000754 000000                           .word 0   ;                  754
     252 000756 000000                           .word 0   ;                  756
     253 000760 000000                           .word 0   ;                  760
     254 000762 000000                           .word 0   ;                  762
     255 000764 000000                           .word 0   ;                  764
     256 000766 000000                           .word 0   ;                  766
     257 000770 000000                           .word 0   ;                  770
     258 000772 000000                           .word 0   ;                  772
     259 000774 000000                           .word 0   ;                  774
     260 000776 000000                           .word 0   ;                  776
     261                                ;
     262                                ; misc definitions
     263                                ;
     264 000011                         ht       = 11
     265 000012                         lf       = 12
     266 000015                         cr       = 15
     267 000200                         crlf     = 200
     268 177776                         ps       = 177776
     269 177774                         stklmt   = 177774
     270 177772                         pirq     = 177772
     271 177570                         dswr     = 177570
     272 177570                         ddisp    = 177570
     273                                
     274                                ;
     275                                ; general purpose register definitions
     276                                ;
     277 000000                         r0       = %0
     278 000001                         r1       = %1
     279 000002                         r2       = %2
     280 000003                         r3       = %3
     281 000004                         r4       = %4
     282 000005                         r5       = %5
     283 000006                         r6       = %6
     284 000007                         r7       = %7
     285 000006                         sp       = %6
     286 000007                         pc       = %7
     287                                
     288                                
     289 000000                         ..n      = 0
     290                                         .macro error
     291                                ..n      = ..n + 1
     292                                         mov #..n,@#ddisp
     293                                         halt
     294                                         .endm error
     295                                ;
     296                                ;
     297                                ;
     298                                
     299                                ;         .=1000
     300                                st:
     301 001000 012737  001046  000004           mov #2$,@#4
     302 001006 012737  000340  000006           mov #340,@#6
     303 001014 005001                           clr r1
     304                                10$:
     305 001016 012706  000777                   mov #777,r6
     306 001022 005037  177766                   clr @#177766
     307 001026 005037  177776                   clr @#177776
     308 001032 005737  177700                   tst @#177700
     309                                1$:
     310                                         error
       1 000001                         ..n      = ..n + 1
       2 001036 012737  000001  177570           mov #..n,@#ddisp
       3 001044 000000                           halt
     311                                2$:
     312 001046 022706  000000                   cmp #0,sp
     313 001052 001404                           beq 3$
     314                                         error
       1 000002                         ..n      = ..n + 1
       2 001054 012737  000002  177570           mov #..n,@#ddisp
       3 001062 000000                           halt
     315                                3$:
     316 001064 022726  001036                   cmp #1$,(sp)+
     317 001070 001404                           beq 4$
     318                                         error
       1 000003                         ..n      = ..n + 1
       2 001072 012737  000003  177570           mov #..n,@#ddisp
       3 001100 000000                           halt
     319                                4$:
     320 001102 022716  000000                   cmp #0,(sp)
     321 001106 001404                           beq 5$
     322                                         error
       1 000004                         ..n      = ..n + 1
       2 001110 012737  000004  177570           mov #..n,@#ddisp
       3 001116 000000                           halt
     323                                5$:
     324 001120 022737  000124  177766           cmp #124,@#177766
     325 001126 001404                           beq 6$
     326                                         error
       1 000005                         ..n      = ..n + 1
       2 001130 012737  000005  177570           mov #..n,@#ddisp
       3 001136 000000                           halt
     327                                6$:
     328 001140 000000                           halt
     329                                ;
     330                                ;
     331                                ;
     332                                
     333                                ;         mov #0, @#0             ; erase the jump at loc 0, so we know if we ended there
     334                                ;         inc @#count
     335                                ;         mov @#count,@#177570    ; keep count of how many loops we've done, and copy this into the display register
     336                                ;         mov #stk, sp
     337                                ;
     338                                ; tst1
     339                                ;
     340                                tst1:
     341 001142 005000                           clr r0
     342 001144 012701  020001                   mov #20001,r1
     343 001150 071027  000002                   div #2,r0
     344 001154 020027  010000                   cmp r0,#10000
     345 001160 001404                           beq 1$
     346                                         error
       1 000006                         ..n      = ..n + 1
       2 001162 012737  000006  177570           mov #..n,@#ddisp
       3 001170 000000                           halt
     347                                1$:
     348 001172 020127  000001                   cmp r1,#1
     349 001176 001404                           beq 2$
     350                                         error
       1 000007                         ..n      = ..n + 1
       2 001200 012737  000007  177570           mov #..n,@#ddisp
       3 001206 000000                           halt
     351                                2$:
     352                                ;
     353                                ;
     354                                ;
     355                                tst213:
     356 001210 005037  177776                   clr @#177776
     357 001214 005006                           clr r6
     358 001216 013705  000000                   mov @#0,r5
     359 001222 013701  000002                   mov @#2,r1
     360 001226 012737  000137  000000           mov #137,@#0
     361 001234 012737  001264  000002           mov #te126a,@#2
     362 001242 000277                           scc
     363 001244 071627  000002                   div #2,r6
     364                                a126$:
     365 001250 012706  000500                   mov #stbot,r6
     366                                         error
       1 000010                         ..n      = ..n + 1
       2 001254 012737  000010  177570           mov #..n,@#ddisp
       3 001262 000000                           halt
     367                                te126a:
     368 001264 022737  000000  177776           cmp #0,@#177776
     369 001272 001406                           beq 1$
     370 001274 012706  000500                   mov #stbot,r6
     371                                         error
       1 000011                         ..n      = ..n + 1
       2 001300 012737  000011  177570           mov #..n,@#ddisp
       3 001306 000000                           halt
     372                                1$:
     373 001310 012704  001250                   mov #a126$,r4
     374 001314 006204                           asr r4
     375 001316 020406                           cmp r4,r6
     376 001320 001406                           beq 2$
     377 001322 012706  000500                   mov #stbot,r6
     378                                         error
       1 000012                         ..n      = ..n + 1
       2 001326 012737  000012  177570           mov #..n,@#ddisp
       3 001334 000000                           halt
     379                                2$:
     380 001336 010537  000000                   mov r5,@#0
     381 001342 010137  000002                   mov r1,@#2
     382 001346 012706  000500                   mov #stbot,r6
     383 001352 012702  000006                   mov #6,r2
     384 001356 012703  000047                   mov #47,r3
     385 001362 000277                           scc
     386 001364 071302                           div r2,r3
     387 001366 022737  000002  177776           cmp #2,@#177776
     388 001374 001404                           beq 3$
     389                                         error
       1 000013                         ..n      = ..n + 1
       2 001376 012737  000013  177570           mov #..n,@#ddisp
       3 001404 000000                           halt
     390                                3$:
     391 001406 022702  000006                   cmp #6,r2
     392 001412 001404                           beq 4$
     393                                         error
       1 000014                         ..n      = ..n + 1
       2 001414 012737  000014  177570           mov #..n,@#ddisp
       3 001422 000000                           halt
     394                                4$:
     395 001424 022703  000047                   cmp #47,r3
     396 001430 001404                           beq 5$
     397                                         error
       1 000015                         ..n      = ..n + 1
       2 001432 012737  000015  177570           mov #..n,@#ddisp
       3 001440 000000                           halt
     398                                5$:
     399 001442 005004                           clr r4
     400 001444 012705  000004                   mov #4,r5
     401 001450 000277                           scc
     402 001452 071427  000000                   div #0,r4
     403 001456 022737  000007  177776           cmp #7,@#177776
     404 001464 001404                           beq 6$
     405                                         error
       1 000016                         ..n      = ..n + 1
       2 001466 012737  000016  177570           mov #..n,@#ddisp
       3 001474 000000                           halt
     406                                6$:
     407 001476 022704  000000                   cmp #0,r4
     408 001502 001404                           beq 7$
     409                                         error
       1 000017                         ..n      = ..n + 1
       2 001504 012737  000017  177570           mov #..n,@#ddisp
       3 001512 000000                           halt
     410                                7$:
     411 001514 022705  000004                   cmp #4,r5
     412 001520 001404                           beq 8$
     413                                         error
       1 000020                         ..n      = ..n + 1
       2 001522 012737  000020  177570           mov #..n,@#ddisp
       3 001530 000000                           halt
     414                                8$:
     415 001532 012700  000004                   mov #4,r0
     416 001536 012705  000010                   mov #10,r5
     417 001542 005004                           clr r4
     418 001544 000277                           scc
     419 001546 071400                           div r0,r4
     420 001550 022737  000000  177776           cmp #0,@#177776
     421 001556 001404                           beq 9$
     422                                ;         mov r0,400     ??
     423                                         error
       1 000021                         ..n      = ..n + 1
       2 001560 012737  000021  177570           mov #..n,@#ddisp
       3 001566 000000                           halt
     424                                ;         mov 400,r0     ??
     425                                9$:
     426 001570 022700  000004                   cmp #4,r0
     427 001574 001404                           beq 10$
     428                                         error
       1 000022                         ..n      = ..n + 1
       2 001576 012737  000022  177570           mov #..n,@#ddisp
       3 001604 000000                           halt
     429                                10$:
     430 001606 022704  000002                   cmp #2,r4
     431 001612 001404                           beq 11$
     432                                         error
       1 000023                         ..n      = ..n + 1
       2 001614 012737  000023  177570           mov #..n,@#ddisp
       3 001622 000000                           halt
     433                                11$:
     434 001624 022705  000000                   cmp #0,r5
     435 001630 001404                           beq 12$
     436                                         error
       1 000024                         ..n      = ..n + 1
       2 001632 012737  000024  177570           mov #..n,@#ddisp
       3 001640 000000                           halt
     437                                12$:
     438 001642 012705  000010                   mov #10,r5
     439 001646 005004                           clr r4
     440 001650 000277                           scc
     441 001652 071427  000003                   div #3,r4
     442 001656 022737  000000  177776           cmp #0,@#177776
     443 001664 001404                           beq 13$
     444                                         error
       1 000025                         ..n      = ..n + 1
       2 001666 012737  000025  177570           mov #..n,@#ddisp
       3 001674 000000                           halt
     445                                13$:
     446 001676 022704  000002                   cmp #2,r4
     447 001702 001404                           beq 14$
     448                                         error
       1 000026                         ..n      = ..n + 1
       2 001704 012737  000026  177570           mov #..n,@#ddisp
       3 001712 000000                           halt
     449                                14$:
     450 001714 022705  000002                   cmp #2,r5
     451 001720 001404                           beq 15$
     452                                         error
       1 000027                         ..n      = ..n + 1
       2 001722 012737  000027  177570           mov #..n,@#ddisp
       3 001730 000000                           halt
     453                                15$:
     454 001732 012701  002120                   mov #te126b,r1
     455                                16$:
     456 001736 010137  004264                   mov r1,@#expdat
     457 001742 011104                           mov (r1),r4
     458 001744 016103  000004                   mov 4(r1),r3
     459 001750 016105  000002                   mov 2(r1),r5
     460 001754 000277                           scc
     461 001756 071461  000004                   div 4(r1),r4
     462 001762 026137  000006  177776           cmp 6(r1),@#177776
     463 001770 001404                           beq 17$
     464                                         error
       1 000030                         ..n      = ..n + 1
       2 001772 012737  000030  177570           mov #..n,@#ddisp
       3 002000 000000                           halt
     465                                17$:
     466 002002 026105  000010                   cmp 10(r1),r5
     467 002006 001404                           beq 18$
     468                                         error
       1 000031                         ..n      = ..n + 1
       2 002010 012737  000031  177570           mov #..n,@#ddisp
       3 002016 000000                           halt
     469                                18$:
     470 002020 026104  000012                   cmp 12(r1),r4
     471 002024 001404                           beq 19$
     472                                         error
       1 000032                         ..n      = ..n + 1
       2 002026 012737  000032  177570           mov #..n,@#ddisp
       3 002034 000000                           halt
     473                                19$:
     474 002036 023701  004264                   cmp @#expdat,r1
     475 002042 001406                           beq 20$
     476                                         error
       1 000033                         ..n      = ..n + 1
       2 002044 012737  000033  177570           mov #..n,@#ddisp
       3 002052 000000                           halt
     477 002054 013701  004264                   mov @#expdat,r1         ; ??
     478                                20$:
     479 002060 026103  000004                   cmp 4(r1),r3
     480 002064 001406                           beq 21$
     481                                         error
       1 000034                         ..n      = ..n + 1
       2 002066 012737  000034  177570           mov #..n,@#ddisp
       3 002074 000000                           halt
     482 002076 010361  000004                   mov r3,4(r1)            ; ??
     483                                21$:
     484 002102 062701  000014                   add #14,r1
     485 002106 021127  000333                   cmp (r1),#333
     486 002112 001311                           bne 16$
     487 002114 000167  000316                   jmp fin126
     488                                te126b:
     489 002120 177777                           .word 177777            ; 1
     490 002122 177777                           .word 177777
     491 002124 177777                           .word 177777
     492 002126 000000                           .word 0
     493 002130 000000                           .word 0
     494 002132 000001                           .word 1
     495                                
     496 002134 000000                           .word 0                 ; 2
     497 002136 177777                           .word 177777
     498 002140 177777                           .word 177777
     499 002142 000012                           .word 12
     500 002144 177777                           .word 177777
     501 002146 000000                           .word 0
     502                                
     503 002150 177777                           .word 177777            ; 3
     504 002152 000000                           .word 0
     505 002154 177777                           .word 177777
     506 002156 000002                           .word 2
     507 002160 000000                           .word 0
     508 002162 177777                           .word 177777
     509                                
     510 002164 000000                           .word 0                 ; 4
     511 002166 007642                           .word 7642
     512 002170 007643                           .word 7643
     513 002172 000004                           .word 4
     514 002174 007642                           .word 7642
     515 002176 000000                           .word 0
     516                                
     517 002200 000000                           .word 0                 ; 5
     518 002202 000137                           .word 137
     519 002204 177543                           .word 177543
     520 002206 000004                           .word 4
     521 002210 000137                           .word 137
     522 002212 000000                           .word 0
     523                                
     524 002214 000000                           .word 0                 ; 6
     525 002216 007643                           .word 7643
     526 002220 007643                           .word 7643
     527 002222 000000                           .word 0
     528 002224 000000                           .word 0
     529 002226 000001                           .word 1
     530                                
     531 002230 100000                           .word 100000            ; 7
     532 002232 004376                           .word 4376
     533 002234 010021                           .word 10021
     534 002236 000012                           .word 12
     535 002240 004376                           .word 4376
     536 002242 100000                           .word 100000
     537                                
     538 002244 177700                           .word 177700            ; 8
     539 002246 170033                           .word 170033
     540 002250 010021                           .word 10021
     541 002252 000010                           .word 10
     542 002254 171307                           .word 171307
     543 002256 176024                           .word 176024
     544                                
     545 002260 177700                           .word 177700            ; 9
     546 002262 170033                           .word 170033
     547 002264 167757                           .word 167757
     548 002266 000000                           .word 0
     549 002270 171307                           .word 171307
     550 002272 001754                           .word 1754
     551                                
     552 002274 000000                           .word 0                 ; 10
     553 002276 177777                           .word 177777
     554 002300 000001                           .word 1
     555 002302 000002                           .word 2
     556 002304 177777                           .word 177777
     557 002306 000000                           .word 0
     558                                
     559 002310 177777                           .word 177777            ; 11
     560 002312 045716                           .word 45716
     561 002314 000001                           .word 1
     562 002316 000012                           .word 12
     563 002320 045716                           .word 45716
     564 002322 177777                           .word 177777
     565                                
     566 002324 000000                           .word 0                 ; 12
     567 002326 000002                           .word 2
     568 002330 177770                           .word 177770
     569 002332 000004                           .word 4
     570 002334 000002                           .word 2
     571 002336 000000                           .word 0
     572                                
     573 002340 177777                           .word 177777            ; 13
     574 002342 177776                           .word 177776
     575 002344 000010                           .word 10
     576 002346 000004                           .word 4
     577 002350 177776                           .word 177776
     578 002352 000000                           .word 0
     579                                
     580 002354 000001                           .word 1                 ; 14
     581 002356 177777                           .word 177777
     582 002360 000001                           .word 1
     583 002362 000002                           .word 2
     584 002364 177777                           .word 177777
     585 002366 000001                           .word 1
     586                                
     587 002370 000001                           .word 1                 ; 15
     588 002372 000000                           .word 0
     589 002374 000002                           .word 2
     590 002376 000002                           .word 2
     591 002400 000000                           .word 0
     592 002402 000001                           .word 1
     593                                
     594 002404 000001                           .word 1                 ; 16
     595 002406 000000                           .word 0
     596 002410 000003                           .word 3
     597 002412 000000                           .word 0
     598 002414 000001                           .word 1
     599 002416 052525                           .word 52525
     600                                
     601 002420 000023                           .word 23                ; 17
     602 002422 016054                           .word 16054
     603 002424 016537                           .word 16537
     604 002426 000000                           .word 0
     605 002430 010222                           .word 10222
     606 002432 000246                           .word 246
     607                                
     608 002434 000333                           .word 333
     609                                fin126:
     610                                ;
     611                                ; end of tests
     612                                ;
     613                                ;
     614                                ; tests from fkac - translated
     615                                ;
     616                                tst254:
     617 002436 012700  000000                   mov #0,r0
     618 002442 012701  000004                   mov #4,r1
     619 002446 071027  000002                   div #2,r0
     620 002452 106702                           mfps r2
     621 002454 122702  000000                   cmpb #0,r2
     622 002460 001404                           beq 1$
     623                                         error
       1 000035                         ..n      = ..n + 1
       2 002462 012737  000035  177570           mov #..n,@#ddisp
       3 002470 000000                           halt
     624                                1$:
     625 002472 022700  000002                   cmp #2,r0
     626 002476 001404                           beq 2$
     627                                         error
       1 000036                         ..n      = ..n + 1
       2 002500 012737  000036  177570           mov #..n,@#ddisp
       3 002506 000000                           halt
     628                                2$:
     629 002510 022701  000000                   cmp #0,r1
     630 002514 001404                           beq 3$
     631                                         error
       1 000037                         ..n      = ..n + 1
       2 002516 012737  000037  177570           mov #..n,@#ddisp
       3 002524 000000                           halt
     632                                3$:
     633                                ;
     634                                tst255:
     635 002526 012700  177777                   mov #-1,r0
     636 002532 012701  177767                   mov #-9.,r1
     637 002536 071027  000003                   div #3,r0
     638 002542 106702                           mfps r2
     639 002544 122702  000010                   cmpb #10,r2
     640 002550 001404                           beq 1$
     641                                         error
       1 000040                         ..n      = ..n + 1
       2 002552 012737  000040  177570           mov #..n,@#ddisp
       3 002560 000000                           halt
     642                                1$:
     643 002562 022700  177775                   cmp #-3,r0
     644 002566 001404                           beq 2$
     645                                         error
       1 000041                         ..n      = ..n + 1
       2 002570 012737  000041  177570           mov #..n,@#ddisp
       3 002576 000000                           halt
     646                                2$:
     647 002600 022701  000000                   cmp #0,r1
     648 002604 001404                           beq 3$
     649                                         error
       1 000042                         ..n      = ..n + 1
       2 002606 012737  000042  177570           mov #..n,@#ddisp
       3 002614 000000                           halt
     650                                3$:
     651                                ;
     652                                tst256:
     653 002616 012700  000000                   mov #0,r0
     654 002622 012701  000011                   mov #9.,r1
     655 002626 071027  000002                   div #2,r0
     656 002632 106702                           mfps r2
     657 002634 122702  000000                   cmpb #0,r2
     658 002640 001404                           beq 1$
     659                                         error
       1 000043                         ..n      = ..n + 1
       2 002642 012737  000043  177570           mov #..n,@#ddisp
       3 002650 000000                           halt
     660                                1$:
     661 002652 022700  000004                   cmp #4,r0
     662 002656 001404                           beq 2$
     663                                         error
       1 000044                         ..n      = ..n + 1
       2 002660 012737  000044  177570           mov #..n,@#ddisp
       3 002666 000000                           halt
     664                                2$:
     665 002670 022701  000001                   cmp #1,r1
     666 002674 001404                           beq 3$
     667                                         error
       1 000045                         ..n      = ..n + 1
       2 002676 012737  000045  177570           mov #..n,@#ddisp
       3 002704 000000                           halt
     668                                3$:
     669                                ;
     670                                tst257:
     671 002706 012700  177777                   mov #-1,r0
     672 002712 012701  177767                   mov #-9.,r1
     673 002716 071027  000002                   div #2,r0
     674 002722 106702                           mfps r2
     675 002724 122702  000010                   cmpb #10,r2
     676 002730 001404                           beq 1$
     677                                         error
       1 000046                         ..n      = ..n + 1
       2 002732 012737  000046  177570           mov #..n,@#ddisp
       3 002740 000000                           halt
     678                                1$:
     679 002742 022700  177774                   cmp #-4,r0
     680 002746 001404                           beq 2$
     681                                         error
       1 000047                         ..n      = ..n + 1
       2 002750 012737  000047  177570           mov #..n,@#ddisp
       3 002756 000000                           halt
     682                                2$:
     683 002760 022701  177777                   cmp #-1,r1
     684 002764 001404                           beq 3$
     685                                         error
       1 000050                         ..n      = ..n + 1
       2 002766 012737  000050  177570           mov #..n,@#ddisp
       3 002774 000000                           halt
     686                                3$:
     687                                ;
     688                                tst260:
     689 002776 012700  000000                   mov #0,r0
     690 003002 012701  000002                   mov #2,r1
     691 003006 071027  177775                   div #-3,r0
     692 003012 106702                           mfps r2
     693 003014 122702  000004                   cmpb #4,r2
     694 003020 001404                           beq 1$
     695                                         error
       1 000051                         ..n      = ..n + 1
       2 003022 012737  000051  177570           mov #..n,@#ddisp
       3 003030 000000                           halt
     696                                1$:
     697 003032 022700  000000                   cmp #0,r0
     698 003036 001404                           beq 2$
     699                                         error
       1 000052                         ..n      = ..n + 1
       2 003040 012737  000052  177570           mov #..n,@#ddisp
       3 003046 000000                           halt
     700                                2$:
     701 003050 022701  000002                   cmp #2,r1
     702 003054 001404                           beq 3$
     703                                         error
       1 000053                         ..n      = ..n + 1
       2 003056 012737  000053  177570           mov #..n,@#ddisp
       3 003064 000000                           halt
     704                                3$:
     705                                ;
     706                                tst261:
     707 003066 012700  177777                   mov #-1,r0
     708 003072 012701  177776                   mov #-2,r1
     709 003076 071027  000003                   div #3,r0
     710 003102 106702                           mfps r2
     711 003104 122702  000004                   cmpb #4,r2
     712 003110 001404                           beq 1$
     713                                         error
       1 000054                         ..n      = ..n + 1
       2 003112 012737  000054  177570           mov #..n,@#ddisp
       3 003120 000000                           halt
     714                                1$:
     715 003122 022700  000000                   cmp #0,r0
     716 003126 001404                           beq 2$
     717                                         error
       1 000055                         ..n      = ..n + 1
       2 003130 012737  000055  177570           mov #..n,@#ddisp
       3 003136 000000                           halt
     718                                2$:
     719 003140 022701  177776                   cmp #-2,r1
     720 003144 001404                           beq 3$
     721                                         error
       1 000056                         ..n      = ..n + 1
       2 003146 012737  000056  177570           mov #..n,@#ddisp
       3 003154 000000                           halt
     722                                3$:
     723                                ;
     724                                tst262:
     725 003156 012700  177777                   mov #-1,r0
     726 003162 012701  177777                   mov #-1,r1
     727 003166 071027  000001                   div #1,r0
     728 003172 106702                           mfps r2
     729 003174 122702  000010                   cmpb #10,r2
     730 003200 001404                           beq 1$
     731                                         error
       1 000057                         ..n      = ..n + 1
       2 003202 012737  000057  177570           mov #..n,@#ddisp
       3 003210 000000                           halt
     732                                1$:
     733 003212 022700  177777                   cmp #-1,r0
     734 003216 001404                           beq 2$
     735                                         error
       1 000060                         ..n      = ..n + 1
       2 003220 012737  000060  177570           mov #..n,@#ddisp
       3 003226 000000                           halt
     736                                2$:
     737 003230 022701  000000                   cmp #0,r1
     738 003234 001404                           beq 3$
     739                                         error
       1 000061                         ..n      = ..n + 1
       2 003236 012737  000061  177570           mov #..n,@#ddisp
       3 003244 000000                           halt
     740                                3$:
     741                                ;
     742                                tst263:
     743 003246 012700  000000                   mov #0,r0
     744 003252 012701  000000                   mov #0,r1
     745 003256 071027  000001                   div #1,r0
     746 003262 106702                           mfps r2
     747 003264 122702  000004                   cmpb #4,r2
     748 003270 001404                           beq 1$
     749                                         error
       1 000062                         ..n      = ..n + 1
       2 003272 012737  000062  177570           mov #..n,@#ddisp
       3 003300 000000                           halt
     750                                1$:
     751 003302 022700  000000                   cmp #0,r0
     752 003306 001404                           beq 2$
     753                                         error
       1 000063                         ..n      = ..n + 1
       2 003310 012737  000063  177570           mov #..n,@#ddisp
       3 003316 000000                           halt
     754                                2$:
     755 003320 022701  000000                   cmp #0,r1
     756 003324 001404                           beq 3$
     757                                         error
       1 000064                         ..n      = ..n + 1
       2 003326 012737  000064  177570           mov #..n,@#ddisp
       3 003334 000000                           halt
     758                                3$:
     759                                ;
     760                                tst264:
     761 003336 012700  177777                   mov #-1,r0
     762 003342 012701  125252                   mov #125252,r1
     763 003346 071027  000002                   div #2,r0
     764 003352 106702                           mfps r2
     765 003354 122702  000010                   cmpb #10,r2
     766 003360 001404                           beq 1$
     767                                         error
       1 000065                         ..n      = ..n + 1
       2 003362 012737  000065  177570           mov #..n,@#ddisp
       3 003370 000000                           halt
     768                                1$:
     769 003372 022700  152525                   cmp #152525,r0
     770 003376 001404                           beq 2$
     771                                         error
       1 000066                         ..n      = ..n + 1
       2 003400 012737  000066  177570           mov #..n,@#ddisp
       3 003406 000000                           halt
     772                                2$:
     773 003410 022701  000000                   cmp #0,r1
     774 003414 001404                           beq 3$
     775                                         error
       1 000067                         ..n      = ..n + 1
       2 003416 012737  000067  177570           mov #..n,@#ddisp
       3 003424 000000                           halt
     776                                3$:
     777                                ;
     778                                tst265:
     779 003426 012700  177777                   mov #-1,r0
     780 003432 012701  177777                   mov #-1,r1
     781 003436 071027  177777                   div #-1,r0
     782 003442 106702                           mfps r2
     783 003444 122702  000000                   cmpb #0,r2
     784 003450 001404                           beq 1$
     785                                         error
       1 000070                         ..n      = ..n + 1
       2 003452 012737  000070  177570           mov #..n,@#ddisp
       3 003460 000000                           halt
     786                                1$:
     787 003462 022700  000001                   cmp #1,r0
     788 003466 001404                           beq 2$
     789                                         error
       1 000071                         ..n      = ..n + 1
       2 003470 012737  000071  177570           mov #..n,@#ddisp
       3 003476 000000                           halt
     790                                2$:
     791 003500 022701  000000                   cmp #0,r1
     792 003504 001404                           beq 3$
     793                                         error
       1 000072                         ..n      = ..n + 1
       2 003506 012737  000072  177570           mov #..n,@#ddisp
       3 003514 000000                           halt
     794                                3$:
     795                                ;
     796                                tst266:
     797 003516 012700  025253                   mov #25253,r0
     798 003522 012701  000001                   mov #1,r1
     799 003526 071027  125252                   div #125252,r0
     800 003532 106702                           mfps r2
     801 003534 122702  000010                   cmpb #10,r2
     802 003540 001404                           beq 1$
     803                                         error
       1 000073                         ..n      = ..n + 1
       2 003542 012737  000073  177570           mov #..n,@#ddisp
       3 003550 000000                           halt
     804                                1$:
     805 003552 022700  100000                   cmp #100000,r0
     806 003556 001404                           beq 2$
     807                                         error
       1 000074                         ..n      = ..n + 1
       2 003560 012737  000074  177570           mov #..n,@#ddisp
       3 003566 000000                           halt
     808                                2$:
     809 003570 022701  000001                   cmp #1,r1
     810 003574 001404                           beq 3$
     811                                         error
       1 000075                         ..n      = ..n + 1
       2 003576 012737  000075  177570           mov #..n,@#ddisp
       3 003604 000000                           halt
     812                                3$:
     813                                ;
     814                                tst267:
     815 003606 012700  037777                   mov #37777,r0
     816 003612 012701  077777                   mov #77777,r1
     817 003616 071027  077777                   div #77777,r0
     818 003622 106702                           mfps r2
     819 003624 122702  000000                   cmpb #0,r2
     820 003630 001404                           beq 1$
     821                                         error
       1 000076                         ..n      = ..n + 1
       2 003632 012737  000076  177570           mov #..n,@#ddisp
       3 003640 000000                           halt
     822                                1$:
     823 003642 022700  077777                   cmp #77777,r0
     824 003646 001404                           beq 2$
     825                                         error
       1 000077                         ..n      = ..n + 1
       2 003650 012737  000077  177570           mov #..n,@#ddisp
       3 003656 000000                           halt
     826                                2$:
     827 003660 022701  077776                   cmp #77776,r1
     828 003664 001404                           beq 3$
     829                                         error
       1 000100                         ..n      = ..n + 1
       2 003666 012737  000100  177570           mov #..n,@#ddisp
       3 003674 000000                           halt
     830                                3$:
     831                                ;
     832                                tst270:
     833 003676 012700  000000                   mov #0,r0
     834 003702 012701  100000                   mov #100000,r1
     835 003706 071027  000002                   div #2,r0
     836 003712 106702                           mfps r2
     837 003714 122702  000000                   cmpb #0,r2
     838 003720 001404                           beq 1$
     839                                         error
       1 000101                         ..n      = ..n + 1
       2 003722 012737  000101  177570           mov #..n,@#ddisp
       3 003730 000000                           halt
     840                                1$:
     841 003732 022700  040000                   cmp #40000,r0
     842 003736 001404                           beq 2$
     843                                         error
       1 000102                         ..n      = ..n + 1
       2 003740 012737  000102  177570           mov #..n,@#ddisp
       3 003746 000000                           halt
     844                                2$:
     845 003750 022701  000000                   cmp #0,r1
     846 003754 001404                           beq 3$
     847                                         error
       1 000103                         ..n      = ..n + 1
       2 003756 012737  000103  177570           mov #..n,@#ddisp
       3 003764 000000                           halt
     848                                3$:
     849                                ;
     850                                tst271:
     851 003766 012700  177777                   mov #177777,r0
     852 003772 012701  077777                   mov #77777,r1
     853 003776 071027  177776                   div #177776,r0
     854 004002 106702                           mfps r2
     855 004004 122702  000000                   cmpb #0,r2
     856 004010 001404                           beq 1$
     857                                         error
       1 000104                         ..n      = ..n + 1
       2 004012 012737  000104  177570           mov #..n,@#ddisp
       3 004020 000000                           halt
     858                                1$:
     859 004022 022700  040000                   cmp #40000,r0
     860 004026 001404                           beq 2$
     861                                         error
       1 000105                         ..n      = ..n + 1
       2 004030 012737  000105  177570           mov #..n,@#ddisp
       3 004036 000000                           halt
     862                                2$:
     863 004040 022701  177777                   cmp #177777,r1
     864 004044 001404                           beq 3$
     865                                         error
       1 000106                         ..n      = ..n + 1
       2 004046 012737  000106  177570           mov #..n,@#ddisp
       3 004054 000000                           halt
     866                                3$:
     867                                ;
     868                                tst:
     869 004056 012700  000000                   mov #0,r0
     870 004062 012701  052525                   mov #52525,r1
     871 004066 071027  052525                   div #52525,r0
     872 004072 106702                           mfps r2
     873 004074 122702  000000                   cmpb #0,r2
     874 004100 001404                           beq 1$
     875                                         error
       1 000107                         ..n      = ..n + 1
       2 004102 012737  000107  177570           mov #..n,@#ddisp
       3 004110 000000                           halt
     876                                1$:
     877 004112 022700  000001                   cmp #1,r0
     878 004116 001404                           beq 2$
     879                                         error
       1 000110                         ..n      = ..n + 1
       2 004120 012737  000110  177570           mov #..n,@#ddisp
       3 004126 000000                           halt
     880                                2$:
     881 004130 022701  000000                   cmp #0,r1
     882 004134 001404                           beq 3$
     883                                         error
       1 000111                         ..n      = ..n + 1
       2 004136 012737  000111  177570           mov #..n,@#ddisp
       3 004144 000000                           halt
     884                                3$:
     885                                ;
     886                                tst273:
     887 004146 012700  000000                   mov #0,r0
     888 004152 012701  077777                   mov #77777,r1
     889 004156 071027  000000                   div #0,r0
     890 004162 106702                           mfps r2
     891 004164 122702  000003                   cmpb #3,r2
     892 004170 001404                           beq 1$
     893                                         error
       1 000112                         ..n      = ..n + 1
       2 004172 012737  000112  177570           mov #..n,@#ddisp
       3 004200 000000                           halt
     894                                1$:
     895                                ;
     896                                tst274:
     897 004202 012700  077777                   mov #77777,r0
     898 004206 012701  177777                   mov #177777,r1
     899 004212 071027  000002                   div #2,r0
     900 004216 106702                           mfps r2
     901 004220 122702  000002                   cmpb #2,r2
     902 004224 001404                           beq 1$
     903                                         error
       1 000113                         ..n      = ..n + 1
       2 004226 012737  000113  177570           mov #..n,@#ddisp
       3 004234 000000                           halt
     904                                1$:
     905 004236 012701  011111                   mov #11111,r1
     906 004242 012702  022222                   mov #22222,r2
     907 004246 012703  033333                   mov #33333,r3
     908 004252 012704  044444                   mov #44444,r4
     909 004256 000000                           halt
     910                                ;
     911                                ; data for czkdjb0
     912                                ;
     913 004260 000000                  sloc00:  .word 0
     914 004262 000000                  sloc01:  .word 0
     915                                
     916 004264 000000                  expdat:  .word 0
     917                                
     918 004266 000000                  seq:     .word 0
     919 004270 000000                  sps:     .word 0
     920 004272 000000                  spsj:    .word 0
     921                                
     922 004274 000000                  count:   .word 0
     923                                
     924                                
     924                                
