       1                                         .title test25
       2 000000 000167  000774                   jmp st
       3                                ;         .word 0   ;                    0
       4                                ;         .word 0   ;                    2
       5 000004 000000                           .word 0   ;                    4
       6 000006 000000                           .word 0   ;                    6
       7 000010 000000                           .word 0   ;                   10
       8 000012 000000                           .word 0   ;                   12
       9 000014 000000                           .word 0   ;                   14
      10 000016 000000                           .word 0   ;                   16
      11 000020 000000                           .word 0   ;                   20
      12 000022 000000                           .word 0   ;                   22
      13 000024 000000                           .word 0   ;                   24
      14 000026 000000                           .word 0   ;                   26
      15 000030 000000                           .word 0   ;                   30
      16 000032 000000                           .word 0   ;                   32
      17 000034 000000                           .word 0   ;                   34
      18 000036 000000                           .word 0   ;                   36
      19 000040 000000                           .word 0   ;                   40
      20 000042 000000                           .word 0   ;                   42
      21 000044 000000                           .word 0   ;                   44
      22 000046 000000                           .word 0   ;                   46
      23 000050 000000                           .word 0   ;                   50
      24 000052 000000                           .word 0   ;                   52
      25 000054 000000                           .word 0   ;                   54
      26 000056 000000                           .word 0   ;                   56
      27 000060 000000                           .word 0   ;                   60
      28 000062 000000                           .word 0   ;                   62
      29 000064 000000                           .word 0   ;                   64
      30 000066 000000                           .word 0   ;                   66
      31 000070 000000                           .word 0   ;                   70
      32 000072 000000                           .word 0   ;                   72
      33 000074 000000                           .word 0   ;                   74
      34 000076 000000                           .word 0   ;                   76
      35 000100 000000                           .word 0   ;                  100
      36 000102 000000                           .word 0   ;                  102
      37 000104 000000                           .word 0   ;                  104
      38 000106 000000                           .word 0   ;                  106
      39 000110 000000                           .word 0   ;                  110
      40 000112 000000                           .word 0   ;                  112
      41 000114 000000                           .word 0   ;                  114
      42 000116 000000                           .word 0   ;                  116
      43 000120 000000                           .word 0   ;                  120
      44 000122 000000                           .word 0   ;                  122
      45 000124 000000                           .word 0   ;                  124
      46 000126 000000                           .word 0   ;                  126
      47 000130 000000                           .word 0   ;                  130
      48 000132 000000                           .word 0   ;                  132
      49 000134 000000                           .word 0   ;                  134
      50 000136 000000                           .word 0   ;                  136
      51 000140 000000                           .word 0   ;                  140
      52 000142 000000                           .word 0   ;                  142
      53 000144 000000                           .word 0   ;                  144
      54 000146 000000                           .word 0   ;                  146
      55 000150 000000                           .word 0   ;                  150
      56 000152 000000                           .word 0   ;                  152
      57 000154 000000                           .word 0   ;                  154
      58 000156 000000                           .word 0   ;                  156
      59 000160 000000                           .word 0   ;                  160
      60 000162 000000                           .word 0   ;                  162
      61 000164 000000                           .word 0   ;                  164
      62 000166 000000                           .word 0   ;                  166
      63 000170 000000                           .word 0   ;                  170
      64 000172 000000                           .word 0   ;                  172
      65 000174 000000                           .word 0   ;                  174
      66 000176 000000                           .word 0   ;                  176
      67 000200 000000                           .word 0   ;                  200
      68 000202 000000                           .word 0   ;                  202
      69 000204 000000                           .word 0   ;                  204
      70 000206 000000                           .word 0   ;                  206
      71 000210 000000                           .word 0   ;                  210
      72 000212 000000                           .word 0   ;                  212
      73 000214 000000                           .word 0   ;                  214
      74 000216 000000                           .word 0   ;                  216
      75 000220 000000                           .word 0   ;                  220
      76 000222 000000                           .word 0   ;                  222
      77 000224 000000                           .word 0   ;                  224
      78 000226 000000                           .word 0   ;                  226
      79 000230 000000                           .word 0   ;                  230
      80 000232 000000                           .word 0   ;                  232
      81 000234 000000                           .word 0   ;                  234
      82 000236 000000                           .word 0   ;                  236
      83 000240 000000                           .word 0   ;                  240
      84 000242 000000                           .word 0   ;                  242
      85 000244 000000                           .word 0   ;                  244
      86 000246 000000                           .word 0   ;                  246
      87 000250 000000                           .word 0   ;                  250
      88 000252 000000                           .word 0   ;                  252
      89 000254 000000                           .word 0   ;                  254
      90 000256 000000                           .word 0   ;                  256
      91 000260 000000                           .word 0   ;                  260
      92 000262 000000                           .word 0   ;                  262
      93 000264 000000                           .word 0   ;                  264
      94 000266 000000                           .word 0   ;                  266
      95 000270 000000                           .word 0   ;                  270
      96 000272 000000                           .word 0   ;                  272
      97 000274 000000                           .word 0   ;                  274
      98 000276 000000                           .word 0   ;                  276
      99 000300 000000                           .word 0   ;                  300
     100 000302 000000                           .word 0   ;                  302
     101 000304 000000                           .word 0   ;                  304
     102 000306 000000                           .word 0   ;                  306
     103 000310 000000                           .word 0   ;                  310
     104 000312 000000                           .word 0   ;                  312
     105 000314 000000                           .word 0   ;                  314
     106 000316 000000                           .word 0   ;                  316
     107 000320 000000                           .word 0   ;                  320
     108 000322 000000                           .word 0   ;                  322
     109 000324 000000                           .word 0   ;                  324
     110 000326 000000                           .word 0   ;                  326
     111 000330 000000                           .word 0   ;                  330
     112 000332 000000                           .word 0   ;                  332
     113 000334 000000                           .word 0   ;                  334
     114 000336 000000                           .word 0   ;                  336
     115 000340 000000                           .word 0   ;                  340
     116 000342 000000                           .word 0   ;                  342
     117 000344 000000                           .word 0   ;                  344
     118 000346 000000                           .word 0   ;                  346
     119 000350 000000                           .word 0   ;                  350
     120 000352 000000                           .word 0   ;                  352
     121 000354 000000                           .word 0   ;                  354
     122 000356 000000                           .word 0   ;                  356
     123 000360 000000                           .word 0   ;                  360
     124 000362 000000                           .word 0   ;                  362
     125 000364 000000                           .word 0   ;                  364
     126 000366 000000                           .word 0   ;                  366
     127 000370 000000                           .word 0   ;                  370
     128 000372 000000                           .word 0   ;                  372
     129 000374 000000                           .word 0   ;                  374
     130 000376 000000                           .word 0   ;                  376
     131 000400 000000                           .word 0   ;                  400
     132 000402 000000                           .word 0   ;                  402
     133 000404 000000                           .word 0   ;                  404
     134 000406 000000                           .word 0   ;                  406
     135 000410 000000                           .word 0   ;                  410
     136 000412 000000                           .word 0   ;                  412
     137 000414 000000                           .word 0   ;                  414
     138 000416 000000                           .word 0   ;                  416
     139 000420 000000                           .word 0   ;                  420
     140 000422 000000                           .word 0   ;                  422
     141 000424 000000                           .word 0   ;                  424
     142 000426 000000                           .word 0   ;                  426
     143 000430 000000                           .word 0   ;                  430
     144 000432 000000                           .word 0   ;                  432
     145 000434 000000                           .word 0   ;                  434
     146 000436 000000                           .word 0   ;                  436
     147 000440 000000                           .word 0   ;                  440
     148 000442 000000                           .word 0   ;                  442
     149 000444 000000                           .word 0   ;                  444
     150 000446 000000                           .word 0   ;                  446
     151 000450 000000                           .word 0   ;                  450
     152 000452 000000                           .word 0   ;                  452
     153 000454 000000                           .word 0   ;                  454
     154 000456 000000                           .word 0   ;                  456
     155 000460 000000                           .word 0   ;                  460
     156 000462 000000                           .word 0   ;                  462
     157 000464 000000                           .word 0   ;                  464
     158 000466 000000                           .word 0   ;                  466
     159 000470 000000                           .word 0   ;                  470
     160 000472 000000                           .word 0   ;                  472
     161 000474 000000                           .word 0   ;                  474
     162 000476 000000                           .word 0   ;                  476
     163 000500 000000                           .word 0   ;                  500
     164 000502 000000                           .word 0   ;                  502
     165 000504 000000                           .word 0   ;                  504
     166 000506 000000                           .word 0   ;                  506
     167 000510 000000                           .word 0   ;                  510
     168 000512 000000                           .word 0   ;                  512
     169 000514 000000                           .word 0   ;                  514
     170 000516 000000                           .word 0   ;                  516
     171 000520 000000                           .word 0   ;                  520
     172 000522 000000                           .word 0   ;                  522
     173 000524 000000                           .word 0   ;                  524
     174 000526 000000                           .word 0   ;                  526
     175 000530 000000                           .word 0   ;                  530
     176 000532 000000                           .word 0   ;                  532
     177 000534 000000                           .word 0   ;                  534
     178 000536 000000                           .word 0   ;                  536
     179 000540 000000                           .word 0   ;                  540
     180 000542 000000                           .word 0   ;                  542
     181 000544 000000                           .word 0   ;                  544
     182 000546 000000                           .word 0   ;                  546
     183 000550 000000                           .word 0   ;                  550
     184 000552 000000                           .word 0   ;                  552
     185 000554 000000                           .word 0   ;                  554
     186 000556 000000                           .word 0   ;                  556
     187 000560 000000                           .word 0   ;                  560
     188 000562 000000                           .word 0   ;                  562
     189 000564 000000                           .word 0   ;                  564
     190 000566 000000                           .word 0   ;                  566
     191 000570 000000                           .word 0   ;                  570
     192 000572 000000                           .word 0   ;                  572
     193 000574 000000                           .word 0   ;                  574
     194 000576 000000                           .word 0   ;                  576
     195 000600 000000                           .word 0   ;                  600
     196 000602 000000                           .word 0   ;                  602
     197 000604 000000                           .word 0   ;                  604
     198 000606 000000                           .word 0   ;                  606
     199 000610 000000                           .word 0   ;                  610
     200 000612 000000                           .word 0   ;                  612
     201 000614 000000                           .word 0   ;                  614
     202 000616 000000                           .word 0   ;                  616
     203 000620 000000                           .word 0   ;                  620
     204 000622 000000                           .word 0   ;                  622
     205 000624 000000                           .word 0   ;                  624
     206 000626 000000                           .word 0   ;                  626
     207 000630 000000                           .word 0   ;                  630
     208 000632 000000                           .word 0   ;                  632
     209 000634 000000                           .word 0   ;                  634
     210 000636 000000                           .word 0   ;                  636
     211 000640 000000                           .word 0   ;                  640
     212 000642 000000                           .word 0   ;                  642
     213 000644 000000                           .word 0   ;                  644
     214 000646 000000                           .word 0   ;                  646
     215 000650 000000                           .word 0   ;                  650
     216 000652 000000                           .word 0   ;                  652
     217 000654 000000                           .word 0   ;                  654
     218 000656 000000                           .word 0   ;                  656
     219 000660 000000                           .word 0   ;                  660
     220 000662 000000                           .word 0   ;                  662
     221 000664 000000                           .word 0   ;                  664
     222 000666 000000                           .word 0   ;                  666
     223 000670 000000                           .word 0   ;                  670
     224 000672 000000                           .word 0   ;                  672
     225 000674 000000                           .word 0   ;                  674
     226 000676 000000                           .word 0   ;                  676
     227 000700 000000                           .word 0   ;                  700
     228 000702 000000                           .word 0   ;                  702
     229 000704 000000                           .word 0   ;                  704
     230 000706 000000                           .word 0   ;                  706
     231 000710 000000                           .word 0   ;                  710
     232 000712 000000                           .word 0   ;                  712
     233 000714 000000                           .word 0   ;                  714
     234 000716 000000                           .word 0   ;                  716
     235 000720 000000                           .word 0   ;                  720
     236 000722 000000                           .word 0   ;                  722
     237 000724 000000                           .word 0   ;                  724
     238 000726 000000                           .word 0   ;                  726
     239 000730 000000                           .word 0   ;                  730
     240 000732 000000                           .word 0   ;                  732
     241 000734 000000                           .word 0   ;                  734
     242 000736 000000                           .word 0   ;                  736
     243 000740 000000                           .word 0   ;                  740
     244 000742 000000                           .word 0   ;                  742
     245 000744 000000                           .word 0   ;                  744
     246 000746 000000                           .word 0   ;                  746
     247 000750 000000                           .word 0   ;                  750
     248 000752 000000                           .word 0   ;                  752
     249 000754 000000                           .word 0   ;                  754
     250 000756 000000                           .word 0   ;                  756
     251 000760 000000                           .word 0   ;                  760
     252 000762 000000                           .word 0   ;                  762
     253 000764 000000                           .word 0   ;                  764
     254 000766 000000                           .word 0   ;                  766
     255 000770 000000                           .word 0   ;                  770
     256 000772 000000                           .word 0   ;                  772
     257 000774 000000                           .word 0   ;                  774
     258                                stbot:
     259                                stk:
     260 000776 000000                           .word 0   ;                  776
     261                                ;
     262                                ; misc definitions
     263                                ;
     264 000011                         ht       = 11
     265 000012                         lf       = 12
     266 000015                         cr       = 15
     267 000200                         crlf     = 200
     268 177776                         ps       = 177776
     269 177774                         stklmt   = 177774
     270 177772                         pirq     = 177772
     271 177570                         dswr     = 177570
     272 177570                         ddisp    = 177570
     273 177766                         cpereg   = 177766
     274                                ;
     275                                ; general purpose register definitions
     276                                ;
     277 000000                         r0       = %0
     278 000001                         r1       = %1
     279 000002                         r2       = %2
     280 000003                         r3       = %3
     281 000004                         r4       = %4
     282 000005                         r5       = %5
     283 000006                         r6       = %6
     284 000007                         r7       = %7
     285 000006                         sp       = %6
     286 000007                         pc       = %7
     287                                ;
     288                                ; priority level definitions
     289                                ;
     290 000000                         pr0      = 0
     291 000040                         pr1      = 40
     292 000100                         pr2      = 100
     293 000140                         pr3      = 140
     294 000200                         pr4      = 200
     295 000240                         pr5      = 240
     296 000300                         pr6      = 300
     297 000340                         pr7      = 340
     298                                ;
     299                                ; kt11 register addresses
     300                                ;
     301 177572                         sr0      = 177572
     302 177574                         sr1      = 177574
     303 177576                         sr2      = 177576
     304 172516                         sr3      = 172516
     305                                ;
     306 177600                         uipdr0   = 177600
     307 177602                         uipdr1   = 177602
     308 177604                         uipdr2   = 177604
     309 177606                         uipdr3   = 177606
     310 177610                         uipdr4   = 177610
     311 177612                         uipdr5   = 177612
     312 177614                         uipdr6   = 177614
     313 177616                         uipdr7   = 177616
     314                                ;
     315 177620                         udpdr0   = 177620
     316 177622                         udpdr1   = 177622
     317 177624                         udpdr2   = 177624
     318 177626                         udpdr3   = 177626
     319 177630                         udpdr4   = 177630
     320 177632                         udpdr5   = 177632
     321 177634                         udpdr6   = 177634
     322 177636                         udpdr7   = 177636
     323                                ;
     324 177640                         uipar0   = 177640
     325 177642                         uipar1   = 177642
     326 177644                         uipar2   = 177644
     327 177646                         uipar3   = 177646
     328 177650                         uipar4   = 177650
     329 177652                         uipar5   = 177652
     330 177654                         uipar6   = 177654
     331 177656                         uipar7   = 177656
     332                                ;
     333 177660                         udpar0   = 177660
     334 177662                         udpar1   = 177662
     335 177664                         udpar2   = 177664
     336 177666                         udpar3   = 177666
     337 177670                         udpar4   = 177670
     338 177672                         udpar5   = 177672
     339 177674                         udpar6   = 177674
     340 177676                         udpar7   = 177676
     341                                ;
     342 172300                         kipdr0   = 172300
     343 172302                         kipdr1   = 172302
     344 172304                         kipdr2   = 172304
     345 172306                         kipdr3   = 172306
     346 172310                         kipdr4   = 172310
     347 172312                         kipdr5   = 172312
     348 172314                         kipdr6   = 172314
     349 172316                         kipdr7   = 172316
     350                                ;
     351 172340                         kipar0   = 172340
     352 172342                         kipar1   = 172342
     353 172344                         kipar2   = 172344
     354 172346                         kipar3   = 172346
     355 172350                         kipar4   = 172350
     356 172352                         kipar5   = 172352
     357 172354                         kipar6   = 172354
     358 172356                         kipar7   = 172356
     359                                ;
     360 172200                         sipdr0   = 172200
     361 172202                         sipdr1   = 172202
     362 172204                         sipdr2   = 172204
     363 172206                         sipdr3   = 172206
     364 172210                         sipdr4   = 172210
     365 172212                         sipdr5   = 172212
     366 172214                         sipdr6   = 172214
     367 172216                         sipdr7   = 172216
     368                                ;
     369 172240                         sipar0   = 172240
     370 172242                         sipar1   = 172242
     371 172244                         sipar2   = 172244
     372 172246                         sipar3   = 172246
     373 172250                         sipar4   = 172250
     374 172252                         sipar5   = 172252
     375 172254                         sipar6   = 172254
     376 172256                         sipar7   = 172256
     377                                ;
     378                                ; error macro - provide unique error number
     379                                ;
     380 000000                         ..n      = 0
     381                                         .macro error
     382                                ..n      = ..n + 1
     383                                         mov #..n,@#ddisp
     384                                         halt
     385                                         .endm error
     386                                ;
     387                                ;
     388                                ;
     389                                
     390                                ;         .=1000
     391                                st:
     392 001000 012706  000776                   mov #stk, sp
     393 001004 000167  025624                   jmp tst213
     394                                ;         mov #0, @#0             ; erase the jump at loc 0, so we know if we ended there
     395 001010 005237  051636                   inc @#count
     396 001014 013737  051636  177570           mov @#count,@#177570    ; keep count of how many loops we've done, and copy this into the display register
     397                                
     398                                ;
     399                                ; tst1
     400                                ;
     401                                tst1:
     402 001022 000277                           scc
     403 001024 000244                           clz
     404 001026 001401                           beq 1$
     405 001030 001004                           bne 2$
     406                                
     407                                1$:
     408                                         error
       1 000001                         ..n      = ..n + 1
       2 001032 012737  000001  177570           mov #..n,@#ddisp
       3 001040 000000                           halt
     409 001042 000257                  2$:      ccc
     410 001044 000264                           sez
     411 001046 001001                           bne 3$
     412 001050 001404                           beq 4$
     413                                3$:
     414                                         error
       1 000002                         ..n      = ..n + 1
       2 001052 012737  000002  177570           mov #..n,@#ddisp
       3 001060 000000                           halt
     415                                4$:
     416                                ;
     417                                ; tst2
     418                                ;
     419                                tst2:
     420 001062 000257                           ccc
     421 001064 103004                           bcc 2$
     422                                1$:
     423                                         error
       1 000003                         ..n      = ..n + 1
       2 001066 012737  000003  177570           mov #..n,@#ddisp
       3 001074 000000                           halt
     424 001076 000261                  2$:      sec
     425 001100 103404                           bcs 4$
     426                                3$:
     427                                         error
       1 000004                         ..n      = ..n + 1
       2 001102 012737  000004  177570           mov #..n,@#ddisp
       3 001110 000000                           halt
     428                                4$:
     429                                ;
     430                                ; tst3
     431                                ;
     432                                tst3:
     433 001112 005000                           clr r0
     434 001114 001005                           bne 1$
     435 001116 005010                           clr (r0)
     436 001120 001003                           bne 1$
     437 001122 005737  000000                   tst @#0
     438 001126 001404                           beq 2$
     439                                1$:
     440                                         error
       1 000005                         ..n      = ..n + 1
       2 001130 012737  000005  177570           mov #..n,@#ddisp
       3 001136 000000                           halt
     441                                2$:
     442                                ;
     443                                ; tst4
     444                                ;
     445                                tst4:
     446 001140 012737  125252  000000           mov #125252,@#0
     447 001146 022737  125252  000000           cmp #125252,@#0
     448 001154 001404                           beq 2$
     449                                1$:
     450                                         error
       1 000006                         ..n      = ..n + 1
       2 001156 012737  000006  177570           mov #..n,@#ddisp
       3 001164 000000                           halt
     451                                2$:
     452                                ;
     453                                ; tst5
     454                                ;
     455                                tst5:
     456 001166 012737  052525  000000           mov #052525,@#0
     457 001174 023727  000000  052525           cmp @#0,#052525
     458 001202 001404                           beq 2$
     459                                1$:
     460                                         error
       1 000007                         ..n      = ..n + 1
       2 001204 012737  000007  177570           mov #..n,@#ddisp
       3 001212 000000                           halt
     461                                2$:
     462                                ;
     463                                ; tst6
     464                                ;
     465                                tst6:
     466 001214 005037  000000                   clr @#0
     467 001220 005137  000000                   com @#0
     468 001224 023727  000000  177777           cmp @#0,#177777
     469 001232 001404                           beq 2$
     470                                1$:
     471                                         error
       1 000010                         ..n      = ..n + 1
       2 001234 012737  000010  177570           mov #..n,@#ddisp
       3 001242 000000                           halt
     472                                2$:
     473                                ;
     474                                ; tst7
     475                                ;
     476                                tst7:
     477 001244 012700  177777                   mov #177777,r0
     478 001250 020027  177777                   cmp r0,#177777
     479 001254 001404                           beq 1$
     480                                         error
       1 000011                         ..n      = ..n + 1
       2 001256 012737  000011  177570           mov #..n,@#ddisp
       3 001264 000000                           halt
     481                                1$:
     482 001266 005000                           clr r0
     483 001270 020027  000000                   cmp r0,#0
     484 001274 001404                           beq 2$
     485                                         error
       1 000012                         ..n      = ..n + 1
       2 001276 012737  000012  177570           mov #..n,@#ddisp
       3 001304 000000                           halt
     486                                2$:
     487 001306 012700  125252                   mov #125252,r0
     488 001312 020027  125252                   cmp r0,#125252
     489 001316 001404                           beq 3$
     490                                         error
       1 000013                         ..n      = ..n + 1
       2 001320 012737  000013  177570           mov #..n,@#ddisp
       3 001326 000000                           halt
     491                                3$:
     492 001330 012700  052525                   mov #52525,r0
     493 001334 020027  052525                   cmp r0,#52525
     494 001340 001404                           beq 4$
     495                                         error
       1 000014                         ..n      = ..n + 1
       2 001342 012737  000014  177570           mov #..n,@#ddisp
       3 001350 000000                           halt
     496                                4$:
     497                                ;
     498                                ; tst10
     499                                ;
     500                                tst10:
     501 001352 012701  177777                   mov #177777,r1
     502 001356 020127  177777                   cmp r1,#177777
     503 001362 001404                           beq 1$
     504                                         error
       1 000015                         ..n      = ..n + 1
       2 001364 012737  000015  177570           mov #..n,@#ddisp
       3 001372 000000                           halt
     505                                1$:
     506 001374 005001                           clr r1
     507 001376 020127  000000                   cmp r1,#0
     508 001402 001404                           beq 2$
     509                                         error
       1 000016                         ..n      = ..n + 1
       2 001404 012737  000016  177570           mov #..n,@#ddisp
       3 001412 000000                           halt
     510                                2$:
     511 001414 012701  125252                   mov #125252,r1
     512 001420 020127  125252                   cmp r1,#125252
     513 001424 001404                           beq 3$
     514                                         error
       1 000017                         ..n      = ..n + 1
       2 001426 012737  000017  177570           mov #..n,@#ddisp
       3 001434 000000                           halt
     515                                3$:
     516 001436 012701  052525                   mov #52525,r1
     517 001442 020127  052525                   cmp r1,#52525
     518 001446 001404                           beq 4$
     519                                         error
       1 000020                         ..n      = ..n + 1
       2 001450 012737  000020  177570           mov #..n,@#ddisp
       3 001456 000000                           halt
     520                                4$:
     521                                ;
     522                                ; tst11
     523                                ;
     524                                tst11:
     525 001460 012702  177777                   mov #177777,r2
     526 001464 020227  177777                   cmp r2,#177777
     527 001470 001404                           beq 1$
     528                                         error
       1 000021                         ..n      = ..n + 1
       2 001472 012737  000021  177570           mov #..n,@#ddisp
       3 001500 000000                           halt
     529                                1$:
     530 001502 005002                           clr r2
     531 001504 020227  000000                   cmp r2,#0
     532 001510 001404                           beq 2$
     533                                         error
       1 000022                         ..n      = ..n + 1
       2 001512 012737  000022  177570           mov #..n,@#ddisp
       3 001520 000000                           halt
     534                                2$:
     535 001522 012702  125252                   mov #125252,r2
     536 001526 020227  125252                   cmp r2,#125252
     537 001532 001404                           beq 3$
     538                                         error
       1 000023                         ..n      = ..n + 1
       2 001534 012737  000023  177570           mov #..n,@#ddisp
       3 001542 000000                           halt
     539                                3$:
     540 001544 012702  052525                   mov #52525,r2
     541 001550 020227  052525                   cmp r2,#52525
     542 001554 001404                           beq 4$
     543                                         error
       1 000024                         ..n      = ..n + 1
       2 001556 012737  000024  177570           mov #..n,@#ddisp
       3 001564 000000                           halt
     544                                4$:
     545                                ;
     546                                ; tst12
     547                                ;
     548                                tst12:
     549 001566 012703  177777                   mov #177777,r3
     550 001572 020327  177777                   cmp r3,#177777
     551 001576 001404                           beq 1$
     552                                         error
       1 000025                         ..n      = ..n + 1
       2 001600 012737  000025  177570           mov #..n,@#ddisp
       3 001606 000000                           halt
     553                                1$:
     554 001610 005003                           clr r3
     555 001612 020327  000000                   cmp r3,#0
     556 001616 001404                           beq 2$
     557                                         error
       1 000026                         ..n      = ..n + 1
       2 001620 012737  000026  177570           mov #..n,@#ddisp
       3 001626 000000                           halt
     558                                2$:
     559 001630 012703  125252                   mov #125252,r3
     560 001634 020327  125252                   cmp r3,#125252
     561 001640 001404                           beq 3$
     562                                         error
       1 000027                         ..n      = ..n + 1
       2 001642 012737  000027  177570           mov #..n,@#ddisp
       3 001650 000000                           halt
     563                                3$:
     564 001652 012703  052525                   mov #52525,r3
     565 001656 020327  052525                   cmp r3,#52525
     566 001662 001404                           beq 4$
     567                                         error
       1 000030                         ..n      = ..n + 1
       2 001664 012737  000030  177570           mov #..n,@#ddisp
       3 001672 000000                           halt
     568                                4$:
     569                                ;
     570                                ; tst13
     571                                ;
     572                                tst13:
     573 001674 012704  177777                   mov #177777,r4
     574 001700 020427  177777                   cmp r4,#177777
     575 001704 001404                           beq 1$
     576                                         error
       1 000031                         ..n      = ..n + 1
       2 001706 012737  000031  177570           mov #..n,@#ddisp
       3 001714 000000                           halt
     577                                1$:
     578 001716 005004                           clr r4
     579 001720 020427  000000                   cmp r4,#0
     580 001724 001404                           beq 2$
     581                                         error
       1 000032                         ..n      = ..n + 1
       2 001726 012737  000032  177570           mov #..n,@#ddisp
       3 001734 000000                           halt
     582                                2$:
     583 001736 012704  125252                   mov #125252,r4
     584 001742 020427  125252                   cmp r4,#125252
     585 001746 001404                           beq 3$
     586                                         error
       1 000033                         ..n      = ..n + 1
       2 001750 012737  000033  177570           mov #..n,@#ddisp
       3 001756 000000                           halt
     587                                3$:
     588 001760 012704  052525                   mov #52525,r4
     589 001764 020427  052525                   cmp r4,#52525
     590 001770 001404                           beq 4$
     591                                         error
       1 000034                         ..n      = ..n + 1
       2 001772 012737  000034  177570           mov #..n,@#ddisp
       3 002000 000000                           halt
     592                                4$:
     593                                ;
     594                                ; tst14
     595                                ;
     596                                tst14:
     597 002002 012705  177777                   mov #177777,r5
     598 002006 020527  177777                   cmp r5,#177777
     599 002012 001404                           beq 1$
     600                                         error
       1 000035                         ..n      = ..n + 1
       2 002014 012737  000035  177570           mov #..n,@#ddisp
       3 002022 000000                           halt
     601                                1$:
     602 002024 005005                           clr r5
     603 002026 020527  000000                   cmp r5,#0
     604 002032 001404                           beq 2$
     605                                         error
       1 000036                         ..n      = ..n + 1
       2 002034 012737  000036  177570           mov #..n,@#ddisp
       3 002042 000000                           halt
     606                                2$:
     607 002044 012705  125252                   mov #125252,r5
     608 002050 020527  125252                   cmp r5,#125252
     609 002054 001404                           beq 3$
     610                                         error
       1 000037                         ..n      = ..n + 1
       2 002056 012737  000037  177570           mov #..n,@#ddisp
       3 002064 000000                           halt
     611                                3$:
     612 002066 012705  052525                   mov #52525,r5
     613 002072 020527  052525                   cmp r5,#52525
     614 002076 001404                           beq 4$
     615                                         error
       1 000040                         ..n      = ..n + 1
       2 002100 012737  000040  177570           mov #..n,@#ddisp
       3 002106 000000                           halt
     616                                4$:
     617                                ;
     618                                ; tst15
     619                                ;
     620                                tst15:
     621 002110 012706  177777                   mov #177777,r6
     622 002114 020627  177777                   cmp r6,#177777
     623 002120 001404                           beq 1$
     624                                         error
       1 000041                         ..n      = ..n + 1
       2 002122 012737  000041  177570           mov #..n,@#ddisp
       3 002130 000000                           halt
     625                                1$:
     626 002132 005006                           clr r6
     627 002134 020627  000000                   cmp r6,#0
     628 002140 001404                           beq 2$
     629                                         error
       1 000042                         ..n      = ..n + 1
       2 002142 012737  000042  177570           mov #..n,@#ddisp
       3 002150 000000                           halt
     630                                2$:
     631 002152 012706  125252                   mov #125252,r6
     632 002156 020627  125252                   cmp r6,#125252
     633 002162 001404                           beq 3$
     634                                         error
       1 000043                         ..n      = ..n + 1
       2 002164 012737  000043  177570           mov #..n,@#ddisp
       3 002172 000000                           halt
     635                                3$:
     636 002174 012706  052525                   mov #52525,r6
     637 002200 020627  052525                   cmp r6,#52525
     638 002204 001404                           beq 4$
     639                                         error
       1 000044                         ..n      = ..n + 1
       2 002206 012737  000044  177570           mov #..n,@#ddisp
       3 002214 000000                           halt
     640                                4$:
     641                                ;
     642                                ; tst16
     643                                ;
     644                                tst16:
     645 002216 012737  000377  177776           mov #377,@#177776
     646 002224 022737  000357  177776           cmp #357,@#177776
     647 002232 001404                           beq 1$
     648                                         error
       1 000045                         ..n      = ..n + 1
       2 002234 012737  000045  177570           mov #..n,@#ddisp
       3 002242 000000                           halt
     649                                1$:
     650 002244 005037  177776                   clr @#177776
     651 002250 022737  000000  177776           cmp #0,@#177776
     652 002256 001404                           beq 2$
     653                                         error
       1 000046                         ..n      = ..n + 1
       2 002260 012737  000046  177570           mov #..n,@#ddisp
       3 002266 000000                           halt
     654                                2$:
     655 002270 012737  000105  177776           mov #105,@#177776
     656 002276 022737  000105  177776           cmp #105,@#177776
     657 002304 001404                           beq 3$
     658                                         error
       1 000047                         ..n      = ..n + 1
       2 002306 012737  000047  177570           mov #..n,@#ddisp
       3 002314 000000                           halt
     659                                3$:
     660 002316 012737  000252  177776           mov #252,@#177776
     661 002324 022737  000252  177776           cmp #252,@#177776
     662 002332 001404                           beq 4$
     663                                         error
       1 000050                         ..n      = ..n + 1
       2 002334 012737  000050  177570           mov #..n,@#ddisp
       3 002342 000000                           halt
     664                                4$:
     665                                ;
     666                                ; tst17
     667                                ;
     668                                tst17:
     669 002344 005004                           clr r4
     670 002346 005104                           com r4
     671 002350 005004                           clr r4
     672 002352 001404                           beq 2$
     673                                1$:
     674                                         error
       1 000051                         ..n      = ..n + 1
       2 002354 012737  000051  177570           mov #..n,@#ddisp
       3 002362 000000                           halt
     675                                2$:
     676 002364 005104                           com r4
     677 002366 005204                           inc r4
     678 002370 001404                           beq 4$
     679                                3$:
     680                                         error
       1 000052                         ..n      = ..n + 1
       2 002372 012737  000052  177570           mov #..n,@#ddisp
       3 002400 000000                           halt
     681                                4$:
     682                                ;
     683                                ;
     684                                ;
     685                                tst20:
     686 002402 005004                           clr r4
     687 002404 005104                           com r4
     688 002406 105004                           clrb r4
     689 002410 001404                           beq 2$
     690                                1$:
     691                                         error
       1 000053                         ..n      = ..n + 1
       2 002412 012737  000053  177570           mov #..n,@#ddisp
       3 002420 000000                           halt
     692                                2$:
     693 002422 105304                           decb r4
     694 002424 100002                           bpl 3$
     695 002426 105104                           comb r4
     696 002430 001404                           beq 4$
     697                                3$:
     698                                         error
       1 000054                         ..n      = ..n + 1
       2 002432 012737  000054  177570           mov #..n,@#ddisp
       3 002440 000000                           halt
     699                                4$:
     700                                ;
     701                                ;
     702                                ;
     703                                tst21:
     704 002442 005004                           clr r4
     705 002444 005014                           clr (r4)
     706 002446 005114                           com (r4)
     707 002450 005014                           clr (r4)
     708 002452 001404                           beq 2$
     709                                1$:
     710                                         error
       1 000055                         ..n      = ..n + 1
       2 002454 012737  000055  177570           mov #..n,@#ddisp
       3 002462 000000                           halt
     711                                2$:
     712 002464 005114                           com (r4)
     713 002466 001403                           beq 3$
     714 002470 100002                           bpl 3$
     715 002472 005214                           inc (r4)
     716 002474 001404                           beq 4$
     717                                3$:
     718                                         error
       1 000056                         ..n      = ..n + 1
       2 002476 012737  000056  177570           mov #..n,@#ddisp
       3 002504 000000                           halt
     719                                4$:
     720                                ;
     721                                ;
     722                                ;
     723                                tst22:
     724 002506 005004                           clr r4
     725 002510 005014                           clr (r4)
     726 002512 005114                           com (r4)
     727 002514 105014                           clrb (r4)
     728 002516 105014                           clrb (r4)
     729 002520 001404                           beq 2$
     730                                1$:
     731                                         error
       1 000057                         ..n      = ..n + 1
       2 002522 012737  000057  177570           mov #..n,@#ddisp
       3 002530 000000                           halt
     732                                2$:
     733 002532 105214                           incb (r4)
     734 002534 100405                           bmi 3$
     735 002536 001404                           beq 3$
     736 002540 105114                           comb (r4)
     737 002542 105214                           incb (r4)
     738 002544 105214                           incb (r4)
     739 002546 001404                           beq 4$
     740                                3$:
     741                                         error
       1 000060                         ..n      = ..n + 1
       2 002550 012737  000060  177570           mov #..n,@#ddisp
       3 002556 000000                           halt
     742                                4$:
     743                                ;
     744                                ;
     745                                ;
     746                                tst23:
     747 002560 005004                           clr r4
     748 002562 005014                           clr (r4)
     749 002564 005114                           com (r4)
     750 002566 005204                           inc r4
     751 002570 105014                           clrb (r4)
     752 002572 001404                           beq 1$
     753                                         error
       1 000061                         ..n      = ..n + 1
       2 002574 012737  000061  177570           mov #..n,@#ddisp
       3 002602 000000                           halt
     754                                1$:
     755 002604 005304                           dec r4
     756 002606 005214                           inc (r4)
     757 002610 005204                           inc r4
     758 002612 105114                           comb (r4)
     759 002614 105214                           incb (r4)
     760 002616 100003                           bpl 2$
     761 002620 001402                           beq 2$
     762 002622 105214                           incb (r4)
     763 002624 001404                           beq 3$
     764                                2$:
     765                                         error
       1 000062                         ..n      = ..n + 1
       2 002626 012737  000062  177570           mov #..n,@#ddisp
       3 002634 000000                           halt
     766                                3$:
     767                                ;
     768                                ;
     769                                ;
     770                                tst24:
     771 002636 005004                           clr r4
     772 002640 105104                           comb r4
     773 002642 005204                           inc r4
     774 002644 005014                           clr (r4)
     775 002646 005114                           com (r4)
     776 002650 005024                           clr (r4)+
     777 002652 001404                           beq 1$
     778                                         error
       1 000063                         ..n      = ..n + 1
       2 002654 012737  000063  177570           mov #..n,@#ddisp
       3 002662 000000                           halt
     779                                1$:
     780 002664 005304                           dec r4
     781 002666 005304                           dec r4
     782 002670 005124                           com (r4)+
     783 002672 100004                           bpl 2$
     784 002674 005304                           dec r4
     785 002676 005304                           dec r4
     786 002700 005224                           inc (r4)+
     787 002702 001404                           beq 3$
     788                                2$:
     789                                         error
       1 000064                         ..n      = ..n + 1
       2 002704 012737  000064  177570           mov #..n,@#ddisp
       3 002712 000000                           halt
     790                                3$:
     791                                ;
     792                                ;
     793                                ;
     794                                tst25:
     795 002714 005004                           clr r4
     796 002716 105104                           comb r4
     797 002720 005204                           inc r4
     798 002722 005014                           clr (r4)
     799 002724 005114                           com (r4)
     800 002726 105024                           clrb (r4)+
     801 002730 001404                           beq 1$
     802                                         error
       1 000065                         ..n      = ..n + 1
       2 002732 012737  000065  177570           mov #..n,@#ddisp
       3 002740 000000                           halt
     803                                1$:
     804 002742 005304                           dec r4
     805 002744 105324                           decb (r4)+
     806 002746 100003                           bpl 2$
     807 002750 005304                           dec r4
     808 002752 105124                           comb (r4)+
     809 002754 001404                           beq 3$
     810                                2$:
     811                                         error
       1 000066                         ..n      = ..n + 1
       2 002756 012737  000066  177570           mov #..n,@#ddisp
       3 002764 000000                           halt
     812                                3$:
     813                                ;
     814                                ;
     815                                ;
     816                                tst26:
     817 002766 005004                           clr r4
     818 002770 105104                           comb r4
     819 002772 005204                           inc r4
     820 002774 005014                           clr (r4)
     821 002776 005114                           com (r4)
     822 003000 005214                           inc (r4)
     823 003002 105024                           clrb (r4)+
     824 003004 001404                           beq 1$
     825                                         error
       1 000067                         ..n      = ..n + 1
       2 003006 012737  000067  177570           mov #..n,@#ddisp
       3 003014 000000                           halt
     826                                1$:
     827 003016 005304                           dec r4
     828 003020 005304                           dec r4
     829 003022 105224                           incb (r4)+
     830 003024 105124                           comb (r4)+
     831 003026 100003                           bpl 2$
     832 003030 005304                           dec r4
     833 003032 105224                           incb (r4)+
     834 003034 001404                           beq 3$
     835                                2$:
     836                                         error
       1 000070                         ..n      = ..n + 1
       2 003036 012737  000070  177570           mov #..n,@#ddisp
       3 003044 000000                           halt
     837                                3$:
     838                                ;
     839                                ;
     840                                ;
     841                                tst27:
     842 003046 005004                           clr r4
     843 003050 005014                           clr (r4)
     844 003052 105114                           comb (r4)
     845 003054 005214                           inc (r4)
     846 003056 005034                           clr @(r4)+
     847 003060 001404                           beq 1$
     848                                         error
       1 000071                         ..n      = ..n + 1
       2 003062 012737  000071  177570           mov #..n,@#ddisp
       3 003070 000000                           halt
     849                                1$:
     850 003072 005304                           dec r4
     851 003074 005304                           dec r4
     852 003076 005134                           com @(r4)+
     853 003100 100004                           bpl 2$
     854 003102 005304                           dec r4
     855 003104 005304                           dec r4
     856 003106 005234                           inc @(r4)+
     857 003110 001404                           beq 3$
     858                                2$:
     859                                         error
       1 000072                         ..n      = ..n + 1
       2 003112 012737  000072  177570           mov #..n,@#ddisp
       3 003120 000000                           halt
     860                                3$:
     861                                ;
     862                                ;
     863                                ;
     864                                tst30:
     865 003122 005004                           clr r4
     866 003124 005001                           clr r1
     867 003126 105101                           comb r1
     868 003130 005201                           inc r1
     869 003132 005011                           clr (r1)
     870 003134 005121                           com (r1)+
     871 003136 005011                           clr (r1)
     872 003140 105111                           comb (r1)
     873 003142 005014                           clr (r4)
     874 003144 105114                           comb (r4)
     875 003146 005214                           inc (r4)
     876 003150 105034                           clrb @(r4)+
     877 003152 001404                           beq 1$
     878                                         error
       1 000073                         ..n      = ..n + 1
       2 003154 012737  000073  177570           mov #..n,@#ddisp
       3 003162 000000                           halt
     879                                1$:
     880 003164 005304                           dec r4
     881 003166 005304                           dec r4
     882 003170 105134                           comb @(r4)+
     883 003172 005304                           dec r4
     884 003174 005304                           dec r4
     885 003176 105234                           incb @(r4)+
     886 003200 001404                           beq 3$
     887                                2$:
     888                                         error
       1 000074                         ..n      = ..n + 1
       2 003202 012737  000074  177570           mov #..n,@#ddisp
       3 003210 000000                           halt
     889                                3$:
     890 003212 005304                           dec r4
     891 003214 005304                           dec r4
     892 003216 005214                           inc (r4)
     893 003220 105234                           incb @(r4)+
     894 003222 001004                           bne 4$
     895 003224 005304                           dec r4
     896 003226 005304                           dec r4
     897 003230 105034                           clrb @(r4)+
     898 003232 001404                           beq 5$
     899                                4$:
     900                                         error
       1 000075                         ..n      = ..n + 1
       2 003234 012737  000075  177570           mov #..n,@#ddisp
       3 003242 000000                           halt
     901                                5$:
     902 003244 005304                           dec r4
     903 003246 005304                           dec r4
     904 003250 105134                           comb @(r4)+
     905 003252 005304                           dec r4
     906 003254 005304                           dec r4
     907 003256 105234                           incb @(r4)+
     908 003260 001404                           beq 7$
     909                                6$:
     910                                         error
       1 000076                         ..n      = ..n + 1
       2 003262 012737  000076  177570           mov #..n,@#ddisp
       3 003270 000000                           halt
     911                                7$:
     912                                ;
     913                                ;
     914                                ;
     915                                tst31:
     916 003272 005004                           clr r4
     917 003274 105104                           comb r4
     918 003276 005204                           inc r4
     919 003300 005014                           clr (r4)
     920 003302 005124                           com (r4)+
     921 003304 005014                           clr (r4)
     922 003306 005224                           inc (r4)+
     923 003310 005044                           clr -(r4)
     924 003312 001404                           beq 1$
     925                                         error
       1 000077                         ..n      = ..n + 1
       2 003314 012737  000077  177570           mov #..n,@#ddisp
       3 003322 000000                           halt
     926                                1$:
     927 003324 005344                           dec -(r4)
     928 003326 005114                           com (r4)
     929 003330 001405                           beq 2$
     930 003332 100404                           bmi 2$
     931 003334 005204                           inc r4
     932 003336 005204                           inc r4
     933 003340 005344                           dec -(r4)
     934 003342 001404                           beq 3$
     935                                2$:
     936                                         error
       1 000100                         ..n      = ..n + 1
       2 003344 012737  000100  177570           mov #..n,@#ddisp
       3 003352 000000                           halt
     937                                3$:
     938                                ;
     939                                ;
     940                                ;
     941                                tst32:
     942 003354 005004                           clr r4
     943 003356 105104                           comb r4
     944 003360 005204                           inc r4
     945 003362 005044                           clr -(r4)
     946 003364 105114                           comb (r4)
     947 003366 005224                           inc (r4)+
     948 003370 005014                           clr (r4)
     949 003372 005124                           com (r4)+
     950 003374 005204                           inc r4
     951 003376 105044                           clrb -(r4)
     952 003400 001404                           beq 2$
     953                                1$:
     954                                         error
       1 000101                         ..n      = ..n + 1
       2 003402 012737  000101  177570           mov #..n,@#ddisp
       3 003410 000000                           halt
     955                                2$:
     956 003412 005204                           inc r4
     957 003414 005204                           inc r4
     958 003416 105144                           comb -(r4)
     959 003420 005304                           dec r4
     960 003422 005304                           dec r4
     961 003424 105244                           incb -(r4)
     962 003426 001404                           beq 4$
     963                                3$:
     964                                         error
       1 000102                         ..n      = ..n + 1
       2 003430 012737  000102  177570           mov #..n,@#ddisp
       3 003436 000000                           halt
     965                                4$:
     966 003440 105344                           decb -(r4)
     967 003442 001404                           beq 6$
     968                                5$:
     969                                         error
       1 000103                         ..n      = ..n + 1
       2 003444 012737  000103  177570           mov #..n,@#ddisp
       3 003452 000000                           halt
     970                                6$:
     971                                ;
     972                                ;
     973                                ;
     974                                tst33:
     975 003454 005004                           clr r4
     976 003456 005014                           clr (r4)
     977 003460 105114                           comb (r4)
     978 003462 005224                           inc (r4)+
     979 003464 005054                           clr @-(r4)
     980 003466 001404                           beq 1$
     981                                         error
       1 000104                         ..n      = ..n + 1
       2 003470 012737  000104  177570           mov #..n,@#ddisp
       3 003476 000000                           halt
     982                                1$:
     983 003500 005204                           inc r4
     984 003502 005204                           inc r4
     985 003504 005154                           com @-(r4)
     986 003506 001407                           beq 2$
     987 003510 005204                           inc r4
     988 003512 005204                           inc r4
     989 003514 005354                           dec @-(r4)
     990 003516 001403                           beq 2$
     991 003520 005224                           inc (r4)+
     992 003522 105254                           incb @-(r4)
     993 003524 001404                           beq 3$
     994                                2$:
     995                                         error
       1 000105                         ..n      = ..n + 1
       2 003526 012737  000105  177570           mov #..n,@#ddisp
       3 003534 000000                           halt
     996                                3$:
     997                                ;
     998                                ;
     999                                ;
    1000                                tst34:
    1001 003536 005004                           clr r4
    1002 003540 105104                           comb r4
    1003 003542 005204                           inc r4
    1004 003544 005001                           clr r1
    1005 003546 105101                           comb r1
    1006 003550 005301                           dec r1
    1007 003552 005002                           clr r2
    1008 003554 005012                           clr (r2)
    1009 003556 005014                           clr (r4)
    1010 003560 005114                           com (r4)
    1011 003562 005011                           clr (r1)
    1012 003564 005454                           neg @-(r4)
    1013 003566 001404                           beq 2$
    1014                                1$:
    1015                                         error
       1 000106                         ..n      = ..n + 1
       2 003570 012737  000106  177570           mov #..n,@#ddisp
       3 003576 000000                           halt
    1016                                2$:
    1017 003600 005334                           dec @(r4)+
    1018 003602 005454                           neg @-(r4)
    1019 003604 001403                           beq 3$
    1020 003606 102402                           bvs 3$
    1021 003610 100401                           bmi 3$
    1022 003612 103404                           bcs 4$
    1023                                3$:
    1024                                         error
       1 000107                         ..n      = ..n + 1
       2 003614 012737  000107  177570           mov #..n,@#ddisp
       3 003622 000000                           halt
    1025                                4$:
    1026 003624 005334                           dec @(r4)+
    1027 003626 001404                           beq 6$:
    1028                                5$:
    1029                                         error
       1 000110                         ..n      = ..n + 1
       2 003630 012737  000110  177570           mov #..n,@#ddisp
       3 003636 000000                           halt
    1030                                6$:
    1031 003640 105212                           incb (r2)
    1032 003642 005454                           neg @-(r4)
    1033 003644 001403                           beq 7$
    1034 003646 102402                           bvs 7$
    1035 003650 103001                           bcc 7$
    1036 003652 100404                           bmi 8$
    1037                                7$:
    1038                                         error
       1 000111                         ..n      = ..n + 1
       2 003654 012737  000111  177570           mov #..n,@#ddisp
       3 003662 000000                           halt
    1039                                8$:
    1040 003664 105212                           incb (r2)
    1041 003666 001404                           beq 10$
    1042                                9$:
    1043                                         error
       1 000112                         ..n      = ..n + 1
       2 003670 012737  000112  177570           mov #..n,@#ddisp
       3 003676 000000                           halt
    1044                                10$:
    1045                                ;
    1046                                ;
    1047                                ;
    1048                                tst35:
    1049 003700 005004                           clr r4
    1050 003702 005204                           inc r4
    1051 003704 005204                           inc r4
    1052 003706 005001                           clr r1
    1053 003710 105101                           comb r1
    1054 003712 005201                           inc r1
    1055 003714 005011                           clr (r1)
    1056 003716 005121                           com (r1)+
    1057 003720 005011                           clr (r1)
    1058 003722 005211                           inc (r1)
    1059 003724 005002                           clr r2
    1060 003726 005012                           clr (r2)
    1061 003730 005064  000376                   clr 376(r4)
    1062 003734 001404                           beq 2$
    1063                                1$:
    1064                                         error
       1 000113                         ..n      = ..n + 1
       2 003736 012737  000113  177570           mov #..n,@#ddisp
       3 003744 000000                           halt
    1065                                2$:
    1066 003746 005364  000376                   dec 376(r4)
    1067 003752 005164  000400                   com 400(r4)
    1068 003756 001405                           beq 3$
    1069 003760 005264  000400                   inc 400(r4)
    1070 003764 005264  000400                   inc 400(r4)
    1071 003770 001404                           beq 4$
    1072                                3$:
    1073                                         error
       1 000114                         ..n      = ..n + 1
       2 003772 012737  000114  177570           mov #..n,@#ddisp
       3 004000 000000                           halt
    1074                                4$:
    1075 004002 005261  177776                   inc -2(r1)
    1076 004006 001404                           beq 6$
    1077                                5$:
    1078                                         error
       1 000115                         ..n      = ..n + 1
       2 004010 012737  000115  177570           mov #..n,@#ddisp
       3 004016 000000                           halt
    1079                                6$:
    1080                                ;
    1081                                ;
    1082                                ;
    1083                                tst36:
    1084 004020 005001                           clr r1
    1085 004022 005004                           clr r4
    1086 004024 105104                           comb r4
    1087 004026 005204                           inc r4
    1088 004030 005014                           clr (r4)
    1089 004032 005114                           com (r4)
    1090 004034 005044                           clr -(r4)
    1091 004036 005044                           clr -(r4)
    1092 004040 005224                           inc (r4)+
    1093 004042 005464  000002                   neg 2(r4)
    1094 004046 001403                           beq 1$
    1095 004050 102402                           bvs 1$
    1096 004052 100401                           bmi 1$
    1097 004054 103404                           bcs 2$
    1098                                1$:
    1099                                         error
       1 000116                         ..n      = ..n + 1
       2 004056 012737  000116  177570           mov #..n,@#ddisp
       3 004064 000000                           halt
    1100                                2$:
    1101 004066 005364  000002                   dec 2(r4)
    1102 004072 001404                           beq 4$
    1103                                3$:
    1104                                         error
       1 000117                         ..n      = ..n + 1
       2 004074 012737  000117  177570           mov #..n,@#ddisp
       3 004102 000000                           halt
    1105                                4$:
    1106 004104 005464  000000                   neg 0(r4)
    1107 004110 001404                           beq 5$
    1108                                         error
       1 000120                         ..n      = ..n + 1
       2 004112 012737  000120  177570           mov #..n,@#ddisp
       3 004120 000000                           halt
    1109                                5$:
    1110 004122 105461  000374                   negb 374(r1)
    1111 004126 102403                           bvs 6$
    1112 004130 001402                           beq 6$
    1113 004132 100001                           bpl 6$
    1114 004134 103404                           bcs 7$
    1115                                6$:
    1116                                         error
       1 000121                         ..n      = ..n + 1
       2 004136 012737  000121  177570           mov #..n,@#ddisp
       3 004144 000000                           halt
    1117                                7$:
    1118 004146 105261  000374                   incb 374(r1)
    1119 004152 001404                           beq 9$
    1120                                8$:
    1121                                         error
       1 000122                         ..n      = ..n + 1
       2 004154 012737  000122  177570           mov #..n,@#ddisp
       3 004162 000000                           halt
    1122                                9$:
    1123                                ;
    1124                                ;
    1125                                ;
    1126                                tst37:
    1127 004164 005001                           clr r1
    1128 004166 005004                           clr r4
    1129 004170 105104                           comb r4
    1130 004172 005204                           inc r4
    1131 004174 005011                           clr (r1)
    1132 004176 105111                           comb (r1)
    1133 004200 005211                           inc (r1)
    1134 004202 005211                           inc (r1)
    1135 004204 005211                           inc (r1)
    1136 004206 005014                           clr (r4)
    1137 004210 005064  000002                   clr 2(r4)
    1138 004214 005164  000002                   com 2(r4)
    1139 004220 005074  177400                   clr @-400(r4)
    1140 004224 001404                           beq 2$
    1141                                1$:
    1142                                         error
       1 000123                         ..n      = ..n + 1
       2 004226 012737  000123  177570           mov #..n,@#ddisp
       3 004234 000000                           halt
    1143                                2$:
    1144 004236 005171  000000                   com @0(r1)
    1145 004242 100404                           bmi 4$
    1146                                3$:
    1147                                         error
       1 000124                         ..n      = ..n + 1
       2 004244 012737  000124  177570           mov #..n,@#ddisp
       3 004252 000000                           halt
    1148                                4$:
    1149 004254 005104                           com r4
    1150 004256 005274  000401                   inc @401(r4)
    1151 004262 001404                           beq 6$
    1152                                5$:
    1153                                         error
       1 000125                         ..n      = ..n + 1
       2 004264 012737  000125  177570           mov #..n,@#ddisp
       3 004272 000000                           halt
    1154                                6$:
    1155                                ;
    1156                                ;
    1157                                ;
    1158                                tst40:
    1159 004274 005004                           clr r4
    1160 004276 005014                           clr (r4)
    1161 004300 005002                           clr r2
    1162 004302 105102                           comb r2
    1163 004304 005202                           inc r2
    1164 004306 005012                           clr (r2)
    1165 004310 005472  177400                   neg @-400(r2)
    1166 004314 103401                           bcs 1$
    1167 004316 001404                           beq 2$
    1168                                1$:
    1169                                         error
       1 000126                         ..n      = ..n + 1
       2 004320 012737  000126  177570           mov #..n,@#ddisp
       3 004326 000000                           halt
    1170                                2$:
    1171 004330 005314                           dec (r4)
    1172 004332 005474  000400                   neg @+400(r4)
    1173 004336 001403                           beq 3$
    1174 004340 102402                           bvs 3$
    1175 004342 100401                           bmi 3$
    1176 004344 103404                           bcs 4$
    1177                                3$:
    1178                                         error
       1 000127                         ..n      = ..n + 1
       2 004346 012737  000127  177570           mov #..n,@#ddisp
       3 004354 000000                           halt
    1179                                4$:
    1180                                ;
    1181                                ;
    1182                                ;
    1183                                tst41:
    1184 004356 005004                           clr r4
    1185 004360 105104                           comb r4
    1186 004362 005204                           inc r4
    1187 004364 005027                           clr (r7)+
    1188                                1$:
    1189 004366 177777                           .word -1
    1190 004370 001404                           beq 3$
    1191                                2$:
    1192                                         error
       1 000130                         ..n      = ..n + 1
       2 004372 012737  000130  177570           mov #..n,@#ddisp
       3 004400 000000                           halt
    1193                                3$:
    1194                                ;
    1195                                ;
    1196                                ;
    1197                                tst42:
    1198 004402 005004                           clr r4
    1199 004404 000277                           scc
    1200 004406 000244                           clz
    1201 004410 005704                           tst r4
    1202 004412 103403                           bcs 1$
    1203 004414 102402                           bvs 1$
    1204 004416 100401                           bmi 1$
    1205 004420 001404                           beq 2$
    1206                                1$:
    1207                                         error
       1 000131                         ..n      = ..n + 1
       2 004422 012737  000131  177570           mov #..n,@#ddisp
       3 004430 000000                           halt
    1208                                2$:
    1209 004432 005304                           dec r4
    1210 004434 000277                           scc
    1211 004436 000250                           cln
    1212 004440 005704                           tst r4
    1213 004442 103403                           bcs 3$
    1214 004444 102402                           bvs 3$
    1215 004446 001401                           beq 3$
    1216 004450 100404                           bmi 4$
    1217                                3$:
    1218                                         error
       1 000132                         ..n      = ..n + 1
       2 004452 012737  000132  177570           mov #..n,@#ddisp
       3 004460 000000                           halt
    1219                                4$:
    1220                                ;
    1221                                ;
    1222                                ;
    1223                                tst43:
    1224 004462 005004                           clr r4
    1225 004464 105104                           comb r4
    1226 004466 000277                           scc
    1227 004470 000250                           cln
    1228 004472 105704                           tstb r4
    1229 004474 102403                           bvs 1$
    1230 004476 103402                           bcs 1$
    1231 004500 102401                           bvs 1$   ; ??
    1232 004502 100404                           bmi 2$
    1233                                1$:
    1234                                         error
       1 000133                         ..n      = ..n + 1
       2 004504 012737  000133  177570           mov #..n,@#ddisp
       3 004512 000000                           halt
    1235                                2$:
    1236 004514 005204                           inc r4
    1237 004516 105704                           tstb r4
    1238 004520 001404                           beq 4$
    1239                                3$:
    1240                                         error
       1 000134                         ..n      = ..n + 1
       2 004522 012737  000134  177570           mov #..n,@#ddisp
       3 004530 000000                           halt
    1241                                4$:
    1242                                ;
    1243                                ;
    1244                                ;
    1245                                tst44:
    1246 004532 005004                           clr r4
    1247 004534 005014                           clr (r4)
    1248 004536 000277                           scc
    1249 004540 000244                           clz
    1250 004542 005714                           tst (r4)
    1251 004544 103403                           bcs 1$
    1252 004546 102402                           bvs 1$
    1253 004550 100401                           bmi 1$
    1254 004552 001404                           beq 2$
    1255                                1$:
    1256                                         error
       1 000135                         ..n      = ..n + 1
       2 004554 012737  000135  177570           mov #..n,@#ddisp
       3 004562 000000                           halt
    1257                                2$:
    1258 004564 005214                           inc (r4)
    1259 004566 000277                           scc
    1260 004570 005714                           tst (r4)
    1261 004572 001403                           beq 3$
    1262 004574 102402                           bvs 3$
    1263 004576 103401                           bcs 3$
    1264 004600 100004                           bpl 4$
    1265                                3$:
    1266                                         error
       1 000136                         ..n      = ..n + 1
       2 004602 012737  000136  177570           mov #..n,@#ddisp
       3 004610 000000                           halt
    1267                                4$:
    1268                                ;
    1269                                ;
    1270                                ;
    1271                                tst45:
    1272 004612 005004                           clr r4
    1273 004614 005014                           clr (r4)
    1274 004616 105114                           comb (r4)
    1275 004620 005214                           inc (r4)
    1276 004622 000277                           scc
    1277 004624 000244                           clz
    1278 004626 105714                           tstb (r4)
    1279 004630 103403                           bcs 1$
    1280 004632 102402                           bvs 1$
    1281 004634 100401                           bmi 1$
    1282 004636 001404                           beq 2$
    1283                                1$:
    1284                                         error
       1 000137                         ..n      = ..n + 1
       2 004640 012737  000137  177570           mov #..n,@#ddisp
       3 004646 000000                           halt
    1285                                2$:
    1286 004650 005204                           inc r4
    1287 004652 000277                           scc
    1288 004654 105714                           tstb (r4)
    1289 004656 001403                           beq 3$
    1290 004660 100402                           bmi 3$
    1291 004662 102401                           bvs 3$
    1292 004664 103004                           bcc 4$
    1293                                3$:
    1294                                         error
       1 000140                         ..n      = ..n + 1
       2 004666 012737  000140  177570           mov #..n,@#ddisp
       3 004674 000000                           halt
    1295                                4$:
    1296                                ;
    1297                                ;
    1298                                ;
    1299                                tst46:
    1300 004676 005004                           clr r4
    1301 004700 005024                           clr (r4)+
    1302 004702 005014                           clr (r4)
    1303 004704 005114                           com (r4)
    1304 004706 005004                           clr r4
    1305 004710 000277                           scc
    1306 004712 000244                           clz
    1307 004714 005724                           tst (r4)+
    1308 004716 103403                           bcs 1$
    1309 004720 102402                           bvs 1$
    1310 004722 100401                           bmi 1$
    1311 004724 001404                           beq 2$
    1312                                1$:
    1313                                         error
       1 000141                         ..n      = ..n + 1
       2 004726 012737  000141  177570           mov #..n,@#ddisp
       3 004734 000000                           halt
    1314                                2$:
    1315 004736 005724                           tst (r4)+
    1316 004740 103403                           bcs 3$
    1317 004742 102402                           bvs 3$
    1318 004744 001401                           beq 3$
    1319 004746 100404                           bmi 4$
    1320                                3$:
    1321                                         error
       1 000142                         ..n      = ..n + 1
       2 004750 012737  000142  177570           mov #..n,@#ddisp
       3 004756 000000                           halt
    1322                                4$:
    1323                                ;
    1324                                ;
    1325                                ;
    1326                                tst47:
    1327 004760 005004                           clr r4
    1328 004762 005024                           clr (r4)+
    1329 004764 105144                           comb -(r4)
    1330 004766 005304                           dec r4
    1331 004770 000277                           scc
    1332 004772 000244                           clz
    1333 004774 105724                           tstb(r4)+
    1334 004776 102403                           bvs 1$
    1335 005000 103402                           bcs 1$
    1336 005002 100401                           bmi 1$
    1337 005004 001404                           beq 2$
    1338                                1$:
    1339                                         error
       1 000143                         ..n      = ..n + 1
       2 005006 012737  000143  177570           mov #..n,@#ddisp
       3 005014 000000                           halt
    1340                                2$:
    1341 005016 000277                           scc
    1342 005020 000250                           cln
    1343 005022 105724                           tstb (r4)+
    1344 005024 001403                           beq 3$
    1345 005026 103402                           bcs 3$
    1346 005030 102401                           bvs 3$
    1347 005032 100404                           bmi 4$
    1348                                3$:
    1349                                         error
       1 000144                         ..n      = ..n + 1
       2 005034 012737  000144  177570           mov #..n,@#ddisp
       3 005042 000000                           halt
    1350                                4$:
    1351                                ;
    1352                                ;
    1353                                ;
    1354                                tst50:
    1355 005044 005004                           clr r4
    1356 005046 005014                           clr (r4)
    1357 005050 105114                           comb (r4)
    1358 005052 005214                           inc (r4)
    1359 005054 005034                           clr @(r4)+
    1360 005056 005004                           clr r4
    1361 005060 000277                           scc
    1362 005062 000244                           clz
    1363 005064 005734                           tst @(r4)+
    1364 005066 103403                           bcs 1$
    1365 005070 102402                           bvs 1$
    1366 005072 100401                           bmi 1$
    1367 005074 001404                           beq 2$
    1368                                1$:
    1369                                         error
       1 000145                         ..n      = ..n + 1
       2 005076 012737  000145  177570           mov #..n,@#ddisp
       3 005104 000000                           halt
    1370                                2$:
    1371 005106 005304                           dec r4
    1372 005110 005304                           dec r4
    1373 005112 005334                           dec @(r4)+
    1374 005114 005004                           clr r4
    1375 005116 000277                           scc
    1376 005120 000250                           cln
    1377 005122 005734                           tst @(r4)+
    1378 005124 103403                           bcs 3$
    1379 005126 001402                           beq 3$
    1380 005130 102401                           bvs 3$
    1381 005132 100404                           bmi 4$
    1382                                3$:
    1383                                         error
       1 000146                         ..n      = ..n + 1
       2 005134 012737  000146  177570           mov #..n,@#ddisp
       3 005142 000000                           halt
    1384                                4$:
    1385                                ;
    1386                                ;
    1387                                ;
    1388                                tst51:
    1389 005144 005004                           clr r4
    1390 005146 005014                           clr (r4)
    1391 005150 105114                           comb (r4)
    1392 005152 005214                           inc (r4)
    1393 005154 005001                           clr r1
    1394 005156 105101                           comb r1
    1395 005160 005201                           inc r1
    1396 005162 005011                           clr (r1)
    1397 005164 000277                           scc
    1398 005166 005734                           tst @(r4)+
    1399 005170 103403                           bcs 1$
    1400 005172 102402                           bvs 1$
    1401 005174 100401                           bmi 1$
    1402 005176 001404                           beq 2$
    1403                                1$:
    1404                                         error
       1 000147                         ..n      = ..n + 1
       2 005200 012737  000147  177570           mov #..n,@#ddisp
       3 005206 000000                           halt
    1405                                2$:
    1406 005210 005304                           dec r4
    1407 005212 005304                           dec r4
    1408 005214 005704                           tst r4
    1409 005216 001404                           beq 4$
    1410                                3$:
    1411                                         error
       1 000150                         ..n      = ..n + 1
       2 005220 012737  000150  177570           mov #..n,@#ddisp
       3 005226 000000                           halt
    1412                                4$:
    1413                                ;
    1414                                ;
    1415                                ;
    1416                                tst52:
    1417 005230 005004                           clr r4
    1418 005232 005014                           clr (r4)
    1419 005234 105114                           comb (r4)
    1420 005236 005214                           inc (r4)
    1421 005240 005214                           inc (r4)
    1422 005242 005001                           clr r1
    1423 005244 105101                           comb r1
    1424 005246 005201                           inc r1
    1425 005250 005011                           clr (r1)
    1426 005252 005111                           com (r1)
    1427 005254 105011                           clrb (r1)
    1428 005256 105734                           tstb @(r4)+
    1429 005260 001403                           beq 1$
    1430 005262 103402                           bcs 1$
    1431 005264 102401                           bvs 1$
    1432 005266 100404                           bmi 2$
    1433                                1$:
    1434                                         error
       1 000151                         ..n      = ..n + 1
       2 005270 012737  000151  177570           mov #..n,@#ddisp
       3 005276 000000                           halt
    1435                                2$:
    1436 005300 005304                           dec r4
    1437 005302 005304                           dec r4
    1438 005304 001404                           beq 4$
    1439                                3$:
    1440                                         error
       1 000152                         ..n      = ..n + 1
       2 005306 012737  000152  177570           mov #..n,@#ddisp
       3 005314 000000                           halt
    1441                                4$:
    1442                                ;
    1443                                ;
    1444                                ;
    1445                                tst53:
    1446 005316 005004                           clr r4
    1447 005320 005014                           clr (r4)
    1448 005322 005204                           inc r4
    1449 005324 005204                           inc r4
    1450 005326 000277                           scc
    1451 005330 000244                           clz
    1452 005332 005744                           tst -(r4)
    1453 005334 103403                           bcs 1$
    1454 005336 102402                           bvs 1$
    1455 005340 100401                           bmi 1$
    1456 005342 001404                           beq 2$
    1457                                1$:
    1458                                         error
       1 000153                         ..n      = ..n + 1
       2 005344 012737  000153  177570           mov #..n,@#ddisp
       3 005352 000000                           halt
    1459                                2$:
    1460 005354 005704                           tst r4
    1461 005356 001404                           beq 4$
    1462                                3$:
    1463                                         error
       1 000154                         ..n      = ..n + 1
       2 005360 012737  000154  177570           mov #..n,@#ddisp
       3 005366 000000                           halt
    1464                                4$:
    1465                                ;
    1466                                ;
    1467                                ;
    1468                                tst54:
    1469 005370 005004                           clr r4
    1470 005372 005014                           clr (r4)
    1471 005374 005114                           com (r4)
    1472 005376 105114                           comb (r4)
    1473 005400 000277                           scc
    1474 005402 005204                           inc r4
    1475 005404 005204                           inc r4
    1476 005406 105744                           tstb -(r4)
    1477 005410 001403                           beq 1$
    1478 005412 103402                           bcs 1$
    1479 005414 102401                           bvs 1$
    1480 005416 100404                           bmi 2$
    1481                                1$:
    1482                                         error
       1 000155                         ..n      = ..n + 1
       2 005420 012737  000155  177570           mov #..n,@#ddisp
       3 005426 000000                           halt
    1483                                2$:
    1484 005430 105744                           tstb -(r4)
    1485 005432 001404                           beq 4$
    1486                                3$:
    1487                                         error
       1 000156                         ..n      = ..n + 1
       2 005434 012737  000156  177570           mov #..n,@#ddisp
       3 005442 000000                           halt
    1488                                4$:
    1489                                ;
    1490                                ;
    1491                                ;
    1492                                tst55:
    1493 005444 005004                           clr r4
    1494 005446 005024                           clr (r4)+
    1495 005450 000277                           scc
    1496 005452 000244                           clz
    1497 005454 005754                           tst @-(r4)
    1498 005456 103403                           bcs 1$
    1499 005460 102402                           bvs 1$
    1500 005462 100401                           bmi 1$
    1501 005464 001404                           beq 2$
    1502                                1$:
    1503                                         error
       1 000157                         ..n      = ..n + 1
       2 005466 012737  000157  177570           mov #..n,@#ddisp
       3 005474 000000                           halt
    1504                                2$:
    1505 005476 005704                           tst r4
    1506 005500 001404                           beq 4$
    1507                                3$:
    1508                                         error
       1 000160                         ..n      = ..n + 1
       2 005502 012737  000160  177570           mov #..n,@#ddisp
       3 005510 000000                           halt
    1509                                4$:
    1510                                ;
    1511                                ;
    1512                                ;
    1513                                tst56:
    1514 005512 005004                           clr r4
    1515 005514 005014                           clr (r4)
    1516 005516 105114                           comb (r4)
    1517 005520 005214                           inc (r4)
    1518 005522 005034                           clr @(r4)+
    1519 005524 005154                           com @-(r4)
    1520 005526 105134                           comb @(r4)+
    1521 005530 105754                           tstb @-(r4)
    1522 005532 103403                           bcs 1$
    1523 005534 100402                           bmi 1$
    1524 005536 102401                           bvs 1$
    1525 005540 001404                           beq 2$
    1526                                1$:
    1527                                         error
       1 000161                         ..n      = ..n + 1
       2 005542 012737  000161  177570           mov #..n,@#ddisp
       3 005550 000000                           halt
    1528                                2$:
    1529 005552 005224                           inc (r4)+
    1530 005554 105754                           tstb @-(r4)
    1531 005556 100404                           bmi 4$
    1532                                3$:
    1533                                         error
       1 000162                         ..n      = ..n + 1
       2 005560 012737  000162  177570           mov #..n,@#ddisp
       3 005566 000000                           halt
    1534                                4$:
    1535                                ;
    1536                                ;
    1537                                ;
    1538                                tst57:
    1539 005570 005004                           clr r4
    1540 005572 005014                           clr (r4)
    1541 005574 105104                           comb r4
    1542 005576 005204                           inc r4
    1543 005600 005014                           clr (r4)
    1544 005602 005114                           com (r4)
    1545 005604 005764  177400                   tst -400(r4)
    1546 005610 103403                           bcs 1$
    1547 005612 102402                           bvs 1$
    1548 005614 100401                           bmi 1$
    1549 005616 001404                           beq 2$
    1550                                1$:
    1551                                         error
       1 000163                         ..n      = ..n + 1
       2 005620 012737  000163  177570           mov #..n,@#ddisp
       3 005626 000000                           halt
    1552                                2$:
    1553 005630 005004                           clr r4
    1554 005632 005764  000400                   tst 400(r4)
    1555 005636 001401                           beq 3$
    1556 005640 100404                           bmi 4$
    1557                                3$:
    1558                                         error
       1 000164                         ..n      = ..n + 1
       2 005642 012737  000164  177570           mov #..n,@#ddisp
       3 005650 000000                           halt
    1559                                4$:
    1560                                ;
    1561                                ;
    1562                                ;
    1563                                tst60:
    1564 005652 005004                           clr r4
    1565 005654 005014                           clr (r4)
    1566 005656 005124                           com (r4)+
    1567 005660 005014                           clr (r4)
    1568 005662 005002                           clr r2
    1569 005664 005004                           clr r4
    1570 005666 105104                           comb r4
    1571 005670 005204                           inc r4
    1572 005672 005014                           clr (r4)
    1573 005674 005774  177402                   tst @-376(r4)
    1574 005700 103403                           bcs 1$
    1575 005702 102402                           bvs 1$
    1576 005704 001401                           beq 1$
    1577 005706 100404                           bmi 2$
    1578                                1$:
    1579                                         error
       1 000165                         ..n      = ..n + 1
       2 005710 012737  000165  177570           mov #..n,@#ddisp
       3 005716 000000                           halt
    1580                                2$:
    1581 005720 005222                           inc (r2)+
    1582 005722 005774  177402                   tst @-376(r4)
    1583 005726 100401                           bmi 3$
    1584 005730 001404                           beq 4$
    1585                                3$:
    1586                                         error
       1 000166                         ..n      = ..n + 1
       2 005732 012737  000166  177570           mov #..n,@#ddisp
       3 005740 000000                           halt
    1587                                4$:
    1588                                ;
    1589                                ;
    1590                                ;
    1591                                tst61:
    1592 005742 005004                           clr r4
    1593 005744 005001                           clr r1
    1594 005746 005101                           com r1
    1595 005750 010104                           mov r1,r4
    1596 005752 001402                           beq 1$
    1597 005754 102401                           bvs 1$
    1598 005756 100404                           bmi 2$
    1599                                1$:
    1600                                         error
       1 000167                         ..n      = ..n + 1
       2 005760 012737  000167  177570           mov #..n,@#ddisp
       3 005766 000000                           halt
    1601                                2$:
    1602 005770 005204                           inc r4
    1603 005772 001372                           bne 1$
    1604                                ;
    1605                                ;
    1606                                ;
    1607                                tst62:
    1608 005774 005004                           clr r4
    1609 005776 005001                           clr r1
    1610 006000 005101                           com r1
    1611 006002 060104                           add r1,r4
    1612 006004 001403                           beq 1$
    1613 006006 103402                           bcs 1$
    1614 006010 102401                           bvs 1$
    1615 006012 100404                           bmi 2$
    1616                                1$:
    1617                                         error
       1 000170                         ..n      = ..n + 1
       2 006014 012737  000170  177570           mov #..n,@#ddisp
       3 006022 000000                           halt
    1618                                2$:
    1619 006024 005204                           inc r4
    1620 006026 001404                           beq 4$
    1621                                3$:
    1622                                         error
       1 000171                         ..n      = ..n + 1
       2 006030 012737  000171  177570           mov #..n,@#ddisp
       3 006036 000000                           halt
    1623                                4$:
    1624                                ;
    1625                                ;
    1626                                ;
    1627                                tst63:
    1628 006040 005004                           clr r4
    1629 006042 005001                           clr r1
    1630 006044 005201                           inc r1
    1631 006046 160104                           sub r1,r4
    1632 006050 102403                           bvs 1$
    1633 006052 103002                           bcc 1$
    1634 006054 001401                           beq 1$
    1635 006056 100404                           bmi 2$
    1636                                1$:
    1637                                         error
       1 000172                         ..n      = ..n + 1
       2 006060 012737  000172  177570           mov #..n,@#ddisp
       3 006066 000000                           halt
    1638                                2$:
    1639 006070 005101                           com r1
    1640 006072 005201                           inc r1
    1641 006074 160104                           sub r1,r4
    1642 006076 001404                           beq 4$
    1643                                3$:
    1644                                         error
       1 000173                         ..n      = ..n + 1
       2 006100 012737  000173  177570           mov #..n,@#ddisp
       3 006106 000000                           halt
    1645                                4$:
    1646                                ;
    1647                                ;
    1648                                ;
    1649                                tst64:
    1650 006110 000257                           ccc
    1651 006112 012704  125252                   mov #125252,r4
    1652 006116 001401                           beq 1$
    1653 006120 100404                           bmi 2$
    1654                                1$:
    1655                                         error
       1 000174                         ..n      = ..n + 1
       2 006122 012737  000174  177570           mov #..n,@#ddisp
       3 006130 000000                           halt
    1656                                2$:
    1657 006132 012701  052525                   mov #052525,r1
    1658 006136 100401                           bmi 3$
    1659 006140 001004                           bne 4$
    1660                                3$:
    1661                                         error
       1 000175                         ..n      = ..n + 1
       2 006142 012737  000175  177570           mov #..n,@#ddisp
       3 006150 000000                           halt
    1662                                4$:
    1663 006152 060104                           add r1,r4
    1664 006154 100404                           bmi 6$
    1665                                5$:
    1666                                         error
       1 000176                         ..n      = ..n + 1
       2 006156 012737  000176  177570           mov #..n,@#ddisp
       3 006164 000000                           halt
    1667                                6$:
    1668 006166 005204                           inc r4
    1669 006170 001372                           bne 5$
    1670                                ;
    1671                                ;
    1672                                ;
    1673                                tst65:
    1674 006172 005004                           clr r4
    1675 006174 005104                           com r4
    1676 006176 012701  125252                   mov #125252,r1
    1677 006202 012702  052525                   mov #052525,r2
    1678 006206 000261                           sec
    1679 006210 040104                           bic r1,r4
    1680 006212 103003                           bcc 1$
    1681 006214 102402                           bvs 1$
    1682 006216 001401                           beq 1$
    1683 006220 100004                           bpl 2$
    1684                                1$:
    1685                                         error
       1 000177                         ..n      = ..n + 1
       2 006222 012737  000177  177570           mov #..n,@#ddisp
       3 006230 000000                           halt
    1686                                2$:
    1687 006232 020402                           cmp r4,r2
    1688 006234 001404                           beq 4$
    1689                                3$:
    1690                                         error
       1 000200                         ..n      = ..n + 1
       2 006236 012737  000200  177570           mov #..n,@#ddisp
       3 006244 000000                           halt
    1691                                4$:
    1692 006246 005301                           dec r1
    1693 006250 050201                           bis r2,r1
    1694 006252 100404                           bmi 6$
    1695                                5$:
    1696                                         error
       1 000201                         ..n      = ..n + 1
       2 006254 012737  000201  177570           mov #..n,@#ddisp
       3 006262 000000                           halt
    1697                                6$:
    1698 006264 005201                           inc r1
    1699 006266 005201                           inc r1
    1700 006270 005201                           inc r1
    1701 006272 001370                           bne 5$
    1702                                ;
    1703                                ;
    1704                                ;
    1705                                tst66:
    1706 006274 012701  125252                   mov #125252,r1
    1707 006300 012704  100000                   mov #100000,r4
    1708 006304 012702  052525                   mov #052525,r2
    1709 006310 030401                           bit r4,r1
    1710 006312 001401                           beq 1$
    1711 006314 100404                           bmi 2$
    1712                                1$:
    1713                                         error
       1 000202                         ..n      = ..n + 1
       2 006316 012737  000202  177570           mov #..n,@#ddisp
       3 006324 000000                           halt
    1714                                2$:
    1715 006326 020401                           cmp r4,r1
    1716 006330 001402                           beq 3$
    1717 006332 103001                           bcc 3$
    1718 006334 100404                           bmi 4$
    1719                                3$:
    1720                                         error
       1 000203                         ..n      = ..n + 1
       2 006336 012737  000203  177570           mov #..n,@#ddisp
       3 006344 000000                           halt
    1721                                4$:
    1722 006346 020104                           cmp r1,r4
    1723 006350 001403                           beq 5$
    1724 006352 103402                           bcs 5$
    1725 006354 102401                           bvs 5$
    1726 006356 100004                           bpl 6$
    1727                                5$:
    1728                                         error
       1 000204                         ..n      = ..n + 1
       2 006360 012737  000204  177570           mov #..n,@#ddisp
       3 006366 000000                           halt
    1729                                6$:
    1730 006370 005004                           clr r4
    1731 006372 005204                           inc r4
    1732 006374 000277                           scc
    1733 006376 030401                           bit r4,r1
    1734 006400 001404                           beq 8$
    1735                                7$:
    1736                                         error
       1 000205                         ..n      = ..n + 1
       2 006402 012737  000205  177570           mov #..n,@#ddisp
       3 006410 000000                           halt
    1737                                8$:
    1738                                ;
    1739                                ;
    1740                                ;
    1741                                tst67:
    1742 006412 012704  000400                   mov #400,r4
    1743 006416 012701  000402                   mov #402,r1
    1744 006422 005014                           clr (r4)
    1745 006424 005114                           com (r4)
    1746 006426 005011                           clr (r1)
    1747 006430 105111                           comb (r1)
    1748 006432 005002                           clr r2
    1749 006434 012703  000405                   mov #405,r3
    1750 006440 000277                           scc
    1751 006442 011412                           mov (r4),(r2)
    1752 006444 001403                           beq 1$
    1753 006446 102402                           bvs 1$
    1754 006450 103001                           bcc 1$
    1755 006452 100404                           bmi 2$
    1756                                1$:
    1757                                         error
       1 000206                         ..n      = ..n + 1
       2 006454 012737  000206  177570           mov #..n,@#ddisp
       3 006462 000000                           halt
    1758                                2$:
    1759 006464 005212                           inc (r2)
    1760 006466 001004                           bne 3$
    1761 006470 000257                           ccc
    1762 006472 111113                           movb (r1),(r3)
    1763 006474 001401                           beq 3$
    1764 006476 100404                           bmi 4$
    1765                                3$:
    1766                                         error
       1 000207                         ..n      = ..n + 1
       2 006500 012737  000207  177570           mov #..n,@#ddisp
       3 006506 000000                           halt
    1767                                4$:
    1768 006510 105213                           incb (r3)
    1769 006512 001372                           bne 3$
    1770 006514 005002                           clr r2
    1771 006516 111102                           movb (r1),r2
    1772 006520 100005                           bpl 5$
    1773 006522 102404                           bvs 5$
    1774 006524 103403                           bcs 5$
    1775 006526 022702  177777                   cmp #177777,r2
    1776 006532 001404                           beq 6$
    1777                                5$:
    1778                                         error
       1 000210                         ..n      = ..n + 1
       2 006534 012737  000210  177570           mov #..n,@#ddisp
       3 006542 000000                           halt
    1779                                6$:
    1780                                ;
    1781                                ;
    1782                                ;
    1783                                tst70:
    1784 006544 012704  000400                   mov #400,r4
    1785 006550 012701  000402                   mov #402,r1
    1786 006554 012714  177753                   mov #-25,(r4)
    1787 006560 012711  000024                   mov #24,(r1)
    1788 006564 061114                           add (r1),(r4)
    1789 006566 001404                           beq 1$
    1790 006570 103403                           bcs 1$
    1791 006572 100002                           bpl 1$
    1792 006574 005214                           inc (r4)
    1793 006576 001404                           beq 2$
    1794                                1$:
    1795                                         error
       1 000211                         ..n      = ..n + 1
       2 006600 012737  000211  177570           mov #..n,@#ddisp
       3 006606 000000                           halt
    1796                                2$:
    1797                                ;
    1798                                ;
    1799                                ;
    1800                                tst71:
    1801 006610 012704  000400                   mov #400,r4
    1802 006614 012701  000404                   mov #404,r1
    1803 006620 012714  000003                   mov #3,(r4)
    1804 006624 012711  000006                   mov #6,(r1)
    1805 006630 000277                           scc
    1806 006632 161411                           sub (r4),(r1)
    1807 006634 001402                           beq 1$
    1808 006636 100401                           bmi 1$
    1809 006640 103004                           bcc 2$
    1810                                1$:
    1811                                         error
       1 000212                         ..n      = ..n + 1
       2 006642 012737  000212  177570           mov #..n,@#ddisp
       3 006650 000000                           halt
    1812                                2$:
    1813 006652 161411                           sub (r4),(r1)
    1814 006654 001372                           bne 1$
    1815                                ;
    1816                                ;
    1817                                ;
    1818                                tst72:
    1819 006656 012704  000400                   mov #400,r4
    1820 006662 012701  000402                   mov #402,r1
    1821 006666 012714  052525                   mov #052525,(r4)
    1822 006672 012711  125252                   mov #125252,(r1)
    1823 006676 051411                           bis (r4),(r1)
    1824 006700 001401                           beq 1$
    1825 006702 100404                           bmi 2$
    1826                                1$:
    1827                                         error
       1 000213                         ..n      = ..n + 1
       2 006704 012737  000213  177570           mov #..n,@#ddisp
       3 006712 000000                           halt
    1828                                2$:
    1829 006714 005211                           inc (r1)
    1830 006716 001404                           beq 4$
    1831                                3$:
    1832                                         error
       1 000214                         ..n      = ..n + 1
       2 006720 012737  000214  177570           mov #..n,@#ddisp
       3 006726 000000                           halt
    1833                                4$:
    1834 006730 005311                           dec (r1)
    1835 006732 041411                           bic (r4),(r1)
    1836 006734 001401                           beq 5$
    1837 006736 100404                           bmi 6$
    1838                                5$:
    1839                                         error
       1 000215                         ..n      = ..n + 1
       2 006740 012737  000215  177570           mov #..n,@#ddisp
       3 006746 000000                           halt
    1840                                6$:
    1841 006750 005111                           com (r1)
    1842 006752 041114                           bic (r1),(r4)
    1843 006754 001404                           beq 8$
    1844                                7$:
    1845                                         error
       1 000216                         ..n      = ..n + 1
       2 006756 012737  000216  177570           mov #..n,@#ddisp
       3 006764 000000                           halt
    1846                                8$:
    1847                                ;
    1848                                ;
    1849                                ;
    1850                                tst73:
    1851 006766 012704  000400                   mov #400,r4
    1852 006772 012714  052525                   mov #052525,(r4)
    1853 006776 012701  000402                   mov #402,r1
    1854 007002 012711  125252                   mov #125252,(r1)
    1855 007006 000241                           clc
    1856 007010 031411                           bit (r4),(r1)
    1857 007012 103401                           bcs 1$
    1858 007014 001404                           beq 2$
    1859                                1$:
    1860                                         error
       1 000217                         ..n      = ..n + 1
       2 007016 012737  000217  177570           mov #..n,@#ddisp
       3 007024 000000                           halt
    1861                                2$:
    1862 007026 021411                           cmp (r4),(r1)
    1863 007030 001403                           beq 3$
    1864 007032 103002                           bcc 3$
    1865 007034 102001                           bvc 3$
    1866 007036 100404                           bmi 4$
    1867                                3$:
    1868                                         error
       1 000220                         ..n      = ..n + 1
       2 007040 012737  000220  177570           mov #..n,@#ddisp
       3 007046 000000                           halt
    1869                                4$:
    1870 007050 005014                           clr (r4)
    1871 007052 005214                           inc (r4)
    1872 007054 031114                           bit (r1),(r4)
    1873 007056 001404                           beq 6$
    1874                                5$:
    1875                                         error
       1 000221                         ..n      = ..n + 1
       2 007060 012737  000221  177570           mov #..n,@#ddisp
       3 007066 000000                           halt
    1876                                6$:
    1877                                ;
    1878                                ;
    1879                                ;
    1880                                tst74:
    1881 007070 012704  000400                   mov #400,r4
    1882 007074 012701  000402                   mov #402,r1
    1883 007100 012714  000005                   mov #5,(r4)
    1884 007104 005021                           clr (r1)+
    1885 007106 005011                           clr (r1)
    1886 007110 005111                           com (r1)
    1887 007112 005741                           tst -(r1)
    1888 007114 000277                           scc
    1889 007116 012124                           mov (r1)+,(r4)+
    1890 007120 100403                           bmi 1$
    1891 007122 103002                           bcc 1$
    1892 007124 102401                           bvs 1$
    1893 007126 001404                           beq 2$
    1894                                1$:
    1895                                         error
       1 000222                         ..n      = ..n + 1
       2 007130 012737  000222  177570           mov #..n,@#ddisp
       3 007136 000000                           halt
    1896                                2$:
    1897 007140 005244                           inc -(r4)
    1898 007142 061411                           add (r4),(r1)
    1899 007144 001404                           beq 4$
    1900                                3$:
    1901                                         error
       1 000223                         ..n      = ..n + 1
       2 007146 012737  000223  177570           mov #..n,@#ddisp
       3 007154 000000                           halt
    1902                                4$:
    1903                                ;
    1904                                ;
    1905                                ;
    1906                                tst75:
    1907 007156 012704  000400                   mov #400,r4
    1908 007162 012701  000402                   mov #402,r1
    1909 007166 012714  177760                   mov #177760,(r4)
    1910 007172 012711  177750                   mov #177750,(r1)
    1911 007176 162421                           sub (r4)+,(r1)+
    1912 007200 001403                           beq 1$
    1913 007202 102402                           bvs 1$
    1914 007204 103001                           bcc 1$
    1915 007206 100404                           bmi 2$
    1916                                1$:
    1917                                         error
       1 000224                         ..n      = ..n + 1
       2 007210 012737  000224  177570           mov #..n,@#ddisp
       3 007216 000000                           halt
    1918                                2$:
    1919 007220 005241                           inc -(r1)
    1920 007222 162721  177771                   sub #177771,(r1)+
    1921 007226 100401                           bmi 3$
    1922 007230 001404                           beq 4$
    1923                                3$:
    1924                                         error
       1 000225                         ..n      = ..n + 1
       2 007232 012737  000225  177570           mov #..n,@#ddisp
       3 007240 000000                           halt
    1925                                4$:
    1926                                ;
    1927                                ;
    1928                                ;
    1929                                tst76:
    1930 007242 012704  000400                   mov #400,r4
    1931 007246 012701  000402                   mov #402,r1
    1932 007252 012702  000404                   mov #404,r2
    1933 007256 012714  141401                   mov #141401,(r4)
    1934 007262 012711  177405                   mov #177405,(r1)
    1935 007266 012722  000070                   mov #70,(r2)+
    1936 007272 012722  177777                   mov #-1,(r2)+
    1937 007276 042421                           bic (r4)+,(r1)+
    1938 007300 001401                           beq 1$
    1939 007302 100004                           bpl 2$
    1940                                1$:
    1941                                         error
       1 000226                         ..n      = ..n + 1
       2 007304 012737  000226  177570           mov #..n,@#ddisp
       3 007312 000000                           halt
    1942                                2$:
    1943 007314 052421                           bis (r4)+,(r1)+
    1944 007316 142421                           bicb (r4)+,(r1)+
    1945 007320 005301                           dec r1
    1946 007322 152421                           bisb (r4)+,(r1)+
    1947 007324 100404                           bmi 4$
    1948                                3$:
    1949                                         error
       1 000227                         ..n      = ..n + 1
       2 007326 012737  000227  177570           mov #..n,@#ddisp
       3 007334 000000                           halt
    1950                                4$:
    1951 007336 005214                           inc (r4)
    1952 007340 001404                           beq 6$
    1953                                5$:
    1954                                         error
       1 000230                         ..n      = ..n + 1
       2 007342 012737  000230  177570           mov #..n,@#ddisp
       3 007350 000000                           halt
    1955                                6$:
    1956                                ;
    1957                                ;
    1958                                ;
    1959                                tst77:
    1960 007352 012704  000400                   mov #400,r4
    1961 007356 012701  000402                   mov #402,r1
    1962 007362 012714  125252                   mov #125252,(r4)
    1963 007366 012721  100001                   mov #100001,(r1)+
    1964 007372 012711  100002                   mov #100002,(r1)
    1965 007376 005741                           tst -(r1)
    1966 007400 132421                           bitb (r4)+,(r1)+
    1967 007402 100401                           bmi 1$
    1968 007404 001404                           beq 2$
    1969                                1$:
    1970                                         error
       1 000231                         ..n      = ..n + 1
       2 007406 012737  000231  177570           mov #..n,@#ddisp
       3 007414 000000                           halt
    1971                                2$:
    1972 007416 132124                           bitb (r1)+,(r4)+
    1973 007420 001401                           beq 3$
    1974 007422 100404                           bmi 4$
    1975                                3$:
    1976                                         error
       1 000232                         ..n      = ..n + 1
       2 007424 012737  000232  177570           mov #..n,@#ddisp
       3 007432 000000                           halt
    1977                                4$:
    1978 007434 022421                           cmp (r4)+,(r1)+
    1979 007436 001402                           beq 5$
    1980 007440 103001                           bcc 5$
    1981 007442 100404                           bmi 6$
    1982                                5$:
    1983                                         error
       1 000233                         ..n      = ..n + 1
       2 007444 012737  000233  177570           mov #..n,@#ddisp
       3 007452 000000                           halt
    1984                                6$:
    1985 007454 005341                           dec -(r1)
    1986 007456 005741                           tst -(r1)
    1987 007460 022124                           cmp (r1)+,(r4)+
    1988 007462 001404                           beq 8$
    1989                                7$:
    1990                                         error
       1 000234                         ..n      = ..n + 1
       2 007464 012737  000234  177570           mov #..n,@#ddisp
       3 007472 000000                           halt
    1991                                8$:
    1992                                ;
    1993                                ;
    1994                                ;
    1995                                tst100:
    1996 007474 005004                           clr r4
    1997 007476 012701  000002                   mov #2,r1
    1998 007502 012702  000400                   mov #400,r2
    1999 007506 012714  000400                   mov #400,(r4)
    2000 007512 012711  000402                   mov #402,(r1)
    2001 007516 012722  000200                   mov #200,(r2)+
    2002 007522 012712  054320                   mov #54320,(r2)
    2003 007526 167431  000000                   sub @(r4),@(r1)+
    2004 007532 001402                           beq 1$
    2005 007534 103401                           bcs 1$
    2006 007536 100004                           bpl 2$
    2007                                1$:
    2008                                         error
       1 000235                         ..n      = ..n + 1
       2 007540 012737  000235  177570           mov #..n,@#ddisp
       3 007546 000000                           halt
    2009                                2$:
    2010 007550 022712  054120                   cmp #54120,(r2)
    2011 007554 001404                           beq 4$
    2012                                3$:
    2013                                         error
       1 000236                         ..n      = ..n + 1
       2 007556 012737  000236  177570           mov #..n,@#ddisp
       3 007564 000000                           halt
    2014                                4$:
    2015                                ;         clr 0 ; ??
    2016                                ;         clr 2 ; ??
    2017                                ;
    2018                                ;
    2019                                ;
    2020                                tst101:
    2021 007566 012704  000400                   mov #400,r4
    2022 007572 012701  000402                   mov #402,r1
    2023 007576 012721  125366                   mov #125366,(r1)+
    2024 007602 012724  173001                   mov #173001,(r4)+
    2025 007606 024441                           cmp -(r4),-(r1)
    2026 007610 103401                           bcs 1$
    2027 007612 100004                           bpl 2$
    2028                                1$:
    2029                                         error
       1 000237                         ..n      = ..n + 1
       2 007614 012737  000237  177570           mov #..n,@#ddisp
       3 007622 000000                           halt
    2030                                2$:
    2031 007624 005204                           inc r4
    2032 007626 005201                           inc r1
    2033 007630 000261                           sec
    2034 007632 134144                           bitb -(r1),-(r4)
    2035 007634 103001                           bcc 3$
    2036 007636 001404                           beq 4$
    2037                                3$:
    2038                                         error
       1 000240                         ..n      = ..n + 1
       2 007640 012737  000240  177570           mov #..n,@#ddisp
       3 007646 000000                           halt
    2039                                4$:
    2040 007650 005724                           tst (r4)+
    2041 007652 005201                           inc r1
    2042 007654 124441                           cmpb -(r4),-(r1)
    2043 007656 001404                           beq 6$
    2044                                5$:
    2045                                         error
       1 000241                         ..n      = ..n + 1
       2 007660 012737  000241  177570           mov #..n,@#ddisp
       3 007666 000000                           halt
    2046                                6$:
    2047                                ;
    2048                                ;
    2049                                ;
    2050                                tst102:
    2051 007670 012704  000400                   mov #400,r4
    2052 007674 012724  000001                   mov #1,(r4)+
    2053 007700 012724  177776                   mov #-2,(r4)+
    2054 007704 012724  000400                   mov #400,(r4)+
    2055 007710 012714  000402                   mov #402,(r4)
    2056 007714 012701  000410                   mov #410,r1
    2057 007720 065451                           add @-(r4),@-(r1)
    2058 007722 001402                           beq 1$
    2059 007724 100001                           bpl 1$
    2060 007726 103004                           bcc 2$
    2061                                1$:
    2062                                         error
       1 000242                         ..n      = ..n + 1
       2 007730 012737  000242  177570           mov #..n,@#ddisp
       3 007736 000000                           halt
    2063                                2$:
    2064 007740 062704  000004                   add #4,r4
    2065 007744 065154                           add @-(r1),@-(r4)
    2066 007746 001404                           beq 4$
    2067                                3$:
    2068                                         error
       1 000243                         ..n      = ..n + 1
       2 007750 012737  000243  177570           mov #..n,@#ddisp
       3 007756 000000                           halt
    2069                                4$:
    2070                                ;
    2071                                ;
    2072                                ;
    2073                                tst103:
    2074 007760 005004                           clr r4
    2075 007762 012701  000400                   mov #400,r1
    2076 007766 012721  125252                   mov #125252,(r1)+
    2077 007772 012721  000001                   mov #1,(r1)+
    2078 007776 012721  100000                   mov #100000,(r1)+
    2079 010002 036461  000400  177774           bit 400(r4),-4(r1)
    2080 010010 001404                           beq 2$
    2081                                1$:
    2082                                         error
       1 000244                         ..n      = ..n + 1
       2 010012 012737  000244  177570           mov #..n,@#ddisp
       3 010020 000000                           halt
    2083                                2$:
    2084 010022 136461  000405  177772           bitb 405(r4),-6(r1)
    2085 010030 001401                           beq 3$
    2086 010032 100404                           bmi 4$
    2087                                3$:
    2088                                         error
       1 000245                         ..n      = ..n + 1
       2 010034 012737  000245  177570           mov #..n,@#ddisp
       3 010042 000000                           halt
    2089                                4$:
    2090                                ;
    2091                                ;
    2092                                ;
    2093                                tst104:
    2094 010044 012704  000400                   mov #400,r4
    2095 010050 005001                           clr r1
    2096 010052 012724  177776                   mov #-2,(r4)+
    2097 010056 012724  177777                   mov #-1,(r4)+
    2098 010062 012724  000400                   mov #400,(r4)+
    2099 010066 012711  000402                   mov #402,(r1)
    2100 010072 005201                           inc r1
    2101 010074 167471  177372  000403           sub @-406(r4),@403(r1)
    2102 010102 001401                           beq 1$
    2103 010104 100404                           bmi 2$
    2104                                1$:
    2105                                         error
       1 000246                         ..n      = ..n + 1
       2 010106 012737  000246  177570           mov #..n,@#ddisp
       3 010114 000000                           halt
    2106                                2$:
    2107 010116 167174  177777  177776           sub @-1(r1),@-2(r4)
    2108 010124 001404                           beq 4$
    2109                                3$:
    2110                                         error
       1 000247                         ..n      = ..n + 1
       2 010126 012737  000247  177570           mov #..n,@#ddisp
       3 010134 000000                           halt
    2111                                4$:
    2112                                ;         clr 0 ; ??
    2113                                ;         clr 2 ; ??
    2114                                ;
    2115                                ;
    2116                                ;
    2117                                tst105:
    2118 010136 012704  125252                   mov #125252,r4
    2119 010142 000277                           scc
    2120 010144 006104                           rol r4
    2121 010146 102004                           bvc 1$
    2122 010150 103003                           bcc 1$
    2123 010152 022704  052525                   cmp #052525,r4
    2124 010156 001404                           beq 2$
    2125                                1$:
    2126                                         error
       1 000250                         ..n      = ..n + 1
       2 010160 012737  000250  177570           mov #..n,@#ddisp
       3 010166 000000                           halt
    2127                                2$:
    2128 010170 012704  125252                   mov #125252,r4
    2129 010174 000257                           ccc
    2130 010176 106104                           rolb r4
    2131 010200 103005                           bcc 3$
    2132 010202 102004                           bvc 3$
    2133 010204 100403                           bmi 3$
    2134 010206 022704  125124                   cmp #125124,r4
    2135 010212 001404                           beq 4$
    2136                                3$:
    2137                                         error
       1 000251                         ..n      = ..n + 1
       2 010214 012737  000251  177570           mov #..n,@#ddisp
       3 010222 000000                           halt
    2138                                4$:
    2139                                ;
    2140                                ;
    2141                                ;
    2142                                tst106:
    2143 010224 005004                           clr r4
    2144 010226 012714  052525                   mov #52525,(r4)
    2145 010232 006114                           rol (r4)
    2146 010234 100005                           bpl 1$
    2147 010236 102004                           bvc 1$
    2148 010240 103403                           bcs 1$
    2149 010242 021427  125252                   cmp (r4),#125252
    2150 010246 001404                           beq 2$
    2151                                1$:
    2152                                         error
       1 000252                         ..n      = ..n + 1
       2 010250 012737  000252  177570           mov #..n,@#ddisp
       3 010256 000000                           halt
    2153                                2$:
    2154 010260 012714  125252                   mov #125252,(r4)
    2155 010264 005204                           inc r4
    2156 010266 000277                           scc
    2157 010270 106114                           rolb (r4)
    2158 010272 100406                           bmi 3$
    2159 010274 103005                           bcc 3$
    2160 010276 102004                           bvc 3$
    2161 010300 005304                           dec r4
    2162 010302 022714  052652                   cmp #52652,(r4)
    2163 010306 001404                           beq 4$
    2164                                3$:
    2165                                         error
       1 000253                         ..n      = ..n + 1
       2 010310 012737  000253  177570           mov #..n,@#ddisp
       3 010316 000000                           halt
    2166                                4$:
    2167                                ;
    2168                                ;
    2169                                ;
    2170                                tst107:
    2171 010320 005004                           clr r4
    2172 010322 012714  100000                   mov #100000,(r4)
    2173 010326 000257                           ccc
    2174 010330 006124                           rol (r4)+
    2175 010332 103002                           bcc 1$
    2176 010334 102001                           bvc 1$
    2177 010336 001404                           beq 2$
    2178                                1$:
    2179                                         error
       1 000254                         ..n      = ..n + 1
       2 010340 012737  000254  177570           mov #..n,@#ddisp
       3 010346 000000                           halt
    2180                                2$:
    2181 010350 005304                           dec r4
    2182 010352 005304                           dec r4
    2183 010354 001012                           bne 3$
    2184 010356 012714  004040                   mov #4040,(r4)
    2185 010362 000241                           clc
    2186 010364 106124                           rolb (r4)+
    2187 010366 103405                           bcs 3$
    2188 010370 102404                           bvs 3$
    2189 010372 005304                           dec r4
    2190 010374 022714  004100                   cmp #04100,(r4)
    2191 010400 001404                           beq 4$
    2192                                3$:
    2193                                         error
       1 000255                         ..n      = ..n + 1
       2 010402 012737  000255  177570           mov #..n,@#ddisp
       3 010410 000000                           halt
    2194                                4$:
    2195                                ;
    2196                                ;
    2197                                ;
    2198                                tst110:
    2199 010412 005004                           clr r4
    2200 010414 012714  052525                   mov #052525,(r4)
    2201 010420 000277                           scc
    2202 010422 006137  000000                   rol @#0
    2203 010426 100005                           bpl 1$
    2204 010430 102004                           bvc 1$
    2205 010432 103403                           bcs 1$
    2206 010434 022714  125253                   cmp #125253,(r4)
    2207 010440 001404                           beq 2$
    2208                                1$:
    2209                                         error
       1 000256                         ..n      = ..n + 1
       2 010442 012737  000256  177570           mov #..n,@#ddisp
       3 010450 000000                           halt
    2210                                2$:
    2211 010452 012714  125252                   mov #125252,(r4)
    2212 010456 000261                           sec
    2213 010460 106137  000000                   rolb @#0
    2214 010464 100402                           bmi 3$
    2215 010466 103001                           bcc 3$
    2216 010470 102404                           bvs 4$
    2217                                3$:
    2218                                         error
       1 000257                         ..n      = ..n + 1
       2 010472 012737  000257  177570           mov #..n,@#ddisp
       3 010500 000000                           halt
    2219                                4$:
    2220                                ;
    2221                                ;
    2222                                ;
    2223                                tst111:
    2224 010502 005001                           clr r1
    2225 010504 012704  000002                   mov #2,r4
    2226 010510 012711  054321                   mov #54321,(r1)
    2227 010514 000277                           scc
    2228 010516 006144                           rol -(r4)
    2229 010520 100007                           bpl 1$
    2230 010522 102006                           bvc 1$
    2231 010524 103405                           bcs 1$
    2232 010526 022711  130643                   cmp #130643,(r1)
    2233 010532 001002                           bne 1$
    2234 010534 005704                           tst r4
    2235 010536 001404                           beq 2$
    2236                                1$:
    2237                                         error
       1 000260                         ..n      = ..n + 1
       2 010540 012737  000260  177570           mov #..n,@#ddisp
       3 010546 000000                           halt
    2238                                2$:
    2239                                ;
    2240                                ;
    2241                                ;
    2242                                tst112:
    2243 010550 005004                           clr r4
    2244 010552 012714  000400                   mov #400,(r4)
    2245 010556 012734  123456                   mov #123456,@(r4)+
    2246 010562 000277                           scc
    2247 010564 006154                           rol @-(r4)
    2248 010566 100410                           bmi 1$
    2249 010570 103007                           bcc 1$
    2250 010572 102006                           bvc 1$
    2251 010574 005704                           tst r4
    2252 010576 001004                           bne 1$
    2253 010600 022737  047135  000400           cmp #47135,@#400
    2254 010606 001404                           beq 2$
    2255                                1$:
    2256                                         error
       1 000261                         ..n      = ..n + 1
       2 010610 012737  000261  177570           mov #..n,@#ddisp
       3 010616 000000                           halt
    2257                                2$:
    2258                                ;
    2259                                ;
    2260                                ;
    2261                                tst113:
    2262 010620 012704  000400                   mov #400,r4
    2263 010624 005001                           clr r1
    2264 010626 012711  032525                   mov #32525,(r1)
    2265 010632 000277                           scc
    2266 010634 006164  177400                   rol -400(r4)
    2267 010640 100405                           bmi 1$
    2268 010642 103404                           bcs 1$
    2269 010644 102403                           bvs 1$
    2270 010646 022711  065253                   cmp #65253,(r1)
    2271 010652 001404                           beq 2$
    2272                                1$:
    2273                                         error
       1 000262                         ..n      = ..n + 1
       2 010654 012737  000262  177570           mov #..n,@#ddisp
       3 010662 000000                           halt
    2274                                2$:
    2275                                ;
    2276                                ;
    2277                                ;
    2278                                tst114:
    2279 010664 012704  000400                   mov #400,r4
    2280 010670 005037  000402                   clr @#402
    2281 010674 012737  100000  000000           mov #100000,@#0
    2282 010702 006174  000002                   rol @2(r4)
    2283 010706 100406                           bmi 1$
    2284 010710 001005                           bne 1$
    2285 010712 103004                           bcc 1$
    2286 010714 102003                           bvc 1$
    2287 010716 005737  000000                   tst @#0
    2288 010722 001404                           beq 2$
    2289                                1$:
    2290                                         error
       1 000263                         ..n      = ..n + 1
       2 010724 012737  000263  177570           mov #..n,@#ddisp
       3 010732 000000                           halt
    2291                                2$:
    2292                                ;
    2293                                ;
    2294                                ;
    2295                                tst115:
    2296 010734 012704  000400                   mov #400,r4
    2297 010740 012714  040700                   mov #40700,(r4)
    2298 010744 000337  000400                   swab @#400
    2299 010750 100406                           bmi 1$
    2300 010752 022714  140101                   cmp #140101,(r4)
    2301 010756 001003                           bne 1$
    2302 010760 000337  000400                   swab @#400
    2303 010764 100404                           bmi 2$
    2304                                1$:
    2305                                         error
       1 000264                         ..n      = ..n + 1
       2 010766 012737  000264  177570           mov #..n,@#ddisp
       3 010774 000000                           halt
    2306                                2$:
    2307                                ;
    2308                                ;
    2309                                ;
    2310                                tst116:
    2311 010776 012704  052525                   mov #52525,r4
    2312 011002 000257                           ccc
    2313 011004 006004                           ror r4
    2314 011006 103003                           bcc 1$
    2315 011010 022704  025252                   cmp #25252,r4
    2316 011014 001404                           beq 2$
    2317                                1$:
    2318                                         error
       1 000265                         ..n      = ..n + 1
       2 011016 012737  000265  177570           mov #..n,@#ddisp
       3 011024 000000                           halt
    2319                                2$:
    2320                                ;
    2321                                ;
    2322                                ;
    2323                                tst117:
    2324 011026 005004                           clr r4
    2325 011030 012714  000001                   mov #1,(r4)
    2326 011034 000277                           scc
    2327 011036 106014                           rorb (r4)
    2328 011040 103004                           bcc 1$
    2329 011042 100003                           bpl 1$
    2330 011044 022714  000200                   cmp #200,(r4)
    2331 011050 001404                           beq 2$
    2332                                1$:
    2333                                         error
       1 000266                         ..n      = ..n + 1
       2 011052 012737  000266  177570           mov #..n,@#ddisp
       3 011060 000000                           halt
    2334                                2$:
    2335                                ;
    2336                                ;
    2337                                ;
    2338                                tst120:
    2339 011062 012737  000001  051314           mov #1,@#seq
    2340 011070 012701  011150                   mov #mju1,r1
    2341 011074 000111                           jmp (r1)
    2342                                mju2:
    2343 011076 023727  051314  000002           cmp @#seq,#2
    2344 011104 001404                           beq mju2a
    2345                                1$:
    2346                                         error
       1 000267                         ..n      = ..n + 1
       2 011106 012737  000267  177570           mov #..n,@#ddisp
       3 011114 000000                           halt
    2347                                mju2a:
    2348 011116 020127  011100                   cmp r1,#mju2+2
    2349 011122 001404                           beq mju2b
    2350                                2$:
    2351                                         error
       1 000270                         ..n      = ..n + 1
       2 011124 012737  000270  177570           mov #..n,@#ddisp
       3 011132 000000                           halt
    2352                                mju2b:
    2353 011134 005237  051314                   inc @#seq
    2354 011140 012701  011146                   mov #mj2,r1
    2355 011144 000131                           jmp @(r1)+
    2356                                mj2:
    2357 011146 011202                           .word mju3
    2358                                mju1:
    2359 011150 023727  051314  000001           cmp @#seq,#1
    2360 011156 001404                           beq mju1a
    2361                                3$:
    2362                                         error
       1 000271                         ..n      = ..n + 1
       2 011160 012737  000271  177570           mov #..n,@#ddisp
       3 011166 000000                           halt
    2363                                mju1a:
    2364 011170 005237  051314                   inc @#seq
    2365 011174 012701  011076                   mov #mju2,r1
    2366 011200 000121                           jmp (r1)+
    2367                                mju3:
    2368 011202 023727  051314  000003           cmp @#seq,#3
    2369 011210 001404                           beq mju3a
    2370                                4$:
    2371                                         error
       1 000272                         ..n      = ..n + 1
       2 011212 012737  000272  177570           mov #..n,@#ddisp
       3 011220 000000                           halt
    2372                                mju3a:
    2373 011222 022701  011150                   cmp #mj2+2,r1
    2374 011226 001404                           beq mju3b
    2375                                5$:
    2376                                         error
       1 000273                         ..n      = ..n + 1
       2 011230 012737  000273  177570           mov #..n,@#ddisp
       3 011236 000000                           halt
    2377                                mju3b:
    2378 011240 005237  051314                   inc @#seq
    2379 011244 012701  011330                   mov #mju4+2,r1
    2380 011250 000141                           jmp -(r1)
    2381                                mju5:
    2382 011252 000000                           halt               ; ??
    2383 011254 022701  011400                   cmp #mj5,r1
    2384 011260 001404                           beq mju5a
    2385                                6$:
    2386                                         error
       1 000274                         ..n      = ..n + 1
       2 011262 012737  000274  177570           mov #..n,@#ddisp
       3 011270 000000                           halt
    2387                                mju5a:
    2388 011272 023727  051314  000005           cmp @#seq,#5
    2389 011300 001404                           beq mju5b
    2390                                7$:
    2391                                         error
       1 000275                         ..n      = ..n + 1
       2 011302 012737  000275  177570           mov #..n,@#ddisp
       3 011310 000000                           halt
    2392                                mju5b:
    2393 011312 005237  051314                   inc @#seq
    2394 011316 012701  011375                   mov #mju6-5,r1
    2395 011322 000161  000005                   jmp +5(r1)
    2396                                mju4:
    2397 011326 000240                           nop
    2398 011330 022701  011326                   cmp #mju4,r1
    2399 011334 001404                           beq mju4a
    2400                                8$:
    2401                                         error
       1 000276                         ..n      = ..n + 1
       2 011336 012737  000276  177570           mov #..n,@#ddisp
       3 011344 000000                           halt
    2402                                mju4a:
    2403 011346 023727  051314  000004           cmp @#seq,#4
    2404 011354 001404                           beq mju4b
    2405                                9$:
    2406                                         error
       1 000277                         ..n      = ..n + 1
       2 011356 012737  000277  177570           mov #..n,@#ddisp
       3 011364 000000                           halt
    2407                                mju4b:
    2408 011366 005237  051314                   inc @#seq
    2409 011372 012701  011402                   mov #mj5+2,r1
    2410 011376 000151                           jmp @-(r1)
    2411                                mj5:
    2412 011400 011254                           .word mju5+2
    2413                                mju6:
    2414 011402 022737  000006  051314           cmp #6,@#seq
    2415 011410 001404                           beq mju6a
    2416                                10$:
    2417                                         error
       1 000300                         ..n      = ..n + 1
       2 011412 012737  000300  177570           mov #..n,@#ddisp
       3 011420 000000                           halt
    2418                                mju6a:
    2419 011422 005237  051314                   inc @#seq
    2420 011426 012701  011446                   mov #mj7+10,r1
    2421 011432 000171  177770                   jmp @-10(r1)
    2422                                mj7:
    2423 011436 011442                           .word mju7
    2424 011440 000000                           halt
    2425                                mju7:
    2426 011442 022737  000007  051314           cmp #7,@#seq
    2427 011450 001404                           beq mju7e
    2428                                11$:
    2429                                         error
       1 000301                         ..n      = ..n + 1
       2 011452 012737  000301  177570           mov #..n,@#ddisp
       3 011460 000000                           halt
    2430                                mju7e:
    2431                                ;
    2432                                ;
    2433                                ;
    2434                                tst121:
    2435 011462 012701  011772                   mov #128$,r1
    2436                                
    2437 011466 012717                           mov (pc)+,(pc)
    2438 011470 000240                           .word nop
    2439 011472 000111                  64$:     .word 111
    2440 011474 012717                           mov (pc)+,(pc)
    2441 011476 000240                           .word nop
    2442 011500 000111                  65$:     .word 111
    2443 011502 012717                           mov (pc)+,(pc)
    2444 011504 000240                           .word nop
    2445 011506 000111                  66$:     .word 111
    2446 011510 012717                           mov (pc)+,(pc)
    2447 011512 000240                           .word nop
    2448 011514 000111                  67$:     .word 111
    2449 011516 012717                           mov (pc)+,(pc)
    2450 011520 000240                           .word nop
    2451 011522 000111                  68$:     .word 111
    2452 011524 012717                           mov (pc)+,(pc)
    2453 011526 000240                           .word nop
    2454 011530 000111                  69$:     .word 111
    2455 011532 012717                           mov (pc)+,(pc)
    2456 011534 000240                           .word nop
    2457 011536 000111                  70$:     .word 111
    2458 011540 012717                           mov (pc)+,(pc)
    2459 011542 000240                           .word nop
    2460 011544 000111                  71$:     .word 111
    2461 011546 012717                           mov (pc)+,(pc)
    2462 011550 000240                           .word nop
    2463 011552 000111                  72$:     .word 111
    2464 011554 012717                           mov (pc)+,(pc)
    2465 011556 000240                           .word nop
    2466 011560 000111                  73$:     .word 111
    2467 011562 012717                           mov (pc)+,(pc)
    2468 011564 000240                           .word nop
    2469 011566 000111                  74$:     .word 111
    2470 011570 012717                           mov (pc)+,(pc)
    2471 011572 000240                           .word nop
    2472 011574 000111                  75$:     .word 111
    2473 011576 012717                           mov (pc)+,(pc)
    2474 011600 000240                           .word nop
    2475 011602 000111                  76$:     .word 111
    2476 011604 012717                           mov (pc)+,(pc)
    2477 011606 000240                           .word nop
    2478 011610 000111                  77$:     .word 111
    2479 011612 012717                           mov (pc)+,(pc)
    2480 011614 000240                           .word nop
    2481 011616 000111                  78$:     .word 111
    2482 011620 012717                           mov (pc)+,(pc)
    2483 011622 000240                           .word nop
    2484 011624 000111                  79$:     .word 111
    2485 011626 012717                           mov (pc)+,(pc)
    2486 011630 000240                           .word nop
    2487 011632 000111                  80$:     .word 111
    2488 011634 012717                           mov (pc)+,(pc)
    2489 011636 000240                           .word nop
    2490 011640 000111                  81$:     .word 111
    2491 011642 012717                           mov (pc)+,(pc)
    2492 011644 000240                           .word nop
    2493 011646 000111                  82$:     .word 111
    2494 011650 012717                           mov (pc)+,(pc)
    2495 011652 000240                           .word nop
    2496 011654 000111                  83$:     .word 111
    2497 011656 012717                           mov (pc)+,(pc)
    2498 011660 000240                           .word nop
    2499 011662 000111                  84$:     .word 111
    2500 011664 012717                           mov (pc)+,(pc)
    2501 011666 000240                           .word nop
    2502 011670 000111                  85$:     .word 111
    2503 011672 012717                           mov (pc)+,(pc)
    2504 011674 000240                           .word nop
    2505 011676 000111                  86$:     .word 111
    2506 011700 012717                           mov (pc)+,(pc)
    2507 011702 000240                           .word nop
    2508 011704 000111                  87$:     .word 111
    2509 011706 012717                           mov (pc)+,(pc)
    2510 011710 000240                           .word nop
    2511 011712 000111                  88$:     .word 111
    2512 011714 012717                           mov (pc)+,(pc)
    2513 011716 000240                           .word nop
    2514 011720 000111                  89$:     .word 111
    2515 011722 012717                           mov (pc)+,(pc)
    2516 011724 000240                           .word nop
    2517 011726 000111                  90$:     .word 111
    2518 011730 012717                           mov (pc)+,(pc)
    2519 011732 000240                           .word nop
    2520 011734 000111                  91$:     .word 111
    2521 011736 012717                           mov (pc)+,(pc)
    2522 011740 000240                           .word nop
    2523 011742 000111                  92$:     .word 111
    2524 011744 012717                           mov (pc)+,(pc)
    2525 011746 000240                           .word nop
    2526 011750 000111                  93$:     .word 111
    2527 011752 012717                           mov (pc)+,(pc)
    2528 011754 000240                           .word nop
    2529 011756 000111                  94$:     .word 111
    2530 011760 012717                           mov (pc)+,(pc)
    2531 011762 000240                           .word nop
    2532 011764 000111                  95$:     .word 111
    2533 011766 000137  012002                   jmp @#129$
    2534                                128$:
    2535                                         error
       1 000302                         ..n      = ..n + 1
       2 011772 012737  000302  177570           mov #..n,@#ddisp
       3 012000 000000                           halt
    2536                                129$:
    2537 012002 012702  000040                   mov #32.,r2
    2538 012006 012703  011472                   mov #64$,r3
    2539                                130$:
    2540 012012 012713  000111                   mov #111,(r3)
    2541 012016 062703  000006                   add #6,r3
    2542 012022 077205                           sob r2,130$
    2543                                ;
    2544                                ;
    2545                                ;
    2546                                tst122:
    2547 012024 012737  000000  051314           mov #0,@#seq
    2548 012032 000117                           jmp (r7)
    2549                                ;
    2550                                mjp17:
    2551 012034 005737  051314                   tst @#seq
    2552 012040 001404                           beq 2$
    2553                                1$:
    2554                                         error
       1 000303                         ..n      = ..n + 1
       2 012042 012737  000303  177570           mov #..n,@#ddisp
       3 012050 000000                           halt
    2555                                2$:
    2556 012052 005237  051314                   inc @#seq
    2557 012056 000127  000401                   jmp #401
    2558                                ;
    2559 012062 000000                           halt
    2560                                ;
    2561                                mjp27:
    2562 012064 023727  051314  000001           cmp @#seq,#1
    2563 012072 001404                           beq mjp27a
    2564                                1$:
    2565                                         error
       1 000304                         ..n      = ..n + 1
       2 012074 012737  000304  177570           mov #..n,@#ddisp
       3 012102 000000                           halt
    2566                                mjp27a:
    2567 012104 005237  051314                   inc @#seq
    2568 012110 000137  012172                   jmp @#mjp37
    2569                                mjp67:
    2570 012114 023727  051314  000003           cmp @#seq,#3
    2571 012122 001404                           beq mjp67a
    2572                                2$:
    2573                                         error
       1 000305                         ..n      = ..n + 1
       2 012124 012737  000305  177570           mov #..n,@#ddisp
       3 012132 000000                           halt
    2574                                mjp67a:
    2575 012134 005237  051314                   inc @#seq
    2576 012140 000257                           ccc
    2577 012142 000177  000002                   jmp @mjp67b
    2578                                ;
    2579 012146 000000                           halt
    2580                                ;
    2581                                mjp67b:
    2582 012150 012152                           .word mjp77
    2583                                ;
    2584                                mjp77:
    2585 012152 023727  051314  000004           cmp @#seq,#4
    2586 012160 001420                           beq mjp77e
    2587                                3$:
    2588                                         error
       1 000306                         ..n      = ..n + 1
       2 012162 012737  000306  177570           mov #..n,@#ddisp
       3 012170 000000                           halt
    2589                                mjp37:
    2590 012172 023727  051314  000002           cmp @#seq,#2
    2591 012200 001404                           beq mjp37a
    2592                                4$:
    2593                                         error
       1 000307                         ..n      = ..n + 1
       2 012202 012737  000307  177570           mov #..n,@#ddisp
       3 012210 000000                           halt
    2594                                
    2595                                mjp37a:
    2596 012212 005237  051314                   inc @#seq
    2597 012216 000167  177672                   jmp mjp67
    2598                                ;
    2599                                ;
    2600                                mjp77e:
    2601                                ;
    2602                                ;
    2603                                ;
    2604                                tst123:
    2605 012222 012706  000776                   mov #stk, sp
    2606 012226 010637  051316                   mov r6,@#sps
    2607 012232 010637  051320                   mov r6,@#spsj
    2608 012236 162737  000002  051320           sub #2,@#spsj
    2609 012244 012737  000001  051314           mov #1,@#seq
    2610 012252 012701  012362                   mov #mjsr1,r1
    2611 012256 005004                           clr r4
    2612 012260 005104                           com r4
    2613 012262 004411                           jsr r4,(r1)
    2614                                mjsr2:
    2615 012264 022737  000002  051314           cmp #2,@#seq
    2616 012272 001404                           beq mjsr2a
    2617                                5$:
    2618                                         error
       1 000310                         ..n      = ..n + 1
       2 012274 012737  000310  177570           mov #..n,@#ddisp
       3 012302 000000                           halt
    2619                                mjsr2a:
    2620 012304 023706  051320                   cmp @#spsj,r6
    2621 012310 001006                           bne 6$
    2622 012312 021627  125252                   cmp (r6),#125252
    2623 012316 001003                           bne 6$
    2624 012320 022704  012456                   cmp #mjsr4,r4
    2625 012324 001404                           beq mjsr2b
    2626                                6$:
    2627                                         error
       1 000311                         ..n      = ..n + 1
       2 012326 012737  000311  177570           mov #..n,@#ddisp
       3 012334 000000                           halt
    2628                                mjsr2b:
    2629 012336 005237  051314                   inc @#seq
    2630 012342 013706  051316                   mov @#sps,r6
    2631 012346 012701  012360                   mov #mjsra,r1
    2632 012352 005004                           clr r4
    2633 012354 004431                           jsr r4,@(r1)+
    2634 012356 000000                           halt
    2635                                mjsra:
    2636 012360 012556                           .word mjsr3
    2637                                mjsr1:
    2638 012362 022737  000001  051314           cmp #1,@#seq
    2639 012370 001404                           beq mjsr1a
    2640                                7$:
    2641                                         error
       1 000312                         ..n      = ..n + 1
       2 012372 012737  000312  177570           mov #..n,@#ddisp
       3 012400 000000                           halt
    2642                                mjsr1a:
    2643 012402 023706  051320                   cmp @#spsj,r6
    2644 012406 001006                           bne 8$
    2645 012410 021627  177777                   cmp (r6),#-1
    2646 012414 001003                           bne 8$
    2647 012416 022704  012264                   cmp #mjsr2,r4
    2648 012422 001404                           beq mjsr1b
    2649                                8$:
    2650                                         error
       1 000313                         ..n      = ..n + 1
       2 012424 012737  000313  177570           mov #..n,@#ddisp
       3 012432 000000                           halt
    2651                                mjsr1b:
    2652 012434 005237  051314                   inc @#seq
    2653 012440 013706  051316                   mov @#sps,r6
    2654 012444 012704  125252                   mov #125252,r4
    2655 012450 012701  012264                   mov #mjsr2,r1
    2656 012454 004421                           jsr r4,(r1)+
    2657                                mjsr4:
    2658 012456 022737  000004  051314           cmp #4,@#seq
    2659 012464 001404                           beq mjsr4a
    2660                                9$:
    2661                                         error
       1 000314                         ..n      = ..n + 1
       2 012466 012737  000314  177570           mov #..n,@#ddisp
       3 012474 000000                           halt
    2662                                mjsr4a:
    2663 012476 023706  051320                   cmp @#spsj,r6
    2664 012502 001006                           bne 10$
    2665 012504 021627  052525                   cmp (r6),#052525
    2666 012510 001003                           bne 10$
    2667 012512 022704  012654                   cmp #mjsr6,r4
    2668 012516 001404                           beq mjsr4b
    2669                                10$:
    2670                                         error
       1 000315                         ..n      = ..n + 1
       2 012520 012737  000315  177570           mov #..n,@#ddisp
       3 012526 000000                           halt
    2671                                mjsr4b:
    2672 012530 005237  051314                   inc @#seq
    2673 012534 013706  051316                   mov @#sps,r6
    2674 012540 012704  000377                   mov #377,r4
    2675 012544 012701  012556                   mov #mjsrb+2,r1
    2676 012550 004451                           jsr r4,@-(r1)
    2677 012552 000000                           halt
    2678                                mjsrb:
    2679 012554 012754                           .word mjsr5
    2680                                mjsr3:
    2681 012556 022737  000003  051314           cmp #3,@#seq
    2682 012564 001404                           beq mjsr3a
    2683                                11$:
    2684                                         error
       1 000316                         ..n      = ..n + 1
       2 012566 012737  000316  177570           mov #..n,@#ddisp
       3 012574 000000                           halt
    2685                                mjsr3a:
    2686 012576 023706  051320                   cmp @#spsj,r6
    2687 012602 001006                           bne 12$
    2688 012604 021627  000000                   cmp (r6),#0
    2689 012610 001003                           bne 12$
    2690 012612 022704  012356                   cmp #mjsra-2,r4
    2691 012616 001404                           beq mjsr3b
    2692                                12$:
    2693                                         error
       1 000317                         ..n      = ..n + 1
       2 012620 012737  000317  177570           mov #..n,@#ddisp
       3 012626 000000                           halt
    2694                                mjsr3b:
    2695 012630 005237  051314                   inc @#seq
    2696 012634 013706  051316                   mov @#sps,r6
    2697 012640 012704  052525                   mov #052525,r4
    2698 012644 012701  012460                   mov #mjsr4+2,r1
    2699 012650 000257                           ccc
    2700 012652 004441                           jsr r4,-(r1)
    2701                                mjsr6:
    2702 012654 022737  000006  051314           cmp #6,@#seq
    2703 012662 001404                           beq mjsr6a
    2704                                13$:
    2705                                         error
       1 000320                         ..n      = ..n + 1
       2 012664 012737  000320  177570           mov #..n,@#ddisp
       3 012672 000000                           halt
    2706                                mjsr6a:
    2707 012674 023706  051320                   cmp @#spsj,r6
    2708 012700 001006                           bne 14$
    2709 012702 021627  123456                   cmp (r6),#123456
    2710 012706 001003                           bne 14$
    2711 012710 022704  013052                   cmp #mjsr7,r4
    2712 012714 001404                           beq mjsr6b
    2713                                14$:
    2714                                         error
       1 000321                         ..n      = ..n + 1
       2 012716 012737  000321  177570           mov #..n,@#ddisp
       3 012724 000000                           halt
    2715                                mjsr6b:
    2716 012726 005237  051314                   inc @#seq
    2717 012732 013706  051316                   mov @#sps,r6
    2718 012736 012704  177773                   mov #-5,r4
    2719 012742 012701  012762                   mov #mjsrc+10,r1
    2720 012746 004471  177770                   jsr r4,@-10(r1)
    2721                                mjsrc:
    2722 012752 013052                           .word mjsr7
    2723                                mjsr5:
    2724 012754 022737  000005  051314           cmp #5,@#seq
    2725 012762 001404                           beq mjsr5a
    2726                                15$:
    2727                                         error
       1 000322                         ..n      = ..n + 1
       2 012764 012737  000322  177570           mov #..n,@#ddisp
       3 012772 000000                           halt
    2728                                mjsr5a:
    2729 012774 023706  051320                   cmp @#spsj,r6
    2730 013000 001006                           bne 16$
    2731 013002 021627  000377                   cmp (r6),#377
    2732 013006 001003                           bne 16$
    2733 013010 022704  012552                   cmp #mjsrb-2,r4
    2734 013014 001404                           beq mjsr5b
    2735                                16$:
    2736                                         error
       1 000323                         ..n      = ..n + 1
       2 013016 012737  000323  177570           mov #..n,@#ddisp
       3 013024 000000                           halt
    2737                                mjsr5b:
    2738 013026 005237  051314                   inc @#seq
    2739 013032 013706  051316                   mov @#sps,r6
    2740 013036 012704  123456                   mov #123456,r4
    2741 013042 012701  012664                   mov #mjsr6+10,r1
    2742 013046 004461  177770                   jsr r4,-10(r1)
    2743                                mjsr7:
    2744 013052 022737  000007  051314           cmp #7,@#seq
    2745 013060 001404                           beq mjsr7a
    2746                                17$:
    2747                                         error
       1 000324                         ..n      = ..n + 1
       2 013062 012737  000324  177570           mov #..n,@#ddisp
       3 013070 000000                           halt
    2748                                mjsr7a:
    2749 013072 023706  051320                   cmp @#spsj,r6
    2750 013076 001006                           bne 18$
    2751 013100 021627  177773                   cmp (r6),#-5
    2752 013104 001003                           bne 18$
    2753 013106 022704  012752                   cmp #mjsr5-2,r4
    2754 013112 001404                           beq mjsr7e
    2755                                18$:
    2756                                         error
       1 000325                         ..n      = ..n + 1
       2 013114 012737  000325  177570           mov #..n,@#ddisp
       3 013122 000000                           halt
    2757                                mjsr7e:
    2758 013124 013706  051316                   mov @#sps,r6
    2759                                ;
    2760                                ;
    2761                                ;
    2762                                tst124:
    2763 013130 012737  000001  051314           mov #1,@#seq
    2764 013136 010637  051316                   mov r6,@#sps
    2765 013142 010637  051320                   mov r6,@#spsj
    2766 013146 162737  000002  051320           sub #2,@#spsj
    2767 013154 012704  177777                   mov #-1,r4
    2768 013160 004427  000240                   jsr r4,#240
    2769                                mjr27:
    2770 013164 022737  000001  051314           cmp #1,@#seq
    2771 013172 001011                           bne 1$
    2772 013174 023706  051320                   cmp @#spsj,r6
    2773 013200 001006                           bne 1$
    2774 013202 021627  177777                   cmp (r6),#-1
    2775 013206 001003                           bne 1$
    2776 013210 020427  013164                   cmp r4,#mjr27
    2777 013214 001404                           beq mjr27a
    2778                                1$:
    2779                                         error
       1 000326                         ..n      = ..n + 1
       2 013216 012737  000326  177570           mov #..n,@#ddisp
       3 013224 000000                           halt
    2780                                mjr27a:
    2781 013226 005237  051314                   inc @#seq
    2782 013232 012704  152525                   mov #152525,r4
    2783 013236 013706  051316                   mov @#sps,r6
    2784 013242 004437  013336                   jsr r4,@#mjr37
    2785                                mjr27b:
    2786 013246 000000                           halt
    2787                                mjr67:
    2788 013250 023727  051314  000003           cmp @#seq,#3
    2789 013256 001011                           bne 2$
    2790 013260 023706  051320                   cmp @#spsj,r6
    2791 013264 001006                           bne 2$
    2792 013266 021627  000125                   cmp (r6),#125
    2793 013272 001003                           bne 2$
    2794 013274 020427  013420                   cmp r4,#mjr77
    2795 013300 001404                           beq mjr67a
    2796                                2$:
    2797                                         error
       1 000327                         ..n      = ..n + 1
       2 013302 012737  000327  177570           mov #..n,@#ddisp
       3 013310 000000                           halt
    2798                                mjr67a:
    2799 013312 005237  051314                   inc @#seq
    2800 013316 013706  051316                   mov @#sps,r6
    2801 013322 012704  000001                   mov #1,r4
    2802 013326 004477  000002                   jsr r4,@mjr6b
    2803                                mjr6a:
    2804 013332 000000                           halt
    2805                                mjr6b:
    2806 013334 013420                           .word mjr77
    2807                                mjr37:
    2808 013336 023727  051314  000002           cmp @#seq,#2
    2809 013344 001011                           bne 2$
    2810 013346 023706  051320                   cmp @#spsj,r6
    2811 013352 001006                           bne 2$
    2812 013354 021627  152525                   cmp (r6),#152525
    2813 013360 001003                           bne 2$
    2814 013362 020427  013246                   cmp r4,#mjr27b
    2815 013366 001404                           beq mjr37a
    2816                                2$:
    2817                                         error
       1 000330                         ..n      = ..n + 1
       2 013370 012737  000330  177570           mov #..n,@#ddisp
       3 013376 000000                           halt
    2818                                mjr37a:
    2819 013400 005237  051314                   inc @#seq
    2820 013404 013706  051316                   mov @#sps,r6
    2821 013410 012704  000125                   mov #125,r4
    2822 013414 004467  177630                   jsr r4,mjr67
    2823                                mjr77:
    2824 013420 023727  051314  000004           cmp @#seq,#4
    2825 013426 001011                           bne 2$
    2826 013430 023706  051320                   cmp @#spsj,r6
    2827 013434 001006                           bne 2$
    2828 013436 021627  000001                   cmp (r6),#1
    2829 013442 001003                           bne 2$
    2830 013444 020427  013332                   cmp r4,#mjr6a
    2831 013450 001404                           beq mjr77a
    2832                                2$:
    2833                                         error
       1 000331                         ..n      = ..n + 1
       2 013452 012737  000331  177570           mov #..n,@#ddisp
       3 013460 000000                           halt
    2834                                mjr77a:
    2835 013462 013706  051316                   mov @#sps,r6
    2836                                ;
    2837                                ;
    2838                                ;
    2839                                tst125:
    2840 013466 012706  000776                   mov #stbot,r6
    2841 013472 012746  123456                   mov #123456,-(r6)
    2842 013476 012703  013514                   mov #rts1,r3
    2843 013502 000203                           rts r3
    2844                                         error
       1 000332                         ..n      = ..n + 1
       2 013504 012737  000332  177570           mov #..n,@#ddisp
       3 013512 000000                           halt
    2845                                rts1:
    2846 013514 022703  123456                   cmp #123456,r3
    2847 013520 001404                           beq rts6
    2848                                         error
       1 000333                         ..n      = ..n + 1
       2 013522 012737  000333  177570           mov #..n,@#ddisp
       3 013530 000000                           halt
    2849                                rts6:
    2850 013532 010601                           mov r6,r1
    2851 013534 012705  013554                   mov #1$,r5
    2852 013540 010506                           mov r5,r6
    2853 013542 000206                           rts r6
    2854                                         error
       1 000334                         ..n      = ..n + 1
       2 013544 012737  000334  177570           mov #..n,@#ddisp
       3 013552 000000                           halt
    2855                                1$:
    2856 013554 021506                           cmp (r5),r6
    2857 013556 001404                           beq rtse
    2858                                         error
       1 000335                         ..n      = ..n + 1
       2 013560 012737  000335  177570           mov #..n,@#ddisp
       3 013566 000000                           halt
    2859                                rtse:
    2860 013570 010106                           mov r1,r6
    2861                                ;
    2862                                ;
    2863                                ;
    2864                                tst126:
    2865 013572 012737  040000  177776           mov #40000,@#177776
    2866 013600 012706  177777                   mov #177777,r6
    2867 013604 022706  177777                   cmp #177777,r6
    2868 013610 001404                           beq 1$
    2869                                         error
       1 000336                         ..n      = ..n + 1
       2 013612 012737  000336  177570           mov #..n,@#ddisp
       3 013620 000000                           halt
    2870                                1$:
    2871 013622 005006                           clr r6
    2872 013624 022706  000000                   cmp #0,r6
    2873 013630 001404                           beq 2$
    2874                                         error
       1 000337                         ..n      = ..n + 1
       2 013632 012737  000337  177570           mov #..n,@#ddisp
       3 013640 000000                           halt
    2875                                2$:
    2876 013642 012706  125252                   mov #125252,r6
    2877 013646 022706  125252                   cmp #125252,r6
    2878 013652 001404                           beq 3$
    2879                                         error
       1 000340                         ..n      = ..n + 1
       2 013654 012737  000340  177570           mov #..n,@#ddisp
       3 013662 000000                           halt
    2880                                3$:
    2881 013664 012706  052525                   mov #52525,r6
    2882 013670 022706  052525                   cmp #52525,r6
    2883 013674 001404                           beq 4$
    2884                                         error
       1 000341                         ..n      = ..n + 1
       2 013676 012737  000341  177570           mov #..n,@#ddisp
       3 013704 000000                           halt
    2885                                4$:
    2886 013706 012706  000700                   mov #700,r6
    2887 013712 012737  140000  177776           mov #140000,@#177776
    2888 013720 012706  177777                   mov #177777,r6
    2889 013724 022706  177777                   cmp #177777,r6
    2890 013730 001404                           beq 5$
    2891                                         error
       1 000342                         ..n      = ..n + 1
       2 013732 012737  000342  177570           mov #..n,@#ddisp
       3 013740 000000                           halt
    2892                                5$:
    2893 013742 005006                           clr r6
    2894 013744 022706  000000                   cmp #0,r6
    2895 013750 001404                           beq 6$
    2896                                         error
       1 000343                         ..n      = ..n + 1
       2 013752 012737  000343  177570           mov #..n,@#ddisp
       3 013760 000000                           halt
    2897                                6$:
    2898 013762 012706  125252                   mov #125252,r6
    2899 013766 022706  125252                   cmp #125252,r6
    2900 013772 001404                           beq 7$
    2901                                         error
       1 000344                         ..n      = ..n + 1
       2 013774 012737  000344  177570           mov #..n,@#ddisp
       3 014002 000000                           halt
    2902                                7$:
    2903 014004 012706  052525                   mov #52525,r6
    2904 014010 022706  052525                   cmp #52525,r6
    2905 014014 001404                           beq 8$
    2906                                         error
       1 000345                         ..n      = ..n + 1
       2 014016 012737  000345  177570           mov #..n,@#ddisp
       3 014024 000000                           halt
    2907                                8$:
    2908 014026 012706  000600                   mov #600,r6
    2909 014032 005037  177776                   clr @#177776
    2910 014036 012706  000776                   mov #stbot,r6
    2911 014042 005037  000700                   clr @#700
    2912 014046 005037  000600                   clr @#600
    2913 014052 005037  000776                   clr @#stbot
    2914 014056 004767  000076                   jsr pc,check
    2915                                ret1:
    2916 014062 012737  040000  177776           mov #40000,@#177776
    2917 014070 022706  000700                   cmp #700,r6
    2918 014074 001404                           beq 1$
    2919                                         error
       1 000346                         ..n      = ..n + 1
       2 014076 012737  000346  177570           mov #..n,@#ddisp
       3 014104 000000                           halt
    2920                                1$:
    2921 014106 012737  140000  177776           mov #140000,@#177776
    2922 014114 022706  000600                   cmp #600,r6
    2923 014120 001404                           beq 2$
    2924                                         error
       1 000347                         ..n      = ..n + 1
       2 014122 012737  000347  177570           mov #..n,@#ddisp
       3 014130 000000                           halt
    2925                                2$:
    2926 014132 005037  177776                   clr @#177776
    2927 014136 022706  000776                   cmp #stbot,r6
    2928 014142 001404                           beq 3$
    2929                                         error
       1 000350                         ..n      = ..n + 1
       2 014144 012737  000350  177570           mov #..n,@#ddisp
       3 014152 000000                           halt
    2930                                3$:
    2931 014154 000167  000274                   jmp mtso
    2932                                check:
    2933 014160 012737  040000  177776           mov #40000,@#177776
    2934 014166 004767  000066                   jsr pc,check1
    2935                                ret2:
    2936 014172 022716  000000                   cmp #0,(sp)
    2937 014176 001404                           beq 1$
    2938                                         error
       1 000351                         ..n      = ..n + 1
       2 014200 012737  000351  177570           mov #..n,@#ddisp
       3 014206 000000                           halt
    2939                                1$:
    2940 014210 012737  140000  177776           mov #140000,@#177776
    2941 014216 022716  000000                   cmp #0,(sp)
    2942 014222 001404                           beq 2$
    2943                                         error
       1 000352                         ..n      = ..n + 1
       2 014224 012737  000352  177570           mov #..n,@#ddisp
       3 014232 000000                           halt
    2944                                2$:
    2945 014234 005037  177776                   clr @#177776
    2946 014240 022716  014062                   cmp #ret1,(sp)
    2947 014244 001404                           beq 3$
    2948                                         error
       1 000353                         ..n      = ..n + 1
       2 014246 012737  000353  177570           mov #..n,@#ddisp
       3 014254 000000                           halt
    2949                                3$:
    2950 014256 000207                           rts pc
    2951                                check1:
    2952 014260 012737  140000  177776           mov #140000,@#177776
    2953 014266 004767  000066                   jsr pc,check2
    2954                                ret3:
    2955 014272 022716  000000                   cmp #0,(sp)
    2956 014276 001404                           beq 1$
    2957                                         error
       1 000354                         ..n      = ..n + 1
       2 014300 012737  000354  177570           mov #..n,@#ddisp
       3 014306 000000                           halt
    2958                                1$:
    2959 014310 005037  177776                   clr @#177776
    2960 014314 022716  014062                   cmp #ret1,(sp)
    2961 014320 001404                           beq 2$
    2962                                         error
       1 000355                         ..n      = ..n + 1
       2 014322 012737  000355  177570           mov #..n,@#ddisp
       3 014330 000000                           halt
    2963                                2$:
    2964 014332 012737  040000  177776           mov #40000,@#177776
    2965 014340 022716  014172                   cmp #ret2,(sp)
    2966 014344 001404                           beq 3$
    2967                                         error
       1 000356                         ..n      = ..n + 1
       2 014346 012737  000356  177570           mov #..n,@#ddisp
       3 014354 000000                           halt
    2968                                3$:
    2969 014356 000207                           rts pc
    2970                                check2:
    2971 014360 022716  014272                   cmp #ret3,(sp)
    2972 014364 001404                           beq 1$
    2973                                         error
       1 000357                         ..n      = ..n + 1
       2 014366 012737  000357  177570           mov #..n,@#ddisp
       3 014374 000000                           halt
    2974                                1$:
    2975 014376 012737  040000  177776           mov #40000,@#177776
    2976 014404 022716  014172                   cmp #ret2,(sp)
    2977 014410 001404                           beq 2$
    2978                                         error
       1 000360                         ..n      = ..n + 1
       2 014412 012737  000360  177570           mov #..n,@#ddisp
       3 014420 000000                           halt
    2979                                2$:
    2980 014422 005037  177776                   clr @#177776
    2981 014426 022716  014062                   cmp #ret1,(sp)
    2982 014432 001404                           beq 3$
    2983                                         error
       1 000361                         ..n      = ..n + 1
       2 014434 012737  000361  177570           mov #..n,@#ddisp
       3 014442 000000                           halt
    2984                                3$:
    2985 014444 012737  140000  177776           mov #140000,@#177776
    2986 014452 000207                           rts pc
    2987                                mtso:
    2988                                ;
    2989                                ;
    2990                                ;
    2991                                tst127:
    2992 014454 000277                           scc
    2993 014456 000244                           clz
    2994 014460 012704  000000                   mov #0,r4
    2995 014464 100403                           bmi 1$
    2996 014466 102402                           bvs 1$
    2997 014470 103001                           bcc 1$
    2998 014472 001404                           beq 2$
    2999                                1$:
    3000                                         error
       1 000362                         ..n      = ..n + 1
       2 014474 012737  000362  177570           mov #..n,@#ddisp
       3 014502 000000                           halt
    3001                                2$:
    3002 014504 000277                           scc
    3003 014506 000251                           .word 251
    3004 014510 012704  100000                   mov #100000,r4
    3005 014514 001403                           beq 3$
    3006 014516 102402                           bvs 3$
    3007 014520 103401                           bcs 3$
    3008 014522 100404                           bmi 4$
    3009                                3$:
    3010                                         error
       1 000363                         ..n      = ..n + 1
       2 014524 012737  000363  177570           mov #..n,@#ddisp
       3 014532 000000                           halt
    3011                                4$:
    3012                                ;
    3013                                ;
    3014                                ;
    3015                                tst130:
    3016 014534 005004                           clr r4
    3017 014536 005104                           com r4
    3018 014540 000277                           scc
    3019 014542 000244                           clz
    3020 014544 032704  000000                   bit #0,r4
    3021 014550 100403                           bmi 1$
    3022 014552 102402                           bvs 1$
    3023 014554 103001                           bcc 1$
    3024 014556 001404                           beq 2$
    3025                                1$:
    3026                                         error
       1 000364                         ..n      = ..n + 1
       2 014560 012737  000364  177570           mov #..n,@#ddisp
       3 014566 000000                           halt
    3027                                2$:
    3028 014570 000277                           scc
    3029 014572 000251                           .word 251
    3030 014574 032704  100000                   bit #100000,r4
    3031 014600 001403                           beq 3$
    3032 014602 102402                           bvs 3$
    3033 014604 103401                           bcs 3$
    3034 014606 100404                           bmi 4$
    3035                                3$:
    3036                                         error
       1 000365                         ..n      = ..n + 1
       2 014610 012737  000365  177570           mov #..n,@#ddisp
       3 014616 000000                           halt
    3037                                4$:
    3038                                ;
    3039                                ;
    3040                                ;
    3041                                tst131:
    3042 014620 005004                           clr r4
    3043 014622 005104                           com r4
    3044 014624 000277                           scc
    3045 014626 000244                           clz
    3046 014630 042704  177777                   bic #177777,r4
    3047 014634 100403                           bmi 1$
    3048 014636 102402                           bvs 1$
    3049 014640 103001                           bcc 1$
    3050 014642 001404                           beq 2$
    3051                                1$:
    3052                                         error
       1 000366                         ..n      = ..n + 1
       2 014644 012737  000366  177570           mov #..n,@#ddisp
       3 014652 000000                           halt
    3053                                2$:
    3054 014654 005104                           com r4
    3055 014656 000277                           scc
    3056 014660 000251                           .word 251
    3057 014662 042704  077777                   bic #77777,r4
    3058 014666 001403                           beq 3$
    3059 014670 102402                           bvs 3$
    3060 014672 103401                           bcs 3$
    3061 014674 100404                           bmi 4$
    3062                                3$:
    3063                                         error
       1 000367                         ..n      = ..n + 1
       2 014676 012737  000367  177570           mov #..n,@#ddisp
       3 014704 000000                           halt
    3064                                4$:
    3065                                ;
    3066                                ;
    3067                                ;
    3068                                tst132:
    3069 014706 005004                           clr r4
    3070 014710 000277                           scc
    3071 014712 000246                           .word 246
    3072 014714 052704  000000                   bis #0,r4
    3073 014720 100403                           bmi 1$
    3074 014722 102402                           bvs 1$
    3075 014724 103001                           bcc 1$
    3076 014726 001404                           beq 2$
    3077                                1$:
    3078                                         error
       1 000370                         ..n      = ..n + 1
       2 014730 012737  000370  177570           mov #..n,@#ddisp
       3 014736 000000                           halt
    3079                                2$:
    3080 014740 000277                           scc
    3081 014742 000241                           clc
    3082 014744 052704  100067                   bis #100067,r4
    3083 014750 001403                           beq 3$
    3084 014752 102402                           bvs 3$
    3085 014754 103401                           bcs 3$
    3086 014756 100404                           bmi 4$
    3087                                3$:
    3088                                         error
       1 000371                         ..n      = ..n + 1
       2 014760 012737  000371  177570           mov #..n,@#ddisp
       3 014766 000000                           halt
    3089                                4$:
    3090                                ;
    3091                                ;
    3092                                ;
    3093                                tst133:
    3094 014770 012704  077777                   mov #77777,r4
    3095 014774 000257                           ccc
    3096 014776 000261                           sec
    3097 015000 005204                           inc r4
    3098 015002 001403                           beq 1$
    3099 015004 100002                           bpl 1$
    3100 015006 102001                           bvc 1$
    3101 015010 103404                           bcs 2$
    3102                                1$:
    3103                                         error
       1 000372                         ..n      = ..n + 1
       2 015012 012737  000372  177570           mov #..n,@#ddisp
       3 015020 000000                           halt
    3104                                2$:
    3105 015022 000257                           ccc
    3106 015024 005204                           inc r4
    3107 015026 103413                           bcs 3$
    3108 015030 102412                           bvs 3$
    3109 015032 005304                           dec r4
    3110 015034 102410                           bvs 3$
    3111 015036 103407                           bcs 3$
    3112 015040 000277                           scc
    3113 015042 000252                           .word 252
    3114 015044 005304                           dec r4
    3115 015046 001403                           beq 3$
    3116 015050 102002                           bvc 3$
    3117 015052 103001                           bcc 3$
    3118 015054 100004                           bpl 4$
    3119                                3$:
    3120                                         error
       1 000373                         ..n      = ..n + 1
       2 015056 012737  000373  177570           mov #..n,@#ddisp
       3 015064 000000                           halt
    3121                                4$:
    3122                                ;
    3123                                ;
    3124                                ;
    3125                                tst134:
    3126 015066 000277                           scc
    3127 015070 000244                           clz
    3128 015072 005004                           clr r4
    3129 015074 100403                           bmi 1$
    3130 015076 102402                           bvs 1$
    3131 015100 103401                           bcs 1$
    3132 015102 001404                           beq 2$
    3133                                1$:
    3134                                         error
       1 000374                         ..n      = ..n + 1
       2 015104 012737  000374  177570           mov #..n,@#ddisp
       3 015112 000000                           halt
    3135                                2$:
    3136 015114 005104                           com r4
    3137 015116 000277                           scc
    3138 015120 005704                           tst r4
    3139 015122 001403                           beq 3$
    3140 015124 102402                           bvs 3$
    3141 015126 103401                           bcs 3$
    3142 015130 100404                           bmi 4$
    3143                                3$:
    3144                                         error
       1 000375                         ..n      = ..n + 1
       2 015132 012737  000375  177570           mov #..n,@#ddisp
       3 015140 000000                           halt
    3145                                4$:
    3146 015142 000277                           scc
    3147 015144 000304                           swab r4
    3148 015146 102402                           bvs 5$
    3149 015150 103401                           bcs 5$
    3150 015152 100404                           bmi 6$
    3151                                5$:
    3152                                         error
       1 000376                         ..n      = ..n + 1
       2 015154 012737  000376  177570           mov #..n,@#ddisp
       3 015162 000000                           halt
    3153                                6$:
    3154                                ;
    3155                                ;
    3156                                ;
    3157                                tst135:
    3158 015164 012704  077777                   mov #77777,r4
    3159 015170 012701  000001                   mov #1,r1
    3160 015174 000257                           ccc
    3161 015176 060401                           add r4,r1
    3162 015200 102003                           bvc 1$
    3163 015202 103402                           bcs 1$
    3164 015204 001401                           beq 1$
    3165 015206 100404                           bmi 2$
    3166                                1$:
    3167                                         error
       1 000377                         ..n      = ..n + 1
       2 015210 012737  000377  177570           mov #..n,@#ddisp
       3 015216 000000                           halt
    3168                                2$:
    3169 015220 005204                           inc r4
    3170 015222 060401                           add r4,r1
    3171 015224 102002                           bvc 3$
    3172 015226 103001                           bcc 3$
    3173 015230 001404                           beq 4$
    3174                                3$:
    3175                                         error
       1 000400                         ..n      = ..n + 1
       2 015232 012737  000400  177570           mov #..n,@#ddisp
       3 015240 000000                           halt
    3176                                4$:
    3177 015242 060401                           add r4,r1
    3178 015244 102402                           bvs 5$
    3179 015246 103401                           bcs 5$
    3180 015250 100404                           bmi 6$
    3181                                5$:
    3182                                         error
       1 000401                         ..n      = ..n + 1
       2 015252 012737  000401  177570           mov #..n,@#ddisp
       3 015260 000000                           halt
    3183                                6$:
    3184                                ;
    3185                                ;
    3186                                ;
    3187                                tst136:
    3188 015262 012704  177777                   mov #177777,r4
    3189 015266 000277                           scc
    3190 015270 005504                           adc r4
    3191 015272 100403                           bmi 1$
    3192 015274 102402                           bvs 1$
    3193 015276 103001                           bcc 1$
    3194 015300 001404                           beq 2$
    3195                                1$:
    3196                                         error
       1 000402                         ..n      = ..n + 1
       2 015302 012737  000402  177570           mov #..n,@#ddisp
       3 015310 000000                           halt
    3197                                2$:
    3198 015312 012704  077777                   mov #077777,r4
    3199 015316 000277                           scc
    3200 015320 000242                           clv
    3201 015322 005504                           adc r4
    3202 015324 100003                           bpl 3$
    3203 015326 103402                           bcs 3$
    3204 015330 001401                           beq 3$
    3205 015332 102404                           bvs 4$
    3206                                3$:
    3207                                         error
       1 000403                         ..n      = ..n + 1
       2 015334 012737  000403  177570           mov #..n,@#ddisp
       3 015342 000000                           halt
    3208                                4$:
    3209 015344 000277                           scc
    3210 015346 005504                           adc r4
    3211 015350 102402                           bvs 5$
    3212 015352 103401                           bcs 5$
    3213 015354 100404                           bmi 6$
    3214                                5$:
    3215                                         error
       1 000404                         ..n      = ..n + 1
       2 015356 012737  000404  177570           mov #..n,@#ddisp
       3 015364 000000                           halt
    3216                                6$:
    3217                                ;
    3218                                ;
    3219                                ;
    3220                                tst137:
    3221 015366 012704  077777                   mov #077777,r4
    3222 015372 000257                           ccc
    3223 015374 005404                           neg r4
    3224 015376 102403                           bvs 1$
    3225 015400 103002                           bcc 1$
    3226 015402 001401                           beq 1$
    3227 015404 100404                           bmi 2$
    3228                                1$:
    3229                                         error
       1 000405                         ..n      = ..n + 1
       2 015406 012737  000405  177570           mov #..n,@#ddisp
       3 015414 000000                           halt
    3230                                2$:
    3231 015416 005004                           clr r4
    3232 015420 000257                           ccc
    3233 015422 005404                           neg r4
    3234 015424 100403                           bmi 3$
    3235 015426 103402                           bcs 3$
    3236 015430 102401                           bvs 3$
    3237 015432 001404                           beq 4$
    3238                                3$:
    3239                                         error
       1 000406                         ..n      = ..n + 1
       2 015434 012737  000406  177570           mov #..n,@#ddisp
       3 015442 000000                           halt
    3240                                4$:
    3241 015444 012704  077777                   mov #77777,r4
    3242 015450 012701  170000                   mov #170000,r1
    3243 015454 000257                           ccc
    3244 015456 020401                           cmp r4,r1
    3245 015460 102003                           bvc 5$
    3246 015462 103002                           bcc 5$
    3247 015464 001401                           beq 5$
    3248 015466 100404                           bmi 6$
    3249                                5$:
    3250                                         error
       1 000407                         ..n      = ..n + 1
       2 015470 012737  000407  177570           mov #..n,@#ddisp
       3 015476 000000                           halt
    3251                                6$:
    3252 015500 000257                           ccc
    3253 015502 005101                           com r1
    3254 015504 100403                           bmi 7$
    3255 015506 001402                           beq 7$
    3256 015510 103001                           bcc 7$
    3257 015512 102004                           bvc 8$
    3258                                7$:
    3259                                         error
       1 000410                         ..n      = ..n + 1
       2 015514 012737  000410  177570           mov #..n,@#ddisp
       3 015522 000000                           halt
    3260                                8$:
    3261 015524 000277                           scc
    3262 015526 005101                           com r1
    3263 015530 100404                           bmi 10$
    3264                                9$:
    3265                                         error
       1 000411                         ..n      = ..n + 1
       2 015532 012737  000411  177570           mov #..n,@#ddisp
       3 015540 000000                           halt
    3266                                10$:
    3267                                ;
    3268                                ;
    3269                                ;
    3270                                tst140:
    3271 015542 012704  077775                   mov #77775,r4
    3272 015546 000257                           ccc
    3273 015550 162704  137757                   sub #137757,r4
    3274 015554 102003                           bvc 1$
    3275 015556 100002                           bpl 1$
    3276 015560 001401                           beq 1$
    3277 015562 103404                           bcs 2$
    3278                                1$:
    3279                                         error
       1 000412                         ..n      = ..n + 1
       2 015564 012737  000412  177570           mov #..n,@#ddisp
       3 015572 000000                           halt
    3280                                2$:
    3281 015574 012704  000005                   mov #5,r4
    3282 015600 000257                           ccc
    3283 015602 162704  000012                   sub #12,r4
    3284 015606 103003                           bcc 3$
    3285 015610 102402                           bvs 3$
    3286 015612 001401                           beq 3$
    3287 015614 100404                           bmi 4$
    3288                                3$:
    3289                                         error
       1 000413                         ..n      = ..n + 1
       2 015616 012737  000413  177570           mov #..n,@#ddisp
       3 015624 000000                           halt
    3290                                4$:
    3291                                ;
    3292                                ;
    3293                                ;
    3294                                tst141:
    3295 015626 012704  100000                   mov #100000,r4
    3296 015632 000257                           ccc
    3297 015634 005604                           sbc r4
    3298 015636 100006                           bpl 1$
    3299 015640 102405                           bvs 1$
    3300 015642 000261                           sec
    3301 015644 005604                           sbc r4
    3302 015646 102002                           bvc 1$
    3303 015650 103401                           bcs 1$
    3304 015652 100004                           bpl 2$
    3305                                1$:
    3306                                         error
       1 000414                         ..n      = ..n + 1
       2 015654 012737  000414  177570           mov #..n,@#ddisp
       3 015662 000000                           halt
    3307                                2$:
    3308 015664 005004                           clr r4
    3309 015666 000277                           scc
    3310 015670 000241                           clc
    3311 015672 005604                           sbc r4
    3312 015674 103410                           bcs 3$
    3313 015676 102407                           bvs 3$
    3314 015700 001006                           bne 3$
    3315 015702 000261                           sec
    3316 015704 005604                           sbc r4
    3317 015706 103003                           bcc 3$
    3318 015710 102402                           bvs 3$
    3319 015712 001401                           beq 3$
    3320 015714 100404                           bmi 4$
    3321                                3$:
    3322                                         error
       1 000415                         ..n      = ..n + 1
       2 015716 012737  000415  177570           mov #..n,@#ddisp
       3 015724 000000                           halt
    3323                                4$:
    3324                                ;
    3325                                ;
    3326                                ;
    3327                                tst142:
    3328 015726 012704  060000                   mov #60000,r4
    3329 015732 000257                           ccc
    3330 015734 006104                           rol r4
    3331 015736 103402                           bcs 1$
    3332 015740 102001                           bvc 1$
    3333 015742 100404                           bmi 2$
    3334                                1$:
    3335                                         error
       1 000416                         ..n      = ..n + 1
       2 015744 012737  000416  177570           mov #..n,@#ddisp
       3 015752 000000                           halt
    3336                                2$:
    3337 015754 006104                           rol r4
    3338 015756 103002                           bcc 3$
    3339 015760 102401                           bvs 3$
    3340 015762 100404                           bmi 4$
    3341                                3$:
    3342                                         error
       1 000417                         ..n      = ..n + 1
       2 015764 012737  000417  177570           mov #..n,@#ddisp
       3 015772 000000                           halt
    3343                                4$:
    3344 015774 006104                           rol r4
    3345 015776 102003                           bvc 5$
    3346 016000 103002                           bcc 5$
    3347 016002 100401                           bmi 5$
    3348 016004 001004                           bne 6$
    3349                                5$:
    3350                                         error
       1 000420                         ..n      = ..n + 1
       2 016006 012737  000420  177570           mov #..n,@#ddisp
       3 016014 000000                           halt
    3351                                6$:
    3352 016016 006104                           rol r4
    3353 016020 102402                           bvs 7$
    3354 016022 103401                           bcs 7$
    3355 016024 100004                           bpl 8$
    3356                                7$:
    3357                                         error
       1 000421                         ..n      = ..n + 1
       2 016026 012737  000421  177570           mov #..n,@#ddisp
       3 016034 000000                           halt
    3358                                8$:
    3359                                ;
    3360                                ;
    3361                                ;
    3362                                tst143:
    3363 016036 012704  000003                   mov #3,r4
    3364 016042 000257                           ccc
    3365 016044 006004                           ror r4
    3366 016046 103002                           bcc 1$
    3367 016050 102001                           bvc 1$
    3368 016052 100004                           bpl 2$
    3369                                1$:
    3370                                         error
       1 000422                         ..n      = ..n + 1
       2 016054 012737  000422  177570           mov #..n,@#ddisp
       3 016062 000000                           halt
    3371                                2$:
    3372 016064 006004                           ror r4
    3373 016066 103002                           bcc 3$
    3374 016070 102401                           bvs 3$
    3375 016072 100404                           bmi 4$
    3376                                3$:
    3377                                         error
       1 000423                         ..n      = ..n + 1
       2 016074 012737  000423  177570           mov #..n,@#ddisp
       3 016102 000000                           halt
    3378                                4$:
    3379 016104 006004                           ror r4
    3380 016106 102002                           bvc 5$
    3381 016110 103401                           bcs 5$
    3382 016112 100404                           bmi 6$
    3383                                5$:
    3384                                         error
       1 000424                         ..n      = ..n + 1
       2 016114 012737  000424  177570           mov #..n,@#ddisp
       3 016122 000000                           halt
    3385                                6$:
    3386 016124 006004                           ror r4
    3387 016126 102402                           bvs 7$
    3388 016130 103401                           bcs 7$
    3389 016132 100004                           bpl 8$
    3390                                7$:
    3391                                         error
       1 000425                         ..n      = ..n + 1
       2 016134 012737  000425  177570           mov #..n,@#ddisp
       3 016142 000000                           halt
    3392                                8$:
    3393                                ;
    3394                                ;
    3395                                ;
    3396                                tst144:
    3397 016144 012701  052525                   mov #52525,r1
    3398 016150 000241                           clc
    3399 016152 006001                           ror r1
    3400 016154 006001                           ror r1
    3401 016156 006001                           ror r1
    3402 016160 103404                           bcs 1$
    3403                                         error
       1 000426                         ..n      = ..n + 1
       2 016162 012737  000426  177570           mov #..n,@#ddisp
       3 016170 000000                           halt
    3404                                1$:
    3405 016172 022701  045252                   cmp #45252,r1
    3406 016176 001404                           beq 2$
    3407                                         error
       1 000427                         ..n      = ..n + 1
       2 016200 012737  000427  177570           mov #..n,@#ddisp
       3 016206 000000                           halt
    3408                                2$:
    3409 016210 012701  125252                   mov #125252,r1
    3410 016214 000241                           clc
    3411 016216 006101                           rol r1
    3412 016220 006101                           rol r1
    3413 016222 006101                           rol r1
    3414 016224 103404                           bcs 3$
    3415                                         error
       1 000430                         ..n      = ..n + 1
       2 016226 012737  000430  177570           mov #..n,@#ddisp
       3 016234 000000                           halt
    3416                                3$:
    3417 016236 022701  052522                   cmp #052522,r1
    3418 016242 001404                           beq 4$
    3419                                         error
       1 000431                         ..n      = ..n + 1
       2 016244 012737  000431  177570           mov #..n,@#ddisp
       3 016252 000000                           halt
    3420                                4$:
    3421                                ;
    3422                                ;
    3423                                ;
    3424                                tst145:
    3425 016254 012704  060000                   mov #60000,r4
    3426 016260 000257                           ccc
    3427 016262 006304                           asl r4
    3428 016264 103402                           bcs 1$
    3429 016266 102001                           bvc 1$
    3430 016270 100404                           bmi 2$
    3431                                1$:
    3432                                         error
       1 000432                         ..n      = ..n + 1
       2 016272 012737  000432  177570           mov #..n,@#ddisp
       3 016300 000000                           halt
    3433                                2$:
    3434 016302 006304                           asl r4
    3435 016304 103002                           bcc 3$
    3436 016306 102401                           bvs 3$
    3437 016310 100404                           bmi 4$
    3438                                3$:
    3439                                         error
       1 000433                         ..n      = ..n + 1
       2 016312 012737  000433  177570           mov #..n,@#ddisp
       3 016320 000000                           halt
    3440                                4$:
    3441 016322 006304                           asl r4
    3442 016324 102003                           bvc 5$
    3443 016326 103002                           bcc 5$
    3444 016330 100401                           bmi 5$
    3445 016332 001404                           beq 6$
    3446                                5$:
    3447                                         error
       1 000434                         ..n      = ..n + 1
       2 016334 012737  000434  177570           mov #..n,@#ddisp
       3 016342 000000                           halt
    3448                                6$:
    3449 016344 006304                           asl r4
    3450 016346 102402                           bvs 7$
    3451 016350 103401                           bcs 7$
    3452 016352 100004                           bpl 8$
    3453                                7$:
    3454                                         error
       1 000435                         ..n      = ..n + 1
       2 016354 012737  000435  177570           mov #..n,@#ddisp
       3 016362 000000                           halt
    3455                                8$:
    3456                                ;
    3457                                ;
    3458                                ;
    3459                                tst146:
    3460 016364 012704  000341                   mov #341,r4
    3461 016370 000257                           ccc
    3462 016372 006204                           asr r4
    3463 016374 103002                           bcc 1$
    3464 016376 102001                           bvc 1$
    3465 016400 100004                           bpl 2$
    3466                                1$:
    3467                                         error
       1 000436                         ..n      = ..n + 1
       2 016402 012737  000436  177570           mov #..n,@#ddisp
       3 016410 000000                           halt
    3468                                2$:
    3469 016412 052704  100001                   bis #100001,r4
    3470 016416 006204                           asr r4
    3471 016420 103002                           bcc 3$
    3472 016422 102401                           bvs 3$
    3473 016424 100404                           bmi 4$
    3474                                3$:
    3475                                         error
       1 000437                         ..n      = ..n + 1
       2 016426 012737  000437  177570           mov #..n,@#ddisp
       3 016434 000000                           halt
    3476                                4$:
    3477 016436 006204                           asr r4
    3478 016440 102002                           bvc 5$
    3479 016442 103401                           bcs 5$
    3480 016444 100404                           bmi 6$
    3481                                5$:
    3482                                         error
       1 000440                         ..n      = ..n + 1
       2 016446 012737  000440  177570           mov #..n,@#ddisp
       3 016454 000000                           halt
    3483                                6$:
    3484 016456 006204                           asr r4
    3485 016460 102005                           bvc 7$
    3486 016462 103404                           bcs 7$
    3487 016464 100003                           bpl 7$
    3488 016466 022704  170016                   cmp #170016,r4
    3489 016472 001404                           beq 8$
    3490                                7$:
    3491                                         error
       1 000441                         ..n      = ..n + 1
       2 016474 012737  000441  177570           mov #..n,@#ddisp
       3 016502 000000                           halt
    3492                                8$:
    3493                                ;
    3494                                ;
    3495                                ;
    3496                                tst147:
    3497 016504 012704  123456                   mov #123456,r4
    3498 016510 010401                           mov r4,r1
    3499 016512 000257                           ccc
    3500 016514 006704                           sxt r4
    3501 016516 103403                           bcs 1$
    3502 016520 100402                           bmi 1$
    3503 016522 102401                           bvs 1$
    3504 016524 001404                           beq 2$
    3505                                1$:
    3506                                         error
       1 000442                         ..n      = ..n + 1
       2 016526 012737  000442  177570           mov #..n,@#ddisp
       3 016534 000000                           halt
    3507                                2$:
    3508 016536 010104                           mov r1,r4
    3509 016540 000277                           scc
    3510 016542 006704                           sxt r4
    3511 016544 001405                           beq 3$
    3512 016546 100004                           bpl 3$
    3513 016550 103003                           bcc 3$
    3514 016552 102402                           bvs 3$
    3515 016554 005104                           com r4
    3516 016556 001404                           beq 4$
    3517                                3$:
    3518                                         error
       1 000443                         ..n      = ..n + 1
       2 016560 012737  000443  177570           mov #..n,@#ddisp
       3 016566 000000                           halt
    3519                                4$:
    3520                                ;
    3521                                ;
    3522                                ;
    3523                                tst150:
    3524 016570 012704  123456                   mov #123456,r4
    3525 016574 012701  052525                   mov #52525,r1
    3526 016600 000257                           ccc
    3527 016602 074104                           xor r1,r4
    3528 016604 102403                           bvs 1$
    3529 016606 001402                           beq 1$
    3530 016610 103401                           bcs 1$
    3531 016612 100404                           bmi 2$
    3532                                1$:
    3533                                         error
       1 000444                         ..n      = ..n + 1
       2 016614 012737  000444  177570           mov #..n,@#ddisp
       3 016622 000000                           halt
    3534                                2$:
    3535 016624 012701  125252                   mov #125252,r1
    3536 016630 000277                           scc
    3537 016632 074104                           xor r1,r4
    3538 016634 100403                           bmi 3$
    3539 016636 001402                           beq 3$
    3540 016640 103001                           bcc 3$
    3541 016642 102004                           bvc 4$
    3542                                3$:
    3543                                         error
       1 000445                         ..n      = ..n + 1
       2 016644 012737  000445  177570           mov #..n,@#ddisp
       3 016652 000000                           halt
    3544                                4$:
    3545 016654 074404                           xor r4,r4
    3546 016656 102406                           bvs 5$
    3547 016660 100405                           bmi 5$
    3548 016662 103004                           bcc 5$
    3549 016664 001003                           bne 5$
    3550 016666 022704  000000                   cmp #0,r4
    3551 016672 001404                           beq 6$
    3552                                5$:
    3553                                         error
       1 000446                         ..n      = ..n + 1
       2 016674 012737  000446  177570           mov #..n,@#ddisp
       3 016702 000000                           halt
    3554                                6$:
    3555                                ;
    3556                                ;
    3557                                ;
    3558                                tst151:
    3559 016704 005004                           clr r4
    3560 016706 000257                           ccc
    3561 016710 000271                           .word 271
    3562 016712 006704                           sxt r4
    3563 016714 102405                           bvs 1$
    3564 016716 100004                           bpl 1$
    3565 016720 001403                           beq 1$
    3566 016722 103002                           bcc 1$
    3567 016724 005204                           inc r4
    3568 016726 001404                           beq 2$
    3569                                1$:
    3570                                         error
       1 000447                         ..n      = ..n + 1
       2 016730 012737  000447  177570           mov #..n,@#ddisp
       3 016736 000000                           halt
    3571                                2$:
    3572 016740 000277                           scc
    3573 016742 000250                           cln
    3574 016744 005004                           clr r4
    3575 016746 012714  000055                   mov #55,(r4)
    3576 016752 006714                           sxt (r4)
    3577 016754 001005                           bne 3$
    3578 016756 102404                           bvs 3$
    3579 016760 103403                           bcs 3$
    3580 016762 100402                           bmi 3$
    3581 016764 005714                           tst (r4)
    3582 016766 001404                           beq 4$
    3583                                3$:
    3584                                         error
       1 000450                         ..n      = ..n + 1
       2 016770 012737  000450  177570           mov #..n,@#ddisp
       3 016776 000000                           halt
    3585                                4$:
    3586 017000 012700  177777                   mov #-1,r0
    3587 017004 005004                           clr r4
    3588 017006 006700                           sxt r0
    3589 017010 005700                           tst r0
    3590 017012 001404                           beq 5$
    3591                                         error
       1 000451                         ..n      = ..n + 1
       2 017014 012737  000451  177570           mov #..n,@#ddisp
       3 017022 000000                           halt
    3592                                5$:
    3593 017024 005000                           clr r0
    3594 017026 012700  177777                   mov #-1,r0
    3595 017032 006700                           sxt r0
    3596 017034 022700  177777                   cmp #-1,r0
    3597 017040 001404                           beq 6$
    3598                                         error
       1 000452                         ..n      = ..n + 1
       2 017042 012737  000452  177570           mov #..n,@#ddisp
       3 017050 000000                           halt
    3599                                6$:
    3600                                ;
    3601                                ;
    3602                                ;
    3603                                tst152:
    3604 017052 012701  007643                   mov #7643,r1
    3605 017056 012704  133333                   mov #133333,r4
    3606 017062 000277                           scc
    3607 017064 074401                           xor r4,r1
    3608 017066 100006                           bpl 1$
    3609 017070 001405                           beq 1$
    3610 017072 103004                           bcc 1$
    3611 017074 102403                           bvs 1$
    3612 017076 020127  134570                   cmp r1,#134570
    3613 017102 001404                           beq 2$
    3614                                1$:
    3615                                         error
       1 000453                         ..n      = ..n + 1
       2 017104 012737  000453  177570           mov #..n,@#ddisp
       3 017112 000000                           halt
    3616                                2$:
    3617 017114 010102                           mov r1,r2
    3618 017116 000257                           ccc
    3619 017120 074402                           xor r4,r2
    3620 017122 100405                           bmi 3$
    3621 017124 102404                           bvs 3$
    3622 017126 103403                           bcs 3$
    3623 017130 020227  007643                   cmp r2,#7643
    3624 017134 001404                           beq 4$
    3625                                3$:
    3626                                         error
       1 000454                         ..n      = ..n + 1
       2 017136 012737  000454  177570           mov #..n,@#ddisp
       3 017144 000000                           halt
    3627                                4$:
    3628                                ;
    3629                                ;
    3630                                ;
    3631                                tst153:
    3632 017146 012704  000555                   mov #555,r4
    3633 017152 000277                           scc
    3634                                1$:
    3635 017154 103020                           bcc 2$
    3636 017156 102017                           bvc 2$
    3637 017160 100016                           bpl 2$
    3638 017162 001015                           bne 2$
    3639 017164 077405                           sob r4,1$
    3640 017166 103005                           bcc 3$
    3641 017170 102004                           bvc 3$
    3642 017172 100003                           bpl 3$
    3643 017174 001002                           bne 3$
    3644 017176 000167  000024                   jmp 4$
    3645                                3$:
    3646                                         error
       1 000455                         ..n      = ..n + 1
       2 017202 012737  000455  177570           mov #..n,@#ddisp
       3 017210 000000                           halt
    3647 017212 000167  000010                   jmp 4$           ; ??
    3648                                2$:
    3649                                         error
       1 000456                         ..n      = ..n + 1
       2 017216 012737  000456  177570           mov #..n,@#ddisp
       3 017224 000000                           halt
    3650                                4$:
    3651 017226 020427  000000                   cmp r4,#0
    3652 017232 001404                           beq 5$
    3653                                         error
       1 000457                         ..n      = ..n + 1
       2 017234 012737  000457  177570           mov #..n,@#ddisp
       3 017242 000000                           halt
    3654                                5$:
    3655                                ;
    3656                                ;
    3657                                ;
    3658                                tst154:
    3659 017244 012706  000676                   mov #stbot-100,sp
    3660 017250 012737  125252  000774           mov #125252,@#stbot-2
    3661 017256 012705  017302                   mov #1$,r5
    3662 017262 012746  006437                   mov #mark+37,-(sp)
    3663 017266 000277                           scc
    3664 017270 000116                           jmp (sp)
    3665                                         error
       1 000460                         ..n      = ..n + 1
       2 017272 012737  000460  177570           mov #..n,@#ddisp
       3 017300 000000                           halt
    3666                                1$:
    3667 017302 101002                           bhi 2$
    3668 017304 100001                           bpl 2$
    3669 017306 102404                           bvs 3$
    3670                                2$:
    3671                                         error
       1 000461                         ..n      = ..n + 1
       2 017310 012737  000461  177570           mov #..n,@#ddisp
       3 017316 000000                           halt
    3672                                3$:
    3673 017320 022705  125252                   cmp #125252,r5
    3674 017324 001404                           beq 4$
    3675                                         error
       1 000462                         ..n      = ..n + 1
       2 017326 012737  000462  177570           mov #..n,@#ddisp
       3 017334 000000                           halt
    3676                                4$:
    3677 017336 020627  000776                   cmp sp,#stbot
    3678 017342 001404                           beq 15$
    3679                                         error
       1 000463                         ..n      = ..n + 1
       2 017344 012737  000463  177570           mov #..n,@#ddisp
       3 017352 000000                           halt
    3680                                15$:
    3681 017354 012746  052525                   mov #52525,-(sp)
    3682 017360 012746  006400                   mov #6400,-(sp)
    3683 017364 010605                           mov sp,r5
    3684 017366 004767  000004                   jsr pc,5$
    3685                                6$:
    3686 017372 000167  000014                   jmp 16$
    3687                                5$:
    3688 017376 000257                           ccc
    3689 017400 000205                           rts r5
    3690                                         error
       1 000464                         ..n      = ..n + 1
       2 017402 012737  000464  177570           mov #..n,@#ddisp
       3 017410 000000                           halt
    3691                                16$:
    3692 017412 101402                           blos 7$
    3693 017414 100401                           bmi 7$
    3694 017416 102004                           bvc 8$
    3695                                7$:
    3696                                         error
       1 000465                         ..n      = ..n + 1
       2 017420 012737  000465  177570           mov #..n,@#ddisp
       3 017426 000000                           halt
    3697                                8$:
    3698 017430 020627  000776                   cmp r6,#stbot
    3699 017434 001404                           beq 9$
    3700                                         error
       1 000466                         ..n      = ..n + 1
       2 017436 012737  000466  177570           mov #..n,@#ddisp
       3 017444 000000                           halt
    3701                                9$:
    3702 017446 022705  052525                   cmp #52525,r5
    3703 017452 001404                           beq 10$
    3704                                         error
       1 000467                         ..n      = ..n + 1
       2 017454 012737  000467  177570           mov #..n,@#ddisp
       3 017462 000000                           halt
    3705                                10$:
    3706                                ;
    3707                                ;
    3708                                ;
    3709                                tst155:
    3710 017464 012737  030017  177776           mov #30017,@#177776
    3711 017472 000257                           ccc
    3712 017474 022737  030000  177776           cmp #30000,@#177776
    3713 017502 001404                           beq 1$
    3714                                         error
       1 000470                         ..n      = ..n + 1
       2 017504 012737  000470  177570           mov #..n,@#ddisp
       3 017512 000000                           halt
    3715                                1$:
    3716                                ;
    3717                                ;
    3718                                ;
    3719                                tst156:
    3720 017514 012737  030017  177776           mov #30017,@#177776
    3721 017522 000241                           clc
    3722 017524 022737  030016  177776           cmp #30016,@#177776
    3723 017532 001404                           beq 1$
    3724                                         error
       1 000471                         ..n      = ..n + 1
       2 017534 012737  000471  177570           mov #..n,@#ddisp
       3 017542 000000                           halt
    3725                                1$:
    3726                                ;
    3727                                ;
    3728                                ;
    3729                                tst157:
    3730 017544 012737  030017  177776           mov #30017,@#177776
    3731 017552 000250                           cln
    3732 017554 022737  030007  177776           cmp #30007,@#177776
    3733 017562 001404                           beq 1$
    3734                                         error
       1 000472                         ..n      = ..n + 1
       2 017564 012737  000472  177570           mov #..n,@#ddisp
       3 017572 000000                           halt
    3735                                1$:
    3736                                ;
    3737                                ;
    3738                                ;
    3739                                tst160:
    3740 017574 012737  030017  177776           mov #30017,@#177776
    3741 017602 000242                           clv
    3742 017604 022737  030015  177776           cmp #30015,@#177776
    3743 017612 001404                           beq 1$
    3744                                         error
       1 000473                         ..n      = ..n + 1
       2 017614 012737  000473  177570           mov #..n,@#ddisp
       3 017622 000000                           halt
    3745                                1$:
    3746                                ;
    3747                                ;
    3748                                ;
    3749                                tst161:
    3750 017624 012737  030017  177776           mov #30017,@#177776
    3751 017632 000244                           clz
    3752 017634 022737  030013  177776           cmp #30013,@#177776
    3753 017642 001404                           beq 1$
    3754                                         error
       1 000474                         ..n      = ..n + 1
       2 017644 012737  000474  177570           mov #..n,@#ddisp
       3 017652 000000                           halt
    3755                                1$:
    3756                                ;
    3757                                ;
    3758                                ;
    3759                                tst162:
    3760 017654 012737  030000  177776           mov #30000,@#177776
    3761 017662 000277                           scc
    3762 017664 022737  030017  177776           cmp #30017,@#177776
    3763 017672 001404                           beq 1$
    3764                                         error
       1 000475                         ..n      = ..n + 1
       2 017674 012737  000475  177570           mov #..n,@#ddisp
       3 017702 000000                           halt
    3765                                1$:
    3766                                ;
    3767                                ;
    3768                                ;
    3769                                tst163:
    3770 017704 012737  030000  177776           mov #30000,@#177776
    3771 017712 000261                           sec
    3772 017714 022737  030001  177776           cmp #30001,@#177776
    3773 017722 001404                           beq 1$
    3774                                         error
       1 000476                         ..n      = ..n + 1
       2 017724 012737  000476  177570           mov #..n,@#ddisp
       3 017732 000000                           halt
    3775                                1$:
    3776                                ;
    3777                                ;
    3778                                ;
    3779                                tst164:
    3780 017734 012737  030000  177776           mov #30000,@#177776
    3781 017742 000270                           sen
    3782 017744 022737  030010  177776           cmp #30010,@#177776
    3783 017752 001404                           beq 1$
    3784                                         error
       1 000477                         ..n      = ..n + 1
       2 017754 012737  000477  177570           mov #..n,@#ddisp
       3 017762 000000                           halt
    3785                                1$:
    3786                                ;
    3787                                ;
    3788                                ;
    3789                                tst165:
    3790 017764 012737  030000  177776           mov #30000,@#177776
    3791 017772 000262                           sev
    3792 017774 022737  030002  177776           cmp #30002,@#177776
    3793 020002 001404                           beq 1$
    3794                                         error
       1 000500                         ..n      = ..n + 1
       2 020004 012737  000500  177570           mov #..n,@#ddisp
       3 020012 000000                           halt
    3795                                1$:
    3796                                ;
    3797                                ;
    3798                                ;
    3799                                tst166:
    3800 020014 012737  030000  177776           mov #30000,@#177776
    3801 020022 000264                           sez
    3802 020024 022737  030004  177776           cmp #30004,@#177776
    3803 020032 001404                           beq 1$
    3804                                         error
       1 000501                         ..n      = ..n + 1
       2 020034 012737  000501  177570           mov #..n,@#ddisp
       3 020042 000000                           halt
    3805                                1$:
    3806                                ;
    3807                                ;
    3808                                ;
    3809                                tst167:
    3810 020044 012737  030000  177776           mov #30000,@#177776
    3811 020052 000277                           scc
    3812 020054 000243                           .word 243
    3813 020056 022737  030014  177776           cmp #30014,@#177776
    3814 020064 001404                           beq 1$
    3815                                         error
       1 000502                         ..n      = ..n + 1
       2 020066 012737  000502  177570           mov #..n,@#ddisp
       3 020074 000000                           halt
    3816                                1$:
    3817 020076 000277                           scc
    3818 020100 000245                           .word 245
    3819 020102 022737  030012  177776           cmp #30012,@#177776
    3820 020110 001404                           beq 2$
    3821                                         error
       1 000503                         ..n      = ..n + 1
       2 020112 012737  000503  177570           mov #..n,@#ddisp
       3 020120 000000                           halt
    3822                                2$:
    3823 020122 000277                           scc
    3824 020124 000246                           .word 246
    3825 020126 022737  030011  177776           cmp #30011,@#177776
    3826 020134 001404                           beq 3$
    3827                                         error
       1 000504                         ..n      = ..n + 1
       2 020136 012737  000504  177570           mov #..n,@#ddisp
       3 020144 000000                           halt
    3828                                3$:
    3829 020146 000277                           scc
    3830 020150 000247                           .word 247
    3831 020152 022737  030010  177776           cmp #30010,@#177776
    3832 020160 001404                           beq 4$
    3833                                         error
       1 000505                         ..n      = ..n + 1
       2 020162 012737  000505  177570           mov #..n,@#ddisp
       3 020170 000000                           halt
    3834                                4$:
    3835 020172 000277                           scc
    3836 020174 000251                           .word 251
    3837 020176 022737  030006  177776           cmp #30006,@#177776
    3838 020204 001404                           beq 5$
    3839                                         error
       1 000506                         ..n      = ..n + 1
       2 020206 012737  000506  177570           mov #..n,@#ddisp
       3 020214 000000                           halt
    3840                                5$:
    3841 020216 000277                           scc
    3842 020220 000252                           .word 252
    3843 020222 022737  030005  177776           cmp #30005,@#177776
    3844 020230 001404                           beq 6$
    3845                                         error
       1 000507                         ..n      = ..n + 1
       2 020232 012737  000507  177570           mov #..n,@#ddisp
       3 020240 000000                           halt
    3846                                6$:
    3847 020242 000277                           scc
    3848 020244 000253                           .word 253
    3849 020246 022737  030004  177776           cmp #30004,@#177776
    3850 020254 001404                           beq 7$
    3851                                         error
       1 000510                         ..n      = ..n + 1
       2 020256 012737  000510  177570           mov #..n,@#ddisp
       3 020264 000000                           halt
    3852                                7$:
    3853 020266 000277                           scc
    3854 020270 000254                           .word 254
    3855 020272 022737  030003  177776           cmp #30003,@#177776
    3856 020300 001404                           beq 8$
    3857                                         error
       1 000511                         ..n      = ..n + 1
       2 020302 012737  000511  177570           mov #..n,@#ddisp
       3 020310 000000                           halt
    3858                                8$:
    3859 020312 000277                           scc
    3860 020314 000255                           .word 255
    3861 020316 022737  030002  177776           cmp #30002,@#177776
    3862 020324 001404                           beq 9$
    3863                                         error
       1 000512                         ..n      = ..n + 1
       2 020326 012737  000512  177570           mov #..n,@#ddisp
       3 020334 000000                           halt
    3864                                9$:
    3865 020336 000277                           scc
    3866 020340 000256                           .word 256
    3867 020342 022737  030001  177776           cmp #30001,@#177776
    3868 020350 001404                           beq 10$
    3869                                         error
       1 000513                         ..n      = ..n + 1
       2 020352 012737  000513  177570           mov #..n,@#ddisp
       3 020360 000000                           halt
    3870                                10$:
    3871                                ;
    3872                                ;
    3873                                ;
    3874                                tst170:
    3875 020362 012737  030000  177776           mov #30000,@#177776
    3876 020370 000263                           .word 263
    3877 020372 022737  030003  177776           cmp #30003,@#177776
    3878 020400 001404                           beq 1$
    3879                                         error
       1 000514                         ..n      = ..n + 1
       2 020402 012737  000514  177570           mov #..n,@#ddisp
       3 020410 000000                           halt
    3880                                1$:
    3881 020412 000257                           ccc
    3882 020414 000265                           .word 265
    3883 020416 022737  030005  177776           cmp #30005,@#177776
    3884 020424 001404                           beq 2$
    3885                                         error
       1 000515                         ..n      = ..n + 1
       2 020426 012737  000515  177570           mov #..n,@#ddisp
       3 020434 000000                           halt
    3886                                2$:
    3887 020436 000257                           ccc
    3888 020440 000266                           .word 266
    3889 020442 022737  030006  177776           cmp #30006,@#177776
    3890 020450 001404                           beq 3$
    3891                                         error
       1 000516                         ..n      = ..n + 1
       2 020452 012737  000516  177570           mov #..n,@#ddisp
       3 020460 000000                           halt
    3892                                3$:
    3893 020462 000257                           ccc
    3894 020464 000267                           .word 267
    3895 020466 022737  030007  177776           cmp #30007,@#177776
    3896 020474 001404                           beq 4$
    3897                                         error
       1 000517                         ..n      = ..n + 1
       2 020476 012737  000517  177570           mov #..n,@#ddisp
       3 020504 000000                           halt
    3898                                4$:
    3899 020506 000257                           ccc
    3900 020510 000271                           .word 271
    3901 020512 022737  030011  177776           cmp #30011,@#177776
    3902 020520 001404                           beq 5$
    3903                                         error
       1 000520                         ..n      = ..n + 1
       2 020522 012737  000520  177570           mov #..n,@#ddisp
       3 020530 000000                           halt
    3904                                5$:
    3905 020532 000257                           ccc
    3906 020534 000272                           .word 272
    3907 020536 022737  030012  177776           cmp #30012,@#177776
    3908 020544 001404                           beq 6$
    3909                                         error
       1 000521                         ..n      = ..n + 1
       2 020546 012737  000521  177570           mov #..n,@#ddisp
       3 020554 000000                           halt
    3910                                6$:
    3911 020556 000257                           ccc
    3912 020560 000273                           .word 273
    3913 020562 022737  030013  177776           cmp #30013,@#177776
    3914 020570 001404                           beq 7$
    3915                                         error
       1 000522                         ..n      = ..n + 1
       2 020572 012737  000522  177570           mov #..n,@#ddisp
       3 020600 000000                           halt
    3916                                7$:
    3917 020602 000257                           ccc
    3918 020604 000274                           .word 274
    3919 020606 022737  030014  177776           cmp #30014,@#177776
    3920 020614 001404                           beq 8$
    3921                                         error
       1 000523                         ..n      = ..n + 1
       2 020616 012737  000523  177570           mov #..n,@#ddisp
       3 020624 000000                           halt
    3922                                8$:
    3923 020626 000257                           ccc
    3924 020630 000275                           .word 275
    3925 020632 022737  030015  177776           cmp #30015,@#177776
    3926 020640 001404                           beq 9$
    3927                                         error
       1 000524                         ..n      = ..n + 1
       2 020642 012737  000524  177570           mov #..n,@#ddisp
       3 020650 000000                           halt
    3928                                9$:
    3929 020652 000257                           ccc
    3930 020654 000276                           .word 276
    3931 020656 022737  030016  177776           cmp #30016,@#177776
    3932 020664 001404                           beq 10$
    3933                                         error
       1 000525                         ..n      = ..n + 1
       2 020666 012737  000525  177570           mov #..n,@#ddisp
       3 020674 000000                           halt
    3934                                10$:
    3935                                ;
    3936                                ;
    3937                                ;
    3938                                tst171:
    3939 020676 000257                           ccc
    3940 020700 002004                           bge 1$
    3941                                         error
       1 000526                         ..n      = ..n + 1
       2 020702 012737  000526  177570           mov #..n,@#ddisp
       3 020710 000000                           halt
    3942                                1$:
    3943 020712 003004                           bgt 2$
    3944                                         error
       1 000527                         ..n      = ..n + 1
       2 020714 012737  000527  177570           mov #..n,@#ddisp
       3 020722 000000                           halt
    3945                                2$:
    3946 020724 003401                           ble 3$
    3947 020726 000404                           br 4$
    3948                                3$:
    3949                                         error
       1 000530                         ..n      = ..n + 1
       2 020730 012737  000530  177570           mov #..n,@#ddisp
       3 020736 000000                           halt
    3950                                4$:
    3951 020740 002401                           blt 5$
    3952 020742 000404                           br 6$
    3953                                5$:
    3954                                         error
       1 000531                         ..n      = ..n + 1
       2 020744 012737  000531  177570           mov #..n,@#ddisp
       3 020752 000000                           halt
    3955                                6$:
    3956 020754 000264                           sez
    3957 020756 003404                           ble 7$
    3958                                         error
       1 000532                         ..n      = ..n + 1
       2 020760 012737  000532  177570           mov #..n,@#ddisp
       3 020766 000000                           halt
    3959                                7$:
    3960 020770 003001                           bgt 8$
    3961 020772 000404                           br 9$
    3962                                8$:
    3963                                         error
       1 000533                         ..n      = ..n + 1
       2 020774 012737  000533  177570           mov #..n,@#ddisp
       3 021002 000000                           halt
    3964                                9$:
    3965 021004 000257                           ccc
    3966 021006 000270                           sen
    3967 021010 002404                           blt 10$
    3968                                         error
       1 000534                         ..n      = ..n + 1
       2 021012 012737  000534  177570           mov #..n,@#ddisp
       3 021020 000000                           halt
    3969                                10$:
    3970 021022 003404                           ble 11$
    3971                                         error
       1 000535                         ..n      = ..n + 1
       2 021024 012737  000535  177570           mov #..n,@#ddisp
       3 021032 000000                           halt
    3972                                11$:
    3973 021034 002001                           bge 12$
    3974 021036 000404                           br 13$
    3975                                12$:
    3976                                         error
       1 000536                         ..n      = ..n + 1
       2 021040 012737  000536  177570           mov #..n,@#ddisp
       3 021046 000000                           halt
    3977                                13$:
    3978 021050 003001                           bgt 14$
    3979 021052 000404                           br 15$
    3980                                14$:
    3981                                         error
       1 000537                         ..n      = ..n + 1
       2 021054 012737  000537  177570           mov #..n,@#ddisp
       3 021062 000000                           halt
    3982                                15$:
    3983 021064 000257                           ccc
    3984 021066 000262                           sev
    3985 021070 003404                           ble 16$
    3986                                         error
       1 000540                         ..n      = ..n + 1
       2 021072 012737  000540  177570           mov #..n,@#ddisp
       3 021100 000000                           halt
    3987                                16$:
    3988 021102 002404                           blt 17$
    3989                                         error
       1 000541                         ..n      = ..n + 1
       2 021104 012737  000541  177570           mov #..n,@#ddisp
       3 021112 000000                           halt
    3990                                17$:
    3991 021114 002001                           bge 18$
    3992 021116 000404                           br 19$
    3993                                18$:
    3994                                         error
       1 000542                         ..n      = ..n + 1
       2 021120 012737  000542  177570           mov #..n,@#ddisp
       3 021126 000000                           halt
    3995                                19$:
    3996 021130 003001                           bgt 20$
    3997 021132 000404                           br 21$
    3998                                20$:
    3999                                         error
       1 000543                         ..n      = ..n + 1
       2 021134 012737  000543  177570           mov #..n,@#ddisp
       3 021142 000000                           halt
    4000                                21$:
    4001 021144 000257                           ccc
    4002 021146 000272                           .word 272
    4003 021150 002004                           bge 22$
    4004                                         error
       1 000544                         ..n      = ..n + 1
       2 021152 012737  000544  177570           mov #..n,@#ddisp
       3 021160 000000                           halt
    4005                                22$:
    4006 021162 003004                           bgt 23$
    4007                                         error
       1 000545                         ..n      = ..n + 1
       2 021164 012737  000545  177570           mov #..n,@#ddisp
       3 021172 000000                           halt
    4008                                23$:
    4009 021174 003401                           ble 24$
    4010 021176 000404                           br 25$
    4011                                24$:
    4012                                         error
       1 000546                         ..n      = ..n + 1
       2 021200 012737  000546  177570           mov #..n,@#ddisp
       3 021206 000000                           halt
    4013                                25$:
    4014 021210 002401                           blt 26$
    4015 021212 000404                           br 27$
    4016                                26$:
    4017                                         error
       1 000547                         ..n      = ..n + 1
       2 021214 012737  000547  177570           mov #..n,@#ddisp
       3 021222 000000                           halt
    4018                                27$:
    4019                                ;
    4020                                ;
    4021                                ;
    4022                                tst172:
    4023 021224 012737  030000  177776           mov #30000,@#177776
    4024 021232 012700  000001                   mov #1,r0
    4025 021236 012701  000002                   mov #2,r1
    4026 021242 012702  000003                   mov #3,r2
    4027 021246 012703  000004                   mov #4,r3
    4028 021252 012704  000005                   mov #5,r4
    4029 021256 012705  000006                   mov #6,r5
    4030 021262 010637  051304                   mov r6,@#sloc00
    4031 021266 012737  030017  051312           mov #30017,@#expdat
    4032 021274 000277                           scc
    4033 021276 000240                           nop
    4034 021300 000240                           nop
    4035 021302 000240                           nop
    4036 021304 004767  000062                   jsr pc,t114
    4037 021310 020637  051304                   cmp r6,@#sloc00
    4038 021314 001404                           beq 1$
    4039                                         error
       1 000550                         ..n      = ..n + 1
       2 021316 012737  000550  177570           mov #..n,@#ddisp
       3 021324 000000                           halt
    4040                                1$:
    4041 021326 012737  030000  051312           mov #30000,@#expdat
    4042 021334 000257                           ccc
    4043 021336 000260                           .word 260
    4044 021340 000260                           .word 260
    4045 021342 000260                           .word 260
    4046 021344 004767  000022                   jsr pc,t114
    4047 021350 020637  051304                   cmp r6,@#sloc00
    4048 021354 001404                           beq 2$
    4049                                         error
       1 000551                         ..n      = ..n + 1
       2 021356 012737  000551  177570           mov #..n,@#ddisp
       3 021364 000000                           halt
    4050                                2$:
    4051 021366 000167  000146                   jmp finnop
    4052                                t114:
    4053 021372 023737  051312  177776           cmp @#expdat,@#177776
    4054 021400 001404                           beq ta114
    4055                                ;         mov r0,400       ???????
    4056                                         error
       1 000552                         ..n      = ..n + 1
       2 021402 012737  000552  177570           mov #..n,@#ddisp
       3 021410 000000                           halt
    4057                                ;         mov 400,r0       ???????
    4058                                ta114:
    4059 021412 022700  000001                   cmp #1,r0
    4060 021416 001404                           beq tb114
    4061                                         error
       1 000553                         ..n      = ..n + 1
       2 021420 012737  000553  177570           mov #..n,@#ddisp
       3 021426 000000                           halt
    4062                                tb114:
    4063 021430 022701  000002                   cmp #2,r1
    4064 021434 001404                           beq tc114
    4065                                         error
       1 000554                         ..n      = ..n + 1
       2 021436 012737  000554  177570           mov #..n,@#ddisp
       3 021444 000000                           halt
    4066                                tc114:
    4067 021446 022702  000003                   cmp #3,r2
    4068 021452 001404                           beq td114
    4069                                         error
       1 000555                         ..n      = ..n + 1
       2 021454 012737  000555  177570           mov #..n,@#ddisp
       3 021462 000000                           halt
    4070                                td114:
    4071 021464 022703  000004                   cmp #4,r3
    4072 021470 001404                           beq tf114
    4073                                         error
       1 000556                         ..n      = ..n + 1
       2 021472 012737  000556  177570           mov #..n,@#ddisp
       3 021500 000000                           halt
    4074                                tf114:
    4075 021502 022704  000005                   cmp #5,r4
    4076 021506 001404                           beq tg114
    4077                                         error
       1 000557                         ..n      = ..n + 1
       2 021510 012737  000557  177570           mov #..n,@#ddisp
       3 021516 000000                           halt
    4078                                tg114:
    4079 021520 022705  000006                   cmp #6,r5
    4080 021524 001404                           beq th114
    4081                                         error
       1 000560                         ..n      = ..n + 1
       2 021526 012737  000560  177570           mov #..n,@#ddisp
       3 021534 000000                           halt
    4082                                th114:
    4083 021536 000207                           rts pc
    4084                                finnop:
    4085                                ;
    4086                                ;
    4087                                ;
    4088                                tst173:
    4089 021540 005000                           clr r0
    4090 021542 005001                           clr r1
    4091 021544 005002                           clr r2
    4092 021546 005003                           clr r3
    4093 021550 005004                           clr r4
    4094 021552 005005                           clr r5
    4095 021554 012737  004000  177776           mov #4000,@#ps
    4096 021562 032737  004000  177776           bit #4000,@#ps
    4097 021570 001004                           bne 1$
    4098                                         error
       1 000561                         ..n      = ..n + 1
       2 021572 012737  000561  177570           mov #..n,@#ddisp
       3 021600 000000                           halt
    4099                                1$:
    4100 021602 012700  177777                   mov #177777,r0
    4101 021606 010001                           mov r0,r1
    4102 021610 010102                           mov r1,r2
    4103 021612 010203                           mov r2,r3
    4104 021614 010304                           mov r3,r4
    4105 021616 010405                           mov r4,r5
    4106 021620 042737  004000  177776           bic #4000,@#ps
    4107 021626 032737  004000  177776           bit #4000,@#ps
    4108 021634 001404                           beq 2$
    4109                                         error
       1 000562                         ..n      = ..n + 1
       2 021636 012737  000562  177570           mov #..n,@#ddisp
       3 021644 000000                           halt
    4110                                2$:
    4111 021646 005700                           tst r0
    4112 021650 001404                           beq 3$
    4113                                         error
       1 000563                         ..n      = ..n + 1
       2 021652 012737  000563  177570           mov #..n,@#ddisp
       3 021660 000000                           halt
    4114                                3$:
    4115 021662 005701                           tst r1
    4116 021664 001404                           beq 4$
    4117                                         error
       1 000564                         ..n      = ..n + 1
       2 021666 012737  000564  177570           mov #..n,@#ddisp
       3 021674 000000                           halt
    4118                                4$:
    4119 021676 005702                           tst r2
    4120 021700 001404                           beq 5$
    4121                                         error
       1 000565                         ..n      = ..n + 1
       2 021702 012737  000565  177570           mov #..n,@#ddisp
       3 021710 000000                           halt
    4122                                5$:
    4123 021712 005703                           tst r3
    4124 021714 001404                           beq 6$
    4125                                         error
       1 000566                         ..n      = ..n + 1
       2 021716 012737  000566  177570           mov #..n,@#ddisp
       3 021724 000000                           halt
    4126                                6$:
    4127 021726 005704                           tst r4
    4128 021730 001404                           beq 7$
    4129                                         error
       1 000567                         ..n      = ..n + 1
       2 021732 012737  000567  177570           mov #..n,@#ddisp
       3 021740 000000                           halt
    4130                                7$:
    4131 021742 005705                           tst r5
    4132 021744 001404                           beq 8$
    4133                                         error
       1 000570                         ..n      = ..n + 1
       2 021746 012737  000570  177570           mov #..n,@#ddisp
       3 021754 000000                           halt
    4134                                8$:
    4135 021756 012737  004000  177776           mov #4000,@#ps
    4136 021764 005000                           clr r0
    4137 021766 005001                           clr r1
    4138 021770 005002                           clr r2
    4139 021772 005003                           clr r3
    4140 021774 005004                           clr r4
    4141 021776 005005                           clr r5
    4142 022000 042737  004000  177776           bic #4000,@#ps
    4143 022006 012700  177777                   mov #177777,r0
    4144 022012 010001                           mov r0,r1
    4145 022014 010102                           mov r1,r2
    4146 022016 010203                           mov r2,r3
    4147 022020 010304                           mov r3,r4
    4148 022022 010405                           mov r4,r5
    4149 022024 052737  004000  177776           bis #4000,@#ps
    4150 022032 005700                           tst r0
    4151 022034 001404                           beq 9$
    4152                                         error
       1 000571                         ..n      = ..n + 1
       2 022036 012737  000571  177570           mov #..n,@#ddisp
       3 022044 000000                           halt
    4153                                9$:
    4154 022046 005701                           tst r1
    4155 022050 001404                           beq 10$
    4156                                         error
       1 000572                         ..n      = ..n + 1
       2 022052 012737  000572  177570           mov #..n,@#ddisp
       3 022060 000000                           halt
    4157                                10$:
    4158 022062 005702                           tst r2
    4159 022064 001404                           beq 11$
    4160                                         error
       1 000573                         ..n      = ..n + 1
       2 022066 012737  000573  177570           mov #..n,@#ddisp
       3 022074 000000                           halt
    4161                                11$:
    4162 022076 005703                           tst r3
    4163 022100 001404                           beq 12$
    4164                                         error
       1 000574                         ..n      = ..n + 1
       2 022102 012737  000574  177570           mov #..n,@#ddisp
       3 022110 000000                           halt
    4165                                12$:
    4166 022112 005704                           tst r4
    4167 022114 001404                           beq 13$
    4168                                         error
       1 000575                         ..n      = ..n + 1
       2 022116 012737  000575  177570           mov #..n,@#ddisp
       3 022124 000000                           halt
    4169                                13$:
    4170 022126 005705                           tst r5
    4171 022130 001404                           beq 14$
    4172                                         error
       1 000576                         ..n      = ..n + 1
       2 022132 012737  000576  177570           mov #..n,@#ddisp
       3 022140 000000                           halt
    4173                                14$:
    4174                                ;
    4175                                ;
    4176                                ;
    4177                                tst174:
    4178 022142 012700  177777                   mov #177777,r0
    4179 022146 020027  177777                   cmp r0,#177777
    4180 022152 001404                           beq 1$
    4181                                         error
       1 000577                         ..n      = ..n + 1
       2 022154 012737  000577  177570           mov #..n,@#ddisp
       3 022162 000000                           halt
    4182                                1$:
    4183 022164 005000                           clr r0
    4184 022166 020027  000000                   cmp r0,#0
    4185 022172 001404                           beq 2$
    4186                                         error
       1 000600                         ..n      = ..n + 1
       2 022174 012737  000600  177570           mov #..n,@#ddisp
       3 022202 000000                           halt
    4187                                2$:
    4188 022204 012700  125252                   mov #125252,r0
    4189 022210 020027  125252                   cmp r0,#125252
    4190 022214 001404                           beq 3$
    4191                                         error
       1 000601                         ..n      = ..n + 1
       2 022216 012737  000601  177570           mov #..n,@#ddisp
       3 022224 000000                           halt
    4192                                3$:
    4193 022226 012700  052525                   mov #52525,r0
    4194 022232 020027  052525                   cmp r0,#52525
    4195 022236 001404                           beq 4$
    4196                                         error
       1 000602                         ..n      = ..n + 1
       2 022240 012737  000602  177570           mov #..n,@#ddisp
       3 022246 000000                           halt
    4197                                4$:
    4198                                ;
    4199                                ;
    4200                                ;
    4201                                tst175:
    4202 022250 012701  177777                   mov #177777,r1
    4203 022254 020127  177777                   cmp r1,#177777
    4204 022260 001404                           beq 1$
    4205                                         error
       1 000603                         ..n      = ..n + 1
       2 022262 012737  000603  177570           mov #..n,@#ddisp
       3 022270 000000                           halt
    4206                                1$:
    4207 022272 005001                           clr r1
    4208 022274 020127  000000                   cmp r1,#0
    4209 022300 001404                           beq 2$
    4210                                         error
       1 000604                         ..n      = ..n + 1
       2 022302 012737  000604  177570           mov #..n,@#ddisp
       3 022310 000000                           halt
    4211                                2$:
    4212 022312 012701  125252                   mov #125252,r1
    4213 022316 020127  125252                   cmp r1,#125252
    4214 022322 001404                           beq 3$
    4215                                         error
       1 000605                         ..n      = ..n + 1
       2 022324 012737  000605  177570           mov #..n,@#ddisp
       3 022332 000000                           halt
    4216                                3$:
    4217 022334 012701  052525                   mov #52525,r1
    4218 022340 020127  052525                   cmp r1,#52525
    4219 022344 001404                           beq 4$
    4220                                         error
       1 000606                         ..n      = ..n + 1
       2 022346 012737  000606  177570           mov #..n,@#ddisp
       3 022354 000000                           halt
    4221                                4$:
    4222                                ;
    4223                                ;
    4224                                ;
    4225                                tst176:
    4226 022356 012702  177777                   mov #177777,r2
    4227 022362 020227  177777                   cmp r2,#177777
    4228 022366 001404                           beq 1$
    4229                                         error
       1 000607                         ..n      = ..n + 1
       2 022370 012737  000607  177570           mov #..n,@#ddisp
       3 022376 000000                           halt
    4230                                1$:
    4231 022400 005002                           clr r2
    4232 022402 020227  000000                   cmp r2,#0
    4233 022406 001404                           beq 2$
    4234                                         error
       1 000610                         ..n      = ..n + 1
       2 022410 012737  000610  177570           mov #..n,@#ddisp
       3 022416 000000                           halt
    4235                                2$:
    4236 022420 012702  125252                   mov #125252,r2
    4237 022424 020227  125252                   cmp r2,#125252
    4238 022430 001404                           beq 3$
    4239                                         error
       1 000611                         ..n      = ..n + 1
       2 022432 012737  000611  177570           mov #..n,@#ddisp
       3 022440 000000                           halt
    4240                                3$:
    4241 022442 012702  052525                   mov #52525,r2
    4242 022446 020227  052525                   cmp r2,#52525
    4243 022452 001404                           beq 4$
    4244                                         error
       1 000612                         ..n      = ..n + 1
       2 022454 012737  000612  177570           mov #..n,@#ddisp
       3 022462 000000                           halt
    4245                                4$:
    4246                                ;
    4247                                ;
    4248                                ;
    4249                                tst177:
    4250 022464 012703  177777                   mov #177777,r3
    4251 022470 020327  177777                   cmp r3,#177777
    4252 022474 001404                           beq 1$
    4253                                         error
       1 000613                         ..n      = ..n + 1
       2 022476 012737  000613  177570           mov #..n,@#ddisp
       3 022504 000000                           halt
    4254                                1$:
    4255 022506 005003                           clr r3
    4256 022510 020327  000000                   cmp r3,#0
    4257 022514 001404                           beq 2$
    4258                                         error
       1 000614                         ..n      = ..n + 1
       2 022516 012737  000614  177570           mov #..n,@#ddisp
       3 022524 000000                           halt
    4259                                2$:
    4260 022526 012703  125252                   mov #125252,r3
    4261 022532 020327  125252                   cmp r3,#125252
    4262 022536 001404                           beq 3$
    4263                                         error
       1 000615                         ..n      = ..n + 1
       2 022540 012737  000615  177570           mov #..n,@#ddisp
       3 022546 000000                           halt
    4264                                3$:
    4265 022550 012703  052525                   mov #52525,r3
    4266 022554 020327  052525                   cmp r3,#52525
    4267 022560 001404                           beq 4$
    4268                                         error
       1 000616                         ..n      = ..n + 1
       2 022562 012737  000616  177570           mov #..n,@#ddisp
       3 022570 000000                           halt
    4269                                4$:
    4270                                ;
    4271                                ;
    4272                                ;
    4273                                tst200:
    4274 022572 012704  177777                   mov #177777,r4
    4275 022576 020427  177777                   cmp r4,#177777
    4276 022602 001404                           beq 1$
    4277                                         error
       1 000617                         ..n      = ..n + 1
       2 022604 012737  000617  177570           mov #..n,@#ddisp
       3 022612 000000                           halt
    4278                                1$:
    4279 022614 005004                           clr r4
    4280 022616 020427  000000                   cmp r4,#0
    4281 022622 001404                           beq 2$
    4282                                         error
       1 000620                         ..n      = ..n + 1
       2 022624 012737  000620  177570           mov #..n,@#ddisp
       3 022632 000000                           halt
    4283                                2$:
    4284 022634 012704  125252                   mov #125252,r4
    4285 022640 020427  125252                   cmp r4,#125252
    4286 022644 001404                           beq 3$
    4287                                         error
       1 000621                         ..n      = ..n + 1
       2 022646 012737  000621  177570           mov #..n,@#ddisp
       3 022654 000000                           halt
    4288                                3$:
    4289 022656 012704  052525                   mov #52525,r4
    4290 022662 020427  052525                   cmp r4,#52525
    4291 022666 001404                           beq 4$
    4292                                         error
       1 000622                         ..n      = ..n + 1
       2 022670 012737  000622  177570           mov #..n,@#ddisp
       3 022676 000000                           halt
    4293                                4$:
    4294                                ;
    4295                                ;
    4296                                ;
    4297                                tst201:
    4298 022700 012705  177777                   mov #177777,r5
    4299 022704 020527  177777                   cmp r5,#177777
    4300 022710 001404                           beq 1$
    4301                                         error
       1 000623                         ..n      = ..n + 1
       2 022712 012737  000623  177570           mov #..n,@#ddisp
       3 022720 000000                           halt
    4302                                1$:
    4303 022722 005005                           clr r5
    4304 022724 020527  000000                   cmp r5,#0
    4305 022730 001404                           beq 2$
    4306                                         error
       1 000624                         ..n      = ..n + 1
       2 022732 012737  000624  177570           mov #..n,@#ddisp
       3 022740 000000                           halt
    4307                                2$:
    4308 022742 012705  125252                   mov #125252,r5
    4309 022746 020527  125252                   cmp r5,#125252
    4310 022752 001404                           beq 3$
    4311                                         error
       1 000625                         ..n      = ..n + 1
       2 022754 012737  000625  177570           mov #..n,@#ddisp
       3 022762 000000                           halt
    4312                                3$:
    4313 022764 012705  052525                   mov #52525,r5
    4314 022770 020527  052525                   cmp r5,#52525
    4315 022774 001404                           beq 4$
    4316                                         error
       1 000626                         ..n      = ..n + 1
       2 022776 012737  000626  177570           mov #..n,@#ddisp
       3 023004 000000                           halt
    4317                                4$:
    4318 023006 042737  004000  177776           bic #4000,@#ps
    4319                                ;
    4320                                ;
    4321                                ;
    4322                                tst202:
    4323 023014 005004                           clr r4
    4324 023016 012701  023276                   mov #te115a,r1
    4325 023022 012702  023306                   mov #te115b,r2
    4326 023026 012703  023314                   mov #te115c,r3
    4327                                1$:
    4328 023032 012137  177776                   mov (r1)+,@#177776
    4329 023036 106704                           mfps r4
    4330 023040 023722  177776                   cmp @#177776,(r2)+
    4331 023044 001404                           beq 2$
    4332                                         error
       1 000627                         ..n      = ..n + 1
       2 023046 012737  000627  177570           mov #..n,@#ddisp
       3 023054 000000                           halt
    4333                                2$:
    4334 023056 020423                           cmp r4,(r3)+
    4335 023060 001404                           beq 3$
    4336                                         error
       1 000630                         ..n      = ..n + 1
       2 023062 012737  000630  177570           mov #..n,@#ddisp
       3 023070 000000                           halt
    4337                                3$:
    4338 023072 021127  177777                   cmp (r1),#177777
    4339 023076 001355                           bne 1$
    4340                                
    4341 023100 012701  023276                   mov #te115a,r1
    4342 023104 012702  023306                   mov #te115b,r2
    4343 023110 012703  023314                   mov #te115c,r3
    4344 023114 010605                           mov r6,r5
    4345                                101$:
    4346 023116 011137  177776                   mov (r1),@#177776
    4347 023122 106706                           mfps r6
    4348 023124 023712  177776                   cmp @#177776,(r2)
    4349 023130 001404                           beq 102$
    4350                                         error
       1 000631                         ..n      = ..n + 1
       2 023132 012737  000631  177570           mov #..n,@#ddisp
       3 023140 000000                           halt
    4351                                102$:
    4352 023142 020613                           cmp r6,(r3)
    4353 023144 001404                           beq 103$
    4354                                         error
       1 000632                         ..n      = ..n + 1
       2 023146 012737  000632  177570           mov #..n,@#ddisp
       3 023154 000000                           halt
    4355                                103$:
    4356 023156 010506                           mov r5,r6
    4357                                
    4358 023160 012701  023276                   mov #te115a,r1
    4359 023164 012702  023306                   mov #te115b,r2
    4360 023170 012703  023322                   mov #te115d,r3
    4361 023174 005037  051312                   clr @#expdat
    4362                                4$:
    4363 023200 012704  051312                   mov #expdat,r4
    4364 023204 012137  177776                   mov (r1)+,@#177776
    4365 023210 106724                           mfps (r4)+
    4366 023212 023722  177776                   cmp @#177776,(r2)+
    4367 023216 001404                           beq 5$
    4368                                         error
       1 000633                         ..n      = ..n + 1
       2 023220 012737  000633  177570           mov #..n,@#ddisp
       3 023226 000000                           halt
    4369                                5$:
    4370 023230 020427  051313                   cmp r4,#expdat+1
    4371 023234 001404                           beq 6$
    4372                                         error
       1 000634                         ..n      = ..n + 1
       2 023236 012737  000634  177570           mov #..n,@#ddisp
       3 023244 000000                           halt
    4373                                6$:
    4374 023246 023723  051312                   cmp @#expdat,(r3)+
    4375 023252 001404                           beq 7$
    4376                                         error
       1 000635                         ..n      = ..n + 1
       2 023254 012737  000635  177570           mov #..n,@#ddisp
       3 023262 000000                           halt
    4377                                7$:
    4378 023264 021127  177777                   cmp (r1),#177777
    4379 023270 001343                           bne 4$
    4380 023272 000167  000032                   jmp te115f
    4381                                
    4382                                te115a:
    4383 023276 030207                           .word 30207
    4384 023300 030000                           .word 30000
    4385 023302 030057                           .word 30057
    4386 023304 177777                           .word 177777
    4387                                te115b:
    4388 023306 030211                           .word 30211
    4389 023310 030004                           .word 30004
    4390 023312 030041                           .word 30041
    4391                                te115c:
    4392 023314 177607                           .word 177607
    4393 023316 000000                           .word 0
    4394 023320 000057                           .word 57
    4395                                te115d:
    4396 023322 000207                           .word 207
    4397 023324 000000                           .word 0
    4398 023326 000057                           .word 57
    4399                                te115f:
    4400 023330 000240                           nop
    4401                                tellf:
    4402                                ;
    4403                                ;
    4404                                ;
    4405                                tst203:
    4406 023332 012737  030000  177776           mov #30000,@#177776
    4407 023340 012701  023670                   mov #te116d,r1
    4408 023344 012702  023650                   mov #te116b,r2
    4409 023350 010103                           mov r1,r3
    4410 023352 004767  000136                   jsr pc,t116
    4411                                
    4412 023356 012737  140000  177776           mov #140000,@#177776
    4413 023364 012706  000600                   mov #600,r6
    4414 023370 012701  023670                   mov #te116d,r1
    4415 023374 012702  023660                   mov #te116c,r2
    4416 023400 010103                           mov r1,r3
    4417 023402 004767  000106                   jsr pc,t116
    4418                                
    4419 023406 012737  140000  177776           mov #140000,@#177776
    4420 023414 012701  023644                   mov #te116a,r1
    4421 023420 012702  023660                   mov #te116c,r2
    4422 023424 012703  023670                   mov #te116d,r3
    4423 023430 010104                           mov r1,r4
    4424 023432 004767  000124                   jsr pc,ta116
    4425                                
    4426 023436 012737  030000  177776           mov #30000,@#177776
    4427 023444 012701  023644                   mov #te116a,r1
    4428 023450 012702  023650                   mov #te116b,r2
    4429 023454 012703  023670                   mov #te116d,r3
    4430                                
    4431 023460 005037  177776                   clr @#177776
    4432 023464 106427  177412                   mtps #177412
    4433 023470 022737  000012  177776           cmp #12,@#177776
    4434 023476 001404                           beq 100$
    4435                                         error
       1 000636                         ..n      = ..n + 1
       2 023500 012737  000636  177570           mov #..n,@#ddisp
       3 023506 000000                           halt
    4436                                100$:
    4437 023510 000167  000164                   jmp fin116
    4438                                
    4439                                t116:
    4440 023514 012105                           mov (r1)+,r5
    4441 023516 106405                           mtps r5
    4442 023520 023722  177776                   cmp @#177776,(r2)+
    4443 023524 001404                           beq 1$
    4444                                         error
       1 000637                         ..n      = ..n + 1
       2 023526 012737  000637  177570           mov #..n,@#ddisp
       3 023534 000000                           halt
    4445                                1$:
    4446 023536 022305                           cmp (r3)+,r5
    4447 023540 001404                           beq 2$
    4448                                         error
       1 000640                         ..n      = ..n + 1
       2 023542 012737  000640  177570           mov #..n,@#ddisp
       3 023550 000000                           halt
    4449                                2$:
    4450 023552 021227  177777                   cmp (r2),#177777
    4451 023556 001356                           bne t116
    4452 023560 000207                           rts pc
    4453                                
    4454                                ta116:
    4455 023562 106421                           mtps (r1)+
    4456 023564 023722  177776                   cmp @#177776,(r2)+
    4457 023570 001404                           beq 1$
    4458                                         error
       1 000641                         ..n      = ..n + 1
       2 023572 012737  000641  177570           mov #..n,@#ddisp
       3 023600 000000                           halt
    4459                                1$:
    4460 023602 122423                           cmpb (r4)+,(r3)+
    4461 023604 001404                           beq 2$
    4462                                         error
       1 000642                         ..n      = ..n + 1
       2 023606 012737  000642  177570           mov #..n,@#ddisp
       3 023614 000000                           halt
    4463                                2$:
    4464 023616 020104                           cmp r1,r4
    4465 023620 001404                           beq 3$
    4466                                         error
       1 000643                         ..n      = ..n + 1
       2 023622 012737  000643  177570           mov #..n,@#ddisp
       3 023630 000000                           halt
    4467                                3$:
    4468 023632 005203                           inc r3
    4469 023634 021227  177777                   cmp (r2),#177777
    4470 023640 001350                           bne ta116
    4471 023642 000207                           rts pc
    4472                                
    4473                                te116a:
    4474 023644    377                           .byte 377
    4475 023645    000                           .byte 0
    4476 023646    252                           .byte 252
    4477 023647    125                           .byte 125
    4478                                te116b:
    4479 023650 030357                           .word 30357
    4480 023652 030000                           .word 30000
    4481 023654 030252                           .word 30252
    4482 023656 177777                           .word 177777
    4483                                te116c:
    4484 023660 140017                           .word 140017
    4485 023662 140000                           .word 140000
    4486 023664 140012                           .word 140012
    4487 023666 140005                           .word 140005
    4488                                te116d:
    4489 023670 177777                           .word 177777
    4490 023672 177400                           .word 177400
    4491 023674 177652                           .word 177652
    4492 023676 177525                           .word 177525
    4493                                fin116:
    4494                                ;
    4495                                ;
    4496                                ;
    4497                                tst204:
    4498 023700 000167  000152                   jmp tst205
    4499 023704 013746  000010                   mov @#10,-(sp)
    4500 023710 012737  024046  000010           mov #te117a,@#10
    4501 023716 012700  177777                   mov #177777,r0
    4502 023722 012737  030000  177776           mov #30000,@#177776
    4503 023730 000007                           mfpt
    4504 023732 022737  030000  177776           cmp #30000,@#177776
    4505 023740 001404                           beq 1$
    4506                                         error
       1 000644                         ..n      = ..n + 1
       2 023742 012737  000644  177570           mov #..n,@#ddisp
       3 023750 000000                           halt
    4507                                1$:
    4508 023752 020027  001111                   cmp r0,#1111                  ; FIXME maybe? 1111 is our specific cpu designation; maybe we want to simulate a well-known one?
    4509 023756 001404                           beq 2$
    4510                                         error
       1 000645                         ..n      = ..n + 1
       2 023760 012737  000645  177570           mov #..n,@#ddisp
       3 023766 000000                           halt
    4511                                2$:
    4512 023770 012700  177777                   mov #177777,r0
    4513 023774 000277                           scc
    4514 023776 000007                           mfpt
    4515 024000 022737  030017  177776           cmp #30017,@#177776
    4516 024006 001404                           beq 3$
    4517                                         error
       1 000646                         ..n      = ..n + 1
       2 024010 012737  000646  177570           mov #..n,@#ddisp
       3 024016 000000                           halt
    4518                                3$:
    4519 024020 020027  001111                   cmp r0,#1111
    4520 024024 001404                           beq 4$
    4521                                         error
       1 000647                         ..n      = ..n + 1
       2 024026 012737  000647  177570           mov #..n,@#ddisp
       3 024034 000000                           halt
    4522                                4$:
    4523 024036 012637  000010                   mov (sp)+,@#10
    4524 024042 000167  000010                   jmp fin117
    4525                                te117a:
    4526                                         error
       1 000650                         ..n      = ..n + 1
       2 024046 012737  000650  177570           mov #..n,@#ddisp
       3 024054 000000                           halt
    4527                                fin117:
    4528                                ;
    4529                                ;
    4530                                ;
    4531                                tst205:
    4532 024056 005037  177766                   clr @#177766
    4533 024062 005037  177776                   clr @#177776
    4534 024066 013746  000004                   mov @#4,-(sp)
    4535 024072 013746  000006                   mov @#6,-(sp)
    4536 024076 013746  000010                   mov @#10,-(sp)   ; oops, 11/45 traps to 10 on user mode halt
    4537 024102 013746  000012                   mov @#12,-(sp)
    4538 024106 012737  024162  000004           mov #te120a,@#4
    4539 024114 005037  000006                   clr @#6
    4540 024120 012737  024162  000010           mov #te120a,@#10
    4541 024126 005037  000012                   clr @#12
    4542 024132 012737  140000  177776           mov #140000,@#ps
    4543 024140 012706  000600                   mov #600,r6
    4544 024144 000000                           halt
    4545                                procnt:
    4546                                         error
       1 000651                         ..n      = ..n + 1
       2 024146 012737  000651  177570           mov #..n,@#ddisp
       3 024154 000000                           halt
    4547 024156 000167  000076                   jmp fin120       ; ??
    4548                                te120a:
    4549 024162 022737  030000  177776           cmp #30000,@#177776
    4550 024170 001404                           beq 1$
    4551                                         error
       1 000652                         ..n      = ..n + 1
       2 024172 012737  000652  177570           mov #..n,@#ddisp
       3 024200 000000                           halt
    4552                                1$:
    4553 024202 022737  000200  177766           cmp #200,@#177766
    4554 024210 001405                           beq 2$
    4555 024212 000404                           br 2$
    4556                                         error
       1 000653                         ..n      = ..n + 1
       2 024214 012737  000653  177570           mov #..n,@#ddisp
       3 024222 000000                           halt
    4557                                2$:
    4558 024224 022627  024146                   cmp (sp)+,#procnt
    4559 024230 001404                           beq 3$
    4560                                         error
       1 000654                         ..n      = ..n + 1
       2 024232 012737  000654  177570           mov #..n,@#ddisp
       3 024240 000000                           halt
    4561                                3$:
    4562 024242 022627  140000                   cmp (sp)+,#140000
    4563 024246 001404                           beq fin120
    4564                                         error
       1 000655                         ..n      = ..n + 1
       2 024250 012737  000655  177570           mov #..n,@#ddisp
       3 024256 000000                           halt
    4565                                fin120:
    4566 024260 005037  177766                   clr @#177766
    4567 024264 012637  000012                   mov (sp)+,@#12
    4568 024270 012637  000010                   mov (sp)+,@#10
    4569 024274 012637  000006                   mov (sp)+,@#6
    4570 024300 012637  000004                   mov (sp)+,@#4
    4571                                ;
    4572                                ;
    4573                                ;
    4574                                tst206:
    4575                                1$:
    4576 024304 012737  030340  177776           mov #30340,@#177776
    4577 024312 012737  160000  177572           mov #160000,@#sr0
    4578 024320 012737  000077  172516           mov #77,@#sr3
    4579 024326 005037  177772                   clr @#177772
    4580 024332 023727  177772  000000           cmp @#177772,#0
    4581 024340 001404                           beq c121a
    4582                                         error
       1 000656                         ..n      = ..n + 1
       2 024342 012737  000656  177570           mov #..n,@#ddisp
       3 024350 000000                           halt
    4583                                c121a:
    4584 024352 012737  025000  177772           mov #25000,@#177772
    4585 024360 022737  025252  177772           cmp #25252,@#177772
    4586 024366 001404                           beq c121b
    4587                                         error
       1 000657                         ..n      = ..n + 1
       2 024370 012737  000657  177570           mov #..n,@#ddisp
       3 024376 000000                           halt
    4588                                c121b:
    4589 024400 012737  077000  177772           mov #77000,@#177772
    4590 024406 022737  077314  177772           cmp #77314,@#177772
    4591 024414 001404                           beq c121c
    4592                                         error
       1 000660                         ..n      = ..n + 1
       2 024416 012737  000660  177570           mov #..n,@#ddisp
       3 024424 000000                           halt
    4593                                c121c:
    4594 024426 000277                           scc
    4595 024430 000005                           reset
    4596 024432 022737  030357  177776           cmp #30357,@#177776
    4597 024440 001404                           beq 1$
    4598                                         error
       1 000661                         ..n      = ..n + 1
       2 024442 012737  000661  177570           mov #..n,@#ddisp
       3 024450 000000                           halt
    4599                                1$:
    4600 024452 013701  177572                   mov @#sr0,r1
    4601 024456 042701  000176                   bic #176,r1
    4602 024462 022701  000000                   cmp #0,r1
    4603 024466 001404                           beq 2$
    4604                                         error
       1 000662                         ..n      = ..n + 1
       2 024470 012737  000662  177570           mov #..n,@#ddisp
       3 024476 000000                           halt
    4605                                2$:
    4606 024500 022737  000000  172516           cmp #0,@#sr3
    4607 024506 001404                           beq 3$
    4608                                         error
       1 000663                         ..n      = ..n + 1
       2 024510 012737  000663  177570           mov #..n,@#ddisp
       3 024516 000000                           halt
    4609                                3$:
    4610 024520 022737  000000  177772           cmp #0,@#177772
    4611 024526 001404                           beq 4$
    4612                                         error
       1 000664                         ..n      = ..n + 1
       2 024530 012737  000664  177570           mov #..n,@#ddisp
       3 024536 000000                           halt
    4613                                4$:
    4614 024540 013702  000004                   mov @#4,r2
    4615 024544 013703  000006                   mov @#6,r3
    4616 024550 013704  000010                   mov @#10,r4
    4617 024554 013705  000012                   mov @#12,r5
    4618 024560 012737  024760  000004           mov #8$,@#4
    4619 024566 012737  000340  000006           mov #340,@#6
    4620 024574 012737  024760  000010           mov #8$,@#10
    4621 024602 012737  000340  000012           mov #340,@#12       ; ! user mode halt traps to 10 on 11/45
    4622                                
    4623 024610 012737  140340  177776           mov #140340,@#177776
    4624 024616 012737  160000  177572           mov #160000,@#sr0
    4625 024624 012737  000077  172516           mov #77,@#sr3
    4626 024632 012737  077000  177772           mov #77000,@#177772
    4627 024640 000277                           scc
    4628 024642 000005                           reset
    4629 024644 022737  140357  177776           cmp #140357,@#177776
    4630 024652 001405                           beq 5$
    4631 024654 000000                           halt                ; ! user mode halt traps to illegal insn
    4632                                         error
       1 000665                         ..n      = ..n + 1
       2 024656 012737  000665  177570           mov #..n,@#ddisp
       3 024664 000000                           halt
    4633                                5$:
    4634 024666 013701  177572                   mov @#sr0,r1
    4635 024672 042701  000176                   bic #176,r1
    4636 024676 022701  160000                   cmp #160000,r1
    4637 024702 001405                           beq 6$
    4638 024704 000000                           halt                ; ! user mode halt traps to illegal insn
    4639                                         error
       1 000666                         ..n      = ..n + 1
       2 024706 012737  000666  177570           mov #..n,@#ddisp
       3 024714 000000                           halt
    4640                                6$:
    4641 024716 022737  000017  172516           cmp #17,@#sr3       ; mmu on 11/45 has 4 bits in sr3, not 6. Other 2 are enable for csm insn, and 22-bit mode enable
    4642 024724 001405                           beq 7$
    4643 024726 000000                           halt                ; ! user mode halt traps to illegal insn
    4644                                         error
       1 000667                         ..n      = ..n + 1
       2 024730 012737  000667  177570           mov #..n,@#ddisp
       3 024736 000000                           halt
    4645                                7$:
    4646 024740 022737  077314  177772           cmp #77314,@#177772
    4647 024746 001405                           beq 9$
    4648                                         error
       1 000670                         ..n      = ..n + 1
       2 024750 012737  000670  177570           mov #..n,@#ddisp
       3 024756 000000                           halt
    4649                                8$:
    4650 024760 000002                           rti
    4651                                9$:
    4652 024762 005037  177772                   clr @#177772
    4653 024766 005037  177776                   clr @#177776
    4654 024772 010237  000004                   mov r2,@#4
    4655 024776 010337  000006                   mov r3,@#6
    4656 025002 010437  000010                   mov r4,@#10
    4657 025006 010537  000012                   mov r5,@#12
    4658                                ;
    4659                                ;
    4660                                ;
    4661                                tst207:
    4662 025012 012705  000010                   mov #8.,r5
    4663 025016 012701  025256                   mov #t122b,r1
    4664                                1$:
    4665 025022 012737  030000  177776           mov #30000,@#177776
    4666 025030 004767  000070                   jsr pc,t122a
    4667 025034 022137  177776                   cmp (r1)+,@#177776
    4668 025040 001404                           beq 2$
    4669                                         error
       1 000671                         ..n      = ..n + 1
       2 025042 012737  000671  177570           mov #..n,@#ddisp
       3 025050 000000                           halt
    4670                                2$:
    4671 025052 077515                           sob r5,1$
    4672                                
    4673 025054 012705  000010                   mov #8.,r5
    4674                                3$:
    4675 025060 012737  140000  177776           mov #140000,@#177776
    4676 025066 012706  000600                   mov #600,r6
    4677 025072 004767  000026                   jsr pc,t122a
    4678 025076 022737  140017  177776           cmp #140017,@#177776
    4679 025104 001404                           beq 4$
    4680                                         error
       1 000672                         ..n      = ..n + 1
       2 025106 012737  000672  177570           mov #..n,@#ddisp
       3 025114 000000                           halt
    4681                                4$:
    4682 025116 077520                           sob r5,3$
    4683 025120 000167  000152                   jmp fin122
    4684                                
    4685                                t122a:
    4686 025124 020527  000010                   cmp r5,#8.
    4687 025130 001003                           bne 1$
    4688 025132 000277                           scc
    4689 025134 000230                           spl 0
    4690 025136 000446                           br 8$
    4691                                1$:
    4692 025140 020527  000007                   cmp r5,#7
    4693 025144 001003                           bne 2$
    4694 025146 000277                           scc
    4695 025150 000231                           spl 1
    4696 025152 000440                           br 8$
    4697                                2$:
    4698 025154 020527  000006                   cmp r5,#6
    4699 025160 001003                           bne 3$
    4700 025162 000277                           scc
    4701 025164 000232                           spl 2
    4702 025166 000432                           br 8$
    4703                                3$:
    4704 025170 020527  000005                   cmp r5,#5
    4705 025174 001003                           bne 4$
    4706 025176 000277                           scc
    4707 025200 000233                           spl 3
    4708 025202 000424                           br 8$
    4709                                4$:
    4710 025204 020527  000004                   cmp r5,#4
    4711 025210 001003                           bne 5$
    4712 025212 000277                           scc
    4713 025214 000234                           spl 4
    4714 025216 000416                           br 8$
    4715                                5$:
    4716 025220 020527  000003                   cmp r5,#3
    4717 025224 001003                           bne 6$
    4718 025226 000277                           scc
    4719 025230 000235                           spl 5
    4720 025232 000410                           br 8$
    4721                                6$:
    4722 025234 020527  000002                   cmp r5,#2
    4723 025240 001003                           bne 7$
    4724 025242 000277                           scc
    4725 025244 000236                           spl 6
    4726 025246 000402                           br 8$
    4727                                7$:
    4728 025250 000277                           scc
    4729 025252 000237                           spl 7
    4730                                8$:
    4731 025254 000207                           rts pc
    4732                                
    4733                                t122b:
    4734 025256 030017                           .word 30017
    4735 025260 030057                           .word 30057
    4736 025262 030117                           .word 30117
    4737 025264 030157                           .word 30157
    4738 025266 030217                           .word 30217
    4739 025270 030257                           .word 30257
    4740 025272 030317                           .word 30317
    4741 025274 030357                           .word 30357
    4742                                fin122:
    4743                                ;
    4744                                ;
    4745                                ;
    4746                                tst210:
    4747 025276 005037  177776                   clr @#177776
    4748 025302 012703  000012                   mov #10.,r3
    4749 025306 012701  000400                   mov #400,r1
    4750 025312 012700  025516                   mov #t123a,r0
    4751                                100$:
    4752 025316 012021                           mov (r0)+,(r1)+
    4753 025320 077302                           sob r3,100$
    4754 025322 013746  000010                   mov @#10,-(sp)
    4755 025326 012737  025542  000010           mov #t123d,@#10
    4756 025334 005000                           clr r0
    4757 025336 012701  000400                   mov #400,r1
    4758 025342 012702  000410                   mov #410,r2
    4759 025346 012703  000416                   mov #416,r3
    4760 025352 010104                           mov r1,r4
    4761                                1$:
    4762 025354 012737  030000  177776           mov #30000,@#177776
    4763 025362 000262                           sev
    4764 025364 007221                           .word 7221                 ; tstset (r1)+
    4765 025366 022237  177776                   cmp (r2)+,@#177776
    4766 025372 001404                           beq 2$
    4767                                         error
       1 000673                         ..n      = ..n + 1
       2 025374 012737  000673  177570           mov #..n,@#ddisp
       3 025402 000000                           halt
    4768                                2$:
    4769 025404 020013                           cmp r0,(r3)
    4770 025406 001404                           beq 3$
    4771                                         error
       1 000674                         ..n      = ..n + 1
       2 025410 012737  000674  177570           mov #..n,@#ddisp
       3 025416 000000                           halt
    4772                                3$:
    4773 025420 005204                           inc r4
    4774 025422 005204                           inc r4
    4775 025424 020401                           cmp r4,r1
    4776 025426 001404                           beq 4$
    4777                                         error
       1 000675                         ..n      = ..n + 1
       2 025430 012737  000675  177570           mov #..n,@#ddisp
       3 025436 000000                           halt
    4778                                4$:
    4779 025440 052713  000001                   bis #1,(r3)
    4780 025444 022341                           cmp (r3)+,-(r1)
    4781 025446 001404                           beq 5$
    4782                                         error
       1 000676                         ..n      = ..n + 1
       2 025450 012737  000676  177570           mov #..n,@#ddisp
       3 025456 000000                           halt
    4783                                5$:
    4784 025460 005201                           inc r1
    4785 025462 005201                           inc r1
    4786 025464 021127  177777                   cmp (r1),#177777
    4787 025470 001331                           bne 1$
    4788 025472 012737  025552  000010           mov #t123e,@#10
    4789 025500 007201                           .word 7201                 ; tstset r1
    4790                                         error
       1 000677                         ..n      = ..n + 1
       2 025502 012737  000677  177570           mov #..n,@#ddisp
       3 025510 000000                           halt
    4791 025512 000167  000040                   jmp t123f
    4792                                t123a:
    4793 025516 167604                           .word 167604
    4794 025520 000000                           .word 0
    4795 025522 000001                           .word 1
    4796 025524 177777                           .word 177777
    4797                                t123b:
    4798 025526 030010                           .word 30010
    4799 025530 030004                           .word 30004
    4800 025532 030001                           .word 30001
    4801                                t123c:
    4802 025534 167604                           .word 167604
    4803 025536 000000                           .word 0
    4804 025540 000001                           .word 1
    4805                                t123d:
    4806                                         error
       1 000700                         ..n      = ..n + 1
       2 025542 012737  000700  177570           mov #..n,@#ddisp
       3 025550 000000                           halt
    4807                                t123e:
    4808 025552 005726                           tst (sp)+
    4809 025554 005726                           tst (sp)+
    4810                                t123f:
    4811 025556 012637  000010                   mov (sp)+,@#10
    4812                                ;
    4813                                ;
    4814                                ;
    4815                                tst211:
    4816 025562 005037  177776                   clr @#177776
    4817 025566 012703  000012                   mov #10.,r3
    4818 025572 012701  000400                   mov #400,r1
    4819 025576 012700  026014                   mov #t124a,r0
    4820                                100$:
    4821 025602 012021                           mov (r0)+,(r1)+
    4822 025604 077302                           sob r3,100$
    4823 025606 013746  000010                   mov @#10,-(sp)
    4824 025612 012737  026040  000010           mov #t124d,@#10
    4825 025620 012701  000400                   mov #400,r1
    4826 025624 012702  000410                   mov #410,r2
    4827 025630 012703  000416                   mov #416,r3
    4828 025634 010204                           mov r2,r4
    4829                                1$:
    4830 025636 012737  030000  177776           mov #30000,@#177776
    4831 025644 011100                           mov (r1),r0
    4832 025646 020327  000416                   cmp r3,#416
    4833 025652 001401                           beq 2$
    4834 025654 001002                           bne 3$
    4835                                2$:
    4836 025656 000261                           sec
    4837 025660 000401                           br 4$
    4838                                3$:
    4839 025662 000241                           clc
    4840                                4$:
    4841 025664 000262                           sev
    4842 025666 007322                           .word 7322
    4843 025670 022337  177776                   cmp (r3)+,@#177776
    4844 025674 001404                           beq 5$
    4845                                         error
       1 000701                         ..n      = ..n + 1
       2 025676 012737  000701  177570           mov #..n,@#ddisp
       3 025704 000000                           halt
    4846                                5$:
    4847 025706 021100                           cmp (r1),r0
    4848 025710 001404                           beq 6$
    4849                                         error
       1 000702                         ..n      = ..n + 1
       2 025712 012737  000702  177570           mov #..n,@#ddisp
       3 025720 000000                           halt
    4850                                6$:
    4851 025722 005204                           inc r4
    4852 025724 005204                           inc r4
    4853 025726 020204                           cmp r2,r4
    4854 025730 001404                           beq 7$
    4855                                         error
       1 000703                         ..n      = ..n + 1
       2 025732 012737  000703  177570           mov #..n,@#ddisp
       3 025740 000000                           halt
    4856                                7$:
    4857 025742 022142                           cmp (r1)+,-(r2)
    4858 025744 001404                           beq 8$
    4859                                         error
       1 000704                         ..n      = ..n + 1
       2 025746 012737  000704  177570           mov #..n,@#ddisp
       3 025754 000000                           halt
    4860                                8$:
    4861 025756 005202                           inc r2
    4862 025760 005202                           inc r2
    4863 025762 021127  177777                   cmp (r1),#177777
    4864 025766 001323                           bne 1$
    4865 025770 012737  026050  000010           mov #t124e,@#10
    4866 025776 007302                           .word 7302
    4867                                         error
       1 000705                         ..n      = ..n + 1
       2 026000 012737  000705  177570           mov #..n,@#ddisp
       3 026006 000000                           halt
    4868 026010 000167  000040                   jmp t124f
    4869                                t124a:
    4870 026014 167604                           .word 167604
    4871 026016 000000                           .word 0
    4872 026020 000001                           .word 1
    4873 026022 177777                           .word 177777
    4874                                t124b:
    4875 026024 177777                           .word 177777
    4876 026026 177777                           .word 177777
    4877 026030 177777                           .word 177777
    4878                                t124c:
    4879 026032 030011                           .word 30011
    4880 026034 030004                           .word 30004
    4881 026036 030000                           .word 30000
    4882                                t124d:
    4883                                         error
       1 000706                         ..n      = ..n + 1
       2 026040 012737  000706  177570           mov #..n,@#ddisp
       3 026046 000000                           halt
    4884                                t124e:
    4885 026050 005726                           tst (sp)+
    4886 026052 005726                           tst (sp)+
    4887                                t124f:
    4888 026054 012637  000010                   mov (sp)+,@#10
    4889                                ;
    4890                                ;
    4891                                ;
    4892                                tst212:
    4893 026060 005037  177776                   clr @#177776
    4894 026064 012701  026406                   mov #te125a,r1
    4895                                1$:
    4896 026070 010137  051312                   mov r1,@#expdat
    4897 026074 062737  000002  051312           add #2,@#expdat
    4898 026102 012703  122222                   mov #122222,r3
    4899 026106 011102                           mov (r1),r2
    4900 026110 000277                           scc
    4901 026112 070261  000002                   mul 2(r1),r2
    4902 026116 026137  000004  177776           cmp 4(r1),@#177776
    4903 026124 001404                           beq 2$
    4904                                         error
       1 000707                         ..n      = ..n + 1
       2 026126 012737  000707  177570           mov #..n,@#ddisp
       3 026134 000000                           halt
    4905                                2$:
    4906 026136 026103  000006                   cmp 6(r1),r3
    4907 026142 001404                           beq 3$
    4908                                         error
       1 000710                         ..n      = ..n + 1
       2 026144 012737  000710  177570           mov #..n,@#ddisp
       3 026152 000000                           halt
    4909                                3$:
    4910 026154 026102  000010                   cmp 10(r1),r2
    4911 026160 001404                           beq 4$
    4912                                         error
       1 000711                         ..n      = ..n + 1
       2 026162 012737  000711  177570           mov #..n,@#ddisp
       3 026170 000000                           halt
    4913                                4$:
    4914 026172 026177  000002  023112           cmp 2(r1),@expdat
    4915 026200 001404                           beq 5$
    4916                                         error
       1 000712                         ..n      = ..n + 1
       2 026202 012737  000712  177570           mov #..n,@#ddisp
       3 026210 000000                           halt
    4917                                5$:
    4918 026212 062701  000012                   add #12,r1
    4919 026216 020127  026634                   cmp r1,#fin125
    4920 026222 001322                           bne 1$
    4921                                6$:
    4922 026224 012701  026406                   mov #te125a,r1
    4923                                7$:
    4924 026230 010102                           mov r1,r2
    4925 026232 012706  000776                   mov #stbot,r6
    4926 026236 012704  000004                   mov #4,r4
    4927 026242 011105                           mov (r1),r5
    4928 026244 000277                           scc
    4929 026246 070561  000002                   mul 2(r1),r5
    4930 026252 026137  000004  177776           cmp 4(r1),@#177776
    4931 026260 001404                           beq 8$
    4932                                         error
       1 000713                         ..n      = ..n + 1
       2 026262 012737  000713  177570           mov #..n,@#ddisp
       3 026270 000000                           halt
    4933                                8$:
    4934 026272 026105  000006                   cmp 6(r1),r5
    4935 026276 001404                           beq 9$
    4936                                         error
       1 000714                         ..n      = ..n + 1
       2 026300 012737  000714  177570           mov #..n,@#ddisp
       3 026306 000000                           halt
    4937                                9$:
    4938 026310 020627  000776                   cmp r6,#stbot
    4939 026314 001406                           beq 10$
    4940 026316 012706  000776                   mov #stbot,r6
    4941                                         error
       1 000715                         ..n      = ..n + 1
       2 026322 012737  000715  177570           mov #..n,@#ddisp
       3 026330 000000                           halt
    4942                                10$:
    4943 026332 005722                           tst (r2)+
    4944 026334 021261  000002                   cmp (r2),2(r1)
    4945 026340 001404                           beq 11$
    4946                                         error
       1 000716                         ..n      = ..n + 1
       2 026342 012737  000716  177570           mov #..n,@#ddisp
       3 026350 000000                           halt
    4947                                11$:
    4948 026352 020427  000004                   cmp r4,#4
    4949 026356 001404                           beq 12$
    4950                                         error
       1 000717                         ..n      = ..n + 1
       2 026360 012737  000717  177570           mov #..n,@#ddisp
       3 026366 000000                           halt
    4951                                12$:
    4952 026370 062701  000012                   add #12,r1
    4953 026374 020127  026634                   cmp r1,#fin125
    4954 026400 001313                           bne 7$
    4955 026402 000167  000226                   jmp fin125
    4956                                
    4957                                te125a:
    4958 026406 177777                           .word 177777        ; 1
    4959 026410 177777                           .word 177777
    4960 026412 000000                           .word 0
    4961 026414 000001                           .word 1
    4962 026416 000000                           .word 0
    4963                                
    4964 026420 006772                           .word 6772          ; 2
    4965 026422 100000                           .word 100000
    4966 026424 000011                           .word 11
    4967 026426 000000                           .word 0
    4968 026430 174403                           .word 174403
    4969                                
    4970 026432 177777                           .word 177777        ; 3
    4971 026434 077777                           .word 77777
    4972 026436 000010                           .word 10
    4973 026440 100001                           .word 100001
    4974 026442 177777                           .word 177777
    4975                                
    4976 026444 077777                           .word 77777         ; 4
    4977 026446 000456                           .word 456
    4978 026450 000001                           .word 1
    4979 026452 177322                           .word 177322
    4980 026454 000226                           .word 226
    4981                                
    4982 026456 173210                           .word 173210        ; 5
    4983 026460 000000                           .word 0
    4984 026462 000004                           .word 4
    4985 026464 000000                           .word 0
    4986 026466 000000                           .word 0
    4987                                
    4988 026470 000000                           .word 0             ; 6
    4989 026472 003251                           .word 3251
    4990 026474 000004                           .word 4
    4991 026476 000000                           .word 0
    4992 026500 000000                           .word 0
    4993                                
    4994 026502 000000                           .word 0             ; 7
    4995 026504 000000                           .word 0
    4996 026506 000004                           .word 4
    4997 026510 000000                           .word 0
    4998 026512 000000                           .word 0
    4999                                
    5000 026514 100000                           .word 100000        ; 8
    5001 026516 000001                           .word 1
    5002 026520 000010                           .word 10
    5003 026522 100000                           .word 100000
    5004 026524 177777                           .word 177777
    5005                                
    5006 026526 077777                           .word 77777         ; 9
    5007 026530 000001                           .word 1
    5008 026532 000000                           .word 0
    5009 026534 077777                           .word 77777
    5010 026536 000000                           .word 0
    5011                                
    5012 026540 000010                           .word 10            ; 10
    5013 026542 010000                           .word 10000
    5014 026544 000001                           .word 1
    5015 026546 100000                           .word 100000
    5016 026550 000000                           .word 0
    5017                                
    5018 026552 001452                           .word 1452          ; 11
    5019 026554 034527                           .word 34527
    5020 026556 000001                           .word 1
    5021 026560 066506                           .word 66506
    5022 026562 000265                           .word 265
    5023                                
    5024 026564 000007                           .word 7             ; 12
    5025 026566 000400                           .word 400
    5026 026570 000000                           .word 0
    5027 026572 003400                           .word 3400
    5028 026574 000000                           .word 0
    5029                                
    5030 026576 000002                           .word 2             ; 13
    5031 026600 100000                           .word 100000
    5032 026602 000011                           .word 11
    5033 026604 000000                           .word 0
    5034 026606 177777                           .word 177777
    5035                                
    5036 026610 100000                           .word 100000        ; 14
    5037 026612 077777                           .word 77777
    5038 026614 000011                           .word 11
    5039 026616 100000                           .word 100000
    5040 026620 140000                           .word 140000
    5041                                
    5042 026622 000001                           .word 1             ; 15
    5043 026624 177777                           .word 177777
    5044 026626 000010                           .word 10
    5045 026630 177777                           .word 177777
    5046 026632 177777                           .word 177777
    5047                                fin125:
    5048                                ;
    5049                                ;
    5050                                ;
    5051                                tst213:
    5052 026634 005037  177776                   clr @#177776
    5053 026640 005006                           clr r6
    5054 026642 013705  000000                   mov @#0,r5
    5055 026646 013701  000002                   mov @#2,r1
    5056 026652 012737  000137  000000           mov #137,@#0
    5057 026660 012737  026710  000002           mov #te126a,@#2
    5058 026666 000277                           scc
    5059 026670 071627  000002                   div #2,r6
    5060                                a126$:
    5061 026674 012706  000776                   mov #stbot,r6
    5062                                         error
       1 000720                         ..n      = ..n + 1
       2 026700 012737  000720  177570           mov #..n,@#ddisp
       3 026706 000000                           halt
    5063                                te126a:
    5064 026710 022737  000000  177776           cmp #0,@#177776
    5065 026716 001406                           beq 1$
    5066 026720 012706  000776                   mov #stbot,r6
    5067                                         error
       1 000721                         ..n      = ..n + 1
       2 026724 012737  000721  177570           mov #..n,@#ddisp
       3 026732 000000                           halt
    5068                                1$:
    5069 026734 012704  026674                   mov #a126$,r4
    5070 026740 006204                           asr r4
    5071 026742 020406                           cmp r4,r6
    5072 026744 001406                           beq 2$
    5073 026746 012706  000776                   mov #stbot,r6
    5074                                         error
       1 000722                         ..n      = ..n + 1
       2 026752 012737  000722  177570           mov #..n,@#ddisp
       3 026760 000000                           halt
    5075                                2$:
    5076 026762 010537  000000                   mov r5,@#0
    5077 026766 010137  000002                   mov r1,@#2
    5078 026772 012706  000776                   mov #stbot,r6
    5079 026776 012702  000006                   mov #6,r2
    5080 027002 012703  000047                   mov #47,r3
    5081 027006 000277                           scc
    5082 027010 071302                           div r2,r3
    5083 027012 022737  000002  177776           cmp #2,@#177776
    5084 027020 001404                           beq 3$
    5085                                         error
       1 000723                         ..n      = ..n + 1
       2 027022 012737  000723  177570           mov #..n,@#ddisp
       3 027030 000000                           halt
    5086                                3$:
    5087 027032 022702  000006                   cmp #6,r2
    5088 027036 001404                           beq 4$
    5089                                         error
       1 000724                         ..n      = ..n + 1
       2 027040 012737  000724  177570           mov #..n,@#ddisp
       3 027046 000000                           halt
    5090                                4$:
    5091 027050 022703  000047                   cmp #47,r3
    5092 027054 001404                           beq 5$
    5093                                         error
       1 000725                         ..n      = ..n + 1
       2 027056 012737  000725  177570           mov #..n,@#ddisp
       3 027064 000000                           halt
    5094                                5$:
    5095 027066 005004                           clr r4
    5096 027070 012705  000004                   mov #4,r5
    5097 027074 000277                           scc
    5098 027076 071427  000000                   div #0,r4
    5099 027102 022737  000007  177776           cmp #7,@#177776
    5100 027110 001404                           beq 6$
    5101                                         error
       1 000726                         ..n      = ..n + 1
       2 027112 012737  000726  177570           mov #..n,@#ddisp
       3 027120 000000                           halt
    5102                                6$:
    5103 027122 022704  000000                   cmp #0,r4
    5104 027126 001404                           beq 7$
    5105                                         error
       1 000727                         ..n      = ..n + 1
       2 027130 012737  000727  177570           mov #..n,@#ddisp
       3 027136 000000                           halt
    5106                                7$:
    5107 027140 022705  000004                   cmp #4,r5
    5108 027144 001404                           beq 8$
    5109                                         error
       1 000730                         ..n      = ..n + 1
       2 027146 012737  000730  177570           mov #..n,@#ddisp
       3 027154 000000                           halt
    5110                                8$:
    5111 027156 012700  000004                   mov #4,r0
    5112 027162 012705  000010                   mov #10,r5
    5113 027166 005004                           clr r4
    5114 027170 000277                           scc
    5115 027172 071400                           div r0,r4
    5116 027174 022737  000000  177776           cmp #0,@#177776
    5117 027202 001404                           beq 9$
    5118                                ;         mov r0,400     ??
    5119                                         error
       1 000731                         ..n      = ..n + 1
       2 027204 012737  000731  177570           mov #..n,@#ddisp
       3 027212 000000                           halt
    5120                                ;         mov 400,r0     ??
    5121                                9$:
    5122 027214 022700  000004                   cmp #4,r0
    5123 027220 001404                           beq 10$
    5124                                         error
       1 000732                         ..n      = ..n + 1
       2 027222 012737  000732  177570           mov #..n,@#ddisp
       3 027230 000000                           halt
    5125                                10$:
    5126 027232 022704  000002                   cmp #2,r4
    5127 027236 001404                           beq 11$
    5128                                         error
       1 000733                         ..n      = ..n + 1
       2 027240 012737  000733  177570           mov #..n,@#ddisp
       3 027246 000000                           halt
    5129                                11$:
    5130 027250 022705  000000                   cmp #0,r5
    5131 027254 001404                           beq 12$
    5132                                         error
       1 000734                         ..n      = ..n + 1
       2 027256 012737  000734  177570           mov #..n,@#ddisp
       3 027264 000000                           halt
    5133                                12$:
    5134 027266 012705  000010                   mov #10,r5
    5135 027272 005004                           clr r4
    5136 027274 000277                           scc
    5137 027276 071427  000003                   div #3,r4
    5138 027302 022737  000000  177776           cmp #0,@#177776
    5139 027310 001404                           beq 13$
    5140                                         error
       1 000735                         ..n      = ..n + 1
       2 027312 012737  000735  177570           mov #..n,@#ddisp
       3 027320 000000                           halt
    5141                                13$:
    5142 027322 022704  000002                   cmp #2,r4
    5143 027326 001404                           beq 14$
    5144                                         error
       1 000736                         ..n      = ..n + 1
       2 027330 012737  000736  177570           mov #..n,@#ddisp
       3 027336 000000                           halt
    5145                                14$:
    5146 027340 022705  000002                   cmp #2,r5
    5147 027344 001404                           beq 15$
    5148                                         error
       1 000737                         ..n      = ..n + 1
       2 027346 012737  000737  177570           mov #..n,@#ddisp
       3 027354 000000                           halt
    5149                                15$:
    5150 027356 012701  027544                   mov #te126b,r1
    5151                                16$:
    5152 027362 010137  051312                   mov r1,@#expdat
    5153 027366 011104                           mov (r1),r4
    5154 027370 016103  000004                   mov 4(r1),r3
    5155 027374 016105  000002                   mov 2(r1),r5
    5156 027400 000277                           scc
    5157 027402 071461  000004                   div 4(r1),r4
    5158 027406 026137  000006  177776           cmp 6(r1),@#177776
    5159 027414 001404                           beq 17$
    5160                                         error
       1 000740                         ..n      = ..n + 1
       2 027416 012737  000740  177570           mov #..n,@#ddisp
       3 027424 000000                           halt
    5161                                17$:
    5162 027426 026105  000010                   cmp 10(r1),r5
    5163 027432 001404                           beq 18$
    5164                                         error
       1 000741                         ..n      = ..n + 1
       2 027434 012737  000741  177570           mov #..n,@#ddisp
       3 027442 000000                           halt
    5165                                18$:
    5166 027444 026104  000012                   cmp 12(r1),r4
    5167 027450 001404                           beq 19$
    5168                                         error
       1 000742                         ..n      = ..n + 1
       2 027452 012737  000742  177570           mov #..n,@#ddisp
       3 027460 000000                           halt
    5169                                19$:
    5170 027462 023701  051312                   cmp @#expdat,r1
    5171 027466 001406                           beq 20$
    5172                                         error
       1 000743                         ..n      = ..n + 1
       2 027470 012737  000743  177570           mov #..n,@#ddisp
       3 027476 000000                           halt
    5173 027500 013701  051312                   mov @#expdat,r1         ; ??
    5174                                20$:
    5175 027504 026103  000004                   cmp 4(r1),r3
    5176 027510 001406                           beq 21$
    5177                                         error
       1 000744                         ..n      = ..n + 1
       2 027512 012737  000744  177570           mov #..n,@#ddisp
       3 027520 000000                           halt
    5178 027522 010361  000004                   mov r3,4(r1)            ; ??
    5179                                21$:
    5180 027526 062701  000014                   add #14,r1
    5181 027532 021127  000333                   cmp (r1),#333
    5182 027536 001311                           bne 16$
    5183 027540 000167  000316                   jmp fin126
    5184                                te126b:
    5185 027544 177777                           .word 177777            ; 1
    5186 027546 177777                           .word 177777
    5187 027550 177777                           .word 177777
    5188 027552 000000                           .word 0
    5189 027554 000000                           .word 0
    5190 027556 000001                           .word 1
    5191                                
    5192 027560 000000                           .word 0                 ; 2
    5193 027562 177777                           .word 177777
    5194 027564 177777                           .word 177777
    5195 027566 000012                           .word 12
    5196 027570 177777                           .word 177777
    5197 027572 000000                           .word 0
    5198                                
    5199 027574 177777                           .word 177777            ; 3
    5200 027576 000000                           .word 0
    5201 027600 177777                           .word 177777
    5202 027602 000002                           .word 2
    5203 027604 000000                           .word 0
    5204 027606 177777                           .word 177777
    5205                                
    5206 027610 000000                           .word 0                 ; 4
    5207 027612 007642                           .word 7642
    5208 027614 007643                           .word 7643
    5209 027616 000004                           .word 4
    5210 027620 007642                           .word 7642
    5211 027622 000000                           .word 0
    5212                                
    5213 027624 000000                           .word 0                 ; 5
    5214 027626 000137                           .word 137
    5215 027630 177543                           .word 177543
    5216 027632 000004                           .word 4
    5217 027634 000137                           .word 137
    5218 027636 000000                           .word 0
    5219                                
    5220 027640 000000                           .word 0                 ; 6
    5221 027642 007643                           .word 7643
    5222 027644 007643                           .word 7643
    5223 027646 000000                           .word 0
    5224 027650 000000                           .word 0
    5225 027652 000001                           .word 1
    5226                                
    5227 027654 100000                           .word 100000            ; 7
    5228 027656 004376                           .word 4376
    5229 027660 010021                           .word 10021
    5230 027662 000012                           .word 12
    5231 027664 004376                           .word 4376
    5232 027666 100000                           .word 100000
    5233                                
    5234 027670 177700                           .word 177700            ; 8
    5235 027672 170033                           .word 170033
    5236 027674 010021                           .word 10021
    5237 027676 000010                           .word 10
    5238 027700 171307                           .word 171307
    5239 027702 176024                           .word 176024
    5240                                
    5241 027704 177700                           .word 177700            ; 9
    5242 027706 170033                           .word 170033
    5243 027710 167757                           .word 167757
    5244 027712 000000                           .word 0
    5245 027714 171307                           .word 171307
    5246 027716 001754                           .word 1754
    5247                                
    5248 027720 000000                           .word 0                 ; 10
    5249 027722 177777                           .word 177777
    5250 027724 000001                           .word 1
    5251 027726 000002                           .word 2
    5252 027730 177777                           .word 177777
    5253 027732 000000                           .word 0
    5254                                
    5255 027734 177777                           .word 177777            ; 11
    5256 027736 045716                           .word 45716
    5257 027740 000001                           .word 1
    5258 027742 000012                           .word 12
    5259 027744 045716                           .word 45716
    5260 027746 177777                           .word 177777
    5261                                
    5262 027750 000000                           .word 0                 ; 12
    5263 027752 000002                           .word 2
    5264 027754 177770                           .word 177770
    5265 027756 000004                           .word 4
    5266 027760 000002                           .word 2
    5267 027762 000000                           .word 0
    5268                                
    5269 027764 177777                           .word 177777            ; 13
    5270 027766 177776                           .word 177776
    5271 027770 000010                           .word 10
    5272 027772 000004                           .word 4
    5273 027774 177776                           .word 177776
    5274 027776 000000                           .word 0
    5275                                
    5276 030000 000001                           .word 1                 ; 14
    5277 030002 177777                           .word 177777
    5278 030004 000001                           .word 1
    5279 030006 000002                           .word 2
    5280 030010 177777                           .word 177777
    5281 030012 000001                           .word 1
    5282                                
    5283 030014 000001                           .word 1                 ; 15
    5284 030016 000000                           .word 0
    5285 030020 000002                           .word 2
    5286 030022 000002                           .word 2
    5287 030024 000000                           .word 0
    5288 030026 000001                           .word 1
    5289                                
    5290 030030 000001                           .word 1                 ; 16
    5291 030032 000000                           .word 0
    5292 030034 000003                           .word 3
    5293 030036 000000                           .word 0
    5294 030040 000001                           .word 1
    5295 030042 052525                           .word 52525
    5296                                
    5297 030044 000023                           .word 23                ; 17
    5298 030046 016054                           .word 16054
    5299 030050 016537                           .word 16537
    5300 030052 000000                           .word 0
    5301 030054 010222                           .word 10222
    5302 030056 000246                           .word 246
    5303                                
    5304 030060 000333                           .word 333
    5305                                fin126:
    5306                                ;
    5307                                ;
    5308                                ;
    5309                                tst214:
    5310 030062 005037  177776                   clr @#177776
    5311 030066 012702  000001                   mov #1,r2
    5312 030072 000277                           scc
    5313 030074 072202                           ash r2,r2
    5314 030076 022737  000000  177776           cmp #0,@#177776
    5315 030104 001404                           beq 1$
    5316                                         error
       1 000745                         ..n      = ..n + 1
       2 030106 012737  000745  177570           mov #..n,@#ddisp
       3 030114 000000                           halt
    5317                                1$:
    5318 030116 020227  000002                   cmp r2,#2
    5319 030122 001404                           beq 2$
    5320                                         error
       1 000746                         ..n      = ..n + 1
       2 030124 012737  000746  177570           mov #..n,@#ddisp
       3 030132 000000                           halt
    5321                                2$:
    5322 030134 012702  100000                   mov #100000,r2
    5323 030140 012703  000001                   mov #1,r3
    5324 030144 000257                           ccc
    5325 030146 072203                           ash r3,r2
    5326 030150 022737  000007  177776           cmp #7,@#177776
    5327 030156 001404                           beq 3$
    5328                                         error
       1 000747                         ..n      = ..n + 1
       2 030160 012737  000747  177570           mov #..n,@#ddisp
       3 030166 000000                           halt
    5329                                3$:
    5330 030170 020327  000001                   cmp r3,#1
    5331 030174 001404                           beq 4$
    5332                                         error
       1 000750                         ..n      = ..n + 1
       2 030176 012737  000750  177570           mov #..n,@#ddisp
       3 030204 000000                           halt
    5333                                4$:
    5334 030206 020227  000000                   cmp r2,#0
    5335 030212 001404                           beq 5$
    5336                                         error
       1 000751                         ..n      = ..n + 1
       2 030214 012737  000751  177570           mov #..n,@#ddisp
       3 030222 000000                           halt
    5337                                5$:
    5338 030224 012701  030346                   mov #te127a,r1
    5339                                6$:
    5340 030230 010103                           mov r1,r3
    5341 030232 016102  000002                   mov 2(r1),r2
    5342 030236 000277                           scc
    5343 030240 072211                           ash (r1),r2
    5344 030242 026137  000004  177776           cmp 4(r1),@#177776
    5345 030250 001404                           beq 7$
    5346                                         error
       1 000752                         ..n      = ..n + 1
       2 030252 012737  000752  177570           mov #..n,@#ddisp
       3 030260 000000                           halt
    5347                                7$:
    5348 030262 026102  000006                   cmp 6(r1),r2
    5349 030266 001404                           beq 8$
    5350                                         error
       1 000753                         ..n      = ..n + 1
       2 030270 012737  000753  177570           mov #..n,@#ddisp
       3 030276 000000                           halt
    5351                                8$:
    5352 030300 020301                           cmp r3,r1
    5353 030302 001404                           beq 9$
    5354                                         error
       1 000754                         ..n      = ..n + 1
       2 030304 012737  000754  177570           mov #..n,@#ddisp
       3 030312 000000                           halt
    5355                                9$:
    5356 030314 021311                           cmp (r3),(r1)
    5357 030316 001404                           beq 10$
    5358                                         error
       1 000755                         ..n      = ..n + 1
       2 030320 012737  000755  177570           mov #..n,@#ddisp
       3 030326 000000                           halt
    5359                                10$:
    5360 030330 062701  000010                   add #10,r1
    5361 030334 020127  030606                   cmp r1,#fin127
    5362 030340 001333                           bne 6$
    5363 030342 000167  000240                   jmp fin127
    5364                                
    5365                                te127a:
    5366 030346 177761                           .word 177761
    5367 030350 077777                           .word 77777
    5368 030352 000005                           .word 5
    5369 030354 000000                           .word 0
    5370                                
    5371 030356 177700                           .word 177700
    5372 030360 017777                           .word 17777
    5373 030362 000000                           .word 0
    5374 030364 017777                           .word 17777
    5375                                
    5376 030366 177700                           .word 177700
    5377 030370 100000                           .word 100000
    5378 030372 000010                           .word 10
    5379 030374 100000                           .word 100000
    5380                                
    5381 030376 177777                           .word 177777
    5382 030400 100000                           .word 100000
    5383 030402 000010                           .word 10
    5384 030404 140000                           .word 140000
    5385                                
    5386 030406 177737                           .word 177737
    5387 030410 177777                           .word 177777
    5388 030412 000011                           .word 11
    5389 030414 177777                           .word 177777
    5390                                
    5391 030416 177706                           .word 177706
    5392 030420 102000                           .word 102000
    5393 030422 000007                           .word 7
    5394 030424 000000                           .word 0
    5395                                
    5396 030426 177710                           .word 177710
    5397 030430 017777                           .word 17777
    5398 030432 000013                           .word 13
    5399 030434 177400                           .word 177400
    5400                                
    5401 030436 177713                           .word 177713
    5402 030440 000012                           .word 12
    5403 030442 000000                           .word 0
    5404 030444 050000                           .word 50000
    5405                                
    5406 030446 177707                           .word 177707
    5407 030450 170001                           .word 170001
    5408 030452 000002                           .word 2
    5409 030454 000200                           .word 200
    5410                                
    5411 030456 177717                           .word 177717
    5412 030460 000001                           .word 1
    5413 030462 000012                           .word 12
    5414 030464 100000                           .word 100000
    5415                                
    5416 030466 177740                           .word 177740
    5417 030470 017777                           .word 17777
    5418 030472 000004                           .word 4
    5419 030474 000000                           .word 0
    5420                                
    5421 030476 177771                           .word 177771
    5422 030500 150000                           .word 150000
    5423 030502 000010                           .word 10
    5424 030504 177640                           .word 177640
    5425                                
    5426 030506 177742                           .word 177742
    5427 030510 100000                           .word 100000
    5428 030512 000011                           .word 11
    5429 030514 177777                           .word 177777
    5430                                
    5431 030516 177764                           .word 177764
    5432 030520 100000                           .word 100000
    5433 030522 000010                           .word 10
    5434 030524 177770                           .word 177770
    5435                                
    5436 030526 177750                           .word 177750
    5437 030530 052525                           .word 52525
    5438 030532 000004                           .word 4
    5439 030534 000000                           .word 0
    5440                                
    5441 030536 177760                           .word 177760
    5442 030540 100000                           .word 100000
    5443 030542 000011                           .word 11
    5444 030544 177777                           .word 177777
    5445                                
    5446 030546 177770                           .word 177770
    5447 030550 100000                           .word 100000
    5448 030552 000010                           .word 10
    5449 030554 177600                           .word 177600
    5450                                
    5451 030556 177712                           .word 177712
    5452 030560 004367                           .word 4367
    5453 030562 000013                           .word 13
    5454 030564 156000                           .word 156000
    5455                                
    5456 030566 177764                           .word 177764
    5457 030570 017777                           .word 17777
    5458 030572 000001                           .word 1
    5459 030574 000001                           .word 1
    5460                                
    5461 030576 177701                           .word 177701
    5462 030600 110000                           .word 110000
    5463 030602 000003                           .word 3
    5464 030604 020000                           .word 20000
    5465                                fin127:
    5466                                ;
    5467                                ;
    5468                                ;
    5469                                tst215:
    5470 030606 005037  177776                   clr @#177776
    5471 030612 012701  000023                   mov #23,r1
    5472 030616 012705  052525                   mov #52525,r5
    5473 030622 005004                           clr r4
    5474 030624 000277                           scc
    5475 030626 073401                           ashc r1,r4
    5476 030630 023727  177776  000012           cmp @#177776,#12
    5477 030636 001404                           beq 1$
    5478                                         error
       1 000756                         ..n      = ..n + 1
       2 030640 012737  000756  177570           mov #..n,@#ddisp
       3 030646 000000                           halt
    5479                                1$:
    5480 030650 020127  000023                   cmp r1,#23
    5481 030654 001404                           beq 2$
    5482                                         error
       1 000757                         ..n      = ..n + 1
       2 030656 012737  000757  177570           mov #..n,@#ddisp
       3 030664 000000                           halt
    5483                                2$:
    5484 030666 020427  125250                   cmp r4,#125250
    5485 030672 001404                           beq 3$
    5486                                         error
       1 000760                         ..n      = ..n + 1
       2 030674 012737  000760  177570           mov #..n,@#ddisp
       3 030702 000000                           halt
    5487                                3$:
    5488 030704 020527  000000                   cmp r5,#0
    5489 030710 001404                           beq 4$
    5490                                         error
       1 000761                         ..n      = ..n + 1
       2 030712 012737  000761  177570           mov #..n,@#ddisp
       3 030720 000000                           halt
    5491                                4$:
    5492 030722 012703  052525                   mov #52525,r3
    5493 030726 005002                           clr r2
    5494 030730 012704  164731                   mov #164731,r4
    5495 030734 000277                           scc
    5496 030736 073327  000023                   ashc #23,r3
    5497 030742 023727  177776  000012           cmp @#177776,#12
    5498 030750 001404                           beq 5$
    5499                                         error
       1 000762                         ..n      = ..n + 1
       2 030752 012737  000762  177570           mov #..n,@#ddisp
       3 030760 000000                           halt
    5500                                5$:
    5501 030762 020227  000000                   cmp r2,#0
    5502 030766 001404                           beq 6$
    5503                                         error
       1 000763                         ..n      = ..n + 1
       2 030770 012737  000763  177570           mov #..n,@#ddisp
       3 030776 000000                           halt
    5504                                6$:
    5505 031000 020327  000000                   cmp r3,#0
    5506 031004 001404                           beq 7$
    5507                                         error
       1 000764                         ..n      = ..n + 1
       2 031006 012737  000764  177570           mov #..n,@#ddisp
       3 031014 000000                           halt
    5508                                7$:
    5509 031016 020427  164731                   cmp r4,#164731
    5510 031022 001404                           beq 8$
    5511                                         error
       1 000765                         ..n      = ..n + 1
       2 031024 012737  000765  177570           mov #..n,@#ddisp
       3 031032 000000                           halt
    5512                                8$:
    5513 031034 012701  031200                   mov #te130a,r1
    5514                                9$:
    5515 031040 010104                           mov r1,r4
    5516 031042 016102  000002                   mov 2(r1),r2
    5517 031046 016103  000004                   mov 4(r1),r3
    5518 031052 000277                           scc
    5519 031054 073211                           ashc (r1),r2
    5520 031056 023761  177776  000006           cmp @#177776,6(r1)
    5521 031064 001404                           beq 10$
    5522                                         error
       1 000766                         ..n      = ..n + 1
       2 031066 012737  000766  177570           mov #..n,@#ddisp
       3 031074 000000                           halt
    5523                                10$:
    5524 031076 026102  000010                   cmp 10(r1),r2
    5525 031102 001404                           beq 11$
    5526                                         error
       1 000767                         ..n      = ..n + 1
       2 031104 012737  000767  177570           mov #..n,@#ddisp
       3 031112 000000                           halt
    5527                                11$:
    5528 031114 026103  000012                   cmp 12(r1),r3
    5529 031120 001404                           beq 12$
    5530                                         error
       1 000770                         ..n      = ..n + 1
       2 031122 012737  000770  177570           mov #..n,@#ddisp
       3 031130 000000                           halt
    5531                                12$:
    5532 031132 020401                           cmp r4,r1
    5533 031134 001404                           beq 13$
    5534                                         error
       1 000771                         ..n      = ..n + 1
       2 031136 012737  000771  177570           mov #..n,@#ddisp
       3 031144 000000                           halt
    5535                                13$:
    5536 031146 021114                           cmp (r1),(r4)
    5537 031150 001404                           beq 14$
    5538                                         error
       1 000772                         ..n      = ..n + 1
       2 031152 012737  000772  177570           mov #..n,@#ddisp
       3 031160 000000                           halt
    5539                                14$:
    5540 031162 062701  000014                   add #14,r1
    5541 031166 020127  031610                   cmp r1,#fin130
    5542 031172 001322                           bne 9$
    5543 031174 000167  000410                   jmp fin130
    5544                                
    5545                                te130a:
    5546 031200 177700                           .word 177700
    5547 031202 100125                           .word 100125
    5548 031204 177777                           .word 177777
    5549 031206 000010                           .word 10
    5550 031210 100125                           .word 100125
    5551 031212 177777                           .word 177777
    5552                                
    5553 031214 177777                           .word 177777
    5554 031216 000001                           .word 1
    5555 031220 000000                           .word 0
    5556 031222 000000                           .word 0
    5557 031224 000000                           .word 0
    5558 031226 100000                           .word 100000
    5559                                
    5560 031230 177701                           .word 177701
    5561 031232 047777                           .word 47777
    5562 031234 100000                           .word 100000
    5563 031236 000012                           .word 12
    5564 031240 117777                           .word 117777
    5565 031242 000000                           .word 0
    5566                                
    5567 031244 177706                           .word 177706
    5568 031246 004256                           .word 4256
    5569 031250 177700                           .word 177700
    5570 031252 000002                           .word 2
    5571 031254 025677                           .word 25677
    5572 031256 170000                           .word 170000
    5573                                
    5574 031260 177711                           .word 177711
    5575 031262 065700                           .word 65700
    5576 031264 000012                           .word 12
    5577 031266 000013                           .word 13
    5578 031270 100000                           .word 100000
    5579 031272 012000                           .word 12000
    5580                                
    5581 031274 177737                           .word 177737
    5582 031276 000000                           .word 0
    5583 031300 000001                           .word 1
    5584 031302 000004                           .word 4
    5585 031304 000000                           .word 0
    5586 031306 000000                           .word 0
    5587                                
    5588 031310 177736                           .word 177736
    5589 031312 000000                           .word 0
    5590 031314 000001                           .word 1
    5591 031316 000000                           .word 0
    5592 031320 040000                           .word 40000
    5593 031322 000000                           .word 0
    5594                                
    5595 031324 177740                           .word 177740
    5596 031326 100000                           .word 100000
    5597 031330 000000                           .word 0
    5598 031332 000011                           .word 11
    5599 031334 177777                           .word 177777
    5600 031336 177777                           .word 177777
    5601                                
    5602 031340 177725                           .word 177725
    5603 031342 177777                           .word 177777
    5604 031344 174000                           .word 174000
    5605 031346 000007                           .word 7
    5606 031350 000000                           .word 0
    5607 031352 000000                           .word 0
    5608                                
    5609 031354 177724                           .word 177724
    5610 031356 177777                           .word 177777
    5611 031360 174000                           .word 174000
    5612 031362 000011                           .word 11
    5613 031364 100000                           .word 100000
    5614 031366 000000                           .word 0
    5615                                
    5616 031370 177733                           .word 177733
    5617 031372 177777                           .word 177777
    5618 031374 157023                           .word 157023
    5619 031376 000012                           .word 12
    5620 031400 114000                           .word 114000
    5621 031402 000000                           .word 0
    5622                                
    5623 031404 177727                           .word 177727
    5624 031406 000000                           .word 0
    5625 031410 177777                           .word 177777
    5626 031412 000013                           .word 13
    5627 031414 177600                           .word 177600
    5628 031416 000000                           .word 0
    5629                                
    5630 031420 177717                           .word 177717
    5631 031422 177777                           .word 177777
    5632 031424 000001                           .word 1
    5633 031426 000011                           .word 11
    5634 031430 100000                           .word 100000
    5635 031432 100000                           .word 100000
    5636                                
    5637 031434 177741                           .word 177741
    5638 031436 100000                           .word 100000
    5639 031440 000000                           .word 0
    5640 031442 000010                           .word 10
    5641 031444 177777                           .word 177777
    5642 031446 177777                           .word 177777
    5643                                
    5644 031450 177742                           .word 177742
    5645 031452 037777                           .word 37777
    5646 031454 177777                           .word 177777
    5647 031456 000005                           .word 5
    5648 031460 000000                           .word 0
    5649 031462 000000                           .word 0
    5650                                
    5651 031464 177742                           .word 177742
    5652 031466 077777                           .word 77777
    5653 031470 177777                           .word 177777
    5654 031472 000001                           .word 1
    5655 031474 000000                           .word 0
    5656 031476 000001                           .word 1
    5657                                
    5658 031500 177711                           .word 177711
    5659 031502 065600                           .word 65600
    5660 031504 000012                           .word 12
    5661 031506 000003                           .word 3
    5662 031510 000000                           .word 0
    5663 031512 012000                           .word 12000
    5664                                
    5665 031514 177740                           .word 177740
    5666 031516 077777                           .word 77777
    5667 031520 177777                           .word 177777
    5668 031522 000004                           .word 4
    5669 031524 000000                           .word 0
    5670 031526 000000                           .word 0
    5671                                
    5672 031530 177737                           .word 177737
    5673 031532 177777                           .word 177777
    5674 031534 177774                           .word 177774
    5675 031536 000011                           .word 11
    5676 031540 177777                           .word 177777
    5677 031542 177777                           .word 177777
    5678                                
    5679 031544 177747                           .word 177747
    5680 031546 100000                           .word 100000
    5681 031550 174000                           .word 174000
    5682 031552 000010                           .word 10
    5683 031554 177777                           .word 177777
    5684 031556 177700                           .word 177700
    5685                                
    5686 031560 177753                           .word 177753
    5687 031562 006324                           .word 6324
    5688 031564 071002                           .word 71002
    5689 031566 000001                           .word 1
    5690 031570 000000                           .word 0
    5691 031572 000146                           .word 146
    5692                                
    5693 031574 177765                           .word 177765
    5694 031576 102351                           .word 102351
    5695 031600 177231                           .word 177231
    5696 031602 000011                           .word 11
    5697 031604 177760                           .word 177760
    5698 031606 116477                           .word 116477
    5699                                fin130:
    5700                                ;
    5701                                ;
    5702                                ;
    5703                                tst216:
    5704 031610 005006                           clr r6
    5705 031612 112667  017474                   movb (r6)+,expdat             ; original is count
    5706 031616 022706  000002                   cmp #2,r6
    5707 031622 001404                           beq spau1
    5708                                         error
       1 000773                         ..n      = ..n + 1
       2 031624 012737  000773  177570           mov #..n,@#ddisp
       3 031632 000000                           halt
    5709                                spau1:
    5710 031634 005006                           clr r6
    5711 031636 112667  017450                   movb (r6)+,expdat
    5712 031642 112667  017444                   movb (r6)+,expdat
    5713 031646 022706  000004                   cmp #4,r6
    5714 031652 001404                           beq spau2
    5715                                         error
       1 000774                         ..n      = ..n + 1
       2 031654 012737  000774  177570           mov #..n,@#ddisp
       3 031662 000000                           halt
    5716                                spau2:
    5717 031664 012706  000776                   mov #stbot,r6
    5718 031670 114667  017416                   movb -(r6),expdat
    5719 031674 022706  000774                   cmp #stbot-2,r6
    5720 031700 001404                           beq spau3
    5721                                         error
       1 000775                         ..n      = ..n + 1
       2 031702 012737  000775  177570           mov #..n,@#ddisp
       3 031710 000000                           halt
    5722                                spau3:
    5723 031712 012706  000776                   mov #stbot,r6
    5724 031716 114667  017370                   movb -(r6),expdat
    5725 031722 114667  017364                   movb -(r6),expdat
    5726 031726 022706  000772                   cmp #stbot-4,r6
    5727 031732 001404                           beq spau4
    5728                                         error
       1 000776                         ..n      = ..n + 1
       2 031734 012737  000776  177570           mov #..n,@#ddisp
       3 031742 000000                           halt
    5729                                spau4:
    5730 031744 005006                           clr r6
    5731 031746 105726                           tstb (r6)+
    5732 031750 020627  000002                   cmp r6,#2
    5733 031754 001404                           beq spau5
    5734                                         error
       1 000777                         ..n      = ..n + 1
       2 031756 012737  000777  177570           mov #..n,@#ddisp
       3 031764 000000                           halt
    5735                                spau5:
    5736 031766 012706  000776                   mov #stbot,r6
    5737 031772 105746                           tstb -(r6)
    5738 031774 022706  000774                   cmp #stbot-2,r6
    5739 032000 001404                           beq spau6
    5740                                         error
       1 001000                         ..n      = ..n + 1
       2 032002 012737  001000  177570           mov #..n,@#ddisp
       3 032010 000000                           halt
    5741                                spau6:
    5742 032012 012706  000776                   mov #stbot,r6
    5743                                ;
    5744                                ;
    5745                                ;
    5746                                tst217:
    5747 032016 005037  177766                   clr @#cpereg
    5748 032022 012706  000150                   mov #150,r6
    5749 032026 013767  000004  017250           mov @#4,sloc00
    5750 032034 012737  032100  000004           mov #mtrya,@#4
    5751 032042 013701  000146                   mov @#146,r1
    5752 032046 013702  000144                   mov @#144,r2
    5753 032052 013703  000142                   mov @#142,r3
    5754 032056 005037  000146                   clr @#146
    5755 032062 005046                           clr -(r6)
    5756 032064 012706  000776                   mov #stbot,r6
    5757                                         error
       1 001001                         ..n      = ..n + 1
       2 032070 012737  001001  177570           mov #..n,@#ddisp
       3 032076 000000                           halt
    5758                                mtrya:
    5759 032100 022737  000010  177766           cmp #10,@#cpereg
    5760 032106 001003                           bne 1$
    5761 032110 020627  000142                   cmp r6,#142
    5762 032114 001404                           beq mtryb
    5763                                1$:
    5764                                         error
       1 001002                         ..n      = ..n + 1
       2 032116 012737  001002  177570           mov #..n,@#ddisp
       3 032124 000000                           halt
    5765                                mtryb:
    5766 032126 005037  177766                   clr @#cpereg
    5767 032132 016737  017146  000004           mov sloc00,@#4
    5768 032140 010137  000146                   mov r1,@#146
    5769 032144 010237  000144                   mov r2,@#144
    5770 032150 010337  000142                   mov r3,@#142
    5771 032154 012706  000776                   mov #stbot,r6
    5772                                ;
    5773                                ;
    5774                                ;
    5775                                tst220:
    5776 032160 005037  177766                   clr @#cpereg
    5777 032164 012706  000400                   mov #400,r6
    5778 032170 013767  000004  017106           mov @#4,sloc00
    5779 032176 012737  032226  000004           mov #tryma,@#4
    5780 032204 005037  000376                   clr @#376
    5781 032210 005046                           clr -(r6)
    5782 032212 012706  000776                   mov #stbot,r6
    5783                                         error
       1 001003                         ..n      = ..n + 1
       2 032216 012737  001003  177570           mov #..n,@#ddisp
       3 032224 000000                           halt
    5784                                tryma:
    5785 032226 005037  177766                   clr @#cpereg
    5786 032232 012705  001000                   mov #1000,r5
    5787 032236 012706  000400                   mov #400,r6
    5788 032242 012737  032266  000004           mov #trymb,@#4
    5789 032250 064645                           add -(r6),-(r5)
    5790 032252 012706  000776                   mov #stbot,r6
    5791                                         error
       1 001004                         ..n      = ..n + 1
       2 032256 012737  001004  177570           mov #..n,@#ddisp
       3 032264 000000                           halt
    5792                                trymb:
    5793 032266 005037  177766                   clr @#cpereg
    5794 032272 012706  000150                   mov #150,r6
    5795 032276 012737  032322  000004           mov #trymc,@#4
    5796 032304 044546                           bic -(r5),-(r6)
    5797 032306 012706  000776                   mov #stbot,r6
    5798                                         error
       1 001005                         ..n      = ..n + 1
       2 032312 012737  001005  177570           mov #..n,@#ddisp
       3 032320 000000                           halt
    5799                                trymc:
    5800 032322 005037  177766                   clr @#cpereg
    5801 032326 016737  016752  000004           mov sloc00,@#4
    5802 032334 012706  000776                   mov #stbot,r6
    5803                                ;
    5804                                ;
    5805                                ;
    5806                                tst221:
    5807 032340 005037  177766                   clr @#cpereg
    5808 032344 012706  000400                   mov #400,r6
    5809 032350 013767  000010  016726           mov @#10,sloc00
    5810 032356 012737  032404  000010           mov #mill0a,@#10
    5811 032364 013767  000004  016714           mov @#4,sloc01
    5812 032372 012737  032420  000004           mov #mill0b,@#4
    5813 032400 000077                           77
    5814 032402 000240                           nop
    5815                                mill0a:
    5816 032404 012706  000776                   mov #stbot,r6
    5817                                         error
       1 001006                         ..n      = ..n + 1
       2 032410 012737  001006  177570           mov #..n,@#ddisp
       3 032416 000000                           halt
    5818                                mill0b:
    5819 032420 016737  016662  000004           mov sloc01,@#4
    5820 032426 016737  016652  000010           mov sloc00,@#10
    5821 032434 005037  177766                   clr @#cpereg
    5822 032440 012706  000776                   mov #stbot,r6
    5823                                ;
    5824                                ;
    5825                                ;
    5826                                tst222:
    5827 032444 005037  177766                   clr @#cpereg
    5828 032450 012706  000400                   mov #400,r6
    5829 032454 013767  000020  016622           mov @#20,sloc00
    5830 032462 012737  032510  000020           mov #iot0a,@#20
    5831 032470 013767  000004  016610           mov @#4,sloc01
    5832 032476 012737  032524  000004           mov #iot0b,@#4
    5833 032504 000004                           iot
    5834 032506 000240                           nop
    5835                                iot0a:
    5836 032510 012706  000776                   mov #stbot,r6
    5837                                         error
       1 001007                         ..n      = ..n + 1
       2 032514 012737  001007  177570           mov #..n,@#ddisp
       3 032522 000000                           halt
    5838                                iot0b:
    5839 032524 005037  177766                   clr @#cpereg
    5840 032530 012706  000776                   mov #stbot,r6
    5841 032534 016737  016546  000004           mov sloc01,@#4
    5842 032542 016737  016536  000020           mov sloc00,@#20
    5843                                ;
    5844                                ;
    5845                                ;
    5846                                tst223:
    5847 032550 005037  177766                   clr @#cpereg
    5848 032554 012706  000400                   mov #400,r6
    5849 032560 013767  000030  016516           mov @#30,sloc00
    5850 032566 012737  032614  000030           mov #memt0a,@#30
    5851 032574 013767  000004  016504           mov @#4,sloc01
    5852 032602 012737  032630  000004           mov #memt0b,@#4
    5853 032610 104000                           emt 0
    5854 032612 000240                           nop
    5855                                memt0a:
    5856 032614 012706  000776                   mov #stbot,r6
    5857                                         error
       1 001010                         ..n      = ..n + 1
       2 032620 012737  001010  177570           mov #..n,@#ddisp
       3 032626 000000                           halt
    5858                                memt0b:
    5859 032630 016737  016450  000030           mov sloc00,@#30
    5860 032636 016737  016444  000004           mov sloc01,@#4
    5861 032644 005037  177766                   clr @#cpereg
    5862 032650 012706  000776                   mov #stbot,r6
    5863                                ;
    5864                                ;
    5865                                ;
    5866                                tst224:
    5867 032654 005037  177766                   clr @#cpereg
    5868 032660 012706  000400                   mov #400,r6
    5869 032664 013767  000034  016412           mov @#34,sloc00
    5870 032672 012737  032720  000034           mov #trp0a,@#34
    5871 032700 013767  000004  016400           mov @#4,sloc01
    5872 032706 012737  032734  000004           mov #trp0b,@#4
    5873 032714 104400                           trap 0
    5874 032716 000240                           nop
    5875                                trp0a:
    5876 032720 012706  000776                   mov #stbot,r6
    5877                                         error
       1 001011                         ..n      = ..n + 1
       2 032724 012737  001011  177570           mov #..n,@#ddisp
       3 032732 000000                           halt
    5878                                trp0b:
    5879 032734 016737  016344  000034           mov sloc00,@#34
    5880 032742 016737  016340  000004           mov sloc01,@#4
    5881 032750 005037  177766                   clr @#cpereg
    5882 032754 012706  000776                   mov #stbot,r6
    5883                                ;
    5884                                ;
    5885                                ;
    5886                                tst225:
    5887 032760 005037  177766                   clr @#cpereg
    5888 032764 012706  000400                   mov #400,r6
    5889 032770 013767  000014  016306           mov @#14,sloc00
    5890 032776 012737  033024  000014           mov #bpt0a,@#14
    5891 033004 013767  000004  016274           mov @#4,sloc01
    5892 033012 012737  033040  000004           mov #bpt0b,@#4
    5893 033020 000003                           bpt
    5894 033022 000240                           nop
    5895                                bpt0a:
    5896 033024 012706  000776                   mov #stbot,r6
    5897                                         error
       1 001012                         ..n      = ..n + 1
       2 033030 012737  001012  177570           mov #..n,@#ddisp
       3 033036 000000                           halt
    5898                                bpt0b:
    5899 033040 005037  177766                   clr @#cpereg
    5900 033044 016737  016234  000014           mov sloc00,@#14
    5901 033052 016737  016230  000004           mov sloc01,@#4
    5902 033060 012706  000776                   mov #stbot,r6
    5903                                ;
    5904                                ;
    5905                                ;
    5906                                tst226:
    5907 033064 005037  177766                   clr @#cpereg
    5908 033070 012706  000400                   mov #400,r6
    5909 033074 013767  000010  016202           mov @#10,sloc00
    5910 033102 012737  033132  000010           mov #ila0a,@#10
    5911 033110 013767  000004  016170           mov @#4,sloc01
    5912 033116 012737  033146  000004           mov #ilb0b,@#4
    5913                                
    5914 033124 005001                           clr r1
    5915 033126 000101                           jmp r1
    5916 033130 000240                           nop
    5917                                ila0a:
    5918 033132 012706  000776                   mov #stbot,r6
    5919                                         error
       1 001013                         ..n      = ..n + 1
       2 033136 012737  001013  177570           mov #..n,@#ddisp
       3 033144 000000                           halt
    5920                                ilb0b:
    5921 033146 016737  016134  000004           mov sloc01,@#4
    5922 033154 016737  016124  000010           mov sloc00,@#10
    5923 033162 005037  177766                   clr @#cpereg
    5924 033166 012706  000776                   mov #stbot,r6
    5925                                ;
    5926                                ;
    5927                                ;
    5928                                tst227:
    5929 033172 005037  177766                   clr @#cpereg
    5930 033176 012706  000400                   mov #400,r6
    5931 033202 013767  000010  016074           mov @#10,sloc00
    5932 033210 012737  033232  000010           mov #illb0a,@#10
    5933 033216 012737  033246  000004           mov #illb0b,@#4
    5934                                
    5935 033224 005001                           clr r1
    5936 033226 004501                           jsr r5,r1
    5937 033230 000240                           nop
    5938                                illb0a:
    5939 033232 012706  000776                   mov #stbot,r6
    5940                                         error
       1 001014                         ..n      = ..n + 1
       2 033236 012737  001014  177570           mov #..n,@#ddisp
       3 033244 000000                           halt
    5941                                illb0b:
    5942 033246 005037  177766                   clr @#cpereg
    5943 033252 016737  016026  000010           mov sloc00,@#10
    5944 033260 016737  016022  000004           mov sloc01,@#4
    5945 033266 012706  000776                   mov #stbot,r6
    5946                                ;
    5947                                ;
    5948                                ;
    5949                                tst230:
    5950 033272 013767  000004  016004           mov @#4,sloc00
    5951 033300 012737  033340  000004           mov #mst0e,@#4
    5952 033306 012706  001002                   mov #1002,r6
    5953 033312 005746                           tst -(r6)
    5954 033314 012706  002002                   mov #2002,r6
    5955 033320 005746                           tst -(r6)
    5956 033322 012706  004002                   mov #4002,r6
    5957 033326 005746                           tst -(r6)
    5958 033330 012706  010002                   mov #10002,r6
    5959 033334 005746                           tst -(r6)
    5960                                ;         mov #100402,r6                        ; FIXME there is not that much core yet
    5961                                ;         tst -(r6)
    5962 033336 000406                           br mst0ee
    5963                                mst0e:
    5964 033340 012706  000776                   mov #stbot,r6
    5965                                         error
       1 001015                         ..n      = ..n + 1
       2 033344 012737  001015  177570           mov #..n,@#ddisp
       3 033352 000000                           halt
    5966                                mst0ee:
    5967 033354 016737  015724  000004           mov sloc00,@#4
    5968 033362 012706  000776                   mov #stbot,r6
    5969                                ;
    5970                                ;
    5971                                ;
    5972                                tst231:
    5973 033366 012706  000776                   mov #stbot,r6
    5974 033372 013767  000014  015704           mov @#14,sloc00
    5975 033400 012746  000020                   mov #20,-(r6)
    5976 033404 012746  033430                   mov #mtta,-(r6)
    5977 033410 012737  033440  000014           mov #mttb,@#14
    5978 033416 000002                           rti
    5979                                         error
       1 001016                         ..n      = ..n + 1
       2 033420 012737  001016  177570           mov #..n,@#ddisp
       3 033426 000000                           halt
    5980                                mtta:
    5981                                         error
       1 001017                         ..n      = ..n + 1
       2 033430 012737  001017  177570           mov #..n,@#ddisp
       3 033436 000000                           halt
    5982                                mttb:
    5983 033440 022706  000772                   cmp #stbot-4,r6
    5984 033444 001404                           beq mttd
    5985                                         error
       1 001020                         ..n      = ..n + 1
       2 033446 012737  001020  177570           mov #..n,@#ddisp
       3 033454 000000                           halt
    5986                                mttd:
    5987 033456 021627  033430                   cmp (r6),#mtta
    5988 033462 001404                           beq mtte
    5989                                         error
       1 001021                         ..n      = ..n + 1
       2 033464 012737  001021  177570           mov #..n,@#ddisp
       3 033472 000000                           halt
    5990                                mtte:
    5991 033474 016737  015604  000014           mov sloc00,@#14
    5992 033502 012706  000776                   mov #stbot,r6
    5993                                ;
    5994                                ;
    5995                                ;
    5996                                tst232:
    5997 033506 012706  000776                   mov #stbot,r6
    5998 033512 013767  000014  015564           mov @#14,sloc00
    5999 033520 012746  000020                   mov #20,-(r6)
    6000 033524 012746  033550                   mov #mttsa,-(r6)
    6001 033530 012737  033562  000014           mov #mttsb,@#14
    6002 033536 000006                           rtt
    6003                                         error
       1 001022                         ..n      = ..n + 1
       2 033540 012737  001022  177570           mov #..n,@#ddisp
       3 033546 000000                           halt
    6004                                mttsa:
    6005 033550 000240                           nop
    6006                                mttsq:
    6007                                         error
       1 001023                         ..n      = ..n + 1
       2 033552 012737  001023  177570           mov #..n,@#ddisp
       3 033560 000000                           halt
    6008                                mttsb:
    6009 033562 022706  000772                   cmp #stbot-4,r6
    6010 033566 001404                           beq mttsd
    6011                                         error
       1 001024                         ..n      = ..n + 1
       2 033570 012737  001024  177570           mov #..n,@#ddisp
       3 033576 000000                           halt
    6012                                mttsd:
    6013 033600 021627  033552                   cmp (r6),#mttsq
    6014 033604 001404                           beq mttse
    6015                                         error
       1 001025                         ..n      = ..n + 1
       2 033606 012737  001025  177570           mov #..n,@#ddisp
       3 033614 000000                           halt
    6016                                mttse:
    6017 033616 016737  015462  000014           mov sloc00,@#14
    6018 033624 012706  000776                   mov #stbot,r6
    6019                                ;
    6020                                ;
    6021                                ;
    6022                                tst233:
    6023 033630 012706  000776                   mov #stbot,r6
    6024 033634 013767  000014  015442           mov @#14,sloc00
    6025 033642 012746  000020                   mov #20,-(r6)
    6026 033646 012746  033702                   mov #mttra,-(r6)
    6027 033652 012737  033712  000014           mov #mttrb,@#14
    6028 033660 012737  000357  177776           mov #357,@#177776
    6029 033666 000277                           scc
    6030 033670 000002                           rti
    6031                                         error
       1 001026                         ..n      = ..n + 1
       2 033672 012737  001026  177570           mov #..n,@#ddisp
       3 033700 000000                           halt
    6032                                mttra:
    6033                                         error
       1 001027                         ..n      = ..n + 1
       2 033702 012737  001027  177570           mov #..n,@#ddisp
       3 033710 000000                           halt
    6034                                mttrb:
    6035 033712 026727  145056  000020           cmp stbot-2,#20
    6036 033720 001404                           beq mttrq
    6037                                         error
       1 001030                         ..n      = ..n + 1
       2 033722 012737  001030  177570           mov #..n,@#ddisp
       3 033730 000000                           halt
    6038                                mttrq:
    6039 033732 012706  000776                   mov #stbot,r6
    6040 033736 012746  000377                   mov #377,-(r6)
    6041 033742 012746  033776                   mov #mttrd,-(r6)
    6042 033746 012737  034006  000014           mov #mttre,@#14
    6043 033754 012737  000000  177776           mov #0,@#177776
    6044 033762 000257                           ccc
    6045 033764 000002                           rti
    6046                                         error
       1 001031                         ..n      = ..n + 1
       2 033766 012737  001031  177570           mov #..n,@#ddisp
       3 033774 000000                           halt
    6047                                mttrd:
    6048                                         error
       1 001032                         ..n      = ..n + 1
       2 033776 012737  001032  177570           mov #..n,@#ddisp
       3 034004 000000                           halt
    6049                                mttre:
    6050 034006 026727  144762  000377           cmp stbot-2,#377
    6051 034014 001404                           beq mttrf
    6052                                         error
       1 001033                         ..n      = ..n + 1
       2 034016 012737  001033  177570           mov #..n,@#ddisp
       3 034024 000000                           halt
    6053                                mttrf:
    6054 034026 016737  015252  000014           mov sloc00,@#14
    6055 034034 012706  000776                   mov #stbot,r6
    6056                                ;
    6057                                ;
    6058                                ;
    6059                                tst234:
    6060 034040 012706  000776                   mov #stbot,r6
    6061 034044 013767  000010  015232           mov @#10,sloc00
    6062 034052 012737  034072  000010           mov #mrtb,@#10
    6063 034060 000077                           77
    6064                                mrta:
    6065                                         error
       1 001034                         ..n      = ..n + 1
       2 034062 012737  001034  177570           mov #..n,@#ddisp
       3 034070 000000                           halt
    6066                                mrtb:
    6067 034072 022706  000772                   cmp #stbot-4,r6
    6068 034076 001404                           beq mrte
    6069                                         error
       1 001035                         ..n      = ..n + 1
       2 034100 012737  001035  177570           mov #..n,@#ddisp
       3 034106 000000                           halt
    6070                                mrte:
    6071 034110 021627  034062                   cmp (r6),#mrta
    6072 034114 001404                           beq mrtf
    6073                                         error
       1 001036                         ..n      = ..n + 1
       2 034116 012737  001036  177570           mov #..n,@#ddisp
       3 034124 000000                           halt
    6074                                mrtf:
    6075 034126 016737  015152  000010           mov sloc00,@#10
    6076 034134 012706  000776                   mov #stbot,r6
    6077                                ;
    6078                                ;
    6079                                ;
    6080                                tst235:
    6081 034140 012706  000776                   mov #stbot,r6
    6082 034144 013767  000010  015132           mov @#10,sloc00
    6083 034152 012737  034200  000010           mov #mrt0b,@#10
    6084 034160 005037  177776                   clr @#177776
    6085 034164 000257                           ccc
    6086 034166 000077                           77
    6087                                mrt0a:
    6088                                         error
       1 001037                         ..n      = ..n + 1
       2 034170 012737  001037  177570           mov #..n,@#ddisp
       3 034176 000000                           halt
    6089                                mrt0b:
    6090 034200 026727  144570  000000           cmp stbot-2,#0
    6091 034206 001404                           beq mrt0c
    6092                                         error
       1 001040                         ..n      = ..n + 1
       2 034210 012737  001040  177570           mov #..n,@#ddisp
       3 034216 000000                           halt
    6093                                mrt0c:
    6094 034220 012706  000776                   mov #stbot,r6
    6095 034224 012737  034254  000010           mov #mrt0e,@#10
    6096 034232 012737  000357  177776           mov #357,@#177776
    6097 034240 000277                           scc
    6098 034242 000077                           77
    6099                                mrt0d:
    6100                                         error
       1 001041                         ..n      = ..n + 1
       2 034244 012737  001041  177570           mov #..n,@#ddisp
       3 034252 000000                           halt
    6101                                mrt0e:
    6102 034254 026727  144514  000357           cmp stbot-2,#357
    6103 034262 001404                           beq mrt0f
    6104                                         error
       1 001042                         ..n      = ..n + 1
       2 034264 012737  001042  177570           mov #..n,@#ddisp
       3 034272 000000                           halt
    6105                                mrt0f:
    6106 034274 016737  015004  000010           mov sloc00,@#10
    6107 034302 012706  000776                   mov #stbot,r6
    6108                                ;
    6109                                ;
    6110                                ;
    6111                                tst236:
    6112 034306 012706  000776                   mov #stbot,r6
    6113 034312 013767  000034  014764           mov @#34,sloc00
    6114 034320 012737  034346  000034           mov #mtpb,@#34
    6115 034326 005037  177776                   clr @#177776
    6116 034332 000257                           ccc
    6117 034334 104400                           trap 0
    6118                                mtpr:
    6119                                         error
       1 001043                         ..n      = ..n + 1
       2 034336 012737  001043  177570           mov #..n,@#ddisp
       3 034344 000000                           halt
    6120                                mtpb:
    6121 034346 022706  000772                   cmp #stbot-4,r6
    6122 034352 001404                           beq mtpq
    6123                                         error
       1 001044                         ..n      = ..n + 1
       2 034354 012737  001044  177570           mov #..n,@#ddisp
       3 034362 000000                           halt
    6124                                mtpq:
    6125 034364 021627  034336                   cmp (r6),#mtpr
    6126 034370 001404                           beq mtpf
    6127                                         error
       1 001045                         ..n      = ..n + 1
       2 034372 012737  001045  177570           mov #..n,@#ddisp
       3 034400 000000                           halt
    6128                                mtpf:
    6129 034402 016737  014676  000034           mov sloc00,@#34
    6130 034410 012706  000776                   mov #stbot,r6
    6131                                ;
    6132                                ;
    6133                                ;
    6134                                tst237:
    6135 034414 012706  000776                   mov #stbot,r6
    6136 034420 013767  000034  014656           mov @#34,sloc00
    6137 034426 012737  034454  000034           mov #mtp0b,@#34
    6138 034434 005037  177776                   clr @#177776
    6139 034440 000257                           ccc
    6140 034442 104400                           trap 0
    6141                                mtp0a:
    6142                                         error
       1 001046                         ..n      = ..n + 1
       2 034444 012737  001046  177570           mov #..n,@#ddisp
       3 034452 000000                           halt
    6143                                mtp0b:
    6144 034454 026727  144314  000000           cmp stbot-2,#0
    6145 034462 001404                           beq mtp0c
    6146                                         error
       1 001047                         ..n      = ..n + 1
       2 034464 012737  001047  177570           mov #..n,@#ddisp
       3 034472 000000                           halt
    6147                                mtp0c:
    6148 034474 012706  000776                   mov #stbot,r6
    6149 034500 012737  034530  000034           mov #mtp0e,@#34
    6150 034506 012737  000357  177776           mov #357,@#177776
    6151 034514 000277                           scc
    6152 034516 104400                           trap 0
    6153                                mtp0d:
    6154                                         error
       1 001050                         ..n      = ..n + 1
       2 034520 012737  001050  177570           mov #..n,@#ddisp
       3 034526 000000                           halt
    6155                                mtp0e:
    6156 034530 026727  144240  000357           cmp stbot-2,#357
    6157 034536 001404                           beq mtp0f
    6158                                         error
       1 001051                         ..n      = ..n + 1
       2 034540 012737  001051  177570           mov #..n,@#ddisp
       3 034546 000000                           halt
    6159                                mtp0f:
    6160 034550 016737  014530  000034           mov sloc00,@#34
    6161 034556 012706  000776                   mov #stbot,r6
    6162                                ;
    6163                                ;
    6164                                ;
    6165                                tst240:
    6166 034562 005003                           clr r3
    6167 034564 012706  000776                   mov #stbot,r6
    6168 034570 013767  000034  014506           mov @#34,sloc00
    6169 034576 013767  000004  014502           mov @#4,sloc01
    6170 034604 012737  034642  000004           mov #mtpah,@#4
    6171 034612 012737  034652  000034           mov #mtpaa,@#34
    6172 034620 000167  000026                   jmp mtpaa
    6173                                mtpal:
    6174 034624 000000                           halt
    6175                                         error
       1 001052                         ..n      = ..n + 1
       2 034626 012737  001052  177570           mov #..n,@#ddisp
       3 034634 000000                           halt
    6176 034636 000167  000010                   jmp mtpaa
    6177                                mtpah:
    6178                                         error
       1 001053                         ..n      = ..n + 1
       2 034642 012737  001053  177570           mov #..n,@#ddisp
       3 034650 000000                           halt
    6179                                mtpaa:
    6180 034652 005203                           inc r3
    6181 034654 012706  000776                   mov #stbot,r6
    6182 034660 020327  000400                   cmp r3,#400
    6183 034664 001406                           beq mtpae
    6184 034666 012737  104400  034624           mov #104400,@#mtpal
    6185 034674 060337  034624                   add r3,@#mtpal
    6186 034700 000751                           br mtpal
    6187                                mtpae:
    6188 034702 016737  014376  000034           mov sloc00,@#34
    6189 034710 016737  014372  000004           mov sloc01,@#4
    6190 034716 012706  000776                   mov #stbot,r6
    6191                                ;
    6192                                ;
    6193                                ;
    6194                                tst241:
    6195 034722 012706  000776                   mov #stbot,r6
    6196 034726 013767  000020  014350           mov @#20,sloc00
    6197 034734 012737  034754  000020           mov #miotb,@#20
    6198 034742 000004                           iot
    6199                                miota:
    6200                                         error
       1 001054                         ..n      = ..n + 1
       2 034744 012737  001054  177570           mov #..n,@#ddisp
       3 034752 000000                           halt
    6201                                miotb:
    6202 034754 022706  000772                   cmp #stbot-4,r6
    6203 034760 001404                           beq miotd
    6204                                         error
       1 001055                         ..n      = ..n + 1
       2 034762 012737  001055  177570           mov #..n,@#ddisp
       3 034770 000000                           halt
    6205                                miotd:
    6206 034772 021627  034744                   cmp (r6),#miota
    6207 034776 001404                           beq miotf
    6208                                         error
       1 001056                         ..n      = ..n + 1
       2 035000 012737  001056  177570           mov #..n,@#ddisp
       3 035006 000000                           halt
    6209                                miotf:
    6210 035010 016737  014270  000020           mov sloc00,@#20
    6211 035016 012706  000776                   mov #stbot,r6
    6212                                ;
    6213                                ;
    6214                                ;
    6215                                tst242:
    6216 035022 012706  000776                   mov #stbot,r6
    6217 035026 013767  000020  014250           mov @#20,sloc00
    6218 035034 012737  035062  000020           mov #mitob,@#20
    6219 035042 005037  177776                   clr @#177776
    6220 035046 000257                           ccc
    6221 035050 000004                           iot
    6222                                mitoa:
    6223                                         error
       1 001057                         ..n      = ..n + 1
       2 035052 012737  001057  177570           mov #..n,@#ddisp
       3 035060 000000                           halt
    6224                                mitob:
    6225 035062 026727  143706  000000           cmp stbot-2,#0
    6226 035070 001404                           beq mitoc
    6227                                         error
       1 001060                         ..n      = ..n + 1
       2 035072 012737  001060  177570           mov #..n,@#ddisp
       3 035100 000000                           halt
    6228                                mitoc:
    6229 035102 012706  000776                   mov #stbot,r6
    6230 035106 012737  035136  000020           mov #mitoe,@#20
    6231 035114 012737  000357  177776           mov #357,@#177776
    6232 035122 000277                           scc
    6233 035124 000004                           iot
    6234                                mitod:
    6235                                         error
       1 001061                         ..n      = ..n + 1
       2 035126 012737  001061  177570           mov #..n,@#ddisp
       3 035134 000000                           halt
    6236                                mitoe:
    6237 035136 026727  143632  000357           cmp stbot-2,#357
    6238 035144 001404                           beq mitof
    6239                                         error
       1 001062                         ..n      = ..n + 1
       2 035146 012737  001062  177570           mov #..n,@#ddisp
       3 035154 000000                           halt
    6240                                mitof:
    6241 035156 016737  014122  000020           mov sloc00,@#20
    6242 035164 012706  000776                   mov #stbot,r6
    6243                                ;
    6244                                ;
    6245                                ;
    6246                                tst243:
    6247 035170 012706  000776                   mov #stbot,r6
    6248 035174 013767  000030  014102           mov @#30,sloc00
    6249 035202 012737  035222  000030           mov #metb,@#30
    6250 035210 104000                           emt 0
    6251                                meta:
    6252                                         error
       1 001063                         ..n      = ..n + 1
       2 035212 012737  001063  177570           mov #..n,@#ddisp
       3 035220 000000                           halt
    6253                                metb:
    6254 035222 022706  000772                   cmp #stbot-4,r6
    6255 035226 001404                           beq metd
    6256                                         error
       1 001064                         ..n      = ..n + 1
       2 035230 012737  001064  177570           mov #..n,@#ddisp
       3 035236 000000                           halt
    6257                                metd:
    6258 035240 021627  035212                   cmp (r6),#meta
    6259 035244 001404                           beq metf
    6260                                         error
       1 001065                         ..n      = ..n + 1
       2 035246 012737  001065  177570           mov #..n,@#ddisp
       3 035254 000000                           halt
    6261                                metf:
    6262 035256 016737  014022  000030           mov sloc00,@#30
    6263 035264 012706  000776                   mov #stbot,r6
    6264                                ;
    6265                                ;
    6266                                ;
    6267                                tst244:
    6268 035270 012706  000776                   mov #stbot,r6
    6269 035274 013767  000030  014002           mov @#30,sloc00
    6270 035302 012737  035330  000030           mov #metob,@#30
    6271 035310 005037  177776                   clr @#177776
    6272 035314 000257                           ccc
    6273 035316 104000                           emt 0
    6274                                metoa:
    6275                                         error
       1 001066                         ..n      = ..n + 1
       2 035320 012737  001066  177570           mov #..n,@#ddisp
       3 035326 000000                           halt
    6276                                metob:
    6277 035330 026727  143440  000000           cmp stbot-2,#0
    6278 035336 001404                           beq metoc
    6279                                         error
       1 001067                         ..n      = ..n + 1
       2 035340 012737  001067  177570           mov #..n,@#ddisp
       3 035346 000000                           halt
    6280                                metoc:
    6281 035350 012706  000776                   mov #stbot,r6
    6282 035354 012737  035404  000030           mov #metoe,@#30
    6283 035362 012737  000357  177776           mov #357,@#177776
    6284 035370 000277                           scc
    6285 035372 104000                           emt 0
    6286                                metod:
    6287                                         error
       1 001070                         ..n      = ..n + 1
       2 035374 012737  001070  177570           mov #..n,@#ddisp
       3 035402 000000                           halt
    6288                                metoe:
    6289 035404 026727  143364  000357           cmp stbot-2,#357
    6290 035412 001404                           beq metof
    6291                                         error
       1 001071                         ..n      = ..n + 1
       2 035414 012737  001071  177570           mov #..n,@#ddisp
       3 035422 000000                           halt
    6292                                metof:
    6293 035424 016737  013654  000030           mov sloc00,@#30
    6294 035432 012706  000776                   mov #stbot,r6
    6295                                ;
    6296                                ;
    6297                                ;
    6298                                tst245:
    6299 035436 012706  000776                   mov #stbot,r6
    6300 035442 013767  000014  013634           mov @#14,sloc00
    6301 035450 012737  035470  000014           mov #mbtb,@#14
    6302 035456 000003                           bpt
    6303                                mbta:
    6304                                         error
       1 001072                         ..n      = ..n + 1
       2 035460 012737  001072  177570           mov #..n,@#ddisp
       3 035466 000000                           halt
    6305                                mbtb:
    6306 035470 022706  000772                   cmp #stbot-4,r6
    6307 035474 001404                           beq mbtd
    6308                                         error
       1 001073                         ..n      = ..n + 1
       2 035476 012737  001073  177570           mov #..n,@#ddisp
       3 035504 000000                           halt
    6309                                mbtd:
    6310 035506 021627  035460                   cmp (r6),#mbta
    6311 035512 001404                           beq mbtf
    6312                                         error
       1 001074                         ..n      = ..n + 1
       2 035514 012737  001074  177570           mov #..n,@#ddisp
       3 035522 000000                           halt
    6313                                mbtf:
    6314 035524 016737  013554  000014           mov sloc00,@#14
    6315 035532 012706  000776                   mov #stbot,r6
    6316                                ;
    6317                                ;
    6318                                ;
    6319                                tst246:
    6320 035536 012706  000776                   mov #stbot,r6
    6321 035542 013767  000014  013534           mov @#14,sloc00
    6322 035550 012737  035576  000014           mov #mbtob,@#14
    6323 035556 005037  177776                   clr @#177776
    6324 035562 000257                           ccc
    6325 035564 000003                           bpt
    6326                                mbtoa:
    6327                                         error
       1 001075                         ..n      = ..n + 1
       2 035566 012737  001075  177570           mov #..n,@#ddisp
       3 035574 000000                           halt
    6328                                mbtob:
    6329 035576 026727  143172  000000           cmp stbot-2,#0
    6330 035604 001404                           beq mbtoc
    6331                                         error
       1 001076                         ..n      = ..n + 1
       2 035606 012737  001076  177570           mov #..n,@#ddisp
       3 035614 000000                           halt
    6332                                mbtoc:
    6333 035616 012706  000776                   mov #stbot,r6
    6334 035622 012737  035652  000014           mov #mbtoe,@#14
    6335 035630 012737  000357  177776           mov #357,@#177776
    6336 035636 000277                           scc
    6337 035640 000003                           bpt
    6338                                mbtod:
    6339                                         error
       1 001077                         ..n      = ..n + 1
       2 035642 012737  001077  177570           mov #..n,@#ddisp
       3 035650 000000                           halt
    6340                                mbtoe:
    6341 035652 026727  143116  000357           cmp stbot-2,#357
    6342 035660 001404                           beq mbtof
    6343                                         error
       1 001100                         ..n      = ..n + 1
       2 035662 012737  001100  177570           mov #..n,@#ddisp
       3 035670 000000                           halt
    6344                                mbtof:
    6345 035672 016737  013406  000014           mov sloc00,@#14
    6346 035700 012706  000776                   mov #stbot,r6
    6347                                ;
    6348                                ;
    6349                                ;
    6350                                tst247:
    6351 035704 012706  000776                   mov #stbot,r6
    6352 035710 013767  000010  013366           mov @#10,sloc00
    6353 035716 012737  035740  000010           mov #milb,@#10
    6354 035724 005001                           clr r1
    6355 035726 000101                           jmp r1
    6356                                mila:
    6357                                         error
       1 001101                         ..n      = ..n + 1
       2 035730 012737  001101  177570           mov #..n,@#ddisp
       3 035736 000000                           halt
    6358                                milb:
    6359 035740 022706  000772                   cmp #stbot-4,r6
    6360 035744 001404                           beq mild
    6361                                         error
       1 001102                         ..n      = ..n + 1
       2 035746 012737  001102  177570           mov #..n,@#ddisp
       3 035754 000000                           halt
    6362                                mild:
    6363 035756 021627  035730                   cmp (r6),#mila
    6364 035762 001404                           beq milf
    6365                                         error
       1 001103                         ..n      = ..n + 1
       2 035764 012737  001103  177570           mov #..n,@#ddisp
       3 035772 000000                           halt
    6366                                milf:
    6367 035774 016737  013304  000010           mov sloc00,@#10
    6368 036002 012706  000776                   mov #stbot,r6
    6369                                ;
    6370                                ;
    6371                                ;
    6372                                tst250:
    6373 036006 012706  000776                   mov #stbot,r6
    6374 036012 013767  000010  013264           mov @#10,sloc00
    6375 036020 012737  036050  000010           mov #milob,@#10
    6376 036026 005037  177776                   clr @#177776
    6377 036032 000257                           ccc
    6378 036034 005001                           clr r1
    6379 036036 000101                           jmp r1
    6380                                miloa:
    6381                                         error
       1 001104                         ..n      = ..n + 1
       2 036040 012737  001104  177570           mov #..n,@#ddisp
       3 036046 000000                           halt
    6382                                milob:
    6383 036050 026727  142720  000004           cmp stbot-2,#4
    6384 036056 001404                           beq miloc
    6385                                         error
       1 001105                         ..n      = ..n + 1
       2 036060 012737  001105  177570           mov #..n,@#ddisp
       3 036066 000000                           halt
    6386                                miloc:
    6387 036070 012706  000776                   mov #stbot,r6
    6388 036074 012737  036124  000010           mov #miloe,@#10
    6389 036102 012737  000357  177776           mov #357,@#177776
    6390 036110 000277                           scc
    6391 036112 000101                           jmp r1
    6392                                milod:
    6393                                         error
       1 001106                         ..n      = ..n + 1
       2 036114 012737  001106  177570           mov #..n,@#ddisp
       3 036122 000000                           halt
    6394                                miloe:
    6395 036124 026727  142644  000357           cmp stbot-2,#357
    6396 036132 001404                           beq milof
    6397                                         error
       1 001107                         ..n      = ..n + 1
       2 036134 012737  001107  177570           mov #..n,@#ddisp
       3 036142 000000                           halt
    6398                                milof:
    6399 036144 016737  013134  000010           mov sloc00,@#10
    6400 036152 012706  000776                   mov #stbot,r6
    6401                                ;
    6402                                ;
    6403                                ;
    6404                                tst251:
    6405 036156 012706  000776                   mov #stbot,r6
    6406 036162 013767  000010  013114           mov @#10,sloc00
    6407 036170 012737  036212  000010           mov #miallb,@#10
    6408 036176 005003                           clr r3
    6409 036200 004303                           jsr r3,r3
    6410                                mialla:
    6411                                         error
       1 001110                         ..n      = ..n + 1
       2 036202 012737  001110  177570           mov #..n,@#ddisp
       3 036210 000000                           halt
    6412                                miallb:
    6413 036212 022706  000772                   cmp #stbot-4,r6
    6414 036216 001404                           beq mialld
    6415                                         error
       1 001111                         ..n      = ..n + 1
       2 036220 012737  001111  177570           mov #..n,@#ddisp
       3 036226 000000                           halt
    6416                                mialld:
    6417 036230 021627  036202                   cmp (r6),#mialla
    6418 036234 001404                           beq miallf
    6419                                         error
       1 001112                         ..n      = ..n + 1
       2 036236 012737  001112  177570           mov #..n,@#ddisp
       3 036244 000000                           halt
    6420                                miallf:
    6421 036246 016737  013032  000010           mov sloc00,@#10
    6422 036254 012706  000776                   mov #stbot,r6
    6423                                ;
    6424                                ;
    6425                                ;
    6426                                tst252:
    6427 036260 012706  000776                   mov #stbot,r6
    6428 036264 013767  000010  013012           mov @#10,sloc00
    6429 036272 012737  036322  000010           mov #mjsib,@#10
    6430 036300 005037  177776                   clr @#177776
    6431 036304 000257                           ccc
    6432 036306 005003                           clr r3
    6433 036310 004303                           jsr r3,r3
    6434                                mjsia:
    6435                                         error
       1 001113                         ..n      = ..n + 1
       2 036312 012737  001113  177570           mov #..n,@#ddisp
       3 036320 000000                           halt
    6436                                mjsib:
    6437 036322 026727  142446  000004           cmp stbot-2,#4
    6438 036330 001404                           beq mjsic
    6439                                         error
       1 001114                         ..n      = ..n + 1
       2 036332 012737  001114  177570           mov #..n,@#ddisp
       3 036340 000000                           halt
    6440                                mjsic:
    6441 036342 012706  000776                   mov #stbot,r6
    6442 036346 012737  036376  000010           mov #mjsie,@#10
    6443 036354 012737  000357  177776           mov #357,@#177776
    6444 036362 000277                           scc
    6445 036364 004303                           jsr r3,r3
    6446                                mjsid:
    6447                                         error
       1 001115                         ..n      = ..n + 1
       2 036366 012737  001115  177570           mov #..n,@#ddisp
       3 036374 000000                           halt
    6448                                mjsie:
    6449 036376 026727  142372  000357           cmp stbot-2,#357
    6450 036404 001404                           beq mjsif
    6451                                         error
       1 001116                         ..n      = ..n + 1
       2 036406 012737  001116  177570           mov #..n,@#ddisp
       3 036414 000000                           halt
    6452                                mjsif:
    6453 036416 016737  012662  000010           mov sloc00,@#10
    6454 036424 012706  000776                   mov #stbot,r6
    6455                                ;
    6456                                ;
    6457                                ;
    6458                                tst253:
    6459 036430 005037  177766                   clr @#cpereg
    6460 036434 013767  000004  012642           mov @#4,sloc00
    6461 036442 012737  036472  000004           mov #2$,@#4
    6462 036450 012737  030000  177776           mov #30000,@#177776
    6463 036456 005737  177700                   tst @#177700                         ; this one should not exist
    6464                                1$:
    6465                                         error
       1 001117                         ..n      = ..n + 1
       2 036462 012737  001117  177570           mov #..n,@#ddisp
       3 036470 000000                           halt
    6466                                2$:
    6467 036472 022737  000020  177766           cmp #20,@#cpereg
    6468 036500 001404                           beq 3$
    6469                                         error
       1 001120                         ..n      = ..n + 1
       2 036502 012737  001120  177570           mov #..n,@#ddisp
       3 036510 000000                           halt
    6470                                3$:
    6471 036512 022627  036462                   cmp (r6)+,#1$
    6472 036516 001404                           beq 4$
    6473                                         error
       1 001121                         ..n      = ..n + 1
       2 036520 012737  001121  177570           mov #..n,@#ddisp
       3 036526 000000                           halt
    6474                                4$:
    6475 036530 022627  030000                   cmp (r6)+,#30000
    6476 036534 001404                           beq 5$
    6477                                         error
       1 001122                         ..n      = ..n + 1
       2 036536 012737  001122  177570           mov #..n,@#ddisp
       3 036544 000000                           halt
    6478                                5$:
    6479 036546 005037  177766                   clr @#cpereg
    6480 036552 016737  012526  000004           mov sloc00,@#4
    6481                                ;
    6482                                ;
    6483                                ;
    6484                                tst254:
    6485 036560 005037  177766                   clr @#cpereg
    6486 036564 013767  000004  012512           mov @#4,sloc00
    6487 036572 012737  036634  000004           mov #2$,@#4
    6488 036600 013767  000006  012500           mov @#6,sloc01
    6489 036606 005037  000006                   clr @#6
    6490 036612 012746  030000                   mov #30000,-(r6)
    6491 036616 012746  036625                   mov #1$+1,-(r6)
    6492 036622 000002                           rti
    6493                                1$:
    6494                                         error
       1 001123                         ..n      = ..n + 1
       2 036624 012737  001123  177570           mov #..n,@#ddisp
       3 036632 000000                           halt
    6495                                2$:
    6496 036634 022737  000100  177766           cmp #100,@#cpereg
    6497 036642 001404                           beq 3$
    6498                                         error
       1 001124                         ..n      = ..n + 1
       2 036644 012737  001124  177570           mov #..n,@#ddisp
       3 036652 000000                           halt
    6499                                3$:
    6500 036654 022726  036625                   cmp #1$+1,(r6)+
    6501 036660 001404                           beq 4$
    6502                                         error
       1 001125                         ..n      = ..n + 1
       2 036662 012737  001125  177570           mov #..n,@#ddisp
       3 036670 000000                           halt
    6503                                4$:
    6504 036672 022726  030000                   cmp #30000,(r6)+
    6505 036676 001404                           beq 5$
    6506                                         error
       1 001126                         ..n      = ..n + 1
       2 036700 012737  001126  177570           mov #..n,@#ddisp
       3 036706 000000                           halt
    6507                                5$:
    6508 036710 005037  177766                   clr @#cpereg
    6509 036714 012737  036750  000004           mov #7$,@#4
    6510 036722 012737  030340  000006           mov #30340,@#6
    6511 036730 005037  177776                   clr @#177776
    6512 036734 000137  177776                   jmp @#177776
    6513                                6$:
    6514                                         error
       1 001127                         ..n      = ..n + 1
       2 036740 012737  001127  177570           mov #..n,@#ddisp
       3 036746 000000                           halt
    6515                                7$:
    6516 036750 013701  177776                   mov @#177776,r1
    6517 036754 022737  000100  177766           cmp #100,@#cpereg
    6518 036762 001404                           beq 8$
    6519                                         error
       1 001130                         ..n      = ..n + 1
       2 036764 012737  001130  177570           mov #..n,@#ddisp
       3 036772 000000                           halt
    6520                                8$:
    6521 036774 022726  177776                   cmp #177776,(r6)+
    6522 037000 001404                           beq 9$
    6523                                         error
       1 001131                         ..n      = ..n + 1
       2 037002 012737  001131  177570           mov #..n,@#ddisp
       3 037010 000000                           halt
    6524                                9$:
    6525 037012 022726  000000                   cmp #0,(r6)+
    6526 037016 001404                           beq 10$
    6527                                         error
       1 001132                         ..n      = ..n + 1
       2 037020 012737  001132  177570           mov #..n,@#ddisp
       3 037026 000000                           halt
    6528                                10$:
    6529 037030 022701  000340                   cmp #340,r1
    6530 037034 001404                           beq 11$
    6531                                         error
       1 001133                         ..n      = ..n + 1
       2 037036 012737  001133  177570           mov #..n,@#ddisp
       3 037044 000000                           halt
    6532                                11$:
    6533 037046 005037  177766                   clr @#cpereg
    6534 037052 016737  012226  000004           mov sloc00,@#4
    6535 037060 016737  012222  000006           mov sloc01,@#6
    6536                                ;
    6537                                ;
    6538                                ;
    6539                                tst255:                        ; FIXME??? differences from original to allow for no apt
    6540 037066 013767  000004  012210           mov @#4,sloc00
    6541 037074 012737  037132  000004           mov #2$,@#4
    6542                                10$:
    6543 037102 012706  000777                   mov #777,r6
    6544 037106 005037  177766                   clr @#cpereg
    6545 037112 005037  177776                   clr @#177776
    6546 037116 005737  177700                   tst @#177700
    6547                                1$:
    6548                                ;         mov #stbot,r6
    6549                                         error
       1 001134                         ..n      = ..n + 1
       2 037122 012737  001134  177570           mov #..n,@#ddisp
       3 037130 000000                           halt
    6550                                2$:
    6551 037132 022706  000000                   cmp #0,r6
    6552 037136 001404                           beq 3$
    6553                                ;         mov #stbot,r6
    6554                                         error
       1 001135                         ..n      = ..n + 1
       2 037140 012737  001135  177570           mov #..n,@#ddisp
       3 037146 000000                           halt
    6555                                3$:
    6556 037150 022726  037122                   cmp #1$,(r6)+
    6557 037154 001404                           beq 4$
    6558                                ;         mov #stbot,r6
    6559                                         error
       1 001136                         ..n      = ..n + 1
       2 037156 012737  001136  177570           mov #..n,@#ddisp
       3 037164 000000                           halt
    6560                                4$:
    6561 037166 022716  000000                   cmp #0,(r6)
    6562 037172 001404                           beq 5$
    6563                                ;         mov #stbot,r6
    6564                                         error
       1 001137                         ..n      = ..n + 1
       2 037174 012737  001137  177570           mov #..n,@#ddisp
       3 037202 000000                           halt
    6565                                5$:
    6566 037204 022737  000124  177766           cmp #124,@#cpereg
    6567 037212 001404                           beq 6$
    6568                                         error
       1 001140                         ..n      = ..n + 1
       2 037214 012737  001140  177570           mov #..n,@#ddisp
       3 037222 000000                           halt
    6569                                6$:
    6570 037224 005037  177766                   clr @#cpereg
    6571 037230 012706  000776                   mov #stbot,r6
    6572 037234 016737  012044  000004           mov sloc00,@#4
    6573 037242 005037  000000                   clr @#0
    6574 037246 005037  000002                   clr @#2
    6575                                ;
    6576                                ;
    6577                                ;
    6578                                tst256:
    6579 037252 013767  000004  012024           mov @#4,sloc00
    6580 037260 012737  037306  000004           mov #pirqnx,@#4
    6581 037266 005037  177766                   clr @#cpereg
    6582 037272 005737  177772                   tst @#pirq
    6583 037276 016737  012002  000004           mov sloc00,@#4
    6584 037304 000404                           br pirtex
    6585                                pirqnx:
    6586                                         error
       1 001141                         ..n      = ..n + 1
       2 037306 012737  001141  177570           mov #..n,@#ddisp
       3 037314 000000                           halt
    6587                                pirtex:
    6588                                ;
    6589                                ;
    6590                                ;
    6591                                tst257:
    6592 037316 013767  000240  011760           mov @#240,sloc00
    6593 037324 013767  000242  011754           mov @#242,sloc01
    6594 037332 016737  000210  000240           mov unxpir,@#240
    6595 037340 012737  000340  000242           mov #pr7,@#242
    6596 037346 012703  001000                   mov #1000,r3
    6597 037352 012704  037432                   mov #pirtbl,r4
    6598                                1$:
    6599 037356 000237                           spl 7
    6600 037360 005037  177772                   clr @#pirq
    6601 037364 023724  177772                   cmp @#pirq,(r4)+
    6602 037370 001404                           beq 2$
    6603                                         error
       1 001142                         ..n      = ..n + 1
       2 037372 012737  001142  177570           mov #..n,@#ddisp
       3 037400 000000                           halt
    6604                                2$:
    6605 037402 010337  177772                   mov r3,@#pirq
    6606 037406 023724  177772                   cmp @#pirq,(r4)+
    6607 037412 001404                           beq 3$
    6608                                         error
       1 001143                         ..n      = ..n + 1
       2 037414 012737  001143  177570           mov #..n,@#ddisp
       3 037422 000000                           halt
    6609                                3$:
    6610 037424 006303                           asl r3
    6611 037426 103365                           bcc 2$
    6612 037430 000410                           br expir1
    6613                                
    6614                                pirtbl:
    6615 037432 000000                           .word 0
    6616 037434 001042                           .word 1042
    6617 037436 002104                           .word 2104
    6618 037440 004146                           .word 4146
    6619 037442 010210                           .word 10210
    6620 037444 020252                           .word 20252
    6621 037446 040314                           .word 40314
    6622 037450 100356                           .word 100356
    6623                                expir1:
    6624                                ;
    6625                                ;
    6626                                ;
    6627                                tst260:
    6628 037452 000237                           spl 7
    6629 037454 005037  177772                   clr @#pirq
    6630 037460 012703  177000                   mov #177000,r3
    6631 037464 012704  037526                   mov #pitbl1,r4
    6632                                1$:
    6633 037470 010337  177772                   mov r3,@#pirq
    6634 037474 023714  177772                   cmp @#pirq,(r4)
    6635 037500 001404                           beq 2$
    6636                                         error
       1 001144                         ..n      = ..n + 1
       2 037502 012737  001144  177570           mov #..n,@#ddisp
       3 037510 000000                           halt
    6637                                2$:
    6638 037512 006003                           ror r3
    6639 037514 042703  000777                   bic #777,r3
    6640 037520 005724                           tst (r4)+
    6641 037522 001362                           bne 1$
    6642 037524 000414                           br pir2ex
    6643                                
    6644                                pitbl1:
    6645 037526 177356                           .word 177356
    6646 037530 077314                           .word 77314
    6647 037532 037252                           .word 37252
    6648 037534 017210                           .word 17210
    6649 037536 007146                           .word 7146
    6650 037540 003104                           .word 3104
    6651 037542 001042                           .word 1042
    6652 037544 000000                           .word 0
    6653                                
    6654                                unxpir:
    6655                                         error
       1 001145                         ..n      = ..n + 1
       2 037546 012737  001145  177570           mov #..n,@#ddisp
       3 037554 000000                           halt
    6656                                pir2ex:
    6657                                ;
    6658                                ;
    6659                                ;
    6660                                tst261:
    6661 037556 012703  001000                   mov #1000,r3
    6662 037562 012737  037632  000240           mov #pirrtn,@#240
    6663 037570 012737  000340  000242           mov #340,@#242
    6664 037576 005004                           clr r4
    6665                                pi1:
    6666 037600 005724                           tst (r4)+
    6667 037602 050337  177772                   bis r3,@#pirq
    6668 037606 000230                           spl 0
    6669                                         error
       1 001146                         ..n      = ..n + 1
       2 037610 012737  001146  177570           mov #..n,@#ddisp
       3 037616 000000                           halt
    6670                                pi3:
    6671 037620 062706  000004                   add #4,r6
    6672 037624 006303                           asl r3
    6673 037626 103364                           bcc pi1
    6674 037630 000416                           br pir3ex
    6675                                pirrtn:
    6676 037632 013705  177772                   mov @#pirq,r5
    6677 037636 005037  177772                   clr @#pirq
    6678 037642 042705  177761                   bic #177761,r5
    6679 037646 020405                           cmp r4,r5
    6680 037650 001404                           beq pi2
    6681                                         error
       1 001147                         ..n      = ..n + 1
       2 037652 012737  001147  177570           mov #..n,@#ddisp
       3 037660 000000                           halt
    6682                                pi2:
    6683 037662 000167  177732                   jmp pi3
    6684                                pir3ex:
    6685                                ;
    6686                                ;
    6687                                ;
    6688                                tst262:
    6689 037666 005037  177772                   clr @#pirq
    6690 037672 005037  177776                   clr @#177776
    6691 037676 000237                           spl 7
    6692 037700 012703  001000                   mov #1000,r3
    6693 037704 012737  037736  000240           mov #2$,@#240
    6694 037712 012737  000340  000242           mov #340,@#242
    6695                                1$:
    6696 037720 010337  177772                   mov r3,@#pirq
    6697 037724 006303                           asl r3
    6698 037726 103374                           bcc 1$
    6699 037730 005037  177772                   clr @#pirq
    6700 037734 000406                           br 3$
    6701                                2$:
    6702 037736 005037  177772                   clr @#pirq
    6703                                         error
       1 001150                         ..n      = ..n + 1
       2 037742 012737  001150  177570           mov #..n,@#ddisp
       3 037750 000000                           halt
    6704                                3$:
    6705                                ;
    6706                                ;
    6707                                ;
    6708                                tst263:
    6709 037752 005037  177772                   clr @#pirq
    6710 037756 012737  040076  000240           mov #10$,@#240
    6711 037764 012737  000340  000242           mov #340,@#242
    6712 037772 012705  040170                   mov #pitbl2,r5
    6713 037776 012737  000006  051310           mov #6,@#dcount
    6714                                1$:
    6715 040004 005004                           clr r4
    6716 040006 012703  001000                   mov #1000,r3
    6717 040012 012537  177776                   mov (r5)+,@#177776
    6718                                3$:
    6719 040016 005724                           tst (r4)+
    6720 040020 010337  177772                   mov r3,@#pirq
    6721 040024 013701  177776                   mov @#177776,r1
    6722 040030 013702  177772                   mov @#pirq,r2
    6723 040034 042701  177437                   bic #177437,r1
    6724 040040 042702  177437                   bic #177437,r2
    6725 040044 020102                           cmp r1,r2
    6726 040046 002004                           bge 4$
    6727                                         error
       1 001151                         ..n      = ..n + 1
       2 040050 012737  001151  177570           mov #..n,@#ddisp
       3 040056 000000                           halt
    6728                                4$:
    6729 040060 006303                           asl r3
    6730 040062 103355                           bcc 3$
    6731 040064 005337  051310                   dec @#dcount
    6732 040070 001345                           bne 1$
    6733 040072 000167  000106                   jmp pir5ex
    6734                                10$:
    6735 040076 013746  177772                   mov @#pirq,-(r6)
    6736 040102 005037  177772                   clr @#pirq
    6737 040106 016601  000004                   mov 4(r6),r1
    6738 040112 011602                           mov (r6),r2
    6739 040114 042702  177437                   bic #177437,r2
    6740 040120 042701  177437                   bic #177437,r1
    6741 040124 020102                           cmp r1,r2
    6742 040126 100404                           bmi 20$
    6743                                         error
       1 001152                         ..n      = ..n + 1
       2 040130 012737  001152  177570           mov #..n,@#ddisp
       3 040136 000000                           halt
    6744                                20$:
    6745 040140 012602                           mov (r6)+,r2
    6746 040142 042702  177761                   bic #177761,r2
    6747 040146 020402                           cmp r4,r2
    6748 040150 001404                           beq 21$
    6749                                         error
       1 001153                         ..n      = ..n + 1
       2 040152 012737  001153  177570           mov #..n,@#ddisp
       3 040160 000000                           halt
    6750                                21$:
    6751 040162 012716  040060                   mov #4$,(r6)
    6752 040166 000002                           rti
    6753                                
    6754                                pitbl2:
    6755 040170 000300                           .word 300
    6756 040172 000240                           .word 240
    6757 040174 000200                           .word 200
    6758 040176 000140                           .word 140
    6759 040200 000100                           .word 100
    6760 040202 000040                           .word 40
    6761                                pir5ex:
    6762                                ;
    6763                                ;
    6764                                ;
    6765                                tst264:
    6766 040204 005037  177772                   clr @#pirq
    6767 040210 000237                           spl 7
    6768 040212 012737  040260  000240           mov #10$,@#240
    6769 040220 012737  000340  000242           mov #340,@#242
    6770 040226 012703  177000                   mov #177000,r3
    6771 040232 010337  177772                   mov r3,@#pirq
    6772 040236 012704  000016                   mov #16,r4
    6773 040242 000230                           spl 0
    6774                                
    6775 040244 005704                           tst r4
    6776 040246 001413                           beq pir6ex
    6777                                         error
       1 001154                         ..n      = ..n + 1
       2 040250 012737  001154  177570           mov #..n,@#ddisp
       3 040256 000000                           halt
    6778                                10$:
    6779 040260 005744                           tst -(r4)
    6780 040262 006003                           ror r3
    6781 040264 042703  000777                   bic #777,r3
    6782 040270 010337  177772                   mov r3,@#pirq
    6783 040274 000002                           rti
    6784                                pir6ex:
    6785 040276 016737  011002  000240           mov sloc00,@#240
    6786 040304 016737  010776  000242           mov sloc01,@#242
    6787                                ;
    6788                                ; end copy czkdjb0
    6789                                ;
    6790                                tstm1:
    6791 040312 005037  177766                   clr @#cpereg
    6792 040316 005037  177572                   clr @#177572
    6793 040322 005037  051634                   clr @#flag
    6794 040326 013746  000004                   mov @#4,-(sp)
    6795 040332 012737  051470  000004           mov #addtrp,@#4
    6796 040340 005005                           clr r5
    6797 040342 013701  177572                   mov @#177572,r1
    6798 040346 013701  177574                   mov @#177574,r1
    6799 040352 013701  177576                   mov @#177576,r1
    6800 040356 013701  172516                   mov @#172516,r1
    6801 040362 012637  000004                   mov (sp)+,@#4
    6802 040366 020527  000000                   cmp r5,#0
    6803 040372 001404                           beq 1$
    6804                                         error
       1 001155                         ..n      = ..n + 1
       2 040374 012737  001155  177570           mov #..n,@#ddisp
       3 040402 000000                           halt
    6805                                1$:
    6806                                ;
    6807                                ;
    6808                                ;
    6809                                tstm3:
    6810 040404 005037  177572                   clr @#177572
    6811 040410 005037  051634                   clr @#flag
    6812 040414 012703  172200                   mov #172200,r3
    6813                                1$:
    6814 040420 012723  177777                   mov #177777,(r3)+
    6815 040424 020327  172400                   cmp r3,#172400
    6816 040430 001373                           bne 1$
    6817 040432 012703  177600                   mov #177600,r3
    6818                                2$:
    6819 040436 012723  177777                   mov #177777,(r3)+
    6820 040442 020327  177700                   cmp r3,#177700
    6821 040446 001373                           bne 2$
    6822 040450 012703  172200                   mov #172200,r3
    6823                                3$:
    6824 040454 022327  077417                   cmp (r3)+,#77417         ; orig 177416
    6825 040460 001404                           beq 4$
    6826                                         error
       1 001156                         ..n      = ..n + 1
       2 040462 012737  001156  177570           mov #..n,@#ddisp
       3 040470 000000                           halt
    6827                                4$:
    6828 040472 020327  172240                   cmp r3,#172240
    6829 040476 001366                           bne 3$
    6830                                5$:
    6831 040500 022327  007777                   cmp (r3)+,#7777          ; orig 177777
    6832 040504 001404                           beq 6$
    6833                                         error
       1 001157                         ..n      = ..n + 1
       2 040506 012737  001157  177570           mov #..n,@#ddisp
       3 040514 000000                           halt
    6834                                6$:
    6835 040516 020327  172300                   cmp r3,#172300
    6836 040522 001366                           bne 5$
    6837                                7$:
    6838 040524 022327  077417                   cmp (r3)+,#77417         ; orig 177416
    6839 040530 001404                           beq 8$
    6840                                         error
       1 001160                         ..n      = ..n + 1
       2 040532 012737  001160  177570           mov #..n,@#ddisp
       3 040540 000000                           halt
    6841                                8$:
    6842 040542 020327  172340                   cmp r3,#172340
    6843 040546 001366                           bne 7$
    6844                                9$:
    6845 040550 022327  007777                   cmp (r3)+,#7777          ; orig 177777
    6846 040554 001404                           beq 10$
    6847                                         error
       1 001161                         ..n      = ..n + 1
       2 040556 012737  001161  177570           mov #..n,@#ddisp
       3 040564 000000                           halt
    6848                                10$:
    6849 040566 020327  172400                   cmp r3,#172400
    6850 040572 001366                           bne 9$
    6851 040574 012703  177600                   mov #177600,r3
    6852                                11$:
    6853 040600 022327  077417                   cmp (r3)+,#77417         ; orig 177416
    6854 040604 001404                           beq 12$
    6855                                         error
       1 001162                         ..n      = ..n + 1
       2 040606 012737  001162  177570           mov #..n,@#ddisp
       3 040614 000000                           halt
    6856                                12$:
    6857 040616 020327  177640                   cmp r3,#177640
    6858 040622 001366                           bne 11$
    6859                                13$:
    6860 040624 022327  007777                   cmp (r3)+,#7777          ; orig 177777
    6861 040630 001404                           beq 14$
    6862                                         error
       1 001163                         ..n      = ..n + 1
       2 040632 012737  001163  177570           mov #..n,@#ddisp
       3 040640 000000                           halt
    6863                                14$:
    6864 040642 020327  177700                   cmp r3,#177700
    6865 040646 001366                           bne 13$
    6866 040650 012703  172200                   mov #172200,r3
    6867                                15$:
    6868 040654 012723  000000                   mov #0,(r3)+
    6869 040660 020327  172400                   cmp r3,#172400
    6870 040664 001373                           bne 15$
    6871 040666 012703  177600                   mov #177600,r3
    6872                                16$:
    6873 040672 012723  000000                   mov #0,(r3)+
    6874 040676 020327  177700                   cmp r3,#177700
    6875 040702 001373                           bne 16$
    6876 040704 012703  172200                   mov #172200,r3
    6877                                17$:
    6878 040710 022327  000000                   cmp (r3)+,#0
    6879 040714 001404                           beq 18$
    6880                                         error
       1 001164                         ..n      = ..n + 1
       2 040716 012737  001164  177570           mov #..n,@#ddisp
       3 040724 000000                           halt
    6881                                18$:
    6882 040726 020327  172400                   cmp r3,#172400
    6883 040732 001366                           bne 17$
    6884 040734 012703  177600                   mov #177600,r3
    6885                                19$:
    6886 040740 022327  000000                   cmp (r3)+,#0
    6887 040744 001404                           beq 20$
    6888                                         error
       1 001165                         ..n      = ..n + 1
       2 040746 012737  001165  177570           mov #..n,@#ddisp
       3 040754 000000                           halt
    6889                                20$:
    6890 040756 020327  177700                   cmp r3,#177700
    6891                                ;
    6892                                ;
    6893                                ;
    6894                                tstm4:
    6895 040762 005037  177572                   clr @#177572
    6896 040766 005067  010642                   clr flag
    6897 040772 012700  172200                   mov #172200,r0
    6898                                1$:
    6899 040776 012720  052404                   mov #52404,(r0)+
    6900 041002 012720  125012                   mov #125012,(r0)+
    6901 041006 020027  172240                   cmp r0,#172240
    6902 041012 001371                           bne 1$
    6903                                2$:
    6904 041014 012720  125252                   mov #125252,(r0)+
    6905 041020 012720  052525                   mov #52525,(r0)+
    6906 041024 020027  172300                   cmp r0,#172300
    6907 041030 001371                           bne 2$
    6908                                3$:
    6909 041032 012720  052404                   mov #52404,(r0)+
    6910 041036 012720  125012                   mov #125012,(r0)+
    6911 041042 020027  172340                   cmp r0,#172340
    6912 041046 001371                           bne 3$
    6913                                4$:
    6914 041050 012720  125252                   mov #125252,(r0)+
    6915 041054 012720  052525                   mov #52525,(r0)+
    6916 041060 020027  172400                   cmp r0,#172400
    6917 041064 001371                           bne 4$
    6918 041066 012700  177600                   mov #177600,r0
    6919                                5$:
    6920 041072 012720  052404                   mov #52404,(r0)+
    6921 041076 012720  125012                   mov #125012,(r0)+
    6922 041102 020027  177640                   cmp r0,#177640
    6923 041106 001371                           bne 5$
    6924                                6$:
    6925 041110 012720  125252                   mov #125252,(r0)+
    6926 041114 012720  052525                   mov #52525,(r0)+
    6927 041120 020027  177700                   cmp r0,#177700
    6928 041124 001371                           bne 6$
    6929                                
    6930 041126 012703  172200                   mov #172200,r3
    6931                                7$:
    6932 041132 012300                           mov (r3)+,r0
    6933 041134 042700  000200                   bic #200,r0                  ; reset a bit
    6934 041140 020027  052404                   cmp r0,#52404                ; original #52404 - acf triggers setting of a bit
    6935 041144 001404                           beq 8$
    6936                                         error
       1 001166                         ..n      = ..n + 1
       2 041146 012737  001166  177570           mov #..n,@#ddisp
       3 041154 000000                           halt
    6937                                8$:
    6938 041156 022327  025012                   cmp (r3)+,#25012              ; original #125012
    6939 041162 001404                           beq 9$
    6940                                         error
       1 001167                         ..n      = ..n + 1
       2 041164 012737  001167  177570           mov #..n,@#ddisp
       3 041172 000000                           halt
    6941                                9$:
    6942 041174 020327  172240                   cmp r3,#172240
    6943 041200 001354                           bne 7$
    6944                                10$:
    6945 041202 022327  005252                   cmp (r3)+,#5252               ; original #125252
    6946 041206 001404                           beq 11$
    6947                                         error
       1 001170                         ..n      = ..n + 1
       2 041210 012737  001170  177570           mov #..n,@#ddisp
       3 041216 000000                           halt
    6948                                11$:
    6949 041220 022327  002525                   cmp (r3)+,#2525               ; original #52525
    6950 041224 001404                           beq 12$
    6951                                         error
       1 001171                         ..n      = ..n + 1
       2 041226 012737  001171  177570           mov #..n,@#ddisp
       3 041234 000000                           halt
    6952                                12$:
    6953 041236 020327  172300                   cmp r3,#172300
    6954 041242 001357                           bne 10$
    6955                                13$:
    6956 041244 012300                           mov (r3)+,r0
    6957 041246 042700  000200                   bic #200,r0                  ; reset a bit
    6958 041252 020027  052404                   cmp r0,#52404                ; original #52404 - acf triggers setting of a bit
    6959 041256 001404                           beq 14$
    6960                                         error
       1 001172                         ..n      = ..n + 1
       2 041260 012737  001172  177570           mov #..n,@#ddisp
       3 041266 000000                           halt
    6961                                14$:
    6962 041270 022327  025012                   cmp (r3)+,#25012              ; original #125012
    6963 041274 001404                           beq 15$
    6964                                         error
       1 001173                         ..n      = ..n + 1
       2 041276 012737  001173  177570           mov #..n,@#ddisp
       3 041304 000000                           halt
    6965                                15$:
    6966 041306 020327  172340                   cmp r3,#172340
    6967 041312 001354                           bne 13$
    6968                                16$:
    6969 041314 022327  005252                   cmp (r3)+,#5252               ; original #125252
    6970 041320 001404                           beq 17$
    6971                                         error
       1 001174                         ..n      = ..n + 1
       2 041322 012737  001174  177570           mov #..n,@#ddisp
       3 041330 000000                           halt
    6972                                17$:
    6973 041332 022327  002525                   cmp (r3)+,#2525               ; original #52525
    6974 041336 001404                           beq 18$
    6975                                         error
       1 001175                         ..n      = ..n + 1
       2 041340 012737  001175  177570           mov #..n,@#ddisp
       3 041346 000000                           halt
    6976                                18$:
    6977 041350 020327  172400                   cmp r3,#172400
    6978 041354 001357                           bne 16$
    6979 041356 012703  177600                   mov #177600,r3
    6980                                19$:
    6981 041362 012300                           mov (r3)+,r0
    6982 041364 042700  000200                   bic #200,r0                  ; reset a bit
    6983 041370 020027  052404                   cmp r0,#52404                ; original #52404 - acf triggers setting of a bit
    6984 041374 001404                           beq 20$
    6985                                         error
       1 001176                         ..n      = ..n + 1
       2 041376 012737  001176  177570           mov #..n,@#ddisp
       3 041404 000000                           halt
    6986                                20$:
    6987 041406 022327  025012                   cmp (r3)+,#25012              ; original #125012
    6988 041412 001404                           beq 21$
    6989                                         error
       1 001177                         ..n      = ..n + 1
       2 041414 012737  001177  177570           mov #..n,@#ddisp
       3 041422 000000                           halt
    6990                                21$:
    6991 041424 020327  177640                   cmp r3,#177640
    6992 041430 001354                           bne 19$
    6993                                22$:
    6994 041432 022327  005252                   cmp (r3)+,#5252               ; original #125252
    6995 041436 001404                           beq 23$
    6996                                         error
       1 001200                         ..n      = ..n + 1
       2 041440 012737  001200  177570           mov #..n,@#ddisp
       3 041446 000000                           halt
    6997                                23$:
    6998 041450 022327  002525                   cmp (r3)+,#2525               ; original #52525
    6999 041454 001404                           beq 24$
    7000                                         error
       1 001201                         ..n      = ..n + 1
       2 041456 012737  001201  177570           mov #..n,@#ddisp
       3 041464 000000                           halt
    7001                                24$:
    7002 041466 020327  177700                   cmp r3,#177700
    7003 041472 001357                           bne 22$
    7004                                ;
    7005                                tstm4a:
    7006 041474 012700  172200                   mov #172200,r0
    7007                                25$:
    7008 041500 012720  125012                   mov #125012,(r0)+
    7009 041504 012720  052404                   mov #52404,(r0)+
    7010 041510 020027  172240                   cmp r0,#172240
    7011 041514 001371                           bne 25$
    7012                                26$:
    7013 041516 012720  052525                   mov #52525,(r0)+
    7014 041522 012720  125252                   mov #125252,(r0)+
    7015 041526 020027  172300                   cmp r0,#172300
    7016 041532 001371                           bne 26$
    7017                                27$:
    7018 041534 012720  125012                   mov #125012,(r0)+
    7019 041540 012720  052404                   mov #52404,(r0)+
    7020 041544 020027  172340                   cmp r0,#172340
    7021 041550 001371                           bne 27$
    7022                                28$:
    7023 041552 012720  052525                   mov #52525,(r0)+
    7024 041556 012720  125252                   mov #125252,(r0)+
    7025 041562 020027  172400                   cmp r0,#172400
    7026 041566 001371                           bne 28$
    7027 041570 012700  177600                   mov #177600,r0
    7028                                29$:
    7029 041574 012720  125012                   mov #125012,(r0)+
    7030 041600 012720  052404                   mov #52404,(r0)+
    7031 041604 020027  177640                   cmp r0,#177640
    7032 041610 001371                           bne 29$
    7033                                30$:
    7034 041612 012720  052525                   mov #52525,(r0)+
    7035 041616 012720  125252                   mov #125252,(r0)+
    7036 041622 020027  177700                   cmp r0,#177700
    7037 041626 001371                           bne 30$
    7038                                
    7039 041630 012703  172200                   mov #172200,r3
    7040                                31$:
    7041 041634 022327  025012                   cmp (r3)+,#25012              ; original #125012
    7042 041640 001404                           beq 32$
    7043                                         error
       1 001202                         ..n      = ..n + 1
       2 041642 012737  001202  177570           mov #..n,@#ddisp
       3 041650 000000                           halt
    7044                                32$:
    7045 041652 012300                           mov (r3)+,r0
    7046 041654 042700  000200                   bic #200,r0                  ; reset a bit
    7047 041660 020027  052404                   cmp r0,#52404                ; original #52404 - acf triggers setting of a bit
    7048 041664 001404                           beq 33$
    7049                                         error
       1 001203                         ..n      = ..n + 1
       2 041666 012737  001203  177570           mov #..n,@#ddisp
       3 041674 000000                           halt
    7050                                33$:
    7051 041676 020327  172240                   cmp r3,#172240
    7052 041702 001354                           bne 31$
    7053                                34$:
    7054 041704 022327  002525                   cmp (r3)+,#2525               ; original #52525
    7055 041710 001404                           beq 35$
    7056                                         error
       1 001204                         ..n      = ..n + 1
       2 041712 012737  001204  177570           mov #..n,@#ddisp
       3 041720 000000                           halt
    7057                                35$:
    7058 041722 022327  005252                   cmp (r3)+,#5252               ; original #125252
    7059 041726 001404                           beq 36$
    7060                                         error
       1 001205                         ..n      = ..n + 1
       2 041730 012737  001205  177570           mov #..n,@#ddisp
       3 041736 000000                           halt
    7061                                36$:
    7062 041740 020327  172300                   cmp r3,#172300
    7063 041744 001357                           bne 34$
    7064                                37$:
    7065 041746 022327  025012                   cmp (r3)+,#25012              ; original #125012
    7066 041752 001404                           beq 38$
    7067                                         error
       1 001206                         ..n      = ..n + 1
       2 041754 012737  001206  177570           mov #..n,@#ddisp
       3 041762 000000                           halt
    7068                                38$:
    7069 041764 012300                           mov (r3)+,r0
    7070 041766 042700  000200                   bic #200,r0                  ; reset a bit
    7071 041772 020027  052404                   cmp r0,#52404                ; original #52404 - acf triggers setting of a bit
    7072 041776 001404                           beq 39$
    7073                                         error
       1 001207                         ..n      = ..n + 1
       2 042000 012737  001207  177570           mov #..n,@#ddisp
       3 042006 000000                           halt
    7074                                39$:
    7075 042010 020327  172340                   cmp r3,#172340
    7076 042014 001354                           bne 37$
    7077                                40$:
    7078 042016 022327  002525                   cmp (r3)+,#2525               ; original #52525
    7079 042022 001404                           beq 41$
    7080                                         error
       1 001210                         ..n      = ..n + 1
       2 042024 012737  001210  177570           mov #..n,@#ddisp
       3 042032 000000                           halt
    7081                                41$:
    7082 042034 022327  005252                   cmp (r3)+,#5252               ; original #125252
    7083 042040 001404                           beq 42$
    7084                                         error
       1 001211                         ..n      = ..n + 1
       2 042042 012737  001211  177570           mov #..n,@#ddisp
       3 042050 000000                           halt
    7085                                42$:
    7086 042052 020327  172400                   cmp r3,#172400
    7087 042056 001357                           bne 40$
    7088 042060 012703  177600                   mov #177600,r3
    7089                                43$:
    7090 042064 022327  025012                   cmp (r3)+,#25012              ; original #125012
    7091 042070 001404                           beq 44$
    7092                                         error
       1 001212                         ..n      = ..n + 1
       2 042072 012737  001212  177570           mov #..n,@#ddisp
       3 042100 000000                           halt
    7093                                44$:
    7094 042102 012300                           mov (r3)+,r0
    7095 042104 042700  000200                   bic #200,r0                  ; reset a bit
    7096 042110 020027  052404                   cmp r0,#52404                ; original #52404 - acf triggers setting of a bit
    7097 042114 001404                           beq 45$
    7098                                         error
       1 001213                         ..n      = ..n + 1
       2 042116 012737  001213  177570           mov #..n,@#ddisp
       3 042124 000000                           halt
    7099                                45$:
    7100 042126 020327  177640                   cmp r3,#177640
    7101 042132 001354                           bne 43$
    7102                                46$:
    7103 042134 022327  002525                   cmp (r3)+,#2525               ; original #52525
    7104 042140 001404                           beq 47$
    7105                                         error
       1 001214                         ..n      = ..n + 1
       2 042142 012737  001214  177570           mov #..n,@#ddisp
       3 042150 000000                           halt
    7106                                47$:
    7107 042152 022327  005252                   cmp (r3)+,#5252               ; original #125252
    7108 042156 001404                           beq 48$
    7109                                         error
       1 001215                         ..n      = ..n + 1
       2 042160 012737  001215  177570           mov #..n,@#ddisp
       3 042166 000000                           halt
    7110                                48$:
    7111 042170 020327  177700                   cmp r3,#177700
    7112 042174 001357                           bne 46$
    7113                                ;
    7114                                ;
    7115                                ;
    7116                                tstm5:
    7117 042176 012737  160000  177572           mov #160000,@#177572
    7118 042204 005067  007424                   clr flag
    7119 042210 013700  177572                   mov @#sr0,r0
    7120 042214 042700  000176                   bic #176,r0
    7121 042220 020027  160000                   cmp r0,#160000
    7122 042224 001404                           beq 1$
    7123                                         error
       1 001216                         ..n      = ..n + 1
       2 042226 012737  001216  177570           mov #..n,@#ddisp
       3 042234 000000                           halt
    7124                                1$:
    7125 042236 005037  177572                   clr @#177572
    7126 042242 013700  177572                   mov @#sr0,r0
    7127 042246 042700  000176                   bic #176,r0
    7128 042252 020027  000000                   cmp r0,#0
    7129 042256 001404                           beq 2$
    7130                                         error
       1 001217                         ..n      = ..n + 1
       2 042260 012737  001217  177570           mov #..n,@#ddisp
       3 042266 000000                           halt
    7131                                2$:
    7132 042270 012737  120000  177572           mov #120000,@#177572
    7133 042276 013700  177572                   mov @#sr0,r0
    7134 042302 042700  000176                   bic #176,r0
    7135 042306 020027  120000                   cmp r0,#120000
    7136 042312 001404                           beq 3$
    7137                                         error
       1 001220                         ..n      = ..n + 1
       2 042314 012737  001220  177570           mov #..n,@#ddisp
       3 042322 000000                           halt
    7138                                3$:
    7139 042324 012737  040000  177572           mov #40000,@#177572
    7140 042332 013700  177572                   mov @#sr0,r0
    7141 042336 042700  000176                   bic #176,r0
    7142 042342 020027  040000                   cmp r0,#40000
    7143 042346 001404                           beq 4$
    7144                                         error
       1 001221                         ..n      = ..n + 1
       2 042350 012737  001221  177570           mov #..n,@#ddisp
       3 042356 000000                           halt
    7145                                4$:
    7146                                ;
    7147                                ;
    7148                                ;
    7149                                tstm6:
    7150 042360 005037  177572                   clr @#177572
    7151 042364 005067  007244                   clr flag
    7152 042370 012737  000077  172516           mov #77,@#172516
    7153 042376 023727  172516  000017           cmp @#172516,#17                ; original #77
    7154 042404 001404                           beq 1$
    7155                                         error
       1 001222                         ..n      = ..n + 1
       2 042406 012737  001222  177570           mov #..n,@#ddisp
       3 042414 000000                           halt
    7156                                1$:
    7157 042416 005037  172516                   clr @#172516
    7158 042422 023727  172516  000000           cmp @#172516,#0
    7159 042430 001404                           beq 2$
    7160                                         error
       1 001223                         ..n      = ..n + 1
       2 042432 012737  001223  177570           mov #..n,@#ddisp
       3 042440 000000                           halt
    7161                                2$:
    7162 042442 012737  000052  172516           mov #52,@#172516
    7163 042450 023727  172516  000012           cmp @#172516,#12                ; original #52
    7164 042456 001404                           beq 3$
    7165                                         error
       1 001224                         ..n      = ..n + 1
       2 042460 012737  001224  177570           mov #..n,@#ddisp
       3 042466 000000                           halt
    7166                                3$:
    7167 042470 012737  000025  172516           mov #25,@#172516
    7168 042476 023727  172516  000005           cmp @#172516,#5                 ; original #25
    7169 042504 001404                           beq 4$
    7170                                         error
       1 001225                         ..n      = ..n + 1
       2 042506 012737  001225  177570           mov #..n,@#ddisp
       3 042514 000000                           halt
    7171                                4$:
    7172                                ;
    7173                                ;
    7174                                ;
    7175                                tstm7:
    7176 042516 005037  177572                   clr @#177572
    7177 042522 005037  051634                   clr @#flag
    7178 042526 012737  140000  177776           mov #140000,@#177776
    7179 042534 012706  000776                   mov #stbot,sp
    7180 042540 010637  051630                   mov r6,@#savuse
    7181 042544 012737  040000  177776           mov #40000,@#177776
    7182 042552 012706  000776                   mov #stbot,sp
    7183 042556 010637  051632                   mov r6,@#savsup
    7184 042562 012737  030000  177776           mov #30000,@#177776
    7185 042570 004767  006526                   jsr pc,mmu
    7186 042574 012737  000027  172516           mov #27,@#172516
    7187 042602 013746  000244                   mov @#244,-(sp)
    7188 042606 012746  177777                   mov #177777,-(sp)
    7189 042612 012737  135072  000244           mov #135072,@#244
    7190 042620 012737  077400  177620           mov #77400,@#udpdr0
    7191 042626 012703  000244                   mov #244,r3
    7192 042632 005237  177572                   inc @#177572
    7193 042636 006523                           mfpi (r3)+
    7194 042640 022737  030010  177776           cmp #30010,@#177776
    7195 042646 001404                           beq 1$
    7196                                         error
       1 001226                         ..n      = ..n + 1
       2 042650 012737  001226  177570           mov #..n,@#ddisp
       3 042656 000000                           halt
    7197                                1$:
    7198 042660 005037  177572                   clr @#177572
    7199 042664 012737  140000  177776           mov #140000,@#177776
    7200 042672 020637  051630                   cmp r6,@#savuse
    7201 042676 001404                           beq 100$
    7202                                         error
       1 001227                         ..n      = ..n + 1
       2 042700 012737  001227  177570           mov #..n,@#ddisp
       3 042706 000000                           halt
    7203                                100$:
    7204 042710 012737  040000  177776           mov #40000,@#177776
    7205 042716 020637  051632                   cmp r6,@#savsup
    7206 042722 001404                           beq 200$
    7207                                         error
       1 001230                         ..n      = ..n + 1
       2 042724 012737  001230  177570           mov #..n,@#ddisp
       3 042732 000000                           halt
    7208                                200$:
    7209 042734 023727  000244  135072           cmp @#244,#135072
    7210 042742 001404                           beq 2$
    7211                                         error
       1 001231                         ..n      = ..n + 1
       2 042744 012737  001231  177570           mov #..n,@#ddisp
       3 042752 000000                           halt
    7212                                2$:
    7213 042754 020327  000246                   cmp r3,#246
    7214 042760 001404                           beq 3$
    7215                                         error
       1 001232                         ..n      = ..n + 1
       2 042762 012737  001232  177570           mov #..n,@#ddisp
       3 042770 000000                           halt
    7216                                3$:
    7217 042772 005037  177776                   clr @#177776
    7218 042776 022627  135072                   cmp (sp)+,#135072
    7219 043002 001404                           beq 4$
    7220                                         error
       1 001233                         ..n      = ..n + 1
       2 043004 012737  001233  177570           mov #..n,@#ddisp
       3 043012 000000                           halt
    7221                                4$:
    7222 043014 021627  177777                   cmp (sp),#177777
    7223 043020 001404                           beq 5$
    7224                                         error
       1 001234                         ..n      = ..n + 1
       2 043022 012737  001234  177570           mov #..n,@#ddisp
       3 043030 000000                           halt
    7225                                5$:
    7226 043032 012737  030017  177776           mov #30017,@#177776
    7227 043040 012737  173621  000244           mov #173621,@#244
    7228 043046 012701  000244                   mov #244,r1
    7229 043052 005237  177572                   inc @#177572
    7230 043056 006511                           mfpi (r1)
    7231 043060 022737  030011  177776           cmp #30011,@#177776
    7232 043066 001404                           beq 300$
    7233                                         error
       1 001235                         ..n      = ..n + 1
       2 043070 012737  001235  177570           mov #..n,@#ddisp
       3 043076 000000                           halt
    7234                                300$:
    7235 043100 005037  177572                   clr @#177572
    7236 043104 023727  000244  173621           cmp @#244,#173621
    7237 043112 001404                           beq 301$
    7238                                         error
       1 001236                         ..n      = ..n + 1
       2 043114 012737  001236  177570           mov #..n,@#ddisp
       3 043122 000000                           halt
    7239                                301$:
    7240 043124 020127  000244                   cmp r1,#244
    7241 043130 001404                           beq 302$
    7242                                         error
       1 001237                         ..n      = ..n + 1
       2 043132 012737  001237  177570           mov #..n,@#ddisp
       3 043140 000000                           halt
    7243                                302$:
    7244 043142 005037  177776                   clr @#177776
    7245 043146 022627  173621                   cmp (sp)+,#173621
    7246 043152 001404                           beq 303$
    7247                                         error
       1 001240                         ..n      = ..n + 1
       2 043154 012737  001240  177570           mov #..n,@#ddisp
       3 043162 000000                           halt
    7248                                303$:
    7249 043164 021627  177777                   cmp (sp),#177777
    7250 043170 001404                           beq 304$
    7251                                         error
       1 001241                         ..n      = ..n + 1
       2 043172 012737  001241  177570           mov #..n,@#ddisp
       3 043200 000000                           halt
    7252                                304$:
    7253 043202 005003                           clr r3
    7254 043204 005237  177572                   inc @#177572
    7255 043210 006503                           mfpi r3
    7256 043212 022737  000004  177776           cmp #4,@#177776
    7257 043220 001404                           beq 6$
    7258                                         error
       1 001242                         ..n      = ..n + 1
       2 043222 012737  001242  177570           mov #..n,@#ddisp
       3 043230 000000                           halt
    7259                                6$:
    7260 043232 005037  177572                   clr @#177572
    7261 043236 020327  000000                   cmp r3,#0
    7262 043242 001404                           beq 7$
    7263                                         error
       1 001243                         ..n      = ..n + 1
       2 043244 012737  001243  177570           mov #..n,@#ddisp
       3 043252 000000                           halt
    7264                                7$:
    7265 043254 022627  000000                   cmp (sp)+,#0
    7266 043260 001404                           beq 8$
    7267                                         error
       1 001244                         ..n      = ..n + 1
       2 043262 012737  001244  177570           mov #..n,@#ddisp
       3 043270 000000                           halt
    7268                                8$:
    7269 043272 022627  177777                   cmp (sp)+,#177777
    7270 043276 001404                           beq 9$
    7271                                         error
       1 001245                         ..n      = ..n + 1
       2 043300 012737  001245  177570           mov #..n,@#ddisp
       3 043306 000000                           halt
    7272                                9$:
    7273 043310 012637  000244                   mov (sp)+,@#244
    7274                                ;
    7275                                ;
    7276                                ;
    7277                                tstm10:
    7278 043314 005037  177572                   clr @#177572
    7279 043320 005037  051634                   clr @#flag
    7280 043324 012737  140000  177776           mov #140000,@#177776
    7281 043332 010637  051630                   mov r6,@#savuse
    7282 043336 012737  040000  177776           mov #40000,@#177776
    7283 043344 010637  051632                   mov r6,@#savsup
    7284 043350 012737  030000  177776           mov #30000,@#177776
    7285 043356 004767  005740                   jsr pc,mmu
    7286 043362 012737  000027  172516           mov #27,@#172516
    7287 043370 013746  000244                   mov @#244,-(sp)
    7288 043374 012746  177777                   mov #177777,-(sp)
    7289 043400 012737  157002  000244           mov #157002,@#244
    7290 043406 012737  077400  177600           mov #77400,@#uipdr0
    7291 043414 012703  000244                   mov #244,r3
    7292 043420 005237  177572                   inc @#177572
    7293 043424 106523                           mfpd (r3)+
    7294 043426 022737  030010  177776           cmp #30010,@#177776
    7295 043434 001404                           beq 1$
    7296                                         error
       1 001246                         ..n      = ..n + 1
       2 043436 012737  001246  177570           mov #..n,@#ddisp
       3 043444 000000                           halt
    7297                                1$:
    7298 043446 005037  177572                   clr @#177572
    7299 043452 012737  140000  177776           mov #140000,@#177776
    7300 043460 020637  051630                   cmp r6,@#savuse
    7301 043464 001404                           beq 100$
    7302                                         error
       1 001247                         ..n      = ..n + 1
       2 043466 012737  001247  177570           mov #..n,@#ddisp
       3 043474 000000                           halt
    7303                                100$:
    7304 043476 012737  040000  177776           mov #40000,@#177776
    7305 043504 020637  051632                   cmp r6,@#savsup
    7306 043510 001404                           beq 200$
    7307                                         error
       1 001250                         ..n      = ..n + 1
       2 043512 012737  001250  177570           mov #..n,@#ddisp
       3 043520 000000                           halt
    7308                                200$:
    7309 043522 023727  000244  157002           cmp @#244,#157002
    7310 043530 001404                           beq 2$
    7311                                         error
       1 001251                         ..n      = ..n + 1
       2 043532 012737  001251  177570           mov #..n,@#ddisp
       3 043540 000000                           halt
    7312                                2$:
    7313 043542 020327  000246                   cmp r3,#246
    7314 043546 001404                           beq 3$
    7315                                         error
       1 001252                         ..n      = ..n + 1
       2 043550 012737  001252  177570           mov #..n,@#ddisp
       3 043556 000000                           halt
    7316                                3$:
    7317 043560 005037  177776                   clr @#177776
    7318 043564 022627  157002                   cmp (sp)+,#157002
    7319 043570 001404                           beq 4$
    7320                                         error
       1 001253                         ..n      = ..n + 1
       2 043572 012737  001253  177570           mov #..n,@#ddisp
       3 043600 000000                           halt
    7321                                4$:
    7322 043602 021627  177777                   cmp (sp),#177777
    7323 043606 001404                           beq 5$
    7324                                         error
       1 001254                         ..n      = ..n + 1
       2 043610 012737  001254  177570           mov #..n,@#ddisp
       3 043616 000000                           halt
    7325                                5$:
    7326 043620 012737  030017  177776           mov #30017,@#177776
    7327 043626 012737  103456  000244           mov #103456,@#244
    7328 043634 012701  000244                   mov #244,r1
    7329 043640 005237  177572                   inc @#177572
    7330 043644 106511                           mfpd (r1)
    7331 043646 022737  030011  177776           cmp #30011,@#177776
    7332 043654 001404                           beq 300$
    7333                                         error
       1 001255                         ..n      = ..n + 1
       2 043656 012737  001255  177570           mov #..n,@#ddisp
       3 043664 000000                           halt
    7334                                300$:
    7335 043666 005037  177572                   clr @#177572
    7336 043672 023727  000244  103456           cmp @#244,#103456
    7337 043700 001404                           beq 301$
    7338                                         error
       1 001256                         ..n      = ..n + 1
       2 043702 012737  001256  177570           mov #..n,@#ddisp
       3 043710 000000                           halt
    7339                                301$:
    7340 043712 020127  000244                   cmp r1,#244
    7341 043716 001404                           beq 302$
    7342                                         error
       1 001257                         ..n      = ..n + 1
       2 043720 012737  001257  177570           mov #..n,@#ddisp
       3 043726 000000                           halt
    7343                                302$:
    7344 043730 005037  177776                   clr @#177776
    7345 043734 022627  103456                   cmp (sp)+,#103456
    7346 043740 001404                           beq 303$
    7347                                         error
       1 001260                         ..n      = ..n + 1
       2 043742 012737  001260  177570           mov #..n,@#ddisp
       3 043750 000000                           halt
    7348                                303$:
    7349 043752 021627  177777                   cmp (sp),#177777
    7350 043756 001404                           beq 304$
    7351                                         error
       1 001261                         ..n      = ..n + 1
       2 043760 012737  001261  177570           mov #..n,@#ddisp
       3 043766 000000                           halt
    7352                                304$:
    7353 043770 012737  030017  177776           mov #30017,@#177776
    7354 043776 012737  113672  000244           mov #113672,@#244
    7355 044004 012701  000246                   mov #246,r1
    7356 044010 005237  177572                   inc @#177572
    7357 044014 106541                           mfpd -(r1)
    7358 044016 022737  030011  177776           cmp #30011,@#177776
    7359 044024 001404                           beq 400$
    7360                                         error
       1 001262                         ..n      = ..n + 1
       2 044026 012737  001262  177570           mov #..n,@#ddisp
       3 044034 000000                           halt
    7361                                400$:
    7362 044036 005037  177572                   clr @#177572
    7363 044042 023727  000244  113672           cmp @#244,#113672
    7364 044050 001404                           beq 401$
    7365                                         error
       1 001263                         ..n      = ..n + 1
       2 044052 012737  001263  177570           mov #..n,@#ddisp
       3 044060 000000                           halt
    7366                                401$:
    7367 044062 020127  000244                   cmp r1,#244
    7368 044066 001404                           beq 402$
    7369                                         error
       1 001264                         ..n      = ..n + 1
       2 044070 012737  001264  177570           mov #..n,@#ddisp
       3 044076 000000                           halt
    7370                                402$:
    7371 044100 005037  177776                   clr @#177776
    7372 044104 022627  113672                   cmp (sp)+,#113672
    7373 044110 001404                           beq 403$
    7374                                         error
       1 001265                         ..n      = ..n + 1
       2 044112 012737  001265  177570           mov #..n,@#ddisp
       3 044120 000000                           halt
    7375                                403$:
    7376 044122 021627  177777                   cmp (sp),#177777
    7377 044126 001404                           beq 404$
    7378                                         error
       1 001266                         ..n      = ..n + 1
       2 044130 012737  001266  177570           mov #..n,@#ddisp
       3 044136 000000                           halt
    7379                                404$:
    7380 044140 005003                           clr r3
    7381 044142 005237  177572                   inc @#177572
    7382 044146 106503                           mfpd r3
    7383 044150 022737  000004  177776           cmp #4,@#177776
    7384 044156 001404                           beq 6$
    7385                                         error
       1 001267                         ..n      = ..n + 1
       2 044160 012737  001267  177570           mov #..n,@#ddisp
       3 044166 000000                           halt
    7386                                6$:
    7387 044170 005037  177572                   clr @#177572
    7388 044174 020327  000000                   cmp r3,#0
    7389 044200 001404                           beq 7$
    7390                                         error
       1 001270                         ..n      = ..n + 1
       2 044202 012737  001270  177570           mov #..n,@#ddisp
       3 044210 000000                           halt
    7391                                7$:
    7392 044212 022627  000000                   cmp (sp)+,#0
    7393 044216 001404                           beq 8$
    7394                                         error
       1 001271                         ..n      = ..n + 1
       2 044220 012737  001271  177570           mov #..n,@#ddisp
       3 044226 000000                           halt
    7395                                8$:
    7396 044230 022627  177777                   cmp (sp)+,#177777
    7397 044234 001404                           beq 9$
    7398                                         error
       1 001272                         ..n      = ..n + 1
       2 044236 012737  001272  177570           mov #..n,@#ddisp
       3 044244 000000                           halt
    7399                                9$:
    7400 044246 012637  000244                   mov (sp)+,@#244
    7401                                ;
    7402                                ;
    7403                                ;
    7404                                tstm11:
    7405 044252 005037  177572                   clr @#177572
    7406 044256 005037  051634                   clr @#flag
    7407 044262 012737  140000  177776           mov #140000,@#177776
    7408 044270 010637  051630                   mov r6,@#savuse
    7409 044274 012737  040000  177776           mov #40000,@#177776
    7410 044302 010637  051632                   mov r6,@#savsup
    7411 044306 012737  030000  177776           mov #30000,@#177776
    7412 044314 004767  005002                   jsr pc,mmu
    7413 044320 012737  000027  172516           mov #27,@#172516
    7414 044326 013746  000244                   mov @#244,-(sp)
    7415 044332 012746  177777                   mov #177777,-(sp)
    7416 044336 012746  120413                   mov #120413,-(sp)
    7417 044342 012737  177777  000244           mov #177777,@#244
    7418 044350 012737  077400  177620           mov #77400,@#udpdr0
    7419 044356 012703  000244                   mov #244,r3
    7420 044362 005237  177572                   inc @#177572
    7421 044366 006623                           mtpi (r3)+
    7422 044370 022737  030010  177776           cmp #30010,@#177776
    7423 044376 001404                           beq 1$
    7424                                         error
       1 001273                         ..n      = ..n + 1
       2 044400 012737  001273  177570           mov #..n,@#ddisp
       3 044406 000000                           halt
    7425                                1$:
    7426 044410 005037  177776                   clr @#177776
    7427 044414 012737  140000  177776           mov #140000,@#177776
    7428 044422 020637  051630                   cmp r6,@#savuse
    7429 044426 001404                           beq 100$
    7430                                         error
       1 001274                         ..n      = ..n + 1
       2 044430 012737  001274  177570           mov #..n,@#ddisp
       3 044436 000000                           halt
    7431                                100$:
    7432 044440 012737  040000  177776           mov #40000,@#177776
    7433 044446 020637  051632                   cmp r6,@#savsup
    7434 044452 001404                           beq 200$
    7435                                         error
       1 001275                         ..n      = ..n + 1
       2 044454 012737  001275  177570           mov #..n,@#ddisp
       3 044462 000000                           halt
    7436                                200$:
    7437 044464 023727  000244  120413           cmp @#244,#120413
    7438 044472 001404                           beq 2$
    7439                                         error
       1 001276                         ..n      = ..n + 1
       2 044474 012737  001276  177570           mov #..n,@#ddisp
       3 044502 000000                           halt
    7440                                2$:
    7441 044504 020327  000246                   cmp r3,#246
    7442 044510 001404                           beq 3$
    7443                                         error
       1 001277                         ..n      = ..n + 1
       2 044512 012737  001277  177570           mov #..n,@#ddisp
       3 044520 000000                           halt
    7444                                3$:
    7445 044522 005037  177776                   clr @#177776
    7446 044526 021627  177777                   cmp (sp),#177777
    7447 044532 001404                           beq 4$
    7448                                         error
       1 001300                         ..n      = ..n + 1
       2 044534 012737  001300  177570           mov #..n,@#ddisp
       3 044542 000000                           halt
    7449                                4$:
    7450 044544 012737  030017  177776           mov #30017,@#177776
    7451 044552 012746  145121                   mov #145121,-(sp)
    7452 044556 012701  000244                   mov #244,r1
    7453 044562 005237  177572                   inc @#177572
    7454 044566 006611                           mtpi (r1)
    7455 044570 022737  030011  177776           cmp #30011,@#177776
    7456 044576 001404                           beq 300$
    7457                                         error
       1 001301                         ..n      = ..n + 1
       2 044600 012737  001301  177570           mov #..n,@#ddisp
       3 044606 000000                           halt
    7458                                300$:
    7459 044610 005037  177572                   clr @#177572
    7460 044614 023727  000244  145121           cmp @#244,#145121
    7461 044622 001404                           beq 301$
    7462                                         error
       1 001302                         ..n      = ..n + 1
       2 044624 012737  001302  177570           mov #..n,@#ddisp
       3 044632 000000                           halt
    7463                                301$:
    7464 044634 020127  000244                   cmp r1,#244
    7465 044640 001404                           beq 302$
    7466                                         error
       1 001303                         ..n      = ..n + 1
       2 044642 012737  001303  177570           mov #..n,@#ddisp
       3 044650 000000                           halt
    7467                                302$:
    7468 044652 005037  177776                   clr @#177776
    7469 044656 021627  177777                   cmp (sp),#177777
    7470 044662 001404                           beq 304$
    7471                                         error
       1 001304                         ..n      = ..n + 1
       2 044664 012737  001304  177570           mov #..n,@#ddisp
       3 044672 000000                           halt
    7472                                304$:
    7473 044674 012737  030017  177776           mov #30017,@#177776
    7474 044702 012746  122347                   mov #122347,-(sp)
    7475 044706 012701  000246                   mov #246,r1
    7476 044712 005237  177572                   inc @#177572
    7477 044716 006641                           mtpi -(r1)
    7478 044720 022737  030011  177776           cmp #30011,@#177776
    7479 044726 001404                           beq 400$
    7480                                         error
       1 001305                         ..n      = ..n + 1
       2 044730 012737  001305  177570           mov #..n,@#ddisp
       3 044736 000000                           halt
    7481                                400$:
    7482 044740 005037  177572                   clr @#177572
    7483 044744 023727  000244  122347           cmp @#244,#122347
    7484 044752 001404                           beq 401$
    7485                                         error
       1 001306                         ..n      = ..n + 1
       2 044754 012737  001306  177570           mov #..n,@#ddisp
       3 044762 000000                           halt
    7486                                401$:
    7487 044764 020127  000244                   cmp r1,#244
    7488 044770 001404                           beq 402$
    7489                                         error
       1 001307                         ..n      = ..n + 1
       2 044772 012737  001307  177570           mov #..n,@#ddisp
       3 045000 000000                           halt
    7490                                402$:
    7491 045002 005037  177776                   clr @#177776
    7492 045006 021627  177777                   cmp (sp),#177777
    7493 045012 001404                           beq 404$
    7494                                         error
       1 001310                         ..n      = ..n + 1
       2 045014 012737  001310  177570           mov #..n,@#ddisp
       3 045022 000000                           halt
    7495                                404$:
    7496 045024 005046                           clr -(sp)
    7497 045026 005237  177572                   inc @#177572
    7498 045032 006603                           mtpi r3
    7499 045034 022737  000004  177776           cmp #4,@#177776
    7500 045042 001404                           beq 5$
    7501                                         error
       1 001311                         ..n      = ..n + 1
       2 045044 012737  001311  177570           mov #..n,@#ddisp
       3 045052 000000                           halt
    7502                                5$:
    7503 045054 005037  177572                   clr @#177572
    7504 045060 020327  000000                   cmp r3,#0
    7505 045064 001404                           beq 6$
    7506                                         error
       1 001312                         ..n      = ..n + 1
       2 045066 012737  001312  177570           mov #..n,@#ddisp
       3 045074 000000                           halt
    7507                                6$:
    7508 045076 022627  177777                   cmp (sp)+,#177777
    7509 045102 001404                           beq 7$
    7510                                         error
       1 001313                         ..n      = ..n + 1
       2 045104 012737  001313  177570           mov #..n,@#ddisp
       3 045112 000000                           halt
    7511                                7$:
    7512 045114 012637  000244                   mov (sp)+,@#244
    7513                                ;
    7514                                ;
    7515                                ;
    7516                                tstm12:
    7517 045120 005037  177572                   clr @#177572
    7518 045124 005037  051634                   clr @#flag
    7519 045130 012737  140000  177776           mov #140000,@#177776
    7520 045136 010637  051630                   mov r6,@#savuse
    7521 045142 012737  040000  177776           mov #40000,@#177776
    7522 045150 010637  051632                   mov r6,@#savsup
    7523 045154 012737  030000  177776           mov #30000,@#177776
    7524 045162 004767  004134                   jsr pc,mmu
    7525 045166 012737  000027  172516           mov #27,@#172516
    7526 045174 013746  000244                   mov @#244,-(sp)
    7527 045200 012746  177777                   mov #177777,-(sp)
    7528 045204 012746  100004                   mov #100004,-(sp)
    7529 045210 012737  177777  000244           mov #177777,@#244
    7530 045216 012737  077400  177600           mov #77400,@#uipdr0
    7531 045224 012703  000244                   mov #244,r3
    7532 045230 005237  177572                   inc @#177572
    7533 045234 106623                           mtpd (r3)+
    7534 045236 022737  030010  177776           cmp #30010,@#177776
    7535 045244 001404                           beq 1$
    7536                                         error
       1 001314                         ..n      = ..n + 1
       2 045246 012737  001314  177570           mov #..n,@#ddisp
       3 045254 000000                           halt
    7537                                1$:
    7538 045256 005037  177572                   clr @#177572
    7539 045262 012737  140000  177776           mov #140000,@#177776
    7540 045270 020637  051630                   cmp r6,@#savuse
    7541 045274 001404                           beq 100$
    7542                                         error
       1 001315                         ..n      = ..n + 1
       2 045276 012737  001315  177570           mov #..n,@#ddisp
       3 045304 000000                           halt
    7543                                100$:
    7544 045306 012737  040000  177776           mov #40000,@#177776
    7545 045314 020637  051632                   cmp r6,@#savsup
    7546 045320 001404                           beq 200$
    7547                                         error
       1 001316                         ..n      = ..n + 1
       2 045322 012737  001316  177570           mov #..n,@#ddisp
       3 045330 000000                           halt
    7548                                200$:
    7549 045332 023727  000244  100004           cmp @#244,#100004
    7550 045340 001404                           beq 2$
    7551                                         error
       1 001317                         ..n      = ..n + 1
       2 045342 012737  001317  177570           mov #..n,@#ddisp
       3 045350 000000                           halt
    7552                                2$:
    7553 045352 020327  000246                   cmp r3,#246
    7554 045356 001404                           beq 3$
    7555                                         error
       1 001320                         ..n      = ..n + 1
       2 045360 012737  001320  177570           mov #..n,@#ddisp
       3 045366 000000                           halt
    7556                                3$:
    7557 045370 005037  177776                   clr @#177776
    7558 045374 021627  177777                   cmp (sp),#177777
    7559 045400 001404                           beq 4$
    7560                                         error
       1 001321                         ..n      = ..n + 1
       2 045402 012737  001321  177570           mov #..n,@#ddisp
       3 045410 000000                           halt
    7561                                4$:
    7562 045412 012737  030017  177776           mov #30017,@#177776
    7563 045420 012746  100737                   mov #100737,-(sp)
    7564 045424 012701  000244                   mov #244,r1
    7565 045430 005237  177572                   inc @#177572
    7566 045434 106611                           mtpd (r1)
    7567 045436 022737  030011  177776           cmp #30011,@#177776
    7568 045444 001404                           beq 300$
    7569                                         error
       1 001322                         ..n      = ..n + 1
       2 045446 012737  001322  177570           mov #..n,@#ddisp
       3 045454 000000                           halt
    7570                                300$:
    7571 045456 005037  177572                   clr @#177572
    7572 045462 023727  000244  100737           cmp @#244,#100737
    7573 045470 001404                           beq 301$
    7574                                         error
       1 001323                         ..n      = ..n + 1
       2 045472 012737  001323  177570           mov #..n,@#ddisp
       3 045500 000000                           halt
    7575                                301$:
    7576 045502 020127  000244                   cmp r1,#244
    7577 045506 001404                           beq 302$
    7578                                         error
       1 001324                         ..n      = ..n + 1
       2 045510 012737  001324  177570           mov #..n,@#ddisp
       3 045516 000000                           halt
    7579                                302$:
    7580 045520 005037  177776                   clr @#177776
    7581 045524 021627  177777                   cmp (sp),#177777
    7582 045530 001404                           beq 304$
    7583                                         error
       1 001325                         ..n      = ..n + 1
       2 045532 012737  001325  177570           mov #..n,@#ddisp
       3 045540 000000                           halt
    7584                                304$:
    7585 045542 012737  030017  177776           mov #30017,@#177776
    7586 045550 012746  156711                   mov #156711,-(sp)
    7587 045554 012701  000246                   mov #246,r1
    7588 045560 005237  177572                   inc @#177572
    7589 045564 106641                           mtpd -(r1)
    7590 045566 022737  030011  177776           cmp #30011,@#177776
    7591 045574 001404                           beq 400$
    7592                                         error
       1 001326                         ..n      = ..n + 1
       2 045576 012737  001326  177570           mov #..n,@#ddisp
       3 045604 000000                           halt
    7593                                400$:
    7594 045606 005037  177572                   clr @#177572
    7595 045612 023727  000244  156711           cmp @#244,#156711
    7596 045620 001404                           beq 401$
    7597                                         error
       1 001327                         ..n      = ..n + 1
       2 045622 012737  001327  177570           mov #..n,@#ddisp
       3 045630 000000                           halt
    7598                                401$:
    7599 045632 020127  000244                   cmp r1,#244
    7600 045636 001404                           beq 402$
    7601                                         error
       1 001330                         ..n      = ..n + 1
       2 045640 012737  001330  177570           mov #..n,@#ddisp
       3 045646 000000                           halt
    7602                                402$:
    7603 045650 005037  177776                   clr @#177776
    7604 045654 021627  177777                   cmp (sp),#177777
    7605 045660 001404                           beq 404$
    7606                                         error
       1 001331                         ..n      = ..n + 1
       2 045662 012737  001331  177570           mov #..n,@#ddisp
       3 045670 000000                           halt
    7607                                404$:
    7608 045672 005046                           clr -(sp)
    7609 045674 005237  177572                   inc @#177572
    7610 045700 106603                           mtpd r3
    7611 045702 022737  000004  177776           cmp #4,@#177776
    7612 045710 001404                           beq 5$
    7613                                         error
       1 001332                         ..n      = ..n + 1
       2 045712 012737  001332  177570           mov #..n,@#ddisp
       3 045720 000000                           halt
    7614                                5$:
    7615 045722 005037  177572                   clr @#177572
    7616 045726 020327  000000                   cmp r3,#0
    7617 045732 001404                           beq 6$
    7618                                         error
       1 001333                         ..n      = ..n + 1
       2 045734 012737  001333  177570           mov #..n,@#ddisp
       3 045742 000000                           halt
    7619                                6$:
    7620 045744 022627  177777                   cmp (sp)+,#177777
    7621 045750 001404                           beq 7$
    7622                                         error
       1 001334                         ..n      = ..n + 1
       2 045752 012737  001334  177570           mov #..n,@#ddisp
       3 045760 000000                           halt
    7623                                7$:
    7624 045762 012637  000244                   mov (sp)+,@#244
    7625                                ;
    7626                                ;
    7627                                ;
    7628                                tstm13:
    7629 045766 005037  177572                   clr @#177572
    7630 045772 012737  051474  000250           mov #mmutrp,@#250
    7631 046000 005037  051634                   clr @#flag
    7632 046004 013746  000214                   mov @#214,-(sp)
    7633 046010 013746  000216                   mov @#216,-(sp)
    7634 046014 005067  003602                   clr savmr0
    7635 046020 005067  003600                   clr savmr1
    7636 046024 005067  003576                   clr savmr2
    7637 046030 004767  003266                   jsr pc,mmu
    7638 046034 012737  030000  177776           mov #30000,@#177776
    7639 046042 012702  000200                   mov #200,r2
    7640 046046 012737  077400  177600           mov #77400,@#177600
    7641 046054 004767  000152                   jsr pc,ts7
    7642                                ;         mov #77404,@#177600          -- this is not the same for kt11c, acf 4 causes mmu traps
    7643                                ;         jsr pc,ts7
    7644 046060 012701  000220                   mov #220,r1
    7645 046064 004767  003232                   jsr pc,mmu
    7646 046070 005003                           clr r3
    7647 046072 012737  000001  051634           mov #1,@#flag
    7648 046100 012737  000001  177572           mov #1,@#177572
    7649 046106 012737  100000  177776           mov #100000,@#177776
    7650 046114 012241                           mov (r2)+,-(r1)
    7651 046116 004767  000250                   jsr pc,tsm7
    7652 046122 005067  003474                   clr savmr0
    7653 046126 005067  003472                   clr savmr1
    7654 046132 005067  003470                   clr savmr2
    7655 046136 012703  000000                   mov #0,r3                      ; #22; abort triggers before autoincrement
    7656 046142 012737  000001  051634           mov #1,@#flag
    7657 046150 012737  000001  177572           mov #1,@#177572
    7658 046156 012737  020000  177776           mov #20000,@#177776
    7659 046164 006522                           mfpi (r2)+
    7660 046166 004767  000200                   jsr pc,tsm7
    7661 046172 012737  030000  177776           mov #30000,@#177776
    7662 046200 012737  077400  177600           mov #77400,@#177600
    7663 046206 005037  177572                   clr @#177572
    7664 046212 006522                           mfpi (r2)+
    7665 046214 012603                           mov (sp)+,r3
    7666 046216 012637  000216                   mov (sp)+,@#216
    7667 046222 012637  000214                   mov (sp)+,@#214
    7668 046226 000167  000226                   jmp ts7fin
    7669                                ts7:
    7670 046232 012767  000001  003374           mov #1,flag
    7671 046240 012737  000001  177572           mov #1,@#177572
    7672 046246 010701                           mov r7,r1
    7673 046250 006522                           mfpi (r2)+
    7674 046252 022767  000000  003354           cmp #0,flag
    7675 046260 001404                           beq ok7
    7676                                         error
       1 001335                         ..n      = ..n + 1
       2 046262 012737  001335  177570           mov #..n,@#ddisp
       3 046270 000000                           halt
    7677                                ok7:
    7678 046272 105067  003324                   clrb savmr0
    7679 046276 022767  100000  003316           cmp #100000,savmr0
    7680 046304 001404                           beq oka7
    7681                                         error
       1 001336                         ..n      = ..n + 1
       2 046306 012737  001336  177570           mov #..n,@#ddisp
       3 046314 000000                           halt
    7682                                oka7:
    7683 046316 026727  003302  000000           cmp savmr1,#0                      ; #22; abort triggers before autoincrement
    7684 046324 001404                           beq okay7
    7685                                         error
       1 001337                         ..n      = ..n + 1
       2 046326 012737  001337  177570           mov #..n,@#ddisp
       3 046334 000000                           halt
    7686                                okay7:
    7687 046336 026701  003264                   cmp savmr2,r1
    7688 046342 001404                           beq okay7a
    7689                                         error
       1 001340                         ..n      = ..n + 1
       2 046344 012737  001340  177570           mov #..n,@#ddisp
       3 046352 000000                           halt
    7690                                okay7a:
    7691 046354 005067  003242                   clr savmr0
    7692 046360 005067  003240                   clr savmr1
    7693 046364 005067  003236                   clr savmr2
    7694 046370 000207                           rts pc
    7695                                tsm7:
    7696 046372 022767  000000  003234           cmp #0,flag
    7697 046400 001404                           beq tsma
    7698                                         error
       1 001341                         ..n      = ..n + 1
       2 046402 012737  001341  177570           mov #..n,@#ddisp
       3 046410 000000                           halt
    7699                                tsma:
    7700 046412 042737  040377  051622           bic #40377,@#savmr0
    7701 046420 022767  100000  003174           cmp #100000,savmr0
    7702 046426 001404                           beq tsmb
    7703                                         error
       1 001342                         ..n      = ..n + 1
       2 046430 012737  001342  177570           mov #..n,@#ddisp
       3 046436 000000                           halt
    7704                                tsmb:
    7705 046440 020367  003160                   cmp r3,savmr1
    7706 046444 001404                           beq tsmc
    7707                                         error
       1 001343                         ..n      = ..n + 1
       2 046446 012737  001343  177570           mov #..n,@#ddisp
       3 046454 000000                           halt
    7708                                tsmc:
    7709 046456 000207                           rts pc
    7710                                ts7fin:
    7711                                ;
    7712                                ;
    7713                                ;
    7714                                tstm14:
    7715 046460 005037  177572                   clr @#177572
    7716 046464 012737  051474  000250           mov #mmutrp,@#250
    7717 046472 005037  051634                   clr @#flag
    7718 046476 013746  000244                   mov @#244,-(sp)
    7719 046502 013746  000246                   mov @#246,-(sp)
    7720 046506 005067  003110                   clr savmr0
    7721 046512 005067  003106                   clr savmr1
    7722 046516 005067  003104                   clr savmr2
    7723 046522 004767  002574                   jsr pc,mmu
    7724 046526 012737  030000  177776           mov #30000,@#177776
    7725 046534 012702  000244                   mov #244,r2
    7726 046540 012737  077402  177600           mov #77402,@#177600
    7727 046546 012746  000246                   mov #246,-(sp)                   ; can't really read what it says in the doc. 244 or 246. Don't understand the code either, and both seem to pass the tests. WTF???
    7728 046552 012767  000001  003054           mov #1,flag
    7729 046560 012737  000001  177572           mov #1,@#177572
    7730 046566 010701                           mov r7,r1
    7731 046570 006622                           mtpi (r2)+
    7732 046572 022767  000000  003034           cmp #0,flag
    7733 046600 001404                           beq 1$
    7734                                         error
       1 001344                         ..n      = ..n + 1
       2 046602 012737  001344  177570           mov #..n,@#ddisp
       3 046610 000000                           halt
    7735                                1$:
    7736 046612 105067  003004                   clrb savmr0
    7737 046616 022767  020000  002776           cmp #20000,savmr0
    7738 046624 001404                           beq 2$
    7739                                         error
       1 001345                         ..n      = ..n + 1
       2 046626 012737  001345  177570           mov #..n,@#ddisp
       3 046634 000000                           halt
    7740                                2$:
    7741 046636 022767  013022  002760           cmp #13022,savmr1            ; #11026 - this implementation reverses the updates during an mtpi
    7742 046644 001404                           beq 3$
    7743                                         error
       1 001346                         ..n      = ..n + 1
       2 046646 012737  001346  177570           mov #..n,@#ddisp
       3 046654 000000                           halt
    7744                                3$:
    7745 046656 020167  002744                   cmp r1,savmr2
    7746 046662 001404                           beq 4$
    7747                                         error
       1 001347                         ..n      = ..n + 1
       2 046664 012737  001347  177570           mov #..n,@#ddisp
       3 046672 000000                           halt
    7748                                4$:
    7749 046674 023766  000244  000002           cmp @#244,2(sp)
    7750 046702 001404                           beq 5$
    7751                                         error
       1 001350                         ..n      = ..n + 1
       2 046704 012737  001350  177570           mov #..n,@#ddisp
       3 046712 000000                           halt
    7752                                5$:
    7753 046714 012737  030000  177776           mov #30000,@#177776
    7754 046722 012746  000002                   mov #2,-(sp)
    7755 046726 006622                           mtpi (r2)+
    7756 046730 012637  000246                   mov (sp)+,@#246
    7757 046734 012637  000244                   mov (sp)+,@#244
    7758                                ;
    7759                                ;
    7760                                ;
    7761                                tstm15:
    7762 046740 005037  177572                   clr @#177572
    7763 046744 012737  051474  000250           mov #mmutrp,@#250
    7764 046752 005067  002656                   clr flag
    7765 046756 005067  002640                   clr savmr0
    7766 046762 005067  002636                   clr savmr1
    7767 046766 005067  002634                   clr savmr2
    7768 046772 012737  030000  177776           mov #30000,@#177776
    7769 047000 004767  002316                   jsr pc,mmu
    7770 047004 012703  047324                   mov #plf0,r3
    7771 047010 012701  047376                   mov #bn0,r1
    7772 047014 012702  047446                   mov #abort0,r2
    7773 047020 012737  000026  172516           mov #26,@#172516
    7774 047026 004767  000050                   jsr pc,tsm9
    7775 047032 012703  047516                   mov #plf1,r3
    7776 047036 012701  047566                   mov #bn1,r1
    7777 047042 012702  047634                   mov #abort1,r2
    7778 047046 004767  000030                   jsr pc,tsm9
    7779 047052 005037  177572                   clr @#177572
    7780 047056 012703  047526                   mov #plf1+10,r3
    7781 047062 012701  047576                   mov #bn1+10,r1
    7782 047066 011337  177600                   mov (r3),@#177600
    7783 047072 006521                           mfpi (r1)+
    7784 047074 012605                           mov (sp)+,r5
    7785 047076 000167  000600                   jmp ts9fin
    7786                                ;
    7787                                tsm9:
    7788 047102 012337  177600                   mov (r3)+,@#177600
    7789 047106 010100                           mov r1,r0
    7790 047110 012767  000001  002516           mov #1,flag
    7791 047116 012737  000001  177572           mov #1,@#177572
    7792 047124 010704                           mov r7,r4
    7793 047126 006530                           mfpi @(r0)+
    7794 047130 021227  000000                   cmp (r2),#0
    7795 047134 001012                           bne 2$
    7796 047136 012605                           mov (sp)+,r5
    7797 047140 022767  000001  002466           cmp #1,flag
    7798 047146 001404                           beq 1$
    7799                                         error
       1 001351                         ..n      = ..n + 1
       2 047150 012737  001351  177570           mov #..n,@#ddisp
       3 047156 000000                           halt
    7800                                1$:
    7801 047160 000441                           br 6$
    7802                                2$:
    7803 047162 022767  000000  002444           cmp #0,flag
    7804 047170 001404                           beq 3$
    7805                                         error
       1 001352                         ..n      = ..n + 1
       2 047172 012737  001352  177570           mov #..n,@#ddisp
       3 047200 000000                           halt
    7806                                3$:
    7807 047202 105067  002414                   clrb savmr0
    7808 047206 022767  040000  002406           cmp #40000,savmr0
    7809 047214 001404                           beq 4$
    7810                                         error
       1 001353                         ..n      = ..n + 1
       2 047216 012737  001353  177570           mov #..n,@#ddisp
       3 047224 000000                           halt
    7811                                4$:
    7812 047226 022767  000000  002370           cmp #0,savmr1                     ; original = 20
    7813 047234 001404                           beq 5$
    7814                                         error
       1 001354                         ..n      = ..n + 1
       2 047236 012737  001354  177570           mov #..n,@#ddisp
       3 047244 000000                           halt
    7815                                5$:
    7816 047246 020467  002354                   cmp r4,savmr2
    7817 047252 001404                           beq 6$
    7818                                         error
       1 001355                         ..n      = ..n + 1
       2 047254 012737  001355  177570           mov #..n,@#ddisp
       3 047262 000000                           halt
    7819                                6$:
    7820 047264 005067  002344                   clr flag
    7821 047270 005067  002326                   clr savmr0
    7822 047274 005067  002324                   clr savmr1
    7823 047300 005067  002322                   clr savmr2
    7824 047304 005201                           inc r1
    7825 047306 005201                           inc r1
    7826 047310 005202                           inc r2
    7827 047312 005202                           inc r2
    7828 047314 021327  000777                   cmp (r3),#777
    7829 047320 001270                           bne tsm9
    7830 047322 000207                           rts pc
    7831                                ;
    7832                                plf0:
    7833 047324 070006                           .word 70006
    7834 047326 070006                           .word 70006
    7835 047330 070006                           .word 70006
    7836 047332 013406                           .word 13406
    7837 047334 020006                           .word 20006
    7838 047336 004006                           .word 04006
    7839 047340 040006                           .word 40006
    7840 047342 070006                           .word 70006
    7841 047344 024006                           .word 24006
    7842 047346 004006                           .word 04006
    7843 047350 014006                           .word 14006
    7844 047352 012006                           .word 12006
    7845 047354 002006                           .word 02006
    7846 047356 001406                           .word 01406
    7847 047360 004006                           .word 04006
    7848 047362 002006                           .word 02006
    7849 047364 000406                           .word 00406
    7850 047366 007406                           .word 07406
    7851 047370 001006                           .word 01006
    7852 047372 003406                           .word 03406
    7853 047374 000777                           .word 777
    7854                                
    7855                                bn0:
    7856 047376 013000                           .word 013000
    7857 047400 016000                           .word 016000
    7858 047402 017000                           .word 017000
    7859 047404 002700                           .word 002700
    7860 047406 014000                           .word 014000
    7861 047410 002000                           .word 002000
    7862 047412 004000                           .word 004000
    7863 047414 007000                           .word 007000
    7864 047416 002000                           .word 002000
    7865 047420 000700                           .word 000700
    7866 047422 004000                           .word 004000
    7867 047424 001000                           .word 001000
    7868 047426 000300                           .word 000300
    7869 047430 000400                           .word 000400
    7870 047432 001400                           .word 001400
    7871 047434 000600                           .word 000600
    7872 047436 000200                           .word 000200
    7873 047440 001700                           .word 001700
    7874 047442 000300                           .word 000300
    7875 047444 000700                           .word 000700
    7876                                
    7877                                abort0:
    7878 047446 000000                           .word 0
    7879 047450 000000                           .word 0
    7880 047452 000001                           .word 1
    7881 047454 000000                           .word 0
    7882 047456 000001                           .word 1
    7883 047460 000001                           .word 1
    7884 047462 000000                           .word 0
    7885 047464 000000                           .word 0
    7886 047466 000000                           .word 0
    7887 047470 000000                           .word 0
    7888 047472 000001                           .word 1
    7889 047474 000000                           .word 0
    7890 047476 000000                           .word 0
    7891 047500 000001                           .word 1
    7892 047502 000001                           .word 1
    7893 047504 000001                           .word 1
    7894 047506 000001                           .word 1
    7895 047510 000000                           .word 0
    7896 047512 000001                           .word 1
    7897 047514 000000                           .word 0
    7898                                
    7899                                plf1:
    7900 047516 000416                           .word 00416
    7901 047520 020016                           .word 20016
    7902 047522 024016                           .word 24016
    7903 047524 034016                           .word 34016
    7904 047526 074016                           .word 74016
    7905 047530 040016                           .word 40016
    7906 047532 020016                           .word 20016
    7907 047534 000016                           .word 00016
    7908 047536 030016                           .word 30016
    7909 047540 010016                           .word 10016
    7910 047542 014016                           .word 14016
    7911 047544 004016                           .word 04016
    7912 047546 002016                           .word 02016
    7913 047550 000416                           .word 00416
    7914 047552 000016                           .word 00016
    7915 047554 003416                           .word 03416
    7916 047556 001016                           .word 01016
    7917 047560 001416                           .word 01416
    7918 047562 000416                           .word 00416
    7919 047564 000777                           .word 777
    7920                                
    7921                                bn1:
    7922 047566 000100                           .word 000100
    7923 047570 010000                           .word 010000
    7924 047572 006000                           .word 006000
    7925 047574 016000                           .word 016000
    7926 047576 016000                           .word 016000
    7927 047600 004000                           .word 004000
    7928 047602 000000                           .word 000000
    7929 047604 000000                           .word 000000
    7930 047606 004000                           .word 004000
    7931 047610 004000                           .word 004000
    7932 047612 004000                           .word 004000
    7933 047614 000000                           .word 000000
    7934 047616 000300                           .word 000300
    7935 047620 000000                           .word 000000
    7936 047622 000400                           .word 000400
    7937 047624 001000                           .word 001000
    7938 047626 000100                           .word 000100
    7939 047630 000400                           .word 000400
    7940 047632 000200                           .word 000200
    7941                                
    7942                                abort1:
    7943 047634 000000                           .word 0
    7944 047636 000000                           .word 0
    7945 047640 000000                           .word 0
    7946 047642 000000                           .word 0
    7947 047644 000001                           .word 1
    7948 047646 000001                           .word 1
    7949 047650 000001                           .word 1
    7950 047652 000000                           .word 0
    7951 047654 000001                           .word 1
    7952 047656 000000                           .word 0
    7953 047660 000000                           .word 0
    7954 047662 000001                           .word 1
    7955 047664 000001                           .word 1
    7956 047666 000001                           .word 1
    7957 047670 000000                           .word 0
    7958 047672 000000                           .word 0
    7959 047674 000001                           .word 1
    7960 047676 000000                           .word 0
    7961 047700 000000                           .word 0
    7962                                
    7963                                ts9fin:
    7964                                ;
    7965                                ;
    7966                                ;
    7967                                tstm16:
    7968 047702 005037  177572                   clr @#177572
    7969 047706 012737  051474  000250           mov #mmutrp,@#250
    7970 047714 005067  001714                   clr flag
    7971 047720 005067  001676                   clr savmr0
    7972 047724 005067  001674                   clr savmr1
    7973 047730 005067  001672                   clr savmr2
    7974 047734 004767  001362                   jsr pc,mmu
    7975 047740 005037  177776                   clr @#177776
    7976 047744 012702  020200                   mov #20200,r2
    7977 047750 012737  077400  172302           mov #77400,@#172302
    7978 047756 012767  000001  001650           mov #1,flag
    7979 047764 012737  000001  177572           mov #1,@#177572
    7980 047772 010701                           mov r7,r1
    7981 047774 006522                           mfpi (r2)+
    7982 047776 012704  100003                   mov #100003,r4
    7983 050002 004767  000210                   jsr pc,ts10
    7984 050006 012737  030000  177776           mov #30000,@#177776
    7985 050014 004767  001302                   jsr pc,mmu
    7986 050020 012737  077400  177636           mov #77400,@#177636
    7987 050026 012737  001600  177676           mov #1600,@#177676
    7988 050034 012702  160000                   mov #160000,r2
    7989 050040 012767  000001  001566           mov #1,flag
    7990 050046 012737  000001  177572           mov #1,@#177572
    7991 050054 010701                           mov r7,r1
    7992 050056 106522                           mfpd (r2)+
    7993 050060 012704  100177                   mov #100177,r4
    7994 050064 004767  000126                   jsr pc,ts10
    7995 050070 012737  010000  177776           mov #10000,@#177776
    7996 050076 004767  001220                   jsr pc,mmu
    7997 050102 012737  077400  172212           mov #77400,@#172212
    7998 050110 012702  120000                   mov #120000,r2
    7999 050114 012767  000001  001512           mov #1,flag
    8000 050122 012737  000001  177572           mov #1,@#177572
    8001 050130 010701                           mov r7,r1
    8002 050132 006522                           mfpi (r2)+
    8003 050134 012704  100053                   mov #100053,r4
    8004 050140 004767  000052                   jsr pc,ts10
    8005 050144 012737  020000  177776           mov #20000,@#177776
    8006 050152 004767  001144                   jsr pc,mmu
    8007 050156 012702  040000                   mov #40000,r2
    8008 050162 012767  000001  001444           mov #1,flag
    8009 050170 012737  000001  177572           mov #1,@#177572
    8010 050176 010701                           mov r7,r1
    8011 050200 106522                           mfpd (r2)+
    8012 050202 012704  100105                   mov #100105,r4
    8013 050206 004767  000004                   jsr pc,ts10
    8014 050212 000167  000112                   jmp t10fin
    8015                                ;
    8016                                ts10:
    8017 050216 022767  000000  001410           cmp #0,flag
    8018 050224 001404                           beq 1$
    8019                                         error
       1 001356                         ..n      = ..n + 1
       2 050226 012737  001356  177570           mov #..n,@#ddisp
       3 050234 000000                           halt
    8020                                1$:
    8021 050236 020467  001360                   cmp r4,savmr0
    8022 050242 001404                           beq 2$
    8023                                         error
       1 001357                         ..n      = ..n + 1
       2 050244 012737  001357  177570           mov #..n,@#ddisp
       3 050252 000000                           halt
    8024                                2$:
    8025 050254 022767  000000  001342           cmp #0,savmr1              ; original #22
    8026 050262 001404                           beq 3$
    8027                                         error
       1 001360                         ..n      = ..n + 1
       2 050264 012737  001360  177570           mov #..n,@#ddisp
       3 050272 000000                           halt
    8028                                3$:
    8029 050274 020167  001326                   cmp r1,savmr2
    8030 050300 001404                           beq 4$
    8031                                         error
       1 001361                         ..n      = ..n + 1
       2 050302 012737  001361  177570           mov #..n,@#ddisp
       3 050310 000000                           halt
    8032                                4$:
    8033 050312 005067  001304                   clr savmr0
    8034 050316 005067  001302                   clr savmr1
    8035 050322 005067  001300                   clr savmr2
    8036 050326 000207                           rts pc
    8037                                ;
    8038                                t10fin:
    8039                                ;
    8040                                ;
    8041                                ;
    8042                                tstm17:
    8043 050330 005037  177572                   clr @#177572
    8044 050334 012737  051474  000250           mov #mmutrp,@#250
    8045 050342 005067  001266                   clr flag
    8046 050346 012737  030000  177776           mov #30000,@#177776
    8047 050354 012701  000026                   mov #26,r1
    8048 050360 012703  177606                   mov #177606,r3            ; original 610
    8049 050364 012704  000021                   mov #21,r4
    8050 050370 004767  000060                   jsr pc,ts11
    8051 050374 012737  000000  177776           mov #0,@#177776
    8052 050402 012701  000023                   mov #23,r1
    8053 050406 012703  172306                   mov #172306,r3            ; original 310
    8054 050412 012704  000024                   mov #24,r4
    8055 050416 004767  000032                   jsr pc,ts11
    8056 050422 012737  010000  177776           mov #10000,@#177776
    8057 050430 012701  000025                   mov #25,r1
    8058 050434 012703  172206                   mov #172206,r3            ; original 210
    8059 050440 012704  000022                   mov #22,r4
    8060 050444 004767  000004                   jsr pc,ts11
    8061 050450 000167  000134                   jmp t11fin
    8062                                ;
    8063                                ts11:
    8064 050454 004767  000642                   jsr pc,mmu
    8065 050460 010137  172516                   mov r1,@#172516
    8066 050464 012713  077400                   mov #77400,(r3)
    8067 050470 012702  077774                   mov #77774,r2             ; original 100000
    8068 050474 012767  000001  001132           mov #1,flag
    8069 050502 012737  000001  177572           mov #1,@#177572
    8070 050510 106522                           mfpd (r2)+
    8071 050512 022767  000000  001114           cmp #0,flag
    8072 050520 001404                           beq 1$
    8073                                         error
       1 001362                         ..n      = ..n + 1
       2 050522 012737  001362  177570           mov #..n,@#ddisp
       3 050530 000000                           halt
    8074                                1$:
    8075 050532 010437  172516                   mov r4,@#172516
    8076 050536 012702  077774                   mov #77774,r2             ; original 100000
    8077 050542 012767  000001  001064           mov #1,flag
    8078 050550 012737  000001  177572           mov #1,@#177572
    8079 050556 106522                           mfpd (r2)+
    8080 050560 005726                           tst (sp)+
    8081 050562 022767  000001  001044           cmp #1,flag
    8082 050570 001404                           beq 2$
    8083                                         error
       1 001363                         ..n      = ..n + 1
       2 050572 012737  001363  177570           mov #..n,@#ddisp
       3 050600 000000                           halt
    8084                                2$:
    8085 050602 005067  001026                   clr flag
    8086 050606 000207                           rts pc
    8087                                ;
    8088                                t11fin:
    8089                                ;
    8090                                ;
    8091                                ;
    8092                                tstm21:
    8093 050610 005037  177572                   clr @#177572
    8094 050614 012737  051474  000250           mov #mmutrp,@#250
    8095 050622 005067  001006                   clr flag
    8096 050626 005037  177776                   clr @#177776
    8097 050632 004767  000464                   jsr pc,mmu
    8098 050636 012737  000000  172516           mov #0,@#172516
    8099 050644 012703  051040                   mov #parad1,r3
    8100 050650 012701  051072                   mov #parva1,r1
    8101                                1$:
    8102 050654 012133                           mov (r1)+,@(r3)+
    8103 050656 021127  000333                   cmp (r1),#333
    8104 050662 001374                           bne 1$
    8105 050664 012703  051156                   mov #phy1,r3
    8106 050670 012701  051124                   mov #vir1,r1
    8107 050674 012702  051210                   mov #mode1,r2
    8108                                2$:
    8109 050700 012237  177776                   mov (r2)+,@#177776
    8110 050704 013305                           mov @(r3)+,r5
    8111 050706 012737  000001  177572           mov #1,@#177572
    8112 050714 006531                           mfpi @(r1)+
    8113 050716 012604                           mov (sp)+,r4
    8114 050720 005037  177572                   clr @#177572
    8115 050724 020504                           cmp r5,r4
    8116 050726 001404                           beq 3$
    8117                                         error
       1 001364                         ..n      = ..n + 1
       2 050730 012737  001364  177570           mov #..n,@#ddisp
       3 050736 000000                           halt
    8118                                3$:
    8119 050740 021327  000111                   cmp (r3),#111
    8120 050744 001355                           bne 2$
    8121 050746 005203                           inc r3
    8122 050750 005203                           inc r3
    8123 050752 005201                           inc r1
    8124 050754 005201                           inc r1
    8125 050756 005202                           inc r2
    8126 050760 005202                           inc r2
    8127 050762 012237  177776                   mov (r2)+,@#177776
    8128 050766 013305                           mov @(r3)+,r5
    8129 050770 012737  000007  172516           mov #7,@#172516
    8130 050776 012737  000001  177572           mov #1,@#177572
    8131 051004 106531                           mfpd @(r1)+
    8132 051006 012604                           mov (sp)+,r4
    8133 051010 005037  177572                   clr @#177572
    8134 051014 005037  172516                   clr @#172516
    8135 051020 020504                           cmp r5,r4
    8136 051022 001404                           beq 4$
    8137                                         error
       1 001365                         ..n      = ..n + 1
       2 051024 012737  001365  177570           mov #..n,@#ddisp
       3 051032 000000                           halt
    8138                                4$:
    8139 051034 000167  000202                   jmp t13fin
    8140                                
    8141                                parad1:
    8142 051040 172240                           .word 172240
    8143 051042 177642                           .word 177642
    8144 051044 172252                           .word 172252
    8145 051046 177640                           .word 177640
    8146 051050 172242                           .word 172242
    8147 051052 172254                           .word 172254
    8148 051054 177652                           .word 177652
    8149 051056 177644                           .word 177644
    8150 051060 172246                           .word 172246
    8151 051062 177654                           .word 177654
    8152 051064 172250                           .word 172250
    8153 051066 177660                           .word 177660
    8154 051070 000333                           .word 333
    8155                                
    8156                                parva1:
    8157 051072 000000                           .word 0
    8158 051074 000010                           .word 10
    8159 051076 177777                           .word 177777
    8160 051100 177601                           .word 177601
    8161 051102 000010                           .word 10
    8162 051104 000052                           .word 52
    8163 051106 000070                           .word 70
    8164 051110 000010                           .word 10
    8165 051112 000010                           .word 10
    8166 051114 000060                           .word 60
    8167 051116 000000                           .word 0
    8168 051120 000010                           .word 10
    8169 051122 000333                           .word 333
    8170                                
    8171                                vir1:
    8172 051124 000000                           .word 0
    8173 051126 025000                           .word 25000
    8174 051130 135224                           .word 135224
    8175 051132 017700                           .word 17700
    8176 051134 033000                           .word 33000
    8177 051136 145252                           .word 145252
    8178 051140 121000                           .word 121000
    8179 051142 043000                           .word 43000
    8180 051144 075000                           .word 75000
    8181 051146 142000                           .word 142000
    8182 051150 117700                           .word 117700
    8183 051152 000111                           .word 111
    8184 051154 007000                           .word 7000
    8185                                
    8186                                phy1:
    8187 051156 000000                           .word 0
    8188 051160 006000                           .word 6000
    8189 051162 015124                           .word 15124
    8190 051164 000000                           .word 0
    8191 051166 014000                           .word 14000
    8192 051170 012452                           .word 12452
    8193 051172 010000                           .word 10000
    8194 051174 004000                           .word 4000
    8195 051176 016000                           .word 16000
    8196 051200 010000                           .word 10000
    8197 051202 017700                           .word 17700
    8198 051204 000111                           .word 111
    8199 051206 010000                           .word 10000
    8200                                
    8201                                mode1:
    8202 051210 010000                           .word 10000
    8203 051212 030000                           .word 30000
    8204 051214 010000                           .word 10000
    8205 051216 030000                           .word 30000
    8206 051220 010000                           .word 10000
    8207 051222 010000                           .word 10000
    8208 051224 030000                           .word 30000
    8209 051226 030000                           .word 30000
    8210 051230 010000                           .word 10000
    8211 051232 030000                           .word 30000
    8212 051234 010000                           .word 10000
    8213 051236 030000                           .word 30000
    8214 051240 030000                           .word 30000
    8215                                
    8216                                t13fin:
    8217                                ;
    8218                                ; end copy czkdkb0
    8219                                ;
    8220                                
    8221                                ;
    8222                                ; --------------------------------------------------------------------------------------------------
    8223                                ;
    8224 051242 012706  000776                   mov #stk, sp
    8225                                t14:
    8226 051246 005202                           inc r2
    8227 051250 005001                           clr r1
    8228 051252 012702  051640                   mov #hello, r2
    8229                                l1:
    8230 051256 105737  177564                   tstb @#177564
    8231 051262 100375                           bpl l1
    8232 051264 112203                           movb (r2)+,r3
    8233 051266 001002                           bne l2
    8234 051270 000137  001000                   jmp @#st
    8235                                l2:
    8236 051274 110337  177566                   movb r3, @#177566
    8237 051300 000137  051256                   jmp @#l1
    8238                                ;
    8239                                ; data for czkdjb0
    8240                                ;
    8241 051304 000000                  sloc00:  .word 0
    8242 051306 000000                  sloc01:  .word 0
    8243 051310 000000                  dcount:  .word 0
    8244                                
    8245 051312 000000                  expdat:  .word 0
    8246                                
    8247 051314 000000                  seq:     .word 0
    8248 051316 000000                  sps:     .word 0
    8249 051320 000000                  spsj:    .word 0
    8250                                ;
    8251                                ; subroutines for czkdkb0
    8252                                ;
    8253                                mmu:
    8254 051322 010046                           mov r0,-(sp)
    8255 051324 010146                           mov r1,-(sp)
    8256 051326 010246                           mov r2,-(sp)
    8257 051330 012700  177600                   mov #177600,r0
    8258 051334 004767  000062                   jsr pc,pdr
    8259 051340 004767  000100                   jsr pc,par
    8260 051344 004767  000074                   jsr pc,par
    8261 051350 012700  172200                   mov #172200,r0
    8262 051354 004767  000042                   jsr pc,pdr
    8263 051360 004767  000060                   jsr pc,par
    8264 051364 004767  000054                   jsr pc,par
    8265 051370 004767  000026                   jsr pc,pdr
    8266 051374 004767  000044                   jsr pc,par
    8267 051400 004767  000040                   jsr pc,par
    8268 051404 012737  000027  172516           mov #27,@#172516
    8269 051412 012602                           mov (sp)+,r2
    8270 051414 012601                           mov (sp)+,r1
    8271 051416 012600                           mov (sp)+,r0
    8272 051420 000207                           rts pc
    8273                                ;
    8274                                ;
    8275                                ;
    8276                                pdr:
    8277 051422 005002                           clr r2
    8278                                pdr1:
    8279 051424 012720  077406                   mov #77406,(r0)+
    8280 051430 062702  000001                   add #1,r2
    8281 051434 022702  000020                   cmp #16.,r2
    8282 051440 001371                           bne pdr1
    8283 051442 000207                           rts pc
    8284                                ;
    8285                                ;
    8286                                ;
    8287                                par:
    8288 051444 005001                           clr r1
    8289                                par1:
    8290 051446 010120                           mov r1,(r0)+
    8291 051450 062701  000200                   add #200,r1
    8292 051454 022701  001600                   cmp #1600,r1
    8293 051460 001372                           bne par1
    8294 051462 012720  007600                   mov #7600,(r0)+               ; original 177600
    8295 051466 000207                           rts pc
    8296                                ;
    8297                                ;
    8298                                ;
    8299                                addtrp:
    8300 051470 005205                           inc r5
    8301 051472 000002                           rti
    8302                                ;
    8303                                ;
    8304                                ;
    8305                                mmutrp:
    8306 051474 026727  000134  000001           cmp flag,#1
    8307 051502 001404                           beq 1$
    8308                                         error
       1 001366                         ..n      = ..n + 1
       2 051504 012737  001366  177570           mov #..n,@#ddisp
       3 051512 000000                           halt
    8309                                1$:
    8310 051514 010046                           mov r0,-(sp)
    8311 051516 013700  177776                   mov @#177776,r0
    8312 051522 072027  177764                   ash #-14,r0
    8313 051526 020027  000002                   cmp r0,#2
    8314 051532 001001                           bne ok
    8315 051534 000411                           br notok
    8316                                ok:
    8317 051536 013700  177776                   mov @#177776,r0
    8318 051542 072027  000002                   ash #2,r0
    8319 051546 072027  177764                   ash #-14,r0
    8320 051552 020027  000002                   cmp r0,#2
    8321 051556 001002                           bne ok1
    8322                                notok:
    8323 051560 005066  000004                   clr 4(sp)
    8324                                ok1:
    8325 051564 013767  177572  000030           mov @#177572,savmr0
    8326 051572 013767  177574  000024           mov @#177574,savmr1
    8327 051600 013767  177576  000020           mov @#177576,savmr2
    8328 051606 005037  177572                   clr @#177572
    8329 051612 005067  000016                   clr flag
    8330 051616 012600                           mov (sp)+,r0
    8331 051620 000002                           rti
    8332                                ;
    8333                                ; czkdkb0 data
    8334                                ;
    8335 051622 000000                  savmr0:  .word 0
    8336 051624 000000                  savmr1:  .word 0
    8337 051626 000000                  savmr2:  .word 0
    8338 051630 000000                  savuse:  .word 0
    8339 051632 000000                  savsup:  .word 0
    8340 051634 000000                  flag:    .word 0
    8341                                ;
    8342                                ;
    8343                                ;
    8344 051636 000000                  count:   .word 0
    8345                                
    8346                                         .even
    8347                                
    8348 051640    110     145     154  hello:   .ascii /Hello, world: cpu t25/<15><12>
         051643    154     157     054  
         051646    040     167     157  
         051651    162     154     144  
         051654    072     040     143  
         051657    160     165     040  
         051662    164     062     065  
         051665    015     012          
    8349 051667    040     040     162           .ascii /  regfile/<15><12>
         051672    145     147     146  
         051675    151     154     145  
         051700    015     012          
    8350 051702    040     040     146           .ascii /  full mmu (without traps)/<15><12>
         051705    165     154     154  
         051710    040     155     155  
         051713    165     040     050  
         051716    167     151     164  
         051721    150     157     165  
         051724    164     040     164  
         051727    162     141     160  
         051732    163     051     015  
         051735    012                  
    8351 051736    040     040     160           .ascii /  psw on bus/<15><12>
         051741    163     167     040  
         051744    157     156     040  
         051747    142     165     163  
         051752    015     012          
    8352 051754    040     040     163           .ascii /  swab instr/<15><12>
         051757    167     141     142  
         051762    040     151     156  
         051765    163     164     162  
         051770    015     012          
    8353 051772    040     040     163           .ascii /  source in cvs/<15><12>
         051775    157     165     162  
         052000    143     145     040  
         052003    151     156     040  
         052006    143     166     163  
         052011    015     012          
    8354 052013    040     040     147           .ascii /  generic blockram/<15><12>
         052016    145     156     145  
         052021    162     151     143  
         052024    040     142     154  
         052027    157     143     153  
         052032    162     141     155  
         052035    015     012          
    8355 052037    040     040     163           .ascii /  single 50mhz clock/<15><12>
         052042    151     156     147  
         052045    154     145     040  
         052050    065     060     155  
         052053    150     172     040  
         052056    143     154     157  
         052061    143     153     015  
         052064    012                  
    8356 052065    040     040     143           .ascii /  csdr/<15><12>
         052070    163     144     162  
         052073    015     012          
    8357 052075    040     040     160           .ascii /  pir/<15><12>
         052100    151     162     015  
         052103    012                  
    8358 052104    040     015     012           .ascii / /<15><12>
    8359 052107    040     040     155           .ascii /  mfpi/<15><12>
         052112    146     160     151  
         052115    015     012          
    8360 052117    040     040     155           .ascii /  mfpd/<15><12>
         052122    146     160     144  
         052125    015     012          
    8361 052127    040     040     155           .ascii /  mtpi/<15><12>
         052132    164     160     151  
         052135    015     012          
    8362 052137    040     040     155           .ascii /  mtpd/<15><12>
         052142    164     160     144  
         052145    015     012          
    8363 052147    040     040     155           .ascii /  mfps/<15><12>
         052152    146     160     163  
         052155    015     012          
    8364 052157    040     040     155           .ascii /  mtps/<15><12>
         052162    164     160     163  
         052165    015     012          
    8365 052167    040     040     155           .ascii /  mfpt/<15><12>
         052172    146     160     164  
         052175    015     012          
    8366 052177    040     040     162           .ascii /  reset insn resets mmr0,mmr3,pir/<15><12>
         052202    145     163     145  
         052205    164     040     151  
         052210    156     163     156  
         052213    040     162     145  
         052216    163     145     164  
         052221    163     040     155  
         052224    155     162     060  
         052227    054     155     155  
         052232    162     063     054  
         052235    160     151     162  
         052240    015     012          
    8367 052242    040     015     012           .ascii / /<15><12>
    8368 052245    040     040     155           .ascii /  mul/<15><12>
         052250    165     154     015  
         052253    012                  
    8369 052254    040     040     144           .ascii /  div/<15><12>
         052257    151     166     015  
         052262    012                  
    8370 052263    040     040     141           .ascii /  ash/<15><12>
         052266    163     150     015  
         052271    012                  
    8371 052272    040     040     141           .ascii /  ashc/<15><12>
         052275    163     150     143  
         052300    015     012          
    8372 052302    040     040     170           .ascii /  xor/<15><12>
         052305    157     162     015  
         052310    012                  
    8373 052311    040     040     164           .ascii /  tstset/<15><12>
         052314    163     164     163  
         052317    145     164     015  
         052322    012                  
    8374 052323    040     040     167           .ascii /  wrtlck/<15><12>
         052326    162     164     154  
         052331    143     153     015  
         052334    012                  
    8375 052335    040     015     012           .ascii / /<15><12>
    8376 052340    040     040     162           .ascii /  recoded slu w. input,output,interrupts/<15><12>
         052343    145     143     157  
         052346    144     145     144  
         052351    040     163     154  
         052354    165     040     167  
         052357    056     040     151  
         052362    156     160     165  
         052365    164     054     157  
         052370    165     164     160  
         052373    165     164     054  
         052376    151     156     164  
         052401    145     162     162  
         052404    165     160     164  
         052407    163     015     012  
    8377 052412    040     040     153           .ascii /  kw11l w//interrupts/<15><12>
         052415    167     061     061  
         052420    154     040     167  
         052423    151     156     164  
         052426    145     162     162  
         052431    165     160     164  
         052434    163     015     012  
    8378 052437    040     040     167           .ascii /  wait insn waits until interrupt/<15><12>
         052442    141     151     164  
         052445    040     151     156  
         052450    163     156     040  
         052453    167     141     151  
         052456    164     163     040  
         052461    165     156     164  
         052464    151     154     040  
         052467    151     156     164  
         052472    145     162     162  
         052475    165     160     164  
         052500    015     012          
    8379 052502    040     040     143           .ascii /  cpu error register/<15><12>
         052505    160     165     040  
         052510    145     162     162  
         052513    157     162     040  
         052516    162     145     147  
         052521    151     163     164  
         052524    145     162     015  
         052527    012                  
    8380 052530    040     040     163           .ascii /  stack limit register/<15><12>
         052533    164     141     143  
         052536    153     040     154  
         052541    151     155     151  
         052544    164     040     162  
         052547    145     147     151  
         052552    163     164     145  
         052555    162     015     012  
    8381 052560    040     040     171           .ascii /  yellow stack traps/<15><12>
         052563    145     154     154  
         052566    157     167     040  
         052571    163     164     141  
         052574    143     153     040  
         052577    164     162     141  
         052602    160     163     015  
         052605    012                  
    8382 052606    040     040     162           .ascii /  red stack traps/<15><12>
         052611    145     144     040  
         052614    163     164     141  
         052617    143     153     040  
         052622    164     162     141  
         052625    160     163     015  
         052630    012                  
    8383 052631    040     040     063           .ascii /  32 Kbytes core/<15><12>
         052634    062     040     113  
         052637    142     171     164  
         052642    145     163     040  
         052645    143     157     162  
         052650    145     015     012  
    8384 052653    040     015     012           .ascii / /<15><12>
    8385 052656    040     040     164           .ascii /  t25 runs czkdjb0 tests 1-264 and modified czkdkb0 tests 1-17,21/<15><12>
         052661    062     065     040  
         052664    162     165     156  
         052667    163     040     143  
         052672    172     153     144  
         052675    152     142     060  
         052700    040     164     145  
         052703    163     164     163  
         052706    040     061     055  
         052711    062     066     064  
         052714    040     141     156  
         052717    144     040     155  
         052722    157     144     151  
         052725    146     151     145  
         052730    144     040     143  
         052733    172     153     144  
         052736    153     142     060  
         052741    040     164     145  
         052744    163     164     163  
         052747    040     061     055  
         052752    061     067     054  
         052755    062     061     015  
         052760    012                  
    8386 052761    040     040     164           .ascii /  t204 is disabled in this source/
         052764    062     060     064  
         052767    040     151     163  
         052772    040     144     151  
         052775    163     141     142  
         053000    154     145     144  
         053003    040     151     156  
         053006    040     164     150  
         053011    151     163     040  
         053014    163     157     165  
         053017    162     143     145  
    8387 053022    040     015     012           .asciz / /<15><12>
         053025    000                  
    8388                                
    8389                                         .even
    8390                                
    8391 053026    132     132     132  tothier: .ascii /ZZZZZZZZZZZZZZZZZZZZZZZZZZZZZZZZZZZZZZZZZZZZZZ/
         053031    132     132     132  
         053034    132     132     132  
         053037    132     132     132  
         053042    132     132     132  
         053045    132     132     132  
         053050    132     132     132  
         053053    132     132     132  
         053056    132     132     132  
         053061    132     132     132  
         053064    132     132     132  
         053067    132     132     132  
         053072    132     132     132  
         053075    132     132     132  
         053100    132     132     132  
         053103    132                  
    8391                                
