ARM GAS  C:\Users\DGILLI~1\AppData\Local\Temp\ccn8yxpS.s 			page 1


   1              		.syntax unified
   2              		.cpu cortex-m3
   3              		.fpu softvfp
   4              		.eabi_attribute 20, 1
   5              		.eabi_attribute 21, 1
   6              		.eabi_attribute 23, 3
   7              		.eabi_attribute 24, 1
   8              		.eabi_attribute 25, 1
   9              		.eabi_attribute 26, 1
  10              		.eabi_attribute 30, 1
  11              		.eabi_attribute 34, 1
  12              		.eabi_attribute 18, 4
  13              		.thumb
  14              		.file	"serialIO.c"
  15              		.text
  16              	.Ltext0:
  17              		.cfi_sections	.debug_frame
  18              		.section	.text.initSerial,"ax",%progbits
  19              		.align	2
  20              		.global	initSerial
  21              		.thumb
  22              		.thumb_func
  23              		.type	initSerial, %function
  24              	initSerial:
  25              	.LFB63:
  26              		.file 1 "serialIO.c"
   1:serialIO.c    **** /* ========================================
   2:serialIO.c    ****  *
   3:serialIO.c    ****  * Copyright Land Boards, LLC, 2016
   4:serialIO.c    ****  * All Rights Reserved
   5:serialIO.c    ****  * UNPUBLISHED, LICENSED SOFTWARE.
   6:serialIO.c    ****  *
   7:serialIO.c    ****  * CONFIDENTIAL AND PROPRIETARY INFORMATION
   8:serialIO.c    ****  * WHICH IS THE PROPERTY OF your company.
   9:serialIO.c    ****  *
  10:serialIO.c    ****  * ========================================
  11:serialIO.c    **** */
  12:serialIO.c    **** 
  13:serialIO.c    **** #include "project.h"
  14:serialIO.c    **** #undef DEBUG_ON_PC
  15:serialIO.c    **** #include "serialIO.h"
  16:serialIO.c    **** 
  17:serialIO.c    **** ////////////////////////////////////////////////////////////////
  18:serialIO.c    **** // void initSerial(void)
  19:serialIO.c    **** ////////////////////////////////////////////////////////////////
  20:serialIO.c    **** 
  21:serialIO.c    **** void initSerial(void)
  22:serialIO.c    **** {
  27              		.loc 1 22 0
  28              		.cfi_startproc
  29              		@ args = 0, pretend = 0, frame = 0
  30              		@ frame_needed = 0, uses_anonymous_args = 0
  31 0000 08B5     		push	{r3, lr}
  32              		.cfi_def_cfa_offset 8
  33              		.cfi_offset 3, -8
  34              		.cfi_offset 14, -4
  23:serialIO.c    ****     UART_1_Start();
ARM GAS  C:\Users\DGILLI~1\AppData\Local\Temp\ccn8yxpS.s 			page 2


  35              		.loc 1 23 0
  36 0002 FFF7FEFF 		bl	UART_1_Start
  37              	.LVL0:
  38 0006 08BD     		pop	{r3, pc}
  39              		.cfi_endproc
  40              	.LFE63:
  41              		.size	initSerial, .-initSerial
  42              		.section	.text.outSingleChar,"ax",%progbits
  43              		.align	2
  44              		.global	outSingleChar
  45              		.thumb
  46              		.thumb_func
  47              		.type	outSingleChar, %function
  48              	outSingleChar:
  49              	.LFB64:
  24:serialIO.c    **** }
  25:serialIO.c    **** 
  26:serialIO.c    **** ////////////////////////////////////////////////////////////////
  27:serialIO.c    **** // outSingleChar(char)
  28:serialIO.c    **** ////////////////////////////////////////////////////////////////
  29:serialIO.c    **** 
  30:serialIO.c    **** void outSingleChar(char8 txChar)
  31:serialIO.c    **** {
  50              		.loc 1 31 0
  51              		.cfi_startproc
  52              		@ args = 0, pretend = 0, frame = 0
  53              		@ frame_needed = 0, uses_anonymous_args = 0
  54              	.LVL1:
  55 0000 10B5     		push	{r4, lr}
  56              		.cfi_def_cfa_offset 8
  57              		.cfi_offset 4, -8
  58              		.cfi_offset 14, -4
  59 0002 0446     		mov	r4, r0
  60              	.LVL2:
  61              	.L4:
  32:serialIO.c    ****     uint8 txStat;
  33:serialIO.c    ****     do
  34:serialIO.c    ****     {
  35:serialIO.c    ****         txStat = UART_1_ReadTxStatus();
  62              		.loc 1 35 0 discriminator 1
  63 0004 FFF7FEFF 		bl	UART_1_ReadTxStatus
  64              	.LVL3:
  36:serialIO.c    ****     }
  37:serialIO.c    ****     while (txStat & UART_1_TX_STS_FIFO_FULL);
  65              		.loc 1 37 0 discriminator 1
  66 0008 10F0040F 		tst	r0, #4
  67 000c FAD1     		bne	.L4
  38:serialIO.c    ****     UART_1_PutChar(txChar);
  68              		.loc 1 38 0
  69 000e 2046     		mov	r0, r4
  70              	.LVL4:
  71 0010 FFF7FEFF 		bl	UART_1_PutChar
  72              	.LVL5:
  73 0014 10BD     		pop	{r4, pc}
  74              		.cfi_endproc
  75              	.LFE64:
  76              		.size	outSingleChar, .-outSingleChar
ARM GAS  C:\Users\DGILLI~1\AppData\Local\Temp\ccn8yxpS.s 			page 3


  77 0016 00BF     		.section	.text.writeLineNoLF,"ax",%progbits
  78              		.align	2
  79              		.global	writeLineNoLF
  80              		.thumb
  81              		.thumb_func
  82              		.type	writeLineNoLF, %function
  83              	writeLineNoLF:
  84              	.LFB65:
  39:serialIO.c    **** }
  40:serialIO.c    **** 
  41:serialIO.c    **** ////////////////////////////////////////////////////////////////
  42:serialIO.c    **** // void writeLineNoLF(char * lineBuffer)
  43:serialIO.c    **** ////////////////////////////////////////////////////////////////
  44:serialIO.c    **** 
  45:serialIO.c    **** void writeLineNoLF(char * lineBuffer)
  46:serialIO.c    **** {
  85              		.loc 1 46 0
  86              		.cfi_startproc
  87              		@ args = 0, pretend = 0, frame = 0
  88              		@ frame_needed = 0, uses_anonymous_args = 0
  89              	.LVL6:
  90 0000 10B5     		push	{r4, lr}
  91              		.cfi_def_cfa_offset 8
  92              		.cfi_offset 4, -8
  93              		.cfi_offset 14, -4
  94 0002 0446     		mov	r4, r0
  95              	.LVL7:
  47:serialIO.c    ****     char * linePtr;
  48:serialIO.c    ****     linePtr = lineBuffer;
  49:serialIO.c    ****     while (*linePtr != 0)
  96              		.loc 1 49 0
  97 0004 02E0     		b	.L7
  98              	.LVL8:
  99              	.L8:
  50:serialIO.c    ****         outSingleChar(*linePtr++);
 100              		.loc 1 50 0
 101 0006 0134     		adds	r4, r4, #1
 102              	.LVL9:
 103 0008 FFF7FEFF 		bl	outSingleChar
 104              	.LVL10:
 105              	.L7:
  49:serialIO.c    ****         outSingleChar(*linePtr++);
 106              		.loc 1 49 0
 107 000c 2078     		ldrb	r0, [r4]	@ zero_extendqisi2
 108 000e 0028     		cmp	r0, #0
 109 0010 F9D1     		bne	.L8
  51:serialIO.c    **** }
 110              		.loc 1 51 0
 111 0012 10BD     		pop	{r4, pc}
 112              		.cfi_endproc
 113              	.LFE65:
 114              		.size	writeLineNoLF, .-writeLineNoLF
 115              		.section	.text.writeLine,"ax",%progbits
 116              		.align	2
 117              		.global	writeLine
 118              		.thumb
 119              		.thumb_func
ARM GAS  C:\Users\DGILLI~1\AppData\Local\Temp\ccn8yxpS.s 			page 4


 120              		.type	writeLine, %function
 121              	writeLine:
 122              	.LFB66:
  52:serialIO.c    **** 
  53:serialIO.c    **** ////////////////////////////////////////////////////////////////
  54:serialIO.c    **** // void writeLine(char *)
  55:serialIO.c    **** ////////////////////////////////////////////////////////////////
  56:serialIO.c    **** 
  57:serialIO.c    **** void writeLine(char * lineBuffer)
  58:serialIO.c    **** {
 123              		.loc 1 58 0
 124              		.cfi_startproc
 125              		@ args = 0, pretend = 0, frame = 0
 126              		@ frame_needed = 0, uses_anonymous_args = 0
 127              	.LVL11:
 128 0000 08B5     		push	{r3, lr}
 129              		.cfi_def_cfa_offset 8
 130              		.cfi_offset 3, -8
 131              		.cfi_offset 14, -4
  59:serialIO.c    ****    writeLineNoLF(lineBuffer);
 132              		.loc 1 59 0
 133 0002 FFF7FEFF 		bl	writeLineNoLF
 134              	.LVL12:
  60:serialIO.c    ****    outSingleChar(0x0d);
 135              		.loc 1 60 0
 136 0006 0D20     		movs	r0, #13
 137 0008 FFF7FEFF 		bl	outSingleChar
 138              	.LVL13:
  61:serialIO.c    ****    outSingleChar(0x0a);
 139              		.loc 1 61 0
 140 000c 0A20     		movs	r0, #10
 141 000e FFF7FEFF 		bl	outSingleChar
 142              	.LVL14:
 143 0012 08BD     		pop	{r3, pc}
 144              		.cfi_endproc
 145              	.LFE66:
 146              		.size	writeLine, .-writeLine
 147              		.section	.text.getSingleChar,"ax",%progbits
 148              		.align	2
 149              		.global	getSingleChar
 150              		.thumb
 151              		.thumb_func
 152              		.type	getSingleChar, %function
 153              	getSingleChar:
 154              	.LFB67:
  62:serialIO.c    **** }
  63:serialIO.c    **** 
  64:serialIO.c    **** ////////////////////////////////////////////////////////////////
  65:serialIO.c    **** // char8 getSingleChar(void)
  66:serialIO.c    **** ////////////////////////////////////////////////////////////////
  67:serialIO.c    **** 
  68:serialIO.c    **** char8 getSingleChar(void)
  69:serialIO.c    **** {
 155              		.loc 1 69 0
 156              		.cfi_startproc
 157              		@ args = 0, pretend = 0, frame = 0
 158              		@ frame_needed = 0, uses_anonymous_args = 0
ARM GAS  C:\Users\DGILLI~1\AppData\Local\Temp\ccn8yxpS.s 			page 5


 159 0000 08B5     		push	{r3, lr}
 160              		.cfi_def_cfa_offset 8
 161              		.cfi_offset 3, -8
 162              		.cfi_offset 14, -4
 163              	.L13:
  70:serialIO.c    ****     uint8 rxStat;
  71:serialIO.c    ****     char8 rxChar;       /* Data received from the Serial port */
  72:serialIO.c    ****     while(1)
  73:serialIO.c    ****     {
  74:serialIO.c    ****         rxStat = UART_1_ReadRxStatus(); 
 164              		.loc 1 74 0
 165 0002 FFF7FEFF 		bl	UART_1_ReadRxStatus
 166              	.LVL15:
  75:serialIO.c    ****         if (rxStat & UART_1_RX_STS_FIFO_NOTEMPTY)
 167              		.loc 1 75 0
 168 0006 10F0200F 		tst	r0, #32
 169 000a FAD0     		beq	.L13
  76:serialIO.c    ****         {
  77:serialIO.c    ****             rxChar = UART_1_GetChar();
 170              		.loc 1 77 0
 171 000c FFF7FEFF 		bl	UART_1_GetChar
 172              	.LVL16:
  78:serialIO.c    ****             return rxChar;
  79:serialIO.c    ****         }
  80:serialIO.c    ****     }
  81:serialIO.c    **** }
 173              		.loc 1 81 0
 174 0010 08BD     		pop	{r3, pc}
 175              		.cfi_endproc
 176              	.LFE67:
 177              		.size	getSingleChar, .-getSingleChar
 178 0012 00BF     		.section	.text.readLine,"ax",%progbits
 179              		.align	2
 180              		.global	readLine
 181              		.thumb
 182              		.thumb_func
 183              		.type	readLine, %function
 184              	readLine:
 185              	.LFB68:
  82:serialIO.c    **** 
  83:serialIO.c    **** ////////////////////////////////////////////////////////////////
  84:serialIO.c    **** // uint8 readLine(char * lineBuffer)
  85:serialIO.c    **** ////////////////////////////////////////////////////////////////
  86:serialIO.c    **** 
  87:serialIO.c    **** uint8 readLine(char * lineBuffer)
  88:serialIO.c    **** {
 186              		.loc 1 88 0
 187              		.cfi_startproc
 188              		@ args = 0, pretend = 0, frame = 0
 189              		@ frame_needed = 0, uses_anonymous_args = 0
 190              	.LVL17:
 191 0000 F8B5     		push	{r3, r4, r5, r6, r7, lr}
 192              		.cfi_def_cfa_offset 24
 193              		.cfi_offset 3, -24
 194              		.cfi_offset 4, -20
 195              		.cfi_offset 5, -16
 196              		.cfi_offset 6, -12
ARM GAS  C:\Users\DGILLI~1\AppData\Local\Temp\ccn8yxpS.s 			page 6


 197              		.cfi_offset 7, -8
 198              		.cfi_offset 14, -4
 199 0002 0746     		mov	r7, r0
 200              	.LVL18:
  89:serialIO.c    ****     uint8 byteCount=0;
  90:serialIO.c    ****     char * linePtr;
  91:serialIO.c    ****     uint8 rxStat;
  92:serialIO.c    ****     char8 rxChar;       /* Data received from the Serial port */
  93:serialIO.c    ****     uint8 endOfLine = 0;
 201              		.loc 1 93 0
 202 0004 0026     		movs	r6, #0
  89:serialIO.c    ****     uint8 byteCount=0;
 203              		.loc 1 89 0
 204 0006 3546     		mov	r5, r6
 205              	.LVL19:
 206              	.L23:
  94:serialIO.c    ****     linePtr = lineBuffer;
  95:serialIO.c    ****     do
  96:serialIO.c    ****     {
  97:serialIO.c    ****         rxStat = UART_1_ReadRxStatus(); 
 207              		.loc 1 97 0
 208 0008 FFF7FEFF 		bl	UART_1_ReadRxStatus
 209              	.LVL20:
  98:serialIO.c    ****         if (rxStat & UART_1_RX_STS_FIFO_NOTEMPTY)
 210              		.loc 1 98 0
 211 000c 10F0200F 		tst	r0, #32
 212 0010 2CD0     		beq	.L16
  99:serialIO.c    ****         {
 100:serialIO.c    ****             rxChar = UART_1_GetChar();
 213              		.loc 1 100 0
 214 0012 FFF7FEFF 		bl	UART_1_GetChar
 215              	.LVL21:
 216 0016 0446     		mov	r4, r0
 217              	.LVL22:
 101:serialIO.c    ****             if (rxChar == 0x0a || rxChar == 0x0d)
 218              		.loc 1 101 0
 219 0018 0A28     		cmp	r0, #10
 220 001a 01D0     		beq	.L17
 221              		.loc 1 101 0 is_stmt 0 discriminator 1
 222 001c 0D28     		cmp	r0, #13
 223 001e 07D1     		bne	.L18
 224              	.L17:
 102:serialIO.c    ****             {
 103:serialIO.c    ****                 outSingleChar(rxChar);
 225              		.loc 1 103 0 is_stmt 1
 226 0020 2046     		mov	r0, r4
 227              	.LVL23:
 228 0022 FFF7FEFF 		bl	outSingleChar
 229              	.LVL24:
 104:serialIO.c    ****                 endOfLine = 1;
 105:serialIO.c    ****                 *linePtr = 0;
 230              		.loc 1 105 0
 231 0026 0023     		movs	r3, #0
 232 0028 3B70     		strb	r3, [r7]
 106:serialIO.c    ****                 byteCount++;
 233              		.loc 1 106 0
 234 002a 0135     		adds	r5, r5, #1
ARM GAS  C:\Users\DGILLI~1\AppData\Local\Temp\ccn8yxpS.s 			page 7


 235              	.LVL25:
 236 002c E8B2     		uxtb	r0, r5
 107:serialIO.c    ****                 return byteCount;
 237              		.loc 1 107 0
 238 002e F8BD     		pop	{r3, r4, r5, r6, r7, pc}
 239              	.LVL26:
 240              	.L18:
 108:serialIO.c    ****             }
 109:serialIO.c    ****             else if ((rxChar == 0x08) ||(rxChar == 0x7f))
 241              		.loc 1 109 0
 242 0030 0828     		cmp	r0, #8
 243 0032 01D0     		beq	.L20
 244              		.loc 1 109 0 is_stmt 0 discriminator 1
 245 0034 7F28     		cmp	r0, #127
 246 0036 0DD1     		bne	.L21
 247              	.L20:
 110:serialIO.c    ****             {
 111:serialIO.c    ****                 if (byteCount > 0)
 248              		.loc 1 111 0 is_stmt 1
 249 0038 C5B1     		cbz	r5, .L16
 112:serialIO.c    ****                 {
 113:serialIO.c    ****                     outSingleChar(0x08);
 250              		.loc 1 113 0
 251 003a 0820     		movs	r0, #8
 252              	.LVL27:
 253 003c FFF7FEFF 		bl	outSingleChar
 254              	.LVL28:
 114:serialIO.c    ****                     outSingleChar(' ');
 255              		.loc 1 114 0
 256 0040 2020     		movs	r0, #32
 257 0042 FFF7FEFF 		bl	outSingleChar
 258              	.LVL29:
 115:serialIO.c    ****                     outSingleChar(0x08);
 259              		.loc 1 115 0
 260 0046 0820     		movs	r0, #8
 261 0048 FFF7FEFF 		bl	outSingleChar
 262              	.LVL30:
 116:serialIO.c    ****                     linePtr--;
 263              		.loc 1 116 0
 264 004c 013F     		subs	r7, r7, #1
 265              	.LVL31:
 117:serialIO.c    ****                     byteCount--;
 266              		.loc 1 117 0
 267 004e 013D     		subs	r5, r5, #1
 268              	.LVL32:
 269 0050 EDB2     		uxtb	r5, r5
 270              	.LVL33:
 271 0052 0BE0     		b	.L16
 272              	.LVL34:
 273              	.L21:
 118:serialIO.c    ****                 }
 119:serialIO.c    ****             }
 120:serialIO.c    ****             else if (byteCount > MAXLINELENGTH-2)
 274              		.loc 1 120 0
 275 0054 4E2D     		cmp	r5, #78
 276 0056 03D9     		bls	.L22
 277              	.LVL35:
ARM GAS  C:\Users\DGILLI~1\AppData\Local\Temp\ccn8yxpS.s 			page 8


 121:serialIO.c    ****             {
 122:serialIO.c    ****                 endOfLine = 1;
 123:serialIO.c    ****                 *linePtr = 0;
 278              		.loc 1 123 0
 279 0058 0023     		movs	r3, #0
 280 005a 3B70     		strb	r3, [r7]
 122:serialIO.c    ****                 *linePtr = 0;
 281              		.loc 1 122 0
 282 005c 0126     		movs	r6, #1
 283 005e 05E0     		b	.L16
 284              	.LVL36:
 285              	.L22:
 124:serialIO.c    ****             }
 125:serialIO.c    ****             else
 126:serialIO.c    ****             {
 127:serialIO.c    ****                 outSingleChar(rxChar);
 286              		.loc 1 127 0
 287 0060 FFF7FEFF 		bl	outSingleChar
 288              	.LVL37:
 128:serialIO.c    ****                 *linePtr = rxChar;
 289              		.loc 1 128 0
 290 0064 07F8014B 		strb	r4, [r7], #1
 291              	.LVL38:
 129:serialIO.c    ****                 linePtr++;
 130:serialIO.c    ****                 byteCount++;
 292              		.loc 1 130 0
 293 0068 0135     		adds	r5, r5, #1
 294              	.LVL39:
 295 006a EDB2     		uxtb	r5, r5
 296              	.LVL40:
 297              	.L16:
 131:serialIO.c    ****             }
 132:serialIO.c    ****         }    
 133:serialIO.c    ****     }
 134:serialIO.c    ****     while(endOfLine == 0);
 298              		.loc 1 134 0
 299 006c 002E     		cmp	r6, #0
 300 006e CBD0     		beq	.L23
 135:serialIO.c    ****     return byteCount;
 301              		.loc 1 135 0
 302 0070 2846     		mov	r0, r5
 136:serialIO.c    **** }
 303              		.loc 1 136 0
 304 0072 F8BD     		pop	{r3, r4, r5, r6, r7, pc}
 305              		.cfi_endproc
 306              	.LFE68:
 307              		.size	readLine, .-readLine
 308              		.text
 309              	.Letext0:
 310              		.file 2 "c:\\program files (x86)\\cypress\\psoc creator\\4.0\\psoc creator\\import\\gnu\\arm\\4.9.
 311              		.file 3 "c:\\program files (x86)\\cypress\\psoc creator\\4.0\\psoc creator\\import\\gnu\\arm\\4.9.
 312              		.file 4 "Generated_Source\\PSoC5/cytypes.h"
 313              		.file 5 "Generated_Source\\PSoC5/UART_1.h"
 314              		.file 6 "Generated_Source\\PSoC5/core_cm3.h"