ARM GAS  C:\Users\DGILLI~1\AppData\Local\Temp\cc3PgkPV.s 			page 1


   1              		.syntax unified
   2              		.cpu cortex-m3
   3              		.fpu softvfp
   4              		.eabi_attribute 20, 1
   5              		.eabi_attribute 21, 1
   6              		.eabi_attribute 23, 3
   7              		.eabi_attribute 24, 1
   8              		.eabi_attribute 25, 1
   9              		.eabi_attribute 26, 1
  10              		.eabi_attribute 30, 1
  11              		.eabi_attribute 34, 1
  12              		.eabi_attribute 18, 4
  13              		.thumb
  14              		.file	"stringConvs.c"
  15              		.text
  16              	.Ltext0:
  17              		.cfi_sections	.debug_frame
  18              		.section	.text.findInString,"ax",%progbits
  19              		.align	2
  20              		.global	findInString
  21              		.thumb
  22              		.thumb_func
  23              		.type	findInString, %function
  24              	findInString:
  25              	.LFB63:
  26              		.file 1 "stringConvs.c"
   1:stringConvs.c **** /* ========================================
   2:stringConvs.c ****  *
   3:stringConvs.c ****  * Copyright Land Boards, LLC, 2016
   4:stringConvs.c ****  * All Rights Reserved
   5:stringConvs.c ****  * UNPUBLISHED, LICENSED SOFTWARE.
   6:stringConvs.c ****  *
   7:stringConvs.c ****  * CONFIDENTIAL AND PROPRIETARY INFORMATION
   8:stringConvs.c ****  * WHICH IS THE PROPERTY OF your company.
   9:stringConvs.c ****  *
  10:stringConvs.c ****  * ========================================
  11:stringConvs.c **** */
  12:stringConvs.c **** 
  13:stringConvs.c **** #include "project.h"
  14:stringConvs.c **** #include "proEnv.h"
  15:stringConvs.c **** #undef DEBUG_ON_PC
  16:stringConvs.c **** #include "stringConvs.h"
  17:stringConvs.c **** 
  18:stringConvs.c **** ////////////////////////////////////////////////////////////////
  19:stringConvs.c **** // findInString
  20:stringConvs.c **** ////////////////////////////////////////////////////////////////
  21:stringConvs.c **** 
  22:stringConvs.c **** int8 findInString(char * stringToParse, char valToFind)
  23:stringConvs.c **** {
  27              		.loc 1 23 0
  28              		.cfi_startproc
  29              		@ args = 0, pretend = 0, frame = 0
  30              		@ frame_needed = 0, uses_anonymous_args = 0
  31              		@ link register save eliminated.
  32              	.LVL0:
  24:stringConvs.c ****     char * stringPointer = stringToParse;
  25:stringConvs.c ****     int8 offset = 0;
ARM GAS  C:\Users\DGILLI~1\AppData\Local\Temp\cc3PgkPV.s 			page 2


  33              		.loc 1 25 0
  34 0000 0023     		movs	r3, #0
  26:stringConvs.c ****     //writeLine("looking for");
  27:stringConvs.c ****     //writeLine(stringToParse);
  28:stringConvs.c ****     while (stringPointer[offset] != 0)
  35              		.loc 1 28 0
  36 0002 05E0     		b	.L2
  37              	.LVL1:
  38              	.L5:
  29:stringConvs.c ****     {
  30:stringConvs.c ****         if (stringPointer[offset] == valToFind)
  39              		.loc 1 30 0
  40 0004 8A42     		cmp	r2, r1
  41 0006 01D1     		bne	.L3
  31:stringConvs.c ****             return(offset);
  42              		.loc 1 31 0
  43 0008 D8B2     		uxtb	r0, r3
  44              	.LVL2:
  45 000a 06E0     		b	.L4
  46              	.LVL3:
  47              	.L3:
  32:stringConvs.c ****         offset++;
  48              		.loc 1 32 0
  49 000c 0133     		adds	r3, r3, #1
  50              	.LVL4:
  51 000e DBB2     		uxtb	r3, r3
  52              	.LVL5:
  53              	.L2:
  28:stringConvs.c ****     {
  54              		.loc 1 28 0
  55 0010 5AB2     		sxtb	r2, r3
  56 0012 825C     		ldrb	r2, [r0, r2]	@ zero_extendqisi2
  57 0014 002A     		cmp	r2, #0
  58 0016 F5D1     		bne	.L5
  33:stringConvs.c ****     }
  34:stringConvs.c ****     return(-1);
  59              		.loc 1 34 0
  60 0018 FF20     		movs	r0, #255
  61              	.LVL6:
  62              	.L4:
  35:stringConvs.c **** }
  63              		.loc 1 35 0
  64 001a 40B2     		sxtb	r0, r0
  65 001c 7047     		bx	lr
  66              		.cfi_endproc
  67              	.LFE63:
  68              		.size	findInString, .-findInString
  69 001e 00BF     		.section	.text.charToNibble,"ax",%progbits
  70              		.align	2
  71              		.global	charToNibble
  72              		.thumb
  73              		.thumb_func
  74              		.type	charToNibble, %function
  75              	charToNibble:
  76              	.LFB64:
  36:stringConvs.c **** 
  37:stringConvs.c **** ////////////////////////////////////////////////////////////////
ARM GAS  C:\Users\DGILLI~1\AppData\Local\Temp\cc3PgkPV.s 			page 3


  38:stringConvs.c **** // uint8 charToNibble(char)
  39:stringConvs.c **** ////////////////////////////////////////////////////////////////
  40:stringConvs.c **** 
  41:stringConvs.c **** uint8 charToNibble(char digitChar)
  42:stringConvs.c **** {
  77              		.loc 1 42 0
  78              		.cfi_startproc
  79              		@ args = 0, pretend = 0, frame = 0
  80              		@ frame_needed = 0, uses_anonymous_args = 0
  81              		@ link register save eliminated.
  82              	.LVL7:
  43:stringConvs.c ****     //writeLine("charToNibble: got here");
  44:stringConvs.c ****     if (digitChar >= '0' && digitChar <= '9')
  83              		.loc 1 44 0
  84 0000 A0F13003 		sub	r3, r0, #48
  85 0004 DBB2     		uxtb	r3, r3
  86 0006 092B     		cmp	r3, #9
  87 0008 0FD9     		bls	.L9
  45:stringConvs.c ****         return(digitChar-'0');
  46:stringConvs.c ****     else if (digitChar >= 'a' && digitChar <= 'f')
  88              		.loc 1 46 0
  89 000a A0F16103 		sub	r3, r0, #97
  90 000e DBB2     		uxtb	r3, r3
  91 0010 052B     		cmp	r3, #5
  92 0012 02D8     		bhi	.L8
  47:stringConvs.c ****        return(digitChar-'a'+10);
  93              		.loc 1 47 0
  94 0014 5738     		subs	r0, r0, #87
  95              	.LVL8:
  96 0016 C0B2     		uxtb	r0, r0
  97 0018 7047     		bx	lr
  98              	.LVL9:
  99              	.L8:
  48:stringConvs.c ****     else if (digitChar >= 'A' && digitChar <= 'F')
 100              		.loc 1 48 0
 101 001a A0F14103 		sub	r3, r0, #65
 102 001e DBB2     		uxtb	r3, r3
 103 0020 052B     		cmp	r3, #5
 104 0022 04D8     		bhi	.L10
  49:stringConvs.c ****        return(digitChar-'A'+10);
 105              		.loc 1 49 0
 106 0024 3738     		subs	r0, r0, #55
 107              	.LVL10:
 108 0026 C0B2     		uxtb	r0, r0
 109 0028 7047     		bx	lr
 110              	.LVL11:
 111              	.L9:
  45:stringConvs.c ****     else if (digitChar >= 'a' && digitChar <= 'f')
 112              		.loc 1 45 0
 113 002a 1846     		mov	r0, r3
 114              	.LVL12:
 115 002c 7047     		bx	lr
 116              	.LVL13:
 117              	.L10:
  50:stringConvs.c ****     return(0);
 118              		.loc 1 50 0
 119 002e 0020     		movs	r0, #0
ARM GAS  C:\Users\DGILLI~1\AppData\Local\Temp\cc3PgkPV.s 			page 4


 120              	.LVL14:
  51:stringConvs.c **** }
 121              		.loc 1 51 0
 122 0030 7047     		bx	lr
 123              		.cfi_endproc
 124              	.LFE64:
 125              		.size	charToNibble, .-charToNibble
 126 0032 00BF     		.section	.text.stringToLong,"ax",%progbits
 127              		.align	2
 128              		.global	stringToLong
 129              		.thumb
 130              		.thumb_func
 131              		.type	stringToLong, %function
 132              	stringToLong:
 133              	.LFB65:
  52:stringConvs.c **** 
  53:stringConvs.c **** ////////////////////////////////////////////////////////////////
  54:stringConvs.c **** // uint32 stringToLong(char *)
  55:stringConvs.c **** ////////////////////////////////////////////////////////////////
  56:stringConvs.c **** 
  57:stringConvs.c **** uint32 stringToLong(char * numString)
  58:stringConvs.c **** {
 134              		.loc 1 58 0
 135              		.cfi_startproc
 136              		@ args = 0, pretend = 0, frame = 0
 137              		@ frame_needed = 0, uses_anonymous_args = 0
 138              	.LVL15:
 139 0000 70B5     		push	{r4, r5, r6, lr}
 140              		.cfi_def_cfa_offset 16
 141              		.cfi_offset 4, -16
 142              		.cfi_offset 5, -12
 143              		.cfi_offset 6, -8
 144              		.cfi_offset 14, -4
 145 0002 0646     		mov	r6, r0
 146              	.LVL16:
  59:stringConvs.c ****     uint8 offset = 0;
  60:stringConvs.c ****     uint32 theBigNumber = 0;
 147              		.loc 1 60 0
 148 0004 0023     		movs	r3, #0
  59:stringConvs.c ****     uint8 offset = 0;
 149              		.loc 1 59 0
 150 0006 1C46     		mov	r4, r3
  61:stringConvs.c ****     
  62:stringConvs.c ****     //writeLine("stringToLong: got here");
  63:stringConvs.c ****     //writeLine(numString);
  64:stringConvs.c ****     while (numString[offset] != 0)
 151              		.loc 1 64 0
 152 0008 05E0     		b	.L12
 153              	.LVL17:
 154              	.L13:
  65:stringConvs.c ****     {
  66:stringConvs.c ****         theBigNumber = ((theBigNumber * 16) + charToNibble(numString[offset]));
 155              		.loc 1 66 0
 156 000a 1D01     		lsls	r5, r3, #4
 157 000c FFF7FEFF 		bl	charToNibble
 158              	.LVL18:
 159 0010 2B18     		adds	r3, r5, r0
ARM GAS  C:\Users\DGILLI~1\AppData\Local\Temp\cc3PgkPV.s 			page 5


 160              	.LVL19:
  67:stringConvs.c ****         offset++;
 161              		.loc 1 67 0
 162 0012 0134     		adds	r4, r4, #1
 163              	.LVL20:
 164 0014 E4B2     		uxtb	r4, r4
 165              	.LVL21:
 166              	.L12:
  64:stringConvs.c ****     {
 167              		.loc 1 64 0
 168 0016 305D     		ldrb	r0, [r6, r4]	@ zero_extendqisi2
 169 0018 0028     		cmp	r0, #0
 170 001a F6D1     		bne	.L13
  68:stringConvs.c ****     }
  69:stringConvs.c ****     return theBigNumber;
  70:stringConvs.c **** }
 171              		.loc 1 70 0
 172 001c 1846     		mov	r0, r3
 173 001e 70BD     		pop	{r4, r5, r6, pc}
 174              		.cfi_endproc
 175              	.LFE65:
 176              		.size	stringToLong, .-stringToLong
 177              		.section	.text.longToString,"ax",%progbits
 178              		.align	2
 179              		.global	longToString
 180              		.thumb
 181              		.thumb_func
 182              		.type	longToString, %function
 183              	longToString:
 184              	.LFB66:
  71:stringConvs.c **** 
  72:stringConvs.c **** ////////////////////////////////////////////////////////////////
  73:stringConvs.c **** // void longToString(uint32 lValue, char * resultString)
  74:stringConvs.c **** ////////////////////////////////////////////////////////////////
  75:stringConvs.c **** 
  76:stringConvs.c **** void longToString(uint32 lValue, char * resultString)
  77:stringConvs.c **** {
 185              		.loc 1 77 0
 186              		.cfi_startproc
 187              		@ args = 0, pretend = 0, frame = 0
 188              		@ frame_needed = 0, uses_anonymous_args = 0
 189              		@ link register save eliminated.
 190              	.LVL22:
 191 0000 30B4     		push	{r4, r5}
 192              		.cfi_def_cfa_offset 8
 193              		.cfi_offset 4, -8
 194              		.cfi_offset 5, -4
 195              	.LVL23:
  78:stringConvs.c ****     uint32 nibbleMask = 0xf0000000;
  79:stringConvs.c ****     uint8 nibbleOffset = 28;
  80:stringConvs.c ****     uint32 nibbleVal;
  81:stringConvs.c ****     uint8 resultOffset=0;
  82:stringConvs.c ****     //writeLine("longToString: got here");
  83:stringConvs.c ****     for (resultOffset = 0; resultOffset < 8; resultOffset++)
 196              		.loc 1 83 0
 197 0002 0022     		movs	r2, #0
  79:stringConvs.c ****     uint32 nibbleVal;
ARM GAS  C:\Users\DGILLI~1\AppData\Local\Temp\cc3PgkPV.s 			page 6


 198              		.loc 1 79 0
 199 0004 1C24     		movs	r4, #28
  78:stringConvs.c ****     uint32 nibbleMask = 0xf0000000;
 200              		.loc 1 78 0
 201 0006 4FF07045 		mov	r5, #-268435456
 202              		.loc 1 83 0
 203 000a 0EE0     		b	.L16
 204              	.LVL24:
 205              	.L19:
  84:stringConvs.c ****     {
  85:stringConvs.c ****         nibbleVal = ((lValue&nibbleMask)>>nibbleOffset);
 206              		.loc 1 85 0
 207 000c 00EA0503 		and	r3, r0, r5
 208 0010 E340     		lsrs	r3, r3, r4
 209              	.LVL25:
  86:stringConvs.c ****         if (nibbleVal <= 9)
 210              		.loc 1 86 0
 211 0012 092B     		cmp	r3, #9
 212 0014 02D8     		bhi	.L17
  87:stringConvs.c ****             resultString[resultOffset] = nibbleVal+'0';
 213              		.loc 1 87 0
 214 0016 3033     		adds	r3, r3, #48
 215              	.LVL26:
 216 0018 8B54     		strb	r3, [r1, r2]
 217 001a 01E0     		b	.L18
 218              	.LVL27:
 219              	.L17:
  88:stringConvs.c ****         else
  89:stringConvs.c ****             resultString[resultOffset] = nibbleVal-10+'A';
 220              		.loc 1 89 0
 221 001c 3733     		adds	r3, r3, #55
 222              	.LVL28:
 223 001e 8B54     		strb	r3, [r1, r2]
 224              	.LVL29:
 225              	.L18:
  90:stringConvs.c ****         nibbleMask >>= 4;
 226              		.loc 1 90 0 discriminator 2
 227 0020 2D09     		lsrs	r5, r5, #4
 228              	.LVL30:
  91:stringConvs.c ****         nibbleOffset -= 4;
 229              		.loc 1 91 0 discriminator 2
 230 0022 043C     		subs	r4, r4, #4
 231              	.LVL31:
 232 0024 E4B2     		uxtb	r4, r4
 233              	.LVL32:
  83:stringConvs.c ****     {
 234              		.loc 1 83 0 discriminator 2
 235 0026 0132     		adds	r2, r2, #1
 236              	.LVL33:
 237 0028 D2B2     		uxtb	r2, r2
 238              	.LVL34:
 239              	.L16:
  83:stringConvs.c ****     {
 240              		.loc 1 83 0 is_stmt 0 discriminator 1
 241 002a 072A     		cmp	r2, #7
 242 002c EED9     		bls	.L19
  92:stringConvs.c ****     }
ARM GAS  C:\Users\DGILLI~1\AppData\Local\Temp\cc3PgkPV.s 			page 7


  93:stringConvs.c ****     resultString[8] = 0;
 243              		.loc 1 93 0 is_stmt 1
 244 002e 0023     		movs	r3, #0
 245 0030 0B72     		strb	r3, [r1, #8]
  94:stringConvs.c **** }
 246              		.loc 1 94 0
 247 0032 30BC     		pop	{r4, r5}
 248              		.cfi_restore 5
 249              		.cfi_restore 4
 250              		.cfi_def_cfa_offset 0
 251              	.LVL35:
 252 0034 7047     		bx	lr
 253              		.cfi_endproc
 254              	.LFE66:
 255              		.size	longToString, .-longToString
 256 0036 00BF     		.section	.text.shortToString,"ax",%progbits
 257              		.align	2
 258              		.global	shortToString
 259              		.thumb
 260              		.thumb_func
 261              		.type	shortToString, %function
 262              	shortToString:
 263              	.LFB67:
  95:stringConvs.c **** 
  96:stringConvs.c **** ////////////////////////////////////////////////////////////////
  97:stringConvs.c **** // void longToString(uint32 lValue, char * resultString)
  98:stringConvs.c **** ////////////////////////////////////////////////////////////////
  99:stringConvs.c **** 
 100:stringConvs.c **** void shortToString(uint16 sValue, char * resultString)
 101:stringConvs.c **** {
 264              		.loc 1 101 0
 265              		.cfi_startproc
 266              		@ args = 0, pretend = 0, frame = 0
 267              		@ frame_needed = 0, uses_anonymous_args = 0
 268              		@ link register save eliminated.
 269              	.LVL36:
 270 0000 30B4     		push	{r4, r5}
 271              		.cfi_def_cfa_offset 8
 272              		.cfi_offset 4, -8
 273              		.cfi_offset 5, -4
 274              	.LVL37:
 102:stringConvs.c ****     uint32 nibbleMask = 0xf000;
 103:stringConvs.c ****     uint8 nibbleOffset = 12;
 104:stringConvs.c ****     uint32 nibbleVal;
 105:stringConvs.c ****     uint8 resultOffset=0;
 106:stringConvs.c ****     //writeLine("longToString: got here");
 107:stringConvs.c ****     for (resultOffset = 0; resultOffset < 4; resultOffset++)
 275              		.loc 1 107 0
 276 0002 0022     		movs	r2, #0
 103:stringConvs.c ****     uint32 nibbleVal;
 277              		.loc 1 103 0
 278 0004 0C24     		movs	r4, #12
 102:stringConvs.c ****     uint32 nibbleMask = 0xf000;
 279              		.loc 1 102 0
 280 0006 4FF47045 		mov	r5, #61440
 281              		.loc 1 107 0
 282 000a 0EE0     		b	.L22
ARM GAS  C:\Users\DGILLI~1\AppData\Local\Temp\cc3PgkPV.s 			page 8


 283              	.LVL38:
 284              	.L25:
 108:stringConvs.c ****     {
 109:stringConvs.c ****         nibbleVal = ((sValue&nibbleMask)>>nibbleOffset);
 285              		.loc 1 109 0
 286 000c 00EA0503 		and	r3, r0, r5
 287 0010 E340     		lsrs	r3, r3, r4
 288              	.LVL39:
 110:stringConvs.c ****         if (nibbleVal <= 9)
 289              		.loc 1 110 0
 290 0012 092B     		cmp	r3, #9
 291 0014 02D8     		bhi	.L23
 111:stringConvs.c ****             resultString[resultOffset] = nibbleVal+'0';
 292              		.loc 1 111 0
 293 0016 3033     		adds	r3, r3, #48
 294              	.LVL40:
 295 0018 8B54     		strb	r3, [r1, r2]
 296 001a 01E0     		b	.L24
 297              	.LVL41:
 298              	.L23:
 112:stringConvs.c ****         else
 113:stringConvs.c ****             resultString[resultOffset] = nibbleVal-10+'A';
 299              		.loc 1 113 0
 300 001c 3733     		adds	r3, r3, #55
 301              	.LVL42:
 302 001e 8B54     		strb	r3, [r1, r2]
 303              	.LVL43:
 304              	.L24:
 114:stringConvs.c ****         nibbleMask >>= 4;
 305              		.loc 1 114 0 discriminator 2
 306 0020 2D09     		lsrs	r5, r5, #4
 307              	.LVL44:
 115:stringConvs.c ****         nibbleOffset -= 4;
 308              		.loc 1 115 0 discriminator 2
 309 0022 043C     		subs	r4, r4, #4
 310              	.LVL45:
 311 0024 E4B2     		uxtb	r4, r4
 312              	.LVL46:
 107:stringConvs.c ****     {
 313              		.loc 1 107 0 discriminator 2
 314 0026 0132     		adds	r2, r2, #1
 315              	.LVL47:
 316 0028 D2B2     		uxtb	r2, r2
 317              	.LVL48:
 318              	.L22:
 107:stringConvs.c ****     {
 319              		.loc 1 107 0 is_stmt 0 discriminator 1
 320 002a 032A     		cmp	r2, #3
 321 002c EED9     		bls	.L25
 116:stringConvs.c ****     }
 117:stringConvs.c ****     resultString[4] = 0;
 322              		.loc 1 117 0 is_stmt 1
 323 002e 0023     		movs	r3, #0
 324 0030 0B71     		strb	r3, [r1, #4]
 118:stringConvs.c **** }
 325              		.loc 1 118 0
 326 0032 30BC     		pop	{r4, r5}
ARM GAS  C:\Users\DGILLI~1\AppData\Local\Temp\cc3PgkPV.s 			page 9


 327              		.cfi_restore 5
 328              		.cfi_restore 4
 329              		.cfi_def_cfa_offset 0
 330              	.LVL49:
 331 0034 7047     		bx	lr
 332              		.cfi_endproc
 333              	.LFE67:
 334              		.size	shortToString, .-shortToString
 335 0036 00BF     		.section	.text.byteToString,"ax",%progbits
 336              		.align	2
 337              		.global	byteToString
 338              		.thumb
 339              		.thumb_func
 340              		.type	byteToString, %function
 341              	byteToString:
 342              	.LFB68:
 119:stringConvs.c **** 
 120:stringConvs.c **** ////////////////////////////////////////////////////////////////
 121:stringConvs.c **** // void byteToString(uint8 bValue, char * resultString)
 122:stringConvs.c **** ////////////////////////////////////////////////////////////////
 123:stringConvs.c **** 
 124:stringConvs.c **** void byteToString(uint8 bValue, char * resultString)
 125:stringConvs.c **** {
 343              		.loc 1 125 0
 344              		.cfi_startproc
 345              		@ args = 0, pretend = 0, frame = 0
 346              		@ frame_needed = 0, uses_anonymous_args = 0
 347              		@ link register save eliminated.
 348              	.LVL50:
 349 0000 30B4     		push	{r4, r5}
 350              		.cfi_def_cfa_offset 8
 351              		.cfi_offset 4, -8
 352              		.cfi_offset 5, -4
 353              	.LVL51:
 126:stringConvs.c ****     uint32 nibbleMask = 0xf0;
 127:stringConvs.c ****     uint8 nibbleOffset = 4;
 128:stringConvs.c ****     uint32 nibbleVal;
 129:stringConvs.c ****     uint8 resultOffset=0;
 130:stringConvs.c ****     //writeLine("byteToString: got here");
 131:stringConvs.c ****     for (resultOffset = 0; resultOffset < 2; resultOffset++)
 354              		.loc 1 131 0
 355 0002 0023     		movs	r3, #0
 127:stringConvs.c ****     uint32 nibbleVal;
 356              		.loc 1 127 0
 357 0004 0424     		movs	r4, #4
 126:stringConvs.c ****     uint32 nibbleMask = 0xf0;
 358              		.loc 1 126 0
 359 0006 F025     		movs	r5, #240
 360              		.loc 1 131 0
 361 0008 0EE0     		b	.L28
 362              	.LVL52:
 363              	.L31:
 132:stringConvs.c ****     {
 133:stringConvs.c ****         nibbleVal = ((bValue&nibbleMask)>>nibbleOffset);
 364              		.loc 1 133 0
 365 000a 00EA0502 		and	r2, r0, r5
 366 000e E240     		lsrs	r2, r2, r4
ARM GAS  C:\Users\DGILLI~1\AppData\Local\Temp\cc3PgkPV.s 			page 10


 367              	.LVL53:
 134:stringConvs.c ****         if (nibbleVal <= 9)
 368              		.loc 1 134 0
 369 0010 092A     		cmp	r2, #9
 370 0012 02D8     		bhi	.L29
 135:stringConvs.c ****             resultString[resultOffset] = nibbleVal+'0';
 371              		.loc 1 135 0
 372 0014 3032     		adds	r2, r2, #48
 373              	.LVL54:
 374 0016 CA54     		strb	r2, [r1, r3]
 375 0018 01E0     		b	.L30
 376              	.LVL55:
 377              	.L29:
 136:stringConvs.c ****         else
 137:stringConvs.c ****             resultString[resultOffset] = nibbleVal-10+'A';
 378              		.loc 1 137 0
 379 001a 3732     		adds	r2, r2, #55
 380              	.LVL56:
 381 001c CA54     		strb	r2, [r1, r3]
 382              	.LVL57:
 383              	.L30:
 138:stringConvs.c ****         nibbleMask >>= 4;
 384              		.loc 1 138 0 discriminator 2
 385 001e 2D09     		lsrs	r5, r5, #4
 386              	.LVL58:
 139:stringConvs.c ****         nibbleOffset -= 4;
 387              		.loc 1 139 0 discriminator 2
 388 0020 043C     		subs	r4, r4, #4
 389              	.LVL59:
 390 0022 E4B2     		uxtb	r4, r4
 391              	.LVL60:
 131:stringConvs.c ****     {
 392              		.loc 1 131 0 discriminator 2
 393 0024 0133     		adds	r3, r3, #1
 394              	.LVL61:
 395 0026 DBB2     		uxtb	r3, r3
 396              	.LVL62:
 397              	.L28:
 131:stringConvs.c ****     {
 398              		.loc 1 131 0 is_stmt 0 discriminator 1
 399 0028 012B     		cmp	r3, #1
 400 002a EED9     		bls	.L31
 140:stringConvs.c ****     }
 141:stringConvs.c ****     resultString[2] = 0;
 401              		.loc 1 141 0 is_stmt 1
 402 002c 0023     		movs	r3, #0
 403              	.LVL63:
 404 002e 8B70     		strb	r3, [r1, #2]
 142:stringConvs.c **** }
 405              		.loc 1 142 0
 406 0030 30BC     		pop	{r4, r5}
 407              		.cfi_restore 5
 408              		.cfi_restore 4
 409              		.cfi_def_cfa_offset 0
 410              	.LVL64:
 411 0032 7047     		bx	lr
 412              		.cfi_endproc
ARM GAS  C:\Users\DGILLI~1\AppData\Local\Temp\cc3PgkPV.s 			page 11


 413              	.LFE68:
 414              		.size	byteToString, .-byteToString
 415              		.text
 416              	.Letext0:
 417              		.file 2 "c:\\program files (x86)\\cypress\\psoc creator\\4.0\\psoc creator\\import\\gnu\\arm\\4.9.
 418              		.file 3 "c:\\program files (x86)\\cypress\\psoc creator\\4.0\\psoc creator\\import\\gnu\\arm\\4.9.
 419              		.file 4 "Generated_Source\\PSoC5/cytypes.h"
 420              		.file 5 "Generated_Source\\PSoC5/core_cm3.h"