ARM GAS  C:\Users\DGILLI~1\AppData\Local\Temp\ccItuQxT.s 			page 1


   1              		.syntax unified
   2              		.cpu cortex-m3
   3              		.fpu softvfp
   4              		.eabi_attribute 20, 1
   5              		.eabi_attribute 21, 1
   6              		.eabi_attribute 23, 3
   7              		.eabi_attribute 24, 1
   8              		.eabi_attribute 25, 1
   9              		.eabi_attribute 26, 1
  10              		.eabi_attribute 30, 1
  11              		.eabi_attribute 34, 1
  12              		.eabi_attribute 18, 4
  13              		.thumb
  14              		.file	"USBUART_1_std.c"
  15              		.text
  16              	.Ltext0:
  17              		.cfi_sections	.debug_frame
  18              		.section	.text.USBUART_1_ReadDieID,"ax",%progbits
  19              		.align	2
  20              		.global	USBUART_1_ReadDieID
  21              		.thumb
  22              		.thumb_func
  23              		.type	USBUART_1_ReadDieID, %function
  24              	USBUART_1_ReadDieID:
  25              	.LFB1:
  26              		.file 1 "Generated_Source\\PSoC5\\USBUART_1_std.c"
   1:Generated_Source\PSoC5/USBUART_1_std.c **** /***************************************************************************//**
   2:Generated_Source\PSoC5/USBUART_1_std.c **** * \file USBUART_1_std.c
   3:Generated_Source\PSoC5/USBUART_1_std.c **** * \version 3.10
   4:Generated_Source\PSoC5/USBUART_1_std.c **** *
   5:Generated_Source\PSoC5/USBUART_1_std.c **** * \brief
   6:Generated_Source\PSoC5/USBUART_1_std.c **** *  This file contains the USB Standard request handler.
   7:Generated_Source\PSoC5/USBUART_1_std.c **** *
   8:Generated_Source\PSoC5/USBUART_1_std.c **** ********************************************************************************
   9:Generated_Source\PSoC5/USBUART_1_std.c **** * \copyright
  10:Generated_Source\PSoC5/USBUART_1_std.c **** * Copyright 2008-2016, Cypress Semiconductor Corporation.  All rights reserved.
  11:Generated_Source\PSoC5/USBUART_1_std.c **** * You may use this file only in accordance with the license, terms, conditions,
  12:Generated_Source\PSoC5/USBUART_1_std.c **** * disclaimers, and limitations in the end user license agreement accompanying
  13:Generated_Source\PSoC5/USBUART_1_std.c **** * the software package with which this file was provided.
  14:Generated_Source\PSoC5/USBUART_1_std.c **** *******************************************************************************/
  15:Generated_Source\PSoC5/USBUART_1_std.c **** 
  16:Generated_Source\PSoC5/USBUART_1_std.c **** #include "USBUART_1_pvt.h"
  17:Generated_Source\PSoC5/USBUART_1_std.c **** 
  18:Generated_Source\PSoC5/USBUART_1_std.c **** /***************************************
  19:Generated_Source\PSoC5/USBUART_1_std.c **** *   Static data allocation
  20:Generated_Source\PSoC5/USBUART_1_std.c **** ***************************************/
  21:Generated_Source\PSoC5/USBUART_1_std.c **** 
  22:Generated_Source\PSoC5/USBUART_1_std.c **** #if defined(USBUART_1_ENABLE_FWSN_STRING)
  23:Generated_Source\PSoC5/USBUART_1_std.c ****     static volatile uint8* USBUART_1_fwSerialNumberStringDescriptor;
  24:Generated_Source\PSoC5/USBUART_1_std.c ****     static volatile uint8  USBUART_1_snStringConfirm = USBUART_1_FALSE;
  25:Generated_Source\PSoC5/USBUART_1_std.c **** #endif  /* (USBUART_1_ENABLE_FWSN_STRING) */
  26:Generated_Source\PSoC5/USBUART_1_std.c **** 
  27:Generated_Source\PSoC5/USBUART_1_std.c **** #if defined(USBUART_1_ENABLE_FWSN_STRING)
  28:Generated_Source\PSoC5/USBUART_1_std.c ****     /***************************************************************************
  29:Generated_Source\PSoC5/USBUART_1_std.c ****     * Function Name: USBUART_1_SerialNumString
  30:Generated_Source\PSoC5/USBUART_1_std.c ****     ************************************************************************//**
  31:Generated_Source\PSoC5/USBUART_1_std.c ****     *
ARM GAS  C:\Users\DGILLI~1\AppData\Local\Temp\ccItuQxT.s 			page 2


  32:Generated_Source\PSoC5/USBUART_1_std.c ****     *  This function is available only when the User Call Back option in the 
  33:Generated_Source\PSoC5/USBUART_1_std.c ****     *  Serial Number String descriptor properties is selected. Application 
  34:Generated_Source\PSoC5/USBUART_1_std.c ****     *  firmware can provide the source of the USB device serial number string 
  35:Generated_Source\PSoC5/USBUART_1_std.c ****     *  descriptor during run time. The default string is used if the application 
  36:Generated_Source\PSoC5/USBUART_1_std.c ****     *  firmware does not use this function or sets the wrong string descriptor.
  37:Generated_Source\PSoC5/USBUART_1_std.c ****     *
  38:Generated_Source\PSoC5/USBUART_1_std.c ****     *  \param snString:  Pointer to the user-defined string descriptor. The 
  39:Generated_Source\PSoC5/USBUART_1_std.c ****     *  string descriptor should meet the Universal Serial Bus Specification 
  40:Generated_Source\PSoC5/USBUART_1_std.c ****     *  revision 2.0 chapter 9.6.7
  41:Generated_Source\PSoC5/USBUART_1_std.c ****     *  Offset|Size|Value|Description
  42:Generated_Source\PSoC5/USBUART_1_std.c ****     *  ------|----|------|---------------------------------
  43:Generated_Source\PSoC5/USBUART_1_std.c ****     *  0     |1   |N     |Size of this descriptor in bytes
  44:Generated_Source\PSoC5/USBUART_1_std.c ****     *  1     |1   |0x03  |STRING Descriptor Type
  45:Generated_Source\PSoC5/USBUART_1_std.c ****     *  2     |N-2 |Number|UNICODE encoded string
  46:Generated_Source\PSoC5/USBUART_1_std.c ****     *  
  47:Generated_Source\PSoC5/USBUART_1_std.c ****     * *For example:* uint8 snString[16]={0x0E,0x03,'F',0,'W',0,'S',0,'N',0,'0',0,'1',0};
  48:Generated_Source\PSoC5/USBUART_1_std.c ****     *
  49:Generated_Source\PSoC5/USBUART_1_std.c ****     * \reentrant
  50:Generated_Source\PSoC5/USBUART_1_std.c ****     *  No.
  51:Generated_Source\PSoC5/USBUART_1_std.c ****     *
  52:Generated_Source\PSoC5/USBUART_1_std.c ****     ***************************************************************************/
  53:Generated_Source\PSoC5/USBUART_1_std.c ****     void  USBUART_1_SerialNumString(uint8 snString[]) 
  54:Generated_Source\PSoC5/USBUART_1_std.c ****     {
  55:Generated_Source\PSoC5/USBUART_1_std.c ****         USBUART_1_snStringConfirm = USBUART_1_FALSE;
  56:Generated_Source\PSoC5/USBUART_1_std.c ****         
  57:Generated_Source\PSoC5/USBUART_1_std.c ****         if (snString != NULL)
  58:Generated_Source\PSoC5/USBUART_1_std.c ****         {
  59:Generated_Source\PSoC5/USBUART_1_std.c ****             /* Check descriptor validation */
  60:Generated_Source\PSoC5/USBUART_1_std.c ****             if ((snString[0u] > 1u) && (snString[1u] == USBUART_1_DESCR_STRING))
  61:Generated_Source\PSoC5/USBUART_1_std.c ****             {
  62:Generated_Source\PSoC5/USBUART_1_std.c ****                 USBUART_1_fwSerialNumberStringDescriptor = snString;
  63:Generated_Source\PSoC5/USBUART_1_std.c ****                 USBUART_1_snStringConfirm = USBUART_1_TRUE;
  64:Generated_Source\PSoC5/USBUART_1_std.c ****             }
  65:Generated_Source\PSoC5/USBUART_1_std.c ****         }
  66:Generated_Source\PSoC5/USBUART_1_std.c ****     }
  67:Generated_Source\PSoC5/USBUART_1_std.c **** #endif  /* USBUART_1_ENABLE_FWSN_STRING */
  68:Generated_Source\PSoC5/USBUART_1_std.c **** 
  69:Generated_Source\PSoC5/USBUART_1_std.c **** 
  70:Generated_Source\PSoC5/USBUART_1_std.c **** /*******************************************************************************
  71:Generated_Source\PSoC5/USBUART_1_std.c **** * Function Name: USBUART_1_HandleStandardRqst
  72:Generated_Source\PSoC5/USBUART_1_std.c **** ****************************************************************************//**
  73:Generated_Source\PSoC5/USBUART_1_std.c **** *
  74:Generated_Source\PSoC5/USBUART_1_std.c **** *  This Routine dispatches standard requests
  75:Generated_Source\PSoC5/USBUART_1_std.c **** *
  76:Generated_Source\PSoC5/USBUART_1_std.c **** *
  77:Generated_Source\PSoC5/USBUART_1_std.c **** * \return
  78:Generated_Source\PSoC5/USBUART_1_std.c **** *  TRUE if request handled.
  79:Generated_Source\PSoC5/USBUART_1_std.c **** *
  80:Generated_Source\PSoC5/USBUART_1_std.c **** * \reentrant
  81:Generated_Source\PSoC5/USBUART_1_std.c **** *  No.
  82:Generated_Source\PSoC5/USBUART_1_std.c **** *
  83:Generated_Source\PSoC5/USBUART_1_std.c **** *******************************************************************************/
  84:Generated_Source\PSoC5/USBUART_1_std.c **** uint8 USBUART_1_HandleStandardRqst(void) 
  85:Generated_Source\PSoC5/USBUART_1_std.c **** {
  86:Generated_Source\PSoC5/USBUART_1_std.c ****     uint8 requestHandled = USBUART_1_FALSE;
  87:Generated_Source\PSoC5/USBUART_1_std.c ****     uint8 interfaceNumber;
  88:Generated_Source\PSoC5/USBUART_1_std.c ****     uint8 configurationN;
ARM GAS  C:\Users\DGILLI~1\AppData\Local\Temp\ccItuQxT.s 			page 3


  89:Generated_Source\PSoC5/USBUART_1_std.c ****     uint8 bmRequestType = USBUART_1_bmRequestTypeReg;
  90:Generated_Source\PSoC5/USBUART_1_std.c **** 
  91:Generated_Source\PSoC5/USBUART_1_std.c **** #if defined(USBUART_1_ENABLE_STRINGS)
  92:Generated_Source\PSoC5/USBUART_1_std.c ****     volatile uint8 *pStr = 0u;
  93:Generated_Source\PSoC5/USBUART_1_std.c ****     #if defined(USBUART_1_ENABLE_DESCRIPTOR_STRINGS)
  94:Generated_Source\PSoC5/USBUART_1_std.c ****         uint8 nStr;
  95:Generated_Source\PSoC5/USBUART_1_std.c ****         uint8 descrLength;
  96:Generated_Source\PSoC5/USBUART_1_std.c ****     #endif /* (USBUART_1_ENABLE_DESCRIPTOR_STRINGS) */
  97:Generated_Source\PSoC5/USBUART_1_std.c **** #endif /* (USBUART_1_ENABLE_STRINGS) */
  98:Generated_Source\PSoC5/USBUART_1_std.c ****     
  99:Generated_Source\PSoC5/USBUART_1_std.c ****     static volatile uint8 USBUART_1_tBuffer[USBUART_1_STATUS_LENGTH_MAX];
 100:Generated_Source\PSoC5/USBUART_1_std.c ****     const T_USBUART_1_LUT CYCODE *pTmp;
 101:Generated_Source\PSoC5/USBUART_1_std.c **** 
 102:Generated_Source\PSoC5/USBUART_1_std.c ****     USBUART_1_currentTD.count = 0u;
 103:Generated_Source\PSoC5/USBUART_1_std.c **** 
 104:Generated_Source\PSoC5/USBUART_1_std.c ****     if (USBUART_1_RQST_DIR_D2H == (bmRequestType & USBUART_1_RQST_DIR_MASK))
 105:Generated_Source\PSoC5/USBUART_1_std.c ****     {
 106:Generated_Source\PSoC5/USBUART_1_std.c ****         /* Control Read */
 107:Generated_Source\PSoC5/USBUART_1_std.c ****         switch (USBUART_1_bRequestReg)
 108:Generated_Source\PSoC5/USBUART_1_std.c ****         {
 109:Generated_Source\PSoC5/USBUART_1_std.c ****             case USBUART_1_GET_DESCRIPTOR:
 110:Generated_Source\PSoC5/USBUART_1_std.c ****                 if (USBUART_1_DESCR_DEVICE ==USBUART_1_wValueHiReg)
 111:Generated_Source\PSoC5/USBUART_1_std.c ****                 {
 112:Generated_Source\PSoC5/USBUART_1_std.c ****                     pTmp = USBUART_1_GetDeviceTablePtr();
 113:Generated_Source\PSoC5/USBUART_1_std.c ****                     USBUART_1_currentTD.pData = (volatile uint8 *)pTmp->p_list;
 114:Generated_Source\PSoC5/USBUART_1_std.c ****                     USBUART_1_currentTD.count = USBUART_1_DEVICE_DESCR_LENGTH;
 115:Generated_Source\PSoC5/USBUART_1_std.c ****                     
 116:Generated_Source\PSoC5/USBUART_1_std.c ****                     requestHandled  = USBUART_1_InitControlRead();
 117:Generated_Source\PSoC5/USBUART_1_std.c ****                 }
 118:Generated_Source\PSoC5/USBUART_1_std.c ****                 else if (USBUART_1_DESCR_CONFIG == USBUART_1_wValueHiReg)
 119:Generated_Source\PSoC5/USBUART_1_std.c ****                 {
 120:Generated_Source\PSoC5/USBUART_1_std.c ****                     pTmp = USBUART_1_GetConfigTablePtr((uint8) USBUART_1_wValueLoReg);
 121:Generated_Source\PSoC5/USBUART_1_std.c ****                     
 122:Generated_Source\PSoC5/USBUART_1_std.c ****                     /* Verify that requested descriptor exists */
 123:Generated_Source\PSoC5/USBUART_1_std.c ****                     if (pTmp != NULL)
 124:Generated_Source\PSoC5/USBUART_1_std.c ****                     {
 125:Generated_Source\PSoC5/USBUART_1_std.c ****                         USBUART_1_currentTD.pData = (volatile uint8 *)pTmp->p_list;
 126:Generated_Source\PSoC5/USBUART_1_std.c ****                         USBUART_1_currentTD.count = (uint16)((uint16)(USBUART_1_currentTD.pData)[US
 127:Generated_Source\PSoC5/USBUART_1_std.c ****                                                                             (USBUART_1_currentTD.pD
 128:Generated_Source\PSoC5/USBUART_1_std.c ****                         requestHandled  = USBUART_1_InitControlRead();
 129:Generated_Source\PSoC5/USBUART_1_std.c ****                     }
 130:Generated_Source\PSoC5/USBUART_1_std.c ****                 }
 131:Generated_Source\PSoC5/USBUART_1_std.c ****                 
 132:Generated_Source\PSoC5/USBUART_1_std.c ****             #if(USBUART_1_BOS_ENABLE)
 133:Generated_Source\PSoC5/USBUART_1_std.c ****                 else if (USBUART_1_DESCR_BOS == USBUART_1_wValueHiReg)
 134:Generated_Source\PSoC5/USBUART_1_std.c ****                 {
 135:Generated_Source\PSoC5/USBUART_1_std.c ****                     pTmp = USBUART_1_GetBOSPtr();
 136:Generated_Source\PSoC5/USBUART_1_std.c ****                     
 137:Generated_Source\PSoC5/USBUART_1_std.c ****                     /* Verify that requested descriptor exists */
 138:Generated_Source\PSoC5/USBUART_1_std.c ****                     if (pTmp != NULL)
 139:Generated_Source\PSoC5/USBUART_1_std.c ****                     {
 140:Generated_Source\PSoC5/USBUART_1_std.c ****                         USBUART_1_currentTD.pData = (volatile uint8 *)pTmp;
 141:Generated_Source\PSoC5/USBUART_1_std.c ****                         USBUART_1_currentTD.count = ((uint16)((uint16)(USBUART_1_currentTD.pData)[U
 142:Generated_Source\PSoC5/USBUART_1_std.c ****                                                                              (USBUART_1_currentTD.p
 143:Generated_Source\PSoC5/USBUART_1_std.c ****                         requestHandled  = USBUART_1_InitControlRead();
 144:Generated_Source\PSoC5/USBUART_1_std.c ****                     }
 145:Generated_Source\PSoC5/USBUART_1_std.c ****                 }
ARM GAS  C:\Users\DGILLI~1\AppData\Local\Temp\ccItuQxT.s 			page 4


 146:Generated_Source\PSoC5/USBUART_1_std.c ****             #endif /*(USBUART_1_BOS_ENABLE)*/
 147:Generated_Source\PSoC5/USBUART_1_std.c ****             
 148:Generated_Source\PSoC5/USBUART_1_std.c ****             #if defined(USBUART_1_ENABLE_STRINGS)
 149:Generated_Source\PSoC5/USBUART_1_std.c ****                 else if (USBUART_1_DESCR_STRING == USBUART_1_wValueHiReg)
 150:Generated_Source\PSoC5/USBUART_1_std.c ****                 {
 151:Generated_Source\PSoC5/USBUART_1_std.c ****                 /* Descriptor Strings */
 152:Generated_Source\PSoC5/USBUART_1_std.c ****                 #if defined(USBUART_1_ENABLE_DESCRIPTOR_STRINGS)
 153:Generated_Source\PSoC5/USBUART_1_std.c ****                     nStr = 0u;
 154:Generated_Source\PSoC5/USBUART_1_std.c ****                     pStr = (volatile uint8 *) &USBUART_1_STRING_DESCRIPTORS[0u];
 155:Generated_Source\PSoC5/USBUART_1_std.c ****                     
 156:Generated_Source\PSoC5/USBUART_1_std.c ****                     while ((USBUART_1_wValueLoReg > nStr) && (*pStr != 0u))
 157:Generated_Source\PSoC5/USBUART_1_std.c ****                     {
 158:Generated_Source\PSoC5/USBUART_1_std.c ****                         /* Read descriptor length from 1st byte */
 159:Generated_Source\PSoC5/USBUART_1_std.c ****                         descrLength = *pStr;
 160:Generated_Source\PSoC5/USBUART_1_std.c ****                         /* Move to next string descriptor */
 161:Generated_Source\PSoC5/USBUART_1_std.c ****                         pStr = &pStr[descrLength];
 162:Generated_Source\PSoC5/USBUART_1_std.c ****                         nStr++;
 163:Generated_Source\PSoC5/USBUART_1_std.c ****                     }
 164:Generated_Source\PSoC5/USBUART_1_std.c ****                 #endif /* (USBUART_1_ENABLE_DESCRIPTOR_STRINGS) */
 165:Generated_Source\PSoC5/USBUART_1_std.c ****                 
 166:Generated_Source\PSoC5/USBUART_1_std.c ****                 /* Microsoft OS String */
 167:Generated_Source\PSoC5/USBUART_1_std.c ****                 #if defined(USBUART_1_ENABLE_MSOS_STRING)
 168:Generated_Source\PSoC5/USBUART_1_std.c ****                     if (USBUART_1_STRING_MSOS == USBUART_1_wValueLoReg)
 169:Generated_Source\PSoC5/USBUART_1_std.c ****                     {
 170:Generated_Source\PSoC5/USBUART_1_std.c ****                         pStr = (volatile uint8 *)& USBUART_1_MSOS_DESCRIPTOR[0u];
 171:Generated_Source\PSoC5/USBUART_1_std.c ****                     }
 172:Generated_Source\PSoC5/USBUART_1_std.c ****                 #endif /* (USBUART_1_ENABLE_MSOS_STRING) */
 173:Generated_Source\PSoC5/USBUART_1_std.c ****                 
 174:Generated_Source\PSoC5/USBUART_1_std.c ****                 /* SN string */
 175:Generated_Source\PSoC5/USBUART_1_std.c ****                 #if defined(USBUART_1_ENABLE_SN_STRING)
 176:Generated_Source\PSoC5/USBUART_1_std.c ****                     if ((USBUART_1_wValueLoReg != 0u) && 
 177:Generated_Source\PSoC5/USBUART_1_std.c ****                         (USBUART_1_wValueLoReg == USBUART_1_DEVICE0_DESCR[USBUART_1_DEVICE_DESCR_SN
 178:Generated_Source\PSoC5/USBUART_1_std.c ****                     {
 179:Generated_Source\PSoC5/USBUART_1_std.c ****                     #if defined(USBUART_1_ENABLE_IDSN_STRING)
 180:Generated_Source\PSoC5/USBUART_1_std.c ****                         /* Read DIE ID and generate string descriptor in RAM */
 181:Generated_Source\PSoC5/USBUART_1_std.c ****                         USBUART_1_ReadDieID(USBUART_1_idSerialNumberStringDescriptor);
 182:Generated_Source\PSoC5/USBUART_1_std.c ****                         pStr = USBUART_1_idSerialNumberStringDescriptor;
 183:Generated_Source\PSoC5/USBUART_1_std.c ****                     #elif defined(USBUART_1_ENABLE_FWSN_STRING)
 184:Generated_Source\PSoC5/USBUART_1_std.c ****                         
 185:Generated_Source\PSoC5/USBUART_1_std.c ****                         if(USBUART_1_snStringConfirm != USBUART_1_FALSE)
 186:Generated_Source\PSoC5/USBUART_1_std.c ****                         {
 187:Generated_Source\PSoC5/USBUART_1_std.c ****                             pStr = USBUART_1_fwSerialNumberStringDescriptor;
 188:Generated_Source\PSoC5/USBUART_1_std.c ****                         }
 189:Generated_Source\PSoC5/USBUART_1_std.c ****                         else
 190:Generated_Source\PSoC5/USBUART_1_std.c ****                         {
 191:Generated_Source\PSoC5/USBUART_1_std.c ****                             pStr = (volatile uint8 *)&USBUART_1_SN_STRING_DESCRIPTOR[0u];
 192:Generated_Source\PSoC5/USBUART_1_std.c ****                         }
 193:Generated_Source\PSoC5/USBUART_1_std.c ****                     #else
 194:Generated_Source\PSoC5/USBUART_1_std.c ****                         pStr = (volatile uint8 *)&USBUART_1_SN_STRING_DESCRIPTOR[0u];
 195:Generated_Source\PSoC5/USBUART_1_std.c ****                     #endif  /* (USBUART_1_ENABLE_IDSN_STRING) */
 196:Generated_Source\PSoC5/USBUART_1_std.c ****                     }
 197:Generated_Source\PSoC5/USBUART_1_std.c ****                 #endif /* (USBUART_1_ENABLE_SN_STRING) */
 198:Generated_Source\PSoC5/USBUART_1_std.c ****                 
 199:Generated_Source\PSoC5/USBUART_1_std.c ****                     if (*pStr != 0u)
 200:Generated_Source\PSoC5/USBUART_1_std.c ****                     {
 201:Generated_Source\PSoC5/USBUART_1_std.c ****                         USBUART_1_currentTD.count = *pStr;
 202:Generated_Source\PSoC5/USBUART_1_std.c ****                         USBUART_1_currentTD.pData = pStr;
ARM GAS  C:\Users\DGILLI~1\AppData\Local\Temp\ccItuQxT.s 			page 5


 203:Generated_Source\PSoC5/USBUART_1_std.c ****                         requestHandled  = USBUART_1_InitControlRead();
 204:Generated_Source\PSoC5/USBUART_1_std.c ****                     }
 205:Generated_Source\PSoC5/USBUART_1_std.c ****                 }
 206:Generated_Source\PSoC5/USBUART_1_std.c ****             #endif /*  USBUART_1_ENABLE_STRINGS */
 207:Generated_Source\PSoC5/USBUART_1_std.c ****                 else
 208:Generated_Source\PSoC5/USBUART_1_std.c ****                 {
 209:Generated_Source\PSoC5/USBUART_1_std.c ****                     requestHandled = USBUART_1_DispatchClassRqst();
 210:Generated_Source\PSoC5/USBUART_1_std.c ****                 }
 211:Generated_Source\PSoC5/USBUART_1_std.c ****                 break;
 212:Generated_Source\PSoC5/USBUART_1_std.c ****                 
 213:Generated_Source\PSoC5/USBUART_1_std.c ****             case USBUART_1_GET_STATUS:
 214:Generated_Source\PSoC5/USBUART_1_std.c ****                 switch (bmRequestType & USBUART_1_RQST_RCPT_MASK)
 215:Generated_Source\PSoC5/USBUART_1_std.c ****                 {
 216:Generated_Source\PSoC5/USBUART_1_std.c ****                     case USBUART_1_RQST_RCPT_EP:
 217:Generated_Source\PSoC5/USBUART_1_std.c ****                         USBUART_1_currentTD.count = USBUART_1_EP_STATUS_LENGTH;
 218:Generated_Source\PSoC5/USBUART_1_std.c ****                         USBUART_1_tBuffer[0u]     = USBUART_1_EP[USBUART_1_wIndexLoReg & USBUART_1_
 219:Generated_Source\PSoC5/USBUART_1_std.c ****                         USBUART_1_tBuffer[1u]     = 0u;
 220:Generated_Source\PSoC5/USBUART_1_std.c ****                         USBUART_1_currentTD.pData = &USBUART_1_tBuffer[0u];
 221:Generated_Source\PSoC5/USBUART_1_std.c ****                         
 222:Generated_Source\PSoC5/USBUART_1_std.c ****                         requestHandled  = USBUART_1_InitControlRead();
 223:Generated_Source\PSoC5/USBUART_1_std.c ****                         break;
 224:Generated_Source\PSoC5/USBUART_1_std.c ****                     case USBUART_1_RQST_RCPT_DEV:
 225:Generated_Source\PSoC5/USBUART_1_std.c ****                         USBUART_1_currentTD.count = USBUART_1_DEVICE_STATUS_LENGTH;
 226:Generated_Source\PSoC5/USBUART_1_std.c ****                         USBUART_1_tBuffer[0u]     = USBUART_1_deviceStatus;
 227:Generated_Source\PSoC5/USBUART_1_std.c ****                         USBUART_1_tBuffer[1u]     = 0u;
 228:Generated_Source\PSoC5/USBUART_1_std.c ****                         USBUART_1_currentTD.pData = &USBUART_1_tBuffer[0u];
 229:Generated_Source\PSoC5/USBUART_1_std.c ****                         
 230:Generated_Source\PSoC5/USBUART_1_std.c ****                         requestHandled  = USBUART_1_InitControlRead();
 231:Generated_Source\PSoC5/USBUART_1_std.c ****                         break;
 232:Generated_Source\PSoC5/USBUART_1_std.c ****                     default:    /* requestHandled is initialized as FALSE by default */
 233:Generated_Source\PSoC5/USBUART_1_std.c ****                         break;
 234:Generated_Source\PSoC5/USBUART_1_std.c ****                 }
 235:Generated_Source\PSoC5/USBUART_1_std.c ****                 break;
 236:Generated_Source\PSoC5/USBUART_1_std.c ****                 
 237:Generated_Source\PSoC5/USBUART_1_std.c ****             case USBUART_1_GET_CONFIGURATION:
 238:Generated_Source\PSoC5/USBUART_1_std.c ****                 USBUART_1_currentTD.count = 1u;
 239:Generated_Source\PSoC5/USBUART_1_std.c ****                 USBUART_1_currentTD.pData = (volatile uint8 *) &USBUART_1_configuration;
 240:Generated_Source\PSoC5/USBUART_1_std.c ****                 requestHandled  = USBUART_1_InitControlRead();
 241:Generated_Source\PSoC5/USBUART_1_std.c ****                 break;
 242:Generated_Source\PSoC5/USBUART_1_std.c ****                 
 243:Generated_Source\PSoC5/USBUART_1_std.c ****             case USBUART_1_GET_INTERFACE:
 244:Generated_Source\PSoC5/USBUART_1_std.c ****                 USBUART_1_currentTD.count = 1u;
 245:Generated_Source\PSoC5/USBUART_1_std.c ****                 USBUART_1_currentTD.pData = (volatile uint8 *) &USBUART_1_interfaceSetting[USBUART_
 246:Generated_Source\PSoC5/USBUART_1_std.c ****                 requestHandled  = USBUART_1_InitControlRead();
 247:Generated_Source\PSoC5/USBUART_1_std.c ****                 break;
 248:Generated_Source\PSoC5/USBUART_1_std.c ****                 
 249:Generated_Source\PSoC5/USBUART_1_std.c ****             default: /* requestHandled is initialized as FALSE by default */
 250:Generated_Source\PSoC5/USBUART_1_std.c ****                 break;
 251:Generated_Source\PSoC5/USBUART_1_std.c ****         }
 252:Generated_Source\PSoC5/USBUART_1_std.c ****     }
 253:Generated_Source\PSoC5/USBUART_1_std.c ****     else
 254:Generated_Source\PSoC5/USBUART_1_std.c ****     {
 255:Generated_Source\PSoC5/USBUART_1_std.c ****         /* Control Write */
 256:Generated_Source\PSoC5/USBUART_1_std.c ****         switch (USBUART_1_bRequestReg)
 257:Generated_Source\PSoC5/USBUART_1_std.c ****         {
 258:Generated_Source\PSoC5/USBUART_1_std.c ****             case USBUART_1_SET_ADDRESS:
 259:Generated_Source\PSoC5/USBUART_1_std.c ****                 /* Store address to be set in USBUART_1_NoDataControlStatusStage(). */
ARM GAS  C:\Users\DGILLI~1\AppData\Local\Temp\ccItuQxT.s 			page 6


 260:Generated_Source\PSoC5/USBUART_1_std.c ****                 USBUART_1_deviceAddress = (uint8) USBUART_1_wValueLoReg;
 261:Generated_Source\PSoC5/USBUART_1_std.c ****                 requestHandled = USBUART_1_InitNoDataControlTransfer();
 262:Generated_Source\PSoC5/USBUART_1_std.c ****                 break;
 263:Generated_Source\PSoC5/USBUART_1_std.c ****                 
 264:Generated_Source\PSoC5/USBUART_1_std.c ****             case USBUART_1_SET_CONFIGURATION:
 265:Generated_Source\PSoC5/USBUART_1_std.c ****                 configurationN = USBUART_1_wValueLoReg;
 266:Generated_Source\PSoC5/USBUART_1_std.c ****                 
 267:Generated_Source\PSoC5/USBUART_1_std.c ****                 /* Verify that configuration descriptor exists */
 268:Generated_Source\PSoC5/USBUART_1_std.c ****                 if(configurationN > 0u)
 269:Generated_Source\PSoC5/USBUART_1_std.c ****                 {
 270:Generated_Source\PSoC5/USBUART_1_std.c ****                     pTmp = USBUART_1_GetConfigTablePtr((uint8) configurationN - 1u);
 271:Generated_Source\PSoC5/USBUART_1_std.c ****                 }
 272:Generated_Source\PSoC5/USBUART_1_std.c ****                 
 273:Generated_Source\PSoC5/USBUART_1_std.c ****                 /* Responds with a Request Error when configuration number is invalid */
 274:Generated_Source\PSoC5/USBUART_1_std.c ****                 if (((configurationN > 0u) && (pTmp != NULL)) || (configurationN == 0u))
 275:Generated_Source\PSoC5/USBUART_1_std.c ****                 {
 276:Generated_Source\PSoC5/USBUART_1_std.c ****                     /* Set new configuration if it has been changed */
 277:Generated_Source\PSoC5/USBUART_1_std.c ****                     if(configurationN != USBUART_1_configuration)
 278:Generated_Source\PSoC5/USBUART_1_std.c ****                     {
 279:Generated_Source\PSoC5/USBUART_1_std.c ****                         USBUART_1_configuration = (uint8) configurationN;
 280:Generated_Source\PSoC5/USBUART_1_std.c ****                         USBUART_1_configurationChanged = USBUART_1_TRUE;
 281:Generated_Source\PSoC5/USBUART_1_std.c ****                         USBUART_1_Config(USBUART_1_TRUE);
 282:Generated_Source\PSoC5/USBUART_1_std.c ****                     }
 283:Generated_Source\PSoC5/USBUART_1_std.c ****                     requestHandled = USBUART_1_InitNoDataControlTransfer();
 284:Generated_Source\PSoC5/USBUART_1_std.c ****                 }
 285:Generated_Source\PSoC5/USBUART_1_std.c ****                 break;
 286:Generated_Source\PSoC5/USBUART_1_std.c ****                 
 287:Generated_Source\PSoC5/USBUART_1_std.c ****             case USBUART_1_SET_INTERFACE:
 288:Generated_Source\PSoC5/USBUART_1_std.c ****                 if (0u != USBUART_1_ValidateAlternateSetting())
 289:Generated_Source\PSoC5/USBUART_1_std.c ****                 {
 290:Generated_Source\PSoC5/USBUART_1_std.c ****                     /* Get interface number from the request. */
 291:Generated_Source\PSoC5/USBUART_1_std.c ****                     interfaceNumber = USBUART_1_wIndexLoReg;
 292:Generated_Source\PSoC5/USBUART_1_std.c ****                     USBUART_1_interfaceNumber = (uint8) USBUART_1_wIndexLoReg;
 293:Generated_Source\PSoC5/USBUART_1_std.c ****                      
 294:Generated_Source\PSoC5/USBUART_1_std.c ****                     /* Check if alternate settings is changed for interface. */
 295:Generated_Source\PSoC5/USBUART_1_std.c ****                     if (USBUART_1_interfaceSettingLast[interfaceNumber] != USBUART_1_interfaceSetti
 296:Generated_Source\PSoC5/USBUART_1_std.c ****                     {
 297:Generated_Source\PSoC5/USBUART_1_std.c ****                         USBUART_1_configurationChanged = USBUART_1_TRUE;
 298:Generated_Source\PSoC5/USBUART_1_std.c ****                     
 299:Generated_Source\PSoC5/USBUART_1_std.c ****                         /* Change alternate setting for the endpoints. */
 300:Generated_Source\PSoC5/USBUART_1_std.c ****                     #if (USBUART_1_EP_MANAGEMENT_MANUAL && USBUART_1_EP_ALLOC_DYNAMIC)
 301:Generated_Source\PSoC5/USBUART_1_std.c ****                         USBUART_1_Config(USBUART_1_FALSE);
 302:Generated_Source\PSoC5/USBUART_1_std.c ****                     #else
 303:Generated_Source\PSoC5/USBUART_1_std.c ****                         USBUART_1_ConfigAltChanged();
 304:Generated_Source\PSoC5/USBUART_1_std.c ****                     #endif /* (USBUART_1_EP_MANAGEMENT_MANUAL && USBUART_1_EP_ALLOC_DYNAMIC) */
 305:Generated_Source\PSoC5/USBUART_1_std.c ****                     }
 306:Generated_Source\PSoC5/USBUART_1_std.c ****                     
 307:Generated_Source\PSoC5/USBUART_1_std.c ****                     requestHandled = USBUART_1_InitNoDataControlTransfer();
 308:Generated_Source\PSoC5/USBUART_1_std.c ****                 }
 309:Generated_Source\PSoC5/USBUART_1_std.c ****                 break;
 310:Generated_Source\PSoC5/USBUART_1_std.c ****                 
 311:Generated_Source\PSoC5/USBUART_1_std.c ****             case USBUART_1_CLEAR_FEATURE:
 312:Generated_Source\PSoC5/USBUART_1_std.c ****                 switch (bmRequestType & USBUART_1_RQST_RCPT_MASK)
 313:Generated_Source\PSoC5/USBUART_1_std.c ****                 {
 314:Generated_Source\PSoC5/USBUART_1_std.c ****                     case USBUART_1_RQST_RCPT_EP:
 315:Generated_Source\PSoC5/USBUART_1_std.c ****                         if (USBUART_1_wValueLoReg == USBUART_1_ENDPOINT_HALT)
 316:Generated_Source\PSoC5/USBUART_1_std.c ****                         {
ARM GAS  C:\Users\DGILLI~1\AppData\Local\Temp\ccItuQxT.s 			page 7


 317:Generated_Source\PSoC5/USBUART_1_std.c ****                             requestHandled = USBUART_1_ClearEndpointHalt();
 318:Generated_Source\PSoC5/USBUART_1_std.c ****                         }
 319:Generated_Source\PSoC5/USBUART_1_std.c ****                         break;
 320:Generated_Source\PSoC5/USBUART_1_std.c ****                     case USBUART_1_RQST_RCPT_DEV:
 321:Generated_Source\PSoC5/USBUART_1_std.c ****                         /* Clear device REMOTE_WAKEUP */
 322:Generated_Source\PSoC5/USBUART_1_std.c ****                         if (USBUART_1_wValueLoReg == USBUART_1_DEVICE_REMOTE_WAKEUP)
 323:Generated_Source\PSoC5/USBUART_1_std.c ****                         {
 324:Generated_Source\PSoC5/USBUART_1_std.c ****                             USBUART_1_deviceStatus &= (uint8)~USBUART_1_DEVICE_STATUS_REMOTE_WAKEUP
 325:Generated_Source\PSoC5/USBUART_1_std.c ****                             requestHandled = USBUART_1_InitNoDataControlTransfer();
 326:Generated_Source\PSoC5/USBUART_1_std.c ****                         }
 327:Generated_Source\PSoC5/USBUART_1_std.c ****                         break;
 328:Generated_Source\PSoC5/USBUART_1_std.c ****                     case USBUART_1_RQST_RCPT_IFC:
 329:Generated_Source\PSoC5/USBUART_1_std.c ****                         /* Validate interfaceNumber */
 330:Generated_Source\PSoC5/USBUART_1_std.c ****                         if (USBUART_1_wIndexLoReg < USBUART_1_MAX_INTERFACES_NUMBER)
 331:Generated_Source\PSoC5/USBUART_1_std.c ****                         {
 332:Generated_Source\PSoC5/USBUART_1_std.c ****                             USBUART_1_interfaceStatus[USBUART_1_wIndexLoReg] &= (uint8) ~USBUART_1_
 333:Generated_Source\PSoC5/USBUART_1_std.c ****                             requestHandled = USBUART_1_InitNoDataControlTransfer();
 334:Generated_Source\PSoC5/USBUART_1_std.c ****                         }
 335:Generated_Source\PSoC5/USBUART_1_std.c ****                         break;
 336:Generated_Source\PSoC5/USBUART_1_std.c ****                     default:    /* requestHandled is initialized as FALSE by default */
 337:Generated_Source\PSoC5/USBUART_1_std.c ****                         break;
 338:Generated_Source\PSoC5/USBUART_1_std.c ****                 }
 339:Generated_Source\PSoC5/USBUART_1_std.c ****                 break;
 340:Generated_Source\PSoC5/USBUART_1_std.c ****                 
 341:Generated_Source\PSoC5/USBUART_1_std.c ****             case USBUART_1_SET_FEATURE:
 342:Generated_Source\PSoC5/USBUART_1_std.c ****                 switch (bmRequestType & USBUART_1_RQST_RCPT_MASK)
 343:Generated_Source\PSoC5/USBUART_1_std.c ****                 {
 344:Generated_Source\PSoC5/USBUART_1_std.c ****                     case USBUART_1_RQST_RCPT_EP:
 345:Generated_Source\PSoC5/USBUART_1_std.c ****                         if (USBUART_1_wValueLoReg == USBUART_1_ENDPOINT_HALT)
 346:Generated_Source\PSoC5/USBUART_1_std.c ****                         {
 347:Generated_Source\PSoC5/USBUART_1_std.c ****                             requestHandled = USBUART_1_SetEndpointHalt();
 348:Generated_Source\PSoC5/USBUART_1_std.c ****                         }
 349:Generated_Source\PSoC5/USBUART_1_std.c ****                         break;
 350:Generated_Source\PSoC5/USBUART_1_std.c ****                         
 351:Generated_Source\PSoC5/USBUART_1_std.c ****                     case USBUART_1_RQST_RCPT_DEV:
 352:Generated_Source\PSoC5/USBUART_1_std.c ****                         /* Set device REMOTE_WAKEUP */
 353:Generated_Source\PSoC5/USBUART_1_std.c ****                         if (USBUART_1_wValueLoReg == USBUART_1_DEVICE_REMOTE_WAKEUP)
 354:Generated_Source\PSoC5/USBUART_1_std.c ****                         {
 355:Generated_Source\PSoC5/USBUART_1_std.c ****                             USBUART_1_deviceStatus |= USBUART_1_DEVICE_STATUS_REMOTE_WAKEUP;
 356:Generated_Source\PSoC5/USBUART_1_std.c ****                             requestHandled = USBUART_1_InitNoDataControlTransfer();
 357:Generated_Source\PSoC5/USBUART_1_std.c ****                         }
 358:Generated_Source\PSoC5/USBUART_1_std.c ****                         break;
 359:Generated_Source\PSoC5/USBUART_1_std.c ****                         
 360:Generated_Source\PSoC5/USBUART_1_std.c ****                     case USBUART_1_RQST_RCPT_IFC:
 361:Generated_Source\PSoC5/USBUART_1_std.c ****                         /* Validate interfaceNumber */
 362:Generated_Source\PSoC5/USBUART_1_std.c ****                         if (USBUART_1_wIndexLoReg < USBUART_1_MAX_INTERFACES_NUMBER)
 363:Generated_Source\PSoC5/USBUART_1_std.c ****                         {
 364:Generated_Source\PSoC5/USBUART_1_std.c ****                             USBUART_1_interfaceStatus[USBUART_1_wIndexLoReg] &= (uint8) ~USBUART_1_
 365:Generated_Source\PSoC5/USBUART_1_std.c ****                             requestHandled = USBUART_1_InitNoDataControlTransfer();
 366:Generated_Source\PSoC5/USBUART_1_std.c ****                         }
 367:Generated_Source\PSoC5/USBUART_1_std.c ****                         break;
 368:Generated_Source\PSoC5/USBUART_1_std.c ****                     
 369:Generated_Source\PSoC5/USBUART_1_std.c ****                     default:    /* requestHandled is initialized as FALSE by default */
 370:Generated_Source\PSoC5/USBUART_1_std.c ****                         break;
 371:Generated_Source\PSoC5/USBUART_1_std.c ****                 }
 372:Generated_Source\PSoC5/USBUART_1_std.c ****                 break;
 373:Generated_Source\PSoC5/USBUART_1_std.c ****                 
ARM GAS  C:\Users\DGILLI~1\AppData\Local\Temp\ccItuQxT.s 			page 8


 374:Generated_Source\PSoC5/USBUART_1_std.c ****             default:    /* requestHandled is initialized as FALSE by default */
 375:Generated_Source\PSoC5/USBUART_1_std.c ****                 break;
 376:Generated_Source\PSoC5/USBUART_1_std.c ****         }
 377:Generated_Source\PSoC5/USBUART_1_std.c ****     }
 378:Generated_Source\PSoC5/USBUART_1_std.c ****     
 379:Generated_Source\PSoC5/USBUART_1_std.c ****     return (requestHandled);
 380:Generated_Source\PSoC5/USBUART_1_std.c **** }
 381:Generated_Source\PSoC5/USBUART_1_std.c **** 
 382:Generated_Source\PSoC5/USBUART_1_std.c **** 
 383:Generated_Source\PSoC5/USBUART_1_std.c **** #if defined(USBUART_1_ENABLE_IDSN_STRING)
 384:Generated_Source\PSoC5/USBUART_1_std.c ****     /***************************************************************************
 385:Generated_Source\PSoC5/USBUART_1_std.c ****     * Function Name: USBUART_1_ReadDieID
 386:Generated_Source\PSoC5/USBUART_1_std.c ****     ************************************************************************//**
 387:Generated_Source\PSoC5/USBUART_1_std.c ****     *
 388:Generated_Source\PSoC5/USBUART_1_std.c ****     *  This routine read Die ID and generate Serial Number string descriptor.
 389:Generated_Source\PSoC5/USBUART_1_std.c ****     *
 390:Generated_Source\PSoC5/USBUART_1_std.c ****     *  \param descr:  pointer on string descriptor. This string size has to be equal or
 391:Generated_Source\PSoC5/USBUART_1_std.c ****     *          greater than USBUART_1_IDSN_DESCR_LENGTH.
 392:Generated_Source\PSoC5/USBUART_1_std.c ****     *
 393:Generated_Source\PSoC5/USBUART_1_std.c ****     *
 394:Generated_Source\PSoC5/USBUART_1_std.c ****     * \reentrant
 395:Generated_Source\PSoC5/USBUART_1_std.c ****     *  No.
 396:Generated_Source\PSoC5/USBUART_1_std.c ****     *
 397:Generated_Source\PSoC5/USBUART_1_std.c ****     ***************************************************************************/
 398:Generated_Source\PSoC5/USBUART_1_std.c ****     void USBUART_1_ReadDieID(uint8 descr[]) 
 399:Generated_Source\PSoC5/USBUART_1_std.c ****     {
  27              		.loc 1 399 0
  28              		.cfi_startproc
  29              		@ args = 0, pretend = 0, frame = 32
  30              		@ frame_needed = 0, uses_anonymous_args = 0
  31              	.LVL0:
  32 0000 70B5     		push	{r4, r5, r6, lr}
  33              		.cfi_def_cfa_offset 16
  34              		.cfi_offset 4, -16
  35              		.cfi_offset 5, -12
  36              		.cfi_offset 6, -8
  37              		.cfi_offset 14, -4
  38 0002 88B0     		sub	sp, sp, #32
  39              		.cfi_def_cfa_offset 48
  40 0004 0546     		mov	r5, r0
 400:Generated_Source\PSoC5/USBUART_1_std.c ****         const char8 CYCODE hex[] = "0123456789ABCDEF";
  41              		.loc 1 400 0
  42 0006 03AC     		add	r4, sp, #12
  43 0008 174E     		ldr	r6, .L6
  44 000a 0FCE     		ldmia	r6!, {r0, r1, r2, r3}
  45              	.LVL1:
  46 000c 0FC4     		stmia	r4!, {r0, r1, r2, r3}
  47 000e 3368     		ldr	r3, [r6]
  48 0010 2370     		strb	r3, [r4]
  49              	.LVL2:
 401:Generated_Source\PSoC5/USBUART_1_std.c ****         uint8 i;
 402:Generated_Source\PSoC5/USBUART_1_std.c ****         uint8 j = 0u;
 403:Generated_Source\PSoC5/USBUART_1_std.c ****         uint8 uniqueId[8u];
 404:Generated_Source\PSoC5/USBUART_1_std.c **** 
 405:Generated_Source\PSoC5/USBUART_1_std.c ****         if (NULL != descr)
  50              		.loc 1 405 0
  51 0012 35B3     		cbz	r5, .L1
ARM GAS  C:\Users\DGILLI~1\AppData\Local\Temp\ccItuQxT.s 			page 9


 406:Generated_Source\PSoC5/USBUART_1_std.c ****         {
 407:Generated_Source\PSoC5/USBUART_1_std.c ****             /* Initialize descriptor header. */
 408:Generated_Source\PSoC5/USBUART_1_std.c ****             descr[0u] = USBUART_1_IDSN_DESCR_LENGTH;
  52              		.loc 1 408 0
  53 0014 2223     		movs	r3, #34
  54 0016 2B70     		strb	r3, [r5]
 409:Generated_Source\PSoC5/USBUART_1_std.c ****             descr[1u] = USBUART_1_DESCR_STRING;
  55              		.loc 1 409 0
  56 0018 0323     		movs	r3, #3
  57 001a 6B70     		strb	r3, [r5, #1]
 410:Generated_Source\PSoC5/USBUART_1_std.c ****             
 411:Generated_Source\PSoC5/USBUART_1_std.c ****             /* Unique ID size is 8 bytes. */
 412:Generated_Source\PSoC5/USBUART_1_std.c ****             CyGetUniqueId((uint32 *) uniqueId);
  58              		.loc 1 412 0
  59 001c 01A8     		add	r0, sp, #4
  60 001e FFF7FEFF 		bl	CyGetUniqueId
  61              	.LVL3:
 402:Generated_Source\PSoC5/USBUART_1_std.c ****         uint8 uniqueId[8u];
  62              		.loc 1 402 0
  63 0022 0024     		movs	r4, #0
 413:Generated_Source\PSoC5/USBUART_1_std.c **** 
 414:Generated_Source\PSoC5/USBUART_1_std.c ****             /* Fill descriptor with unique device ID. */
 415:Generated_Source\PSoC5/USBUART_1_std.c ****             for (i = 2u; i < USBUART_1_IDSN_DESCR_LENGTH; i += 4u)
  64              		.loc 1 415 0
  65 0024 0223     		movs	r3, #2
  66 0026 1AE0     		b	.L3
  67              	.LVL4:
  68              	.L4:
 416:Generated_Source\PSoC5/USBUART_1_std.c ****             {
 417:Generated_Source\PSoC5/USBUART_1_std.c ****                 descr[i]      = (uint8) hex[(uniqueId[j] >> 4u)];
  69              		.loc 1 417 0 discriminator 3
  70 0028 08AA     		add	r2, sp, #32
  71 002a 2244     		add	r2, r2, r4
  72 002c 12F81C2C 		ldrb	r2, [r2, #-28]	@ zero_extendqisi2
  73 0030 08A9     		add	r1, sp, #32
  74 0032 01EB1211 		add	r1, r1, r2, lsr #4
  75 0036 11F8141C 		ldrb	r1, [r1, #-20]	@ zero_extendqisi2
  76 003a E954     		strb	r1, [r5, r3]
 418:Generated_Source\PSoC5/USBUART_1_std.c ****                 descr[i + 1u] = 0u;
  77              		.loc 1 418 0 discriminator 3
  78 003c 581C     		adds	r0, r3, #1
  79 003e 0021     		movs	r1, #0
  80 0040 2954     		strb	r1, [r5, r0]
 419:Generated_Source\PSoC5/USBUART_1_std.c ****                 descr[i + 2u] = (uint8) hex[(uniqueId[j] & 0x0Fu)];
  81              		.loc 1 419 0 discriminator 3
  82 0042 981C     		adds	r0, r3, #2
  83 0044 02F00F02 		and	r2, r2, #15
  84 0048 08AE     		add	r6, sp, #32
  85 004a 3244     		add	r2, r2, r6
  86 004c 12F8142C 		ldrb	r2, [r2, #-20]	@ zero_extendqisi2
  87 0050 2A54     		strb	r2, [r5, r0]
 420:Generated_Source\PSoC5/USBUART_1_std.c ****                 descr[i + 3u] = 0u;
  88              		.loc 1 420 0 discriminator 3
  89 0052 DA1C     		adds	r2, r3, #3
  90 0054 A954     		strb	r1, [r5, r2]
 421:Generated_Source\PSoC5/USBUART_1_std.c ****                 ++j;
  91              		.loc 1 421 0 discriminator 3
ARM GAS  C:\Users\DGILLI~1\AppData\Local\Temp\ccItuQxT.s 			page 10


  92 0056 0134     		adds	r4, r4, #1
  93              	.LVL5:
  94 0058 E4B2     		uxtb	r4, r4
  95              	.LVL6:
 415:Generated_Source\PSoC5/USBUART_1_std.c ****             {
  96              		.loc 1 415 0 discriminator 3
  97 005a 0433     		adds	r3, r3, #4
  98              	.LVL7:
  99 005c DBB2     		uxtb	r3, r3
 100              	.LVL8:
 101              	.L3:
 415:Generated_Source\PSoC5/USBUART_1_std.c ****             {
 102              		.loc 1 415 0 is_stmt 0 discriminator 1
 103 005e 212B     		cmp	r3, #33
 104 0060 E2D9     		bls	.L4
 105              	.LVL9:
 106              	.L1:
 422:Generated_Source\PSoC5/USBUART_1_std.c ****             }
 423:Generated_Source\PSoC5/USBUART_1_std.c ****         }
 424:Generated_Source\PSoC5/USBUART_1_std.c ****     }
 107              		.loc 1 424 0 is_stmt 1
 108 0062 08B0     		add	sp, sp, #32
 109              		.cfi_def_cfa_offset 16
 110              		@ sp needed
 111 0064 70BD     		pop	{r4, r5, r6, pc}
 112              	.LVL10:
 113              	.L7:
 114 0066 00BF     		.align	2
 115              	.L6:
 116 0068 00000000 		.word	.LC0
 117              		.cfi_endproc
 118              	.LFE1:
 119              		.size	USBUART_1_ReadDieID, .-USBUART_1_ReadDieID
 120              		.section	.text.USBUART_1_ConfigReg,"ax",%progbits
 121              		.align	2
 122              		.global	USBUART_1_ConfigReg
 123              		.thumb
 124              		.thumb_func
 125              		.type	USBUART_1_ConfigReg, %function
 126              	USBUART_1_ConfigReg:
 127              	.LFB2:
 425:Generated_Source\PSoC5/USBUART_1_std.c **** #endif /* (USBUART_1_ENABLE_IDSN_STRING) */
 426:Generated_Source\PSoC5/USBUART_1_std.c **** 
 427:Generated_Source\PSoC5/USBUART_1_std.c **** 
 428:Generated_Source\PSoC5/USBUART_1_std.c **** /*******************************************************************************
 429:Generated_Source\PSoC5/USBUART_1_std.c **** * Function Name: USBUART_1_ConfigReg
 430:Generated_Source\PSoC5/USBUART_1_std.c **** ****************************************************************************//**
 431:Generated_Source\PSoC5/USBUART_1_std.c **** *
 432:Generated_Source\PSoC5/USBUART_1_std.c **** *  This routine configures hardware registers from the variables.
 433:Generated_Source\PSoC5/USBUART_1_std.c **** *  It is called from USBUART_1_Config() function and from RestoreConfig
 434:Generated_Source\PSoC5/USBUART_1_std.c **** *  after Wakeup.
 435:Generated_Source\PSoC5/USBUART_1_std.c **** *
 436:Generated_Source\PSoC5/USBUART_1_std.c **** *******************************************************************************/
 437:Generated_Source\PSoC5/USBUART_1_std.c **** void USBUART_1_ConfigReg(void) 
 438:Generated_Source\PSoC5/USBUART_1_std.c **** {
 128              		.loc 1 438 0
 129              		.cfi_startproc
ARM GAS  C:\Users\DGILLI~1\AppData\Local\Temp\ccItuQxT.s 			page 11


 130              		@ args = 0, pretend = 0, frame = 0
 131              		@ frame_needed = 0, uses_anonymous_args = 0
 132              		@ link register save eliminated.
 133 0000 10B4     		push	{r4}
 134              		.cfi_def_cfa_offset 4
 135              		.cfi_offset 4, -4
 136              	.LVL11:
 439:Generated_Source\PSoC5/USBUART_1_std.c ****     uint8 ep;
 440:Generated_Source\PSoC5/USBUART_1_std.c **** 
 441:Generated_Source\PSoC5/USBUART_1_std.c **** #if (USBUART_1_EP_MANAGEMENT_DMA_AUTO)
 442:Generated_Source\PSoC5/USBUART_1_std.c ****     uint8 epType = 0u;
 443:Generated_Source\PSoC5/USBUART_1_std.c **** #endif /* (USBUART_1_EP_MANAGEMENT_DMA_AUTO) */
 444:Generated_Source\PSoC5/USBUART_1_std.c **** 
 445:Generated_Source\PSoC5/USBUART_1_std.c ****     /* Go thought all endpoints and set hardware configuration */
 446:Generated_Source\PSoC5/USBUART_1_std.c ****     for (ep = USBUART_1_EP1; ep < USBUART_1_MAX_EP; ++ep)
 137              		.loc 1 446 0
 138 0002 0122     		movs	r2, #1
 139 0004 3DE0     		b	.L9
 140              	.LVL12:
 141              	.L13:
 447:Generated_Source\PSoC5/USBUART_1_std.c ****     {
 448:Generated_Source\PSoC5/USBUART_1_std.c ****         USBUART_1_ARB_EP_BASE.arbEp[ep].epCfg = USBUART_1_ARB_EPX_CFG_DEFAULT;
 142              		.loc 1 448 0
 143 0006 1146     		mov	r1, r2
 144 0008 1301     		lsls	r3, r2, #4
 145 000a 0C24     		movs	r4, #12
 146 000c 2148     		ldr	r0, .L15
 147 000e C454     		strb	r4, [r0, r3]
 449:Generated_Source\PSoC5/USBUART_1_std.c ****         
 450:Generated_Source\PSoC5/USBUART_1_std.c ****     #if (USBUART_1_EP_MANAGEMENT_DMA)
 451:Generated_Source\PSoC5/USBUART_1_std.c ****         /* Enable arbiter endpoint interrupt sources */
 452:Generated_Source\PSoC5/USBUART_1_std.c ****         USBUART_1_ARB_EP_BASE.arbEp[ep].epIntEn = USBUART_1_ARB_EPX_INT_MASK;
 453:Generated_Source\PSoC5/USBUART_1_std.c ****     #endif /* (USBUART_1_EP_MANAGEMENT_DMA) */
 454:Generated_Source\PSoC5/USBUART_1_std.c ****     
 455:Generated_Source\PSoC5/USBUART_1_std.c ****         if (USBUART_1_EP[ep].epMode != USBUART_1_MODE_DISABLE)
 148              		.loc 1 455 0
 149 0010 02EB4203 		add	r3, r2, r2, lsl #1
 150 0014 9B00     		lsls	r3, r3, #2
 151 0016 2048     		ldr	r0, .L15+4
 152 0018 0344     		add	r3, r3, r0
 153 001a 5B79     		ldrb	r3, [r3, #5]	@ zero_extendqisi2
 154 001c 13F0FF0F 		tst	r3, #255
 155 0020 12D0     		beq	.L10
 456:Generated_Source\PSoC5/USBUART_1_std.c ****         {
 457:Generated_Source\PSoC5/USBUART_1_std.c ****             if (0u != (USBUART_1_EP[ep].addr & USBUART_1_DIR_IN))
 156              		.loc 1 457 0
 157 0022 02EB4203 		add	r3, r2, r2, lsl #1
 158 0026 9B00     		lsls	r3, r3, #2
 159 0028 0344     		add	r3, r3, r0
 160 002a 1B79     		ldrb	r3, [r3, #4]	@ zero_extendqisi2
 161 002c 13F0800F 		tst	r3, #128
 162 0030 04D0     		beq	.L11
 458:Generated_Source\PSoC5/USBUART_1_std.c ****             {
 459:Generated_Source\PSoC5/USBUART_1_std.c ****                 USBUART_1_SIE_EP_BASE.sieEp[ep].epCr0 = USBUART_1_MODE_NAK_IN;
 163              		.loc 1 459 0
 164 0032 1001     		lsls	r0, r2, #4
 165 0034 194B     		ldr	r3, .L15+8
ARM GAS  C:\Users\DGILLI~1\AppData\Local\Temp\ccItuQxT.s 			page 12


 166 0036 0344     		add	r3, r3, r0
 167 0038 9C70     		strb	r4, [r3, #2]
 168 003a 0AE0     		b	.L12
 169              	.L11:
 460:Generated_Source\PSoC5/USBUART_1_std.c ****                 
 461:Generated_Source\PSoC5/USBUART_1_std.c ****             #if (USBUART_1_EP_MANAGEMENT_DMA_AUTO && CY_PSOC4)
 462:Generated_Source\PSoC5/USBUART_1_std.c ****                 /* Clear DMA_TERMIN for IN endpoint. */
 463:Generated_Source\PSoC5/USBUART_1_std.c ****                 USBUART_1_ARB_EP_BASE.arbEp[ep].epIntEn &= (uint32) ~USBUART_1_ARB_EPX_INT_DMA_TERM
 464:Generated_Source\PSoC5/USBUART_1_std.c ****             #endif /* (USBUART_1_EP_MANAGEMENT_DMA_AUTO && CY_PSOC4) */
 465:Generated_Source\PSoC5/USBUART_1_std.c ****             }
 466:Generated_Source\PSoC5/USBUART_1_std.c ****             else
 467:Generated_Source\PSoC5/USBUART_1_std.c ****             {
 468:Generated_Source\PSoC5/USBUART_1_std.c ****                 USBUART_1_SIE_EP_BASE.sieEp[ep].epCr0 = USBUART_1_MODE_NAK_OUT;
 170              		.loc 1 468 0
 171 003c 1001     		lsls	r0, r2, #4
 172 003e 174B     		ldr	r3, .L15+8
 173 0040 0344     		add	r3, r3, r0
 174 0042 0820     		movs	r0, #8
 175 0044 9870     		strb	r0, [r3, #2]
 176 0046 04E0     		b	.L12
 177              	.L10:
 469:Generated_Source\PSoC5/USBUART_1_std.c **** 
 470:Generated_Source\PSoC5/USBUART_1_std.c ****             #if (USBUART_1_EP_MANAGEMENT_DMA_AUTO)
 471:Generated_Source\PSoC5/USBUART_1_std.c ****                 /* (CY_PSOC4): DMA_TERMIN for OUT endpoint is set above. */
 472:Generated_Source\PSoC5/USBUART_1_std.c ****                 
 473:Generated_Source\PSoC5/USBUART_1_std.c ****                 /* Prepare endpoint type mask. */
 474:Generated_Source\PSoC5/USBUART_1_std.c ****                 epType |= (uint8) (0x01u << (ep - USBUART_1_EP1));
 475:Generated_Source\PSoC5/USBUART_1_std.c ****             #endif /* (USBUART_1_EP_MANAGEMENT_DMA_AUTO) */
 476:Generated_Source\PSoC5/USBUART_1_std.c ****             }
 477:Generated_Source\PSoC5/USBUART_1_std.c ****         }
 478:Generated_Source\PSoC5/USBUART_1_std.c ****         else
 479:Generated_Source\PSoC5/USBUART_1_std.c ****         {
 480:Generated_Source\PSoC5/USBUART_1_std.c ****             USBUART_1_SIE_EP_BASE.sieEp[ep].epCr0 = USBUART_1_MODE_STALL_DATA_EP;
 178              		.loc 1 480 0
 179 0048 1001     		lsls	r0, r2, #4
 180 004a 144B     		ldr	r3, .L15+8
 181 004c 0344     		add	r3, r3, r0
 182 004e 8020     		movs	r0, #128
 183 0050 9870     		strb	r0, [r3, #2]
 184              	.L12:
 481:Generated_Source\PSoC5/USBUART_1_std.c ****         }
 482:Generated_Source\PSoC5/USBUART_1_std.c ****         
 483:Generated_Source\PSoC5/USBUART_1_std.c ****     #if (!USBUART_1_EP_MANAGEMENT_DMA_AUTO)
 484:Generated_Source\PSoC5/USBUART_1_std.c ****         #if (CY_PSOC4)
 485:Generated_Source\PSoC5/USBUART_1_std.c ****             USBUART_1_ARB_EP16_BASE.arbEp[ep].rwRa16  = (uint32) USBUART_1_EP[ep].buffOffset;
 486:Generated_Source\PSoC5/USBUART_1_std.c ****             USBUART_1_ARB_EP16_BASE.arbEp[ep].rwWa16  = (uint32) USBUART_1_EP[ep].buffOffset;
 487:Generated_Source\PSoC5/USBUART_1_std.c ****         #else
 488:Generated_Source\PSoC5/USBUART_1_std.c ****             USBUART_1_ARB_EP_BASE.arbEp[ep].rwRa    = LO8(USBUART_1_EP[ep].buffOffset);
 185              		.loc 1 488 0 discriminator 2
 186 0052 4B00     		lsls	r3, r1, #1
 187 0054 0B44     		add	r3, r3, r1
 188 0056 9B00     		lsls	r3, r3, #2
 189 0058 0F48     		ldr	r0, .L15+4
 190 005a 0344     		add	r3, r3, r0
 191 005c DC88     		ldrh	r4, [r3, #6]
 192 005e E4B2     		uxtb	r4, r4
 193 0060 0801     		lsls	r0, r1, #4
ARM GAS  C:\Users\DGILLI~1\AppData\Local\Temp\ccItuQxT.s 			page 13


 194 0062 0C49     		ldr	r1, .L15
 195 0064 0144     		add	r1, r1, r0
 196 0066 8C71     		strb	r4, [r1, #6]
 489:Generated_Source\PSoC5/USBUART_1_std.c ****             USBUART_1_ARB_EP_BASE.arbEp[ep].rwRaMsb = HI8(USBUART_1_EP[ep].buffOffset);
 197              		.loc 1 489 0 discriminator 2
 198 0068 D888     		ldrh	r0, [r3, #6]
 199 006a C0F30720 		ubfx	r0, r0, #8, #8
 200 006e C871     		strb	r0, [r1, #7]
 490:Generated_Source\PSoC5/USBUART_1_std.c ****             USBUART_1_ARB_EP_BASE.arbEp[ep].rwWa    = LO8(USBUART_1_EP[ep].buffOffset);
 201              		.loc 1 490 0 discriminator 2
 202 0070 D888     		ldrh	r0, [r3, #6]
 203 0072 C0B2     		uxtb	r0, r0
 204 0074 0871     		strb	r0, [r1, #4]
 491:Generated_Source\PSoC5/USBUART_1_std.c ****             USBUART_1_ARB_EP_BASE.arbEp[ep].rwWaMsb = HI8(USBUART_1_EP[ep].buffOffset);
 205              		.loc 1 491 0 discriminator 2
 206 0076 DB88     		ldrh	r3, [r3, #6]
 207 0078 C3F30723 		ubfx	r3, r3, #8, #8
 208 007c 4B71     		strb	r3, [r1, #5]
 446:Generated_Source\PSoC5/USBUART_1_std.c ****     {
 209              		.loc 1 446 0 discriminator 2
 210 007e 0132     		adds	r2, r2, #1
 211              	.LVL13:
 212 0080 D2B2     		uxtb	r2, r2
 213              	.LVL14:
 214              	.L9:
 446:Generated_Source\PSoC5/USBUART_1_std.c ****     {
 215              		.loc 1 446 0 is_stmt 0 discriminator 1
 216 0082 082A     		cmp	r2, #8
 217 0084 BFD9     		bls	.L13
 492:Generated_Source\PSoC5/USBUART_1_std.c ****         #endif /* (CY_PSOC4) */
 493:Generated_Source\PSoC5/USBUART_1_std.c ****     #endif /* (!USBUART_1_EP_MANAGEMENT_DMA_AUTO) */
 494:Generated_Source\PSoC5/USBUART_1_std.c ****     }
 495:Generated_Source\PSoC5/USBUART_1_std.c **** 
 496:Generated_Source\PSoC5/USBUART_1_std.c **** #if (USBUART_1_EP_MANAGEMENT_DMA_AUTO)
 497:Generated_Source\PSoC5/USBUART_1_std.c ****      /* BUF_SIZE depend on DMA_THRESS value:0x55-32 bytes  0x44-16 bytes 0x33-8 bytes 0x22-4 bytes 
 498:Generated_Source\PSoC5/USBUART_1_std.c ****     USBUART_1_BUF_SIZE_REG = USBUART_1_DMA_BUF_SIZE;
 499:Generated_Source\PSoC5/USBUART_1_std.c **** 
 500:Generated_Source\PSoC5/USBUART_1_std.c ****     /* Configure DMA burst threshold */
 501:Generated_Source\PSoC5/USBUART_1_std.c **** #if (CY_PSOC4)
 502:Generated_Source\PSoC5/USBUART_1_std.c ****     USBUART_1_DMA_THRES16_REG   = USBUART_1_DMA_BYTES_PER_BURST;
 503:Generated_Source\PSoC5/USBUART_1_std.c **** #else
 504:Generated_Source\PSoC5/USBUART_1_std.c ****     USBUART_1_DMA_THRES_REG     = USBUART_1_DMA_BYTES_PER_BURST;
 505:Generated_Source\PSoC5/USBUART_1_std.c ****     USBUART_1_DMA_THRES_MSB_REG = 0u;
 506:Generated_Source\PSoC5/USBUART_1_std.c **** #endif /* (CY_PSOC4) */
 507:Generated_Source\PSoC5/USBUART_1_std.c ****     USBUART_1_EP_ACTIVE_REG = USBUART_1_DEFAULT_ARB_INT_EN;
 508:Generated_Source\PSoC5/USBUART_1_std.c ****     USBUART_1_EP_TYPE_REG   = epType;
 509:Generated_Source\PSoC5/USBUART_1_std.c ****     
 510:Generated_Source\PSoC5/USBUART_1_std.c ****     /* Cfg_cmp bit set to 1 once configuration is complete. */
 511:Generated_Source\PSoC5/USBUART_1_std.c ****     /* Lock arbiter configtuation */
 512:Generated_Source\PSoC5/USBUART_1_std.c ****     USBUART_1_ARB_CFG_REG |= (uint8)  USBUART_1_ARB_CFG_CFG_CMP;
 513:Generated_Source\PSoC5/USBUART_1_std.c ****     /* Cfg_cmp bit set to 0 during configuration of PFSUSB Registers. */
 514:Generated_Source\PSoC5/USBUART_1_std.c ****     USBUART_1_ARB_CFG_REG &= (uint8) ~USBUART_1_ARB_CFG_CFG_CMP;
 515:Generated_Source\PSoC5/USBUART_1_std.c **** 
 516:Generated_Source\PSoC5/USBUART_1_std.c **** #endif /* (USBUART_1_EP_MANAGEMENT_DMA_AUTO) */
 517:Generated_Source\PSoC5/USBUART_1_std.c **** 
 518:Generated_Source\PSoC5/USBUART_1_std.c ****     /* Enable interrupt SIE interurpt source from EP0-EP1 */
 519:Generated_Source\PSoC5/USBUART_1_std.c ****     USBUART_1_SIE_EP_INT_EN_REG = (uint8) USBUART_1_DEFAULT_SIE_EP_INT_EN;
ARM GAS  C:\Users\DGILLI~1\AppData\Local\Temp\ccItuQxT.s 			page 14


 218              		.loc 1 519 0 is_stmt 1
 219 0086 FF22     		movs	r2, #255
 220              	.LVL15:
 221 0088 054B     		ldr	r3, .L15+12
 222 008a 1A70     		strb	r2, [r3]
 520:Generated_Source\PSoC5/USBUART_1_std.c **** }
 223              		.loc 1 520 0
 224 008c 5DF8044B 		ldr	r4, [sp], #4
 225              		.cfi_restore 4
 226              		.cfi_def_cfa_offset 0
 227 0090 7047     		bx	lr
 228              	.L16:
 229 0092 00BF     		.align	2
 230              	.L15:
 231 0094 70600040 		.word	1073766512
 232 0098 00000000 		.word	USBUART_1_EP
 233 009c FC5F0040 		.word	1073766396
 234 00a0 0A600040 		.word	1073766410
 235              		.cfi_endproc
 236              	.LFE2:
 237              		.size	USBUART_1_ConfigReg, .-USBUART_1_ConfigReg
 238              		.section	.text.USBUART_1_EpStateInit,"ax",%progbits
 239              		.align	2
 240              		.global	USBUART_1_EpStateInit
 241              		.thumb
 242              		.thumb_func
 243              		.type	USBUART_1_EpStateInit, %function
 244              	USBUART_1_EpStateInit:
 245              	.LFB3:
 521:Generated_Source\PSoC5/USBUART_1_std.c **** 
 522:Generated_Source\PSoC5/USBUART_1_std.c **** 
 523:Generated_Source\PSoC5/USBUART_1_std.c **** /*******************************************************************************
 524:Generated_Source\PSoC5/USBUART_1_std.c **** * Function Name: USBUART_1_EpStateInit
 525:Generated_Source\PSoC5/USBUART_1_std.c **** ****************************************************************************//**
 526:Generated_Source\PSoC5/USBUART_1_std.c **** *
 527:Generated_Source\PSoC5/USBUART_1_std.c **** *  This routine initialize state of Data end points based of its type: 
 528:Generated_Source\PSoC5/USBUART_1_std.c **** *   IN  - USBUART_1_IN_BUFFER_EMPTY (USBUART_1_EVENT_PENDING)
 529:Generated_Source\PSoC5/USBUART_1_std.c **** *   OUT - USBUART_1_OUT_BUFFER_EMPTY (USBUART_1_NO_EVENT_PENDING)
 530:Generated_Source\PSoC5/USBUART_1_std.c **** *
 531:Generated_Source\PSoC5/USBUART_1_std.c **** *******************************************************************************/
 532:Generated_Source\PSoC5/USBUART_1_std.c **** void USBUART_1_EpStateInit(void) 
 533:Generated_Source\PSoC5/USBUART_1_std.c **** {
 246              		.loc 1 533 0
 247              		.cfi_startproc
 248              		@ args = 0, pretend = 0, frame = 0
 249              		@ frame_needed = 0, uses_anonymous_args = 0
 250              		@ link register save eliminated.
 251              	.LVL16:
 534:Generated_Source\PSoC5/USBUART_1_std.c ****     uint8 i;
 535:Generated_Source\PSoC5/USBUART_1_std.c **** 
 536:Generated_Source\PSoC5/USBUART_1_std.c ****     for (i = USBUART_1_EP1; i < USBUART_1_MAX_EP; i++)
 252              		.loc 1 536 0
 253 0000 0123     		movs	r3, #1
 254 0002 18E0     		b	.L18
 255              	.LVL17:
 256              	.L21:
 537:Generated_Source\PSoC5/USBUART_1_std.c ****     { 
ARM GAS  C:\Users\DGILLI~1\AppData\Local\Temp\ccItuQxT.s 			page 15


 538:Generated_Source\PSoC5/USBUART_1_std.c ****         if (0u != (USBUART_1_EP[i].addr & USBUART_1_DIR_IN))
 257              		.loc 1 538 0
 258 0004 03EB4302 		add	r2, r3, r3, lsl #1
 259 0008 9200     		lsls	r2, r2, #2
 260 000a 0C49     		ldr	r1, .L22
 261 000c 0A44     		add	r2, r2, r1
 262 000e 1279     		ldrb	r2, [r2, #4]	@ zero_extendqisi2
 263 0010 12F0800F 		tst	r2, #128
 264 0014 06D0     		beq	.L19
 539:Generated_Source\PSoC5/USBUART_1_std.c ****         {
 540:Generated_Source\PSoC5/USBUART_1_std.c ****             /* IN Endpoint */
 541:Generated_Source\PSoC5/USBUART_1_std.c ****             USBUART_1_EP[i].apiEpState = USBUART_1_EVENT_PENDING;
 265              		.loc 1 541 0
 266 0016 03EB4302 		add	r2, r3, r3, lsl #1
 267 001a 9200     		lsls	r2, r2, #2
 268 001c 0A44     		add	r2, r2, r1
 269 001e 0121     		movs	r1, #1
 270 0020 5170     		strb	r1, [r2, #1]
 271 0022 06E0     		b	.L20
 272              	.L19:
 542:Generated_Source\PSoC5/USBUART_1_std.c ****         }
 543:Generated_Source\PSoC5/USBUART_1_std.c ****         else
 544:Generated_Source\PSoC5/USBUART_1_std.c ****         {
 545:Generated_Source\PSoC5/USBUART_1_std.c ****             /* OUT Endpoint */
 546:Generated_Source\PSoC5/USBUART_1_std.c ****             USBUART_1_EP[i].apiEpState = USBUART_1_NO_EVENT_PENDING;
 273              		.loc 1 546 0
 274 0024 03EB4302 		add	r2, r3, r3, lsl #1
 275 0028 9200     		lsls	r2, r2, #2
 276 002a 0449     		ldr	r1, .L22
 277 002c 0A44     		add	r2, r2, r1
 278 002e 0021     		movs	r1, #0
 279 0030 5170     		strb	r1, [r2, #1]
 280              	.L20:
 536:Generated_Source\PSoC5/USBUART_1_std.c ****     { 
 281              		.loc 1 536 0 discriminator 2
 282 0032 0133     		adds	r3, r3, #1
 283              	.LVL18:
 284 0034 DBB2     		uxtb	r3, r3
 285              	.LVL19:
 286              	.L18:
 536:Generated_Source\PSoC5/USBUART_1_std.c ****     { 
 287              		.loc 1 536 0 is_stmt 0 discriminator 1
 288 0036 082B     		cmp	r3, #8
 289 0038 E4D9     		bls	.L21
 547:Generated_Source\PSoC5/USBUART_1_std.c ****         }
 548:Generated_Source\PSoC5/USBUART_1_std.c ****     }
 549:Generated_Source\PSoC5/USBUART_1_std.c ****                     
 550:Generated_Source\PSoC5/USBUART_1_std.c **** }
 290              		.loc 1 550 0 is_stmt 1
 291 003a 7047     		bx	lr
 292              	.L23:
 293              		.align	2
 294              	.L22:
 295 003c 00000000 		.word	USBUART_1_EP
 296              		.cfi_endproc
 297              	.LFE3:
 298              		.size	USBUART_1_EpStateInit, .-USBUART_1_EpStateInit
ARM GAS  C:\Users\DGILLI~1\AppData\Local\Temp\ccItuQxT.s 			page 16


 299              		.section	.text.USBUART_1_GetConfigTablePtr,"ax",%progbits
 300              		.align	2
 301              		.global	USBUART_1_GetConfigTablePtr
 302              		.thumb
 303              		.thumb_func
 304              		.type	USBUART_1_GetConfigTablePtr, %function
 305              	USBUART_1_GetConfigTablePtr:
 306              	.LFB6:
 551:Generated_Source\PSoC5/USBUART_1_std.c **** 
 552:Generated_Source\PSoC5/USBUART_1_std.c **** 
 553:Generated_Source\PSoC5/USBUART_1_std.c **** /*******************************************************************************
 554:Generated_Source\PSoC5/USBUART_1_std.c **** * Function Name: USBUART_1_Config
 555:Generated_Source\PSoC5/USBUART_1_std.c **** ****************************************************************************//**
 556:Generated_Source\PSoC5/USBUART_1_std.c **** *
 557:Generated_Source\PSoC5/USBUART_1_std.c **** *  This routine configures endpoints for the entire configuration by scanning
 558:Generated_Source\PSoC5/USBUART_1_std.c **** *  the configuration descriptor.
 559:Generated_Source\PSoC5/USBUART_1_std.c **** *
 560:Generated_Source\PSoC5/USBUART_1_std.c **** *  \param clearAltSetting: It configures the bAlternateSetting 0 for each interface.
 561:Generated_Source\PSoC5/USBUART_1_std.c **** *
 562:Generated_Source\PSoC5/USBUART_1_std.c **** * USBUART_1_interfaceClass - Initialized class array for each interface.
 563:Generated_Source\PSoC5/USBUART_1_std.c **** *   It is used for handling Class specific requests depend on interface class.
 564:Generated_Source\PSoC5/USBUART_1_std.c **** *   Different classes in multiple Alternate settings does not supported.
 565:Generated_Source\PSoC5/USBUART_1_std.c **** *
 566:Generated_Source\PSoC5/USBUART_1_std.c **** * \reentrant
 567:Generated_Source\PSoC5/USBUART_1_std.c **** *  No.
 568:Generated_Source\PSoC5/USBUART_1_std.c **** *
 569:Generated_Source\PSoC5/USBUART_1_std.c **** *******************************************************************************/
 570:Generated_Source\PSoC5/USBUART_1_std.c **** void USBUART_1_Config(uint8 clearAltSetting) 
 571:Generated_Source\PSoC5/USBUART_1_std.c **** {
 572:Generated_Source\PSoC5/USBUART_1_std.c ****     uint8 ep;
 573:Generated_Source\PSoC5/USBUART_1_std.c ****     uint8 curEp;
 574:Generated_Source\PSoC5/USBUART_1_std.c ****     uint8 i;
 575:Generated_Source\PSoC5/USBUART_1_std.c ****     uint8 epType;
 576:Generated_Source\PSoC5/USBUART_1_std.c ****     const uint8 *pDescr;
 577:Generated_Source\PSoC5/USBUART_1_std.c ****     
 578:Generated_Source\PSoC5/USBUART_1_std.c ****     #if (!USBUART_1_EP_MANAGEMENT_DMA_AUTO)
 579:Generated_Source\PSoC5/USBUART_1_std.c ****         uint16 buffCount = 0u;
 580:Generated_Source\PSoC5/USBUART_1_std.c ****     #endif /* (!USBUART_1_EP_MANAGEMENT_DMA_AUTO) */
 581:Generated_Source\PSoC5/USBUART_1_std.c **** 
 582:Generated_Source\PSoC5/USBUART_1_std.c ****     const T_USBUART_1_LUT CYCODE *pTmp;
 583:Generated_Source\PSoC5/USBUART_1_std.c ****     const T_USBUART_1_EP_SETTINGS_BLOCK CYCODE *pEP;
 584:Generated_Source\PSoC5/USBUART_1_std.c **** 
 585:Generated_Source\PSoC5/USBUART_1_std.c ****     /* Clear endpoints settings */
 586:Generated_Source\PSoC5/USBUART_1_std.c ****     for (ep = 0u; ep < USBUART_1_MAX_EP; ++ep)
 587:Generated_Source\PSoC5/USBUART_1_std.c ****     {
 588:Generated_Source\PSoC5/USBUART_1_std.c ****         USBUART_1_EP[ep].attrib     = 0u;
 589:Generated_Source\PSoC5/USBUART_1_std.c ****         USBUART_1_EP[ep].hwEpState  = 0u;
 590:Generated_Source\PSoC5/USBUART_1_std.c ****         USBUART_1_EP[ep].epToggle   = 0u;
 591:Generated_Source\PSoC5/USBUART_1_std.c ****         USBUART_1_EP[ep].bufferSize = 0u;
 592:Generated_Source\PSoC5/USBUART_1_std.c ****         USBUART_1_EP[ep].interface  = 0u;
 593:Generated_Source\PSoC5/USBUART_1_std.c ****         USBUART_1_EP[ep].apiEpState = USBUART_1_NO_EVENT_PENDING;
 594:Generated_Source\PSoC5/USBUART_1_std.c ****         USBUART_1_EP[ep].epMode     = USBUART_1_MODE_DISABLE;   
 595:Generated_Source\PSoC5/USBUART_1_std.c ****     }
 596:Generated_Source\PSoC5/USBUART_1_std.c **** 
 597:Generated_Source\PSoC5/USBUART_1_std.c ****     /* Clear Alternate settings for all interfaces. */
 598:Generated_Source\PSoC5/USBUART_1_std.c ****     if (0u != clearAltSetting)
 599:Generated_Source\PSoC5/USBUART_1_std.c ****     {
ARM GAS  C:\Users\DGILLI~1\AppData\Local\Temp\ccItuQxT.s 			page 17


 600:Generated_Source\PSoC5/USBUART_1_std.c ****         for (i = 0u; i < USBUART_1_MAX_INTERFACES_NUMBER; ++i)
 601:Generated_Source\PSoC5/USBUART_1_std.c ****         {
 602:Generated_Source\PSoC5/USBUART_1_std.c ****             USBUART_1_interfaceSetting[i]     = 0u;
 603:Generated_Source\PSoC5/USBUART_1_std.c ****             USBUART_1_interfaceSettingLast[i] = 0u;
 604:Generated_Source\PSoC5/USBUART_1_std.c ****         }
 605:Generated_Source\PSoC5/USBUART_1_std.c ****     }
 606:Generated_Source\PSoC5/USBUART_1_std.c **** 
 607:Generated_Source\PSoC5/USBUART_1_std.c ****     /* Init Endpoints and Device Status if configured */
 608:Generated_Source\PSoC5/USBUART_1_std.c ****     if (USBUART_1_configuration > 0u)
 609:Generated_Source\PSoC5/USBUART_1_std.c ****     {
 610:Generated_Source\PSoC5/USBUART_1_std.c ****         #if defined(USBUART_1_ENABLE_CDC_CLASS)
 611:Generated_Source\PSoC5/USBUART_1_std.c ****             uint8 cdcComNums = 0u;
 612:Generated_Source\PSoC5/USBUART_1_std.c ****         #endif  /* (USBUART_1_ENABLE_CDC_CLASS) */  
 613:Generated_Source\PSoC5/USBUART_1_std.c **** 
 614:Generated_Source\PSoC5/USBUART_1_std.c ****         pTmp = USBUART_1_GetConfigTablePtr(USBUART_1_configuration - 1u);
 615:Generated_Source\PSoC5/USBUART_1_std.c ****         
 616:Generated_Source\PSoC5/USBUART_1_std.c ****         /* Set Power status for current configuration */
 617:Generated_Source\PSoC5/USBUART_1_std.c ****         pDescr = (const uint8 *)pTmp->p_list;
 618:Generated_Source\PSoC5/USBUART_1_std.c ****         if ((pDescr[USBUART_1_CONFIG_DESCR_ATTRIB] & USBUART_1_CONFIG_DESCR_ATTRIB_SELF_POWERED) !=
 619:Generated_Source\PSoC5/USBUART_1_std.c ****         {
 620:Generated_Source\PSoC5/USBUART_1_std.c ****             USBUART_1_deviceStatus |= (uint8)  USBUART_1_DEVICE_STATUS_SELF_POWERED;
 621:Generated_Source\PSoC5/USBUART_1_std.c ****         }
 622:Generated_Source\PSoC5/USBUART_1_std.c ****         else
 623:Generated_Source\PSoC5/USBUART_1_std.c ****         {
 624:Generated_Source\PSoC5/USBUART_1_std.c ****             USBUART_1_deviceStatus &= (uint8) ~USBUART_1_DEVICE_STATUS_SELF_POWERED;
 625:Generated_Source\PSoC5/USBUART_1_std.c ****         }
 626:Generated_Source\PSoC5/USBUART_1_std.c ****         
 627:Generated_Source\PSoC5/USBUART_1_std.c ****         /* Move to next element */
 628:Generated_Source\PSoC5/USBUART_1_std.c ****         pTmp = &pTmp[1u];
 629:Generated_Source\PSoC5/USBUART_1_std.c ****         ep = pTmp->c;  /* For this table, c is the number of endpoints configurations  */
 630:Generated_Source\PSoC5/USBUART_1_std.c **** 
 631:Generated_Source\PSoC5/USBUART_1_std.c ****         #if (USBUART_1_EP_MANAGEMENT_MANUAL && USBUART_1_EP_ALLOC_DYNAMIC)
 632:Generated_Source\PSoC5/USBUART_1_std.c ****             /* Configure for dynamic EP memory allocation */
 633:Generated_Source\PSoC5/USBUART_1_std.c ****             /* p_list points the endpoint setting table. */
 634:Generated_Source\PSoC5/USBUART_1_std.c ****             pEP = (T_USBUART_1_EP_SETTINGS_BLOCK *) pTmp->p_list;
 635:Generated_Source\PSoC5/USBUART_1_std.c ****             
 636:Generated_Source\PSoC5/USBUART_1_std.c ****             for (i = 0u; i < ep; i++)
 637:Generated_Source\PSoC5/USBUART_1_std.c ****             {     
 638:Generated_Source\PSoC5/USBUART_1_std.c ****                 /* Compare current Alternate setting with EP Alt */
 639:Generated_Source\PSoC5/USBUART_1_std.c ****                 if (USBUART_1_interfaceSetting[pEP->interface] == pEP->altSetting)
 640:Generated_Source\PSoC5/USBUART_1_std.c ****                 {                                                          
 641:Generated_Source\PSoC5/USBUART_1_std.c ****                     curEp  = pEP->addr & USBUART_1_DIR_UNUSED;
 642:Generated_Source\PSoC5/USBUART_1_std.c ****                     epType = pEP->attributes & USBUART_1_EP_TYPE_MASK;
 643:Generated_Source\PSoC5/USBUART_1_std.c ****                     
 644:Generated_Source\PSoC5/USBUART_1_std.c ****                     USBUART_1_EP[curEp].addr       = pEP->addr;
 645:Generated_Source\PSoC5/USBUART_1_std.c ****                     USBUART_1_EP[curEp].attrib     = pEP->attributes;
 646:Generated_Source\PSoC5/USBUART_1_std.c ****                     USBUART_1_EP[curEp].bufferSize = pEP->bufferSize;
 647:Generated_Source\PSoC5/USBUART_1_std.c **** 
 648:Generated_Source\PSoC5/USBUART_1_std.c ****                     if (0u != (pEP->addr & USBUART_1_DIR_IN))
 649:Generated_Source\PSoC5/USBUART_1_std.c ****                     {
 650:Generated_Source\PSoC5/USBUART_1_std.c ****                         /* IN Endpoint */
 651:Generated_Source\PSoC5/USBUART_1_std.c ****                         USBUART_1_EP[curEp].epMode     = USBUART_1_GET_ACTIVE_IN_EP_CR0_MODE(epType
 652:Generated_Source\PSoC5/USBUART_1_std.c ****                         USBUART_1_EP[curEp].apiEpState = USBUART_1_EVENT_PENDING;
 653:Generated_Source\PSoC5/USBUART_1_std.c ****                     
 654:Generated_Source\PSoC5/USBUART_1_std.c ****                     #if (defined(USBUART_1_ENABLE_MIDI_STREAMING) && (USBUART_1_MIDI_IN_BUFF_SIZE >
 655:Generated_Source\PSoC5/USBUART_1_std.c ****                         if ((pEP->bMisc == USBUART_1_CLASS_AUDIO) && (epType == USBUART_1_EP_TYPE_B
 656:Generated_Source\PSoC5/USBUART_1_std.c ****                         {
ARM GAS  C:\Users\DGILLI~1\AppData\Local\Temp\ccItuQxT.s 			page 18


 657:Generated_Source\PSoC5/USBUART_1_std.c ****                             USBUART_1_midi_in_ep = curEp;
 658:Generated_Source\PSoC5/USBUART_1_std.c ****                         }
 659:Generated_Source\PSoC5/USBUART_1_std.c ****                     #endif  /* (USBUART_1_ENABLE_MIDI_STREAMING) */
 660:Generated_Source\PSoC5/USBUART_1_std.c ****                     }
 661:Generated_Source\PSoC5/USBUART_1_std.c ****                     else
 662:Generated_Source\PSoC5/USBUART_1_std.c ****                     {
 663:Generated_Source\PSoC5/USBUART_1_std.c ****                         /* OUT Endpoint */
 664:Generated_Source\PSoC5/USBUART_1_std.c ****                         USBUART_1_EP[curEp].epMode     = USBUART_1_GET_ACTIVE_OUT_EP_CR0_MODE(epTyp
 665:Generated_Source\PSoC5/USBUART_1_std.c ****                         USBUART_1_EP[curEp].apiEpState = USBUART_1_NO_EVENT_PENDING;
 666:Generated_Source\PSoC5/USBUART_1_std.c ****                         
 667:Generated_Source\PSoC5/USBUART_1_std.c ****                     #if (defined(USBUART_1_ENABLE_MIDI_STREAMING) && (USBUART_1_MIDI_OUT_BUFF_SIZE 
 668:Generated_Source\PSoC5/USBUART_1_std.c ****                         if ((pEP->bMisc == USBUART_1_CLASS_AUDIO) && (epType == USBUART_1_EP_TYPE_B
 669:Generated_Source\PSoC5/USBUART_1_std.c ****                         {
 670:Generated_Source\PSoC5/USBUART_1_std.c ****                             USBUART_1_midi_out_ep = curEp;
 671:Generated_Source\PSoC5/USBUART_1_std.c ****                         }
 672:Generated_Source\PSoC5/USBUART_1_std.c ****                     #endif  /* (USBUART_1_ENABLE_MIDI_STREAMING) */
 673:Generated_Source\PSoC5/USBUART_1_std.c ****                     }
 674:Generated_Source\PSoC5/USBUART_1_std.c **** 
 675:Generated_Source\PSoC5/USBUART_1_std.c ****                 #if(defined (USBUART_1_ENABLE_CDC_CLASS))
 676:Generated_Source\PSoC5/USBUART_1_std.c ****                     if((pEP->bMisc == USBUART_1_CLASS_CDC_DATA) ||(pEP->bMisc == USBUART_1_CLASS_CD
 677:Generated_Source\PSoC5/USBUART_1_std.c ****                     {
 678:Generated_Source\PSoC5/USBUART_1_std.c ****                         cdcComNums = USBUART_1_Cdc_EpInit(pEP, curEp, cdcComNums);
 679:Generated_Source\PSoC5/USBUART_1_std.c ****                     }
 680:Generated_Source\PSoC5/USBUART_1_std.c ****                 #endif  /* (USBUART_1_ENABLE_CDC_CLASS) */
 681:Generated_Source\PSoC5/USBUART_1_std.c ****                 }
 682:Generated_Source\PSoC5/USBUART_1_std.c ****                 
 683:Generated_Source\PSoC5/USBUART_1_std.c ****                 pEP = &pEP[1u];
 684:Generated_Source\PSoC5/USBUART_1_std.c ****             }
 685:Generated_Source\PSoC5/USBUART_1_std.c ****             
 686:Generated_Source\PSoC5/USBUART_1_std.c ****         #else
 687:Generated_Source\PSoC5/USBUART_1_std.c ****             for (i = USBUART_1_EP1; i < USBUART_1_MAX_EP; ++i)
 688:Generated_Source\PSoC5/USBUART_1_std.c ****             {
 689:Generated_Source\PSoC5/USBUART_1_std.c ****                 /* p_list points the endpoint setting table. */
 690:Generated_Source\PSoC5/USBUART_1_std.c ****                 pEP = (const T_USBUART_1_EP_SETTINGS_BLOCK CYCODE *) pTmp->p_list;
 691:Generated_Source\PSoC5/USBUART_1_std.c ****                 /* Find max length for each EP and select it (length could be different in differen
 692:Generated_Source\PSoC5/USBUART_1_std.c ****                 /* but other settings should be correct with regards to Interface alt Setting */
 693:Generated_Source\PSoC5/USBUART_1_std.c ****                 
 694:Generated_Source\PSoC5/USBUART_1_std.c ****                 for (curEp = 0u; curEp < ep; ++curEp)
 695:Generated_Source\PSoC5/USBUART_1_std.c ****                 {
 696:Generated_Source\PSoC5/USBUART_1_std.c ****                     if (i == (pEP->addr & USBUART_1_DIR_UNUSED))
 697:Generated_Source\PSoC5/USBUART_1_std.c ****                     {
 698:Generated_Source\PSoC5/USBUART_1_std.c ****                         /* Compare endpoint buffers size with current size to find greater. */
 699:Generated_Source\PSoC5/USBUART_1_std.c ****                         if (USBUART_1_EP[i].bufferSize < pEP->bufferSize)
 700:Generated_Source\PSoC5/USBUART_1_std.c ****                         {
 701:Generated_Source\PSoC5/USBUART_1_std.c ****                             USBUART_1_EP[i].bufferSize = pEP->bufferSize;
 702:Generated_Source\PSoC5/USBUART_1_std.c ****                         }
 703:Generated_Source\PSoC5/USBUART_1_std.c ****                         
 704:Generated_Source\PSoC5/USBUART_1_std.c ****                         /* Compare current Alternate setting with EP Alt */
 705:Generated_Source\PSoC5/USBUART_1_std.c ****                         if (USBUART_1_interfaceSetting[pEP->interface] == pEP->altSetting)
 706:Generated_Source\PSoC5/USBUART_1_std.c ****                         {                            
 707:Generated_Source\PSoC5/USBUART_1_std.c ****                             USBUART_1_EP[i].addr = pEP->addr;
 708:Generated_Source\PSoC5/USBUART_1_std.c ****                             USBUART_1_EP[i].attrib = pEP->attributes;
 709:Generated_Source\PSoC5/USBUART_1_std.c ****                             
 710:Generated_Source\PSoC5/USBUART_1_std.c ****                             epType = pEP->attributes & USBUART_1_EP_TYPE_MASK;
 711:Generated_Source\PSoC5/USBUART_1_std.c ****                             
 712:Generated_Source\PSoC5/USBUART_1_std.c ****                             if (0u != (pEP->addr & USBUART_1_DIR_IN))
 713:Generated_Source\PSoC5/USBUART_1_std.c ****                             {
ARM GAS  C:\Users\DGILLI~1\AppData\Local\Temp\ccItuQxT.s 			page 19


 714:Generated_Source\PSoC5/USBUART_1_std.c ****                                 /* IN Endpoint */
 715:Generated_Source\PSoC5/USBUART_1_std.c ****                                 USBUART_1_EP[i].epMode     = USBUART_1_GET_ACTIVE_IN_EP_CR0_MODE(ep
 716:Generated_Source\PSoC5/USBUART_1_std.c ****                                 USBUART_1_EP[i].apiEpState = USBUART_1_EVENT_PENDING;
 717:Generated_Source\PSoC5/USBUART_1_std.c ****                                 
 718:Generated_Source\PSoC5/USBUART_1_std.c ****                             #if (defined(USBUART_1_ENABLE_MIDI_STREAMING) && (USBUART_1_MIDI_IN_BUF
 719:Generated_Source\PSoC5/USBUART_1_std.c ****                                 if ((pEP->bMisc == USBUART_1_CLASS_AUDIO) && (epType == USBUART_1_E
 720:Generated_Source\PSoC5/USBUART_1_std.c ****                                 {
 721:Generated_Source\PSoC5/USBUART_1_std.c ****                                     USBUART_1_midi_in_ep = i;
 722:Generated_Source\PSoC5/USBUART_1_std.c ****                                 }
 723:Generated_Source\PSoC5/USBUART_1_std.c ****                             #endif  /* (USBUART_1_ENABLE_MIDI_STREAMING) */
 724:Generated_Source\PSoC5/USBUART_1_std.c ****                             }
 725:Generated_Source\PSoC5/USBUART_1_std.c ****                             else
 726:Generated_Source\PSoC5/USBUART_1_std.c ****                             {
 727:Generated_Source\PSoC5/USBUART_1_std.c ****                                 /* OUT Endpoint */
 728:Generated_Source\PSoC5/USBUART_1_std.c ****                                 USBUART_1_EP[i].epMode     = USBUART_1_GET_ACTIVE_OUT_EP_CR0_MODE(e
 729:Generated_Source\PSoC5/USBUART_1_std.c ****                                 USBUART_1_EP[i].apiEpState = USBUART_1_NO_EVENT_PENDING;
 730:Generated_Source\PSoC5/USBUART_1_std.c ****                                 
 731:Generated_Source\PSoC5/USBUART_1_std.c ****                             #if (defined(USBUART_1_ENABLE_MIDI_STREAMING) && (USBUART_1_MIDI_OUT_BU
 732:Generated_Source\PSoC5/USBUART_1_std.c ****                                 if ((pEP->bMisc == USBUART_1_CLASS_AUDIO) && (epType == USBUART_1_E
 733:Generated_Source\PSoC5/USBUART_1_std.c ****                                 {
 734:Generated_Source\PSoC5/USBUART_1_std.c ****                                     USBUART_1_midi_out_ep = i;
 735:Generated_Source\PSoC5/USBUART_1_std.c ****                                 }
 736:Generated_Source\PSoC5/USBUART_1_std.c ****                             #endif  /* (USBUART_1_ENABLE_MIDI_STREAMING) */
 737:Generated_Source\PSoC5/USBUART_1_std.c ****                             }
 738:Generated_Source\PSoC5/USBUART_1_std.c **** 
 739:Generated_Source\PSoC5/USBUART_1_std.c ****                         #if (defined(USBUART_1_ENABLE_CDC_CLASS))
 740:Generated_Source\PSoC5/USBUART_1_std.c ****                             if((pEP->bMisc == USBUART_1_CLASS_CDC_DATA) ||(pEP->bMisc == USBUART_1_
 741:Generated_Source\PSoC5/USBUART_1_std.c ****                             {
 742:Generated_Source\PSoC5/USBUART_1_std.c ****                                 cdcComNums = USBUART_1_Cdc_EpInit(pEP, i, cdcComNums);
 743:Generated_Source\PSoC5/USBUART_1_std.c ****                             }
 744:Generated_Source\PSoC5/USBUART_1_std.c ****                         #endif  /* (USBUART_1_ENABLE_CDC_CLASS) */
 745:Generated_Source\PSoC5/USBUART_1_std.c **** 
 746:Generated_Source\PSoC5/USBUART_1_std.c ****                             #if (USBUART_1_EP_MANAGEMENT_DMA_AUTO)
 747:Generated_Source\PSoC5/USBUART_1_std.c ****                                 break;  /* Use first EP setting in Auto memory management */
 748:Generated_Source\PSoC5/USBUART_1_std.c ****                             #endif /* (USBUART_1_EP_MANAGEMENT_DMA_AUTO) */
 749:Generated_Source\PSoC5/USBUART_1_std.c ****                         }
 750:Generated_Source\PSoC5/USBUART_1_std.c ****                     }
 751:Generated_Source\PSoC5/USBUART_1_std.c ****                     
 752:Generated_Source\PSoC5/USBUART_1_std.c ****                     pEP = &pEP[1u];
 753:Generated_Source\PSoC5/USBUART_1_std.c ****                 }
 754:Generated_Source\PSoC5/USBUART_1_std.c ****             }
 755:Generated_Source\PSoC5/USBUART_1_std.c ****         #endif /*  (USBUART_1_EP_MANAGEMENT_MANUAL && USBUART_1_EP_ALLOC_DYNAMIC) */
 756:Generated_Source\PSoC5/USBUART_1_std.c **** 
 757:Generated_Source\PSoC5/USBUART_1_std.c ****         /* Init class array for each interface and interface number for each EP.
 758:Generated_Source\PSoC5/USBUART_1_std.c ****         *  It is used for handling Class specific requests directed to either an
 759:Generated_Source\PSoC5/USBUART_1_std.c ****         *  interface or the endpoint.
 760:Generated_Source\PSoC5/USBUART_1_std.c ****         */
 761:Generated_Source\PSoC5/USBUART_1_std.c ****         /* p_list points the endpoint setting table. */
 762:Generated_Source\PSoC5/USBUART_1_std.c ****         pEP = (const T_USBUART_1_EP_SETTINGS_BLOCK CYCODE *) pTmp->p_list;
 763:Generated_Source\PSoC5/USBUART_1_std.c ****         for (i = 0u; i < ep; i++)
 764:Generated_Source\PSoC5/USBUART_1_std.c ****         {
 765:Generated_Source\PSoC5/USBUART_1_std.c ****             /* Configure interface number for each EP */
 766:Generated_Source\PSoC5/USBUART_1_std.c ****             USBUART_1_EP[pEP->addr & USBUART_1_DIR_UNUSED].interface = pEP->interface;
 767:Generated_Source\PSoC5/USBUART_1_std.c ****             pEP = &pEP[1u];
 768:Generated_Source\PSoC5/USBUART_1_std.c ****         }
 769:Generated_Source\PSoC5/USBUART_1_std.c ****         
 770:Generated_Source\PSoC5/USBUART_1_std.c ****         /* Init pointer on interface class table */
ARM GAS  C:\Users\DGILLI~1\AppData\Local\Temp\ccItuQxT.s 			page 20


 771:Generated_Source\PSoC5/USBUART_1_std.c ****         USBUART_1_interfaceClass = USBUART_1_GetInterfaceClassTablePtr();
 772:Generated_Source\PSoC5/USBUART_1_std.c ****         
 773:Generated_Source\PSoC5/USBUART_1_std.c ****     /* Set the endpoint buffer addresses */
 774:Generated_Source\PSoC5/USBUART_1_std.c ****     #if (!USBUART_1_EP_MANAGEMENT_DMA_AUTO)
 775:Generated_Source\PSoC5/USBUART_1_std.c ****         buffCount = 0u;
 776:Generated_Source\PSoC5/USBUART_1_std.c ****         for (ep = USBUART_1_EP1; ep < USBUART_1_MAX_EP; ++ep)
 777:Generated_Source\PSoC5/USBUART_1_std.c ****         {
 778:Generated_Source\PSoC5/USBUART_1_std.c ****             USBUART_1_EP[ep].buffOffset = buffCount;        
 779:Generated_Source\PSoC5/USBUART_1_std.c ****             buffCount += USBUART_1_EP[ep].bufferSize;
 780:Generated_Source\PSoC5/USBUART_1_std.c ****             
 781:Generated_Source\PSoC5/USBUART_1_std.c ****         #if (USBUART_1_GEN_16BITS_EP_ACCESS)
 782:Generated_Source\PSoC5/USBUART_1_std.c ****             /* Align EP buffers to be event size to access 16-bits DR register. */
 783:Generated_Source\PSoC5/USBUART_1_std.c ****             buffCount += (0u != (buffCount & 0x01u)) ? 1u : 0u;
 784:Generated_Source\PSoC5/USBUART_1_std.c ****         #endif /* (USBUART_1_GEN_16BITS_EP_ACCESS) */            
 785:Generated_Source\PSoC5/USBUART_1_std.c ****         }
 786:Generated_Source\PSoC5/USBUART_1_std.c ****     #endif /* (!USBUART_1_EP_MANAGEMENT_DMA_AUTO) */
 787:Generated_Source\PSoC5/USBUART_1_std.c **** 
 788:Generated_Source\PSoC5/USBUART_1_std.c ****         /* Configure hardware registers */
 789:Generated_Source\PSoC5/USBUART_1_std.c ****         USBUART_1_ConfigReg();
 790:Generated_Source\PSoC5/USBUART_1_std.c ****     }
 791:Generated_Source\PSoC5/USBUART_1_std.c **** }
 792:Generated_Source\PSoC5/USBUART_1_std.c **** 
 793:Generated_Source\PSoC5/USBUART_1_std.c **** 
 794:Generated_Source\PSoC5/USBUART_1_std.c **** /*******************************************************************************
 795:Generated_Source\PSoC5/USBUART_1_std.c **** * Function Name: USBUART_1_ConfigAltChanged
 796:Generated_Source\PSoC5/USBUART_1_std.c **** ****************************************************************************//**
 797:Generated_Source\PSoC5/USBUART_1_std.c **** *
 798:Generated_Source\PSoC5/USBUART_1_std.c **** *  This routine update configuration for the required endpoints only.
 799:Generated_Source\PSoC5/USBUART_1_std.c **** *  It is called after SET_INTERFACE request when Static memory allocation used.
 800:Generated_Source\PSoC5/USBUART_1_std.c **** *
 801:Generated_Source\PSoC5/USBUART_1_std.c **** * \reentrant
 802:Generated_Source\PSoC5/USBUART_1_std.c **** *  No.
 803:Generated_Source\PSoC5/USBUART_1_std.c **** *
 804:Generated_Source\PSoC5/USBUART_1_std.c **** *******************************************************************************/
 805:Generated_Source\PSoC5/USBUART_1_std.c **** void USBUART_1_ConfigAltChanged(void) 
 806:Generated_Source\PSoC5/USBUART_1_std.c **** {
 807:Generated_Source\PSoC5/USBUART_1_std.c ****     uint8 ep;
 808:Generated_Source\PSoC5/USBUART_1_std.c ****     uint8 curEp;
 809:Generated_Source\PSoC5/USBUART_1_std.c ****     uint8 epType;
 810:Generated_Source\PSoC5/USBUART_1_std.c ****     uint8 i;
 811:Generated_Source\PSoC5/USBUART_1_std.c ****     uint8 interfaceNum;
 812:Generated_Source\PSoC5/USBUART_1_std.c **** 
 813:Generated_Source\PSoC5/USBUART_1_std.c ****     const T_USBUART_1_LUT CYCODE *pTmp;
 814:Generated_Source\PSoC5/USBUART_1_std.c ****     const T_USBUART_1_EP_SETTINGS_BLOCK CYCODE *pEP;
 815:Generated_Source\PSoC5/USBUART_1_std.c **** 
 816:Generated_Source\PSoC5/USBUART_1_std.c ****     /* Init Endpoints and Device Status if configured */
 817:Generated_Source\PSoC5/USBUART_1_std.c ****     if (USBUART_1_configuration > 0u)
 818:Generated_Source\PSoC5/USBUART_1_std.c ****     {
 819:Generated_Source\PSoC5/USBUART_1_std.c ****         /* Get number of endpoints configurations (ep). */
 820:Generated_Source\PSoC5/USBUART_1_std.c ****         pTmp = USBUART_1_GetConfigTablePtr(USBUART_1_configuration - 1u);
 821:Generated_Source\PSoC5/USBUART_1_std.c ****         pTmp = &pTmp[1u];
 822:Generated_Source\PSoC5/USBUART_1_std.c ****         ep = pTmp->c;
 823:Generated_Source\PSoC5/USBUART_1_std.c **** 
 824:Generated_Source\PSoC5/USBUART_1_std.c ****         /* Get pointer to endpoints setting table (pEP). */
 825:Generated_Source\PSoC5/USBUART_1_std.c ****         pEP = (const T_USBUART_1_EP_SETTINGS_BLOCK CYCODE *) pTmp->p_list;
 826:Generated_Source\PSoC5/USBUART_1_std.c ****         
 827:Generated_Source\PSoC5/USBUART_1_std.c ****         /* Look through all possible endpoint configurations. Find endpoints 
ARM GAS  C:\Users\DGILLI~1\AppData\Local\Temp\ccItuQxT.s 			page 21


 828:Generated_Source\PSoC5/USBUART_1_std.c ****         * which belong to current interface and alternate settings for 
 829:Generated_Source\PSoC5/USBUART_1_std.c ****         * re-configuration.
 830:Generated_Source\PSoC5/USBUART_1_std.c ****         */
 831:Generated_Source\PSoC5/USBUART_1_std.c ****         interfaceNum = USBUART_1_interfaceNumber;
 832:Generated_Source\PSoC5/USBUART_1_std.c ****         for (i = 0u; i < ep; i++)
 833:Generated_Source\PSoC5/USBUART_1_std.c ****         {
 834:Generated_Source\PSoC5/USBUART_1_std.c ****             /* Find endpoints which belong to current interface and alternate settings. */
 835:Generated_Source\PSoC5/USBUART_1_std.c ****             if ((interfaceNum == pEP->interface) && 
 836:Generated_Source\PSoC5/USBUART_1_std.c ****                 (USBUART_1_interfaceSetting[interfaceNum] == pEP->altSetting))
 837:Generated_Source\PSoC5/USBUART_1_std.c ****             {
 838:Generated_Source\PSoC5/USBUART_1_std.c ****                 curEp  = ((uint8) pEP->addr & USBUART_1_DIR_UNUSED);
 839:Generated_Source\PSoC5/USBUART_1_std.c ****                 epType = ((uint8) pEP->attributes & USBUART_1_EP_TYPE_MASK);
 840:Generated_Source\PSoC5/USBUART_1_std.c ****                 
 841:Generated_Source\PSoC5/USBUART_1_std.c ****                 /* Change the SIE mode for the selected EP to NAK ALL */
 842:Generated_Source\PSoC5/USBUART_1_std.c ****                 USBUART_1_EP[curEp].epToggle   = 0u;
 843:Generated_Source\PSoC5/USBUART_1_std.c ****                 USBUART_1_EP[curEp].addr       = pEP->addr;
 844:Generated_Source\PSoC5/USBUART_1_std.c ****                 USBUART_1_EP[curEp].attrib     = pEP->attributes;
 845:Generated_Source\PSoC5/USBUART_1_std.c ****                 USBUART_1_EP[curEp].bufferSize = pEP->bufferSize;
 846:Generated_Source\PSoC5/USBUART_1_std.c **** 
 847:Generated_Source\PSoC5/USBUART_1_std.c ****                 if (0u != (pEP->addr & USBUART_1_DIR_IN))
 848:Generated_Source\PSoC5/USBUART_1_std.c ****                 {
 849:Generated_Source\PSoC5/USBUART_1_std.c ****                     /* IN Endpoint */
 850:Generated_Source\PSoC5/USBUART_1_std.c ****                     USBUART_1_EP[curEp].epMode     = USBUART_1_GET_ACTIVE_IN_EP_CR0_MODE(epType);
 851:Generated_Source\PSoC5/USBUART_1_std.c ****                     USBUART_1_EP[curEp].apiEpState = USBUART_1_EVENT_PENDING;
 852:Generated_Source\PSoC5/USBUART_1_std.c ****                 }
 853:Generated_Source\PSoC5/USBUART_1_std.c ****                 else
 854:Generated_Source\PSoC5/USBUART_1_std.c ****                 {
 855:Generated_Source\PSoC5/USBUART_1_std.c ****                     /* OUT Endpoint */
 856:Generated_Source\PSoC5/USBUART_1_std.c ****                     USBUART_1_EP[curEp].epMode     = USBUART_1_GET_ACTIVE_OUT_EP_CR0_MODE(epType);
 857:Generated_Source\PSoC5/USBUART_1_std.c ****                     USBUART_1_EP[curEp].apiEpState = USBUART_1_NO_EVENT_PENDING;
 858:Generated_Source\PSoC5/USBUART_1_std.c ****                 }
 859:Generated_Source\PSoC5/USBUART_1_std.c ****                 
 860:Generated_Source\PSoC5/USBUART_1_std.c ****                 /* Make SIE to NAK any endpoint requests */
 861:Generated_Source\PSoC5/USBUART_1_std.c ****                 USBUART_1_SIE_EP_BASE.sieEp[curEp].epCr0 = USBUART_1_MODE_NAK_IN_OUT;
 862:Generated_Source\PSoC5/USBUART_1_std.c **** 
 863:Generated_Source\PSoC5/USBUART_1_std.c ****             #if (USBUART_1_EP_MANAGEMENT_DMA_AUTO)
 864:Generated_Source\PSoC5/USBUART_1_std.c ****                 /* Clear IN data ready. */
 865:Generated_Source\PSoC5/USBUART_1_std.c ****                 USBUART_1_ARB_EP_BASE.arbEp[curEp].epCfg &= (uint8) ~USBUART_1_ARB_EPX_CFG_IN_DATA_
 866:Generated_Source\PSoC5/USBUART_1_std.c **** 
 867:Generated_Source\PSoC5/USBUART_1_std.c ****                 /* Select endpoint number of reconfiguration */
 868:Generated_Source\PSoC5/USBUART_1_std.c ****                 USBUART_1_DYN_RECONFIG_REG = (uint8) ((curEp - 1u) << USBUART_1_DYN_RECONFIG_EP_SHI
 869:Generated_Source\PSoC5/USBUART_1_std.c ****                 
 870:Generated_Source\PSoC5/USBUART_1_std.c ****                 /* Request for dynamic re-configuration of endpoint. */
 871:Generated_Source\PSoC5/USBUART_1_std.c ****                 USBUART_1_DYN_RECONFIG_REG |= USBUART_1_DYN_RECONFIG_ENABLE;
 872:Generated_Source\PSoC5/USBUART_1_std.c ****                 
 873:Generated_Source\PSoC5/USBUART_1_std.c ****                 /* Wait until block is ready for re-configuration */
 874:Generated_Source\PSoC5/USBUART_1_std.c ****                 while (0u == (USBUART_1_DYN_RECONFIG_REG & USBUART_1_DYN_RECONFIG_RDY_STS))
 875:Generated_Source\PSoC5/USBUART_1_std.c ****                 {
 876:Generated_Source\PSoC5/USBUART_1_std.c ****                 }
 877:Generated_Source\PSoC5/USBUART_1_std.c ****                 
 878:Generated_Source\PSoC5/USBUART_1_std.c ****                 /* Once DYN_RECONFIG_RDY_STS bit is set, FW can change the EP configuration. */
 879:Generated_Source\PSoC5/USBUART_1_std.c ****                 /* Change EP Type with new direction */
 880:Generated_Source\PSoC5/USBUART_1_std.c ****                 if (0u != (pEP->addr & USBUART_1_DIR_IN))
 881:Generated_Source\PSoC5/USBUART_1_std.c ****                 {
 882:Generated_Source\PSoC5/USBUART_1_std.c ****                     /* Set endpoint type: 0 - IN and 1 - OUT. */
 883:Generated_Source\PSoC5/USBUART_1_std.c ****                     USBUART_1_EP_TYPE_REG &= (uint8) ~(uint8)((uint8) 0x01u << (curEp - 1u));
 884:Generated_Source\PSoC5/USBUART_1_std.c ****                     
ARM GAS  C:\Users\DGILLI~1\AppData\Local\Temp\ccItuQxT.s 			page 22


 885:Generated_Source\PSoC5/USBUART_1_std.c ****                 #if (CY_PSOC4)
 886:Generated_Source\PSoC5/USBUART_1_std.c ****                     /* Clear DMA_TERMIN for IN endpoint */
 887:Generated_Source\PSoC5/USBUART_1_std.c ****                     USBUART_1_ARB_EP_BASE.arbEp[curEp].epIntEn &= (uint32) ~USBUART_1_ARB_EPX_INT_D
 888:Generated_Source\PSoC5/USBUART_1_std.c ****                 #endif /* (CY_PSOC4) */
 889:Generated_Source\PSoC5/USBUART_1_std.c ****                 }
 890:Generated_Source\PSoC5/USBUART_1_std.c ****                 else
 891:Generated_Source\PSoC5/USBUART_1_std.c ****                 {
 892:Generated_Source\PSoC5/USBUART_1_std.c ****                     /* Set endpoint type: 0 - IN and 1- OUT. */
 893:Generated_Source\PSoC5/USBUART_1_std.c ****                     USBUART_1_EP_TYPE_REG |= (uint8) ((uint8) 0x01u << (curEp - 1u));
 894:Generated_Source\PSoC5/USBUART_1_std.c ****                     
 895:Generated_Source\PSoC5/USBUART_1_std.c ****                 #if (CY_PSOC4)
 896:Generated_Source\PSoC5/USBUART_1_std.c ****                     /* Set DMA_TERMIN for OUT endpoint */
 897:Generated_Source\PSoC5/USBUART_1_std.c ****                     USBUART_1_ARB_EP_BASE.arbEp[curEp].epIntEn |= (uint32) USBUART_1_ARB_EPX_INT_DM
 898:Generated_Source\PSoC5/USBUART_1_std.c ****                 #endif /* (CY_PSOC4) */
 899:Generated_Source\PSoC5/USBUART_1_std.c ****                 }
 900:Generated_Source\PSoC5/USBUART_1_std.c ****                 
 901:Generated_Source\PSoC5/USBUART_1_std.c ****                 /* Complete dynamic re-configuration: all endpoint related status and signals 
 902:Generated_Source\PSoC5/USBUART_1_std.c ****                 * are set into the default state.
 903:Generated_Source\PSoC5/USBUART_1_std.c ****                 */
 904:Generated_Source\PSoC5/USBUART_1_std.c ****                 USBUART_1_DYN_RECONFIG_REG &= (uint8) ~USBUART_1_DYN_RECONFIG_ENABLE;
 905:Generated_Source\PSoC5/USBUART_1_std.c **** 
 906:Generated_Source\PSoC5/USBUART_1_std.c ****             #else
 907:Generated_Source\PSoC5/USBUART_1_std.c ****                 USBUART_1_SIE_EP_BASE.sieEp[curEp].epCnt0 = HI8(USBUART_1_EP[curEp].bufferSize);
 908:Generated_Source\PSoC5/USBUART_1_std.c ****                 USBUART_1_SIE_EP_BASE.sieEp[curEp].epCnt1 = LO8(USBUART_1_EP[curEp].bufferSize);
 909:Generated_Source\PSoC5/USBUART_1_std.c ****                 
 910:Generated_Source\PSoC5/USBUART_1_std.c ****                 #if (CY_PSOC4)
 911:Generated_Source\PSoC5/USBUART_1_std.c ****                     USBUART_1_ARB_EP16_BASE.arbEp[curEp].rwRa16  = (uint32) USBUART_1_EP[curEp].buf
 912:Generated_Source\PSoC5/USBUART_1_std.c ****                     USBUART_1_ARB_EP16_BASE.arbEp[curEp].rwWa16  = (uint32) USBUART_1_EP[curEp].buf
 913:Generated_Source\PSoC5/USBUART_1_std.c ****                 #else
 914:Generated_Source\PSoC5/USBUART_1_std.c ****                     USBUART_1_ARB_EP_BASE.arbEp[curEp].rwRa    = LO8(USBUART_1_EP[curEp].buffOffset
 915:Generated_Source\PSoC5/USBUART_1_std.c ****                     USBUART_1_ARB_EP_BASE.arbEp[curEp].rwRaMsb = HI8(USBUART_1_EP[curEp].buffOffset
 916:Generated_Source\PSoC5/USBUART_1_std.c ****                     USBUART_1_ARB_EP_BASE.arbEp[curEp].rwWa    = LO8(USBUART_1_EP[curEp].buffOffset
 917:Generated_Source\PSoC5/USBUART_1_std.c ****                     USBUART_1_ARB_EP_BASE.arbEp[curEp].rwWaMsb = HI8(USBUART_1_EP[curEp].buffOffset
 918:Generated_Source\PSoC5/USBUART_1_std.c ****                 #endif /* (CY_PSOC4) */                
 919:Generated_Source\PSoC5/USBUART_1_std.c ****             #endif /* (USBUART_1_EP_MANAGEMENT_DMA_AUTO) */
 920:Generated_Source\PSoC5/USBUART_1_std.c ****             }
 921:Generated_Source\PSoC5/USBUART_1_std.c ****             
 922:Generated_Source\PSoC5/USBUART_1_std.c ****             pEP = &pEP[1u]; /* Get next EP element */
 923:Generated_Source\PSoC5/USBUART_1_std.c ****         }
 924:Generated_Source\PSoC5/USBUART_1_std.c ****         
 925:Generated_Source\PSoC5/USBUART_1_std.c ****         /* The main loop has to re-enable DMA and OUT endpoint */
 926:Generated_Source\PSoC5/USBUART_1_std.c ****     }
 927:Generated_Source\PSoC5/USBUART_1_std.c **** }
 928:Generated_Source\PSoC5/USBUART_1_std.c **** 
 929:Generated_Source\PSoC5/USBUART_1_std.c **** 
 930:Generated_Source\PSoC5/USBUART_1_std.c **** /*******************************************************************************
 931:Generated_Source\PSoC5/USBUART_1_std.c **** * Function Name: USBUART_1_GetConfigTablePtr
 932:Generated_Source\PSoC5/USBUART_1_std.c **** ****************************************************************************//**
 933:Generated_Source\PSoC5/USBUART_1_std.c **** *
 934:Generated_Source\PSoC5/USBUART_1_std.c **** *  This routine returns a pointer a configuration table entry
 935:Generated_Source\PSoC5/USBUART_1_std.c **** *
 936:Generated_Source\PSoC5/USBUART_1_std.c **** *  \param confIndex:  Configuration Index
 937:Generated_Source\PSoC5/USBUART_1_std.c **** *
 938:Generated_Source\PSoC5/USBUART_1_std.c **** * \return
 939:Generated_Source\PSoC5/USBUART_1_std.c **** *  Device Descriptor pointer or NULL when descriptor does not exist.
 940:Generated_Source\PSoC5/USBUART_1_std.c **** *
 941:Generated_Source\PSoC5/USBUART_1_std.c **** *******************************************************************************/
ARM GAS  C:\Users\DGILLI~1\AppData\Local\Temp\ccItuQxT.s 			page 23


 942:Generated_Source\PSoC5/USBUART_1_std.c **** const T_USBUART_1_LUT CYCODE *USBUART_1_GetConfigTablePtr(uint8 confIndex)
 943:Generated_Source\PSoC5/USBUART_1_std.c ****                                                         
 944:Generated_Source\PSoC5/USBUART_1_std.c **** {
 307              		.loc 1 944 0
 308              		.cfi_startproc
 309              		@ args = 0, pretend = 0, frame = 0
 310              		@ frame_needed = 0, uses_anonymous_args = 0
 311              		@ link register save eliminated.
 312              	.LVL20:
 945:Generated_Source\PSoC5/USBUART_1_std.c ****     /* Device Table */
 946:Generated_Source\PSoC5/USBUART_1_std.c ****     const T_USBUART_1_LUT CYCODE *pTmp;
 947:Generated_Source\PSoC5/USBUART_1_std.c **** 
 948:Generated_Source\PSoC5/USBUART_1_std.c ****     pTmp = (const T_USBUART_1_LUT CYCODE *) USBUART_1_TABLE[USBUART_1_device].p_list;
 313              		.loc 1 948 0
 314 0000 074B     		ldr	r3, .L27
 315 0002 1B78     		ldrb	r3, [r3]	@ zero_extendqisi2
 316 0004 074A     		ldr	r2, .L27+4
 317 0006 02EBC302 		add	r2, r2, r3, lsl #3
 318 000a 5368     		ldr	r3, [r2, #4]
 319              	.LVL21:
 949:Generated_Source\PSoC5/USBUART_1_std.c **** 
 950:Generated_Source\PSoC5/USBUART_1_std.c ****     /* The first entry points to the Device Descriptor,
 951:Generated_Source\PSoC5/USBUART_1_std.c ****     *  the second entry point to the BOS Descriptor
 952:Generated_Source\PSoC5/USBUART_1_std.c ****     *  the rest configuration entries.
 953:Generated_Source\PSoC5/USBUART_1_std.c ****     *  Set pointer to the first Configuration Descriptor
 954:Generated_Source\PSoC5/USBUART_1_std.c ****     */
 955:Generated_Source\PSoC5/USBUART_1_std.c ****     pTmp = &pTmp[2u];
 956:Generated_Source\PSoC5/USBUART_1_std.c ****     /* For this table, c is the number of configuration descriptors  */
 957:Generated_Source\PSoC5/USBUART_1_std.c ****     if(confIndex >= pTmp->c)   /* Verify that required configuration descriptor exists */
 320              		.loc 1 957 0
 321 000c 1A7C     		ldrb	r2, [r3, #16]	@ zero_extendqisi2
 322 000e 8242     		cmp	r2, r0
 323 0010 03D9     		bls	.L26
 324 0012 03EBC003 		add	r3, r3, r0, lsl #3
 325              	.LVL22:
 958:Generated_Source\PSoC5/USBUART_1_std.c ****     {
 959:Generated_Source\PSoC5/USBUART_1_std.c ****         pTmp = (const T_USBUART_1_LUT CYCODE *) NULL;
 960:Generated_Source\PSoC5/USBUART_1_std.c ****     }
 961:Generated_Source\PSoC5/USBUART_1_std.c ****     else
 962:Generated_Source\PSoC5/USBUART_1_std.c ****     {
 963:Generated_Source\PSoC5/USBUART_1_std.c ****         pTmp = (const T_USBUART_1_LUT CYCODE *) pTmp[confIndex].p_list;
 326              		.loc 1 963 0
 327 0016 5869     		ldr	r0, [r3, #20]
 328              	.LVL23:
 329 0018 7047     		bx	lr
 330              	.LVL24:
 331              	.L26:
 959:Generated_Source\PSoC5/USBUART_1_std.c ****     }
 332              		.loc 1 959 0
 333 001a 0020     		movs	r0, #0
 334              	.LVL25:
 964:Generated_Source\PSoC5/USBUART_1_std.c ****     }
 965:Generated_Source\PSoC5/USBUART_1_std.c **** 
 966:Generated_Source\PSoC5/USBUART_1_std.c ****     return (pTmp);
 967:Generated_Source\PSoC5/USBUART_1_std.c **** }
 335              		.loc 1 967 0
 336 001c 7047     		bx	lr
ARM GAS  C:\Users\DGILLI~1\AppData\Local\Temp\ccItuQxT.s 			page 24


 337              	.L28:
 338 001e 00BF     		.align	2
 339              	.L27:
 340 0020 00000000 		.word	USBUART_1_device
 341 0024 00000000 		.word	USBUART_1_TABLE
 342              		.cfi_endproc
 343              	.LFE6:
 344              		.size	USBUART_1_GetConfigTablePtr, .-USBUART_1_GetConfigTablePtr
 345              		.section	.text.USBUART_1_ConfigAltChanged,"ax",%progbits
 346              		.align	2
 347              		.global	USBUART_1_ConfigAltChanged
 348              		.thumb
 349              		.thumb_func
 350              		.type	USBUART_1_ConfigAltChanged, %function
 351              	USBUART_1_ConfigAltChanged:
 352              	.LFB5:
 806:Generated_Source\PSoC5/USBUART_1_std.c ****     uint8 ep;
 353              		.loc 1 806 0
 354              		.cfi_startproc
 355              		@ args = 0, pretend = 0, frame = 0
 356              		@ frame_needed = 0, uses_anonymous_args = 0
 357 0000 F8B5     		push	{r3, r4, r5, r6, r7, lr}
 358              		.cfi_def_cfa_offset 24
 359              		.cfi_offset 3, -24
 360              		.cfi_offset 4, -20
 361              		.cfi_offset 5, -16
 362              		.cfi_offset 6, -12
 363              		.cfi_offset 7, -8
 364              		.cfi_offset 14, -4
 817:Generated_Source\PSoC5/USBUART_1_std.c ****     {
 365              		.loc 1 817 0
 366 0002 404B     		ldr	r3, .L41
 367 0004 1B78     		ldrb	r3, [r3]	@ zero_extendqisi2
 368 0006 13F0FF0F 		tst	r3, #255
 369 000a 79D0     		beq	.L29
 820:Generated_Source\PSoC5/USBUART_1_std.c ****         pTmp = &pTmp[1u];
 370              		.loc 1 820 0
 371 000c 3D4B     		ldr	r3, .L41
 372 000e 1878     		ldrb	r0, [r3]	@ zero_extendqisi2
 373 0010 0138     		subs	r0, r0, #1
 374 0012 C0B2     		uxtb	r0, r0
 375 0014 FFF7FEFF 		bl	USBUART_1_GetConfigTablePtr
 376              	.LVL26:
 822:Generated_Source\PSoC5/USBUART_1_std.c **** 
 377              		.loc 1 822 0
 378 0018 047A     		ldrb	r4, [r0, #8]	@ zero_extendqisi2
 379              	.LVL27:
 825:Generated_Source\PSoC5/USBUART_1_std.c ****         
 380              		.loc 1 825 0
 381 001a C268     		ldr	r2, [r0, #12]
 382              	.LVL28:
 831:Generated_Source\PSoC5/USBUART_1_std.c ****         for (i = 0u; i < ep; i++)
 383              		.loc 1 831 0
 384 001c 3A4B     		ldr	r3, .L41+4
 385 001e 1878     		ldrb	r0, [r3]	@ zero_extendqisi2
 386              	.LVL29:
 387 0020 C0B2     		uxtb	r0, r0
ARM GAS  C:\Users\DGILLI~1\AppData\Local\Temp\ccItuQxT.s 			page 25


 388              	.LVL30:
 832:Generated_Source\PSoC5/USBUART_1_std.c ****         {
 389              		.loc 1 832 0
 390 0022 0023     		movs	r3, #0
 391 0024 6AE0     		b	.L31
 392              	.LVL31:
 393              	.L37:
 835:Generated_Source\PSoC5/USBUART_1_std.c ****                 (USBUART_1_interfaceSetting[interfaceNum] == pEP->altSetting))
 394              		.loc 1 835 0
 395 0026 1178     		ldrb	r1, [r2]	@ zero_extendqisi2
 396 0028 8142     		cmp	r1, r0
 397 002a 64D1     		bne	.L32
 836:Generated_Source\PSoC5/USBUART_1_std.c ****             {
 398              		.loc 1 836 0 discriminator 1
 399 002c 3749     		ldr	r1, .L41+8
 400 002e 095C     		ldrb	r1, [r1, r0]	@ zero_extendqisi2
 401 0030 C9B2     		uxtb	r1, r1
 402 0032 5578     		ldrb	r5, [r2, #1]	@ zero_extendqisi2
 835:Generated_Source\PSoC5/USBUART_1_std.c ****                 (USBUART_1_interfaceSetting[interfaceNum] == pEP->altSetting))
 403              		.loc 1 835 0 discriminator 1
 404 0034 A942     		cmp	r1, r5
 405 0036 5ED1     		bne	.L32
 838:Generated_Source\PSoC5/USBUART_1_std.c ****                 epType = ((uint8) pEP->attributes & USBUART_1_EP_TYPE_MASK);
 406              		.loc 1 838 0
 407 0038 9178     		ldrb	r1, [r2, #2]	@ zero_extendqisi2
 408 003a 01F07F01 		and	r1, r1, #127
 409              	.LVL32:
 839:Generated_Source\PSoC5/USBUART_1_std.c ****                 
 410              		.loc 1 839 0
 411 003e D678     		ldrb	r6, [r2, #3]	@ zero_extendqisi2
 412 0040 06F00306 		and	r6, r6, #3
 413              	.LVL33:
 842:Generated_Source\PSoC5/USBUART_1_std.c ****                 USBUART_1_EP[curEp].addr       = pEP->addr;
 414              		.loc 1 842 0
 415 0044 DFF8C8E0 		ldr	lr, .L41+12
 416 0048 4D00     		lsls	r5, r1, #1
 417 004a 0D44     		add	r5, r5, r1
 418 004c AD00     		lsls	r5, r5, #2
 419 004e 0EEB0507 		add	r7, lr, r5
 420 0052 4FF0000C 		mov	ip, #0
 421 0056 87F803C0 		strb	ip, [r7, #3]
 843:Generated_Source\PSoC5/USBUART_1_std.c ****                 USBUART_1_EP[curEp].attrib     = pEP->attributes;
 422              		.loc 1 843 0
 423 005a 92F802C0 		ldrb	ip, [r2, #2]	@ zero_extendqisi2
 424 005e 87F804C0 		strb	ip, [r7, #4]
 844:Generated_Source\PSoC5/USBUART_1_std.c ****                 USBUART_1_EP[curEp].bufferSize = pEP->bufferSize;
 425              		.loc 1 844 0
 426 0062 92F803C0 		ldrb	ip, [r2, #3]	@ zero_extendqisi2
 427 0066 0EF805C0 		strb	ip, [lr, r5]
 845:Generated_Source\PSoC5/USBUART_1_std.c **** 
 428              		.loc 1 845 0
 429 006a 9588     		ldrh	r5, [r2, #4]
 430 006c 3D81     		strh	r5, [r7, #8]	@ movhi
 847:Generated_Source\PSoC5/USBUART_1_std.c ****                 {
 431              		.loc 1 847 0
 432 006e 92F90250 		ldrsb	r5, [r2, #2]
 433 0072 002D     		cmp	r5, #0
ARM GAS  C:\Users\DGILLI~1\AppData\Local\Temp\ccItuQxT.s 			page 26


 434 0074 0DDA     		bge	.L33
 850:Generated_Source\PSoC5/USBUART_1_std.c ****                     USBUART_1_EP[curEp].apiEpState = USBUART_1_EVENT_PENDING;
 435              		.loc 1 850 0
 436 0076 012E     		cmp	r6, #1
 437 0078 01D1     		bne	.L38
 438 007a 0727     		movs	r7, #7
 439 007c 00E0     		b	.L34
 440              	.L38:
 441 007e 0D27     		movs	r7, #13
 442              	.L34:
 850:Generated_Source\PSoC5/USBUART_1_std.c ****                     USBUART_1_EP[curEp].apiEpState = USBUART_1_EVENT_PENDING;
 443              		.loc 1 850 0 is_stmt 0 discriminator 4
 444 0080 4D00     		lsls	r5, r1, #1
 445 0082 0D44     		add	r5, r5, r1
 446 0084 AD00     		lsls	r5, r5, #2
 447 0086 224E     		ldr	r6, .L41+12
 448              	.LVL34:
 449 0088 3544     		add	r5, r5, r6
 450 008a 6F71     		strb	r7, [r5, #5]
 851:Generated_Source\PSoC5/USBUART_1_std.c ****                 }
 451              		.loc 1 851 0 is_stmt 1 discriminator 4
 452 008c 0126     		movs	r6, #1
 453 008e 6E70     		strb	r6, [r5, #1]
 454 0090 0CE0     		b	.L35
 455              	.LVL35:
 456              	.L33:
 856:Generated_Source\PSoC5/USBUART_1_std.c ****                     USBUART_1_EP[curEp].apiEpState = USBUART_1_NO_EVENT_PENDING;
 457              		.loc 1 856 0
 458 0092 012E     		cmp	r6, #1
 459 0094 01D1     		bne	.L39
 460 0096 0527     		movs	r7, #5
 461 0098 00E0     		b	.L36
 462              	.L39:
 463 009a 0927     		movs	r7, #9
 464              	.L36:
 856:Generated_Source\PSoC5/USBUART_1_std.c ****                     USBUART_1_EP[curEp].apiEpState = USBUART_1_NO_EVENT_PENDING;
 465              		.loc 1 856 0 is_stmt 0 discriminator 4
 466 009c 4D00     		lsls	r5, r1, #1
 467 009e 0D44     		add	r5, r5, r1
 468 00a0 AD00     		lsls	r5, r5, #2
 469 00a2 1B4E     		ldr	r6, .L41+12
 470              	.LVL36:
 471 00a4 3544     		add	r5, r5, r6
 472 00a6 6F71     		strb	r7, [r5, #5]
 857:Generated_Source\PSoC5/USBUART_1_std.c ****                 }
 473              		.loc 1 857 0 is_stmt 1 discriminator 4
 474 00a8 0026     		movs	r6, #0
 475 00aa 6E70     		strb	r6, [r5, #1]
 476              	.L35:
 861:Generated_Source\PSoC5/USBUART_1_std.c **** 
 477              		.loc 1 861 0
 478 00ac DFF868E0 		ldr	lr, .L41+20
 479 00b0 0F01     		lsls	r7, r1, #4
 480 00b2 0EEB0706 		add	r6, lr, r7
 481 00b6 0125     		movs	r5, #1
 482 00b8 B570     		strb	r5, [r6, #2]
 907:Generated_Source\PSoC5/USBUART_1_std.c ****                 USBUART_1_SIE_EP_BASE.sieEp[curEp].epCnt1 = LO8(USBUART_1_EP[curEp].bufferSize);
ARM GAS  C:\Users\DGILLI~1\AppData\Local\Temp\ccItuQxT.s 			page 27


 483              		.loc 1 907 0
 484 00ba 01FA05F5 		lsl	r5, r1, r5
 485 00be 2944     		add	r1, r1, r5
 486              	.LVL37:
 487 00c0 8900     		lsls	r1, r1, #2
 488 00c2 134D     		ldr	r5, .L41+12
 489 00c4 2944     		add	r1, r1, r5
 490 00c6 0D89     		ldrh	r5, [r1, #8]
 491 00c8 C5F30725 		ubfx	r5, r5, #8, #8
 492 00cc 0EF80750 		strb	r5, [lr, r7]
 908:Generated_Source\PSoC5/USBUART_1_std.c ****                 
 493              		.loc 1 908 0
 494 00d0 0D89     		ldrh	r5, [r1, #8]
 495 00d2 EDB2     		uxtb	r5, r5
 496 00d4 7570     		strb	r5, [r6, #1]
 914:Generated_Source\PSoC5/USBUART_1_std.c ****                     USBUART_1_ARB_EP_BASE.arbEp[curEp].rwRaMsb = HI8(USBUART_1_EP[curEp].buffOffset
 497              		.loc 1 914 0
 498 00d6 CE88     		ldrh	r6, [r1, #6]
 499 00d8 F6B2     		uxtb	r6, r6
 500 00da 0E4D     		ldr	r5, .L41+16
 501 00dc 3D44     		add	r5, r5, r7
 502 00de AE71     		strb	r6, [r5, #6]
 915:Generated_Source\PSoC5/USBUART_1_std.c ****                     USBUART_1_ARB_EP_BASE.arbEp[curEp].rwWa    = LO8(USBUART_1_EP[curEp].buffOffset
 503              		.loc 1 915 0
 504 00e0 CE88     		ldrh	r6, [r1, #6]
 505 00e2 C6F30726 		ubfx	r6, r6, #8, #8
 506 00e6 EE71     		strb	r6, [r5, #7]
 916:Generated_Source\PSoC5/USBUART_1_std.c ****                     USBUART_1_ARB_EP_BASE.arbEp[curEp].rwWaMsb = HI8(USBUART_1_EP[curEp].buffOffset
 507              		.loc 1 916 0
 508 00e8 CE88     		ldrh	r6, [r1, #6]
 509 00ea F6B2     		uxtb	r6, r6
 510 00ec 2E71     		strb	r6, [r5, #4]
 917:Generated_Source\PSoC5/USBUART_1_std.c ****                 #endif /* (CY_PSOC4) */                
 511              		.loc 1 917 0
 512 00ee C988     		ldrh	r1, [r1, #6]
 513 00f0 C1F30721 		ubfx	r1, r1, #8, #8
 514 00f4 6971     		strb	r1, [r5, #5]
 515              	.L32:
 922:Generated_Source\PSoC5/USBUART_1_std.c ****         }
 516              		.loc 1 922 0 discriminator 2
 517 00f6 0832     		adds	r2, r2, #8
 518              	.LVL38:
 832:Generated_Source\PSoC5/USBUART_1_std.c ****         {
 519              		.loc 1 832 0 discriminator 2
 520 00f8 0133     		adds	r3, r3, #1
 521              	.LVL39:
 522 00fa DBB2     		uxtb	r3, r3
 523              	.LVL40:
 524              	.L31:
 832:Generated_Source\PSoC5/USBUART_1_std.c ****         {
 525              		.loc 1 832 0 is_stmt 0 discriminator 1
 526 00fc A342     		cmp	r3, r4
 527 00fe 92D3     		bcc	.L37
 528              	.LVL41:
 529              	.L29:
 530 0100 F8BD     		pop	{r3, r4, r5, r6, r7, pc}
 531              	.L42:
ARM GAS  C:\Users\DGILLI~1\AppData\Local\Temp\ccItuQxT.s 			page 28


 532 0102 00BF     		.align	2
 533              	.L41:
 534 0104 00000000 		.word	USBUART_1_configuration
 535 0108 00000000 		.word	USBUART_1_interfaceNumber
 536 010c 00000000 		.word	USBUART_1_interfaceSetting
 537 0110 00000000 		.word	USBUART_1_EP
 538 0114 70600040 		.word	1073766512
 539 0118 FC5F0040 		.word	1073766396
 540              		.cfi_endproc
 541              	.LFE5:
 542              		.size	USBUART_1_ConfigAltChanged, .-USBUART_1_ConfigAltChanged
 543              		.section	.text.USBUART_1_GetDeviceTablePtr,"ax",%progbits
 544              		.align	2
 545              		.global	USBUART_1_GetDeviceTablePtr
 546              		.thumb
 547              		.thumb_func
 548              		.type	USBUART_1_GetDeviceTablePtr, %function
 549              	USBUART_1_GetDeviceTablePtr:
 550              	.LFB7:
 968:Generated_Source\PSoC5/USBUART_1_std.c **** 
 969:Generated_Source\PSoC5/USBUART_1_std.c **** 
 970:Generated_Source\PSoC5/USBUART_1_std.c **** #if (USBUART_1_BOS_ENABLE)
 971:Generated_Source\PSoC5/USBUART_1_std.c ****     /*******************************************************************************
 972:Generated_Source\PSoC5/USBUART_1_std.c ****     * Function Name: USBUART_1_GetBOSPtr
 973:Generated_Source\PSoC5/USBUART_1_std.c ****     ****************************************************************************//**
 974:Generated_Source\PSoC5/USBUART_1_std.c ****     *
 975:Generated_Source\PSoC5/USBUART_1_std.c ****     *  This routine returns a pointer a BOS table entry
 976:Generated_Source\PSoC5/USBUART_1_std.c ****     *
 977:Generated_Source\PSoC5/USBUART_1_std.c ****     *  
 978:Generated_Source\PSoC5/USBUART_1_std.c ****     *
 979:Generated_Source\PSoC5/USBUART_1_std.c ****     * \return
 980:Generated_Source\PSoC5/USBUART_1_std.c ****     *  BOS Descriptor pointer or NULL when descriptor does not exist.
 981:Generated_Source\PSoC5/USBUART_1_std.c ****     *
 982:Generated_Source\PSoC5/USBUART_1_std.c ****     *******************************************************************************/
 983:Generated_Source\PSoC5/USBUART_1_std.c ****     const T_USBUART_1_LUT CYCODE *USBUART_1_GetBOSPtr(void)
 984:Generated_Source\PSoC5/USBUART_1_std.c ****                                                             
 985:Generated_Source\PSoC5/USBUART_1_std.c ****     {
 986:Generated_Source\PSoC5/USBUART_1_std.c ****         /* Device Table */
 987:Generated_Source\PSoC5/USBUART_1_std.c ****         const T_USBUART_1_LUT CYCODE *pTmp;
 988:Generated_Source\PSoC5/USBUART_1_std.c **** 
 989:Generated_Source\PSoC5/USBUART_1_std.c ****         pTmp = (const T_USBUART_1_LUT CYCODE *) USBUART_1_TABLE[USBUART_1_device].p_list;
 990:Generated_Source\PSoC5/USBUART_1_std.c **** 
 991:Generated_Source\PSoC5/USBUART_1_std.c ****         /* The first entry points to the Device Descriptor,
 992:Generated_Source\PSoC5/USBUART_1_std.c ****         *  the second entry points to the BOS Descriptor
 993:Generated_Source\PSoC5/USBUART_1_std.c ****         */
 994:Generated_Source\PSoC5/USBUART_1_std.c ****         pTmp = &pTmp[1u];
 995:Generated_Source\PSoC5/USBUART_1_std.c ****         pTmp = (const T_USBUART_1_LUT CYCODE *) pTmp->p_list;
 996:Generated_Source\PSoC5/USBUART_1_std.c ****         return (pTmp);
 997:Generated_Source\PSoC5/USBUART_1_std.c ****     }
 998:Generated_Source\PSoC5/USBUART_1_std.c **** #endif /* (USBUART_1_BOS_ENABLE) */
 999:Generated_Source\PSoC5/USBUART_1_std.c **** 
1000:Generated_Source\PSoC5/USBUART_1_std.c **** 
1001:Generated_Source\PSoC5/USBUART_1_std.c **** /*******************************************************************************
1002:Generated_Source\PSoC5/USBUART_1_std.c **** * Function Name: USBUART_1_GetDeviceTablePtr
1003:Generated_Source\PSoC5/USBUART_1_std.c **** ****************************************************************************//**
1004:Generated_Source\PSoC5/USBUART_1_std.c **** *
1005:Generated_Source\PSoC5/USBUART_1_std.c **** *  This routine returns a pointer to the Device table
ARM GAS  C:\Users\DGILLI~1\AppData\Local\Temp\ccItuQxT.s 			page 29


1006:Generated_Source\PSoC5/USBUART_1_std.c **** *
1007:Generated_Source\PSoC5/USBUART_1_std.c **** * \return
1008:Generated_Source\PSoC5/USBUART_1_std.c **** *  Device Table pointer
1009:Generated_Source\PSoC5/USBUART_1_std.c **** *
1010:Generated_Source\PSoC5/USBUART_1_std.c **** *******************************************************************************/
1011:Generated_Source\PSoC5/USBUART_1_std.c **** const T_USBUART_1_LUT CYCODE *USBUART_1_GetDeviceTablePtr(void)
1012:Generated_Source\PSoC5/USBUART_1_std.c ****                                                             
1013:Generated_Source\PSoC5/USBUART_1_std.c **** {
 551              		.loc 1 1013 0 is_stmt 1
 552              		.cfi_startproc
 553              		@ args = 0, pretend = 0, frame = 0
 554              		@ frame_needed = 0, uses_anonymous_args = 0
 555              		@ link register save eliminated.
1014:Generated_Source\PSoC5/USBUART_1_std.c ****     /* Device Table */
1015:Generated_Source\PSoC5/USBUART_1_std.c ****     return( (const T_USBUART_1_LUT CYCODE *) USBUART_1_TABLE[USBUART_1_device].p_list );
 556              		.loc 1 1015 0
 557 0000 034B     		ldr	r3, .L44
 558 0002 1A78     		ldrb	r2, [r3]	@ zero_extendqisi2
 559 0004 034B     		ldr	r3, .L44+4
 560 0006 03EBC203 		add	r3, r3, r2, lsl #3
1016:Generated_Source\PSoC5/USBUART_1_std.c **** }
 561              		.loc 1 1016 0
 562 000a 5868     		ldr	r0, [r3, #4]
 563 000c 7047     		bx	lr
 564              	.L45:
 565 000e 00BF     		.align	2
 566              	.L44:
 567 0010 00000000 		.word	USBUART_1_device
 568 0014 00000000 		.word	USBUART_1_TABLE
 569              		.cfi_endproc
 570              	.LFE7:
 571              		.size	USBUART_1_GetDeviceTablePtr, .-USBUART_1_GetDeviceTablePtr
 572              		.section	.text.USBUART_1_GetInterfaceClassTablePtr,"ax",%progbits
 573              		.align	2
 574              		.global	USBUART_1_GetInterfaceClassTablePtr
 575              		.thumb
 576              		.thumb_func
 577              		.type	USBUART_1_GetInterfaceClassTablePtr, %function
 578              	USBUART_1_GetInterfaceClassTablePtr:
 579              	.LFB8:
1017:Generated_Source\PSoC5/USBUART_1_std.c **** 
1018:Generated_Source\PSoC5/USBUART_1_std.c **** 
1019:Generated_Source\PSoC5/USBUART_1_std.c **** /*******************************************************************************
1020:Generated_Source\PSoC5/USBUART_1_std.c **** * Function Name: USB_GetInterfaceClassTablePtr
1021:Generated_Source\PSoC5/USBUART_1_std.c **** ****************************************************************************//**
1022:Generated_Source\PSoC5/USBUART_1_std.c **** *
1023:Generated_Source\PSoC5/USBUART_1_std.c **** *  This routine returns Interface Class table pointer, which contains
1024:Generated_Source\PSoC5/USBUART_1_std.c **** *  the relation between interface number and interface class.
1025:Generated_Source\PSoC5/USBUART_1_std.c **** *
1026:Generated_Source\PSoC5/USBUART_1_std.c **** * \return
1027:Generated_Source\PSoC5/USBUART_1_std.c **** *  Interface Class table pointer.
1028:Generated_Source\PSoC5/USBUART_1_std.c **** *
1029:Generated_Source\PSoC5/USBUART_1_std.c **** *******************************************************************************/
1030:Generated_Source\PSoC5/USBUART_1_std.c **** const uint8 CYCODE *USBUART_1_GetInterfaceClassTablePtr(void)
1031:Generated_Source\PSoC5/USBUART_1_std.c ****                                                         
1032:Generated_Source\PSoC5/USBUART_1_std.c **** {
 580              		.loc 1 1032 0
ARM GAS  C:\Users\DGILLI~1\AppData\Local\Temp\ccItuQxT.s 			page 30


 581              		.cfi_startproc
 582              		@ args = 0, pretend = 0, frame = 0
 583              		@ frame_needed = 0, uses_anonymous_args = 0
 584 0000 08B5     		push	{r3, lr}
 585              		.cfi_def_cfa_offset 8
 586              		.cfi_offset 3, -8
 587              		.cfi_offset 14, -4
1033:Generated_Source\PSoC5/USBUART_1_std.c ****     const T_USBUART_1_LUT CYCODE *pTmp;
1034:Generated_Source\PSoC5/USBUART_1_std.c ****     const uint8 CYCODE *pInterfaceClass;
1035:Generated_Source\PSoC5/USBUART_1_std.c ****     uint8 currentInterfacesNum;
1036:Generated_Source\PSoC5/USBUART_1_std.c **** 
1037:Generated_Source\PSoC5/USBUART_1_std.c ****     pTmp = USBUART_1_GetConfigTablePtr(USBUART_1_configuration - 1u);
 588              		.loc 1 1037 0
 589 0002 074B     		ldr	r3, .L50
 590 0004 1878     		ldrb	r0, [r3]	@ zero_extendqisi2
 591 0006 0138     		subs	r0, r0, #1
 592 0008 C0B2     		uxtb	r0, r0
 593 000a FFF7FEFF 		bl	USBUART_1_GetConfigTablePtr
 594              	.LVL42:
1038:Generated_Source\PSoC5/USBUART_1_std.c ****     if (pTmp != NULL)
 595              		.loc 1 1038 0
 596 000e 28B1     		cbz	r0, .L48
1039:Generated_Source\PSoC5/USBUART_1_std.c ****     {
1040:Generated_Source\PSoC5/USBUART_1_std.c ****         currentInterfacesNum  = ((const uint8 *) pTmp->p_list)[USBUART_1_CONFIG_DESCR_NUM_INTERFACE
 597              		.loc 1 1040 0
 598 0010 4268     		ldr	r2, [r0, #4]
 599 0012 1279     		ldrb	r2, [r2, #4]	@ zero_extendqisi2
 600              	.LVL43:
1041:Generated_Source\PSoC5/USBUART_1_std.c ****         /* Third entry in the LUT starts the Interface Table pointers */
1042:Generated_Source\PSoC5/USBUART_1_std.c ****         /* The INTERFACE_CLASS table is located after all interfaces */
1043:Generated_Source\PSoC5/USBUART_1_std.c ****         pTmp = &pTmp[currentInterfacesNum + 2u];
 601              		.loc 1 1043 0
 602 0014 00EBC203 		add	r3, r0, r2, lsl #3
 603              	.LVL44:
1044:Generated_Source\PSoC5/USBUART_1_std.c ****         pInterfaceClass = (const uint8 CYCODE *) pTmp->p_list;
 604              		.loc 1 1044 0
 605 0018 5869     		ldr	r0, [r3, #20]
 606              	.LVL45:
 607 001a 08BD     		pop	{r3, pc}
 608              	.LVL46:
 609              	.L48:
1045:Generated_Source\PSoC5/USBUART_1_std.c ****     }
1046:Generated_Source\PSoC5/USBUART_1_std.c ****     else
1047:Generated_Source\PSoC5/USBUART_1_std.c ****     {
1048:Generated_Source\PSoC5/USBUART_1_std.c ****         pInterfaceClass = (const uint8 CYCODE *) NULL;
 610              		.loc 1 1048 0
 611 001c 0020     		movs	r0, #0
 612              	.LVL47:
1049:Generated_Source\PSoC5/USBUART_1_std.c ****     }
1050:Generated_Source\PSoC5/USBUART_1_std.c **** 
1051:Generated_Source\PSoC5/USBUART_1_std.c ****     return (pInterfaceClass);
1052:Generated_Source\PSoC5/USBUART_1_std.c **** }
 613              		.loc 1 1052 0
 614 001e 08BD     		pop	{r3, pc}
 615              	.L51:
 616              		.align	2
 617              	.L50:
ARM GAS  C:\Users\DGILLI~1\AppData\Local\Temp\ccItuQxT.s 			page 31


 618 0020 00000000 		.word	USBUART_1_configuration
 619              		.cfi_endproc
 620              	.LFE8:
 621              		.size	USBUART_1_GetInterfaceClassTablePtr, .-USBUART_1_GetInterfaceClassTablePtr
 622              		.section	.text.USBUART_1_Config,"ax",%progbits
 623              		.align	2
 624              		.global	USBUART_1_Config
 625              		.thumb
 626              		.thumb_func
 627              		.type	USBUART_1_Config, %function
 628              	USBUART_1_Config:
 629              	.LFB4:
 571:Generated_Source\PSoC5/USBUART_1_std.c ****     uint8 ep;
 630              		.loc 1 571 0
 631              		.cfi_startproc
 632              		@ args = 0, pretend = 0, frame = 0
 633              		@ frame_needed = 0, uses_anonymous_args = 0
 634              	.LVL48:
 635 0000 2DE9F843 		push	{r3, r4, r5, r6, r7, r8, r9, lr}
 636              		.cfi_def_cfa_offset 32
 637              		.cfi_offset 3, -32
 638              		.cfi_offset 4, -28
 639              		.cfi_offset 5, -24
 640              		.cfi_offset 6, -20
 641              		.cfi_offset 7, -16
 642              		.cfi_offset 8, -12
 643              		.cfi_offset 9, -8
 644              		.cfi_offset 14, -4
 645              	.LVL49:
 586:Generated_Source\PSoC5/USBUART_1_std.c ****     {
 646              		.loc 1 586 0
 647 0004 0022     		movs	r2, #0
 648 0006 0EE0     		b	.L53
 649              	.LVL50:
 650              	.L54:
 588:Generated_Source\PSoC5/USBUART_1_std.c ****         USBUART_1_EP[ep].hwEpState  = 0u;
 651              		.loc 1 588 0 discriminator 3
 652 0008 6F4E     		ldr	r6, .L80
 653 000a 5300     		lsls	r3, r2, #1
 654 000c 9D18     		adds	r5, r3, r2
 655 000e AD00     		lsls	r5, r5, #2
 656 0010 7419     		adds	r4, r6, r5
 657 0012 0021     		movs	r1, #0
 658 0014 7155     		strb	r1, [r6, r5]
 589:Generated_Source\PSoC5/USBUART_1_std.c ****         USBUART_1_EP[ep].epToggle   = 0u;
 659              		.loc 1 589 0 discriminator 3
 660 0016 A170     		strb	r1, [r4, #2]
 590:Generated_Source\PSoC5/USBUART_1_std.c ****         USBUART_1_EP[ep].bufferSize = 0u;
 661              		.loc 1 590 0 discriminator 3
 662 0018 E170     		strb	r1, [r4, #3]
 591:Generated_Source\PSoC5/USBUART_1_std.c ****         USBUART_1_EP[ep].interface  = 0u;
 663              		.loc 1 591 0 discriminator 3
 664 001a 2181     		strh	r1, [r4, #8]	@ movhi
 592:Generated_Source\PSoC5/USBUART_1_std.c ****         USBUART_1_EP[ep].apiEpState = USBUART_1_NO_EVENT_PENDING;
 665              		.loc 1 592 0 discriminator 3
 666 001c A172     		strb	r1, [r4, #10]
 593:Generated_Source\PSoC5/USBUART_1_std.c ****         USBUART_1_EP[ep].epMode     = USBUART_1_MODE_DISABLE;   
ARM GAS  C:\Users\DGILLI~1\AppData\Local\Temp\ccItuQxT.s 			page 32


 667              		.loc 1 593 0 discriminator 3
 668 001e 6170     		strb	r1, [r4, #1]
 594:Generated_Source\PSoC5/USBUART_1_std.c ****     }
 669              		.loc 1 594 0 discriminator 3
 670 0020 6171     		strb	r1, [r4, #5]
 586:Generated_Source\PSoC5/USBUART_1_std.c ****     {
 671              		.loc 1 586 0 discriminator 3
 672 0022 0132     		adds	r2, r2, #1
 673              	.LVL51:
 674 0024 D2B2     		uxtb	r2, r2
 675              	.LVL52:
 676              	.L53:
 586:Generated_Source\PSoC5/USBUART_1_std.c ****     {
 677              		.loc 1 586 0 is_stmt 0 discriminator 1
 678 0026 082A     		cmp	r2, #8
 679 0028 EED9     		bls	.L54
 598:Generated_Source\PSoC5/USBUART_1_std.c ****     {
 680              		.loc 1 598 0 is_stmt 1
 681 002a 40B9     		cbnz	r0, .L76
 682 002c 0AE0     		b	.L56
 683              	.LVL53:
 684              	.L57:
 602:Generated_Source\PSoC5/USBUART_1_std.c ****             USBUART_1_interfaceSettingLast[i] = 0u;
 685              		.loc 1 602 0 discriminator 3
 686 002e 0022     		movs	r2, #0
 687 0030 6649     		ldr	r1, .L80+4
 688 0032 CA54     		strb	r2, [r1, r3]
 603:Generated_Source\PSoC5/USBUART_1_std.c ****         }
 689              		.loc 1 603 0 discriminator 3
 690 0034 6649     		ldr	r1, .L80+8
 691 0036 CA54     		strb	r2, [r1, r3]
 600:Generated_Source\PSoC5/USBUART_1_std.c ****         {
 692              		.loc 1 600 0 discriminator 3
 693 0038 0133     		adds	r3, r3, #1
 694              	.LVL54:
 695 003a DBB2     		uxtb	r3, r3
 696              	.LVL55:
 697 003c 00E0     		b	.L55
 698              	.LVL56:
 699              	.L76:
 700 003e 0023     		movs	r3, #0
 701              	.LVL57:
 702              	.L55:
 600:Generated_Source\PSoC5/USBUART_1_std.c ****         {
 703              		.loc 1 600 0 is_stmt 0 discriminator 1
 704 0040 012B     		cmp	r3, #1
 705 0042 F4D9     		bls	.L57
 706              	.LVL58:
 707              	.L56:
 608:Generated_Source\PSoC5/USBUART_1_std.c ****     {
 708              		.loc 1 608 0 is_stmt 1
 709 0044 634B     		ldr	r3, .L80+12
 710 0046 1B78     		ldrb	r3, [r3]	@ zero_extendqisi2
 711 0048 13F0FF0F 		tst	r3, #255
 712 004c 00F0B980 		beq	.L52
 713              	.LVL59:
 714              	.LBB2:
ARM GAS  C:\Users\DGILLI~1\AppData\Local\Temp\ccItuQxT.s 			page 33


 614:Generated_Source\PSoC5/USBUART_1_std.c ****         
 715              		.loc 1 614 0
 716 0050 604B     		ldr	r3, .L80+12
 717 0052 1878     		ldrb	r0, [r3]	@ zero_extendqisi2
 718              	.LVL60:
 719 0054 0138     		subs	r0, r0, #1
 720 0056 C0B2     		uxtb	r0, r0
 721 0058 FFF7FEFF 		bl	USBUART_1_GetConfigTablePtr
 722              	.LVL61:
 723 005c 8046     		mov	r8, r0
 724              	.LVL62:
 617:Generated_Source\PSoC5/USBUART_1_std.c ****         if ((pDescr[USBUART_1_CONFIG_DESCR_ATTRIB] & USBUART_1_CONFIG_DESCR_ATTRIB_SELF_POWERED) !=
 725              		.loc 1 617 0
 726 005e 4368     		ldr	r3, [r0, #4]
 727              	.LVL63:
 618:Generated_Source\PSoC5/USBUART_1_std.c ****         {
 728              		.loc 1 618 0
 729 0060 DB79     		ldrb	r3, [r3, #7]	@ zero_extendqisi2
 730              	.LVL64:
 731 0062 13F0400F 		tst	r3, #64
 732 0066 05D0     		beq	.L59
 620:Generated_Source\PSoC5/USBUART_1_std.c ****         }
 733              		.loc 1 620 0
 734 0068 5B4A     		ldr	r2, .L80+16
 735 006a 1378     		ldrb	r3, [r2]	@ zero_extendqisi2
 736 006c 43F00103 		orr	r3, r3, #1
 737 0070 1370     		strb	r3, [r2]
 738 0072 04E0     		b	.L60
 739              	.L59:
 624:Generated_Source\PSoC5/USBUART_1_std.c ****         }
 740              		.loc 1 624 0
 741 0074 584A     		ldr	r2, .L80+16
 742 0076 1378     		ldrb	r3, [r2]	@ zero_extendqisi2
 743 0078 03F0FE03 		and	r3, r3, #254
 744 007c 1370     		strb	r3, [r2]
 745              	.L60:
 746              	.LVL65:
 629:Generated_Source\PSoC5/USBUART_1_std.c **** 
 747              		.loc 1 629 0
 748 007e 98F80870 		ldrb	r7, [r8, #8]	@ zero_extendqisi2
 749              	.LVL66:
 611:Generated_Source\PSoC5/USBUART_1_std.c ****         #endif  /* (USBUART_1_ENABLE_CDC_CLASS) */  
 750              		.loc 1 611 0
 751 0082 4FF00009 		mov	r9, #0
 687:Generated_Source\PSoC5/USBUART_1_std.c ****             {
 752              		.loc 1 687 0
 753 0086 0126     		movs	r6, #1
 754 0088 6CE0     		b	.L61
 755              	.LVL67:
 756              	.L71:
 690:Generated_Source\PSoC5/USBUART_1_std.c ****                 /* Find max length for each EP and select it (length could be different in differen
 757              		.loc 1 690 0
 758 008a D8F80C50 		ldr	r5, [r8, #12]
 759              	.LVL68:
 694:Generated_Source\PSoC5/USBUART_1_std.c ****                 {
 760              		.loc 1 694 0
 761 008e 0024     		movs	r4, #0
ARM GAS  C:\Users\DGILLI~1\AppData\Local\Temp\ccItuQxT.s 			page 34


 762 0090 64E0     		b	.L62
 763              	.LVL69:
 764              	.L70:
 696:Generated_Source\PSoC5/USBUART_1_std.c ****                     {
 765              		.loc 1 696 0
 766 0092 AB78     		ldrb	r3, [r5, #2]	@ zero_extendqisi2
 767 0094 03F07F03 		and	r3, r3, #127
 768 0098 9E42     		cmp	r6, r3
 769 009a 5CD1     		bne	.L63
 699:Generated_Source\PSoC5/USBUART_1_std.c ****                         {
 770              		.loc 1 699 0
 771 009c 3146     		mov	r1, r6
 772 009e 06EB4603 		add	r3, r6, r6, lsl #1
 773 00a2 9B00     		lsls	r3, r3, #2
 774 00a4 4848     		ldr	r0, .L80
 775 00a6 0344     		add	r3, r3, r0
 776 00a8 1B89     		ldrh	r3, [r3, #8]
 777 00aa 9BB2     		uxth	r3, r3
 778 00ac A888     		ldrh	r0, [r5, #4]
 779 00ae 8342     		cmp	r3, r0
 780 00b0 05D2     		bcs	.L64
 701:Generated_Source\PSoC5/USBUART_1_std.c ****                         }
 781              		.loc 1 701 0
 782 00b2 06EB4603 		add	r3, r6, r6, lsl #1
 783 00b6 9B00     		lsls	r3, r3, #2
 784 00b8 434A     		ldr	r2, .L80
 785 00ba 1344     		add	r3, r3, r2
 786 00bc 1881     		strh	r0, [r3, #8]	@ movhi
 787              	.L64:
 705:Generated_Source\PSoC5/USBUART_1_std.c ****                         {                            
 788              		.loc 1 705 0
 789 00be 2B78     		ldrb	r3, [r5]	@ zero_extendqisi2
 790 00c0 4248     		ldr	r0, .L80+4
 791 00c2 C35C     		ldrb	r3, [r0, r3]	@ zero_extendqisi2
 792 00c4 DBB2     		uxtb	r3, r3
 793 00c6 6878     		ldrb	r0, [r5, #1]	@ zero_extendqisi2
 794 00c8 8342     		cmp	r3, r0
 795 00ca 44D1     		bne	.L63
 707:Generated_Source\PSoC5/USBUART_1_std.c ****                             USBUART_1_EP[i].attrib = pEP->attributes;
 796              		.loc 1 707 0
 797 00cc 95F802C0 		ldrb	ip, [r5, #2]	@ zero_extendqisi2
 798 00d0 3D48     		ldr	r0, .L80
 799 00d2 4B00     		lsls	r3, r1, #1
 800 00d4 0B44     		add	r3, r3, r1
 801 00d6 9B00     		lsls	r3, r3, #2
 802 00d8 00EB030E 		add	lr, r0, r3
 803 00dc 8EF804C0 		strb	ip, [lr, #4]
 708:Generated_Source\PSoC5/USBUART_1_std.c ****                             
 804              		.loc 1 708 0
 805 00e0 95F803E0 		ldrb	lr, [r5, #3]	@ zero_extendqisi2
 806 00e4 00F803E0 		strb	lr, [r0, r3]
 710:Generated_Source\PSoC5/USBUART_1_std.c ****                             
 807              		.loc 1 710 0
 808 00e8 EB78     		ldrb	r3, [r5, #3]	@ zero_extendqisi2
 809 00ea 03F00303 		and	r3, r3, #3
 810              	.LVL70:
 712:Generated_Source\PSoC5/USBUART_1_std.c ****                             {
ARM GAS  C:\Users\DGILLI~1\AppData\Local\Temp\ccItuQxT.s 			page 35


 811              		.loc 1 712 0
 812 00ee 95F90200 		ldrsb	r0, [r5, #2]
 813 00f2 0028     		cmp	r0, #0
 814 00f4 11DA     		bge	.L65
 715:Generated_Source\PSoC5/USBUART_1_std.c ****                                 USBUART_1_EP[i].apiEpState = USBUART_1_EVENT_PENDING;
 815              		.loc 1 715 0
 816 00f6 012B     		cmp	r3, #1
 817 00f8 02D1     		bne	.L77
 818 00fa 4FF0070C 		mov	ip, #7
 819 00fe 01E0     		b	.L66
 820              	.L77:
 821 0100 4FF00D0C 		mov	ip, #13
 822              	.L66:
 715:Generated_Source\PSoC5/USBUART_1_std.c ****                                 USBUART_1_EP[i].apiEpState = USBUART_1_EVENT_PENDING;
 823              		.loc 1 715 0 is_stmt 0 discriminator 4
 824 0104 DFF8C0E0 		ldr	lr, .L80
 825 0108 4B00     		lsls	r3, r1, #1
 826              	.LVL71:
 827 010a 5818     		adds	r0, r3, r1
 828 010c 8000     		lsls	r0, r0, #2
 829 010e 7044     		add	r0, r0, lr
 830 0110 80F805C0 		strb	ip, [r0, #5]
 831              	.LVL72:
 716:Generated_Source\PSoC5/USBUART_1_std.c ****                                 
 832              		.loc 1 716 0 is_stmt 1 discriminator 4
 833 0114 0123     		movs	r3, #1
 834 0116 4370     		strb	r3, [r0, #1]
 835 0118 12E0     		b	.L67
 836              	.LVL73:
 837              	.L65:
 728:Generated_Source\PSoC5/USBUART_1_std.c ****                                 USBUART_1_EP[i].apiEpState = USBUART_1_NO_EVENT_PENDING;
 838              		.loc 1 728 0
 839 011a 012B     		cmp	r3, #1
 840 011c 02D1     		bne	.L78
 841 011e 4FF0050C 		mov	ip, #5
 842 0122 01E0     		b	.L68
 843              	.L78:
 844 0124 4FF0090C 		mov	ip, #9
 845              	.L68:
 728:Generated_Source\PSoC5/USBUART_1_std.c ****                                 USBUART_1_EP[i].apiEpState = USBUART_1_NO_EVENT_PENDING;
 846              		.loc 1 728 0 is_stmt 0 discriminator 4
 847 0128 2748     		ldr	r0, .L80
 848 012a 4FEA410E 		lsl	lr, r1, #1
 849 012e 0EEB0103 		add	r3, lr, r1
 850              	.LVL74:
 851 0132 9B00     		lsls	r3, r3, #2
 852 0134 0344     		add	r3, r3, r0
 853 0136 83F805C0 		strb	ip, [r3, #5]
 854              	.LVL75:
 729:Generated_Source\PSoC5/USBUART_1_std.c ****                                 
 855              		.loc 1 729 0 is_stmt 1 discriminator 4
 856 013a 1946     		mov	r1, r3
 857 013c 0023     		movs	r3, #0
 858 013e 4B70     		strb	r3, [r1, #1]
 859              	.L67:
 740:Generated_Source\PSoC5/USBUART_1_std.c ****                             {
 860              		.loc 1 740 0
ARM GAS  C:\Users\DGILLI~1\AppData\Local\Temp\ccItuQxT.s 			page 36


 861 0140 AB79     		ldrb	r3, [r5, #6]	@ zero_extendqisi2
 862 0142 0A2B     		cmp	r3, #10
 863 0144 01D0     		beq	.L69
 740:Generated_Source\PSoC5/USBUART_1_std.c ****                             {
 864              		.loc 1 740 0 is_stmt 0 discriminator 1
 865 0146 022B     		cmp	r3, #2
 866 0148 05D1     		bne	.L63
 867              	.L69:
 742:Generated_Source\PSoC5/USBUART_1_std.c ****                             }
 868              		.loc 1 742 0 is_stmt 1
 869 014a 2846     		mov	r0, r5
 870 014c 3146     		mov	r1, r6
 871 014e 4A46     		mov	r2, r9
 872 0150 FFF7FEFF 		bl	USBUART_1_Cdc_EpInit
 873              	.LVL76:
 874 0154 8146     		mov	r9, r0
 875              	.LVL77:
 876              	.L63:
 752:Generated_Source\PSoC5/USBUART_1_std.c ****                 }
 877              		.loc 1 752 0 discriminator 2
 878 0156 0835     		adds	r5, r5, #8
 879              	.LVL78:
 694:Generated_Source\PSoC5/USBUART_1_std.c ****                 {
 880              		.loc 1 694 0 discriminator 2
 881 0158 0134     		adds	r4, r4, #1
 882              	.LVL79:
 883 015a E4B2     		uxtb	r4, r4
 884              	.LVL80:
 885              	.L62:
 694:Generated_Source\PSoC5/USBUART_1_std.c ****                 {
 886              		.loc 1 694 0 is_stmt 0 discriminator 1
 887 015c BC42     		cmp	r4, r7
 888 015e 98D3     		bcc	.L70
 687:Generated_Source\PSoC5/USBUART_1_std.c ****             {
 889              		.loc 1 687 0 is_stmt 1 discriminator 2
 890 0160 0136     		adds	r6, r6, #1
 891              	.LVL81:
 892 0162 F6B2     		uxtb	r6, r6
 893              	.LVL82:
 894              	.L61:
 687:Generated_Source\PSoC5/USBUART_1_std.c ****             {
 895              		.loc 1 687 0 is_stmt 0 discriminator 1
 896 0164 082E     		cmp	r6, #8
 897 0166 90D9     		bls	.L71
 762:Generated_Source\PSoC5/USBUART_1_std.c ****         for (i = 0u; i < ep; i++)
 898              		.loc 1 762 0 is_stmt 1
 899 0168 D8F80C00 		ldr	r0, [r8, #12]
 900              	.LVL83:
 763:Generated_Source\PSoC5/USBUART_1_std.c ****         {
 901              		.loc 1 763 0
 902 016c 0022     		movs	r2, #0
 903 016e 0CE0     		b	.L72
 904              	.LVL84:
 905              	.L73:
 766:Generated_Source\PSoC5/USBUART_1_std.c ****             pEP = &pEP[1u];
 906              		.loc 1 766 0 discriminator 3
 907 0170 8378     		ldrb	r3, [r0, #2]	@ zero_extendqisi2
ARM GAS  C:\Users\DGILLI~1\AppData\Local\Temp\ccItuQxT.s 			page 37


 908 0172 03F07F03 		and	r3, r3, #127
 909 0176 10F8084B 		ldrb	r4, [r0], #8	@ zero_extendqisi2
 910              	.LVL85:
 911 017a 03EB4303 		add	r3, r3, r3, lsl #1
 912 017e 9B00     		lsls	r3, r3, #2
 913 0180 1649     		ldr	r1, .L80+20
 914 0182 0B44     		add	r3, r3, r1
 915 0184 9C70     		strb	r4, [r3, #2]
 916              	.LVL86:
 763:Generated_Source\PSoC5/USBUART_1_std.c ****         {
 917              		.loc 1 763 0 discriminator 3
 918 0186 0132     		adds	r2, r2, #1
 919              	.LVL87:
 920 0188 D2B2     		uxtb	r2, r2
 921              	.LVL88:
 922              	.L72:
 763:Generated_Source\PSoC5/USBUART_1_std.c ****         {
 923              		.loc 1 763 0 is_stmt 0 discriminator 1
 924 018a BA42     		cmp	r2, r7
 925 018c F0D3     		bcc	.L73
 771:Generated_Source\PSoC5/USBUART_1_std.c ****         
 926              		.loc 1 771 0 is_stmt 1
 927 018e FFF7FEFF 		bl	USBUART_1_GetInterfaceClassTablePtr
 928              	.LVL89:
 929 0192 134B     		ldr	r3, .L80+24
 930 0194 1860     		str	r0, [r3]
 931              	.LVL90:
 775:Generated_Source\PSoC5/USBUART_1_std.c ****         for (ep = USBUART_1_EP1; ep < USBUART_1_MAX_EP; ++ep)
 932              		.loc 1 775 0
 933 0196 0023     		movs	r3, #0
 776:Generated_Source\PSoC5/USBUART_1_std.c ****         {
 934              		.loc 1 776 0
 935 0198 0121     		movs	r1, #1
 936 019a 0EE0     		b	.L74
 937              	.LVL91:
 938              	.L75:
 778:Generated_Source\PSoC5/USBUART_1_std.c ****             buffCount += USBUART_1_EP[ep].bufferSize;
 939              		.loc 1 778 0 discriminator 3
 940 019c 0A4C     		ldr	r4, .L80
 941 019e 4A00     		lsls	r2, r1, #1
 942 01a0 5018     		adds	r0, r2, r1
 943 01a2 8000     		lsls	r0, r0, #2
 944 01a4 2044     		add	r0, r0, r4
 945 01a6 C380     		strh	r3, [r0, #6]	@ movhi
 779:Generated_Source\PSoC5/USBUART_1_std.c ****             
 946              		.loc 1 779 0 discriminator 3
 947 01a8 0289     		ldrh	r2, [r0, #8]
 948 01aa 1344     		add	r3, r3, r2
 949              	.LVL92:
 950 01ac 9BB2     		uxth	r3, r3
 951              	.LVL93:
 783:Generated_Source\PSoC5/USBUART_1_std.c ****         #endif /* (USBUART_1_GEN_16BITS_EP_ACCESS) */            
 952              		.loc 1 783 0 discriminator 3
 953 01ae 03F00102 		and	r2, r3, #1
 954 01b2 1344     		add	r3, r3, r2
 955              	.LVL94:
 956 01b4 9BB2     		uxth	r3, r3
ARM GAS  C:\Users\DGILLI~1\AppData\Local\Temp\ccItuQxT.s 			page 38


 957              	.LVL95:
 776:Generated_Source\PSoC5/USBUART_1_std.c ****         {
 958              		.loc 1 776 0 discriminator 3
 959 01b6 0131     		adds	r1, r1, #1
 960              	.LVL96:
 961 01b8 C9B2     		uxtb	r1, r1
 962              	.LVL97:
 963              	.L74:
 776:Generated_Source\PSoC5/USBUART_1_std.c ****         {
 964              		.loc 1 776 0 is_stmt 0 discriminator 1
 965 01ba 0829     		cmp	r1, #8
 966 01bc EED9     		bls	.L75
 789:Generated_Source\PSoC5/USBUART_1_std.c ****     }
 967              		.loc 1 789 0 is_stmt 1
 968 01be FFF7FEFF 		bl	USBUART_1_ConfigReg
 969              	.LVL98:
 970              	.L52:
 971 01c2 BDE8F883 		pop	{r3, r4, r5, r6, r7, r8, r9, pc}
 972              	.L81:
 973 01c6 00BF     		.align	2
 974              	.L80:
 975 01c8 00000000 		.word	USBUART_1_EP
 976 01cc 00000000 		.word	USBUART_1_interfaceSetting
 977 01d0 00000000 		.word	USBUART_1_interfaceSettingLast
 978 01d4 00000000 		.word	USBUART_1_configuration
 979 01d8 00000000 		.word	USBUART_1_deviceStatus
 980 01dc 08000000 		.word	USBUART_1_EP+8
 981 01e0 00000000 		.word	USBUART_1_interfaceClass
 982              	.LBE2:
 983              		.cfi_endproc
 984              	.LFE4:
 985              		.size	USBUART_1_Config, .-USBUART_1_Config
 986              		.section	.text.USBUART_1_TerminateEP,"ax",%progbits
 987              		.align	2
 988              		.global	USBUART_1_TerminateEP
 989              		.thumb
 990              		.thumb_func
 991              		.type	USBUART_1_TerminateEP, %function
 992              	USBUART_1_TerminateEP:
 993              	.LFB9:
1053:Generated_Source\PSoC5/USBUART_1_std.c **** 
1054:Generated_Source\PSoC5/USBUART_1_std.c **** 
1055:Generated_Source\PSoC5/USBUART_1_std.c **** /*******************************************************************************
1056:Generated_Source\PSoC5/USBUART_1_std.c **** * Function Name: USBUART_1_TerminateEP
1057:Generated_Source\PSoC5/USBUART_1_std.c **** ****************************************************************************//**
1058:Generated_Source\PSoC5/USBUART_1_std.c **** *
1059:Generated_Source\PSoC5/USBUART_1_std.c **** *  This function terminates the specified USBFS endpoint.
1060:Generated_Source\PSoC5/USBUART_1_std.c **** *  This function should be used before endpoint reconfiguration.
1061:Generated_Source\PSoC5/USBUART_1_std.c **** *
1062:Generated_Source\PSoC5/USBUART_1_std.c **** *  \param ep Contains the data endpoint number.
1063:Generated_Source\PSoC5/USBUART_1_std.c **** *
1064:Generated_Source\PSoC5/USBUART_1_std.c **** *  \reentrant
1065:Generated_Source\PSoC5/USBUART_1_std.c **** *  No.
1066:Generated_Source\PSoC5/USBUART_1_std.c **** *
1067:Generated_Source\PSoC5/USBUART_1_std.c **** * \sideeffect
1068:Generated_Source\PSoC5/USBUART_1_std.c **** * 
1069:Generated_Source\PSoC5/USBUART_1_std.c **** * The device responds with a NAK for any transactions on the selected endpoint.
ARM GAS  C:\Users\DGILLI~1\AppData\Local\Temp\ccItuQxT.s 			page 39


1070:Generated_Source\PSoC5/USBUART_1_std.c **** *   
1071:Generated_Source\PSoC5/USBUART_1_std.c **** *******************************************************************************/
1072:Generated_Source\PSoC5/USBUART_1_std.c **** void USBUART_1_TerminateEP(uint8 epNumber) 
1073:Generated_Source\PSoC5/USBUART_1_std.c **** {
 994              		.loc 1 1073 0
 995              		.cfi_startproc
 996              		@ args = 0, pretend = 0, frame = 0
 997              		@ frame_needed = 0, uses_anonymous_args = 0
 998              		@ link register save eliminated.
 999              	.LVL99:
1074:Generated_Source\PSoC5/USBUART_1_std.c ****     /* Get endpoint number */
1075:Generated_Source\PSoC5/USBUART_1_std.c ****     epNumber &= USBUART_1_DIR_UNUSED;
 1000              		.loc 1 1075 0
 1001 0000 00F07F00 		and	r0, r0, #127
 1002              	.LVL100:
1076:Generated_Source\PSoC5/USBUART_1_std.c **** 
1077:Generated_Source\PSoC5/USBUART_1_std.c ****     if ((epNumber > USBUART_1_EP0) && (epNumber < USBUART_1_MAX_EP))
 1003              		.loc 1 1077 0
 1004 0004 431E     		subs	r3, r0, #1
 1005 0006 DBB2     		uxtb	r3, r3
 1006 0008 072B     		cmp	r3, #7
 1007 000a 19D8     		bhi	.L82
1078:Generated_Source\PSoC5/USBUART_1_std.c ****     {
1079:Generated_Source\PSoC5/USBUART_1_std.c ****         /* Set the endpoint Halt */
1080:Generated_Source\PSoC5/USBUART_1_std.c ****         USBUART_1_EP[epNumber].hwEpState |= USBUART_1_ENDPOINT_STATUS_HALT;
 1008              		.loc 1 1080 0
 1009 000c 4300     		lsls	r3, r0, #1
 1010 000e 0344     		add	r3, r3, r0
 1011 0010 9B00     		lsls	r3, r3, #2
 1012 0012 0C4A     		ldr	r2, .L85
 1013 0014 1344     		add	r3, r3, r2
 1014 0016 9A78     		ldrb	r2, [r3, #2]	@ zero_extendqisi2
 1015 0018 42F00102 		orr	r2, r2, #1
 1016 001c 9A70     		strb	r2, [r3, #2]
1081:Generated_Source\PSoC5/USBUART_1_std.c **** 
1082:Generated_Source\PSoC5/USBUART_1_std.c ****         /* Clear the data toggle */
1083:Generated_Source\PSoC5/USBUART_1_std.c ****         USBUART_1_EP[epNumber].epToggle = 0u;
 1017              		.loc 1 1083 0
 1018 001e 0022     		movs	r2, #0
 1019 0020 DA70     		strb	r2, [r3, #3]
1084:Generated_Source\PSoC5/USBUART_1_std.c ****         USBUART_1_EP[epNumber].apiEpState = USBUART_1_NO_EVENT_ALLOWED;
 1020              		.loc 1 1084 0
 1021 0022 0222     		movs	r2, #2
 1022 0024 5A70     		strb	r2, [r3, #1]
1085:Generated_Source\PSoC5/USBUART_1_std.c **** 
1086:Generated_Source\PSoC5/USBUART_1_std.c ****         if ((USBUART_1_EP[epNumber].addr & USBUART_1_DIR_IN) != 0u)
 1023              		.loc 1 1086 0
 1024 0026 1B79     		ldrb	r3, [r3, #4]	@ zero_extendqisi2
 1025 0028 13F0800F 		tst	r3, #128
 1026 002c 04D0     		beq	.L84
1087:Generated_Source\PSoC5/USBUART_1_std.c ****         {   
1088:Generated_Source\PSoC5/USBUART_1_std.c ****             /* IN Endpoint */
1089:Generated_Source\PSoC5/USBUART_1_std.c ****             USBUART_1_SIE_EP_BASE.sieEp[epNumber].epCr0 = USBUART_1_MODE_NAK_IN;
 1027              		.loc 1 1089 0
 1028 002e 0001     		lsls	r0, r0, #4
 1029              	.LVL101:
 1030 0030 054B     		ldr	r3, .L85+4
ARM GAS  C:\Users\DGILLI~1\AppData\Local\Temp\ccItuQxT.s 			page 40


 1031 0032 0C22     		movs	r2, #12
 1032 0034 1A54     		strb	r2, [r3, r0]
 1033 0036 7047     		bx	lr
 1034              	.LVL102:
 1035              	.L84:
1090:Generated_Source\PSoC5/USBUART_1_std.c ****         }
1091:Generated_Source\PSoC5/USBUART_1_std.c ****         else
1092:Generated_Source\PSoC5/USBUART_1_std.c ****         {
1093:Generated_Source\PSoC5/USBUART_1_std.c ****             /* OUT Endpoint */
1094:Generated_Source\PSoC5/USBUART_1_std.c ****             USBUART_1_SIE_EP_BASE.sieEp[epNumber].epCr0 = USBUART_1_MODE_NAK_OUT;
 1036              		.loc 1 1094 0
 1037 0038 0001     		lsls	r0, r0, #4
 1038              	.LVL103:
 1039 003a 034B     		ldr	r3, .L85+4
 1040 003c 0822     		movs	r2, #8
 1041 003e 1A54     		strb	r2, [r3, r0]
 1042              	.L82:
 1043 0040 7047     		bx	lr
 1044              	.L86:
 1045 0042 00BF     		.align	2
 1046              	.L85:
 1047 0044 00000000 		.word	USBUART_1_EP
 1048 0048 FE5F0040 		.word	1073766398
 1049              		.cfi_endproc
 1050              	.LFE9:
 1051              		.size	USBUART_1_TerminateEP, .-USBUART_1_TerminateEP
 1052              		.section	.text.USBUART_1_SetEndpointHalt,"ax",%progbits
 1053              		.align	2
 1054              		.global	USBUART_1_SetEndpointHalt
 1055              		.thumb
 1056              		.thumb_func
 1057              		.type	USBUART_1_SetEndpointHalt, %function
 1058              	USBUART_1_SetEndpointHalt:
 1059              	.LFB10:
1095:Generated_Source\PSoC5/USBUART_1_std.c ****         }
1096:Generated_Source\PSoC5/USBUART_1_std.c ****     }
1097:Generated_Source\PSoC5/USBUART_1_std.c **** }
1098:Generated_Source\PSoC5/USBUART_1_std.c **** 
1099:Generated_Source\PSoC5/USBUART_1_std.c **** 
1100:Generated_Source\PSoC5/USBUART_1_std.c **** /*******************************************************************************
1101:Generated_Source\PSoC5/USBUART_1_std.c **** * Function Name: USBUART_1_SetEndpointHalt
1102:Generated_Source\PSoC5/USBUART_1_std.c **** ****************************************************************************//**
1103:Generated_Source\PSoC5/USBUART_1_std.c **** *
1104:Generated_Source\PSoC5/USBUART_1_std.c **** *  This routine handles set endpoint halt.
1105:Generated_Source\PSoC5/USBUART_1_std.c **** *
1106:Generated_Source\PSoC5/USBUART_1_std.c **** * \return
1107:Generated_Source\PSoC5/USBUART_1_std.c **** *  requestHandled.
1108:Generated_Source\PSoC5/USBUART_1_std.c **** *
1109:Generated_Source\PSoC5/USBUART_1_std.c **** * \reentrant
1110:Generated_Source\PSoC5/USBUART_1_std.c **** *  No.
1111:Generated_Source\PSoC5/USBUART_1_std.c **** *
1112:Generated_Source\PSoC5/USBUART_1_std.c **** *******************************************************************************/
1113:Generated_Source\PSoC5/USBUART_1_std.c **** uint8 USBUART_1_SetEndpointHalt(void) 
1114:Generated_Source\PSoC5/USBUART_1_std.c **** {
 1060              		.loc 1 1114 0
 1061              		.cfi_startproc
 1062              		@ args = 0, pretend = 0, frame = 0
ARM GAS  C:\Users\DGILLI~1\AppData\Local\Temp\ccItuQxT.s 			page 41


 1063              		@ frame_needed = 0, uses_anonymous_args = 0
 1064 0000 08B5     		push	{r3, lr}
 1065              		.cfi_def_cfa_offset 8
 1066              		.cfi_offset 3, -8
 1067              		.cfi_offset 14, -4
 1068              	.LVL104:
1115:Generated_Source\PSoC5/USBUART_1_std.c ****     uint8 requestHandled = USBUART_1_FALSE;
1116:Generated_Source\PSoC5/USBUART_1_std.c ****     uint8 ep;
1117:Generated_Source\PSoC5/USBUART_1_std.c ****     
1118:Generated_Source\PSoC5/USBUART_1_std.c ****     /* Set endpoint halt */
1119:Generated_Source\PSoC5/USBUART_1_std.c ****     ep = USBUART_1_wIndexLoReg & USBUART_1_DIR_UNUSED;
 1069              		.loc 1 1119 0
 1070 0002 154B     		ldr	r3, .L93
 1071 0004 1A79     		ldrb	r2, [r3, #4]	@ zero_extendqisi2
 1072 0006 02F07F02 		and	r2, r2, #127
 1073              	.LVL105:
1120:Generated_Source\PSoC5/USBUART_1_std.c **** 
1121:Generated_Source\PSoC5/USBUART_1_std.c ****     if ((ep > USBUART_1_EP0) && (ep < USBUART_1_MAX_EP))
 1074              		.loc 1 1121 0
 1075 000a 531E     		subs	r3, r2, #1
 1076 000c DBB2     		uxtb	r3, r3
 1077 000e 072B     		cmp	r3, #7
 1078 0010 20D8     		bhi	.L91
1122:Generated_Source\PSoC5/USBUART_1_std.c ****     {
1123:Generated_Source\PSoC5/USBUART_1_std.c ****         /* Set the endpoint Halt */
1124:Generated_Source\PSoC5/USBUART_1_std.c ****         USBUART_1_EP[ep].hwEpState |= (USBUART_1_ENDPOINT_STATUS_HALT);
 1079              		.loc 1 1124 0
 1080 0012 5300     		lsls	r3, r2, #1
 1081 0014 1344     		add	r3, r3, r2
 1082 0016 9B00     		lsls	r3, r3, #2
 1083 0018 1049     		ldr	r1, .L93+4
 1084 001a 0B44     		add	r3, r3, r1
 1085 001c 9978     		ldrb	r1, [r3, #2]	@ zero_extendqisi2
 1086 001e 41F00101 		orr	r1, r1, #1
 1087 0022 9970     		strb	r1, [r3, #2]
1125:Generated_Source\PSoC5/USBUART_1_std.c **** 
1126:Generated_Source\PSoC5/USBUART_1_std.c ****         /* Clear the data toggle */
1127:Generated_Source\PSoC5/USBUART_1_std.c ****         USBUART_1_EP[ep].epToggle = 0u;
 1088              		.loc 1 1127 0
 1089 0024 0021     		movs	r1, #0
 1090 0026 D970     		strb	r1, [r3, #3]
1128:Generated_Source\PSoC5/USBUART_1_std.c ****         USBUART_1_EP[ep].apiEpState |= USBUART_1_NO_EVENT_ALLOWED;
 1091              		.loc 1 1128 0
 1092 0028 5978     		ldrb	r1, [r3, #1]	@ zero_extendqisi2
 1093 002a 41F00201 		orr	r1, r1, #2
 1094 002e 5970     		strb	r1, [r3, #1]
1129:Generated_Source\PSoC5/USBUART_1_std.c **** 
1130:Generated_Source\PSoC5/USBUART_1_std.c ****         if ((USBUART_1_EP[ep].addr & USBUART_1_DIR_IN) != 0u)
 1095              		.loc 1 1130 0
 1096 0030 1B79     		ldrb	r3, [r3, #4]	@ zero_extendqisi2
 1097 0032 13F0800F 		tst	r3, #128
 1098 0036 05D0     		beq	.L89
1131:Generated_Source\PSoC5/USBUART_1_std.c ****         {
1132:Generated_Source\PSoC5/USBUART_1_std.c ****             /* IN Endpoint */
1133:Generated_Source\PSoC5/USBUART_1_std.c ****             USBUART_1_SIE_EP_BASE.sieEp[ep].epCr0 = (USBUART_1_MODE_STALL_DATA_EP | 
 1099              		.loc 1 1133 0
 1100 0038 1201     		lsls	r2, r2, #4
ARM GAS  C:\Users\DGILLI~1\AppData\Local\Temp\ccItuQxT.s 			page 42


 1101              	.LVL106:
 1102 003a 094B     		ldr	r3, .L93+8
 1103 003c 1344     		add	r3, r3, r2
 1104 003e 8D22     		movs	r2, #141
 1105 0040 9A70     		strb	r2, [r3, #2]
 1106 0042 04E0     		b	.L90
 1107              	.LVL107:
 1108              	.L89:
1134:Generated_Source\PSoC5/USBUART_1_std.c ****                                                             USBUART_1_MODE_ACK_IN);
1135:Generated_Source\PSoC5/USBUART_1_std.c ****         }
1136:Generated_Source\PSoC5/USBUART_1_std.c ****         else
1137:Generated_Source\PSoC5/USBUART_1_std.c ****         {
1138:Generated_Source\PSoC5/USBUART_1_std.c ****             /* OUT Endpoint */
1139:Generated_Source\PSoC5/USBUART_1_std.c ****             USBUART_1_SIE_EP_BASE.sieEp[ep].epCr0 = (USBUART_1_MODE_STALL_DATA_EP | 
 1109              		.loc 1 1139 0
 1110 0044 1201     		lsls	r2, r2, #4
 1111              	.LVL108:
 1112 0046 064B     		ldr	r3, .L93+8
 1113 0048 1344     		add	r3, r3, r2
 1114 004a 8922     		movs	r2, #137
 1115 004c 9A70     		strb	r2, [r3, #2]
 1116              	.L90:
1140:Generated_Source\PSoC5/USBUART_1_std.c ****                                                             USBUART_1_MODE_ACK_OUT);
1141:Generated_Source\PSoC5/USBUART_1_std.c ****         }
1142:Generated_Source\PSoC5/USBUART_1_std.c ****         requestHandled = USBUART_1_InitNoDataControlTransfer();
 1117              		.loc 1 1142 0
 1118 004e FFF7FEFF 		bl	USBUART_1_InitNoDataControlTransfer
 1119              	.LVL109:
 1120 0052 08BD     		pop	{r3, pc}
 1121              	.LVL110:
 1122              	.L91:
1115:Generated_Source\PSoC5/USBUART_1_std.c ****     uint8 ep;
 1123              		.loc 1 1115 0
 1124 0054 0020     		movs	r0, #0
 1125              	.LVL111:
1143:Generated_Source\PSoC5/USBUART_1_std.c ****     }
1144:Generated_Source\PSoC5/USBUART_1_std.c **** 
1145:Generated_Source\PSoC5/USBUART_1_std.c ****     return (requestHandled);
1146:Generated_Source\PSoC5/USBUART_1_std.c **** }
 1126              		.loc 1 1146 0
 1127 0056 08BD     		pop	{r3, pc}
 1128              	.L94:
 1129              		.align	2
 1130              	.L93:
 1131 0058 00600040 		.word	1073766400
 1132 005c 00000000 		.word	USBUART_1_EP
 1133 0060 FC5F0040 		.word	1073766396
 1134              		.cfi_endproc
 1135              	.LFE10:
 1136              		.size	USBUART_1_SetEndpointHalt, .-USBUART_1_SetEndpointHalt
 1137              		.section	.text.USBUART_1_ClearEndpointHalt,"ax",%progbits
 1138              		.align	2
 1139              		.global	USBUART_1_ClearEndpointHalt
 1140              		.thumb
 1141              		.thumb_func
 1142              		.type	USBUART_1_ClearEndpointHalt, %function
 1143              	USBUART_1_ClearEndpointHalt:
ARM GAS  C:\Users\DGILLI~1\AppData\Local\Temp\ccItuQxT.s 			page 43


 1144              	.LFB11:
1147:Generated_Source\PSoC5/USBUART_1_std.c **** 
1148:Generated_Source\PSoC5/USBUART_1_std.c **** 
1149:Generated_Source\PSoC5/USBUART_1_std.c **** /*******************************************************************************
1150:Generated_Source\PSoC5/USBUART_1_std.c **** * Function Name: USBUART_1_ClearEndpointHalt
1151:Generated_Source\PSoC5/USBUART_1_std.c **** ****************************************************************************//**
1152:Generated_Source\PSoC5/USBUART_1_std.c **** *
1153:Generated_Source\PSoC5/USBUART_1_std.c **** *  This routine handles clear endpoint halt.
1154:Generated_Source\PSoC5/USBUART_1_std.c **** *
1155:Generated_Source\PSoC5/USBUART_1_std.c **** * \return
1156:Generated_Source\PSoC5/USBUART_1_std.c **** *  requestHandled.
1157:Generated_Source\PSoC5/USBUART_1_std.c **** *
1158:Generated_Source\PSoC5/USBUART_1_std.c **** * \reentrant
1159:Generated_Source\PSoC5/USBUART_1_std.c **** *  No.
1160:Generated_Source\PSoC5/USBUART_1_std.c **** *
1161:Generated_Source\PSoC5/USBUART_1_std.c **** *******************************************************************************/
1162:Generated_Source\PSoC5/USBUART_1_std.c **** uint8 USBUART_1_ClearEndpointHalt(void) 
1163:Generated_Source\PSoC5/USBUART_1_std.c **** {
 1145              		.loc 1 1163 0
 1146              		.cfi_startproc
 1147              		@ args = 0, pretend = 0, frame = 0
 1148              		@ frame_needed = 0, uses_anonymous_args = 0
 1149              	.LVL112:
1164:Generated_Source\PSoC5/USBUART_1_std.c ****     uint8 requestHandled = USBUART_1_FALSE;
1165:Generated_Source\PSoC5/USBUART_1_std.c ****     uint8 ep;
1166:Generated_Source\PSoC5/USBUART_1_std.c **** 
1167:Generated_Source\PSoC5/USBUART_1_std.c ****     /* Clear endpoint halt */
1168:Generated_Source\PSoC5/USBUART_1_std.c ****     ep = USBUART_1_wIndexLoReg & USBUART_1_DIR_UNUSED;
 1150              		.loc 1 1168 0
 1151 0000 264B     		ldr	r3, .L104
 1152 0002 1B79     		ldrb	r3, [r3, #4]	@ zero_extendqisi2
 1153 0004 03F07F03 		and	r3, r3, #127
 1154              	.LVL113:
1169:Generated_Source\PSoC5/USBUART_1_std.c **** 
1170:Generated_Source\PSoC5/USBUART_1_std.c ****     if ((ep > USBUART_1_EP0) && (ep < USBUART_1_MAX_EP))
 1155              		.loc 1 1170 0
 1156 0008 5A1E     		subs	r2, r3, #1
 1157 000a D2B2     		uxtb	r2, r2
 1158 000c 072A     		cmp	r2, #7
 1159 000e 43D8     		bhi	.L101
1163:Generated_Source\PSoC5/USBUART_1_std.c ****     uint8 requestHandled = USBUART_1_FALSE;
 1160              		.loc 1 1163 0
 1161 0010 10B5     		push	{r4, lr}
 1162              		.cfi_def_cfa_offset 8
 1163              		.cfi_offset 4, -8
 1164              		.cfi_offset 14, -4
1171:Generated_Source\PSoC5/USBUART_1_std.c ****     {
1172:Generated_Source\PSoC5/USBUART_1_std.c ****         /* Clear the endpoint Halt */
1173:Generated_Source\PSoC5/USBUART_1_std.c ****         USBUART_1_EP[ep].hwEpState &= (uint8) ~USBUART_1_ENDPOINT_STATUS_HALT;
 1165              		.loc 1 1173 0
 1166 0012 5A00     		lsls	r2, r3, #1
 1167 0014 1A44     		add	r2, r2, r3
 1168 0016 9200     		lsls	r2, r2, #2
 1169 0018 2149     		ldr	r1, .L104+4
 1170 001a 0A44     		add	r2, r2, r1
 1171 001c 9178     		ldrb	r1, [r2, #2]	@ zero_extendqisi2
 1172 001e 01F0FE01 		and	r1, r1, #254
ARM GAS  C:\Users\DGILLI~1\AppData\Local\Temp\ccItuQxT.s 			page 44


 1173 0022 9170     		strb	r1, [r2, #2]
1174:Generated_Source\PSoC5/USBUART_1_std.c **** 
1175:Generated_Source\PSoC5/USBUART_1_std.c ****         /* Clear the data toggle */
1176:Generated_Source\PSoC5/USBUART_1_std.c ****         USBUART_1_EP[ep].epToggle = 0u;
 1174              		.loc 1 1176 0
 1175 0024 0021     		movs	r1, #0
 1176 0026 D170     		strb	r1, [r2, #3]
1177:Generated_Source\PSoC5/USBUART_1_std.c ****         
1178:Generated_Source\PSoC5/USBUART_1_std.c ****         /* Clear toggle bit for already armed packet */
1179:Generated_Source\PSoC5/USBUART_1_std.c ****         USBUART_1_SIE_EP_BASE.sieEp[ep].epCnt0 = (uint8) ~(uint8)USBUART_1_EPX_CNT_DATA_TOGGLE;
 1177              		.loc 1 1179 0
 1178 0028 1901     		lsls	r1, r3, #4
 1179 002a 7F24     		movs	r4, #127
 1180 002c 1D48     		ldr	r0, .L104+8
 1181 002e 4454     		strb	r4, [r0, r1]
1180:Generated_Source\PSoC5/USBUART_1_std.c ****         
1181:Generated_Source\PSoC5/USBUART_1_std.c ****         /* Return API State as it was defined before */
1182:Generated_Source\PSoC5/USBUART_1_std.c ****         USBUART_1_EP[ep].apiEpState &= (uint8) ~USBUART_1_NO_EVENT_ALLOWED;
 1182              		.loc 1 1182 0
 1183 0030 5178     		ldrb	r1, [r2, #1]	@ zero_extendqisi2
 1184 0032 01F0FD01 		and	r1, r1, #253
 1185 0036 5170     		strb	r1, [r2, #1]
1183:Generated_Source\PSoC5/USBUART_1_std.c **** 
1184:Generated_Source\PSoC5/USBUART_1_std.c ****         if ((USBUART_1_EP[ep].addr & USBUART_1_DIR_IN) != 0u)
 1186              		.loc 1 1184 0
 1187 0038 1279     		ldrb	r2, [r2, #4]	@ zero_extendqisi2
 1188 003a 12F0800F 		tst	r2, #128
 1189 003e 14D0     		beq	.L97
1185:Generated_Source\PSoC5/USBUART_1_std.c ****         {
1186:Generated_Source\PSoC5/USBUART_1_std.c ****             /* IN Endpoint */
1187:Generated_Source\PSoC5/USBUART_1_std.c ****             if(USBUART_1_EP[ep].apiEpState == USBUART_1_IN_BUFFER_EMPTY)
 1190              		.loc 1 1187 0
 1191 0040 03EB4302 		add	r2, r3, r3, lsl #1
 1192 0044 9200     		lsls	r2, r2, #2
 1193 0046 1649     		ldr	r1, .L104+4
 1194 0048 0A44     		add	r2, r2, r1
 1195 004a 5278     		ldrb	r2, [r2, #1]	@ zero_extendqisi2
 1196 004c D2B2     		uxtb	r2, r2
 1197 004e 012A     		cmp	r2, #1
 1198 0050 05D1     		bne	.L98
1188:Generated_Source\PSoC5/USBUART_1_std.c ****             {       
1189:Generated_Source\PSoC5/USBUART_1_std.c ****                 /* Wait for next packet from application */
1190:Generated_Source\PSoC5/USBUART_1_std.c ****                 USBUART_1_SIE_EP_BASE.sieEp[ep].epCr0 = USBUART_1_MODE_NAK_IN;
 1199              		.loc 1 1190 0
 1200 0052 1B01     		lsls	r3, r3, #4
 1201              	.LVL114:
 1202 0054 0246     		mov	r2, r0
 1203 0056 1A44     		add	r2, r2, r3
 1204 0058 0C23     		movs	r3, #12
 1205 005a 9370     		strb	r3, [r2, #2]
 1206 005c 19E0     		b	.L99
 1207              	.LVL115:
 1208              	.L98:
1191:Generated_Source\PSoC5/USBUART_1_std.c ****             }
1192:Generated_Source\PSoC5/USBUART_1_std.c ****             else    /* Continue armed transfer */
1193:Generated_Source\PSoC5/USBUART_1_std.c ****             {
1194:Generated_Source\PSoC5/USBUART_1_std.c ****                 USBUART_1_SIE_EP_BASE.sieEp[ep].epCr0 = USBUART_1_MODE_ACK_IN;
ARM GAS  C:\Users\DGILLI~1\AppData\Local\Temp\ccItuQxT.s 			page 45


 1209              		.loc 1 1194 0
 1210 005e 1B01     		lsls	r3, r3, #4
 1211              	.LVL116:
 1212 0060 104A     		ldr	r2, .L104+8
 1213 0062 1A44     		add	r2, r2, r3
 1214 0064 0D23     		movs	r3, #13
 1215 0066 9370     		strb	r3, [r2, #2]
 1216 0068 13E0     		b	.L99
 1217              	.LVL117:
 1218              	.L97:
1195:Generated_Source\PSoC5/USBUART_1_std.c ****             }
1196:Generated_Source\PSoC5/USBUART_1_std.c ****         }
1197:Generated_Source\PSoC5/USBUART_1_std.c ****         else
1198:Generated_Source\PSoC5/USBUART_1_std.c ****         {
1199:Generated_Source\PSoC5/USBUART_1_std.c ****             /* OUT Endpoint */
1200:Generated_Source\PSoC5/USBUART_1_std.c ****             if (USBUART_1_EP[ep].apiEpState == USBUART_1_OUT_BUFFER_FULL)
 1219              		.loc 1 1200 0
 1220 006a 03EB4302 		add	r2, r3, r3, lsl #1
 1221 006e 9200     		lsls	r2, r2, #2
 1222 0070 0B49     		ldr	r1, .L104+4
 1223 0072 0A44     		add	r2, r2, r1
 1224 0074 5278     		ldrb	r2, [r2, #1]	@ zero_extendqisi2
 1225 0076 D2B2     		uxtb	r2, r2
 1226 0078 012A     		cmp	r2, #1
 1227 007a 05D1     		bne	.L100
1201:Generated_Source\PSoC5/USBUART_1_std.c ****             {       
1202:Generated_Source\PSoC5/USBUART_1_std.c ****                 /* Allow application to read full buffer */
1203:Generated_Source\PSoC5/USBUART_1_std.c ****                 USBUART_1_SIE_EP_BASE.sieEp[ep].epCr0 = USBUART_1_MODE_NAK_OUT;
 1228              		.loc 1 1203 0
 1229 007c 1B01     		lsls	r3, r3, #4
 1230              	.LVL118:
 1231 007e 094A     		ldr	r2, .L104+8
 1232 0080 1A44     		add	r2, r2, r3
 1233 0082 0823     		movs	r3, #8
 1234 0084 9370     		strb	r3, [r2, #2]
 1235 0086 04E0     		b	.L99
 1236              	.LVL119:
 1237              	.L100:
1204:Generated_Source\PSoC5/USBUART_1_std.c ****             }
1205:Generated_Source\PSoC5/USBUART_1_std.c ****             else    /* Mark endpoint as empty, so it will be reloaded */
1206:Generated_Source\PSoC5/USBUART_1_std.c ****             {
1207:Generated_Source\PSoC5/USBUART_1_std.c ****                 USBUART_1_SIE_EP_BASE.sieEp[ep].epCr0 = USBUART_1_MODE_ACK_OUT;
 1238              		.loc 1 1207 0
 1239 0088 1B01     		lsls	r3, r3, #4
 1240              	.LVL120:
 1241 008a 064A     		ldr	r2, .L104+8
 1242 008c 1A44     		add	r2, r2, r3
 1243 008e 0923     		movs	r3, #9
 1244 0090 9370     		strb	r3, [r2, #2]
 1245              	.L99:
1208:Generated_Source\PSoC5/USBUART_1_std.c ****             }
1209:Generated_Source\PSoC5/USBUART_1_std.c ****         }
1210:Generated_Source\PSoC5/USBUART_1_std.c ****         
1211:Generated_Source\PSoC5/USBUART_1_std.c ****         requestHandled = USBUART_1_InitNoDataControlTransfer();
 1246              		.loc 1 1211 0
 1247 0092 FFF7FEFF 		bl	USBUART_1_InitNoDataControlTransfer
 1248              	.LVL121:
ARM GAS  C:\Users\DGILLI~1\AppData\Local\Temp\ccItuQxT.s 			page 46


 1249 0096 10BD     		pop	{r4, pc}
 1250              	.LVL122:
 1251              	.L101:
 1252              		.cfi_def_cfa_offset 0
 1253              		.cfi_restore 4
 1254              		.cfi_restore 14
1164:Generated_Source\PSoC5/USBUART_1_std.c ****     uint8 ep;
 1255              		.loc 1 1164 0
 1256 0098 0020     		movs	r0, #0
 1257 009a 7047     		bx	lr
 1258              	.L105:
 1259              		.align	2
 1260              	.L104:
 1261 009c 00600040 		.word	1073766400
 1262 00a0 00000000 		.word	USBUART_1_EP
 1263 00a4 FC5F0040 		.word	1073766396
 1264              		.cfi_endproc
 1265              	.LFE11:
 1266              		.size	USBUART_1_ClearEndpointHalt, .-USBUART_1_ClearEndpointHalt
 1267              		.section	.text.USBUART_1_ValidateAlternateSetting,"ax",%progbits
 1268              		.align	2
 1269              		.global	USBUART_1_ValidateAlternateSetting
 1270              		.thumb
 1271              		.thumb_func
 1272              		.type	USBUART_1_ValidateAlternateSetting, %function
 1273              	USBUART_1_ValidateAlternateSetting:
 1274              	.LFB12:
1212:Generated_Source\PSoC5/USBUART_1_std.c ****     }
1213:Generated_Source\PSoC5/USBUART_1_std.c **** 
1214:Generated_Source\PSoC5/USBUART_1_std.c ****     return(requestHandled);
1215:Generated_Source\PSoC5/USBUART_1_std.c **** }
1216:Generated_Source\PSoC5/USBUART_1_std.c **** 
1217:Generated_Source\PSoC5/USBUART_1_std.c **** 
1218:Generated_Source\PSoC5/USBUART_1_std.c **** /*******************************************************************************
1219:Generated_Source\PSoC5/USBUART_1_std.c **** * Function Name: USBUART_1_ValidateAlternateSetting
1220:Generated_Source\PSoC5/USBUART_1_std.c **** ****************************************************************************//**
1221:Generated_Source\PSoC5/USBUART_1_std.c **** *
1222:Generated_Source\PSoC5/USBUART_1_std.c **** *  Validates (and records) a SET INTERFACE request.
1223:Generated_Source\PSoC5/USBUART_1_std.c **** *
1224:Generated_Source\PSoC5/USBUART_1_std.c **** * \return
1225:Generated_Source\PSoC5/USBUART_1_std.c **** *  requestHandled.
1226:Generated_Source\PSoC5/USBUART_1_std.c **** *
1227:Generated_Source\PSoC5/USBUART_1_std.c **** * \reentrant
1228:Generated_Source\PSoC5/USBUART_1_std.c **** *  No.
1229:Generated_Source\PSoC5/USBUART_1_std.c **** *
1230:Generated_Source\PSoC5/USBUART_1_std.c **** *******************************************************************************/
1231:Generated_Source\PSoC5/USBUART_1_std.c **** uint8 USBUART_1_ValidateAlternateSetting(void) 
1232:Generated_Source\PSoC5/USBUART_1_std.c **** {
 1275              		.loc 1 1232 0
 1276              		.cfi_startproc
 1277              		@ args = 0, pretend = 0, frame = 0
 1278              		@ frame_needed = 0, uses_anonymous_args = 0
 1279 0000 10B5     		push	{r4, lr}
 1280              		.cfi_def_cfa_offset 8
 1281              		.cfi_offset 4, -8
 1282              		.cfi_offset 14, -4
 1283              	.LVL123:
ARM GAS  C:\Users\DGILLI~1\AppData\Local\Temp\ccItuQxT.s 			page 47


1233:Generated_Source\PSoC5/USBUART_1_std.c ****     uint8 requestHandled = USBUART_1_FALSE;
1234:Generated_Source\PSoC5/USBUART_1_std.c ****     
1235:Generated_Source\PSoC5/USBUART_1_std.c ****     uint8 interfaceNum;
1236:Generated_Source\PSoC5/USBUART_1_std.c ****     uint8 curInterfacesNum;
1237:Generated_Source\PSoC5/USBUART_1_std.c ****     const T_USBUART_1_LUT CYCODE *pTmp;
1238:Generated_Source\PSoC5/USBUART_1_std.c ****     
1239:Generated_Source\PSoC5/USBUART_1_std.c ****     /* Get interface number from the request. */
1240:Generated_Source\PSoC5/USBUART_1_std.c ****     interfaceNum = (uint8) USBUART_1_wIndexLoReg;
 1284              		.loc 1 1240 0
 1285 0002 0E4B     		ldr	r3, .L111
 1286 0004 1C79     		ldrb	r4, [r3, #4]	@ zero_extendqisi2
 1287 0006 E4B2     		uxtb	r4, r4
 1288              	.LVL124:
1241:Generated_Source\PSoC5/USBUART_1_std.c ****     
1242:Generated_Source\PSoC5/USBUART_1_std.c ****     /* Get number of interfaces for current configuration. */
1243:Generated_Source\PSoC5/USBUART_1_std.c ****     pTmp = USBUART_1_GetConfigTablePtr(USBUART_1_configuration - 1u);
 1289              		.loc 1 1243 0
 1290 0008 0D4B     		ldr	r3, .L111+4
 1291 000a 1878     		ldrb	r0, [r3]	@ zero_extendqisi2
 1292 000c 0138     		subs	r0, r0, #1
 1293 000e C0B2     		uxtb	r0, r0
 1294 0010 FFF7FEFF 		bl	USBUART_1_GetConfigTablePtr
 1295              	.LVL125:
1244:Generated_Source\PSoC5/USBUART_1_std.c ****     curInterfacesNum  = ((const uint8 *) pTmp->p_list)[USBUART_1_CONFIG_DESCR_NUM_INTERFACES];
 1296              		.loc 1 1244 0
 1297 0014 4368     		ldr	r3, [r0, #4]
 1298 0016 1B79     		ldrb	r3, [r3, #4]	@ zero_extendqisi2
 1299              	.LVL126:
1245:Generated_Source\PSoC5/USBUART_1_std.c **** 
1246:Generated_Source\PSoC5/USBUART_1_std.c ****     /* Validate that interface number is within range. */
1247:Generated_Source\PSoC5/USBUART_1_std.c ****     if ((interfaceNum <= curInterfacesNum) || (interfaceNum <= USBUART_1_MAX_INTERFACES_NUMBER))
 1300              		.loc 1 1247 0
 1301 0018 9C42     		cmp	r4, r3
 1302 001a 01D9     		bls	.L107
 1303              		.loc 1 1247 0 is_stmt 0 discriminator 1
 1304 001c 022C     		cmp	r4, #2
 1305 001e 0AD8     		bhi	.L109
 1306              	.L107:
1248:Generated_Source\PSoC5/USBUART_1_std.c ****     {
1249:Generated_Source\PSoC5/USBUART_1_std.c ****         /* Save current and new alternate settings (come with request) to make 
1250:Generated_Source\PSoC5/USBUART_1_std.c ****         * desicion about following endpoint re-configuration.
1251:Generated_Source\PSoC5/USBUART_1_std.c ****         */
1252:Generated_Source\PSoC5/USBUART_1_std.c ****         USBUART_1_interfaceSettingLast[interfaceNum] = USBUART_1_interfaceSetting[interfaceNum];
 1307              		.loc 1 1252 0 is_stmt 1
 1308 0020 084A     		ldr	r2, .L111+8
 1309 0022 135D     		ldrb	r3, [r2, r4]	@ zero_extendqisi2
 1310              	.LVL127:
 1311 0024 DBB2     		uxtb	r3, r3
 1312 0026 0849     		ldr	r1, .L111+12
 1313 0028 0B55     		strb	r3, [r1, r4]
1253:Generated_Source\PSoC5/USBUART_1_std.c ****         USBUART_1_interfaceSetting[interfaceNum]     = (uint8) USBUART_1_wValueLoReg;
 1314              		.loc 1 1253 0
 1315 002a 044B     		ldr	r3, .L111
 1316 002c 9B78     		ldrb	r3, [r3, #2]	@ zero_extendqisi2
 1317 002e DBB2     		uxtb	r3, r3
 1318 0030 1355     		strb	r3, [r2, r4]
 1319              	.LVL128:
ARM GAS  C:\Users\DGILLI~1\AppData\Local\Temp\ccItuQxT.s 			page 48


1254:Generated_Source\PSoC5/USBUART_1_std.c ****         
1255:Generated_Source\PSoC5/USBUART_1_std.c ****         requestHandled = USBUART_1_TRUE;
 1320              		.loc 1 1255 0
 1321 0032 0120     		movs	r0, #1
 1322              	.LVL129:
 1323 0034 10BD     		pop	{r4, pc}
 1324              	.LVL130:
 1325              	.L109:
1233:Generated_Source\PSoC5/USBUART_1_std.c ****     
 1326              		.loc 1 1233 0
 1327 0036 0020     		movs	r0, #0
 1328              	.LVL131:
1256:Generated_Source\PSoC5/USBUART_1_std.c ****     }
1257:Generated_Source\PSoC5/USBUART_1_std.c **** 
1258:Generated_Source\PSoC5/USBUART_1_std.c ****     return (requestHandled);
1259:Generated_Source\PSoC5/USBUART_1_std.c **** }
 1329              		.loc 1 1259 0
 1330 0038 10BD     		pop	{r4, pc}
 1331              	.LVL132:
 1332              	.L112:
 1333 003a 00BF     		.align	2
 1334              	.L111:
 1335 003c 00600040 		.word	1073766400
 1336 0040 00000000 		.word	USBUART_1_configuration
 1337 0044 00000000 		.word	USBUART_1_interfaceSetting
 1338 0048 00000000 		.word	USBUART_1_interfaceSettingLast
 1339              		.cfi_endproc
 1340              	.LFE12:
 1341              		.size	USBUART_1_ValidateAlternateSetting, .-USBUART_1_ValidateAlternateSetting
 1342              		.section	.text.USBUART_1_HandleStandardRqst,"ax",%progbits
 1343              		.align	2
 1344              		.global	USBUART_1_HandleStandardRqst
 1345              		.thumb
 1346              		.thumb_func
 1347              		.type	USBUART_1_HandleStandardRqst, %function
 1348              	USBUART_1_HandleStandardRqst:
 1349              	.LFB0:
  85:Generated_Source\PSoC5/USBUART_1_std.c ****     uint8 requestHandled = USBUART_1_FALSE;
 1350              		.loc 1 85 0
 1351              		.cfi_startproc
 1352              		@ args = 0, pretend = 0, frame = 0
 1353              		@ frame_needed = 0, uses_anonymous_args = 0
 1354 0000 10B5     		push	{r4, lr}
 1355              		.cfi_def_cfa_offset 8
 1356              		.cfi_offset 4, -8
 1357              		.cfi_offset 14, -4
 1358              	.LVL133:
  89:Generated_Source\PSoC5/USBUART_1_std.c **** 
 1359              		.loc 1 89 0
 1360 0002 9B4B     		ldr	r3, .L168
 1361 0004 1B78     		ldrb	r3, [r3]	@ zero_extendqisi2
 1362 0006 DBB2     		uxtb	r3, r3
 1363              	.LVL134:
 102:Generated_Source\PSoC5/USBUART_1_std.c **** 
 1364              		.loc 1 102 0
 1365 0008 0021     		movs	r1, #0
 1366 000a 9A4A     		ldr	r2, .L168+4
ARM GAS  C:\Users\DGILLI~1\AppData\Local\Temp\ccItuQxT.s 			page 49


 1367 000c 1180     		strh	r1, [r2]	@ movhi
 104:Generated_Source\PSoC5/USBUART_1_std.c ****     {
 1368              		.loc 1 104 0
 1369 000e 13F0800F 		tst	r3, #128
 1370 0012 00F0AD80 		beq	.L114
 107:Generated_Source\PSoC5/USBUART_1_std.c ****         {
 1371              		.loc 1 107 0
 1372 0016 964A     		ldr	r2, .L168
 1373 0018 5278     		ldrb	r2, [r2, #1]	@ zero_extendqisi2
 1374 001a D2B2     		uxtb	r2, r2
 1375 001c 0A2A     		cmp	r2, #10
 1376 001e 00F27281 		bhi	.L147
 1377 0022 DFE812F0 		tbh	[pc, r2, lsl #1]
 1378              	.L117:
 1379 0026 6900     		.2byte	(.L116-.L117)/2
 1380 0028 7001     		.2byte	(.L147-.L117)/2
 1381 002a 7001     		.2byte	(.L147-.L117)/2
 1382 002c 7001     		.2byte	(.L147-.L117)/2
 1383 002e 7001     		.2byte	(.L147-.L117)/2
 1384 0030 7001     		.2byte	(.L147-.L117)/2
 1385 0032 0B00     		.2byte	(.L118-.L117)/2
 1386 0034 7001     		.2byte	(.L147-.L117)/2
 1387 0036 9200     		.2byte	(.L119-.L117)/2
 1388 0038 7001     		.2byte	(.L147-.L117)/2
 1389 003a 9A00     		.2byte	(.L120-.L117)/2
 1390              		.p2align 1
 1391              	.L118:
 110:Generated_Source\PSoC5/USBUART_1_std.c ****                 {
 1392              		.loc 1 110 0
 1393 003c 8C4B     		ldr	r3, .L168
 1394              	.LVL135:
 1395 003e DB78     		ldrb	r3, [r3, #3]	@ zero_extendqisi2
 1396 0040 DBB2     		uxtb	r3, r3
 1397 0042 012B     		cmp	r3, #1
 1398 0044 09D1     		bne	.L121
 112:Generated_Source\PSoC5/USBUART_1_std.c ****                     USBUART_1_currentTD.pData = (volatile uint8 *)pTmp->p_list;
 1399              		.loc 1 112 0
 1400 0046 FFF7FEFF 		bl	USBUART_1_GetDeviceTablePtr
 1401              	.LVL136:
 113:Generated_Source\PSoC5/USBUART_1_std.c ****                     USBUART_1_currentTD.count = USBUART_1_DEVICE_DESCR_LENGTH;
 1402              		.loc 1 113 0
 1403 004a 4268     		ldr	r2, [r0, #4]
 1404 004c 894B     		ldr	r3, .L168+4
 1405 004e 5A60     		str	r2, [r3, #4]
 114:Generated_Source\PSoC5/USBUART_1_std.c ****                     
 1406              		.loc 1 114 0
 1407 0050 1222     		movs	r2, #18
 1408 0052 1A80     		strh	r2, [r3]	@ movhi
 116:Generated_Source\PSoC5/USBUART_1_std.c ****                 }
 1409              		.loc 1 116 0
 1410 0054 FFF7FEFF 		bl	USBUART_1_InitControlRead
 1411              	.LVL137:
 1412 0058 10BD     		pop	{r4, pc}
 1413              	.LVL138:
 1414              	.L121:
 118:Generated_Source\PSoC5/USBUART_1_std.c ****                 {
 1415              		.loc 1 118 0
ARM GAS  C:\Users\DGILLI~1\AppData\Local\Temp\ccItuQxT.s 			page 50


 1416 005a 854B     		ldr	r3, .L168
 1417 005c DB78     		ldrb	r3, [r3, #3]	@ zero_extendqisi2
 1418 005e DBB2     		uxtb	r3, r3
 1419 0060 022B     		cmp	r3, #2
 1420 0062 13D1     		bne	.L122
 120:Generated_Source\PSoC5/USBUART_1_std.c ****                     
 1421              		.loc 1 120 0
 1422 0064 824B     		ldr	r3, .L168
 1423 0066 9878     		ldrb	r0, [r3, #2]	@ zero_extendqisi2
 1424 0068 FFF7FEFF 		bl	USBUART_1_GetConfigTablePtr
 1425              	.LVL139:
 123:Generated_Source\PSoC5/USBUART_1_std.c ****                     {
 1426              		.loc 1 123 0
 1427 006c 0028     		cmp	r0, #0
 1428 006e 00F04C81 		beq	.L148
 125:Generated_Source\PSoC5/USBUART_1_std.c ****                         USBUART_1_currentTD.count = (uint16)((uint16)(USBUART_1_currentTD.pData)[US
 1429              		.loc 1 125 0
 1430 0072 4268     		ldr	r2, [r0, #4]
 1431 0074 7F4B     		ldr	r3, .L168+4
 1432 0076 5A60     		str	r2, [r3, #4]
 126:Generated_Source\PSoC5/USBUART_1_std.c ****                                                                             (USBUART_1_currentTD.pD
 1433              		.loc 1 126 0
 1434 0078 5A68     		ldr	r2, [r3, #4]
 1435 007a D178     		ldrb	r1, [r2, #3]	@ zero_extendqisi2
 127:Generated_Source\PSoC5/USBUART_1_std.c ****                         requestHandled  = USBUART_1_InitControlRead();
 1436              		.loc 1 127 0
 1437 007c 5A68     		ldr	r2, [r3, #4]
 1438 007e 9278     		ldrb	r2, [r2, #2]	@ zero_extendqisi2
 126:Generated_Source\PSoC5/USBUART_1_std.c ****                                                                             (USBUART_1_currentTD.pD
 1439              		.loc 1 126 0
 1440 0080 42EA0122 		orr	r2, r2, r1, lsl #8
 1441 0084 1A80     		strh	r2, [r3]	@ movhi
 128:Generated_Source\PSoC5/USBUART_1_std.c ****                     }
 1442              		.loc 1 128 0
 1443 0086 FFF7FEFF 		bl	USBUART_1_InitControlRead
 1444              	.LVL140:
 1445 008a 10BD     		pop	{r4, pc}
 1446              	.LVL141:
 1447              	.L122:
 149:Generated_Source\PSoC5/USBUART_1_std.c ****                 {
 1448              		.loc 1 149 0
 1449 008c 784B     		ldr	r3, .L168
 1450 008e DB78     		ldrb	r3, [r3, #3]	@ zero_extendqisi2
 1451 0090 DBB2     		uxtb	r3, r3
 1452 0092 032B     		cmp	r3, #3
 1453 0094 05D0     		beq	.L149
 1454 0096 2CE0     		b	.L163
 1455              	.LVL142:
 1456              	.L126:
 159:Generated_Source\PSoC5/USBUART_1_std.c ****                         /* Move to next string descriptor */
 1457              		.loc 1 159 0
 1458 0098 0A78     		ldrb	r2, [r1]	@ zero_extendqisi2
 1459              	.LVL143:
 161:Generated_Source\PSoC5/USBUART_1_std.c ****                         nStr++;
 1460              		.loc 1 161 0
 1461 009a 1144     		add	r1, r1, r2
 1462              	.LVL144:
ARM GAS  C:\Users\DGILLI~1\AppData\Local\Temp\ccItuQxT.s 			page 51


 162:Generated_Source\PSoC5/USBUART_1_std.c ****                     }
 1463              		.loc 1 162 0
 1464 009c 0133     		adds	r3, r3, #1
 1465              	.LVL145:
 1466 009e DBB2     		uxtb	r3, r3
 1467              	.LVL146:
 1468 00a0 01E0     		b	.L123
 1469              	.LVL147:
 1470              	.L149:
 1471 00a2 0023     		movs	r3, #0
 1472 00a4 7449     		ldr	r1, .L168+8
 1473              	.LVL148:
 1474              	.L123:
 156:Generated_Source\PSoC5/USBUART_1_std.c ****                     {
 1475              		.loc 1 156 0
 1476 00a6 724A     		ldr	r2, .L168
 1477 00a8 9278     		ldrb	r2, [r2, #2]	@ zero_extendqisi2
 1478 00aa D2B2     		uxtb	r2, r2
 1479 00ac 9A42     		cmp	r2, r3
 1480 00ae 03D9     		bls	.L125
 156:Generated_Source\PSoC5/USBUART_1_std.c ****                     {
 1481              		.loc 1 156 0 is_stmt 0 discriminator 1
 1482 00b0 0A78     		ldrb	r2, [r1]	@ zero_extendqisi2
 1483 00b2 12F0FF0F 		tst	r2, #255
 1484 00b6 EFD1     		bne	.L126
 1485              	.L125:
 176:Generated_Source\PSoC5/USBUART_1_std.c ****                         (USBUART_1_wValueLoReg == USBUART_1_DEVICE0_DESCR[USBUART_1_DEVICE_DESCR_SN
 1486              		.loc 1 176 0 is_stmt 1
 1487 00b8 6D4B     		ldr	r3, .L168
 1488              	.LVL149:
 1489 00ba 9B78     		ldrb	r3, [r3, #2]	@ zero_extendqisi2
 1490 00bc 13F0FF0F 		tst	r3, #255
 1491 00c0 0BD0     		beq	.L127
 177:Generated_Source\PSoC5/USBUART_1_std.c ****                     {
 1492              		.loc 1 177 0 discriminator 1
 1493 00c2 6B4B     		ldr	r3, .L168
 1494 00c4 9B78     		ldrb	r3, [r3, #2]	@ zero_extendqisi2
 1495 00c6 DBB2     		uxtb	r3, r3
 1496 00c8 6C4A     		ldr	r2, .L168+12
 1497 00ca 127C     		ldrb	r2, [r2, #16]	@ zero_extendqisi2
 176:Generated_Source\PSoC5/USBUART_1_std.c ****                         (USBUART_1_wValueLoReg == USBUART_1_DEVICE0_DESCR[USBUART_1_DEVICE_DESCR_SN
 1498              		.loc 1 176 0 discriminator 1
 1499 00cc 9342     		cmp	r3, r2
 1500 00ce 04D1     		bne	.L127
 181:Generated_Source\PSoC5/USBUART_1_std.c ****                         pStr = USBUART_1_idSerialNumberStringDescriptor;
 1501              		.loc 1 181 0
 1502 00d0 6B4C     		ldr	r4, .L168+16
 1503 00d2 2046     		mov	r0, r4
 1504 00d4 FFF7FEFF 		bl	USBUART_1_ReadDieID
 1505              	.LVL150:
 182:Generated_Source\PSoC5/USBUART_1_std.c ****                     #elif defined(USBUART_1_ENABLE_FWSN_STRING)
 1506              		.loc 1 182 0
 1507 00d8 2146     		mov	r1, r4
 1508              	.LVL151:
 1509              	.L127:
 199:Generated_Source\PSoC5/USBUART_1_std.c ****                     {
 1510              		.loc 1 199 0
ARM GAS  C:\Users\DGILLI~1\AppData\Local\Temp\ccItuQxT.s 			page 52


 1511 00da 0B78     		ldrb	r3, [r1]	@ zero_extendqisi2
 1512 00dc 13F0FF0F 		tst	r3, #255
 1513 00e0 00F01581 		beq	.L150
 201:Generated_Source\PSoC5/USBUART_1_std.c ****                         USBUART_1_currentTD.pData = pStr;
 1514              		.loc 1 201 0
 1515 00e4 0B78     		ldrb	r3, [r1]	@ zero_extendqisi2
 1516 00e6 634A     		ldr	r2, .L168+4
 1517 00e8 1380     		strh	r3, [r2]	@ movhi
 202:Generated_Source\PSoC5/USBUART_1_std.c ****                         requestHandled  = USBUART_1_InitControlRead();
 1518              		.loc 1 202 0
 1519 00ea 5160     		str	r1, [r2, #4]
 203:Generated_Source\PSoC5/USBUART_1_std.c ****                     }
 1520              		.loc 1 203 0
 1521 00ec FFF7FEFF 		bl	USBUART_1_InitControlRead
 1522              	.LVL152:
 1523 00f0 10BD     		pop	{r4, pc}
 1524              	.LVL153:
 1525              	.L163:
 209:Generated_Source\PSoC5/USBUART_1_std.c ****                 }
 1526              		.loc 1 209 0
 1527 00f2 FFF7FEFF 		bl	USBUART_1_DispatchClassRqst
 1528              	.LVL154:
 1529 00f6 10BD     		pop	{r4, pc}
 1530              	.LVL155:
 1531              	.L116:
 214:Generated_Source\PSoC5/USBUART_1_std.c ****                 {
 1532              		.loc 1 214 0
 1533 00f8 13F00303 		ands	r3, r3, #3
 1534              	.LVL156:
 1535 00fc 17D0     		beq	.L128
 1536 00fe 022B     		cmp	r3, #2
 1537 0100 40F00781 		bne	.L164
 217:Generated_Source\PSoC5/USBUART_1_std.c ****                         USBUART_1_tBuffer[0u]     = USBUART_1_EP[USBUART_1_wIndexLoReg & USBUART_1_
 1538              		.loc 1 217 0
 1539 0104 5B49     		ldr	r1, .L168+4
 1540 0106 0B80     		strh	r3, [r1]	@ movhi
 218:Generated_Source\PSoC5/USBUART_1_std.c ****                         USBUART_1_tBuffer[1u]     = 0u;
 1541              		.loc 1 218 0
 1542 0108 594B     		ldr	r3, .L168
 1543 010a 1B79     		ldrb	r3, [r3, #4]	@ zero_extendqisi2
 1544 010c 03F07F03 		and	r3, r3, #127
 1545 0110 03EB4303 		add	r3, r3, r3, lsl #1
 1546 0114 9B00     		lsls	r3, r3, #2
 1547 0116 5B4A     		ldr	r2, .L168+20
 1548 0118 1344     		add	r3, r3, r2
 1549 011a 9A78     		ldrb	r2, [r3, #2]	@ zero_extendqisi2
 1550 011c D2B2     		uxtb	r2, r2
 1551 011e 5A4B     		ldr	r3, .L168+24
 1552 0120 1A70     		strb	r2, [r3]
 219:Generated_Source\PSoC5/USBUART_1_std.c ****                         USBUART_1_currentTD.pData = &USBUART_1_tBuffer[0u];
 1553              		.loc 1 219 0
 1554 0122 0022     		movs	r2, #0
 1555 0124 5A70     		strb	r2, [r3, #1]
 220:Generated_Source\PSoC5/USBUART_1_std.c ****                         
 1556              		.loc 1 220 0
 1557 0126 4B60     		str	r3, [r1, #4]
 222:Generated_Source\PSoC5/USBUART_1_std.c ****                         break;
ARM GAS  C:\Users\DGILLI~1\AppData\Local\Temp\ccItuQxT.s 			page 53


 1558              		.loc 1 222 0
 1559 0128 FFF7FEFF 		bl	USBUART_1_InitControlRead
 1560              	.LVL157:
 223:Generated_Source\PSoC5/USBUART_1_std.c ****                     case USBUART_1_RQST_RCPT_DEV:
 1561              		.loc 1 223 0
 1562 012c 10BD     		pop	{r4, pc}
 1563              	.LVL158:
 1564              	.L128:
 225:Generated_Source\PSoC5/USBUART_1_std.c ****                         USBUART_1_tBuffer[0u]     = USBUART_1_deviceStatus;
 1565              		.loc 1 225 0
 1566 012e 5149     		ldr	r1, .L168+4
 1567 0130 0223     		movs	r3, #2
 1568 0132 0B80     		strh	r3, [r1]	@ movhi
 226:Generated_Source\PSoC5/USBUART_1_std.c ****                         USBUART_1_tBuffer[1u]     = 0u;
 1569              		.loc 1 226 0
 1570 0134 554B     		ldr	r3, .L168+28
 1571 0136 1A78     		ldrb	r2, [r3]	@ zero_extendqisi2
 1572 0138 D2B2     		uxtb	r2, r2
 1573 013a 534B     		ldr	r3, .L168+24
 1574 013c 1A70     		strb	r2, [r3]
 227:Generated_Source\PSoC5/USBUART_1_std.c ****                         USBUART_1_currentTD.pData = &USBUART_1_tBuffer[0u];
 1575              		.loc 1 227 0
 1576 013e 0022     		movs	r2, #0
 1577 0140 5A70     		strb	r2, [r3, #1]
 228:Generated_Source\PSoC5/USBUART_1_std.c ****                         
 1578              		.loc 1 228 0
 1579 0142 4B60     		str	r3, [r1, #4]
 230:Generated_Source\PSoC5/USBUART_1_std.c ****                         break;
 1580              		.loc 1 230 0
 1581 0144 FFF7FEFF 		bl	USBUART_1_InitControlRead
 1582              	.LVL159:
 231:Generated_Source\PSoC5/USBUART_1_std.c ****                     default:    /* requestHandled is initialized as FALSE by default */
 1583              		.loc 1 231 0
 1584 0148 10BD     		pop	{r4, pc}
 1585              	.LVL160:
 1586              	.L119:
 238:Generated_Source\PSoC5/USBUART_1_std.c ****                 USBUART_1_currentTD.pData = (volatile uint8 *) &USBUART_1_configuration;
 1587              		.loc 1 238 0
 1588 014a 4A4B     		ldr	r3, .L168+4
 1589              	.LVL161:
 1590 014c 0122     		movs	r2, #1
 1591 014e 1A80     		strh	r2, [r3]	@ movhi
 239:Generated_Source\PSoC5/USBUART_1_std.c ****                 requestHandled  = USBUART_1_InitControlRead();
 1592              		.loc 1 239 0
 1593 0150 4F4A     		ldr	r2, .L168+32
 1594 0152 5A60     		str	r2, [r3, #4]
 240:Generated_Source\PSoC5/USBUART_1_std.c ****                 break;
 1595              		.loc 1 240 0
 1596 0154 FFF7FEFF 		bl	USBUART_1_InitControlRead
 1597              	.LVL162:
 241:Generated_Source\PSoC5/USBUART_1_std.c ****                 
 1598              		.loc 1 241 0
 1599 0158 10BD     		pop	{r4, pc}
 1600              	.LVL163:
 1601              	.L120:
 244:Generated_Source\PSoC5/USBUART_1_std.c ****                 USBUART_1_currentTD.pData = (volatile uint8 *) &USBUART_1_interfaceSetting[USBUART_
 1602              		.loc 1 244 0
ARM GAS  C:\Users\DGILLI~1\AppData\Local\Temp\ccItuQxT.s 			page 54


 1603 015a 464A     		ldr	r2, .L168+4
 1604 015c 0123     		movs	r3, #1
 1605              	.LVL164:
 1606 015e 1380     		strh	r3, [r2]	@ movhi
 245:Generated_Source\PSoC5/USBUART_1_std.c ****                 requestHandled  = USBUART_1_InitControlRead();
 1607              		.loc 1 245 0
 1608 0160 434B     		ldr	r3, .L168
 1609 0162 1B79     		ldrb	r3, [r3, #4]	@ zero_extendqisi2
 1610 0164 4B49     		ldr	r1, .L168+36
 1611 0166 0B44     		add	r3, r3, r1
 1612 0168 5360     		str	r3, [r2, #4]
 246:Generated_Source\PSoC5/USBUART_1_std.c ****                 break;
 1613              		.loc 1 246 0
 1614 016a FFF7FEFF 		bl	USBUART_1_InitControlRead
 1615              	.LVL165:
 247:Generated_Source\PSoC5/USBUART_1_std.c ****                 
 1616              		.loc 1 247 0
 1617 016e 10BD     		pop	{r4, pc}
 1618              	.LVL166:
 1619              	.L114:
 256:Generated_Source\PSoC5/USBUART_1_std.c ****         {
 1620              		.loc 1 256 0
 1621 0170 3F4A     		ldr	r2, .L168
 1622 0172 5278     		ldrb	r2, [r2, #1]	@ zero_extendqisi2
 1623 0174 013A     		subs	r2, r2, #1
 1624 0176 0A2A     		cmp	r2, #10
 1625 0178 00F2CD80 		bhi	.L152
 1626 017c DFE812F0 		tbh	[pc, r2, lsl #1]
 1627              	.L131:
 1628 0180 4B00     		.2byte	(.L130-.L131)/2
 1629 0182 CB00     		.2byte	(.L152-.L131)/2
 1630 0184 9600     		.2byte	(.L132-.L131)/2
 1631 0186 CB00     		.2byte	(.L152-.L131)/2
 1632 0188 0B00     		.2byte	(.L133-.L131)/2
 1633 018a CB00     		.2byte	(.L152-.L131)/2
 1634 018c CB00     		.2byte	(.L152-.L131)/2
 1635 018e CB00     		.2byte	(.L152-.L131)/2
 1636 0190 1300     		.2byte	(.L134-.L131)/2
 1637 0192 CB00     		.2byte	(.L152-.L131)/2
 1638 0194 3000     		.2byte	(.L135-.L131)/2
 1639              		.p2align 1
 1640              	.L133:
 260:Generated_Source\PSoC5/USBUART_1_std.c ****                 requestHandled = USBUART_1_InitNoDataControlTransfer();
 1641              		.loc 1 260 0
 1642 0196 364B     		ldr	r3, .L168
 1643              	.LVL167:
 1644 0198 9B78     		ldrb	r3, [r3, #2]	@ zero_extendqisi2
 1645 019a DBB2     		uxtb	r3, r3
 1646 019c 3E4A     		ldr	r2, .L168+40
 1647 019e 1370     		strb	r3, [r2]
 261:Generated_Source\PSoC5/USBUART_1_std.c ****                 break;
 1648              		.loc 1 261 0
 1649 01a0 FFF7FEFF 		bl	USBUART_1_InitNoDataControlTransfer
 1650              	.LVL168:
 262:Generated_Source\PSoC5/USBUART_1_std.c ****                 
 1651              		.loc 1 262 0
 1652 01a4 10BD     		pop	{r4, pc}
ARM GAS  C:\Users\DGILLI~1\AppData\Local\Temp\ccItuQxT.s 			page 55


 1653              	.LVL169:
 1654              	.L134:
 265:Generated_Source\PSoC5/USBUART_1_std.c ****                 
 1655              		.loc 1 265 0
 1656 01a6 324B     		ldr	r3, .L168
 1657              	.LVL170:
 1658 01a8 9B78     		ldrb	r3, [r3, #2]	@ zero_extendqisi2
 1659              	.LVL171:
 268:Generated_Source\PSoC5/USBUART_1_std.c ****                 {
 1660              		.loc 1 268 0
 1661 01aa 03F0FF04 		and	r4, r3, #255
 1662 01ae 1BB1     		cbz	r3, .L136
 270:Generated_Source\PSoC5/USBUART_1_std.c ****                 }
 1663              		.loc 1 270 0
 1664 01b0 601E     		subs	r0, r4, #1
 1665 01b2 C0B2     		uxtb	r0, r0
 1666 01b4 FFF7FEFF 		bl	USBUART_1_GetConfigTablePtr
 1667              	.LVL172:
 1668              	.L136:
 274:Generated_Source\PSoC5/USBUART_1_std.c ****                 {
 1669              		.loc 1 274 0
 1670 01b8 04B1     		cbz	r4, .L137
 274:Generated_Source\PSoC5/USBUART_1_std.c ****                 {
 1671              		.loc 1 274 0 is_stmt 0 discriminator 1
 1672 01ba 10B9     		cbnz	r0, .L138
 1673              	.L137:
 274:Generated_Source\PSoC5/USBUART_1_std.c ****                 {
 1674              		.loc 1 274 0 discriminator 3
 1675 01bc 002C     		cmp	r4, #0
 1676 01be 40F0AC80 		bne	.L153
 1677              	.L138:
 277:Generated_Source\PSoC5/USBUART_1_std.c ****                     {
 1678              		.loc 1 277 0 is_stmt 1
 1679 01c2 334B     		ldr	r3, .L168+32
 1680 01c4 1B78     		ldrb	r3, [r3]	@ zero_extendqisi2
 1681 01c6 DBB2     		uxtb	r3, r3
 1682 01c8 9C42     		cmp	r4, r3
 1683 01ca 06D0     		beq	.L139
 279:Generated_Source\PSoC5/USBUART_1_std.c ****                         USBUART_1_configurationChanged = USBUART_1_TRUE;
 1684              		.loc 1 279 0
 1685 01cc 304B     		ldr	r3, .L168+32
 1686 01ce 1C70     		strb	r4, [r3]
 280:Generated_Source\PSoC5/USBUART_1_std.c ****                         USBUART_1_Config(USBUART_1_TRUE);
 1687              		.loc 1 280 0
 1688 01d0 0120     		movs	r0, #1
 1689              	.LVL173:
 1690 01d2 324B     		ldr	r3, .L168+44
 1691 01d4 1870     		strb	r0, [r3]
 281:Generated_Source\PSoC5/USBUART_1_std.c ****                     }
 1692              		.loc 1 281 0
 1693 01d6 FFF7FEFF 		bl	USBUART_1_Config
 1694              	.LVL174:
 1695              	.L139:
 283:Generated_Source\PSoC5/USBUART_1_std.c ****                 }
 1696              		.loc 1 283 0
 1697 01da FFF7FEFF 		bl	USBUART_1_InitNoDataControlTransfer
 1698              	.LVL175:
ARM GAS  C:\Users\DGILLI~1\AppData\Local\Temp\ccItuQxT.s 			page 56


 1699 01de 10BD     		pop	{r4, pc}
 1700              	.LVL176:
 1701              	.L135:
 288:Generated_Source\PSoC5/USBUART_1_std.c ****                 {
 1702              		.loc 1 288 0
 1703 01e0 FFF7FEFF 		bl	USBUART_1_ValidateAlternateSetting
 1704              	.LVL177:
 1705 01e4 0028     		cmp	r0, #0
 1706 01e6 00F09A80 		beq	.L154
 291:Generated_Source\PSoC5/USBUART_1_std.c ****                     USBUART_1_interfaceNumber = (uint8) USBUART_1_wIndexLoReg;
 1707              		.loc 1 291 0
 1708 01ea 214A     		ldr	r2, .L168
 1709 01ec 1379     		ldrb	r3, [r2, #4]	@ zero_extendqisi2
 1710 01ee DBB2     		uxtb	r3, r3
 1711              	.LVL178:
 292:Generated_Source\PSoC5/USBUART_1_std.c ****                      
 1712              		.loc 1 292 0
 1713 01f0 1279     		ldrb	r2, [r2, #4]	@ zero_extendqisi2
 1714 01f2 D2B2     		uxtb	r2, r2
 1715 01f4 2A49     		ldr	r1, .L168+48
 1716 01f6 0A70     		strb	r2, [r1]
 295:Generated_Source\PSoC5/USBUART_1_std.c ****                     {
 1717              		.loc 1 295 0
 1718 01f8 2A4A     		ldr	r2, .L168+52
 1719 01fa D25C     		ldrb	r2, [r2, r3]	@ zero_extendqisi2
 1720 01fc 2549     		ldr	r1, .L168+36
 1721 01fe C95C     		ldrb	r1, [r1, r3]	@ zero_extendqisi2
 1722 0200 D3B2     		uxtb	r3, r2
 1723              	.LVL179:
 1724 0202 8B42     		cmp	r3, r1
 1725 0204 04D0     		beq	.L140
 297:Generated_Source\PSoC5/USBUART_1_std.c ****                     
 1726              		.loc 1 297 0
 1727 0206 0122     		movs	r2, #1
 1728 0208 244B     		ldr	r3, .L168+44
 1729 020a 1A70     		strb	r2, [r3]
 303:Generated_Source\PSoC5/USBUART_1_std.c ****                     #endif /* (USBUART_1_EP_MANAGEMENT_MANUAL && USBUART_1_EP_ALLOC_DYNAMIC) */
 1730              		.loc 1 303 0
 1731 020c FFF7FEFF 		bl	USBUART_1_ConfigAltChanged
 1732              	.LVL180:
 1733              	.L140:
 307:Generated_Source\PSoC5/USBUART_1_std.c ****                 }
 1734              		.loc 1 307 0
 1735 0210 FFF7FEFF 		bl	USBUART_1_InitNoDataControlTransfer
 1736              	.LVL181:
 1737 0214 10BD     		pop	{r4, pc}
 1738              	.LVL182:
 1739              	.L130:
 312:Generated_Source\PSoC5/USBUART_1_std.c ****                 {
 1740              		.loc 1 312 0
 1741 0216 03F00303 		and	r3, r3, #3
 1742              	.LVL183:
 1743 021a 012B     		cmp	r3, #1
 1744 021c 17D0     		beq	.L141
 1745 021e 4BB1     		cbz	r3, .L142
 1746 0220 022B     		cmp	r3, #2
 1747 0222 7ED1     		bne	.L165
ARM GAS  C:\Users\DGILLI~1\AppData\Local\Temp\ccItuQxT.s 			page 57


 315:Generated_Source\PSoC5/USBUART_1_std.c ****                         {
 1748              		.loc 1 315 0
 1749 0224 124B     		ldr	r3, .L168
 1750 0226 9B78     		ldrb	r3, [r3, #2]	@ zero_extendqisi2
 1751 0228 13F0FF0F 		tst	r3, #255
 1752 022c 7BD1     		bne	.L156
 317:Generated_Source\PSoC5/USBUART_1_std.c ****                         }
 1753              		.loc 1 317 0
 1754 022e FFF7FEFF 		bl	USBUART_1_ClearEndpointHalt
 1755              	.LVL184:
 1756 0232 10BD     		pop	{r4, pc}
 1757              	.LVL185:
 1758              	.L142:
 322:Generated_Source\PSoC5/USBUART_1_std.c ****                         {
 1759              		.loc 1 322 0
 1760 0234 0E4B     		ldr	r3, .L168
 1761 0236 9B78     		ldrb	r3, [r3, #2]	@ zero_extendqisi2
 1762 0238 DBB2     		uxtb	r3, r3
 1763 023a 012B     		cmp	r3, #1
 1764 023c 75D1     		bne	.L157
 324:Generated_Source\PSoC5/USBUART_1_std.c ****                             requestHandled = USBUART_1_InitNoDataControlTransfer();
 1765              		.loc 1 324 0
 1766 023e 134A     		ldr	r2, .L168+28
 1767 0240 1378     		ldrb	r3, [r2]	@ zero_extendqisi2
 1768 0242 03F0FD03 		and	r3, r3, #253
 1769 0246 1370     		strb	r3, [r2]
 325:Generated_Source\PSoC5/USBUART_1_std.c ****                         }
 1770              		.loc 1 325 0
 1771 0248 FFF7FEFF 		bl	USBUART_1_InitNoDataControlTransfer
 1772              	.LVL186:
 1773 024c 10BD     		pop	{r4, pc}
 1774              	.LVL187:
 1775              	.L141:
 330:Generated_Source\PSoC5/USBUART_1_std.c ****                         {
 1776              		.loc 1 330 0
 1777 024e 084B     		ldr	r3, .L168
 1778 0250 1B79     		ldrb	r3, [r3, #4]	@ zero_extendqisi2
 1779 0252 DBB2     		uxtb	r3, r3
 1780 0254 012B     		cmp	r3, #1
 1781 0256 6AD8     		bhi	.L158
 332:Generated_Source\PSoC5/USBUART_1_std.c ****                             requestHandled = USBUART_1_InitNoDataControlTransfer();
 1782              		.loc 1 332 0
 1783 0258 054B     		ldr	r3, .L168
 1784 025a 9878     		ldrb	r0, [r3, #2]	@ zero_extendqisi2
 1785 025c 1B79     		ldrb	r3, [r3, #4]	@ zero_extendqisi2
 1786 025e DBB2     		uxtb	r3, r3
 1787 0260 1149     		ldr	r1, .L168+56
 1788 0262 CA5C     		ldrb	r2, [r1, r3]	@ zero_extendqisi2
 1789 0264 22EA0002 		bic	r2, r2, r0
 1790 0268 CA54     		strb	r2, [r1, r3]
 333:Generated_Source\PSoC5/USBUART_1_std.c ****                         }
 1791              		.loc 1 333 0
 1792 026a FFF7FEFF 		bl	USBUART_1_InitNoDataControlTransfer
 1793              	.LVL188:
 1794 026e 10BD     		pop	{r4, pc}
 1795              	.L169:
 1796              		.align	2
ARM GAS  C:\Users\DGILLI~1\AppData\Local\Temp\ccItuQxT.s 			page 58


 1797              	.L168:
 1798 0270 00600040 		.word	1073766400
 1799 0274 00000000 		.word	USBUART_1_currentTD
 1800 0278 00000000 		.word	USBUART_1_STRING_DESCRIPTORS
 1801 027c 00000000 		.word	USBUART_1_DEVICE0_DESCR
 1802 0280 00000000 		.word	USBUART_1_idSerialNumberStringDescriptor
 1803 0284 00000000 		.word	USBUART_1_EP
 1804 0288 00000000 		.word	.LANCHOR0
 1805 028c 00000000 		.word	USBUART_1_deviceStatus
 1806 0290 00000000 		.word	USBUART_1_configuration
 1807 0294 00000000 		.word	USBUART_1_interfaceSetting
 1808 0298 00000000 		.word	USBUART_1_deviceAddress
 1809 029c 00000000 		.word	USBUART_1_configurationChanged
 1810 02a0 00000000 		.word	USBUART_1_interfaceNumber
 1811 02a4 00000000 		.word	USBUART_1_interfaceSettingLast
 1812 02a8 00000000 		.word	USBUART_1_interfaceStatus
 1813              	.LVL189:
 1814              	.L132:
 342:Generated_Source\PSoC5/USBUART_1_std.c ****                 {
 1815              		.loc 1 342 0
 1816 02ac 03F00303 		and	r3, r3, #3
 1817              	.LVL190:
 1818 02b0 012B     		cmp	r3, #1
 1819 02b2 17D0     		beq	.L144
 1820 02b4 4BB1     		cbz	r3, .L145
 1821 02b6 022B     		cmp	r3, #2
 1822 02b8 3BD1     		bne	.L166
 345:Generated_Source\PSoC5/USBUART_1_std.c ****                         {
 1823              		.loc 1 345 0
 1824 02ba 224B     		ldr	r3, .L170
 1825 02bc 9B78     		ldrb	r3, [r3, #2]	@ zero_extendqisi2
 1826 02be 13F0FF0F 		tst	r3, #255
 1827 02c2 38D1     		bne	.L160
 347:Generated_Source\PSoC5/USBUART_1_std.c ****                         }
 1828              		.loc 1 347 0
 1829 02c4 FFF7FEFF 		bl	USBUART_1_SetEndpointHalt
 1830              	.LVL191:
 1831 02c8 10BD     		pop	{r4, pc}
 1832              	.LVL192:
 1833              	.L145:
 353:Generated_Source\PSoC5/USBUART_1_std.c ****                         {
 1834              		.loc 1 353 0
 1835 02ca 1E4B     		ldr	r3, .L170
 1836 02cc 9B78     		ldrb	r3, [r3, #2]	@ zero_extendqisi2
 1837 02ce DBB2     		uxtb	r3, r3
 1838 02d0 012B     		cmp	r3, #1
 1839 02d2 32D1     		bne	.L161
 355:Generated_Source\PSoC5/USBUART_1_std.c ****                             requestHandled = USBUART_1_InitNoDataControlTransfer();
 1840              		.loc 1 355 0
 1841 02d4 1C4A     		ldr	r2, .L170+4
 1842 02d6 1378     		ldrb	r3, [r2]	@ zero_extendqisi2
 1843 02d8 43F00203 		orr	r3, r3, #2
 1844 02dc 1370     		strb	r3, [r2]
 356:Generated_Source\PSoC5/USBUART_1_std.c ****                         }
 1845              		.loc 1 356 0
 1846 02de FFF7FEFF 		bl	USBUART_1_InitNoDataControlTransfer
 1847              	.LVL193:
ARM GAS  C:\Users\DGILLI~1\AppData\Local\Temp\ccItuQxT.s 			page 59


 1848 02e2 10BD     		pop	{r4, pc}
 1849              	.LVL194:
 1850              	.L144:
 362:Generated_Source\PSoC5/USBUART_1_std.c ****                         {
 1851              		.loc 1 362 0
 1852 02e4 174B     		ldr	r3, .L170
 1853 02e6 1B79     		ldrb	r3, [r3, #4]	@ zero_extendqisi2
 1854 02e8 DBB2     		uxtb	r3, r3
 1855 02ea 012B     		cmp	r3, #1
 1856 02ec 27D8     		bhi	.L162
 364:Generated_Source\PSoC5/USBUART_1_std.c ****                             requestHandled = USBUART_1_InitNoDataControlTransfer();
 1857              		.loc 1 364 0
 1858 02ee 154B     		ldr	r3, .L170
 1859 02f0 9878     		ldrb	r0, [r3, #2]	@ zero_extendqisi2
 1860 02f2 1B79     		ldrb	r3, [r3, #4]	@ zero_extendqisi2
 1861 02f4 DBB2     		uxtb	r3, r3
 1862 02f6 1549     		ldr	r1, .L170+8
 1863 02f8 CA5C     		ldrb	r2, [r1, r3]	@ zero_extendqisi2
 1864 02fa 22EA0002 		bic	r2, r2, r0
 1865 02fe CA54     		strb	r2, [r1, r3]
 365:Generated_Source\PSoC5/USBUART_1_std.c ****                         }
 1866              		.loc 1 365 0
 1867 0300 FFF7FEFF 		bl	USBUART_1_InitNoDataControlTransfer
 1868              	.LVL195:
 1869 0304 10BD     		pop	{r4, pc}
 1870              	.LVL196:
 1871              	.L147:
  86:Generated_Source\PSoC5/USBUART_1_std.c ****     uint8 interfaceNumber;
 1872              		.loc 1 86 0
 1873 0306 0020     		movs	r0, #0
 1874 0308 10BD     		pop	{r4, pc}
 1875              	.LVL197:
 1876              	.L148:
 1877 030a 0020     		movs	r0, #0
 1878              	.LVL198:
 1879 030c 10BD     		pop	{r4, pc}
 1880              	.LVL199:
 1881              	.L150:
 1882 030e 0020     		movs	r0, #0
 1883 0310 10BD     		pop	{r4, pc}
 1884              	.LVL200:
 1885              	.L164:
 1886 0312 0020     		movs	r0, #0
 1887 0314 10BD     		pop	{r4, pc}
 1888              	.LVL201:
 1889              	.L152:
 1890 0316 0020     		movs	r0, #0
 1891 0318 10BD     		pop	{r4, pc}
 1892              	.LVL202:
 1893              	.L153:
 1894 031a 0020     		movs	r0, #0
 1895              	.LVL203:
 1896 031c 10BD     		pop	{r4, pc}
 1897              	.L154:
 1898 031e 0020     		movs	r0, #0
 1899 0320 10BD     		pop	{r4, pc}
 1900              	.L165:
ARM GAS  C:\Users\DGILLI~1\AppData\Local\Temp\ccItuQxT.s 			page 60


 1901 0322 0020     		movs	r0, #0
 1902 0324 10BD     		pop	{r4, pc}
 1903              	.L156:
 1904 0326 0020     		movs	r0, #0
 1905 0328 10BD     		pop	{r4, pc}
 1906              	.L157:
 1907 032a 0020     		movs	r0, #0
 1908 032c 10BD     		pop	{r4, pc}
 1909              	.L158:
 1910 032e 0020     		movs	r0, #0
 1911 0330 10BD     		pop	{r4, pc}
 1912              	.L166:
 1913 0332 0020     		movs	r0, #0
 1914 0334 10BD     		pop	{r4, pc}
 1915              	.L160:
 1916 0336 0020     		movs	r0, #0
 1917 0338 10BD     		pop	{r4, pc}
 1918              	.L161:
 1919 033a 0020     		movs	r0, #0
 1920 033c 10BD     		pop	{r4, pc}
 1921              	.L162:
 1922 033e 0020     		movs	r0, #0
 1923              	.LVL204:
 380:Generated_Source\PSoC5/USBUART_1_std.c **** 
 1924              		.loc 1 380 0
 1925 0340 10BD     		pop	{r4, pc}
 1926              	.L171:
 1927 0342 00BF     		.align	2
 1928              	.L170:
 1929 0344 00600040 		.word	1073766400
 1930 0348 00000000 		.word	USBUART_1_deviceStatus
 1931 034c 00000000 		.word	USBUART_1_interfaceStatus
 1932              		.cfi_endproc
 1933              	.LFE0:
 1934              		.size	USBUART_1_HandleStandardRqst, .-USBUART_1_HandleStandardRqst
 1935              		.section	.rodata.str1.4,"aMS",%progbits,1
 1936              		.align	2
 1937              	.LC0:
 1938 0000 30313233 		.ascii	"0123456789ABCDEF\000"
 1938      34353637 
 1938      38394142 
 1938      43444546 
 1938      00
 1939 0011 000000   		.bss
 1940              		.align	2
 1941              		.set	.LANCHOR0,. + 0
 1942              		.type	USBUART_1_tBuffer.5117, %object
 1943              		.size	USBUART_1_tBuffer.5117, 2
 1944              	USBUART_1_tBuffer.5117:
 1945 0000 0000     		.space	2
 1946 0002 0000     		.text
 1947              	.Letext0:
 1948              		.file 2 "Generated_Source\\PSoC5\\cytypes.h"
 1949              		.file 3 "Generated_Source\\PSoC5\\USBUART_1.h"
 1950              		.file 4 "Generated_Source\\PSoC5\\USBUART_1_pvt.h"
 1951              		.file 5 "Generated_Source\\PSoC5\\CyLib.h"