ARM GAS  C:\Users\DGILLI~1\AppData\Local\Temp\ccspEHrI.s 			page 1


   1              		.syntax unified
   2              		.cpu cortex-m3
   3              		.fpu softvfp
   4              		.eabi_attribute 20, 1
   5              		.eabi_attribute 21, 1
   6              		.eabi_attribute 23, 3
   7              		.eabi_attribute 24, 1
   8              		.eabi_attribute 25, 1
   9              		.eabi_attribute 26, 1
  10              		.eabi_attribute 30, 1
  11              		.eabi_attribute 34, 1
  12              		.eabi_attribute 18, 4
  13              		.thumb
  14              		.file	"USBUART_1_pm.c"
  15              		.text
  16              	.Ltext0:
  17              		.cfi_sections	.debug_frame
  18              		.section	.text.USBUART_1_DP_ISR,"ax",%progbits
  19              		.align	2
  20              		.global	USBUART_1_DP_ISR
  21              		.thumb
  22              		.thumb_func
  23              		.type	USBUART_1_DP_ISR, %function
  24              	USBUART_1_DP_ISR:
  25              	.LFB0:
  26              		.file 1 "Generated_Source\\PSoC5\\USBUART_1_pm.c"
   1:Generated_Source\PSoC5/USBUART_1_pm.c **** /***************************************************************************//**
   2:Generated_Source\PSoC5/USBUART_1_pm.c **** * \file USBUART_1_pm.c
   3:Generated_Source\PSoC5/USBUART_1_pm.c **** * \version 3.10
   4:Generated_Source\PSoC5/USBUART_1_pm.c **** *
   5:Generated_Source\PSoC5/USBUART_1_pm.c **** * \brief
   6:Generated_Source\PSoC5/USBUART_1_pm.c **** *  This file provides Suspend/Resume APIs implementation.
   7:Generated_Source\PSoC5/USBUART_1_pm.c **** *
   8:Generated_Source\PSoC5/USBUART_1_pm.c **** ********************************************************************************
   9:Generated_Source\PSoC5/USBUART_1_pm.c **** * \copyright
  10:Generated_Source\PSoC5/USBUART_1_pm.c **** * Copyright 2008-2016, Cypress Semiconductor Corporation.  All rights reserved.
  11:Generated_Source\PSoC5/USBUART_1_pm.c **** * You may use this file only in accordance with the license, terms, conditions,
  12:Generated_Source\PSoC5/USBUART_1_pm.c **** * disclaimers, and limitations in the end user license agreement accompanying
  13:Generated_Source\PSoC5/USBUART_1_pm.c **** * the software package with which this file was provided.
  14:Generated_Source\PSoC5/USBUART_1_pm.c **** *******************************************************************************/
  15:Generated_Source\PSoC5/USBUART_1_pm.c **** 
  16:Generated_Source\PSoC5/USBUART_1_pm.c **** #include "USBUART_1_pvt.h"
  17:Generated_Source\PSoC5/USBUART_1_pm.c **** #include "USBUART_1_Dp.h"
  18:Generated_Source\PSoC5/USBUART_1_pm.c **** #include "cyapicallbacks.h"
  19:Generated_Source\PSoC5/USBUART_1_pm.c **** 
  20:Generated_Source\PSoC5/USBUART_1_pm.c **** /***************************************
  21:Generated_Source\PSoC5/USBUART_1_pm.c **** * Custom Declarations
  22:Generated_Source\PSoC5/USBUART_1_pm.c **** ***************************************/
  23:Generated_Source\PSoC5/USBUART_1_pm.c **** /* `#START PM_CUSTOM_DECLARATIONS` Place your declaration here */
  24:Generated_Source\PSoC5/USBUART_1_pm.c **** 
  25:Generated_Source\PSoC5/USBUART_1_pm.c **** /* `#END` */
  26:Generated_Source\PSoC5/USBUART_1_pm.c **** 
  27:Generated_Source\PSoC5/USBUART_1_pm.c **** 
  28:Generated_Source\PSoC5/USBUART_1_pm.c **** /***************************************
  29:Generated_Source\PSoC5/USBUART_1_pm.c **** * Local data allocation
  30:Generated_Source\PSoC5/USBUART_1_pm.c **** ***************************************/
  31:Generated_Source\PSoC5/USBUART_1_pm.c **** 
ARM GAS  C:\Users\DGILLI~1\AppData\Local\Temp\ccspEHrI.s 			page 2


  32:Generated_Source\PSoC5/USBUART_1_pm.c **** static USBUART_1_BACKUP_STRUCT  USBUART_1_backup;
  33:Generated_Source\PSoC5/USBUART_1_pm.c **** 
  34:Generated_Source\PSoC5/USBUART_1_pm.c **** #if (USBUART_1_DP_ISR_ACTIVE)
  35:Generated_Source\PSoC5/USBUART_1_pm.c ****     /*******************************************************************************
  36:Generated_Source\PSoC5/USBUART_1_pm.c ****     * Function Name: USBUART_1_DP_ISR
  37:Generated_Source\PSoC5/USBUART_1_pm.c ****     ****************************************************************************//**
  38:Generated_Source\PSoC5/USBUART_1_pm.c ****     *
  39:Generated_Source\PSoC5/USBUART_1_pm.c ****     *  This Interrupt Service Routine handles DP pin changes for wake-up from
  40:Generated_Source\PSoC5/USBUART_1_pm.c ****     *  the sleep mode.
  41:Generated_Source\PSoC5/USBUART_1_pm.c ****     *
  42:Generated_Source\PSoC5/USBUART_1_pm.c ****     *******************************************************************************/
  43:Generated_Source\PSoC5/USBUART_1_pm.c ****     CY_ISR(USBUART_1_DP_ISR)
  44:Generated_Source\PSoC5/USBUART_1_pm.c ****     {
  27              		.loc 1 44 0
  28              		.cfi_startproc
  29              		@ args = 0, pretend = 0, frame = 0
  30              		@ frame_needed = 0, uses_anonymous_args = 0
  31 0000 08B5     		push	{r3, lr}
  32              		.cfi_def_cfa_offset 8
  33              		.cfi_offset 3, -8
  34              		.cfi_offset 14, -4
  45:Generated_Source\PSoC5/USBUART_1_pm.c ****     #ifdef USBUART_1_DP_ISR_ENTRY_CALLBACK
  46:Generated_Source\PSoC5/USBUART_1_pm.c ****         USBUART_1_DP_ISR_EntryCallback();
  47:Generated_Source\PSoC5/USBUART_1_pm.c ****     #endif /* (USBUART_1_DP_ISR_ENTRY_CALLBACK) */
  48:Generated_Source\PSoC5/USBUART_1_pm.c **** 
  49:Generated_Source\PSoC5/USBUART_1_pm.c ****         /* `#START DP_USER_CODE` Place your code here */
  50:Generated_Source\PSoC5/USBUART_1_pm.c **** 
  51:Generated_Source\PSoC5/USBUART_1_pm.c ****         /* `#END` */
  52:Generated_Source\PSoC5/USBUART_1_pm.c **** 
  53:Generated_Source\PSoC5/USBUART_1_pm.c ****         (void) USBUART_1_Dp_ClearInterrupt();
  35              		.loc 1 53 0
  36 0002 FFF7FEFF 		bl	USBUART_1_Dp_ClearInterrupt
  37              	.LVL0:
  38 0006 08BD     		pop	{r3, pc}
  39              		.cfi_endproc
  40              	.LFE0:
  41              		.size	USBUART_1_DP_ISR, .-USBUART_1_DP_ISR
  42              		.section	.text.USBUART_1_SaveConfig,"ax",%progbits
  43              		.align	2
  44              		.global	USBUART_1_SaveConfig
  45              		.thumb
  46              		.thumb_func
  47              		.type	USBUART_1_SaveConfig, %function
  48              	USBUART_1_SaveConfig:
  49              	.LFB1:
  54:Generated_Source\PSoC5/USBUART_1_pm.c **** 		
  55:Generated_Source\PSoC5/USBUART_1_pm.c **** 	#ifdef USBUART_1_DP_ISR_EXIT_CALLBACK
  56:Generated_Source\PSoC5/USBUART_1_pm.c ****         USBUART_1_DP_ISR_ExitCallback();
  57:Generated_Source\PSoC5/USBUART_1_pm.c ****     #endif /* (USBUART_1_DP_ISR_EXIT_CALLBACK) */
  58:Generated_Source\PSoC5/USBUART_1_pm.c ****     }
  59:Generated_Source\PSoC5/USBUART_1_pm.c **** #endif /* (USBUART_1_DP_ISR_ACTIVE) */
  60:Generated_Source\PSoC5/USBUART_1_pm.c **** 
  61:Generated_Source\PSoC5/USBUART_1_pm.c **** 
  62:Generated_Source\PSoC5/USBUART_1_pm.c **** /*******************************************************************************
  63:Generated_Source\PSoC5/USBUART_1_pm.c **** * Function Name: USBUART_1_SaveConfig
  64:Generated_Source\PSoC5/USBUART_1_pm.c **** ****************************************************************************//**
  65:Generated_Source\PSoC5/USBUART_1_pm.c **** *
ARM GAS  C:\Users\DGILLI~1\AppData\Local\Temp\ccspEHrI.s 			page 3


  66:Generated_Source\PSoC5/USBUART_1_pm.c **** *  Saves the current user configuration.
  67:Generated_Source\PSoC5/USBUART_1_pm.c **** *
  68:Generated_Source\PSoC5/USBUART_1_pm.c **** * \reentrant
  69:Generated_Source\PSoC5/USBUART_1_pm.c **** *  No.
  70:Generated_Source\PSoC5/USBUART_1_pm.c **** *
  71:Generated_Source\PSoC5/USBUART_1_pm.c **** *******************************************************************************/
  72:Generated_Source\PSoC5/USBUART_1_pm.c **** void USBUART_1_SaveConfig(void) 
  73:Generated_Source\PSoC5/USBUART_1_pm.c **** {
  50              		.loc 1 73 0
  51              		.cfi_startproc
  52              		@ args = 0, pretend = 0, frame = 0
  53              		@ frame_needed = 0, uses_anonymous_args = 0
  54              		@ link register save eliminated.
  55 0000 7047     		bx	lr
  56              		.cfi_endproc
  57              	.LFE1:
  58              		.size	USBUART_1_SaveConfig, .-USBUART_1_SaveConfig
  59 0002 00BF     		.section	.text.USBUART_1_RestoreConfig,"ax",%progbits
  60              		.align	2
  61              		.global	USBUART_1_RestoreConfig
  62              		.thumb
  63              		.thumb_func
  64              		.type	USBUART_1_RestoreConfig, %function
  65              	USBUART_1_RestoreConfig:
  66              	.LFB2:
  74:Generated_Source\PSoC5/USBUART_1_pm.c ****     /* Empty function added for the compatibility purpose. */
  75:Generated_Source\PSoC5/USBUART_1_pm.c **** }
  76:Generated_Source\PSoC5/USBUART_1_pm.c **** 
  77:Generated_Source\PSoC5/USBUART_1_pm.c **** 
  78:Generated_Source\PSoC5/USBUART_1_pm.c **** /*******************************************************************************
  79:Generated_Source\PSoC5/USBUART_1_pm.c **** * Function Name: USBUART_1_RestoreConfig
  80:Generated_Source\PSoC5/USBUART_1_pm.c **** ****************************************************************************//**
  81:Generated_Source\PSoC5/USBUART_1_pm.c **** *
  82:Generated_Source\PSoC5/USBUART_1_pm.c **** *  Restores the current user configuration.
  83:Generated_Source\PSoC5/USBUART_1_pm.c **** *
  84:Generated_Source\PSoC5/USBUART_1_pm.c **** * \reentrant
  85:Generated_Source\PSoC5/USBUART_1_pm.c **** *  No.
  86:Generated_Source\PSoC5/USBUART_1_pm.c **** *
  87:Generated_Source\PSoC5/USBUART_1_pm.c **** *******************************************************************************/
  88:Generated_Source\PSoC5/USBUART_1_pm.c **** void USBUART_1_RestoreConfig(void) 
  89:Generated_Source\PSoC5/USBUART_1_pm.c **** {
  67              		.loc 1 89 0
  68              		.cfi_startproc
  69              		@ args = 0, pretend = 0, frame = 0
  70              		@ frame_needed = 0, uses_anonymous_args = 0
  71              		.loc 1 89 0
  72 0000 08B5     		push	{r3, lr}
  73              		.cfi_def_cfa_offset 8
  74              		.cfi_offset 3, -8
  75              		.cfi_offset 14, -4
  90:Generated_Source\PSoC5/USBUART_1_pm.c ****     if (USBUART_1_configuration != 0u)
  76              		.loc 1 90 0
  77 0002 054B     		ldr	r3, .L7
  78 0004 1B78     		ldrb	r3, [r3]	@ zero_extendqisi2
  79 0006 13F0FF0F 		tst	r3, #255
  80 000a 03D0     		beq	.L4
  91:Generated_Source\PSoC5/USBUART_1_pm.c ****     {
ARM GAS  C:\Users\DGILLI~1\AppData\Local\Temp\ccspEHrI.s 			page 4


  92:Generated_Source\PSoC5/USBUART_1_pm.c ****         USBUART_1_ConfigReg();
  81              		.loc 1 92 0
  82 000c FFF7FEFF 		bl	USBUART_1_ConfigReg
  83              	.LVL1:
  93:Generated_Source\PSoC5/USBUART_1_pm.c ****         USBUART_1_EpStateInit();
  84              		.loc 1 93 0
  85 0010 FFF7FEFF 		bl	USBUART_1_EpStateInit
  86              	.LVL2:
  87              	.L4:
  88 0014 08BD     		pop	{r3, pc}
  89              	.L8:
  90 0016 00BF     		.align	2
  91              	.L7:
  92 0018 00000000 		.word	USBUART_1_configuration
  93              		.cfi_endproc
  94              	.LFE2:
  95              		.size	USBUART_1_RestoreConfig, .-USBUART_1_RestoreConfig
  96              		.section	.text.USBUART_1_Suspend,"ax",%progbits
  97              		.align	2
  98              		.global	USBUART_1_Suspend
  99              		.thumb
 100              		.thumb_func
 101              		.type	USBUART_1_Suspend, %function
 102              	USBUART_1_Suspend:
 103              	.LFB3:
  94:Generated_Source\PSoC5/USBUART_1_pm.c ****     }
  95:Generated_Source\PSoC5/USBUART_1_pm.c **** }
  96:Generated_Source\PSoC5/USBUART_1_pm.c **** 
  97:Generated_Source\PSoC5/USBUART_1_pm.c **** 
  98:Generated_Source\PSoC5/USBUART_1_pm.c **** /*******************************************************************************
  99:Generated_Source\PSoC5/USBUART_1_pm.c **** * Function Name: USBUART_1_Suspend
 100:Generated_Source\PSoC5/USBUART_1_pm.c **** ****************************************************************************//**
 101:Generated_Source\PSoC5/USBUART_1_pm.c **** *
 102:Generated_Source\PSoC5/USBUART_1_pm.c **** *  This function prepares the USBFS component to enter low power mode. The 
 103:Generated_Source\PSoC5/USBUART_1_pm.c **** *  interrupt on falling edge on Dp pin is configured to wakeup device when the 
 104:Generated_Source\PSoC5/USBUART_1_pm.c **** *  host drives resume condition. The pull-up is enabled on the Dp line while 
 105:Generated_Source\PSoC5/USBUART_1_pm.c **** *  device is in low power mode. The supported low power modes are Deep Sleep 
 106:Generated_Source\PSoC5/USBUART_1_pm.c **** *  (PSoC 4200L) and Sleep (PSoC 3/ PSoC 5LP).
 107:Generated_Source\PSoC5/USBUART_1_pm.c **** *  
 108:Generated_Source\PSoC5/USBUART_1_pm.c **** *  *Note* For PSoC 4200L devices, this function should not be called before 
 109:Generated_Source\PSoC5/USBUART_1_pm.c **** *  entering Sleep.
 110:Generated_Source\PSoC5/USBUART_1_pm.c **** *  
 111:Generated_Source\PSoC5/USBUART_1_pm.c **** *  *Note* After enter low power mode, the data which is left in the IN or OUT 
 112:Generated_Source\PSoC5/USBUART_1_pm.c **** *  endpoint buffers is not restored after wakeup and lost. Therefore it should 
 113:Generated_Source\PSoC5/USBUART_1_pm.c **** *  be stored in the SRAM for OUT endpoint or read by the host for IN endpoint 
 114:Generated_Source\PSoC5/USBUART_1_pm.c **** *  before enter low power mode.
 115:Generated_Source\PSoC5/USBUART_1_pm.c **** *
 116:Generated_Source\PSoC5/USBUART_1_pm.c **** * \globalvars
 117:Generated_Source\PSoC5/USBUART_1_pm.c **** *  USBUART_1_backup.enable:  modified.
 118:Generated_Source\PSoC5/USBUART_1_pm.c **** *
 119:Generated_Source\PSoC5/USBUART_1_pm.c **** * \reentrant
 120:Generated_Source\PSoC5/USBUART_1_pm.c **** *  No.
 121:Generated_Source\PSoC5/USBUART_1_pm.c **** *
 122:Generated_Source\PSoC5/USBUART_1_pm.c **** *******************************************************************************/
 123:Generated_Source\PSoC5/USBUART_1_pm.c **** void USBUART_1_Suspend(void) 
 124:Generated_Source\PSoC5/USBUART_1_pm.c **** {
 104              		.loc 1 124 0
ARM GAS  C:\Users\DGILLI~1\AppData\Local\Temp\ccspEHrI.s 			page 5


 105              		.cfi_startproc
 106              		@ args = 0, pretend = 0, frame = 0
 107              		@ frame_needed = 0, uses_anonymous_args = 0
 108 0000 F8B5     		push	{r3, r4, r5, r6, r7, lr}
 109              		.cfi_def_cfa_offset 24
 110              		.cfi_offset 3, -24
 111              		.cfi_offset 4, -20
 112              		.cfi_offset 5, -16
 113              		.cfi_offset 6, -12
 114              		.cfi_offset 7, -8
 115              		.cfi_offset 14, -4
 125:Generated_Source\PSoC5/USBUART_1_pm.c ****     uint8 enableInterrupts;
 126:Generated_Source\PSoC5/USBUART_1_pm.c **** 
 127:Generated_Source\PSoC5/USBUART_1_pm.c ****     enableInterrupts = CyEnterCriticalSection();
 116              		.loc 1 127 0
 117 0002 FFF7FEFF 		bl	CyEnterCriticalSection
 118              	.LVL3:
 119 0006 0446     		mov	r4, r0
 120              	.LVL4:
 128:Generated_Source\PSoC5/USBUART_1_pm.c **** 
 129:Generated_Source\PSoC5/USBUART_1_pm.c ****     if (0u != (USBUART_1_CR0_REG & USBUART_1_CR0_ENABLE))
 121              		.loc 1 129 0
 122 0008 284B     		ldr	r3, .L13
 123 000a 1B78     		ldrb	r3, [r3]	@ zero_extendqisi2
 124 000c 13F0800F 		tst	r3, #128
 125 0010 3BD0     		beq	.L10
 130:Generated_Source\PSoC5/USBUART_1_pm.c ****     {
 131:Generated_Source\PSoC5/USBUART_1_pm.c ****         /* USB block is enabled. */
 132:Generated_Source\PSoC5/USBUART_1_pm.c ****         USBUART_1_backup.enableState = 1u;
 126              		.loc 1 132 0
 127 0012 274F     		ldr	r7, .L13+4
 128 0014 0126     		movs	r6, #1
 129 0016 3E70     		strb	r6, [r7]
 133:Generated_Source\PSoC5/USBUART_1_pm.c **** 
 134:Generated_Source\PSoC5/USBUART_1_pm.c ****     #if (USBUART_1_EP_MANAGEMENT_DMA)
 135:Generated_Source\PSoC5/USBUART_1_pm.c ****         USBUART_1_Stop_DMA(USBUART_1_MAX_EP);
 136:Generated_Source\PSoC5/USBUART_1_pm.c ****     #endif /* (USBUART_1_EP_MANAGEMENT_DMA) */
 137:Generated_Source\PSoC5/USBUART_1_pm.c **** 
 138:Generated_Source\PSoC5/USBUART_1_pm.c ****     #if (CY_PSOC4)
 139:Generated_Source\PSoC5/USBUART_1_pm.c ****         /* Suspend enter sequence. */
 140:Generated_Source\PSoC5/USBUART_1_pm.c ****         USBUART_1_POWER_CTRL_REG |= (USBUART_1_POWER_CTRL_SUSPEND |
 141:Generated_Source\PSoC5/USBUART_1_pm.c ****                                             USBUART_1_POWER_CTRL_SUSPEND_DEL);
 142:Generated_Source\PSoC5/USBUART_1_pm.c **** 
 143:Generated_Source\PSoC5/USBUART_1_pm.c ****         /* Store state of USB regulator and disable it. */
 144:Generated_Source\PSoC5/USBUART_1_pm.c ****         USBUART_1_backup.mode = (uint8)  (USBUART_1_CR1_REG & USBUART_1_CR1_REG_ENABLE);
 145:Generated_Source\PSoC5/USBUART_1_pm.c ****         USBUART_1_CR1_REG    &= (uint32) ~USBUART_1_CR1_REG_ENABLE;
 146:Generated_Source\PSoC5/USBUART_1_pm.c ****         
 147:Generated_Source\PSoC5/USBUART_1_pm.c ****         /* Store SIE interrupt sources. Valid bits are 0 - 4. */
 148:Generated_Source\PSoC5/USBUART_1_pm.c ****         USBUART_1_backup.intrSeiMask = (uint8) USBUART_1_INTR_SIE_MASK_REG;
 149:Generated_Source\PSoC5/USBUART_1_pm.c **** 
 150:Generated_Source\PSoC5/USBUART_1_pm.c ****     #else
 151:Generated_Source\PSoC5/USBUART_1_pm.c ****         /* Ensure USB transmit enable is low (USB_USBIO_CR0.ten). - Manual Transmission - Disabled.
 152:Generated_Source\PSoC5/USBUART_1_pm.c ****         USBUART_1_USBIO_CR0_REG &= (uint8) ~USBUART_1_USBIO_CR0_TEN;
 130              		.loc 1 152 0
 131 0018 264A     		ldr	r2, .L13+8
 132 001a 1378     		ldrb	r3, [r2]	@ zero_extendqisi2
 133 001c 03F07F03 		and	r3, r3, #127
ARM GAS  C:\Users\DGILLI~1\AppData\Local\Temp\ccspEHrI.s 			page 6


 134 0020 1370     		strb	r3, [r2]
 153:Generated_Source\PSoC5/USBUART_1_pm.c ****         CyDelayUs(USBUART_1_WAIT_REG_STABILITY_50NS);  /*~50ns delay. */
 135              		.loc 1 153 0
 136 0022 0020     		movs	r0, #0
 137 0024 FFF7FEFF 		bl	CyDelayUs
 138              	.LVL5:
 154:Generated_Source\PSoC5/USBUART_1_pm.c **** 
 155:Generated_Source\PSoC5/USBUART_1_pm.c ****         /* Disable the USBIO by asserting PM.USB_CR0.fsusbio_pd_n(Inverted) and pd_pullup_hv(Invert
 156:Generated_Source\PSoC5/USBUART_1_pm.c ****         USBUART_1_PM_USB_CR0_REG &= (uint8) ~(USBUART_1_PM_USB_CR0_PD_N |
 139              		.loc 1 156 0
 140 0028 234D     		ldr	r5, .L13+12
 141 002a 2B78     		ldrb	r3, [r5]	@ zero_extendqisi2
 142 002c 03F0F903 		and	r3, r3, #249
 143 0030 2B70     		strb	r3, [r5]
 157:Generated_Source\PSoC5/USBUART_1_pm.c ****                                                      USBUART_1_PM_USB_CR0_PD_PULLUP_N);
 158:Generated_Source\PSoC5/USBUART_1_pm.c **** 
 159:Generated_Source\PSoC5/USBUART_1_pm.c ****         /* Disable the SIE. */
 160:Generated_Source\PSoC5/USBUART_1_pm.c ****         USBUART_1_CR0_REG &= (uint8) ~USBUART_1_CR0_ENABLE;
 144              		.loc 1 160 0
 145 0032 1E4A     		ldr	r2, .L13
 146 0034 1378     		ldrb	r3, [r2]	@ zero_extendqisi2
 147 0036 03F07F03 		and	r3, r3, #127
 148 003a 1370     		strb	r3, [r2]
 161:Generated_Source\PSoC5/USBUART_1_pm.c **** 
 162:Generated_Source\PSoC5/USBUART_1_pm.c ****         CyDelayUs(USBUART_1_WAIT_REG_STABILITY_50NS);  /* ~50ns delay. */
 149              		.loc 1 162 0
 150 003c 0020     		movs	r0, #0
 151 003e FFF7FEFF 		bl	CyDelayUs
 152              	.LVL6:
 163:Generated_Source\PSoC5/USBUART_1_pm.c ****         /* Store mode and disable VRegulator. */
 164:Generated_Source\PSoC5/USBUART_1_pm.c ****         USBUART_1_backup.mode = (uint8) (USBUART_1_CR1_REG & USBUART_1_CR1_REG_ENABLE);
 153              		.loc 1 164 0
 154 0042 1E4B     		ldr	r3, .L13+16
 155 0044 1A78     		ldrb	r2, [r3]	@ zero_extendqisi2
 156 0046 3240     		ands	r2, r2, r6
 157 0048 7A70     		strb	r2, [r7, #1]
 165:Generated_Source\PSoC5/USBUART_1_pm.c ****         USBUART_1_CR1_REG    &= (uint8) ~USBUART_1_CR1_REG_ENABLE;
 158              		.loc 1 165 0
 159 004a 1A78     		ldrb	r2, [r3]	@ zero_extendqisi2
 160 004c 02F0FE02 		and	r2, r2, #254
 161 0050 1A70     		strb	r2, [r3]
 166:Generated_Source\PSoC5/USBUART_1_pm.c **** 
 167:Generated_Source\PSoC5/USBUART_1_pm.c ****         CyDelayUs(USBUART_1_WAIT_REG_STABILITY_1US); /* min 0.5us delay required. */
 162              		.loc 1 167 0
 163 0052 3046     		mov	r0, r6
 164 0054 FFF7FEFF 		bl	CyDelayUs
 165              	.LVL7:
 168:Generated_Source\PSoC5/USBUART_1_pm.c **** 
 169:Generated_Source\PSoC5/USBUART_1_pm.c ****         /* Disable the USBIO reference by setting PM.USB_CR0.fsusbio_ref_en.*/
 170:Generated_Source\PSoC5/USBUART_1_pm.c ****         USBUART_1_PM_USB_CR0_REG &= (uint8) ~USBUART_1_PM_USB_CR0_REF_EN;
 166              		.loc 1 170 0
 167 0058 2B78     		ldrb	r3, [r5]	@ zero_extendqisi2
 168 005a 03F0FE03 		and	r3, r3, #254
 169 005e 2B70     		strb	r3, [r5]
 171:Generated_Source\PSoC5/USBUART_1_pm.c **** 
 172:Generated_Source\PSoC5/USBUART_1_pm.c ****         /* Switch DP and DM terminals to GPIO mode and disconnect 1.5k pull-up. */
 173:Generated_Source\PSoC5/USBUART_1_pm.c ****         USBUART_1_USBIO_CR1_REG |= USBUART_1_USBIO_CR1_IOMODE;
ARM GAS  C:\Users\DGILLI~1\AppData\Local\Temp\ccspEHrI.s 			page 7


 170              		.loc 1 173 0
 171 0060 174A     		ldr	r2, .L13+20
 172 0062 1378     		ldrb	r3, [r2]	@ zero_extendqisi2
 173 0064 43F02003 		orr	r3, r3, #32
 174 0068 1370     		strb	r3, [r2]
 174:Generated_Source\PSoC5/USBUART_1_pm.c **** 
 175:Generated_Source\PSoC5/USBUART_1_pm.c ****         /* Disable USBFS block. */
 176:Generated_Source\PSoC5/USBUART_1_pm.c ****         /* Clear power active and standby mode templates: disable USB block. */
 177:Generated_Source\PSoC5/USBUART_1_pm.c ****         USBUART_1_PM_ACT_CFG_REG  &= (uint8) ~USBUART_1_PM_ACT_EN_FSUSB;
 175              		.loc 1 177 0
 176 006a A2F5E352 		sub	r2, r2, #7264
 177 006e 0D3A     		subs	r2, r2, #13
 178 0070 1378     		ldrb	r3, [r2]	@ zero_extendqisi2
 179 0072 03F0FE03 		and	r3, r3, #254
 180 0076 1370     		strb	r3, [r2]
 178:Generated_Source\PSoC5/USBUART_1_pm.c ****         USBUART_1_PM_STBY_CFG_REG &= (uint8) ~USBUART_1_PM_STBY_EN_FSUSB;
 181              		.loc 1 178 0
 182 0078 1032     		adds	r2, r2, #16
 183 007a 1378     		ldrb	r3, [r2]	@ zero_extendqisi2
 184 007c 03F0FE03 		and	r3, r3, #254
 185 0080 1370     		strb	r3, [r2]
 179:Generated_Source\PSoC5/USBUART_1_pm.c **** 
 180:Generated_Source\PSoC5/USBUART_1_pm.c ****         CyDelayUs(USBUART_1_WAIT_REG_STABILITY_1US); /* min 0.5us delay required. */
 186              		.loc 1 180 0
 187 0082 3046     		mov	r0, r6
 188 0084 FFF7FEFF 		bl	CyDelayUs
 189              	.LVL8:
 190 0088 02E0     		b	.L11
 191              	.L10:
 181:Generated_Source\PSoC5/USBUART_1_pm.c ****     #endif /* (CY_PSOC4) */
 182:Generated_Source\PSoC5/USBUART_1_pm.c ****     }
 183:Generated_Source\PSoC5/USBUART_1_pm.c ****     else
 184:Generated_Source\PSoC5/USBUART_1_pm.c ****     {
 185:Generated_Source\PSoC5/USBUART_1_pm.c ****         USBUART_1_backup.enableState = 0u;
 192              		.loc 1 185 0
 193 008a 0022     		movs	r2, #0
 194 008c 084B     		ldr	r3, .L13+4
 195 008e 1A70     		strb	r2, [r3]
 196              	.L11:
 186:Generated_Source\PSoC5/USBUART_1_pm.c ****     }
 187:Generated_Source\PSoC5/USBUART_1_pm.c **** 
 188:Generated_Source\PSoC5/USBUART_1_pm.c ****     CyExitCriticalSection(enableInterrupts);
 197              		.loc 1 188 0
 198 0090 2046     		mov	r0, r4
 199 0092 FFF7FEFF 		bl	CyExitCriticalSection
 200              	.LVL9:
 189:Generated_Source\PSoC5/USBUART_1_pm.c **** 
 190:Generated_Source\PSoC5/USBUART_1_pm.c **** #if (USBUART_1_DP_ISR_ACTIVE)
 191:Generated_Source\PSoC5/USBUART_1_pm.c ****     /* Clear active mode Dp interrupt source history. */
 192:Generated_Source\PSoC5/USBUART_1_pm.c ****     (void) USBUART_1_Dp_ClearInterrupt();
 201              		.loc 1 192 0
 202 0096 FFF7FEFF 		bl	USBUART_1_Dp_ClearInterrupt
 203              	.LVL10:
 193:Generated_Source\PSoC5/USBUART_1_pm.c ****     CyIntClearPending(USBUART_1_DP_INTC_VECT_NUM);
 204              		.loc 1 193 0
 205 009a 4FF48053 		mov	r3, #4096
 206 009e 094A     		ldr	r2, .L13+24
ARM GAS  C:\Users\DGILLI~1\AppData\Local\Temp\ccspEHrI.s 			page 8


 207 00a0 1360     		str	r3, [r2]
 194:Generated_Source\PSoC5/USBUART_1_pm.c **** 
 195:Generated_Source\PSoC5/USBUART_1_pm.c ****     CyIntEnable      (USBUART_1_DP_INTC_VECT_NUM);
 208              		.loc 1 195 0
 209 00a2 A2F5C072 		sub	r2, r2, #384
 210 00a6 1360     		str	r3, [r2]
 211 00a8 F8BD     		pop	{r3, r4, r5, r6, r7, pc}
 212              	.LVL11:
 213              	.L14:
 214 00aa 00BF     		.align	2
 215              	.L13:
 216 00ac 08600040 		.word	1073766408
 217 00b0 00000000 		.word	.LANCHOR0
 218 00b4 10600040 		.word	1073766416
 219 00b8 94430040 		.word	1073759124
 220 00bc 09600040 		.word	1073766409
 221 00c0 12600040 		.word	1073766418
 222 00c4 80E200E0 		.word	-536812928
 223              		.cfi_endproc
 224              	.LFE3:
 225              		.size	USBUART_1_Suspend, .-USBUART_1_Suspend
 226              		.section	.text.USBUART_1_Resume,"ax",%progbits
 227              		.align	2
 228              		.global	USBUART_1_Resume
 229              		.thumb
 230              		.thumb_func
 231              		.type	USBUART_1_Resume, %function
 232              	USBUART_1_Resume:
 233              	.LFB4:
 196:Generated_Source\PSoC5/USBUART_1_pm.c **** #endif /* (USBUART_1_DP_ISR_ACTIVE). */
 197:Generated_Source\PSoC5/USBUART_1_pm.c **** }
 198:Generated_Source\PSoC5/USBUART_1_pm.c **** 
 199:Generated_Source\PSoC5/USBUART_1_pm.c **** 
 200:Generated_Source\PSoC5/USBUART_1_pm.c **** /*******************************************************************************
 201:Generated_Source\PSoC5/USBUART_1_pm.c **** * Function Name: USBUART_1_Resume
 202:Generated_Source\PSoC5/USBUART_1_pm.c **** ****************************************************************************//**
 203:Generated_Source\PSoC5/USBUART_1_pm.c **** *
 204:Generated_Source\PSoC5/USBUART_1_pm.c **** *  This function prepares the USBFS component for active mode operation after 
 205:Generated_Source\PSoC5/USBUART_1_pm.c **** *  exit low power mode. It restores the component active mode configuration such 
 206:Generated_Source\PSoC5/USBUART_1_pm.c **** *  as device address assigned previously by the host, endpoints buffer and disables 
 207:Generated_Source\PSoC5/USBUART_1_pm.c **** *  interrupt on Dp pin.
 208:Generated_Source\PSoC5/USBUART_1_pm.c **** *  The supported low power modes are Deep Sleep (PSoC 4200L) and Sleep 
 209:Generated_Source\PSoC5/USBUART_1_pm.c **** *  (PSoC 3/ PSoC 5LP).
 210:Generated_Source\PSoC5/USBUART_1_pm.c **** *  
 211:Generated_Source\PSoC5/USBUART_1_pm.c **** *  *Note* For PSoC 4200L devices, this function should not be called after 
 212:Generated_Source\PSoC5/USBUART_1_pm.c **** *  exiting Sleep.
 213:Generated_Source\PSoC5/USBUART_1_pm.c **** *  
 214:Generated_Source\PSoC5/USBUART_1_pm.c **** *  *Note* To resume communication with the host, the data endpoints must be 
 215:Generated_Source\PSoC5/USBUART_1_pm.c **** *  managed: the OUT endpoints must be enabled and IN endpoints must be loaded 
 216:Generated_Source\PSoC5/USBUART_1_pm.c **** *  with data. For DMA with Automatic Buffer Management, all endpoints buffers 
 217:Generated_Source\PSoC5/USBUART_1_pm.c **** *  must be initialized again before making them available to the host.
 218:Generated_Source\PSoC5/USBUART_1_pm.c **** *
 219:Generated_Source\PSoC5/USBUART_1_pm.c **** *
 220:Generated_Source\PSoC5/USBUART_1_pm.c **** * \globalvars
 221:Generated_Source\PSoC5/USBUART_1_pm.c **** *  USBUART_1_backup - checked.
 222:Generated_Source\PSoC5/USBUART_1_pm.c **** *
 223:Generated_Source\PSoC5/USBUART_1_pm.c **** * \reentrant
ARM GAS  C:\Users\DGILLI~1\AppData\Local\Temp\ccspEHrI.s 			page 9


 224:Generated_Source\PSoC5/USBUART_1_pm.c **** *  No.
 225:Generated_Source\PSoC5/USBUART_1_pm.c **** *
 226:Generated_Source\PSoC5/USBUART_1_pm.c **** *******************************************************************************/
 227:Generated_Source\PSoC5/USBUART_1_pm.c **** void USBUART_1_Resume(void) 
 228:Generated_Source\PSoC5/USBUART_1_pm.c **** {
 234              		.loc 1 228 0
 235              		.cfi_startproc
 236              		@ args = 0, pretend = 0, frame = 0
 237              		@ frame_needed = 0, uses_anonymous_args = 0
 238 0000 38B5     		push	{r3, r4, r5, lr}
 239              		.cfi_def_cfa_offset 16
 240              		.cfi_offset 3, -16
 241              		.cfi_offset 4, -12
 242              		.cfi_offset 5, -8
 243              		.cfi_offset 14, -4
 229:Generated_Source\PSoC5/USBUART_1_pm.c ****     uint8 enableInterrupts;
 230:Generated_Source\PSoC5/USBUART_1_pm.c **** 
 231:Generated_Source\PSoC5/USBUART_1_pm.c ****     enableInterrupts = CyEnterCriticalSection();
 244              		.loc 1 231 0
 245 0002 FFF7FEFF 		bl	CyEnterCriticalSection
 246              	.LVL12:
 247 0006 0546     		mov	r5, r0
 248              	.LVL13:
 232:Generated_Source\PSoC5/USBUART_1_pm.c **** 
 233:Generated_Source\PSoC5/USBUART_1_pm.c ****     if (0u != USBUART_1_backup.enableState)
 249              		.loc 1 233 0
 250 0008 244B     		ldr	r3, .L18
 251 000a 1B78     		ldrb	r3, [r3]	@ zero_extendqisi2
 252 000c 002B     		cmp	r3, #0
 253 000e 40D0     		beq	.L16
 234:Generated_Source\PSoC5/USBUART_1_pm.c ****     {
 235:Generated_Source\PSoC5/USBUART_1_pm.c ****     #if (USBUART_1_DP_ISR_ACTIVE)
 236:Generated_Source\PSoC5/USBUART_1_pm.c ****         CyIntDisable(USBUART_1_DP_INTC_VECT_NUM);
 254              		.loc 1 236 0
 255 0010 4FF48052 		mov	r2, #4096
 256 0014 224B     		ldr	r3, .L18+4
 257 0016 1A60     		str	r2, [r3]
 237:Generated_Source\PSoC5/USBUART_1_pm.c ****     #endif /* (USBUART_1_DP_ISR_ACTIVE) */
 238:Generated_Source\PSoC5/USBUART_1_pm.c **** 
 239:Generated_Source\PSoC5/USBUART_1_pm.c ****     #if (CY_PSOC4)
 240:Generated_Source\PSoC5/USBUART_1_pm.c ****         /* Enable clock to USB IP. */
 241:Generated_Source\PSoC5/USBUART_1_pm.c ****         USBUART_1_USB_CLK_EN_REG |= USBUART_1_USB_CLK_CSR_CLK_EN;
 242:Generated_Source\PSoC5/USBUART_1_pm.c **** 
 243:Generated_Source\PSoC5/USBUART_1_pm.c ****         /* Restore arbiter configuration for DMA transfers. */
 244:Generated_Source\PSoC5/USBUART_1_pm.c ****         #if (USBUART_1_EP_MANAGEMENT_DMA)
 245:Generated_Source\PSoC5/USBUART_1_pm.c ****             #if (USBUART_1_ARB_ISR_ACTIVE)
 246:Generated_Source\PSoC5/USBUART_1_pm.c ****                 /* Enable ARB EP interrupt sources. */
 247:Generated_Source\PSoC5/USBUART_1_pm.c ****                 USBUART_1_ARB_INT_EN_REG = USBUART_1_DEFAULT_ARB_INT_EN;
 248:Generated_Source\PSoC5/USBUART_1_pm.c ****             #endif /* (USBUART_1_EP_MANAGEMENT_DMA) */
 249:Generated_Source\PSoC5/USBUART_1_pm.c **** 
 250:Generated_Source\PSoC5/USBUART_1_pm.c ****             /* Configure arbiter for Manual or Auto DMA operation and clear 
 251:Generated_Source\PSoC5/USBUART_1_pm.c ****             * configuration completion. 
 252:Generated_Source\PSoC5/USBUART_1_pm.c ****             */
 253:Generated_Source\PSoC5/USBUART_1_pm.c ****             USBUART_1_ARB_CFG_REG = USBUART_1_DEFAULT_ARB_CFG;
 254:Generated_Source\PSoC5/USBUART_1_pm.c ****         #endif /* (USBUART_1_EP_MANAGEMENT_DMA) */
 255:Generated_Source\PSoC5/USBUART_1_pm.c **** 
 256:Generated_Source\PSoC5/USBUART_1_pm.c ****         /* Restore level (hi, lo, med) for each interrupt source. */
ARM GAS  C:\Users\DGILLI~1\AppData\Local\Temp\ccspEHrI.s 			page 10


 257:Generated_Source\PSoC5/USBUART_1_pm.c ****         USBUART_1_INTR_LVL_SEL_REG = USBUART_1_DEFAULT_INTR_LVL_SEL;
 258:Generated_Source\PSoC5/USBUART_1_pm.c ****         
 259:Generated_Source\PSoC5/USBUART_1_pm.c ****         /* Store SIE interrupt sources. */
 260:Generated_Source\PSoC5/USBUART_1_pm.c ****         USBUART_1_INTR_SIE_MASK_REG = (uint32) USBUART_1_backup.intrSeiMask;
 261:Generated_Source\PSoC5/USBUART_1_pm.c **** 
 262:Generated_Source\PSoC5/USBUART_1_pm.c ****         /* Set EP0.CR: ACK Setup, NAK IN/OUT. */
 263:Generated_Source\PSoC5/USBUART_1_pm.c ****         USBUART_1_EP0_CR_REG = USBUART_1_MODE_NAK_IN_OUT;
 264:Generated_Source\PSoC5/USBUART_1_pm.c **** 
 265:Generated_Source\PSoC5/USBUART_1_pm.c ****         /* Restore data EP1-8 configuration. */
 266:Generated_Source\PSoC5/USBUART_1_pm.c ****         USBUART_1_RestoreConfig();
 267:Generated_Source\PSoC5/USBUART_1_pm.c **** 
 268:Generated_Source\PSoC5/USBUART_1_pm.c ****         /* Restore state of USB regulator and wait until it supples stable power. */
 269:Generated_Source\PSoC5/USBUART_1_pm.c ****         USBUART_1_CR1_REG |= USBUART_1_backup.mode;
 270:Generated_Source\PSoC5/USBUART_1_pm.c ****         CyDelayUs(USBUART_1_WAIT_VREF_STABILITY);
 271:Generated_Source\PSoC5/USBUART_1_pm.c **** 
 272:Generated_Source\PSoC5/USBUART_1_pm.c ****         /* Suspend exit sequence. */
 273:Generated_Source\PSoC5/USBUART_1_pm.c ****         USBUART_1_POWER_CTRL_REG &= (uint32) ~USBUART_1_POWER_CTRL_SUSPEND;
 274:Generated_Source\PSoC5/USBUART_1_pm.c ****         CyDelayUs(USBUART_1_WAIT_SUSPEND_DEL_DISABLE);
 275:Generated_Source\PSoC5/USBUART_1_pm.c ****         USBUART_1_POWER_CTRL_REG &= (uint32) ~USBUART_1_POWER_CTRL_SUSPEND_DEL;
 276:Generated_Source\PSoC5/USBUART_1_pm.c **** 
 277:Generated_Source\PSoC5/USBUART_1_pm.c ****     #else
 278:Generated_Source\PSoC5/USBUART_1_pm.c ****         /* Set power active and standby mode templates: enable USB block. */
 279:Generated_Source\PSoC5/USBUART_1_pm.c ****         USBUART_1_PM_ACT_CFG_REG  |= USBUART_1_PM_ACT_EN_FSUSB;
 258              		.loc 1 279 0
 259 0018 224A     		ldr	r2, .L18+8
 260 001a 1378     		ldrb	r3, [r2]	@ zero_extendqisi2
 261 001c 43F00103 		orr	r3, r3, #1
 262 0020 1370     		strb	r3, [r2]
 280:Generated_Source\PSoC5/USBUART_1_pm.c ****         USBUART_1_PM_STBY_CFG_REG |= USBUART_1_PM_STBY_EN_FSUSB;
 263              		.loc 1 280 0
 264 0022 1032     		adds	r2, r2, #16
 265 0024 1378     		ldrb	r3, [r2]	@ zero_extendqisi2
 266 0026 43F00103 		orr	r3, r3, #1
 267 002a 1370     		strb	r3, [r2]
 281:Generated_Source\PSoC5/USBUART_1_pm.c **** 
 282:Generated_Source\PSoC5/USBUART_1_pm.c ****         /* Enable core clock. */
 283:Generated_Source\PSoC5/USBUART_1_pm.c ****         USBUART_1_USB_CLK_EN_REG |= USBUART_1_USB_CLK_ENABLE;
 268              		.loc 1 283 0
 269 002c 02F5E752 		add	r2, r2, #7392
 270 0030 0832     		adds	r2, r2, #8
 271 0032 1378     		ldrb	r3, [r2]	@ zero_extendqisi2
 272 0034 43F00103 		orr	r3, r3, #1
 273 0038 1370     		strb	r3, [r2]
 284:Generated_Source\PSoC5/USBUART_1_pm.c **** 
 285:Generated_Source\PSoC5/USBUART_1_pm.c ****         /* Enable the USBIO reference by setting PM.USB_CR0.fsusbio_ref_en.*/
 286:Generated_Source\PSoC5/USBUART_1_pm.c ****         USBUART_1_PM_USB_CR0_REG |= USBUART_1_PM_USB_CR0_REF_EN;
 274              		.loc 1 286 0
 275 003a 1B4C     		ldr	r4, .L18+12
 276 003c 2378     		ldrb	r3, [r4]	@ zero_extendqisi2
 277 003e 43F00103 		orr	r3, r3, #1
 278 0042 2370     		strb	r3, [r4]
 287:Generated_Source\PSoC5/USBUART_1_pm.c **** 
 288:Generated_Source\PSoC5/USBUART_1_pm.c ****         /* The reference is available ~40us after power restored. */
 289:Generated_Source\PSoC5/USBUART_1_pm.c ****         CyDelayUs(USBUART_1_WAIT_VREF_RESTORE);
 279              		.loc 1 289 0
 280 0044 2820     		movs	r0, #40
 281 0046 FFF7FEFF 		bl	CyDelayUs
ARM GAS  C:\Users\DGILLI~1\AppData\Local\Temp\ccspEHrI.s 			page 11


 282              	.LVL14:
 290:Generated_Source\PSoC5/USBUART_1_pm.c ****         /* Restore state of USB regulator and wait until it supples stable power. */
 291:Generated_Source\PSoC5/USBUART_1_pm.c ****         USBUART_1_CR1_REG |= USBUART_1_backup.mode;
 283              		.loc 1 291 0
 284 004a 184A     		ldr	r2, .L18+16
 285 004c 1178     		ldrb	r1, [r2]	@ zero_extendqisi2
 286 004e 134B     		ldr	r3, .L18
 287 0050 5B78     		ldrb	r3, [r3, #1]	@ zero_extendqisi2
 288 0052 0B43     		orrs	r3, r3, r1
 289 0054 1370     		strb	r3, [r2]
 292:Generated_Source\PSoC5/USBUART_1_pm.c ****         CyDelayUs(USBUART_1_WAIT_VREF_STABILITY);   /*~50ns delay. */
 290              		.loc 1 292 0
 291 0056 0020     		movs	r0, #0
 292 0058 FFF7FEFF 		bl	CyDelayUs
 293              	.LVL15:
 293:Generated_Source\PSoC5/USBUART_1_pm.c **** 
 294:Generated_Source\PSoC5/USBUART_1_pm.c ****         /* Enable USBIO. */
 295:Generated_Source\PSoC5/USBUART_1_pm.c ****         USBUART_1_PM_USB_CR0_REG |= USBUART_1_PM_USB_CR0_PD_N;
 294              		.loc 1 295 0
 295 005c 2378     		ldrb	r3, [r4]	@ zero_extendqisi2
 296 005e 43F00203 		orr	r3, r3, #2
 297 0062 2370     		strb	r3, [r4]
 296:Generated_Source\PSoC5/USBUART_1_pm.c ****         CyDelayUs(USBUART_1_WAIT_PD_PULLUP_N_ENABLE);
 298              		.loc 1 296 0
 299 0064 0220     		movs	r0, #2
 300 0066 FFF7FEFF 		bl	CyDelayUs
 301              	.LVL16:
 297:Generated_Source\PSoC5/USBUART_1_pm.c ****         /* Set the USBIO pull-up enable. */
 298:Generated_Source\PSoC5/USBUART_1_pm.c ****         USBUART_1_PM_USB_CR0_REG |= USBUART_1_PM_USB_CR0_PD_PULLUP_N;
 302              		.loc 1 298 0
 303 006a 2378     		ldrb	r3, [r4]	@ zero_extendqisi2
 304 006c 43F00403 		orr	r3, r3, #4
 305 0070 2370     		strb	r3, [r4]
 299:Generated_Source\PSoC5/USBUART_1_pm.c **** 
 300:Generated_Source\PSoC5/USBUART_1_pm.c ****         /* Restore arbiter configuration for DMA transfers. */
 301:Generated_Source\PSoC5/USBUART_1_pm.c ****         #if (USBUART_1_EP_MANAGEMENT_DMA)
 302:Generated_Source\PSoC5/USBUART_1_pm.c ****             #if (USBUART_1_ARB_ISR_ACTIVE)
 303:Generated_Source\PSoC5/USBUART_1_pm.c ****                 /* Enable ARB EP interrupt sources. */
 304:Generated_Source\PSoC5/USBUART_1_pm.c ****                 USBUART_1_ARB_INT_EN_REG = USBUART_1_DEFAULT_ARB_INT_EN;
 305:Generated_Source\PSoC5/USBUART_1_pm.c ****             #endif /* (USBUART_1_EP_MANAGEMENT_DMA) */
 306:Generated_Source\PSoC5/USBUART_1_pm.c **** 
 307:Generated_Source\PSoC5/USBUART_1_pm.c ****             /* Configure arbiter for Manual or Auto DMA operation and clear 
 308:Generated_Source\PSoC5/USBUART_1_pm.c ****             * configuration completion. 
 309:Generated_Source\PSoC5/USBUART_1_pm.c ****             */
 310:Generated_Source\PSoC5/USBUART_1_pm.c ****             USBUART_1_ARB_CFG_REG = USBUART_1_DEFAULT_ARB_CFG;
 311:Generated_Source\PSoC5/USBUART_1_pm.c ****         #endif /* (USBUART_1_EP_MANAGEMENT_DMA) */
 312:Generated_Source\PSoC5/USBUART_1_pm.c **** 
 313:Generated_Source\PSoC5/USBUART_1_pm.c ****         /* Set EP0.CR: ACK Setup, STALL IN/OUT. */
 314:Generated_Source\PSoC5/USBUART_1_pm.c ****         USBUART_1_EP0_CR_REG = USBUART_1_MODE_STALL_IN_OUT;
 306              		.loc 1 314 0
 307 0072 0322     		movs	r2, #3
 308 0074 0E4B     		ldr	r3, .L18+20
 309 0076 1A70     		strb	r2, [r3]
 315:Generated_Source\PSoC5/USBUART_1_pm.c **** 
 316:Generated_Source\PSoC5/USBUART_1_pm.c ****         /* Enable the USB IP to respond to USB traffic with the last address. */
 317:Generated_Source\PSoC5/USBUART_1_pm.c ****         USBUART_1_CR0_REG |= USBUART_1_CR0_ENABLE;
 310              		.loc 1 317 0
ARM GAS  C:\Users\DGILLI~1\AppData\Local\Temp\ccspEHrI.s 			page 12


 311 0078 0E4A     		ldr	r2, .L18+24
 312 007a 1378     		ldrb	r3, [r2]	@ zero_extendqisi2
 313 007c 43F08003 		orr	r3, r3, #128
 314 0080 1370     		strb	r3, [r2]
 318:Generated_Source\PSoC5/USBUART_1_pm.c ****         CyDelayCycles(USBUART_1_WAIT_CR0_REG_STABILITY);
 315              		.loc 1 318 0
 316 0082 0120     		movs	r0, #1
 317 0084 FFF7FEFF 		bl	CyDelayCycles
 318              	.LVL17:
 319:Generated_Source\PSoC5/USBUART_1_pm.c **** 
 320:Generated_Source\PSoC5/USBUART_1_pm.c ****         /* Enable D+ pull-up and keep USB control on IO. */
 321:Generated_Source\PSoC5/USBUART_1_pm.c ****         USBUART_1_USBIO_CR1_REG = USBUART_1_USBIO_CR1_USBPUEN;
 319              		.loc 1 321 0
 320 0088 0422     		movs	r2, #4
 321 008a 0B4B     		ldr	r3, .L18+28
 322 008c 1A70     		strb	r2, [r3]
 322:Generated_Source\PSoC5/USBUART_1_pm.c **** 
 323:Generated_Source\PSoC5/USBUART_1_pm.c ****         /* Restore data EP1-8 configuration. */
 324:Generated_Source\PSoC5/USBUART_1_pm.c ****         USBUART_1_RestoreConfig();
 323              		.loc 1 324 0
 324 008e FFF7FEFF 		bl	USBUART_1_RestoreConfig
 325              	.LVL18:
 326              	.L16:
 325:Generated_Source\PSoC5/USBUART_1_pm.c ****     #endif /* (CY_PSOC4) */
 326:Generated_Source\PSoC5/USBUART_1_pm.c ****     }
 327:Generated_Source\PSoC5/USBUART_1_pm.c **** 
 328:Generated_Source\PSoC5/USBUART_1_pm.c ****     CyExitCriticalSection(enableInterrupts);
 327              		.loc 1 328 0
 328 0092 2846     		mov	r0, r5
 329 0094 FFF7FEFF 		bl	CyExitCriticalSection
 330              	.LVL19:
 331 0098 38BD     		pop	{r3, r4, r5, pc}
 332              	.LVL20:
 333              	.L19:
 334 009a 00BF     		.align	2
 335              	.L18:
 336 009c 00000000 		.word	.LANCHOR0
 337 00a0 80E100E0 		.word	-536813184
 338 00a4 A5430040 		.word	1073759141
 339 00a8 94430040 		.word	1073759124
 340 00ac 09600040 		.word	1073766409
 341 00b0 28600040 		.word	1073766440
 342 00b4 08600040 		.word	1073766408
 343 00b8 12600040 		.word	1073766418
 344              		.cfi_endproc
 345              	.LFE4:
 346              		.size	USBUART_1_Resume, .-USBUART_1_Resume
 347              		.bss
 348              		.align	2
 349              		.set	.LANCHOR0,. + 0
 350              		.type	USBUART_1_backup, %object
 351              		.size	USBUART_1_backup, 2
 352              	USBUART_1_backup:
 353 0000 0000     		.space	2
 354 0002 0000     		.text
 355              	.Letext0:
 356              		.file 2 "Generated_Source\\PSoC5\\cytypes.h"
ARM GAS  C:\Users\DGILLI~1\AppData\Local\Temp\ccspEHrI.s 			page 13


 357              		.file 3 "Generated_Source\\PSoC5\\USBUART_1.h"
 358              		.file 4 "Generated_Source\\PSoC5\\USBUART_1_pvt.h"
 359              		.file 5 "Generated_Source\\PSoC5\\USBUART_1_Dp.h"
 360              		.file 6 "Generated_Source\\PSoC5\\CyLib.h"