ARM GAS  C:\Users\DGILLI~1\AppData\Local\Temp\ccItuQxT.s 			page 1


   1              		.syntax unified
   2              		.cpu cortex-m3
   3              		.fpu softvfp
   4              		.eabi_attribute 20, 1
   5              		.eabi_attribute 21, 1
   6              		.eabi_attribute 23, 3
   7              		.eabi_attribute 24, 1
   8              		.eabi_attribute 25, 1
   9              		.eabi_attribute 26, 1
  10              		.eabi_attribute 30, 1
  11              		.eabi_attribute 34, 1
  12              		.eabi_attribute 18, 4
  13              		.thumb
  14              		.file	"USBUART_1_std.c"
  15              		.text
  16              	.Ltext0:
  17              		.cfi_sections	.debug_frame
  18              		.section	.text.USBUART_1_ReadDieID,"ax",%progbits
  19              		.align	2
  20              		.global	USBUART_1_ReadDieID
  21              		.thumb
  22              		.thumb_func
  23              		.type	USBUART_1_ReadDieID, %function
  24              	USBUART_1_ReadDieID:
  25              	.LFB1:
  26              		.file 1 "Generated_Source\\PSoC5\\USBUART_1_std.c"
   1:Generated_Source\PSoC5/USBUART_1_std.c **** /***************************************************************************//**
   2:Generated_Source\PSoC5/USBUART_1_std.c **** * \file USBUART_1_std.c
   3:Generated_Source\PSoC5/USBUART_1_std.c **** * \version 3.10
   4:Generated_Source\PSoC5/USBUART_1_std.c **** *
   5:Generated_Source\PSoC5/USBUART_1_std.c **** * \brief
   6:Generated_Source\PSoC5/USBUART_1_std.c **** *  This file contains the USB Standard request handler.
   7:Generated_Source\PSoC5/USBUART_1_std.c **** *
   8:Generated_Source\PSoC5/USBUART_1_std.c **** ********************************************************************************
   9:Generated_Source\PSoC5/USBUART_1_std.c **** * \copyright
  10:Generated_Source\PSoC5/USBUART_1_std.c **** * Copyright 2008-2016, Cypress Semiconductor Corporation.  All rights reserved.
  11:Generated_Source\PSoC5/USBUART_1_std.c **** * You may use this file only in accordance with the license, terms, conditions,
  12:Generated_Source\PSoC5/USBUART_1_std.c **** * disclaimers, and limitations in the end user license agreement accompanying
  13:Generated_Source\PSoC5/USBUART_1_std.c **** * the software package with which this file was provided.
  14:Generated_Source\PSoC5/USBUART_1_std.c **** *******************************************************************************/
  15:Generated_Source\PSoC5/USBUART_1_std.c **** 
  16:Generated_Source\PSoC5/USBUART_1_std.c **** #include "USBUART_1_pvt.h"
  17:Generated_Source\PSoC5/USBUART_1_std.c **** 
  18:Generated_Source\PSoC5/USBUART_1_std.c **** /***************************************
  19:Generated_Source\PSoC5/USBUART_1_std.c **** *   Static data allocation
  20:Generated_Source\PSoC5/USBUART_1_std.c **** ***************************************/
  21:Generated_Source\PSoC5/USBUART_1_std.c **** 
  22:Generated_Source\PSoC5/USBUART_1_std.c **** #if defined(USBUART_1_ENABLE_FWSN_STRING)
  23:Generated_Source\PSoC5/USBUART_1_std.c ****     static volatile uint8* USBUART_1_fwSerialNumberStringDescriptor;
  24:Generated_Source\PSoC5/USBUART_1_std.c ****     static volatile uint8  USBUART_1_snStringConfirm = USBUART_1_FALSE;
  25:Generated_Source\PSoC5/USBUART_1_std.c **** #endif  /* (USBUART_1_ENABLE_FWSN_STRING) */
  26:Generated_Source\PSoC5/USBUART_1_std.c **** 
  27:Generated_Source\PSoC5/USBUART_1_std.c **** #if defined(USBUART_1_ENABLE_FWSN_STRING)
  28:Generated_Source\PSoC5/USBUART_1_std.c ****     /***************************************************************************
  29:Generated_Source\PSoC5/USBUART_1_std.c ****     * Function Name: USBUART_1_SerialNumString
  30:Generated_Source\PSoC5/USBUART_1_std.c ****     ************************************************************************//**
  31:Generated_Source\PSoC5/USBUART_1_std.c ****     *
ARM GAS  C:\Users\DGILLI~1\AppData\Local\Temp\ccItuQxT.s 			page 2


  32:Generated_Source\PSoC5/USBUART_1_std.c ****     *  This function is available only when the User Call Back option in the 
  33:Generated_Source\PSoC5/USBUART_1_std.c ****     *  Serial Number String descriptor properties is selected. Application 
  34:Generated_Source\PSoC5/USBUART_1_std.c ****     *  firmware can provide the source of the USB device serial number string 
  35:Generated_Source\PSoC5/USBUART_1_std.c ****     *  descriptor during run time. The default string is used if the application 
  36:Generated_Source\PSoC5/USBUART_1_std.c ****     *  firmware does not use this function or sets the wrong string descriptor.
  37:Generated_Source\PSoC5/USBUART_1_std.c ****     *
  38:Generated_Source\PSoC5/USBUART_1_std.c ****     *  \param snString:  Pointer to the user-defined string descriptor. The 
  39:Generated_Source\PSoC5/USBUART_1_std.c ****     *  string descriptor should meet the Universal Serial Bus Specification 
  40:Generated_Source\PSoC5/USBUART_1_std.c ****     *  revision 2.0 chapter 9.6.7
  41:Generated_Source\PSoC5/USBUART_1_std.c ****     *  Offset|Size|Value|Description
  42:Generated_Source\PSoC5/USBUART_1_std.c ****     *  ------|----|------|---------------------------------
  43:Generated_Source\PSoC5/USBUART_1_std.c ****     *  0     |1   |N     |Size of this descriptor in bytes
  44:Generated_Source\PSoC5/USBUART_1_std.c ****     *  1     |1   |0x03  |STRING Descriptor Type
  45:Generated_Source\PSoC5/USBUART_1_std.c ****     *  2     |N-2 |Number|UNICODE encoded string
  46:Generated_Source\PSoC5/USBUART_1_std.c ****     *  
  47:Generated_Source\PSoC5/USBUART_1_std.c ****     * *For example:* uint8 snString[16]={0x0E,0x03,'F',0,'W',0,'S',0,'N',0,'0',0,'1',0};
  48:Generated_Source\PSoC5/USBUART_1_std.c ****     *
  49:Generated_Source\PSoC5/USBUART_1_std.c ****     * \reentrant
  50:Generated_Source\PSoC5/USBUART_1_std.c ****     *  No.
  51:Generated_Source\PSoC5/USBUART_1_std.c ****     *
  52:Generated_Source\PSoC5/USBUART_1_std.c ****     ***************************************************************************/
  53:Generated_Source\PSoC5/USBUART_1_std.c ****     void  USBUART_1_SerialNumString(uint8 snString[]) 
  54:Generated_Source\PSoC5/USBUART_1_std.c ****     {
  55:Generated_Source\PSoC5/USBUART_1_std.c ****         USBUART_1_snStringConfirm = USBUART_1_FALSE;
  56:Generated_Source\PSoC5/USBUART_1_std.c ****         
  57:Generated_Source\PSoC5/USBUART_1_std.c ****         if (snString != NULL)
  58:Generated_Source\PSoC5/USBUART_1_std.c ****         {
  59:Generated_Source\PSoC5/USBUART_1_std.c ****             /* Check descriptor validation */
  60:Generated_Source\PSoC5/USBUART_1_std.c ****             if ((snString[0u] > 1u) && (snString[1u] == USBUART_1_DESCR_STRING))
  61:Generated_Source\PSoC5/USBUART_1_std.c ****             {
  62:Generated_Source\PSoC5/USBUART_1_std.c ****                 USBUART_1_fwSerialNumberStringDescriptor = snString;
  63:Generated_Source\PSoC5/USBUART_1_std.c ****                 USBUART_1_snStringConfirm = USBUART_1_TRUE;
  64:Generated_Source\PSoC5/USBUART_1_std.c ****             }
  65:Generated_Source\PSoC5/USBUART_1_std.c ****         }
  66:Generated_Source\PSoC5/USBUART_1_std.c ****     }
  67:Generated_Source\PSoC5/USBUART_1_std.c **** #endif  /* USBUART_1_ENABLE_FWSN_STRING */
  68:Generated_Source\PSoC5/USBUART_1_std.c **** 
  69:Generated_Source\PSoC5/USBUART_1_std.c **** 
  70:Generated_Source\PSoC5/USBUART_1_std.c **** /*******************************************************************************
  71:Generated_Source\PSoC5/USBUART_1_std.c **** * Function Name: USBUART_1_HandleStandardRqst
  72:Generated_Source\PSoC5/USBUART_1_std.c **** ****************************************************************************//**
  73:Generated_Source\PSoC5/USBUART_1_std.c **** *
  74:Generated_Source\PSoC5/USBUART_1_std.c **** *  This Routine dispatches standard requests
  75:Generated_Source\PSoC5/USBUART_1_std.c **** *
  76:Generated_Source\PSoC5/USBUART_1_std.c **** *
  77:Generated_Source\PSoC5/USBUART_1_std.c **** * \return
  78:Generated_Source\PSoC5/USBUART_1_std.c **** *  TRUE if request handled.
  79:Generated_Source\PSoC5/USBUART_1_std.c **** *
  80:Generated_Source\PSoC5/USBUART_1_std.c **** * \reentrant
  81:Generated_Source\PSoC5/USBUART_1_std.c **** *  No.
  82:Generated_Source\PSoC5/USBUART_1_std.c **** *
  83:Generated_Source\PSoC5/USBUART_1_std.c **** *******************************************************************************/
  84:Generated_Source\PSoC5/USBUART_1_std.c **** uint8 USBUART_1_HandleStandardRqst(void) 
  85:Generated_Source\PSoC5/USBUART_1_std.c **** {
  86:Generated_Source\PSoC5/USBUART_1_std.c ****     uint8 requestHandled = USBUART_1_FALSE;
  87:Generated_Source\PSoC5/USBUART_1_std.c ****     uint8 interfaceNumber;
  88:Generated_Source\PSoC5/USBUART_1_std.c ****     uint8 configurationN;
ARM GAS  C:\Users\DGILLI~1\AppData\Local\Temp\ccItuQxT.s 			page 3


  89:Generated_Source\PSoC5/USBUART_1_std.c ****     uint8 bmRequestType = USBUART_1_bmRequestTypeReg;
  90:Generated_Source\PSoC5/USBUART_1_std.c **** 
  91:Generated_Source\PSoC5/USBUART_1_std.c **** #if defined(USBUART_1_ENABLE_STRINGS)
  92:Generated_Source\PSoC5/USBUART_1_std.c ****     volatile uint8 *pStr = 0u;
  93:Generated_Source\PSoC5/USBUART_1_std.c ****     #if defined(USBUART_1_ENABLE_DESCRIPTOR_STRINGS)
  94:Generated_Source\PSoC5/USBUART_1_std.c ****         uint8 nStr;
  95:Generated_Source\PSoC5/USBUART_1_std.c ****         uint8 descrLength;
  96:Generated_Source\PSoC5/USBUART_1_std.c ****     #endif /* (USBUART_1_ENABLE_DESCRIPTOR_STRINGS) */
  97:Generated_Source\PSoC5/USBUART_1_std.c **** #endif /* (USBUART_1_ENABLE_STRINGS) */
  98:Generated_Source\PSoC5/USBUART_1_std.c ****     
  99:Generated_Source\PSoC5/USBUART_1_std.c ****     static volatile uint8 USBUART_1_tBuffer[USBUART_1_STATUS_LENGTH_MAX];
 100:Generated_Source\PSoC5/USBUART_1_std.c ****     const T_USBUART_1_LUT CYCODE *pTmp;
 101:Generated_Source\PSoC5/USBUART_1_std.c **** 
 102:Generated_Source\PSoC5/USBUART_1_std.c ****     USBUART_1_currentTD.count = 0u;
 103:Generated_Source\PSoC5/USBUART_1_std.c **** 
 104:Generated_Source\PSoC5/USBUART_1_std.c ****     if (USBUART_1_RQST_DIR_D2H == (bmRequestType & USBUART_1_RQST_DIR_MASK))
 105:Generated_Source\PSoC5/USBUART_1_std.c ****     {
 106:Generated_Source\PSoC5/USBUART_1_std.c ****         /* Control Read */
 107:Generated_Source\PSoC5/USBUART_1_std.c ****         switch (USBUART_1_bRequestReg)
 108:Generated_Source\PSoC5/USBUART_1_std.c ****         {
 109:Generated_Source\PSoC5/USBUART_1_std.c ****             case USBUART_1_GET_DESCRIPTOR:
 110:Generated_Source\PSoC5/USBUART_1_std.c ****                 if (USBUART_1_DESCR_DEVICE ==USBUART_1_wValueHiReg)
 111:Generated_Source\PSoC5/USBUART_1_std.c ****                 {
 112:Generated_Source\PSoC5/USBUART_1_std.c ****                     pTmp = USBUART_1_GetDeviceTablePtr();
 113:Generated_Source\PSoC5/USBUART_1_std.c ****                     USBUART_1_currentTD.pData = (volatile uint8 *)pTmp->p_list;
 114:Generated_Source\PSoC5/USBUART_1_std.c ****                     USBUART_1_currentTD.count = USBUART_1_DEVICE_DESCR_LENGTH;
 115:Generated_Source\PSoC5/USBUART_1_std.c ****                     
 116:Generated_Source\PSoC5/USBUART_1_std.c ****                     requestHandled  = USBUART_1_InitControlRead();
 117:Generated_Source\PSoC5/USBUART_1_std.c ****                 }
 118:Generated_Source\PSoC5/USBUART_1_std.c ****                 else if (USBUART_1_DESCR_CONFIG == USBUART_1_wValueHiReg)
 119:Generated_Source\PSoC5/USBUART_1_std.c ****                 {
 120:Generated_Source\PSoC5/USBUART_1_std.c ****                     pTmp = USBUART_1_GetConfigTablePtr((uint8) USBUART_1_wValueLoReg);
 121:Generated_Source\PSoC5/USBUART_1_std.c ****                     
 122:Generated_Source\PSoC5/USBUART_1_std.c ****                     /* Verify that requested descriptor exists */
 123:Generated_Source\PSoC5/USBUART_1_std.c ****                     if (pTmp != NULL)
 124:Generated_Source\PSoC5/USBUART_1_std.c ****                     {
 125:Generated_Source\PSoC5/USBUART_1_std.c ****                         USBUART_1_currentTD.pData = (volatile uint8 *)pTmp->p_list;
 126:Generated_Source\PSoC5/USBUART_1_std.c ****                         USBUART_1_currentTD.count = (uint16)((uint16)(USBUART_1_currentTD.pData)[US
 127:Generated_Source\PSoC5/USBUART_1_std.c ****                                                                             (USBUART_1_currentTD.pD
 128:Generated_Source\PSoC5/USBUART_1_std.c ****                         requestHandled  = USBUART_1_InitControlRead();
 129:Generated_Source\PSoC5/USBUART_1_std.c ****                     }
 130:Generated_Source\PSoC5/USBUART_1_std.c ****                 }
 131:Generated_Source\PSoC5/USBUART_1_std.c ****                 
 132:Generated_Source\PSoC5/USBUART_1_std.c ****             #if(USBUART_1_BOS_ENABLE)
 133:Generated_Source\PSoC5/USBUART_1_std.c ****                 else if (USBUART_1_DESCR_BOS == USBUART_1_wValueHiReg)
 134:Generated_Source\PSoC5/USBUART_1_std.c ****                 {
 135:Generated_Source\PSoC5/USBUART_1_std.c ****                     pTmp = USBUART_1_GetBOSPtr();
 136:Generated_Source\PSoC5/USBUART_1_std.c ****                     
 137:Generated_Source\PSoC5/USBUART_1_std.c ****                     /* Verify that requested descriptor exists */
 138:Generated_Source\PSoC5/USBUART_1_std.c ****                     if (pTmp != NULL)
 139:Generated_Source\PSoC5/USBUART_1_std.c ****                     {
 140:Generated_Source\PSoC5/USBUART_1_std.c ****                         USBUART_1_currentTD.pData = (volatile uint8 *)pTmp;
 141:Generated_Source\PSoC5/USBUART_1_std.c ****                         USBUART_1_currentTD.count = ((uint16)((uint16)(USBUART_1_currentTD.pData)[U
 142:Generated_Source\PSoC5/USBUART_1_std.c ****                                                                              (USBUART_1_currentTD.p
 143:Generated_Source\PSoC5/USBUART_1_std.c ****                         requestHandled  = USBUART_1_InitControlRead();
 144:Generated_Source\PSoC5/USBUART_1_std.c ****                     }
 145:Generated_Source\PSoC5/USBUART_1_std.c ****                 }
ARM GAS  C:\Users\DGILLI~1\AppData\Local\Temp\ccItuQxT.s 			page 4


 146:Generated_Source\PSoC5/USBUART_1_std.c ****             #endif /*(USBUART_1_BOS_ENABLE)*/
 147:Generated_Source\PSoC5/USBUART_1_std.c ****             
 148:Generated_Source\PSoC5/USBUART_1_std.c ****             #if defined(USBUART_1_ENABLE_STRINGS)
 149:Generated_Source\PSoC5/USBUART_1_std.c ****                 else if (USBUART_1_DESCR_STRING == USBUART_1_wValueHiReg)
 150:Generated_Source\PSoC5/USBUART_1_std.c ****                 {
 151:Generated_Source\PSoC5/USBUART_1_std.c ****                 /* Descriptor Strings */
 152:Generated_Source\PSoC5/USBUART_1_std.c ****                 #if defined(USBUART_1_ENABLE_DESCRIPTOR_STRINGS)
 153:Generated_Source\PSoC5/USBUART_1_std.c ****                     nStr = 0u;
 154:Generated_Source\PSoC5/USBUART_1_std.c ****                     pStr = (volatile uint8 *) &USBUART_1_STRING_DESCRIPTORS[0u];
 155:Generated_Source\PSoC5/USBUART_1_std.c ****                     
 156:Generated_Source\PSoC5/USBUART_1_std.c ****                     while ((USBUART_1_wValueLoReg > nStr) && (*pStr != 0u))
 157:Generated_Source\PSoC5/USBUART_1_std.c ****                     {
 158:Generated_Source\PSoC5/USBUART_1_std.c ****                         /* Read descriptor length from 1st byte */
 159:Generated_Source\PSoC5/USBUART_1_std.c ****                         descrLength = *pStr;
 160:Generated_Source\PSoC5/USBUART_1_std.c ****                         /* Move to next string descriptor */
 161:Generated_Source\PSoC5/USBUART_1_std.c ****                         pStr = &pStr[descrLength];
 162:Generated_Source\PSoC5/USBUART_1_std.c ****                         nStr++;
 163:Generated_Source\PSoC5/USBUART_1_std.c ****                     }
 164:Generated_Source\PSoC5/USBUART_1_std.c ****                 #endif /* (USBUART_1_ENABLE_DESCRIPTOR_STRINGS) */
 165:Generated_Source\PSoC5/USBUART_1_std.c ****                 
 166:Generated_Source\PSoC5/USBUART_1_std.c ****                 /* Microsoft OS String */
 167:Generated_Source\PSoC5/USBUART_1_std.c ****                 #if defined(USBUART_1_ENABLE_MSOS_STRING)
 168:Generated_Source\PSoC5/USBUART_1_std.c ****                     if (USBUART_1_STRING_MSOS == USBUART_1_wValueLoReg)
 169:Generated_Source\PSoC5/USBUART_1_std.c ****                     {
 170:Generated_Source\PSoC5/USBUART_1_std.c ****                         pStr = (volatile uint8 *)& USBUART_1_MSOS_DESCRIPTOR[0u];
 171:Generated_Source\PSoC5/USBUART_1_std.c ****                     }
 172:Generated_Source\PSoC5/USBUART_1_std.c ****                 #endif /* (USBUART_1_ENABLE_MSOS_STRING) */
 173:Generated_Source\PSoC5/USBUART_1_std.c ****                 
 174:Generated_Source\PSoC5/USBUART_1_std.c ****                 /* SN string */
 175:Generated_Source\PSoC5/USBUART_1_std.c ****                 #if defined(USBUART_1_ENABLE_SN_STRING)
 176:Generated_Source\PSoC5/USBUART_1_std.c ****                     if ((USBUART_1_wValueLoReg != 0u) && 
 177:Generated_Source\PSoC5/USBUART_1_std.c ****                         (USBUART_1_wValueLoReg == USBUART_1_DEVICE0_DESCR[USBUART_1_DEVICE_DESCR_SN
 178:Generated_Source\PSoC5/USBUART_1_std.c ****                     {
 179:Generated_Source\PSoC5/USBUART_1_std.c ****                     #if defined(USBUART_1_ENABLE_IDSN_STRING)
 180:Generated_Source\PSoC5/USBUART_1_std.c ****                         /* Read DIE ID and generate string descriptor in RAM */
 181:Generated_Source\PSoC5/USBUART_1_std.c ****                         USBUART_1_ReadDieID(USBUART_1_idSerialNumberStringDescriptor);
 182:Generated_Source\PSoC5/USBUART_1_std.c ****                         pStr = USBUART_1_idSerialNumberStringDescriptor;
 183:Generated_Source\PSoC5/USBUART_1_std.c ****                     #elif defined(USBUART_1_ENABLE_FWSN_STRING)
 184:Generated_Source\PSoC5/USBUART_1_std.c ****                         
 185:Generated_Source\PSoC5/USBUART_1_std.c ****                         if(USBUART_1_snStringConfirm != USBUART_1_FALSE)
 186:Generated_Source\PSoC5/USBUART_1_std.c ****                         {
 187:Generated_Source\PSoC5/USBUART_1_std.c ****                             pStr = USBUART_1_fwSerialNumberStringDescriptor;
 188:Generated_Source\PSoC5/USBUART_1_std.c ****                         }
 189:Generated_Source\PSoC5/USBUART_1_std.c ****                         else
 190:Generated_Source\PSoC5/USBUART_1_std.c ****                         {
 191:Generated_Source\PSoC5/USBUART_1_std.c ****                             pStr = (volatile uint8 *)&USBUART_1_SN_STRING_DESCRIPTOR[0u];
 192:Generated_Source\PSoC5/USBUART_1_std.c ****                         }
 193:Generated_Source\PSoC5/USBUART_1_std.c ****                     #else
 194:Generated_Source\PSoC5/USBUART_1_std.c ****                         pStr = (volatile uint8 *)&USBUART_1_SN_STRING_DESCRIPTOR[0u];
 195:Generated_Source\PSoC5/USBUART_1_std.c ****                     #endif  /* (USBUART_1_ENABLE_IDSN_STRING) */
 196:Generated_Source\PSoC5/USBUART_1_std.c ****                     }
 197:Generated_Source\PSoC5/USBUART_1_std.c ****                 #endif /* (USBUART_1_ENABLE_SN_STRING) */
 198:Generated_Source\PSoC5/USBUART_1_std.c ****                 
 199:Generated_Source\PSoC5/USBUART_1_std.c ****                     if (*pStr != 0u)
 200:Generated_Source\PSoC5/USBUART_1_std.c ****                     {
 201:Generated_Source\PSoC5/USBUART_1_std.c ****                         USBUART_1_currentTD.count = *pStr;
 202:Generated_Source\PSoC5/USBUART_1_std.c ****                         USBUART_1_currentTD.pData = pStr;
ARM GAS  C:\Users\DGILLI~1\AppData\Local\Temp\ccItuQxT.s 			page 5


 203:Generated_Source\PSoC5/USBUART_1_std.c ****                         requestHandled  = USBUART_1_InitControlRead();
 204:Generated_Source\PSoC5/USBUART_1_std.c ****                     }
 205:Generated_Source\PSoC5/USBUART_1_std.c ****                 }
 206:Generated_Source\PSoC5/USBUART_1_std.c ****             #endif /*  USBUART_1_ENABLE_STRINGS */
 207:Generated_Source\PSoC5/USBUART_1_std.c ****                 else
 208:Generated_Source\PSoC5/USBUART_1_std.c ****                 {
 209:Generated_Source\PSoC5/USBUART_1_std.c ****                     requestHandled = USBUART_1_DispatchClassRqst();
 210:Generated_Source\PSoC5/USBUART_1_std.c ****                 }
 211:Generated_Source\PSoC5/USBUART_1_std.c ****                 break;
 212:Generated_Source\PSoC5/USBUART_1_std.c ****                 
 213:Generated_Source\PSoC5/USBUART_1_std.c ****             case USBUART_1_GET_STATUS:
 214:Generated_Source\PSoC5/USBUART_1_std.c ****                 switch (bmRequestType & USBUART_1_RQST_RCPT_MASK)
 215:Generated_Source\PSoC5/USBUART_1_std.c ****                 {
 216:Generated_Source\PSoC5/USBUART_1_std.c ****                     case USBUART_1_RQST_RCPT_EP:
 217:Generated_Source\PSoC5/USBUART_1_std.c ****                         USBUART_1_currentTD.count = USBUART_1_EP_STATUS_LENGTH;
 218:Generated_Source\PSoC5/USBUART_1_std.c ****                         USBUART_1_tBuffer[0u]     = USBUART_1_EP[USBUART_1_wIndexLoReg & USBUART_1_
 219:Generated_Source\PSoC5/USBUART_1_std.c ****                         USBUART_1_tBuffer[1u]     = 0u;
 220:Generated_Source\PSoC5/USBUART_1_std.c ****                         USBUART_1_currentTD.pData = &USBUART_1_tBuffer[0u];
 221:Generated_Source\PSoC5/USBUART_1_std.c ****                         
 222:Generated_Source\PSoC5/USBUART_1_std.c ****                         requestHandled  = USBUART_1_InitControlRead();
 223:Generated_Source\PSoC5/USBUART_1_std.c ****                         break;
 224:Generated_Source\PSoC5/USBUART_1_std.c ****                     case USBUART_1_RQST_RCPT_DEV:
 225:Generated_Source\PSoC5/USBUART_1_std.c ****                         USBUART_1_currentTD.count = USBUART_1_DEVICE_STATUS_LENGTH;
 226:Generated_Source\PSoC5/USBUART_1_std.c ****                         USBUART_1_tBuffer[0u]     = USBUART_1_deviceStatus;
 227:Generated_Source\PSoC5/USBUART_1_std.c ****                         USBUART_1_tBuffer[1u]     = 0u;
 228:Generated_Source\PSoC5/USBUART_1_std.c ****                         USBUART_1_currentTD.pData = &USBUART_1_tBuffer[0u];
 229:Generated_Source\PSoC5/USBUART_1_std.c ****                         
 230:Generated_Source\PSoC5/USBUART_1_std.c ****                         requestHandled  = USBUART_1_InitControlRead();
 231:Generated_Source\PSoC5/USBUART_1_std.c ****                         break;
 232:Generated_Source\PSoC5/USBUART_1_std.c ****                     default:    /* requestHandled is initialized as FALSE by default */
 233:Generated_Source\PSoC5/USBUART_1_std.c ****                         break;
 234:Generated_Source\PSoC5/USBUART_1_std.c ****                 }
 235:Generated_Source\PSoC5/USBUART_1_std.c ****                 break;
 236:Generated_Source\PSoC5/USBUART_1_std.c ****                 
 237:Generated_Source\PSoC5/USBUART_1_std.c ****             case USBUART_1_GET_CONFIGURATION:
 238:Generated_Source\PSoC5/USBUART_1_std.c ****                 USBUART_1_currentTD.count = 1u;
 239:Generated_Source\PSoC5/USBUART_1_std.c ****                 USBUART_1_currentTD.pData = (volatile uint8 *) &USBUART_1_configuration;
 240:Generated_Source\PSoC5/USBUART_1_std.c ****                 requestHandled  = USBUART_1_InitControlRead();
 241:Generated_Source\PSoC5/USBUART_1_std.c ****                 break;
 242:Generated_Source\PSoC5/USBUART_1_std.c ****                 
 243:Generated_Source\PSoC5/USBUART_1_std.c ****             case USBUART_1_GET_INTERFACE:
 244:Generated_Source\PSoC5/USBUART_1_std.c ****                 USBUART_1_currentTD.count = 1u;
 245:Generated_Source\PSoC5/USBUART_1_std.c ****                 USBUART_1_currentTD.pData = (volatile uint8 *) &USBUART_1_interfaceSetting[USBUART_
 246:Generated_Source\PSoC5/USBUART_1_std.c ****                 requestHandled  = USBUART_1_InitControlRead();
 247:Generated_Source\PSoC5/USBUART_1_std.c ****                 break;
 248:Generated_Source\PSoC5/USBUART_1_std.c ****                 
 249:Generated_Source\PSoC5/USBUART_1_std.c ****             default: /* requestHandled is initialized as FALSE by default */
 250:Generated_Source\PSoC5/USBUART_1_std.c ****                 break;
 251:Generated_Source\PSoC5/USBUART_1_std.c ****         }
 252:Generated_Source\PSoC5/USBUART_1_std.c ****     }
 253:Generated_Source\PSoC5/USBUART_1_std.c ****     else
 254:Generated_Source\PSoC5/USBUART_1_std.c ****     {
 255:Generated_Source\PSoC5/USBUART_1_std.c ****         /* Control Write */
 256:Generated_Source\PSoC5/USBUART_1_std.c ****         switch (USBUART_1_bRequestReg)
 257:Generated_Source\PSoC5/USBUART_1_std.c ****         {
 258:Generated_Source\PSoC5/USBUART_1_std.c ****             case USBUART_1_SET_ADDRESS:
 259:Generated_Source\PSoC5/USBUART_1_std.c ****                 /* Store address to be set in USBUART_1_NoDataControlStatusStage(). */
ARM GAS  C:\Users\DGILLI~1\AppData\Local\Temp\ccItuQxT.s 			page 6


 260:Generated_Source\PSoC5/USBUART_1_std.c ****                 USBUART_1_deviceAddress = (uint8) USBUART_1_wValueLoReg;
 261:Generated_Source\PSoC5/USBUART_1_std.c ****                 requestHandled = USBUART_1_InitNoDataControlTransfer();
 262:Generated_Source\PSoC5/USBUART_1_std.c ****                 break;
 263:Generated_Source\PSoC5/USBUART_1_std.c ****                 
 264:Generated_Source\PSoC5/USBUART_1_std.c ****             case USBUART_1_SET_CONFIGURATION:
 265:Generated_Source\PSoC5/USBUART_1_std.c ****                 configurationN = USBUART_1_wValueLoReg;
 266:Generated_Source\PSoC5/USBUART_1_std.c ****                 
 267:Generated_Source\PSoC5/USBUART_1_std.c ****                 /* Verify that configuration descriptor exists */
 268:Generated_Source\PSoC5/USBUART_1_std.c ****                 if(configurationN > 0u)
 269:Generated_Source\PSoC5/USBUART_1_std.c ****                 {
 270:Generated_Source\PSoC5/USBUART_1_std.c ****                     pTmp = USBUART_1_GetConfigTablePtr((uint8) configurationN - 1u);
 271:Generated_Source\PSoC5/USBUART_1_std.c ****                 }
 272:Generated_Source\PSoC5/USBUART_1_std.c ****                 
 273:Generated_Source\PSoC5/USBUART_1_std.c ****                 /* Responds with a Request Error when configuration number is invalid */
 274:Generated_Source\PSoC5/USBUART_1_std.c ****                 if (((configurationN > 0u) && (pTmp != NULL)) || (configurationN == 0u))
 275:Generated_Source\PSoC5/USBUART_1_std.c ****                 {
 276:Generated_Source\PSoC5/USBUART_1_std.c ****                     /* Set new configuration if it has been changed */
 277:Generated_Source\PSoC5/USBUART_1_std.c ****                     if(configurationN != USBUART_1_configuration)
 278:Generated_Source\PSoC5/USBUART_1_std.c ****                     {
 279:Generated_Source\PSoC5/USBUART_1_std.c ****                         USBUART_1_configuration = (uint8) configurationN;
 280:Generated_Source\PSoC5/USBUART_1_std.c ****                         USBUART_1_configurationChanged = USBUART_1_TRUE;
 281:Generated_Source\PSoC5/USBUART_1_std.c ****                         USBUART_1_Config(USBUART_1_TRUE);
 282:Generated_Source\PSoC5/USBUART_1_std.c ****                     }
 283:Generated_Source\PSoC5/USBUART_1_std.c ****                     requestHandled = USBUART_1_InitNoDataControlTransfer();
 284:Generated_Source\PSoC5/USBUART_1_std.c ****                 }
 285:Generated_Source\PSoC5/USBUART_1_std.c ****                 break;
 286:Generated_Source\PSoC5/USBUART_1_std.c ****                 
 287:Generated_Source\PSoC5/USBUART_1_std.c ****             case USBUART_1_SET_INTERFACE:
 288:Generated_Source\PSoC5/USBUART_1_std.c ****                 if (0u != USBUART_1_ValidateAlternateSetting())
 289:Generated_Source\PSoC5/USBUART_1_std.c ****                 {
 290:Generated_Source\PSoC5/USBUART_1_std.c ****                     /* Get interface number from the request. */
 291:Generated_Source\PSoC5/USBUART_1_std.c ****                     interfaceNumber = USBUART_1_wIndexLoReg;
 292:Generated_Source\PSoC5/USBUART_1_std.c ****                     USBUART_1_interfaceNumber = (uint8) USBUART_1_wIndexLoReg;
 293:Generated_Source\PSoC5/USBUART_1_std.c ****                      
 294:Generated_Source\PSoC5/USBUART_1_std.c ****                     /* Check if alternate settings is changed for interface. */
 295:Generated_Source\PSoC5/USBUART_1_std.c ****                     if (USBUART_1_interfaceSettingLast[interfaceNumber] != USBUART_1_interfaceSetti
 296:Generated_Source\PSoC5/USBUART_1_std.c ****                     {
 297:Generated_Source\PSoC5/USBUART_1_std.c ****                         USBUART_1_configurationChanged = USBUART_1_TRUE;
 298:Generated_Source\PSoC5/USBUART_1_std.c ****                     
 299:Generated_Source\PSoC5/USBUART_1_std.c ****                         /* Change alternate setting for the endpoints. */
 300:Generated_Source\PSoC5/USBUART_1_std.c ****                     #if (USBUART_1_EP_MANAGEMENT_MANUAL && USBUART_1_EP_ALLOC_DYNAMIC)
 301:Generated_Source\PSoC5/USBUART_1_std.c ****                         USBUART_1_Config(USBUART_1_FALSE);
 302:Generated_Source\PSoC5/USBUART_1_std.c ****                     #else
 303:Generated_Source\PSoC5/USBUART_1_std.c ****                         USBUART_1_ConfigAltChanged();
 304:Generated_Source\PSoC5/USBUART_1_std.c ****                     #endif /* (USBUART_1_EP_MANAGEMENT_MANUAL && USBUART_1_EP_ALLOC_DYNAMIC) */
 305:Generated_Source\PSoC5/USBUART_1_std.c ****                     }
 306:Generated_Source\PSoC5/USBUART_1_std.c ****                     
 307:Generated_Source\PSoC5/USBUART_1_std.c ****                     requestHandled = USBUART_1_InitNoDataControlTransfer();
 308:Generated_Source\PSoC5/USBUART_1_std.c ****                 }
 309:Generated_Source\PSoC5/USBUART_1_std.c ****                 break;
 310:Generated_Source\PSoC5/USBUART_1_std.c ****                 
 311:Generated_Source\PSoC5/USBUART_1_std.c ****             case USBUART_1_CLEAR_FEATURE:
 312:Generated_Source\PSoC5/USBUART_1_std.c ****                 switch (bmRequestType & USBUART_1_RQST_RCPT_MASK)
 313:Generated_Source\PSoC5/USBUART_1_std.c ****                 {
 314:Generated_Source\PSoC5/USBUART_1_std.c ****                     case USBUART_1_RQST_RCPT_EP:
 315:Generated_Source\PSoC5/USBUART_1_std.c ****                         if (USBUART_1_wValueLoReg == USBUART_1_ENDPOINT_HALT)
 316:Generated_Source\PSoC5/USBUART_1_std.c ****                         {
ARM GAS  C:\Users\DGILLI~1\AppData\Local\Temp\ccItuQxT.s 			page 7


 317:Generated_Source\PSoC5/USBUART_1_std.c ****                             requestHandled = USBUART_1_ClearEndpointHalt();
 318:Generated_Source\PSoC5/USBUART_1_std.c ****                         }
 319:Generated_Source\PSoC5/USBUART_1_std.c ****                         break;
 320:Generated_Source\PSoC5/USBUART_1_std.c ****                     case USBUART_1_RQST_RCPT_DEV:
 321:Generated_Source\PSoC5/USBUART_1_std.c ****                         /* Clear device REMOTE_WAKEUP */
 322:Generated_Source\PSoC5/USBUART_1_std.c ****                         if (USBUART_1_wValueLoReg == USBUART_1_DEVICE_REMOTE_WAKEUP)
 323:Generated_Source\PSoC5/USBUART_1_std.c ****                         {
 324:Generated_Source\PSoC5/USBUART_1_std.c ****                             USBUART_1_deviceStatus &= (uint8)~USBUART_1_DEVICE_STATUS_REMOTE_WAKEUP
 325:Generated_Source\PSoC5/USBUART_1_std.c ****                             requestHandled = USBUART_1_InitNoDataControlTransfer();
 326:Generated_Source\PSoC5/USBUART_1_std.c ****                         }
 327:Generated_Source\PSoC5/USBUART_1_std.c ****                         break;
 328:Generated_Source\PSoC5/USBUART_1_std.c ****                     case USBUART_1_RQST_RCPT_IFC:
 329:Generated_Source\PSoC5/USBUART_1_std.c ****                         /* Validate interfaceNumber */
 330:Generated_Source\PSoC5/USBUART_1_std.c ****                         if (USBUART_1_wIndexLoReg < USBUART_1_MAX_INTERFACES_NUMBER)
 331:Generated_Source\PSoC5/USBUART_1_std.c ****                         {
 332:Generated_Source\PSoC5/USBUART_1_std.c ****                             USBUART_1_interfaceStatus[USBUART_1_wIndexLoReg] &= (uint8) ~USBUART_1_
 333:Generated_Source\PSoC5/USBUART_1_std.c ****                             requestHandled = USBUART_1_InitNoDataControlTransfer();
 334:Generated_Source\PSoC5/USBUART_1_std.c ****                         }
 335:Generated_Source\PSoC5/USBUART_1_std.c ****                         break;
 336:Generated_Source\PSoC5/USBUART_1_std.c ****                     default:    /* requestHandled is initialized as FALSE by default */
 337:Generated_Source\PSoC5/USBUART_1_std.c ****                         break;
 338:Generated_Source\PSoC5/USBUART_1_std.c ****                 }
 339:Generated_Source\PSoC5/USBUART_1_std.c ****                 break;
 340:Generated_Source\PSoC5/USBUART_1_std.c ****                 
 341:Generated_Source\PSoC5/USBUART_1_std.c ****             case USBUART_1_SET_FEATURE:
 342:Generated_Source\PSoC5/USBUART_1_std.c ****                 switch (bmRequestType & USBUART_1_RQST_RCPT_MASK)
 343:Generated_Source\PSoC5/USBUART_1_std.c ****                 {
 344:Generated_Source\PSoC5/USBUART_1_std.c ****                     case USBUART_1_RQST_RCPT_EP:
 345:Generated_Source\PSoC5/USBUART_1_std.c ****                         if (USBUART_1_wValueLoReg == USBUART_1_ENDPOINT_HALT)
 346:Generated_Source\PSoC5/USBUART_1_std.c ****                         {
 347:Generated_Source\PSoC5/USBUART_1_std.c ****                             requestHandled = USBUART_1_SetEndpointHalt();
 348:Generated_Source\PSoC5/USBUART_1_std.c ****                         }
 349:Generated_Source\PSoC5/USBUART_1_std.c ****                         break;
 350:Generated_Source\PSoC5/USBUART_1_std.c ****                         
 351:Generated_Source\PSoC5/USBUART_1_std.c ****                     case USBUART_1_RQST_RCPT_DEV:
 352:Generated_Source\PSoC5/USBUART_1_std.c ****                         /* Set device REMOTE_WAKEUP */
 353:Generated_Source\PSoC5/USBUART_1_std.c ****                         if (USBUART_1_wValueLoReg == USBUART_1_DEVICE_REMOTE_WAKEUP)
 354:Generated_Source\PSoC5/USBUART_1_std.c ****                         {
 355:Generated_Source\PSoC5/USBUART_1_std.c ****                             USBUART_1_deviceStatus |= USBUART_1_DEVICE_STATUS_REMOTE_WAKEUP;
 356:Generated_Source\PSoC5/USBUART_1_std.c ****                             requestHandled = USBUART_1_InitNoDataControlTransfer();
 357:Generated_Source\PSoC5/USBUART_1_std.c ****                         }
 358:Generated_Source\PSoC5/USBUART_1_std.c ****                         break;
 359:Generated_Source\PSoC5/USBUART_1_std.c ****                         
 360:Generated_Source\PSoC5/USBUART_1_std.c ****                     case USBUART_1_RQST_RCPT_IFC:
 361:Generated_Source\PSoC5/USBUART_1_std.c ****                         /* Validate interfaceNumber */
 362:Generated_Source\PSoC5/USBUART_1_std.c ****                         if (USBUART_1_wIndexLoReg < USBUART_1_MAX_INTERFACES_NUMBER)
 363:Generated_Source\PSoC5/USBUART_1_std.c ****                         {
 364:Generated_Source\PSoC5/USBUART_1_std.c ****                             USBUART_1_interfaceStatus[USBUART_1_wIndexLoReg] &= (uint8) ~USBUART_1_
 365:Generated_Source\PSoC5/USBUART_1_std.c ****                             requestHandled = USBUART_1_InitNoDataControlTransfer();
 366:Generated_Source\PSoC5/USBUART_1_std.c ****                         }
 367:Generated_Source\PSoC5/USBUART_1_std.c ****                         break;
 368:Generated_Source\PSoC5/USBUART_1_std.c ****                     
 369:Generated_Source\PSoC5/USBUART_1_std.c ****                     default:    /* requestHandled is initialized as FALSE by default */
 370:Generated_Source\PSoC5/USBUART_1_std.c ****                         break;
 371:Generated_Source\PSoC5/USBUART_1_std.c ****                 }
 372:Generated_Source\PSoC5/USBUART_1_std.c ****                 break;
 373:Generated_Source\PSoC5/USBUART_1_std.c ****                 
ARM GAS  C:\Users\DGILLI~1\AppData\Local\Temp\ccItuQxT.s 			page 8


 374:Generated_Source\PSoC5/USBUART_1_std.c ****             default:    /* requestHandled is initialized as FALSE by default */
 375:Generated_Source\PSoC5/USBUART_1_std.c ****                 break;
 376:Generated_Source\PSoC5/USBUART_1_std.c ****         }
 377:Generated_Source\PSoC5/USBUART_1_std.c ****     }
 378:Generated_Source\PSoC5/USBUART_1_std.c ****     
 379:Generated_Source\PSoC5/USBUART_1_std.c ****     return (requestHandled);
 380:Generated_Source\PSoC5/USBUART_1_std.c **** }
 381:Generated_Source\PSoC5/USBUART_1_std.c **** 
 382:Generated_Source\PSoC5/USBUART_1_std.c **** 
 383:Generated_Source\PSoC5/USBUART_1_std.c **** #if defined(USBUART_1_ENABLE_IDSN_STRING)
 384:Generated_Source\PSoC5/USBUART_1_std.c ****     /***************************************************************************
 385:Generated_Source\PSoC5/USBUART_1_std.c ****     * Function Name: USBUART_1_ReadDieID
 386:Generated_Source\PSoC5/USBUART_1_std.c ****     ************************************************************************//**
 387:Generated_Source\PSoC5/USBUART_1_std.c ****     *
 388:Generated_Source\PSoC5/USBUART_1_std.c ****     *  This routine read Die ID and generate Serial Number string descriptor.
 389:Generated_Source\PSoC5/USBUART_1_std.c ****     *
 390:Generated_Source\PSoC5/USBUART_1_std.c ****     *  \param descr:  pointer on string descriptor. This string size has to be equal or
 391:Generated_Source\PSoC5/USBUART_1_std.c ****     *          greater than USBUART_1_IDSN_DESCR_LENGTH.
 392:Generated_Source\PSoC5/USBUART_1_std.c ****     *
 393:Generated_Source\PSoC5/USBUART_1_std.c ****     *
 394:Generated_Source\PSoC5/USBUART_1_std.c ****     * \reentrant
 395:Generated_Source\PSoC5/USBUART_1_std.c ****     *  No.
 396:Generated_Source\PSoC5/USBUART_1_std.c ****     *
 397:Generated_Source\PSoC5/USBUART_1_std.c ****     ***************************************************************************/
 398:Generated_Source\PSoC5/USBUART_1_std.c ****     void USBUART_1_ReadDieID(uint8 descr[]) 
 399:Generated_Source\PSoC5/USBUART_1_std.c ****     {
  27              		.loc 1 399 0
  28              		.cfi_startproc
  29              		@ args = 0, pretend = 0, frame = 32
  30              		@ frame_needed = 0, uses_anonymous_args = 0
  31              	.LVL0:
  32 0000 70B5     		push	{r4, r5, r6, lr}
  33              		.cfi_def_cfa_offset 16
  34              		.cfi_offset 4, -16
  35              		.cfi_offset 5, -12
  36              		.cfi_offset 6, -8
  37              		.cfi_offset 14, -4
  38 0002 88B0     		sub	sp, sp, #32
  39              		.cfi_def_cfa_offset 48
  40 0004 0546     		mov	r5, r0
 400:Generated_Source\PSoC5/USBUART_1_std.c ****         const char8 CYCODE hex[] = "0123456789ABCDEF";
  41              		.loc 1 400 0
  42 0006 03AC     		add	r4, sp, #12
  43 0008 174E     		ldr	r6, .L6
  44 000a 0FCE     		ldmia	r6!, {r0, r1, r2, r3}
  45              	.LVL1:
  46 000c 0FC4     		stmia	r4!, {r0, r1, r2, r3}
  47 000e 3368     		ldr	r3, [r6]
  48 0010 2370     		strb	r3, [r4]
  49              	.LVL2:
 401:Generated_Source\PSoC5/USBUART_1_std.c ****         uint8 i;
 402:Generated_Source\PSoC5/USBUART_1_std.c ****         uint8 j = 0u;
 403:Generated_Source\PSoC5/USBUART_1_std.c ****         uint8 uniqueId[8u];
 404:Generated_Source\PSoC5/USBUART_1_std.c **** 
 405:Generated_Source\PSoC5/USBUART_1_std.c ****         if (NULL != descr)
  50              		.loc 1 405 0
  51 0012 35B3     		cbz	r5, .L1
ARM GAS  C:\Users\DGILLI~1\AppData\Local\Temp\ccItuQxT.s 			page 9


 406:Generated_Source\PSoC5/USBUART_1_std.c ****         {
 407:Generated_Source\PSoC5/USBUART_1_std.c ****             /* Initialize descriptor header. */
 408:Generated_Source\PSoC5/USBUART_1_std.c ****             descr[0u] = USBUART_1_IDSN_DESCR_LENGTH;
  52              		.loc 1 408 0
  53 0014 2223     		movs	r3, #34
  54 0016 2B70     		strb	r3, [r5]
 409:Generated_Source\PSoC5/USBUART_1_std.c ****             descr[1u] = USBUART_1_DESCR_STRING;
  55              		.loc 1 409 0
  56 0018 0323     		movs	r3, #3
  57 001a 6B70     		strb	r3, [r5, #1]
 410:Generated_Source\PSoC5/USBUART_1_std.c ****             
 411:Generated_Source\PSoC5/USBUART_1_std.c ****             /* Unique ID size is 8 bytes. */
 412:Generated_Source\PSoC5/USBUART_1_std.c ****             CyGetUniqueId((uint32 *) uniqueId);
  58              		.loc 1 412 0
  59 001c 01A8     		add	r0, sp, #4
  60 001e FFF7FEFF 		bl	CyGetUniqueId
  61              	.LVL3:
 402:Generated_Source\PSoC5/USBUART_1_std.c ****         uint8 uniqueId[8u];
  62              		.loc 1 402 0
  63 0022 0024     		movs	r4, #0
 413:Generated_Source\PSoC5/USBUART_1_std.c **** 
 414:Generated_Source\PSoC5/USBUART_1_std.c ****             /* Fill descriptor with unique device ID. */
 415:Generated_Source\PSoC5/USBUART_1_std.c ****             for (i = 2u; i < USBUART_1_IDSN_DESCR_LENGTH; i += 4u)
  64              		.loc 1 415 0
  65 0024 0223     		movs	r3, #2
  66 0026 1AE0     		b	.L3
  67              	.LVL4:
  68              	.L4:
 416:Generated_Source\PSoC5/USBUART_1_std.c ****             {
 417:Generated_Source\PSoC5/USBUART_1_std.c ****                 descr[i]      = (uint8) hex[(uniqueId[j] >> 4u)];
  69              		.loc 1 417 0 discriminator 3
  70 0028 08AA     		add	r2, sp, #32
  71 002a 2244     		add	r2, r2, r4
  72 002c 12F81C2C 		ldrb	r2, [r2, #-28]	@ zero_extendqisi2
  73 0030 08A9     		add	r1, sp, #32
  74 0032 01EB1211 		add	r1, r1, r2, lsr #4
  75 0036 11F8141C 		ldrb	r1, [r1, #-20]	@ zero_extendqisi2
  76 003a E954     		strb	r1, [r5, r3]
 418:Generated_Source\PSoC5/USBUART_1_std.c ****                 descr[i + 1u] = 0u;
  77              		.loc 1 418 0 discriminator 3
  78 003c 581C     		adds	r0, r3, #1
  79 003e 0021     		movs	r1, #0
  80 0040 2954     		strb	r1, [r5, r0]
 419:Generated_Source\PSoC5/USBUART_1_std.c ****                 descr[i + 2u] = (uint8) hex[(uniqueId[j] & 0x0Fu)];
  81              		.loc 1 419 0 discriminator 3
  82 0042 981C     		adds	r0, r3, #2
  83 0044 02F00F02 		and	r2, r2, #15
  84 0048 08AE     		add	r6, sp, #32
  85 004a 3244     		add	r2, r2, r6
  86 004c 12F8142C 		ldrb	r2, [r2, #-20]	@ zero_extendqisi2
  87 0050 2A54     		strb	r2, [r5, r0]
 420:Generated_Source\PSoC5/USBUART_1_std.c ****                 descr[i + 3u] = 0u;
  88              		.loc 1 420 0 discriminator 3
  89 0052 DA1C     		adds	r2, r3, #3
  90 0054 A954     		strb	r1, [r5, r2]
 421:Generated_Source\PSoC5/USBUART_1_std.c ****                 ++j;
  91              		.loc 1 421 0 discriminator 3
ARM GAS  C:\Users\DGILLI~1\AppData\Local\Temp\ccItuQxT.s 			page 10


  92 0056 0134     		adds	r4, r4, #1
  93              	.LVL5:
  94 0058 E4B2     		uxtb	r4, r4
  95              	.LVL6:
 415:Generated_Source\PSoC5/USBUART_1_std.c ****             {
  96              		.loc 1 415 0 discriminator 3
  97 005a 0433     		adds	r3, r3, #4
  98              	.LVL7:
  99 005c DBB2     		uxtb	r3, r3
 100              	.LVL8:
 101              	.L3:
 415:Generated_Source\PSoC5/USBUART_1_std.c ****             {
 102              		.loc 1 415 0 is_stmt 0 discriminator 1
 103 005e 212B     		cmp	r3, #33
 104 0060 E2D9     		bls	.L4
 105              	.LVL9:
 106              	.L1:
 422:Generated_Source\PSoC5/USBUART_1_std.c ****             }
 423:Generated_Source\PSoC5/USBUART_1_std.c ****         }
 424:Generated_Source\PSoC5/USBUART_1_std.c ****     }
 107              		.loc 1 424 0 is_stmt 1
 108 0062 08B0     		add	sp, sp, #32
 109              		.cfi_def_cfa_offset 16
 110              		@ sp needed
 111 0064 70BD     		pop	{r4, r5, r6, pc}
 112              	.LVL10:
 113              	.L7:
 114 0066 00BF     		.align	2
 115              	.L6:
 116 0068 00000000 		.word	.LC0
 117              		.cfi_endproc
 118              	.LFE1:
 119              		.size	USBUART_1_ReadDieID, .-USBUART_1_ReadDieID
 120              		.section	.text.USBUART_1_ConfigReg,"ax",%progbits
 121              		.align	2
 122              		.global	USBUART_1_ConfigReg
 123              		.thumb
 124              		.thumb_func
 125              		.type	USBUART_1_ConfigReg, %function
 126              	USBUART_1_ConfigReg:
 127              	.LFB2:
 425:Generated_Source\PSoC5/USBUART_1_std.c **** #endif /* (USBUART_1_ENABLE_IDSN_STRING) */
 426:Generated_Source\PSoC5/USBUART_1_std.c **** 
 427:Generated_Source\PSoC5/USBUART_1_std.c **** 
 428:Generated_Source\PSoC5/USBUART_1_std.c **** /*******************************************************************************
 429:Generated_Source\PSoC5/USBUART_1_std.c **** * Function Name: USBUART_1_ConfigReg
 430:Generated_Source\PSoC5/USBUART_1_std.c **** ****************************************************************************//**
 431:Generated_Source\PSoC5/USBUART_1_std.c **** *
 432:Generated_Source\PSoC5/USBUART_1_std.c **** *  This routine configures hardware registers from the variables.
 433:Generated_Source\PSoC5/USBUART_1_std.c **** *  It is called from USBUART_1_Config() function and from RestoreConfig
 434:Generated_Source\PSoC5/USBUART_1_std.c **** *  after Wakeup.
 435:Generated_Source\PSoC5/USBUART_1_std.c **** *
 436:Generated_Source\PSoC5/USBUART_1_std.c **** *******************************************************************************/
 437:Generated_Source\PSoC5/USBUART_1_std.c **** void USBUART_1_ConfigReg(void) 
 438:Generated_Source\PSoC5/USBUART_1_std.c **** {
 128              		.loc 1 438 0
 129              		.cfi_startproc
ARM GAS  C:\Users\DGILLI~1\AppData\Local\Temp\ccItuQxT.s 			page 11


 130              		@ args = 0, pretend = 0, frame = 0
 131              		@ frame_needed = 0, uses_anonymous_args = 0
 132              		@ link register save eliminated.
 133 0000 10B4     		push	{r4}
 134              		.cfi_def_cfa_offset 4
 135              		.cfi_offset 4, -4
 136              	.LVL11:
 439:Generated_Source\PSoC5/USBUART_1_std.c ****     uint8 ep;
 440:Generated_Source\PSoC5/USBUART_1_std.c **** 
 441:Generated_Source\PSoC5/USBUART_1_std.c **** #if (USBUART_1_EP_MANAGEMENT_DMA_AUTO)
 442:Generated_Source\PSoC5/USBUART_1_std.c ****     uint8 epType = 0u;
 443:Generated_Source\PSoC5/USBUART_1_std.c **** #endif /* (USBUART_1_EP_MANAGEMENT_DMA_AUTO) */
 444:Generated_Source\PSoC5/USBUART_1_std.c **** 
 445:Generated_Source\PSoC5/USBUART_1_std.c ****     /* Go thought all endpoints and set hardware configuration */
 446:Generated_Source\PSoC5/USBUART_1_std.c ****     for (ep = USBUART_1_EP1; ep < USBUART_1_MAX_EP; ++ep)
 137              		.loc 1 446 0
 138 0002 0122     		movs	r2, #1
 139 0004 3DE0     		b	.L9
 140              	.LVL12:
 141              	.L13:
 447:Generated_Source\PSoC5/USBUART_1_std.c ****     {
 448:Generated_Source\PSoC5/USBUART_1_std.c ****         USBUART_1_ARB_EP_BASE.arbEp[ep].epCfg = USBUART_1_ARB_EPX_CFG_DEFAULT;
 142              		.loc 1 448 0
 143 0006 1146     		mov	r1, r2
 144 0008 1301     		lsls	r3, r2, #4
 145 000a 0C24     		movs	r4, #12
 146 000c 2148     		ldr	r0, .L15
 147 000e C454     		strb	r4, [r0, r3]
 449:Generated_Source\PSoC5/USBUART_1_std.c ****         
 450:Generated_Source\PSoC5/USBUART_1_std.c ****     #if (USBUART_1_EP_MANAGEMENT_DMA)
 451:Generated_Source\PSoC5/USBUART_1_std.c ****         /* Enable arbiter endpoint interrupt sources */
 452:Generated_Source\PSoC5/USBUART_1_std.c ****         USBUART_1_ARB_EP_BASE.arbEp[ep].epIntEn = USBUART_1_ARB_EPX_INT_MASK;
 453:Generated_Source\PSoC5/USBUART_1_std.c ****     #endif /* (USBUART_1_EP_MANAGEMENT_DMA) */
 454:Generated_Source\PSoC5/USBUART_1_std.c ****     
 455:Generated_Source\PSoC5/USBUART_1_std.c ****         if (USBUART_1_EP[ep].epMode != USBUART_1_MODE_DISABLE)
 148              		.loc 1 455 0
 149 0010 02EB4203 		add	r3, r2, r2, lsl #1
 150 0014 9B00     		lsls	r3, r3, #2
 151 0016 2048     		ldr	r0, .L15+4
 152 0018 0344     		add	r3, r3, r0
 153 001a 5B79     		ldrb	r3, [r3, #5]	@ zero_extendqisi2
 154 001c 13F0FF0F 		tst	r3, #255
 155 0020 12D0     		beq	.L10
 456:Generated_Source\PSoC5/USBUART_1_std.c ****         {
 457:Generated_Source\PSoC5/USBUART_1_std.c ****             if (0u != (USBUART_1_EP[ep].addr & USBUART_1_DIR_IN))
 156              		.loc 1 457 0
 157 0022 02EB4203 		add	r3, r2, r2, lsl #1
 158 0026 9B00     		lsls	r3, r3, #2
 159 0028 0344     		add	r3, r3, r0
 160 002a 1B79     		ldrb	r3, [r3, #4]	@ zero_extendqisi2
 161 002c 13F0800F 		tst	r3, #128
 162 0030 04D0     		beq	.L11
 458:Generated_Source\PSoC5/USBUART_1_std.c ****             {
 459:Generated_Source\PSoC5/USBUART_1_std.c ****                 USBUART_1_SIE_EP_BASE.sieEp[ep].epCr0 = USBUART_1_MODE_NAK_IN;
 163              		.loc 1 459 0
 164 0032 1001     		lsls	r0, r2, #4
 165 0034 194B     		ldr	r3, .L15+8
ARM GAS  C:\Users\DGILLI~1\AppData\Local\Temp\ccItuQxT.s 			page 12


 166 0036 0344     		add	r3, r3, r0
 167 0038 9C70     		strb	r4, [r3, #2]
 168 003a 0AE0     		b	.L12
 169              	.L11:
 460:Generated_Source\PSoC5/USBUART_1_std.c ****                 
 461:Generated_Source\PSoC5/USBUART_1_std.c ****             #if (USBUART_1_EP_MANAGEMENT_DMA_AUTO && CY_PSOC4)
 462:Generated_Source\PSoC5/USBUART_1_std.c ****                 /* Clear DMA_TERMIN for IN endpoint. */
 463:Generated_Source\PSoC5/USBUART_1_std.c ****                 USBUART_1_ARB_EP_BASE.arbEp[ep].epIntEn &= (uint32) ~USBUART_1_ARB_EPX_INT_DMA_TERM
 464:Generated_Source\PSoC5/USBUART_1_std.c ****             #endif /* (USBUART_1_EP_MANAGEMENT_DMA_AUTO && CY_PSOC4) */
 465:Generated_Source\PSoC5/USBUART_1_std.c ****             }
 466:Generated_Source\PSoC5/USBUART_1_std.c ****             else
 467:Generated_Source\PSoC5/USBUART_1_std.c ****             {
 468:Generated_Source\PSoC5/USBUART_1_std.c ****                 USBUART_1_SIE_EP_BASE.sieEp[ep].epCr0 = USBUART_1_MODE_NAK_OUT;
 170              		.loc 1 468 0
 171 003c 1001     		lsls	r0, r2, #4
 172 003e 174B     		ldr	r3, .L15+8
 173 0040 0344     		add	r3, r3, r0
 174 0042 0820     		movs	r0, #8
 175 0044 9870     		strb	r0, [r3, #2]
 176 0046 04E0     		b	.L12
 177              	.L10:
 469:Generated_Source\PSoC5/USBUART_1_std.c **** 
 470:Generated_Source\PSoC5/USBUART_1_std.c ****             #if (USBUART_1_EP_MANAGEMENT_DMA_AUTO)
 471:Generated_Source\PSoC5/USBUART_1_std.c ****                 /* (CY_PSOC4): DMA_TERMIN for OUT endpoint is set above. */
 472:Generated_Source\PSoC5/USBUART_1_std.c ****                 
 473:Generated_Source\PSoC5/USBUART_1_std.c ****                 /* Prepare endpoint type mask. */
 474:Generated_Source\PSoC5/USBUART_1_std.c ****                 epType |= (uint8) (0x01u << (ep - USBUART_1_EP1));
 475:Generated_Source\PSoC5/USBUART_1_std.c ****             #endif /* (USBUART_1_EP_MANAGEMENT_DMA_AUTO) */
 476:Generated_Source\PSoC5/USBUART_1_std.c ****             }
 477:Generated_Source\PSoC5/USBUART_1_std.c ****         }
 478:Generated_Source\PSoC5/USBUART_1_std.c ****         else
 479:Generated_Source\PSoC5/USBUART_1_std.c ****         {
 480:Generated_Source\PSoC5/USBUART_1_std.c ****             USBUART_1_SIE_EP_BASE.sieEp[ep].epCr0 = USBUART_1_MODE_STALL_DATA_EP;
 178              		.loc 1 480 0
 179 0048 1001     		lsls	r0, r2, #4
 180 004a 144B     		ldr	r3, .L15+8
 181 004c 0344     		add	r3, r3, r0
 182 004e 8020     		movs	r0, #128
 183 0050 9870     		strb	r0, [r3, #2]
 184              	.L12:
 481:Generated_Source\PSoC5/USBUART_1_std.c ****         }
 482:Generated_Source\PSoC5/USBUART_1_std.c ****         
 483:Generated_Source\PSoC5/USBUART_1_std.c ****     #if (!USBUART_1_EP_MANAGEMENT_DMA_AUTO)
 484:Generated_Source\PSoC5/USBUART_1_std.c ****         #if (CY_PSOC4)
 485:Generated_Source\PSoC5/USBUART_1_std.c ****             USBUART_1_ARB_EP16_BASE.arbEp[ep].rwRa16  = (uint32) USBUART_1_EP[ep].buffOffset;
 486:Generated_Source\PSoC5/USBUART_1_std.c ****             USBUART_1_ARB_EP16_BASE.arbEp[ep].rwWa16  = (uint32) USBUART_1_EP[ep].buffOffset;
 487:Generated_Source\PSoC5/USBUART_1_std.c ****         #else
 488:Generated_Source\PSoC5/USBUART_1_std.c ****             USBUART_1_ARB_EP_BASE.arbEp[ep].rwRa    = LO8(USBUART_1_EP[ep].buffOffset);
 185              		.loc 1 488 0 discriminator 2
 186 0052 4B00     		lsls	r3, r1, #1
 187 0054 0B44     		add	r3, r3, r1
 188 0056 9B00     		lsls	r3, r3, #2
 189 0058 0F48     		ldr	r0, .L15+4
 190 005a 0344     		add	r3, r3, r0
 191 005c DC88     		ldrh	r4, [r3, #6]
 192 005e E4B2     		uxtb	r4, r4
 193 0060 0801     		lsls	r0, r1, #4
ARM GAS  C:\Users\DGILLI~1\AppData\Local\Temp\ccItuQxT.s 			page 13


 194 0062 0C49     		ldr	r1, .L15
 195 0064 0144     		add	r1, r1, r0
 196 0066 8C71     		strb	r4, [r1, #6]
 489:Generated_Source\PSoC5/USBUART_1_std.c ****             USBUART_1_ARB_EP_BASE.arbEp[ep].rwRaMsb = HI8(USBUART_1_EP[ep].buffOffset);
 197              		.loc 1 489 0 discriminator 2
 198 0068 D888     		ldrh	r0, [r3, #6]
 199 006a C0F30720 		ubfx	r0, r0, #8, #8
 200 006e C871     		strb	r0, [r1, #7]
 490:Generated_Source\PSoC5/USBUART_1_std.c ****             USBUART_1_ARB_EP_BASE.arbEp[ep].rwWa    = LO8(USBUART_1_EP[ep].buffOffset);
 201              		.loc 1 490 0 discriminator 2
 202 0070 D888     		ldrh	r0, [r3, #6]
 203 0072 C0B2     		uxtb	r0, r0
 204 0074 0871     		strb	r0, [r1, #4]
 491:Generated_Source\PSoC5/USBUART_1_std.c ****             USBUART_1_ARB_EP_BASE.arbEp[ep].rwWaMsb = HI8(USBUART_1_EP[ep].buffOffset);
 205              		.loc 1 491 0 discriminator 2
 206 0076 DB88     		ldrh	r3, [r3, #6]
 207 0078 C3F30723 		ubfx	r3, r3, #8, #8
 208 007c 4B71     		strb	r3, [r1, #5]
 446:Generated_Source\PSoC5/USBUART_1_std.c ****     {
 209              		.loc 1 446 0 discriminator 2
 210 007e 0132     		adds	r2, r2, #1
 211              	.LVL13:
 212 0080 D2B2     		uxtb	r2, r2
 213              	.LVL14:
 214              	.L9:
 446:Generated_Source\PSoC5/USBUART_1_std.c ****     {
 215              		.loc 1 446 0 is_stmt 0 discriminator 1
 216 0082 082A     		cmp	r2, #8
 217 0084 BFD9     		bls	.L13
 492:Generated_Source\PSoC5/USBUART_1_std.c ****         #endif /* (CY_PSOC4) */
 493:Generated_Source\PSoC5/USBUART_1_std.c ****     #endif /* (!USBUART_1_EP_MANAGEMENT_DMA_AUTO) */
 494:Generated_Source\PSoC5/USBUART_1_std.c ****     }
 495:Generated_Source\PSoC5/USBUART_1_std.c **** 
 496:Generated_Source\PSoC5/USBUART_1_std.c **** #if (USBUART_1_EP_MANAGEMENT_DMA_AUTO)
 497:Generated_Source\PSoC5/USBUART_1_std.c ****      /* BUF_SIZE depend on DMA_THRESS value:0x55-32 bytes  0x44-16 bytes 0x33-8 bytes 0x22-4 bytes 
 498:Generated_Source\PSoC5/USBUART_1_std.c ****     USBUART_1_BUF_SIZE_REG = USBUART_1_DMA_BUF_SIZE;
 499:Generated_Source\PSoC5/USBUART_1_std.c **** 
 500:Generated_Source\PSoC5/USBUART_1_std.c ****     /* Configure DMA burst threshold */
 501:Generated_Source\PSoC5/USBUART_1_std.c **** #if (CY_PSOC4)
 502:Generated_Source\PSoC5/USBUART_1_std.c ****     USBUART_1_DMA_THRES16_REG   = USBUART_1_DMA_BYTES_PER_BURST;
 503:Generated_Source\PSoC5/USBUART_1_std.c **** #else
 504:Generated_Source\PSoC5/USBUART_1_std.c ****     USBUART_1_DMA_THRES_REG     = USBUART_1_DMA_BYTES_PER_BURST;
 505:Generated_Source\PSoC5/USBUART_1_std.c ****     USBUART_1_DMA_THRES_MSB_REG = 0u;
 506:Generated_Source\PSoC5/USBUART_1_std.c **** #endif /* (CY_PSOC4) */
 507:Generated_Source\PSoC5/USBUART_1_std.c ****     USBUART_1_EP_ACTIVE_REG = USBUART_1_DEFAULT_ARB_INT_EN;
 508:Generated_Source\PSoC5/USBUART_1_std.c ****     USBUART_1_EP_TYPE_REG   = epType;
 509:Generated_Source\PSoC5/USBUART_1_std.c ****     
 510:Generated_Source\PSoC5/USBUART_1_std.c ****     /* Cfg_cmp bit set to 1 once configuration is complete. */
 511:Generated_Source\PSoC5/USBUART_1_std.c ****     /* Lock arbiter configtuation */
 512:Generated_Source\PSoC5/USBUART_1_std.c ****     USBUART_1_ARB_CFG_REG |= (uint8)  USBUART_1_ARB_CFG_CFG_CMP;
 513:Generated_Source\PSoC5/USBUART_1_std.c ****     /* Cfg_cmp bit set to 0 during configuration of PFSUSB Registers. */
 514:Generated_Source\PSoC5/USBUART_1_std.c ****     USBUART_1_ARB_CFG_REG &= (uint8) ~USBUART_1_ARB_CFG_CFG_CMP;
 515:Generated_Source\PSoC5/USBUART_1_std.c **** 
 516:Generated_Source\PSoC5/USBUART_1_std.c **** #endif /* (USBUART_1_EP_MANAGEMENT_DMA_AUTO) */
 517:Generated_Source\PSoC5/USBUART_1_std.c **** 
 518:Generated_Source\PSoC5/USBUART_1_std.c ****     /* Enable interrupt SIE interurpt source from EP0-EP1 */
 519:Generated_Source\PSoC5/USBUART_1_std.c ****     USBUART_1_SIE_EP_INT_EN_REG = (uint8) USBUART_1_DEFAULT_SIE_EP_INT_EN;
ARM GAS  C:\Users\DGILLI~1\AppData\Local\Temp\ccItuQxT.s 			page 14


 218              		.loc 1 519 0 is_stmt 1
 219 0086 FF22     		movs	r2, #255
 220              	.LVL15:
 221 0088 054B     		ldr	r3, .L15+12
 222 008a 1A70     		strb	r2, [r3]
 520:Generated_Source\PSoC5/USBUART_1_std.c **** }
 223              		.loc 1 520 0
 224 008c 5DF8044B 		ldr	r4, [sp], #4
 225              		.cfi_restore 4
 226              		.cfi_def_cfa_offset 0
 227 0090 7047     		bx	lr
 228              	.L16:
 229 0092 00BF     		.align	2
 230              	.L15:
 231 0094 70600040 		.word	1073766512
 232 0098 00000000 		.word	USBUART_1_EP
 233 009c FC5F0040 		.word	1073766396
 234 00a0 0A600040 		.word	1073766410
 235              		.cfi_endproc
 236              	.LFE2:
 237              		.size	USBUART_1_ConfigReg, .-USBUART_1_ConfigReg
 238              		.section	.text.USBUART_1_EpStateInit,"ax",%progbits
 239              		.align	2
 240              		.global	USBUART_1_EpStateInit
 241              		.thumb
 242              		.thumb_func
 243              		.type	USBUART_1_EpStateInit, %function
 244              	USBUART_1_EpStateInit:
 245              	.LFB3:
 521:Generated_Source\PSoC5/USBUART_1_std.c **** 
 522:Generated_Source\PSoC5/USBUART_1_std.c **** 
 523:Generated_Source\PSoC5/USBUART_1_std.c **** /*******************************************************************************
 524:Generated_Source\PSoC5/USBUART_1_std.c **** * Function Name: USBUART_1_EpStateInit
 525:Generated_Source\PSoC5/USBUART_1_std.c **** ****************************************************************************//**
 526:Generated_Source\PSoC5/USBUART_1_std.c **** *
 527:Generated_Source\PSoC5/USBUART_1_std.c **** *  This routine initialize state of Data end points based of its type: 
 528:Generated_Source\PSoC5/USBUART_1_std.c **** *   IN  - USBUART_1_IN_BUFFER_EMPTY (USBUART_1_EVENT_PENDING)
 529:Generated_Source\PSoC5/USBUART_1_std.c **** *   OUT - USBUART_1_OUT_BUFFER_EMPTY (USBUART_1_NO_EVENT_PENDING)
 530:Generated_Source\PSoC5/USBUART_1_std.c **** *
 531:Generated_Source\PSoC5/USBUART_1_std.c **** *******************************************************************************/
 532:Generated_Source\PSoC5/USBUART_1_std.c **** void USBUART_1_EpStateInit(void) 
 533:Generated_Source\PSoC5/USBUART_1_std.c **** {
 246              		.loc 1 533 0
 247              		.cfi_startproc
 248              		@ args = 0, pretend = 0, frame = 0
 249              		@ frame_needed = 0, uses_anonymous_args = 0
 250              		@ link register save eliminated.
 251              	.LVL16:
 534:Generated_Source\PSoC5/USBUART_1_std.c ****     uint8 i;
 535:Generated_Source\PSoC5/USBUART_1_std.c **** 
 536:Generated_Source\PSoC5/USBUART_1_std.c ****     for (i = USBUART_1_EP1; i < USBUART_1_MAX_EP; i++)
 252              		.loc 1 536 0
 253 0000 0123     		movs	r3, #1
 254 0002 18E0     		b	.L18
 255              	.LVL17:
 256              	.L21:
 537:Generated_Source\PSoC5/USBUART_1_std.c ****     { 
ARM GAS  C:\Users\DGILLI~1\AppData\Local\Temp\ccItuQxT.s 			page 15


 538:Generated_Source\PSoC5/USBUART_1_std.c ****         if (0u != (USBUART_1_EP[i].addr & USBUART_1_DIR_IN))
 257              		.loc 1 538 0
 258 0004 03EB4302 		add	r2, r3, r3, lsl #1
 259 0008 9200     		lsls	r2, r2, #2
 260 000a 0C49     		ldr	r1, .L22
 261 000c 0A44     		add	r2, r2, r1
 262 000e 1279     		ldrb	r2, [r2, #4]	@ zero_extendqisi2
 263 0010 12F0800F 		tst	r2, #128
 264 0014 06D0     		beq	.L19
 539:Generated_Source\PSoC5/USBUART_1_std.c ****         {
 540:Generated_Source\PSoC5/USBUART_1_std.c ****             /* IN Endpoint */
 541:Generated_Source\PSoC5/USBUART_1_std.c ****             USBUART_1_EP[i].apiEpState = USBUART_1_EVENT_PENDING;
 265              		.loc 1 541 0
 266 0016 03EB4302 		add	r2, r3, r3, lsl #1
 267 001a 9200     		lsls	r2, r2, #2
 268 001c 0A44     		add	r2, r2, r1
 269 001e 0121     		movs	r1, #1
 270 0020 5170     		strb	r1, [r2, #1]
 271 0022 06E0     		b	.L20
 272              	.L19:
 542:Generated_Source\PSoC5/USBUART_1_std.c ****         }
 543:Generated_Source\PSoC5/USBUART_1_std.c ****         else
 544:Generated_Source\PSoC5/USBUART_1_std.c ****         {
 545:Generated_Source\PSoC5/USBUART_1_std.c ****             /* OUT Endpoint */
 546:Generated_Source\PSoC5/USBUART_1_std.c ****             USBUART_1_EP[i].apiEpState = USBUART_1_NO_EVENT_PENDING;
 273              		.loc 1 546 0
 274 0024 03EB4302 		add	r2, r3, r3, lsl #1
 275 0028 9200     		lsls	r2, r2, #2
 276 002a 0449     		ldr	r1, .L22
 277 002c 0A44     		add	r2, r2, r1
 278 002e 0021     		movs	r1, #0
 279 0030 5170     		strb	r1, [r2, #1]
 280              	.L20:
 536:Generated_Source\PSoC5/USBUART_1_std.c ****     { 
 281              		.loc 1 536 0 discriminator 2
 282 0032 0133     		adds	r3, r3, #1
 283              	.LVL18:
 284 0034 DBB2     		uxtb	r3, r3
 285              	.LVL19:
 286              	.L18:
 536:Generated_Source\PSoC5/USBUART_1_std.c ****     { 
 287              		.loc 1 536 0 is_stmt 0 discriminator 1
 288 0036 082B     		cmp	r3, #8
 289 0038 E4D9     		bls	.L21
 547:Generated_Source\PSoC5/USBUART_1_std.c ****         }
 548:Generated_Source\PSoC5/USBUART_1_std.c ****     }
 549:Generated_Source\PSoC5/USBUART_1_std.c ****                     
 550:Generated_Source\PSoC5/USBUART_1_std.c **** }
 290              		.loc 1 550 0 is_stmt 1
 291 003a 7047     		bx	lr
 292              	.L23:
 293              		.align	2
 294              	.L22:
 295 003c 00000000 		.word	USBUART_1_EP
 296              		.cfi_endproc
 297              	.LFE3:
 298              		.size	USBUART_1_EpStateInit, .-USBUART_1_EpStateInit
ARM GAS  C:\Users\DGILLI~1\AppData\Local\Temp\ccItuQxT.s 			page 16


 299              		.section	.text.USBUART_1_GetConfigTablePtr,"ax",%progbits
 300              		.align	2
 301              		.global	USBUART_1_GetConfigTablePtr
 302              		.thumb
 303              		.thumb_func
 304              		.type	USBUART_1_GetConfigTablePtr, %function
 305              	USBUART_1_GetConfigTablePtr:
 306              	.LFB6:
 551:Generated_Source\PSoC5/USBUART_1_std.c **** 
 552:Generated_Source\PSoC5/USBUART_1_std.c **** 
 553:Generated_Source\PSoC5/USBUART_1_std.c **** /*******************************************************************************
 554:Generated_Source\PSoC5/USBUART_1_std.c **** * Function Name: USBUART_1_Config
 555:Generated_Source\PSoC5/USBUART_1_std.c **** ****************************************************************************//**
 556:Generated_Source\PSoC5/USBUART_1_std.c **** *
 557:Generated_Source\PSoC5/USBUART_1_std.c **** *  This routine configures endpoints for the entire configuration by scanning
 558:Generated_Source\PSoC5/USBUART_1_std.c **** *  the configuration descriptor.
 559:Generated_Source\PSoC5/USBUART_1_std.c **** *
 560:Generated_Source\PSoC5/USBUART_1_std.c **** *  \param clearAltSetting: It configures the bAlternateSetting 0 for each interface.
 561:Generated_Source\PSoC5/USBUART_1_std.c **** *
 562:Generated_Source\PSoC5/USBUART_1_std.c **** * USBUART_1_interfaceClass - Initialized class array for each interface.
 563:Generated_Source\PSoC5/USBUART_1_std.c **** *   It is used for handling Class specific requests depend on interface class.
 564:Generated_Source\PSoC5/USBUART_1_std.c **** *   Different classes in multiple Alternate settings does not supported.
 565:Generated_Source\PSoC5/USBUART_1_std.c **** *
 566:Generated_Source\PSoC5/USBUART_1_std.c **** * \reentrant
 567:Generated_Source\PSoC5/USBUART_1_std.c **** *  No.
 568:Generated_Source\PSoC5/USBUART_1_std.c **** *
 569:Generated_Source\PSoC5/USBUART_1_std.c **** *******************************************************************************/
 570:Generated_Source\PSoC5/USBUART_1_std.c **** void USBUART_1_Config(uint8 clearAltSetting) 
 571:Generated_Source\PSoC5/USBUART_1_std.c **** {
 572:Generated_Source\PSoC5/USBUART_1_std.c ****     uint8 ep;
 573:Generated_Source\PSoC5/USBUART_1_std.c ****     uint8 curEp;
 574:Generated_Source\PSoC5/USBUART_1_std.c ****     uint8 i;
 575:Generated_Source\PSoC5/USBUART_1_std.c ****     uint8 epType;
 576:Generated_Source\PSoC5/USBUART_1_std.c ****     const uint8 *pDescr;
 577:Generated_Source\PSoC5/USBUART_1_std.c ****     
 578:Generated_Source\PSoC5/USBUART_1_std.c ****     #if (!USBUART_1_EP_MANAGEMENT_DMA_AUTO)
 579:Generated_Source\PSoC5/USBUART_1_std.c ****         uint16 buffCount = 0u;
 580:Generated_Source\PSoC5/USBUART_1_std.c ****     #endif /* (!USBUART_1_EP_MANAGEMENT_DMA_AUTO) */
 581:Generated_Source\PSoC5/USBUART_1_std.c **** 
 582:Generated_Source\PSoC5/USBUART_1_std.c ****     const T_USBUART_1_LUT CYCODE *pTmp;
 583:Generated_Source\PSoC5/USBUART_1_std.c ****     const T_USBUART_1_EP_SETTINGS_BLOCK CYCODE *pEP;
 584:Generated_Source\PSoC5/USBUART_1_std.c **** 
 585:Generated_Source\PSoC5/USBUART_1_std.c ****     /* Clear endpoints settings */
 586:Generated_Source\PSoC5/USBUART_1_std.c ****     for (ep = 0u; ep < USBUART_1_MAX_EP; ++ep)
 587:Generated_Source\PSoC5/USBUART_1_std.c ****     {
 588:Generated_Source\PSoC5/USBUART_1_std.c ****         USBUART_1_EP[ep].attrib     = 0u;
 589:Generated_Source\PSoC5/USBUART_1_std.c ****         USBUART_1_EP[ep].hwEpState  = 0u;
 590:Generated_Source\PSoC5/USBUART_1_std.c ****         USBUART_1_EP[ep].epToggle   = 0u;
 591:Generated_Source\PSoC5/USBUART_1_std.c ****         USBUART_1_EP[ep].bufferSize = 0u;
 592:Generated_Source\PSoC5/USBUART_1_std.c ****         USBUART_1_EP[ep].interface  = 0u;
 593:Generated_Source\PSoC5/USBUART_1_std.c ****         USBUART_1_EP[ep].apiEpState = USBUART_1_NO_EVENT_PENDING;
 594:Generated_Source\PSoC5/USBUART_1_std.c ****         USBUART_1_EP[ep].epMode     = USBUART_1_MODE_DISABLE;   
 595:Generated_Source\PSoC5/USBUART_1_std.c ****     }
 596:Generated_Source\PSoC5/USBUART_1_std.c **** 
 597:Generated_Source\PSoC5/USBUART_1_std.c ****     /* Clear Alternate settings for all interfaces. */
 598:Generated_Source\PSoC5/USBUART_1_std.c ****     if (0u != clearAltSetting)
 599:Generated_Source\PSoC5/USBUART_1_std.c ****     {
ARM GAS  C:\Users\DGILLI~1\AppData\Local\Temp\ccItuQxT.s 			page 17


 600:Generated_Source\PSoC5/USBUART_1_std.c ****         for (i = 0u; i < USBUART_1_MAX_INTERFACES_NUMBER; ++i)
 601:Generated_Source\PSoC5/USBUART_1_std.c ****         {
 602:Generated_Source\PSoC5/USBUART_1_std.c ****             USBUART_1_interfaceSetting[i]     = 0u;
 603:Generated_Source\PSoC5/USBUART_1_std.c ****             USBUART_1_interfaceSettingLast[i] = 0u;
 604:Generated_Source\PSoC5/USBUART_1_std.c ****         }
 605:Generated_Source\PSoC5/USBUART_1_std.c ****     }
 606:Generated_Source\PSoC5/USBUART_1_std.c **** 
 607:Generated_Source\PSoC5/USBUART_1_std.c ****     /* Init Endpoints and Device Status if configured */
 608:Generated_Source\PSoC5/USBUART_1_std.c ****     if (USBUART_1_configuration > 0u)
 609:Generated_Source\PSoC5/USBUART_1_std.c ****     {
 610:Generated_Source\PSoC5/USBUART_1_std.c ****         #if defined(USBUART_1_ENABLE_CDC_CLASS)
 611:Generated_Source\PSoC5/USBUART_1_std.c ****             uint8 cdcComNums = 0u;
 612:Generated_Source\PSoC5/USBUART_1_std.c ****         #endif  /* (USBUART_1_ENABLE_CDC_CLASS) */  
 613:Generated_Source\PSoC5/USBUART_1_std.c **** 
 614:Generated_Source\PSoC5/USBUART_1_std.c ****         pTmp = USBUART_1_GetConfigTablePtr(USBUART_1_configuration - 1u);
 615:Generated_Source\PSoC5/USBUART_1_std.c ****         
 616:Generated_Source\PSoC5/USBUART_1_std.c ****         /* Set Power status for current configuration */
 617:Generated_Source\PSoC5/USBUART_1_std.c ****         pDescr = (const uint8 *)pTmp->p_list;
 618:Generated_Source\PSoC5/USBUART_1_std.c ****         if ((pDescr[USBUART_1_CONFIG_DESCR_ATTRIB] & USBUART_1_CONFIG_DESCR_ATTRIB_SELF_POWERED) !=
 619:Generated_Source\PSoC5/USBUART_1_std.c ****         {
 620:Generated_Source\PSoC5/USBUART_1_std.c ****             USBUART_1_deviceStatus |= (uint8)  USBUART_1_DEVICE_STATUS_SELF_POWERED;
 621:Generated_Source\PSoC5/USBUART_1_std.c ****         }
 622:Generated_Source\PSoC5/USBUART_1_std.c ****         else
 623:Generated_Source\PSoC5/USBUART_1_std.c ****         {
 624:Generated_Source\PSoC5/USBUART_1_std.c ****             USBUART_1_deviceStatus &= (uint8) ~USBUART_1_DEVICE_STATUS_SELF_POWERED;
 625:Generated_Source\PSoC5/USBUART_1_std.c ****         }
 626:Generated_Source\PSoC5/USBUART_1_std.c ****         
 627:Generated_Source\PSoC5/USBUART_1_std.c ****         /* Move to next element */
 628:Generated_Source\PSoC5/USBUART_1_std.c ****         pTmp = &pTmp[1u];
 629:Generated_Source\PSoC5/USBUART_1_std.c ****         ep = pTmp->c;  /* For this table, c is the number of endpoints configurations  */
 630:Generated_Source\PSoC5/USBUART_1_std.c **** 
 631:Generated_Source\PSoC5/USBUART_1_std.c ****         #if (USBUART_1_EP_MANAGEMENT_MANUAL && USBUART_1_EP_ALLOC_DYNAMIC)
 632:Generated_Source\PSoC5/USBUART_1_std.c ****             /* Configure for dynamic EP memory allocation */
 633:Generated_Source\PSoC5/USBUART_1_std.c ****             /* p_list points the endpoint setting table. */
 634:Generated_Source\PSoC5/USBUART_1_std.c ****             pEP = (T_USBUART_1_EP_SETTINGS_BLOCK *) pTmp->p_list;
 635:Generated_Source\PSoC5/USBUART_1_std.c ****             
 636:Generated_Source\PSoC5/USBUART_1_std.c ****             for (i = 0u; i < ep; i++)
 637:Generated_Source\PSoC5/USBUART_1_std.c ****             {     
 638:Generated_Source\PSoC5/USBUART_1_std.c ****                 /* Compare current Alternate setting with EP Alt */
 639:Generated_Source\PSoC5/USBUART_1_std.c ****                 if (USBUART_1_interfaceSetting[pEP->interface] == pEP->altSetting)
 640:Generated_Source\PSoC5/USBUART_1_std.c ****                 {                                                          
 641:Generated_Source\PSoC5/USBUART_1_std.c ****                     curEp  = pEP->addr & USBUART_1_DIR_UNUSED;
 642:Generated_Source\PSoC5/USBUART_1_std.c ****                     epType = pEP->attributes & USBUART_1_EP_TYPE_MASK;
 643:Generated_Source\PSoC5/USBUART_1_std.c ****                     
 644:Generated_Source\PSoC5/USBUART_1_std.c ****                     USBUART_1_EP[curEp].addr       = pEP->addr;
 645:Generated_Source\PSoC5/USBUART_1_std.c ****                     USBUART_1_EP[curEp].attrib     = pEP->attributes;
 646:Generated_Source\PSoC5/USBUART_1_std.c ****                     USBUART_1_EP[curEp].bufferSize = pEP->bufferSize;
 647:Generated_Source\PSoC5/USBUART_1_std.c **** 
 648:Generated_Source\PSoC5/USBUART_1_std.c ****                     if (0u != (pEP->addr & USBUART_1_DIR_IN))
 649:Generated_Source\PSoC5/USBUART_1_std.c ****                     {
 650:Generated_Source\PSoC5/USBUART_1_std.c ****                         /* IN Endpoint */
 651:Generated_Source\PSoC5/USBUART_1_std.c ****                         USBUART_1_EP[curEp].epMode     = USBUART_1_GET_ACTIVE_IN_EP_CR0_MODE(epType
 652:Generated_Source\PSoC5/USBUART_1_std.c ****                         USBUART_1_EP[curEp].apiEpState = USBUART_1_EVENT_PENDING;
 653:Generated_Source\PSoC5/USBUART_1_std.c ****                     
 654:Generated_Source\PSoC5/USBUART_1_std.c ****                     #if (defined(USBUART_1_ENABLE_MIDI_STREAMING) && (USBUART_1_MIDI_IN_BUFF_SIZE >
 655:Generated_Source\PSoC5/USBUART_1_std.c ****                         if ((pEP->bMisc == USBUART_1_CLASS_AUDIO) && (epType == USBUART_1_EP_TYPE_B
 656:Generated_Source\PSoC5/USBUART_1_std.c ****                         {
ARM GAS  C:\Users\DGILLI~1\AppData\Local\Temp\ccItuQxT.s 			page 18


 657:Generated_Source\PSoC5/USBUART_1_std.c ****                             USBUART_1_midi_in_ep = curEp;
 658:Generated_Source\PSoC5/USBUART_1_std.c ****                         }
 659:Generated_Source\PSoC5/USBUART_1_std.c ****                     #endif  /* (USBUART_1_ENABLE_MIDI_STREAMING) */
 660:Generated_Source\PSoC5/USBUART_1_std.c ****                     }
 661:Generated_Source\PSoC5/USBUART_1_std.c ****                     else
 662:Generated_Source\PSoC5/USBUART_1_std.c ****                     {
 663:Generated_Source\PSoC5/USBUART_1_std.c ****                         /* OUT Endpoint */
 664:Generated_Source\PSoC5/USBUART_1_std.c ****                         USBUART_1_EP[curEp].epMode     = USBUART_1_GET_ACTIVE_OUT_EP_CR0_MODE(epTyp
 665:Generated_Source\PSoC5/USBUART_1_std.c ****                         USBUART_1_EP[curEp].apiEpState = USBUART_1_NO_EVENT_PENDING;
 666:Generated_Source\PSoC5/USBUART_1_std.c ****                         
 667:Generated_Source\PSoC5/USBUART_1_std.c ****                     #if (defined(USBUART_1_ENABLE_MIDI_STREAMING) && (USBUART_1_MIDI_OUT_BUFF_SIZE 
 668:Generated_Source\PSoC5/USBUART_1_std.c ****                         if ((pEP->bMisc == USBUART_1_CLASS_AUDIO) && (epType == USBUART_1_EP_TYPE_B
 669:Generated_Source\PSoC5/USBUART_1_std.c ****                         {
 670:Generated_Source\PSoC5/USBUART_1_std.c ****                             USBUART_1_midi_out_ep = curEp;
 671:Generated_Source\PSoC5/USBUART_1_std.c ****                         }
 672:Generated_Source\PSoC5/USBUART_1_std.c ****                     #endif  /* (USBUART_1_ENABLE_MIDI_STREAMING) */
 673:Generated_Source\PSoC5/USBUART_1_std.c ****                     }
 674:Generated_Source\PSoC5/USBUART_1_std.c **** 
 675:Generated_Source\PSoC5/USBUART_1_std.c ****                 #if(defined (USBUART_1_ENABLE_CDC_CLASS))
 676:Generated_Source\PSoC5/USBUART_1_std.c ****                     if((pEP->bMisc == USBUART_1_CLASS_CDC_DATA) ||(pEP->bMisc == USBUART_1_CLASS_CD
 677:Generated_Source\PSoC5/USBUART_1_std.c ****                     {
 678:Generated_Source\PSoC5/USBUART_1_std.c ****                         cdcComNums = USBUART_1_Cdc_EpInit(pEP, curEp, cdcComNums);
 679:Generated_Source\PSoC5/USBUART_1_std.c ****                     }
 680:Generated_Source\PSoC5/USBUART_1_std.c ****                 #endif  /* (USBUART_1_ENABLE_CDC_CLASS) */
 681:Generated_Source\PSoC5/USBUART_1_std.c ****                 }
 682:Generated_Source\PSoC5/USBUART_1_std.c ****                 
 683:Generated_Source\PSoC5/USBUART_1_std.c ****                 pEP = &pEP[1u];
 684:Generated_Source\PSoC5/USBUART_1_std.c ****             }
 685:Generated_Source\PSoC5/USBUART_1_std.c ****             
 686:Generated_Source\PSoC5/USBUART_1_std.c ****         #else
 687:Generated_Source\PSoC5/USBUART_1_std.c ****             for (i = USBUART_1_EP1; i < USBUART_1_MAX_EP; ++i)
 688:Generated_Source\PSoC5/USBUART_1_std.c ****             {
 689:Generated_Source\PSoC5/USBUART_1_std.c ****                 /* p_list points the endpoint setting table. */
 690:Generated_Source\PSoC5/USBUART_1_std.c ****                 pEP = (const T_USBUART_1_EP_SETTINGS_BLOCK CYCODE *) pTmp->p_list;
 691:Generated_Source\PSoC5/USBUART_1_std.c ****                 /* Find max length for each EP and select it (length could be different in differen
 692:Generated_Source\PSoC5/USBUART_1_std.c ****                 /* but other settings should be correct with regards to Interface alt Setting */
 693:Generated_Source\PSoC5/USBUART_1_std.c ****                 
 694:Generated_Source\PSoC5/USBUART_1_std.c ****                 for (curEp = 0u; curEp < ep; ++curEp)
 695:Generated_Source\PSoC5/USBUART_1_std.c ****                 {
 696:Generated_Source\PSoC5/USBUART_1_std.c ****                     if (i == (pEP->addr & USBUART_1_DIR_UNUSED))
 697:Generated_Source\PSoC5/USBUART_1_std.c ****                     {
 698:Generated_Source\PSoC5/USBUART_1_std.c ****                         /* Compare endpoint buffers size with current size to find greater. */
 699:Generated_Source\PSoC5/USBUART_1_std.c ****                         if (USBUART_1_EP[i].bufferSize < pEP->bufferSize)
 700:Generated_Source\PSoC5/USBUART_1_std.c ****                         {
 701:Generated_Source\PSoC5/USBUART_1_std.c ****                             USBUART_1_EP[i].bufferSize = pEP->bufferSize;
 702:Generated_Source\PSoC5/USBUART_1_std.c ****                         }
 703:Generated_Source\PSoC5/USBUART_1_std.c ****                         
 704:Generated_Source\PSoC5/USBUART_1_std.c ****                         /* Compare current Alternate setting with EP Alt */
 705:Generated_Source\PSoC5/USBUART_1_std.c ****                         if (USBUART_1_interfaceSetting[pEP->interface] == pEP->altSetting)
 706:Generated_Source\PSoC5/USBUART_1_std.c ****                         {                            
 707:Generated_Source\PSoC5/USBUART_1_std.c ****                             USBUART_1_EP[i].addr = pEP->addr;
 708:Generated_Source\PSoC5/USBUART_1_std.c ****                             USBUART_1_EP[i].attrib = pEP->attributes;
 709:Generated_Source\PSoC5/USBUART_1_std.c ****                             
 710:Generated_Source\PSoC5/USBUART_1_std.c ****                             epType = pEP->attributes & USBUART_1_EP_TYPE_MASK;
 711:Generated_Source\PSoC5/USBUART_1_std.c ****                             
 712:Generated_Source\PSoC5/USBUART_1_std.c ****                             if (0u != (pEP->addr & USBUART_1_DIR_IN))
 713:Generated_Source\PSoC5/USBUART_1_std.c ****                             {
ARM GAS  C:\Users\DGILLI~1\AppData\Local\Temp\ccItuQxT.s 			page 19


 714:Generated_Source\PSoC5/USBUART_1_std.c ****                                 /* IN Endpoint */
 715:Generated_Source\PSoC5/USBUART_1_std.c ****                                 USBUART_1_EP[i].epMode     = USBUART_1_GET_ACTIVE_IN_EP_CR0_MODE(ep
 716:Generated_Source\PSoC5/USBUART_1_std.c ****                                 USBUART_1_EP[i].apiEpState = USBUART_1_EVENT_PENDING;
 717:Generated_Source\PSoC5/USBUART_1_std.c ****                                 
 718:Generated_Source\PSoC5/USBUART_1_std.c ****                             #if (defined(USBUART_1_ENABLE_MIDI_STREAMING) && (USBUART_1_MIDI_IN_BUF
 719:Generated_Source\PSoC5/USBUART_1_std.c ****                                 if ((pEP->bMisc == USBUART_1_CLASS_AUDIO) && (epType == USBUART_1_E
 720:Generated_Source\PSoC5/USBUART_1_std.c ****                                 {
 721:Generated_Source\PSoC5/USBUART_1_std.c ****                                     USBUART_1_midi_in_ep = i;
 722:Generated_Source\PSoC5/USBUART_1_std.c ****                                 }
 723:Generated_Source\PSoC5/USBUART_1_std.c ****                             #endif  /* (USBUART_1_ENABLE_MIDI_STREAMING) */
 724:Generated_Source\PSoC5/USBUART_1_std.c ****                             }
 725:Generated_Source\PSoC5/USBUART_1_std.c ****                             else
 726:Generated_Source\PSoC5/USBUART_1_std.c ****                             {
 727:Generated_Source\PSoC5/USBUART_1_std.c ****                                 /* OUT Endpoint */
 728:Generated_Source\PSoC5/USBUART_1_std.c ****                                 USBUART_1_EP[i].epMode     = USBUART_1_GET_ACTIVE_OUT_EP_CR0_MODE(e
 729:Generated_Source\PSoC5/USBUART_1_std.c ****                                 USBUART_1_EP[i].apiEpState = USBUART_1_NO_EVENT_PENDING;
 730:Generated_Source\PSoC5/USBUART_1_std.c ****                                 
 731:Generated_Source\PSoC5/USBUART_1_std.c ****                             #if (defined(USBUART_1_ENABLE_MIDI_STREAMING) && (USBUART_1_MIDI_OUT_BU
 732:Generated_Source\PSoC5/USBUART_1_std.c ****                                 if ((pEP->bMisc == USBUART_1_CLASS_AUDIO) && (epType == USBUART_1_E
 733:Generated_Source\PSoC5/USBUART_1_std.c ****                                 {
 734:Generated_Source\PSoC5/USBUART_1_std.c ****                                     USBUART_1_midi_out_ep = i;
 735:Generated_Source\PSoC5/USBUART_1_std.c ****                                 }
 736:Generated_Source\PSoC5/USBUART_1_std.c ****                             #endif  /* (USBUART_1_ENABLE_MIDI_STREAMING) */
 737:Generated_Source\PSoC5/USBUART_1_std.c ****                             }
 738:Generated_Source\PSoC5/USBUART_1_std.c **** 
 739:Generated_Source\PSoC5/USBUART_1_std.c ****                         #if (defined(USBUART_1_ENABLE_CDC_CLASS))
 740:Generated_Source\PSoC5/USBUART_1_std.c ****                             if((pEP->bMisc == USBUART_1_CLASS_CDC_DATA) ||(pEP->bMisc == USBUART_1_
 741:Generated_Source\PSoC5/USBUART_1_std.c ****                             {
 742:Generated_Source\PSoC5/USBUART_1_std.c ****                                 cdcComNums = USBUART_1_Cdc_EpInit(pEP, i, cdcComNums);
 743:Generated_Source\PSoC5/USBUART_1_std.c ****                             }
 744:Generated_Source\PSoC5/USBUART_1_std.c ****                         #endif  /* (USBUART_1_ENABLE_CDC_CLASS) */
 745:Generated_Source\PSoC5/USBUART_1_std.c **** 
 746:Generated_Source\PSoC5/USBUART_1_std.c ****                             #if (USBUART_1_EP_MANAGEMENT_DMA_AUTO)
 747:Generated_Source\PSoC5/USBUART_1_std.c ****                                 break;  /* Use first EP setting in Auto memory management */
 748:Generated_Source\PSoC5/USBUART_1_std.c ****                             #endif /* (USBUART_1_EP_MANAGEMENT_DMA_AUTO) */
 749:Generated_Source\PSoC5/USBUART_1_std.c ****                         }
 750:Generated_Source\PSoC5/USBUART_1_std.c ****                     }
 751:Generated_Source\PSoC5/USBUART_1_std.c ****                     
 752:Generated_Source\PSoC5/USBUART_1_std.c ****                     pEP = &pEP[1u];
 753:Generated_Source\PSoC5/USBUART_1_std.c ****                 }
 754:Generated_Source\PSoC5/USBUART_1_std.c ****             }
 755:Generated_Source\PSoC5/USBUART_1_std.c ****         #endif /*  (USBUART_1_EP_MANAGEMENT_MANUAL && USBUART_1_EP_ALLOC_DYNAMIC) */
 756:Generated_Source\PSoC5/USBUART_1_std.c **** 
 757:Generated_Source\PSoC5/USBUART_1_std.c ****         /* Init class array for each interface and interface number for each EP.
 758:Generated_Source\PSoC5/USBUART_1_std.c ****         *  It is used for handling Class specific requests directed to either an
 759:Generated_Source\PSoC5/USBUART_1_std.c ****         *  interface or the endpoint.
 760:Generated_Source\PSoC5/USBUART_1_std.c ****         */
 761:Generated_Source\PSoC5/USBUART_1_std.c ****         /* p_list points the endpoint setting table. */
 762:Generated_Source\PSoC5/USBUART_1_std.c ****         pEP = (const T_USBUART_1_EP_SETTINGS_BLOCK CYCODE *) pTmp->p_list;
 763:Generated_Source\PSoC5/USBUART_1_std.c ****         for (i = 0u; i < ep; i++)
 764:Generated_Source\PSoC5/USBUART_1_std.c ****         {
 765:Generated_Source\PSoC5/USBUART_1_std.c ****             /* Configure interface number for each EP */
 766:Generated_Source\PSoC5/USBUART_1_std.c ****             USBUART_1_EP[pEP->addr & USBUART_1_DIR_UNUSED].interface = pEP->interface;
 767:Generated_Source\PSoC5/USBUART_1_std.c ****             pEP = &pEP[1u];
 768:Generated_Source\PSoC5/USBUART_1_std.c ****         }
 769:Generated_Source\PSoC5/USBUART_1_std.c ****         
 770:Generated_Source\PSoC5/USBUART_1_std.c ****         /* Init pointer on interface class table */
ARM GAS  C:\Users\DGILLI~1\AppData\Local\Temp\ccItuQxT.s 			page 20


 771:Generated_Source\PSoC5/USBUART_1_std.c ****         USBUART_1_interfaceClass = USBUART_1_GetInterfaceClassTablePtr();
 772:Generated_Source\PSoC5/USBUART_1_std.c ****         
 773:Generated_Source\PSoC5/USBUART_1_std.c ****     /* Set the endpoint buffer addresses */
 774:Generated_Source\PSoC5/USBUART_1_std.c ****     #if (!USBUART_1_EP_MANAGEMENT_DMA_AUTO)
 775:Generated_Source\PSoC5/USBUART_1_std.c ****         buffCount = 0u;
 776:Generated_Source\PSoC5/USBUART_1_std.c ****         for (ep = USBUART_1_EP1; ep < USBUART_1_MAX_EP; ++ep)
 777:Generated_Source\PSoC5/USBUART_1_std.c ****         {
 778:Generated_Source\PSoC5/USBUART_1_std.c ****             USBUART_1_EP[ep].buffOffset = buffCount;        
 779:Generated_Source\PSoC5/USBUART_1_std.c ****             buffCount += USBUART_1_EP[ep].bufferSize;
 780:Generated_Source\PSoC5/USBUART_1_std.c ****             
 781:Generated_Source\PSoC5/USBUART_1_std.c ****         #if (USBUART_1_GEN_16BITS_EP_ACCESS)
 782:Generated_Source\PSoC5/USBUART_1_std.c ****             /* Align EP buffers to be event size to access 16-bits DR register. */
 783:Generated_Source\PSoC5/USBUART_1_std.c ****             buffCount += (0u != (buffCount & 0x01u)) ? 1u : 0u;
 784:Generated_Source\PSoC5/USBUART_1_std.c ****         #endif /* (USBUART_1_GEN_16BITS_EP_ACCESS) */            
 785:Generated_Source\PSoC5/USBUART_1_std.c ****         }
 786:Generated_Source\PSoC5/USBUART_1_std.c ****     #endif /* (!USBUART_1_EP_MANAGEMENT_DMA_AUTO) */
 787:Generated_Source\PSoC5/USBUART_1_std.c **** 
 788:Generated_Source\PSoC5/USBUART_1_std.c ****         /* Configure hardware registers */
 789:Generated_Source\PSoC5/USBUART_1_std.c ****         USBUART_1_ConfigReg();
 790:Generated_Source\PSoC5/USBUART_1_std.c ****     }
 791:Generated_Source\PSoC5/USBUART_1_std.c **** }
 792:Generated_Source\PSoC5/USBUART_1_std.c **** 
 793:Generated_Source\PSoC5/USBUART_1_std.c **** 
 794:Generated_Source\PSoC5/USBUART_1_std.c **** /*******************************************************************************
 795:Generated_Source\PSoC5/USBUART_1_std.c **** * Function Name: USBUART_1_ConfigAltChanged
 796:Generated_Source\PSoC5/USBUART_1_std.c **** ****************************************************************************//**
 797:Generated_Source\PSoC5/USBUART_1_std.c **** *
 798:Generated_Source\PSoC5/USBUART_1_std.c **** *  This routine update configuration for the required endpoints only.
 799:Generated_Source\PSoC5/USBUART_1_std.c **** *  It is called after SET_INTERFACE request when Static memory allocation used.
 800:Generated_Source\PSoC5/USBUART_1_std.c **** *
 801:Generated_Source\PSoC5/USBUART_1_std.c **** * \reentrant
 802:Generated_Source\PSoC5/USBUART_1_std.c **** *  No.
 803:Generated_Source\PSoC5/USBUART_1_std.c **** *
 804:Generated_Source\PSoC5/USBUART_1_std.c **** *******************************************************************************/
 805:Generated_Source\PSoC5/USBUART_1_std.c **** void USBUART_1_ConfigAltChanged(void) 
 806:Generated_Source\PSoC5/USBUART_1_std.c **** {
 807:Generated_Source\PSoC5/USBUART_1_std.c ****     uint8 ep;
 808:Generated_Source\PSoC5/USBUART_1_std.c ****     uint8 curEp;
 809:Generated_Source\PSoC5/USBUART_1_std.c ****     uint8 epType;
 810:Generated_Source\PSoC5/USBUART_1_std.c ****     uint8 i;
 811:Generated_Source\PSoC5/USBUART_1_std.c ****     uint8 interfaceNum;
 812:Generated_Source\PSoC5/USBUART_1_std.c **** 
 813:Generated_Source\PSoC5/USBUART_1_std.c ****     const T_USBUART_1_LUT CYCODE *pTmp;
 814:Generated_Source\PSoC5/USBUART_1_std.c ****     const T_USBUART_1_EP_SETTINGS_BLOCK CYCODE *pEP;
 815:Generated_Source\PSoC5/USBUART_1_std.c **** 
 816:Generated_Source\PSoC5/USBUART_1_std.c ****     /* Init Endpoints and Device Status if configured */
 817:Generated_Source\PSoC5/USBUART_1_std.c ****     if (USBUART_1_configuration > 0u)
 818:Generated_Source\PSoC5/USBUART_1_std.c ****     {
 819:Generated_Source\PSoC5/USBUART_1_std.c ****         /* Get number of endpoints configurations (ep). */
 820:Generated_Source\PSoC5/USBUART_1_std.c ****         pTmp = USBUART_1_GetConfigTablePtr(USBUART_1_configuration - 1u);
 821:Generated_Source\PSoC5/USBUART_1_std.c ****         pTmp = &pTmp[1u];
 822:Generated_Source\PSoC5/USBUART_1_std.c ****         ep = pTmp->c;
 823:Generated_Source\PSoC5/USBUART_1_std.c **** 
 824:Generated_Source\PSoC5/USBUART_1_std.c ****         /* Get pointer to endpoints setting table (pEP). */
 825:Generated_Source\PSoC5/USBUART_1_std.c ****         pEP = (const T_USBUART_1_EP_SETTINGS_BLOCK CYCODE *) pTmp->p_list;
 826:Generated_Source\PSoC5/USBUART_1_std.c ****         
 827:Generated_Source\PSoC5/USBUART_1_std.c ****         /* Look through all possible endpoint configurations. Find endpoints 
ARM GAS  C:\Users\DGILLI~1\AppData\Local\Temp\ccItuQxT.s 			page 21


 828:Generated_Source\PSoC5/USBUART_1_std.c ****         * which belong to current interface and alternate settings for 
 829:Generated_Source\PSoC5/USBUART_1_std.c ****         * re-configuration.
 830:Generated_Source\PSoC5/USBUART_1_std.c ****         */
 831:Generated_Source\PSoC5/USBUART_1_std.c ****         interfaceNum = USBUART_1_interfaceNumber;
 832:Generated_Source\PSoC5/USBUART_1_std.c ****         for (i = 0u; i < ep; i++)
 833:Generated_Source\PSoC5/USBUART_1_std.c ****         {
 834:Generated_Source\PSoC5/USBUART_1_std.c ****             /* Find endpoints which belong to current interface and alternate settings. */
 835:Generated_Source\PSoC5/USBUART_1_std.c ****             if ((interfaceNum == pEP->interface) && 
 836:Generated_Source\PSoC5/USBUART_1_std.c ****                 (USBUART_1_interfaceSetting[interfaceNum] == pEP->altSetting))
 837:Generated_Source\PSoC5/USBUART_1_std.c ****             {
 838:Generated_Source\PSoC5/USBUART_1_std.c ****                 curEp  = ((uint8) pEP->addr & USBUART_1_DIR_UNUSED);
 839:Generated_Source\PSoC5/USBUART_1_std.c ****                 epType = ((uint8) pEP->attributes & USBUART_1_EP_TYPE_MASK);
 840:Generated_Source\PSoC5/USBUART_1_std.c ****                 
 841:Generated_Source\PSoC5/USBUART_1_std.c ****                 /* Change the SIE mode for the selected EP to NAK ALL */
 842:Generated_Source\PSoC5/USBUART_1_std.c ****                 USBUART_1_EP[curEp].epToggle   = 0u;
 843:Generated_Source\PSoC5/USBUART_1_std.c ****                 USBUART_1_EP[curEp].addr       = pEP->addr;
 844:Generated_Source\PSoC5/USBUART_1_std.c ****                 USBUART_1_EP[curEp].attrib     = pEP->attributes;
 845:Generated_Source\PSoC5/USBUART_1_std.c ****                 USBUART_1_EP[curEp].bufferSize = pEP->bufferSize;
 846:Generated_Source\PSoC5/USBUART_1_std.c **** 
 847:Generated_Source\PSoC5/USBUART_1_std.c ****                 if (0u != (pEP->addr & USBUART_1_DIR_IN))
 848:Generated_Source\PSoC5/USBUART_1_std.c ****                 {
 849:Generated_Source\PSoC5/USBUART_1_std.c ****                     /* IN Endpoint */
 850:Generated_Source\PSoC5/USBUART_1_std.c ****                     USBUART_1_EP[curEp].epMode     = USBUART_1_GET_ACTIVE_IN_EP_CR0_MODE(epType);
 851:Generated_Source\PSoC5/USBUART_1_std.c ****                     USBUART_1_EP[curEp].apiEpState = USBUART_1_EVENT_PENDING;
 852:Generated_Source\PSoC5/USBUART_1_std.c ****                 }
 853:Generated_Source\PSoC5/USBUART_1_std.c ****                 else
 854:Generated_Source\PSoC5/USBUART_1_std.c ****                 {
 855:Generated_Source\PSoC5/USBUART_1_std.c ****                     /* OUT Endpoint */
 856:Generated_Source\PSoC5/USBUART_1_std.c ****                     USBUART_1_EP[curEp].epMode     = USBUART_1_GET_ACTIVE_OUT_EP_CR0_MODE(epType);
 857:Generated_Source\PSoC5/USBUART_1_std.c ****                     USBUART_1_EP[curEp].apiEpState = USBUART_1_NO_EVENT_PENDING;
 858:Generated_Source\PSoC5/USBUART_1_std.c ****                 }
 859:Generated_Source\PSoC5/USBUART_1_std.c ****                 
 860:Generated_Source\PSoC5/USBUART_1_std.c ****                 /* Make SIE to NAK any endpoint requests */
 861:Generated_Source\PSoC5/USBUART_1_std.c ****                 USBUART_1_SIE_EP_BASE.sieEp[curEp].epCr0 = USBUART_1_MODE_NAK_IN_OUT;
 862:Generated_Source\PSoC5/USBUART_1_std.c **** 
 863:Generated_Source\PSoC5/USBUART_1_std.c ****             #if (USBUART_1_EP_MANAGEMENT_DMA_AUTO)
 864:Generated_Source\PSoC5/USBUART_1_std.c ****                 /* Clear IN data ready. */
 865:Generated_Source\PSoC5/USBUART_1_std.c ****                 USBUART_1_ARB_EP_BASE.arbEp[curEp].epCfg &= (uint8) ~USBUART_1_ARB_EPX_CFG_IN_DATA_
 866:Generated_Source\PSoC5/USBUART_1_std.c **** 
 867:Generated_Source\PSoC5/USBUART_1_std.c ****                 /* Select endpoint number of reconfiguration */
 868:Generated_Source\PSoC5/USBUART_1_std.c ****                 USBUART_1_DYN_RECONFIG_REG = (uint8) ((curEp - 1u) << USBUART_1_DYN_RECONFIG_EP_SHI
 869:Generated_Source\PSoC5/USBUART_1_std.c ****                 
 870:Generated_Source\PSoC5/USBUART_1_std.c ****                 /* Request for dynamic re-configuration of endpoint. */
 871:Generated_Source\PSoC5/USBUART_1_std.c ****                 USBUART_1_DYN_RECONFIG_REG |= USBUART_1_DYN_RECONFIG_ENABLE;
 872:Generated_Source\PSoC5/USBUART_1_std.c ****                 
 873:Generated_Source\PSoC5/USBUART_1_std.c ****                 /* Wait until block is ready for re-configuration */
 874:Generated_Source\PSoC5/USBUART_1_std.c ****                 while (0u == (USBUART_1_DYN_RECONFIG_REG & USBUART_1_DYN_RECONFIG_RDY_STS))
 875:Generated_Source\PSoC5/USBUART_1_std.c ****                 {
 876:Generated_Source\PSoC5/USBUART_1_std.c ****                 }
 877:Generated_Source\PSoC5/USBUART_1_std.c ****                 
 878:Generated_Source\PSoC5/USBUART_1_std.c ****                 /* Once DYN_RECONFIG_RDY_STS bit is set, FW can change the EP configuration. */
 879:Generated_Source\PSoC5/USBUART_1_std.c ****                 /* Change EP Type with new direction */
 880:Generated_Source\PSoC5/USBUART_1_std.c ****                 if (0u != (pEP->addr & USBUART_1_DIR_IN))
 881:Generated_Source\PSoC5/USBUART_1_std.c ****                 {
 882:Generated_Source\PSoC5/USBUART_1_std.c ****                     /* Set endpoint type: 0 - IN and 1 - OUT. */
 883:Generated_Source\PSoC5/USBUART_1_std.c ****                     USBUART_1_EP_TYPE_REG &= (uint8) ~(uint8)((uint8) 0x01u << (curEp - 1u));
 884:Generated_Source\PSoC5/USBUART_1_std.c ****                     
ARM GAS  C:\Users\DGILLI~1\AppData\Local\Temp\ccItuQxT.s 			page 22


 885:Generated_Source\PSoC5/USBUART_1_std.c ****                 #if (CY_PSOC4)
 886:Generated_Source\PSoC5/USBUART_1_std.c ****                     /* Clear DMA_TERMIN for IN endpoint */
 887:Generated_Source\PSoC5/USBUART_1_std.c ****                     USBUART_1_ARB_EP_BASE.arbEp[curEp].epIntEn &= (uint32) ~USBUART_1_ARB_EPX_INT_D
 888:Generated_Source\PSoC5/USBUART_1_std.c ****                 #endif /* (CY_PSOC4) */
 889:Generated_Source\PSoC5/USBUART_1_std.c ****                 }
 890:Generated_Source\PSoC5/USBUART_1_std.c ****                 else
 891:Generated_Source\PSoC5/USBUART_1_std.c ****                 {
 892:Generated_Source\PSoC5/USBUART_1_std.c ****                     /* Set endpoint type: 0 - IN and 1- OUT. */
 893:Generated_Source\PSoC5/USBUART_1_std.c ****                     USBUART_1_EP_TYPE_REG |= (uint8) ((uint8) 0x01u << (curEp - 1u));
 894:Generated_Source\PSoC5/USBUART_1_std.c ****                     
 895:Generated_Source\PSoC5/USBUART_1_std.c ****                 #if (CY_PSOC4)
 896:Generated_Source\PSoC5/USBUART_1_std.c ****                     /* Set DMA_TERMIN for OUT endpoint */
 897:Generated_Source\PSoC5/USBUART_1_std.c ****                     USBUART_1_ARB_EP_BASE.arbEp[curEp].epIntEn |= (uint32) USBUART_1_ARB_EPX_INT_DM
 898:Generated_Source\PSoC5/USBUART_1_std.c ****                 #endif /* (CY_PSOC4) */
 899:Generated_Source\PSoC5/USBUART_1_std.c ****                 }
 900:Generated_Source\PSoC5/USBUART_1_std.c ****                 
 901:Generated_Source\PSoC5/USBUART_1_std.c ****                 /* Complete dynamic re-configuration: all endpoint related status and signals 
 902:Generated_Source\PSoC5/USBUART_1_std.c ****                 * are set into the default state.
 903:Generated_Source\PSoC5/USBUART_1_std.c ****                 */
 904:Generated_Source\PSoC5/USBUART_1_std.c ****                 USBUART_1_DYN_RECONFIG_REG &= (uint8) ~USBUART_1_DYN_RECONFIG_ENABLE;
 905:Generated_Source\PSoC5/USBUART_1_std.c **** 
 906:Generated_Source\PSoC5/USBUART_1_std.c ****             #else
 907:Generated_Source\PSoC5/USBUART_1_std.c ****                 USBUART_1_SIE_EP_BASE.sieEp[curEp].epCnt0 = HI8(USBUART_1_EP[curEp].bufferSize);
 908:Generated_Source\PSoC5/USBUART_1_std.c ****                 USBUART_1_SIE_EP_BASE.sieEp[curEp].epCnt1 = LO8(USBUART_1_EP[curEp].bufferSize);
 909:Generated_Source\PSoC5/USBUART_1_std.c ****                 
 910:Generated_Source\PSoC5/USBUART_1_std.c ****                 #if (CY_PSOC4)
 911:Generated_Source\PSoC5/USBUART_1_std.c ****                     USBUART_1_ARB_EP16_BASE.arbEp[curEp].rwRa16  = (uint32) USBUART_1_EP[curEp].buf
 912:Generated_Source\PSoC5/USBUART_1_std.c ****                     USBUART_1_ARB_EP16_BASE.arbEp[curEp].rwWa16  = (uint32) USBUART_1_EP[curEp].buf
 913:Generated_Source\PSoC5/USBUART_1_std.c ****                 #else
 914:Generated_Source\PSoC5/USBUART_1_std.c ****                     USBUART_1_ARB_EP_BASE.arbEp[curEp].rwRa    = LO8(USBUART_1_EP[curEp].buffOffset
 915:Generated_Source\PSoC5/USBUART_1_std.c ****                     USBUART_1_ARB_EP_BASE.arbEp[curEp].rwRaMsb = HI8(USBUART_1_EP[curEp].buffOffset
 916:Generated_Source\PSoC5/USBUART_1_std.c ****                     USBUART_1_ARB_EP_BASE.arbEp[curEp].rwWa    = LO8(USBUART_1_EP[curEp].buffOffset
 917:Generated_Source\PSoC5/USBUART_1_std.c ****                     USBUART_1_ARB_EP_BASE.arbEp[curEp].rwWaMsb = HI8(USBUART_1_EP[curEp].buffOffset
 918:Generated_Source\PSoC5/USBUART_1_std.c ****                 #endif /* (CY_PSOC4) */                
 919:Generated_Source\PSoC5/USBUART_1_std.c ****             #endif /* (USBUART_1_EP_MANAGEMENT_DMA_AUTO) */
 920:Generated_Source\PSoC5/USBUART_1_std.c ****             }
 921:Generated_Source\PSoC5/USBUART_1_std.c ****             
 922:Generated_Source\PSoC5/USBUART_1_std.c ****             pEP = &pEP[1u]; /* Get next EP element */
 923:Generated_Source\PSoC5/USBUART_1_std.c ****         }
 924:Generated_Source\PSoC5/USBUART_1_std.c ****         
 925:Generated_Source\PSoC5/USBUART_1_std.c ****         /* The main loop has to re-enable DMA and OUT endpoint */
 926:Generated_Source\PSoC5/USBUART_1_std.c ****     }
 927:Generated_Source\PSoC5/USBUART_1_std.c **** }
 928:Generated_Source\PSoC5/USBUART_1_std.c **** 
 929:Generated_Source\PSoC5/USBUART_1_std.c **** 
 930:Generated_Source\PSoC5/USBUART_1_std.c **** /*******************************************************************************
 931:Generated_Source\PSoC5/USBUART_1_std.c **** * Function Name: USBUART_1_GetConfigTablePtr
 932:Generated_Source\PSoC5/USBUART_1_std.c **** ****************************************************************************//**
 933:Generated_Source\PSoC5/USBUART_1_std.c **** *
 934:Generated_Source\PSoC5/USBUART_1_std.c **** *  This routine returns a pointer a configuration table entry
 935:Generated_Source\PSoC5/USBUART_1_std.c **** *
 936:Generated_Source\PSoC5/USBUART_1_std.c **** *  \param confIndex:  Configuration Index
 937:Generated_Source\PSoC5/USBUART_1_std.c **** *
 938:Generated_Source\PSoC5/USBUART_1_std.c **** * \return
 939:Generated_Source\PSoC5/USBUART_1_std.c **** *  Device Descriptor pointer or NULL when descriptor does not exist.
 940:Generated_Source\PSoC5/USBUART_1_std.c **** *
 941:Generated_Source\PSoC5/USBUART_1_std.c **** *******************************************************************************/
ARM GAS  C:\Users\DGILLI~1\AppData\Local\Temp\ccItuQxT.s 			page 23


 942:Generated_Source\PSoC5/USBUART_1_std.c **** const T_USBUART_1_LUT CYCODE *USBUART_1_GetConfigTablePtr(uint8 confIndex)
 943:Generated_Source\PSoC5/USBUART_1_std.c ****                                                         
 944:Generated_Source\PSoC5/USBUART_1_std.c **** {
 307              		.loc 1 944 0
 308              		.cfi_startproc
 309              		@ args = 0, pretend = 0, frame = 0
 310              		@ frame_needed = 0, uses_anonymous_args = 0
 311              		@ link register save eliminated.
 312              	.LVL20:
 945:Generated_Source\PSoC5/USBUART_1_std.c ****     /* Device Table */
 946:Generated_Source\PSoC5/USBUART_1_std.c ****     const T_USBUART_1_LUT CYCODE *pTmp;
 947:Generated_Source\PSoC5/USBUART_1_std.c **** 
 948:Generated_Source\PSoC5/USBUART_1_std.c ****     pTmp = (const T_USBUART_1_LUT CYCODE *) USBUART_1_TABLE[USBUART_1_device].p_list;
 313              		.loc 1 948 0
 314 0000 074B     		ldr	r3, .L27
 315 0002 1B78     		ldrb	r3, [r3]	@ zero_extendqisi2
 316 0004 074A     		ldr	r2, .L27+4
 317 0006 02EBC302 		add	r2, r2, r3, lsl #3
 318 000a 5368     		ldr	r3, [r2, #4]
 319              	.LVL21:
 949:Generated_Source\PSoC5/USBUART_1_std.c **** 
 950:Generated_Source\PSoC5/USBUART_1_std.c ****     /* The first entry points to the Device Descriptor,
 951:Generated_Source\PSoC5/USBUART_1_std.c ****     *  the second entry point to the BOS Descriptor
 952:Generated_Source\PSoC5/USBUART_1_std.c ****     *  the rest configuration entries.
 953:Generated_Source\PSoC5/USBUART_1_std.c ****     *  Set pointer to the first Configuration Descriptor
 954:Generated_Source\PSoC5/USBUART_1_std.c ****     */
 955:Generated_Source\PSoC5/USBUART_1_std.c ****     pTmp = &pTmp[2u];
 956:Generated_Source\PSoC5/USBUART_1_std.c ****     /* For this table, c is the number of configuration descriptors  */
 957:Generated_Source\PSoC5/USBUART_1_std.c ****     if(confIndex >= pTmp->c)   /* Verify that required configuration descriptor exists */
 320              		.loc 1 957 0
 321 000c 1A7C     		ldrb	r2, [r3, #16]	@ zero_extendqisi2
 322 000e 8242     		cmp	r2, r0
 323 0010 03D9     		bls	.L26
 324 0012 03EBC003 		add	r3, r3, r0, lsl #3
 325              	.LVL22:
 958:Generated_Source\PSoC5/USBUART_1_std.c ****     {
 959:Generated_Source\PSoC5/USBUART_1_std.c ****         pTmp = (const T_USBUART_1_LUT CYCODE *) NULL;
 960:Generated_Source\PSoC5/USBUART_1_std.c ****     }
 961:Generated_Source\PSoC5/USBUART_1_std.c ****     else
 962:Generated_Source\PSoC5/USBUART_1_std.c ****     {
 963:Generated_Source\PSoC5/USBUART_1_std.c ****         pTmp = (const T_USBUART_1_LUT CYCODE *) pTmp[confIndex].p_list;
 326              		.loc 1 963 0
 327 0016 5869     		ldr	r0, [r3, #20]
 328              	.LVL23:
 329 0018 7047     		bx	lr
 330              	.LVL24:
 331              	.L26:
 959:Generated_Source\PSoC5/USBUART_1_std.c ****     }
 332              		.loc 1 959 0
 333 001a 0020     		movs	r0, #0
 334              	.LVL25:
 964:Generated_Source\PSoC5/USBUART_1_std.c ****     }
 965:Generated_Source\PSoC5/USBUART_1_std.c **** 
 966:Generated_Source\PSoC5/USBUART_1_std.c ****     return (pTmp);
 967:Generated_Source\PSoC5/USBUART_1_std.c **** }
 335              		.loc 1 967 0
 336 001c 7047     		bx	lr
ARM GAS  C:\Users\DGILLI~1\AppData\Local\Temp\ccItuQxT.s 			page 24


 337              	.L28:
 338 001e 00BF     		.align	2
 339              	.L27:
 340 0020 00000000 		.word	USBUART_1_device
 341 0024 00000000 		.word	USBUART_1_TABLE
 342              		.cfi_endproc
 343              	.LFE6:
 344              		.size	USBUART_1_GetConfigTablePtr, .-USBUART_1_GetConfigTablePtr
 345              		.section	.text.USBUART_1_ConfigAltChanged,"ax",%progbits
 346              		.align	2
 347              		.global	USBUART_1_ConfigAltChanged
 348              		.thumb
 349              		.thumb_func
 350              		.type	USBUART_1_ConfigAltChanged, %function
 351              	USBUART_1_ConfigAltChanged:
 352              	.LFB5:
 806:Generated_Source\PSoC5/USBUART_1_std.c ****     uint8 ep;
 353              		.loc 1 806 0
 354              		.cfi_startproc
 355              		@ args = 0, pretend = 0, frame = 0
 356              		@ frame_needed = 0, uses_anonymous_args = 0
 357 0000 F8B5     		push	{r3, r4, r5, r6, r7, lr}
 358              		.cfi_def_cfa_offset 24
 359              		.cfi_offset 3, -24
 360              		.cfi_offset 4, -20
 361              		.cfi_offset 5, -16
 362              		.cfi_offset 6, -12
 363              		.cfi_offset 7, -8
 364              		.cfi_offset 14, -4
 817:Generated_Source\PSoC5/USBUART_1_std.c ****     {
 365              		.loc 1 817 0
 366 0002 404B     		ldr	r3, .L41
 367 0004 1B78     		ldrb	r3, [r3]	@ zero_extendqisi2
 368 0006 13F0FF0F 		tst	r3, #255
 369 000a 79D0     		beq	.L29
 820:Generated_Source\PSoC5/USBUART_1_std.c ****         pTmp = &pTmp[1u];
 370              		.loc 1 820 0
 371 000c 3D4B     		ldr	r3, .L41
 372 000e 1878     		ldrb	r0, [r3]	@ zero_extendqisi2
 373 0010 0138     		subs	r0, r0, #1
 374 0012 C0B2     		uxtb	r0, r0
 375 0014 FFF7FEFF 		bl	USBUART_1_GetConfigTablePtr
 376              	.LVL26:
 822:Generated_Source\PSoC5/USBUART_1_std.c **** 
 377              		.loc 1 822 0
 378 0018 047A     		ldrb	r4, [r0, #8]	@ zero_extendqisi2
 379              	.LVL27:
 825:Generated_Source\PSoC5/USBUART_1_std.c ****         
 380              		.loc 1 825 0
 381 001a C268     		ldr	r2, [r0, #12]
 382              	.LVL28:
 831:Generated_Source\PSoC5/USBUART_1_std.c ****         for (i = 0u; i < ep; i++)
 383              		.loc 1 831 0
 384 001c 3A4B     		ldr	r3, .L41+4
 385 001e 1878     		ldrb	r0, [r3]	@ zero_extendqisi2
 386              	.LVL29:
 387 0020 C0B2     		uxtb	r0, r0
ARM GAS  C:\Users\DGILLI~1\AppData\Local\Temp\ccItuQxT.s 			page 25


 388              	.LVL30:
 832:Generated_Source\PSoC5/USBUART_1_std.c ****         {
 389              		.loc 1 832 0
 390 0022 0023     		movs	r3, #0
 391 0024 6AE0     		b	.L31
 392              	.LVL31:
 393              	.L37:
 835:Generated_Source\PSoC5/USBUART_1_std.c ****                 (USBUART_1_interfaceSetting[interfaceNum] == pEP->altSetting))
 394              		.loc 1 835 0
 395 0026 1178     		ldrb	r1, [r2]	@ zero_extendqisi2
 396 0028 8142     		cmp	r1, r0
 397 002a 64D1     		bne	.L32
 836:Generated_Source\PSoC5/USBUART_1_std.c ****             {
 398              		.loc 1 836 0 discriminator 1
 399 002c 3749     		ldr	r1, .L41+8
 400 002e 095C     		ldrb	r1, [r1, r0]	@ zero_extendqisi2
 401 0030 C9B2     		uxtb	r1, r1
 402 0032 5578     		ldrb	r5, [r2, #1]	@ zero_extendqisi2
 835:Generated_Source\PSoC5/USBUART_1_std.c ****                 (USBUART_1_interfaceSetting[interfaceNum] == pEP->altSetting))
 403              		.loc 1 835 0 discriminator 1
 404 0034 A942     		cmp	r1, r5
 405 0036 5ED1     		bne	.L32
 838:Generated_Source\PSoC5/USBUART_1_std.c ****                 epType = ((uint8) pEP->attributes & USBUART_1_EP_TYPE_MASK);
 406              		.loc 1 838 0
 407 0038 9178     		ldrb	r1, [r2, #2]	@ zero_extendqisi2
 408 003a 01F07F01 		and	r1, r1, #127
 409              	.LVL32:
 839:Generated_Source\PSoC5/USBUART_1_std.c ****                 
 410              		.loc 1 839 0
 411 003e D678     		ldrb	r6, [r2, #3]	@ zero_extendqisi2
 412 0040 06F00306 		and	r6, r6, #3
 413              	.LVL33:
 842:Generated_Source\PSoC5/USBUART_1_std.c ****                 USBUART_1_EP[curEp].addr       = pEP->addr;
 414              		.loc 1 842 0
 415 0044 DFF8C8E0 		ldr	lr, .L41+12
 416 0048 4D00     		lsls	r5, r1, #1
 417 004a 0D44     		add	r5, r5, r1
 418 004c AD00     		lsls	r5, r5, #2
 419 004e 0EEB0507 		add	r7, lr, r5
 420 0052 4FF0000C 		mov	ip, #0
 421 0056 87F803C0 		strb	ip, [r7, #3]
 843:Generated_Source\PSoC5/USBUART_1_std.c ****                 USBUART_1_EP[curEp].attrib     = pEP->attributes;
 422              		.loc 1 843 0
 423 005a 92F802C0 		ldrb	ip, [r2, #2]	@ zero_extendqisi2
 424 005e 87F804C0 		strb	ip, [r7, #4]
 844:Generated_Source\PSoC5/USBUART_1_std.c ****                 USBUART_1_EP[curEp].bufferSize = pEP->bufferSize;
 425              		.loc 1 844 0
 426 0062 92F803C0 		ldrb	ip, [r2, #3]	@ zero_extendqisi2
 427 0066 0EF805C0 		strb	ip, [lr, r5]
 845:Generated_Source\PSoC5/USBUART_1_std.c **** 
 428              		.loc 1 845 0
 429 006a 9588     		ldrh	r5, [r2, #4]
 430 006c 3D81     		strh	r5, [r7, #8]	@ movhi
 847:Generated_Source\PSoC5/USBUART_1_std.c ****                 {
 431              		.loc 1 847 0
 432 006e 92F90250 		ldrsb	r5, [r2, #2]
 433 0072 002D     		cmp	r5, #0
ARM GAS  C:\Users\DGILLI~1\AppData\Local\Temp\ccItuQxT.s 			page 26


 434 0074 0DDA     		bge	.L33
 850:Generated_Source\PSoC5/USBUART_1_std.c ****                     USBUART_1_EP[curEp].apiEpState = USBUART_1_EVENT_PENDING;
 435              		.loc 1 850 0
 436 0076 012E     		cmp	r6, #1
 437 0078 01D1     		bne	.L38
 438 007a 0727     		movs	r7, #7
 439 007c 00E0     		b	.L34
 440              	.L38:
 441 007e 0D27     		movs	r7, #13
 442              	.L34:
 850:Generated_Source\PSoC5/USBUART_1_std.c ****                     USBUART_1_EP[curEp].apiEpState = USBUART_1_EVENT_PENDING;
 443              		.loc 1 850 0 is_stmt 0 discriminator 4
 444 0080 4D00     		lsls	r5, r1, #1
 445 0082 0D44     		add	r5, r5, r1
 446 0084 AD00     		lsls	r5, r5, #2
 447 0086 224E     		ldr	r6, .L41+12
 448              	.LVL34:
 449 0088 3544     		add	r5, r5, r6
 450 008a 6F71     		strb	r7, [r5, #5]
 851:Generated_Source\PSoC5/USBUART_1_std.c ****                 }
 451              		.loc 1 851 0 is_stmt 1 discriminator 4
 452 008c 0126     		movs	r6, #1
 453 008e 6E70     		strb	r6, [r5, #1]
 454 0090 0CE0     		b	.L35
 455              	.LVL35:
 456              	.L33:
 856:Generated_Source\PSoC5/USBUART_1_std.c ****                     USBUART_1_EP[curEp].apiEpState = USBUART_1_NO_EVENT_PENDING;
 457              		.loc 1 856 0
 458 0092 012E     		cmp	r6, #1
 459 0094 01D1     		bne	.L39
 460 0096 0527     		movs	r7, #5
 461 0098 00E0     		b	.L36
 462              	.L39:
 463 009a 0927     		movs	r7, #9
 464              	.L36:
 856:Generated_Source\PSoC5/USBUART_1_std.c ****                     USBUART_1_EP[curEp].apiEpState = USBUART_1_NO_EVENT_PENDING;
 465              		.loc 1 856 0 is_stmt 0 discriminator 4
 466 009c 4D00     		lsls	r5, r1, #1
 467 009e 0D44     		add	r5, r5, r1
 468 00a0 AD00     		lsls	r5, r5, #2
 469 00a2 1B4E     		ldr	r6, .L41+12
 470              	.LVL36:
 471 00a4 3544     		add	r5, r5, r6
 472 00a6 6F71     		strb	r7, [r5, #5]
 857:Generated_Source\PSoC5/USBUART_1_std.c ****                 }
 473              		.loc 1 857 0 is_stmt 1 discriminator 4
 474 00a8 0026     		movs	r6, #0
 475 00aa 6E70     		strb	r6, [r5, #1]
 476              	.L35:
 861:Generated_Source\PSoC5/USBUART_1_std.c **** 
 477              		.loc 1 861 0
 478 00ac DFF868E0 		ldr	lr, .L41+20
 479 00b0 0F01     		lsls	r7, r1, #4
 480 00b2 0EEB0706 		add	r6, lr, r7
 481 00b6 0125     		movs	r5, #1
 482 00b8 B570     		strb	r5, [r6, #2]
 907:Generated_Source\PSoC5/USBUART_1_std.c ****                 USBUART_1_SIE_EP_BASE.sieEp[curEp].epCnt1 = LO8(USBUART_1_EP[curEp].bufferSize);
ARM GAS  C:\Users\DGILLI~1\AppData\Local\Temp\ccItuQxT.s 			page 27


 483              		.loc 1 907 0
 484 00ba 01FA05F5 		lsl	r5, r1, r5
 485 00be 2944     		add	r1, r1, r5
 486              	.LVL37:
 487 00c0 8900     		lsls	r1, r1, #2
 488 00c2 134D     		ldr	r5, .L41+12
 489 00c4 2944     		add	r1, r1, r5
 490 00c6 0D89     		ldrh	r5, [r1, #8]
 491 00c8 C5F30725 		ubfx	r5, r5, #8, #8
 492 00cc 0EF80750 		strb	r5, [lr, r7]
 908:Generated_Source\PSoC5/USBUART_1_std.c ****                 
 493              		.loc 1 908 0
 494 00d0 0D89     		ldrh	r5, [r1, #8]
 495 00d2 EDB2     		uxtb	r5, r5
 496 00d4 7570     		strb	r5, [r6, #1]
 914:Generated_Source\PSoC5/USBUART_1_std.c ****                     USBUART_1_ARB_EP_BASE.arbEp[curEp].rwRaMsb = HI8(USBUART_1_EP[curEp].buffOffset
 497              		.loc 1 914 0
 498 00d6 CE88     		ldrh	r6, [r1, #6]
 499 00d8 F6B2     		uxtb	r6, r6
 500 00da 0E4D     		ldr	r5, .L41+16
 501 00dc 3D44     		add	r5, r5, r7
 502 00de AE71     		strb	r6, [r5, #6]
 915:Generated_Source\PSoC5/USBUART_1_std.c ****                     USBUART_1_ARB_EP_BASE.arbEp[curEp].rwWa    = LO8(USBUART_1_EP[curEp].buffOffset
 503              		.loc 1 915 0
 504 00e0 CE88     		ldrh	r6, [r1, #6]
 505 00e2 C6F30726 		ubfx	r6, r6, #8, #8
 506 00e6 EE71     		strb	r6, [r5, #7]
 916:Generated_Source\PSoC5/USBUART_1_std.c ****                     USBUART_1_ARB_EP_BASE.arbEp[curEp].rwWaMsb = HI8(USBUART_1_EP[curEp].buffOffset
 507              		.loc 1 916 0
 508 00e8 CE88     		ldrh	r6, [r1, #6]
 509 00ea F6B2     		uxtb	r6, r6
 510 00ec 2E71     		strb	r6, [r5, #4]
 917:Generated_Source\PSoC5/USBUART_1_std.c ****                 #endif /* (CY_PSOC4) */                
 511              		.loc 1 917 0
 512 00ee C988     		ldrh	r1, [r1, #6]
 513 00f0 C1F30721 		ubfx	r1, r1, #8, #8
 514 00f4 6971     		strb	r1, [r5, #5]
 515              	.L32:
 922:Generated_Source\PSoC5/USBUART_1_std.c ****         }
 516              		.loc 1 922 0 discriminator 2
 517 00f6 0832     		adds	r2, r2, #8
 518              	.LVL38:
 832:Generated_Source\PSoC5/USBUART_1_std.c ****         {
 519              		.loc 1 832 0 discriminator 2
 520 00f8 0133     		adds	r3, r3, #1
 521              	.LVL39:
 522 00fa DBB2     		uxtb	r3, r3
 523              	.LVL40:
 524              	.L31:
 832:Generated_Source\PSoC5/USBUART_1_std.c ****         {
 525              		.loc 1 832 0 is_stmt 0 discriminator 1
 526 00fc A342     		cmp	r3, r4
 527 00fe 92D3     		bcc	.L37
 528              	.LVL41:
 529              	.L29:
 530 0100 F8BD     		pop	{r3, r4, r5, r6, r7, pc}
 531              	.L42:
ARM GAS  C:\Users\DGILLI~1\AppData\Local\Temp\ccItuQxT.s 			page 28


 532 0102 00BF     		.align	2
 533              	.L41:
 534 0104 00000000 		.word	USBUART_1_configuration
 535 0108 00000000 		.word	USBUART_1_interfaceNumber
 536 010c 00000000 		.word	USBUART_1_interfaceSetting
 537 0110 00000000 		.word	USBUART_1_EP
 538 0114 70600040 		.word	1073766512
 539 0118 FC5F0040 		.word	1073766396
 540              		.cfi_endproc
 541              	.LFE5:
 542              		.size	USBUART_1_ConfigAltChanged, .-USBUART_1_ConfigAltChanged
 543              		.section	.text.USBUART_1_GetDeviceTablePtr,"ax",%progbits
 544              		.align	2
 545              		.global	USBUART_1_GetDeviceTablePtr
 546              		.thumb
 547              		.thumb_func
 548              		.type	USBUART_1_GetDeviceTablePtr, %function
 549              	USBUART_1_GetDeviceTablePtr:
 550              	.LFB7:
 968:Generated_Source\PSoC5/USBUART_1_std.c **** 
 969:Generated_Source\PSoC5/USBUART_1_std.c **** 
 970:Generated_Source\PSoC5/USBUART_1_std.c **** #if (USBUART_1_BOS_ENABLE)
 971:Generated_Source\PSoC5/USBUART_1_std.c ****     /*******************************************************************************
 972:Generated_Source\PSoC5/USBUART_1_std.c ****     * Function Name: USBUART_1_GetBOSPtr
 973:Generated_Source\PSoC5/USBUART_1_std.c ****     ****************************************************************************//**
 974:Generated_Source\PSoC5/USBUART_1_std.c ****     *
 975:Generated_Source\PSoC5/USBUART_1_std.c ****     *  This routine returns a pointer a BOS table entry
 976:Generated_Source\PSoC5/USBUART_1_std.c ****     *
 977:Generated_Source\PSoC5/USBUART_1_std.c ****     *  
 978:Generated_Source\PSoC5/USBUART_1_std.c ****     *
 979:Generated_Source\PSoC5/USBUART_1_std.c ****     * \return
 980:Generated_Source\PSoC5/USBUART_1_std.c ****     *  BOS Descriptor pointer or NULL when descriptor does not exist.
 981:Generated_Source\PSoC5/USBUART_1_std.c ****     *
 982:Generated_Source\PSoC5/USBUART_1_std.c ****     *******************************************************************************/
 983:Generated_Source\PSoC5/USBUART_1_std.c ****     const T_USBUART_1_LUT CYCODE *USBUART_1_GetBOSPtr(void)
 984:Generated_Source\PSoC5/USBUART_1_std.c ****                                                             
 985:Generated_Source\PSoC5/USBUART_1_std.c ****     {
 986:Generated_Source\PSoC5/USBUART_1_std.c ****         /* Device Table */
 987:Generated_Source\PSoC5/USBUART_1_std.c ****         const T_USBUART_1_LUT CYCODE *pTmp;
 988:Generated_Source\PSoC5/USBUART_1_std.c **** 
 989:Generated_Source\PSoC5/USBUART_1_std.c ****         pTmp = (const T_USBUART_1_LUT CYCODE *) USBUART_1_TABLE[USBUART_1_device].p_list;
 990:Generated_Source\PSoC5/USBUART_1_std.c **** 
 991:Generated_Source\PSoC5/USBUART_1_std.c ****         /* The first entry points to the Device Descriptor,
 992:Generated_Source\PSoC5/USBUART_1_std.c ****         *  the second entry points to the BOS Descriptor
 993:Generated_Source\PSoC5/USBUART_1_std.c ****         */
 994:Generated_Source\PSoC5/USBUART_1_std.c ****         pTmp = &pTmp[1u];
 995:Generated_Source\PSoC5/USBUART_1_std.c ****         pTmp = (const T_USBUART_1_LUT CYCODE *) pTmp->p_list;
 996:Generated_Source\PSoC5/USBUART_1_std.c ****         return (pTmp);
 997:Generated_Source\PSoC5/USBUART_1_std.c ****     }
 998:Generated_Source\PSoC5/USBUART_1_std.c **** #endif /* (USBUART_1_BOS_ENABLE) */
 999:Generated_Source\PSoC5/USBUART_1_std.c **** 
1000:Generated_Source\PSoC5/USBUART_1_std.c **** 
1001:Generated_Source\PSoC5/USBUART_1_std.c **** /*******************************************************************************
1002:Generated_Source\PSoC5/USBUART_1_std.c **** * Function Name: USBUART_1_GetDeviceTablePtr
1003:Generated_Source\PSoC5/USBUART_1_std.c **** ****************************************************************************//**
1004:Generated_Source\PSoC5/USBUART_1_std.c **** *
1005:Generated_Source\PSoC5/USBUART_1_std.c **** *  This routine returns a pointer to the Device table
ARM GAS  C:\Users\DGILLI~1\AppData\Local\Temp\ccItuQxT.s 			page 29


1006:Generated_Source\PSoC5/USBUART_1_std.c **** *
1007:Generated_Source\PSoC5/USBUART_1_std.c **** * \return
1008:Generated_Source\PSoC5/USBUART_1_std.c **** *  Device Table pointer
1009:Generated_Source\PSoC5/USBUART_1_std.c **** *
1010:Generated_Source\PSoC5/USBUART_1_std.c **** *******************************************************************************/
1011:Generated_Source\PSoC5/USBUART_1_std.c **** const T_USBUART_1_LUT CYCODE *USBUART_1_GetDeviceTablePtr(void)
1012:Generated_Source\PSoC5/USBUART_1_std.c ****                                                             
1013:Generated_Source\PSoC5/USBUART_1_std.c **** {
 551              		.loc 1 1013 0 is_stmt 1
 552              		.cfi_startproc
 553              		@ args = 0, pretend = 0, frame = 0
 554              		@ frame_needed = 0, uses_anonymous_args = 0
 555              		@ link register save eliminated.
1014:Generated_Source\PSoC5/USBUART_1_std.c ****     /* Device Table */
1015:Generated_Source\PSoC5/USBUART_1_std.c ****     return( (const T_USBUART_1_LUT CYCODE *) USBUART_1_TABLE[USBUART_1_device].p_list );
 556              		.loc 1 1015 0
 557 0000 034B     		ldr	r3, .L44
 558 0002 1A78     		ldrb	r2, [r3]	@ zero_extendqisi2
 559 0004 034B     		ldr	r3, .L44+4
 560 0006 03EBC203 		add	r3, r3, r2, lsl #3
1016:Generated_Source\PSoC5/USBUART_1_std.c **** }
 561              		.loc 1 1016 0
 562 000a 5868     		ldr	r0, [r3, #4]
 563 000c 7047     		bx	lr
 564              	.L45:
 565 000e 00BF     		.align	2
 566              	.L44:
 567 0010 00000000 		.word	USBUART_1_device
 568 0014 00000000 		.word	USBUART_1_TABLE
 569              		.cfi_endproc
 570              	.LFE7:
 571              		.size	USBUART_1_GetDeviceTablePtr, .-USBUART_1_GetDeviceTablePtr
 572              		.section	.text.USBUART_1_GetInterfaceClassTablePtr,"ax",%progbits
 573              		.align	2
 574              		.global	USBUART_1_GetInterfaceClassTablePtr
 575              		.thumb
 576              		.thumb_func
 577              		.type	USBUART_1_GetInterfaceClassTablePtr, %function
 578              	USBUART_1_GetInterfaceClassTablePtr:
 579              	.LFB8:
1017:Generated_Source\PSoC5/USBUART_1_std.c **** 
1018:Generated_Source\PSoC5/USBUART_1_std.c **** 
1019:Generated_Source\PSoC5/USBUART_1_std.c **** /*******************************************************************************
1020:Generated_Source\PSoC5/USBUART_1_std.c **** * Function Name: USB_GetInterfaceClassTablePtr
1021:Generated_Source\PSoC5/USBUART_1_std.c **** ****************************************************************************//**
1022:Generated_Source\PSoC5/USBUART_1_std.c **** *
1023:Generated_Source\PSoC5/USBUART_1_std.c **** *  This routine returns Interface Class table pointer, which contains
1024:Generated_Source\PSoC5/USBUART_1_std.c **** *  the relation between interface number and interface class.
1025:Generated_Source\PSoC5/USBUART_1_std.c **** *
1026:Generated_Source\PSoC5/USBUART_1_std.c **** * \return
1027:Generated_Source\PSoC5/USBUART_1_std.c **** *  Interface Class table pointer.
1028:Generated_Source\PSoC5/USBUART_1_std.c **** *
1029:Generated_Source\PSoC5/USBUART_1_std.c **** *******************************************************************************/
1030:Generated_Source\PSoC5/USBUART_1_std.c **** const uint8 CYCODE *USBUART_1_GetInterfaceClassTablePtr(void)
1031:Generated_Source\PSoC5/USBUART_1_std.c ****                                                         
1032:Generated_Source\PSoC5/USBUART_1_std.c **** {
 580              		.loc 1 1032 0
ARM GAS  C:\Users\DGILLI~1\AppData\Local\Temp\ccItuQxT.s 			page 30


 581              		.cfi_startproc
 582              		@ args = 0, pretend = 0, frame = 0
 583              		@ frame_needed = 0, uses_anonymous_args = 0
 584 0000 08B5     		push	{r3, lr}
 585              		.cfi_def_cfa_offset 8
 586              		.cfi_offset 3, -8
 587              		.cfi_offset 14, -4
1033:Generated_Source\PSoC5/USBUART_1_std.c ****     const T_USBUART_1_LUT CYCODE *pTmp;
1034:Generated_Source\PSoC5/USBUART_1_std.c ****     const uint8 CYCODE *pInterfaceClass;
1035:Generated_Source\PSoC5/USBUART_1_std.c ****     uint8 currentInterfacesNum;
1036:Generated_Source\PSoC5/USBUART_1_std.c **** 
1037:Generated_Source\PSoC5/USBUART_1_std.c ****     pTmp = USBUART_1_GetConfigTablePtr(USBUART_1_configuration - 1u);
 588              		.loc 1 1037 0
 589 0002 074B     		ldr	r3, .L50
 590 0004 1878     		ldrb	r0, [r3]	@ zero_extendqisi2
 591 0006 0138     		subs	r0, r0, #1
 592 0008 C0B2     		uxtb	r0, r0
 593 000a FFF7FEFF 		bl	USBUART_1_GetConfigTablePtr
 594              	.LVL42:
1038:Generated_Source\PSoC5/USBUART_1_std.c ****     if (pTmp != NULL)
 595              		.loc 1 1038 0
 596 000e 28B1     		cbz	r0, .L48
1039:Generated_Source\PSoC5/USBUART_1_std.c ****     {
1040:Generated_Source\PSoC5/USBUART_1_std.c ****         currentInterfacesNum  = ((const uint8 *) pTmp->p_list)[USBUART_1_CONFIG_DESCR_NUM_INTERFACE
 597              		.loc 1 1040 0
 598 0010 4268     		ldr	r2, [r0, #4]
 599 0012 1279     		ldrb	r2, [r2, #4]	@ zero_extendqisi2
 600              	.LVL43:
1041:Generated_Source\PSoC5/USBUART_1_std.c ****         /* Third entry in the LUT starts the Interface Table pointers */
1042:Generated_Source\PSoC5/USBUART_1_std.c ****         /* The INTERFACE_CLASS table is located after all interfaces */
1043:Generated_Source\PSoC5/USBUART_1_std.c ****         pTmp = &pTmp[currentInterfacesNum + 2u];
 601              		.loc 1 1043 0
 602 0014 00EBC203 		add	r3, r0, r2, lsl #3
 603              	.LVL44:
1044:Generated_Source\PSoC5/USBUART_1_std.c ****         pInterfaceClass = (const uint8 CYCODE *) pTmp->p_list;
 604              		.loc 1 1044 0
 605 0018 5869     		ldr	r0, [r3, #20]
 606              	.LVL45:
 607 001a 08BD     		pop	{r3, pc}
 608              	.LVL46:
 609              	.L48:
1045:Generated_Source\PSoC5/USBUART_1_std.c ****     }
1046:Generated_Source\PSoC5/USBUART_1_std.c ****     else
1047:Generated_Source\PSoC5/USBUART_1_std.c ****     {
1048:Generated_Source\PSoC5/USBUART_1_std.c ****         pInterfaceClass = (const uint8 CYCODE *) NULL;
 610              		.loc 1 1048 0
 611 001c 0020     		movs	r0, #0
 612              	.LVL47:
1049:Generated_Source\PSoC5/USBUART_1_std.c ****     }
1050:Generated_Source\PSoC5/USBUART_1_std.c **** 
1051:Generated_Source\PSoC5/USBUART_1_std.c ****     return (pInterfaceClass);
1052:Generated_Source\PSoC5/USBUART_1_std.c **** }
 613              		.loc 1 1052 0
 614 001e 08BD     		pop	{r3, pc}
 615              	.L51:
 616              		.align	2
 617              	.L50:
ARM GAS  C:\Users\DGILLI~1\AppData\Local\Temp\ccItuQxT.s 			page 31


 618 0020 00000000 		.word	USBUART_1_configuration
 619              		.cfi_endproc
 620              	.LFE8:
 621              		.size	USBUART_1_GetInterfaceClassTablePtr, .-USBUART_1_GetInterfaceClassTablePtr
 622              		.section	.text.USBUART_1_Config,"ax",%progbits
 623              		.align	2
 624              		.global	USBUART_1_Config
 625              		.thumb
 626              		.thumb_func
 627              		.type	USBUART_1_Config, %function
 628              	USBUART_1_Config:
 629              	.LFB4:
 571:Generated_Source\PSoC5/USBUART_1_std.c ****     uint8 ep;
 630              		.loc 1 571 0
 631              		.cfi_startproc
 632              		@ args = 0, pretend = 0, frame = 0
 633              		@ frame_needed = 0, uses_anonymous_args = 0
 634              	.LVL48:
 635 0000 2DE9F843 		push	{r3, r4, r5, r6, r7, r8, r9, lr}
 636              		.cfi_def_cfa_offset 32
 637              		.cfi_offset 3, -32
 638              		.cfi_offset 4, -28
 639              		.cfi_offset 5, -24
 640              		.cfi_offset 6, -20
 641              		.cfi_offset 7, -16
 642              		.cfi_offset 8, -12
 643              		.cfi_offset 9, -8
 644              		.cfi_offset 14, -4
 645              	.LVL49:
 586:Generated_Source\PSoC5/USBUART_1_std.c ****     {
 646              		.loc 1 586 0
 647 0004 0022     		movs	r2, #0
 648 0006 0EE0     		b	.L53
 649              	.LVL50:
 650              	.L54:
 588:Generated_Source\PSoC5/USBUART_1_std.c ****         USBUART_1_EP[ep].hwEpState  = 0u;
 651              		.loc 1 588 0 discriminator 3
 652 0008 6F4E     		ldr	r6, .L80
 653 000a 5300     		lsls	r3, r2, #1
 654 000c 9D18     		adds	r5, r3, r2
 655 000e AD00     		lsls	r5, r5, #2
 656 0010 7419     		adds	r4, r6, r5
 657 0012 0021     		movs	r1, #0
 658 0014 7155     		strb	r1, [r6, r5]
 589:Generated_Source\PSoC5/USBUART_1_std.c ****         USBUART_1_EP[ep].epToggle   = 0u;
 659              		.loc 1 589 0 discriminator 3
 660 0016 A170     		strb	r1, [r4, #2]
 590:Generated_Source\PSoC5/USBUART_1_std.c ****         USBUART_1_EP[ep].bufferSize = 0u;
 661              		.loc 1 590 0 discriminator 3
 662 0018 E170     		strb	r1, [r4, #3]
 591:Generated_Source\PSoC5/USBUART_1_std.c ****         USBUART_1_EP[ep].interface  = 0u;
 663              		.loc 1 591 0 discriminator 3
 664 001a 2181     		strh	r1, [r4, #8]	@ movhi
 592:Generated_Source\PSoC5/USBUART_1_std.c ****         USBUART_1_EP[ep].apiEpState = USBUART_1_NO_EVENT_PENDING;
 665              		.loc 1 592 0 discriminator 3
 666 001c A172     		strb	r1, [r4, #10]
 593:Generated_Source\PSoC5/USBUART_1_std.c ****         USBUART_1_EP[ep].epMode     = USBUART_1_MODE_DISABLE;   
ARM GAS  C:\Users\DGILLI~1\AppData\Local\Temp\ccItuQxT.s 			page 32


 667              		.loc 1 593 0 discriminator 3
 668 001e 6170     		strb	r1, [r4, #1]
 594:Generated_Source\PSoC5/USBUART_1_std.c ****     }
 669              		.loc 1 594 0 discriminator 3
 670 0020 6171     		strb	r1, [r4, #5]
 586:Generated_Source\PSoC5/USBUART_1_std.c ****     {
 671              		.loc 1 586 0 discriminator 3
 672 0022 0132     		adds	r2, r2, #1
 673              	.LVL51:
 674 0024 D2B2     		uxtb	r2, r2
 675              	.LVL52:
 676              	.L53:
 586:Generated_Source\PSoC5/USBUART_1_std.c ****     {
 677              		.loc 1 586 0 is_stmt 0 discriminator 1
 678 0026 082A     		cmp	r2, #8
 679 0028 EED9     		bls	.L54
 598:Generated_Source\PSoC5/USBUART_1_std.c ****     {
 680              		.loc 1 598 0 is_stmt 1
 681 002a 40B9     		cbnz	r0, .L76
 682 002c 0AE0     		b	.L56
 683              	.LVL53:
 684              	.L57:
 602:Generated_Source\PSoC5/USBUART_1_std.c ****             USBUART_1_interfaceSettingLast[i] = 0u;
 685              		.loc 1 602 0 discriminator 3
 686 002e 0022     		movs	r2, #0
 687 0030 6649     		ldr	r1, .L80+4
 688 0032 CA54     		strb	r2, [r1, r3]
 603:Generated_Source\PSoC5/USBUART_1_std.c ****         }
 689              		.loc 1 603 0 discriminator 3
 690 0034 6649     		ldr	r1, .L80+8
 691 0036 CA54     		strb	r2, [r1, r3]
 600:Generated_Source\PSoC5/USBUART_1_std.c ****         {
 692              		.loc 1 600 0 discriminator 3
 693 0038 0133     		adds	r3, r3, #1
 694              	.LVL54:
 695 003a DBB2     		uxtb	r3, r3
 696              	.LVL55:
 697 003c 00E0     		b	.L55
 698              	.LVL56:
 699              	.L76:
 700 003e 0023     		movs	r3, #0
 701              	.LVL57:
 702              	.L55:
 600:Generated_Source\PSoC5/USBUART_1_std.c ****         {
 703              		.loc 1 600 0 is_stmt 0 discriminator 1
 704 0040 012B     		cmp	r3, #1
 705 0042 F4D9     		bls	.L57
 706              	.LVL58:
 707              	.L56:
 608:Generated_Source\PSoC5/USBUART_1_std.c ****     {
 708              		.loc 1 608 0 is_stmt 1
 709 0044 634B     		ldr	r3, .L80+12
 710 0046 1B78     		ldrb	r3, [r3]	@ zero_extendqisi2
 711 0048 13F0FF0F 		tst	r3, #255
 712 004c 00F0B980 		beq	.L52
 713              	.LVL59:
 714              	.LBB2:
ARM GAS  C:\Users\DGILLI~1\AppData\Local\Temp\ccItuQxT.s 			page 33


 614:Generated_Source\PSoC5/USBUART_1_std.c ****         
 715              		.loc 1 614 0
 716 0050 604B     		ldr	r3, .L80+12
 717 0052 1878     		ldrb	r0, [r3]	@ zero_extendqisi2
 718              	.LVL60:
 719 0054 0138     		subs	r0, r0, #1
 720 0056 C0B2     		uxtb	r0, r0
 721 0058 FFF7FEFF 		bl	USBUART_1_GetConfigTablePtr
 722              	.LVL61:
 723 005c 8046     		mov	r8, r0
 724              	.LVL62:
 617:Generated_Source\PSoC5/USBUART_1_std.c ****         if ((pDescr[USBUART_1_CONFIG_DESCR_ATTRIB] & USBUART_1_CONFIG_DESCR_ATTRIB_SELF_POWERED) !=
 725              		.loc 1 617 0
 726 005e 4368     		ldr	r3, [r0, #4]
 727              	.LVL63:
 618:Generated_Source\PSoC5/USBUART_1_std.c ****         {
 728              		.loc 1 618 0
 729 0060 DB79     		ldrb	r3, [r3, #7]	@ zero_extendqisi2
 730              	.LVL64:
 731 0062 13F0400F 		tst	r3, #64
 732 0066 05D0     		beq	.L59
 620:Generated_Source\PSoC5/USBUART_1_std.c ****         }
 733              		.loc 1 620 0
 734 0068 5B4A     		ldr	r2, .L80+16
 735 006a 1378     		ldrb	r3, [r2]	@ zero_extendqisi2
 736 006c 43F00103 		orr	r3, r3, #1
 737 0070 1370     		strb	r3, [r2]
 738 0072 04E0     		b	.L60
 739              	.L59:
 624:Generated_Source\PSoC5/USBUART_1_std.c ****         }
 740              		.loc 1 624 0
 741 0074 584A     		ldr	r2, .L80+16
 742 0076 1378     		ldrb	r3, [r2]	@ zero_extendqisi2
 743 0078 03F0FE03 		and	r3, r3, #254
 744 007c 1370     		strb	r3, [r2]
 745              	.L60:
 746              	.LVL65:
 629:Generated_Source\PSoC5/USBUART_1_std.c **** 
 747              		.loc 1 629 0
 748 007e 98F80870 		ldrb	r7, [r8, #8]	@ zero_extendqisi2
 749              	.LVL66:
 611:Generated_Source\PSoC5/USBUART_1_std.c ****         #endif  /* (USBUART_1_ENABLE_CDC_CLASS) */  
 750              		.loc 1 611 0
 751 0082 4FF00009 		mov	r9, #0
 687:Generated_Source\PSoC5/USBUART_1_std.c ****             {
 752              		.loc 1 687 0
 753 0086 0126     		movs	r6, #1
 754 0088 6CE0     		b	.L61
 755              	.LVL67:
 756              	.L71:
 690:Generated_Source\PSoC5/USBUART_1_std.c ****                 /* Find max length for each EP and select it (length could be different in differen
 757              		.loc 1 690 0
 758 008a D8F80C50 		ldr	r5, [r8, #12]
 759              	.LVL68:
 694:Generated_Source\PSoC5/USBUART_1_std.c ****                 {
 760              		.loc 1 694 0
 761 008e 0024     		movs	r4, #0
ARM GAS  C:\Users\DGILLI~1\AppData\Local\Temp\ccItuQxT.s 			page 34


 762 0090 64E0     		b	.L62
 763              	.LVL69:
 764              	.L70:
 696:Generated_Source\PSoC5/USBUART_1_std.c ****                     {
 765              		.loc 1 696 0
 766 0092 AB78     		ldrb	r3, [r5, #2]	@ zero_extendqisi2
 767 0094 03F07F03 		and	r3, r3, #127
 768 0098 9E42     		cmp	r6, r3
 769 009a 5CD1     		bne	.L63
 699:Generated_Source\PSoC5/USBUART_1_std.c ****                         {
 770              		.loc 1 699 0
 771 009c 3146     		mov	r1, r6
 772 009e 06EB4603 		add	r3, r6, r6, lsl #1
 773 00a2 9B00     		lsls	r3, r3, #2
 774 00a4 4848     		ldr	r0, .L80
 775 00a6 0344     		add	r3, r3, r0
 776 00a8 1B89     		ldrh	r3, [r3, #8]
 777 00aa 9BB2     		uxth	r3, r3
 778 00ac A888     		ldrh	r0, [r5, #4]
 779 00ae 8342     		cmp	r3, r0
 780 00b0 05D2     		bcs	.L64
 701:Generated_Source\PSoC5/USBUART_1_std.c ****                         }
 781              		.loc 1 701 0
 782 00b2 06EB4603 		add	r3, r6, r6, lsl #1
 783 00b6 9B00     		lsls	r3, r3, #2
 784 00b8 434A     		ldr	r2, .L80
 785 00ba 1344     		add	r3, r3, r2
 786 00bc 1881     		strh	r0, [r3, #8]	@ movhi
 787              	.L64:
 705:Generated_Source\PSoC5/USBUART_1_std.c ****                         {                            
 788              		.loc 1 705 0
 789 00be 2B78     		ldrb	r3, [r5]	@ zero_extendqisi2
 790 00c0 4248     		ldr	r0, .L80+4
 791 00c2 C35C     		ldrb	r3, [r0, r3]	@ zero_extendqisi2
 792 00c4 DBB2     		uxtb	r3, r3
 793 00c6 6878     		ldrb	r0, [r5, #1]	@ zero_extendqisi2
 794 00c8 8342     		cmp	r3, r0
 795 00ca 44D1     		bne	.L63
 707:Generated_Source\PSoC5/USBUART_1_std.c ****                             USBUART_1_EP[i].attrib = pEP->attributes;
 796              		.loc 1 707 0
 797 00cc 95F802C0 		ldrb	ip, [r5, #2]	@ zero_extendqisi2
 798 00d0 3D48     		ldr	r0, .L80
 799 00d2 4B00     		lsls	r3, r1, #1
 800 00d4 0B44     		add	r3, r3, r1
 801 00d6 9B00     		lsls	r3, r3, #2
 802 00d8 00EB030E 		add	lr, r0, r3
 803 00dc 8EF804C0 		strb	ip, [lr, #4]
 708:Generated_Source\PSoC5/USBUART_1_std.c ****                             
 804              		.loc 1 708 0
 805 00e0 95F803E0 		ldrb	lr, [r5, #3]	@ zero_extendqisi2
 806 00e4 00F803E0 		strb	lr, [r0, r3]
 710:Generated_Source\PSoC5/USBUART_1_std.c ****                             
 807              		.loc 1 710 0
 808 00e8 EB78     		ldrb	r3, [r5, #3]	@ zero_extendqisi2
 809 00ea 03F00303 		and	r3, r3, #3
 810              	.LVL70:
 712:Generated_Source\PSoC5/USBUART_1_std.c ****                             {
ARM GAS  C:\Users\DGILLI~1\AppData\Local\Temp\ccItuQxT.s 			page 35


 811              		.loc 1 712 0
 812 00ee 95F90200 		ldrsb	r0, [r5, #2]
 813 00f2 0028     		cmp	r0, #0
 814 00f4 11DA     		bge	.L65
 715:Generated_Source\PSoC5/USBUART_1_std.c ****                                 USBUART_1_EP[i].apiEpState = USBUART_1_EVENT_PENDING;
 815              		.loc 1 715 0
 816 00f6 012B     		cmp	r3, #1
 817 00f8 02D1     		bne	.L77
 818 00fa 4FF0070C 		mov	ip, #7
 819 00fe 01E0     		b	.L66
 820              	.L77:
 821 0100 4FF00D0C 		mov	ip, #13
 822              	.L66:
 715:Generated_Source\PSoC5/USBUART_1_std.c ****                                 USBUART_1_EP[i].apiEpState = USBUART_1_EVENT_PENDING;
 823              		.loc 1 715 0 is_stmt 0 discriminator 4
 824 0104 DFF8C0E0 		ldr	lr, .L80
 825 0108 4B00     		lsls	r3, r1, #1
 826              	.LVL71:
 827 010a 5818     		adds	r0, r3, r1
 828 010c 8000     		lsls	r0, r0, #2
 829 010e 7044     		add	r0, r0, lr
 830 0110 80F805C0 		strb	ip, [r0, #5]
 831              	.LVL72:
 716:Generated_Source\PSoC5/USBUART_1_std.c ****                                 
 832              		.loc 1 716 0 is_stmt 1 discriminator 4
 833 0114 0123     		movs	r3, #1
 834 0116 4370     		strb	r3, [r0, #1]
 835 0118 12E0     		b	.L67
 836              	.LVL73:
 837              	.L65:
 728:Generated_Source\PSoC5/USBUART_1_std.c ****                                 USBUART_1_EP[i].apiEpState = USBUART_1_NO_EVENT_PENDING;
 838              		.loc 1 728 0
 839 011a 012B     		cmp	r3, #1
 840 011c 02D1     		bne	.L78
 841 011e 4FF0050C 		mov	ip, #5
 842 0122 01E0     		b	.L68
 843              	.L78:
 844 0124 4FF0090C 		mov	ip, #9
 845              	.L68:
 728:Generated_Source\PSoC5/USBUART_1_std.c ****                                 USBUART_1_EP[i].apiEpState = USBUART_1_NO_EVENT_PENDING;
 846              		.loc 1 728 0 is_stmt 0 discriminator 4
 847 0128 2748     		ldr	r0, .L80
 848 012a 4FEA410E 		lsl	lr, r1, #1
 849 012e 0EEB0103 		add	r3, lr, r1
 850              	.LVL74:
 851 0132 9B00     		lsls	r3, r3, #2
 852 0134 0344     		add	r3, r3, r0
 853 0136 83F805C0 		strb	ip, [r3, #5]
 854              	.LVL75:
 729:Generated_Source\PSoC5/USBUART_1_std.c ****                                 
 855              		.loc 1 729 0 is_stmt 1 discriminator 4
 856 013a 1946     		mov	r1, r3
 857 013c 0023     		movs	r3, #0
 858 013e 4B70     		strb	r3, [r1, #1]
 859              	.L67:
 740:Generated_Source\PSoC5/USBUART_1_std.c ****                             {
 860              		.loc 1 740 0
ARM GAS  C:\Users\DGILLI~1\AppData\Local\Temp\ccItuQxT.s 			page 36


 861 0140 AB79     		ldrb	r3, [r5, #6]	@ zero_extendqisi2
 862 0142 0A2B     		cmp	r3, #10
 863 0144 01D0     		beq	.L69
 740:Generated_Source\PSoC5/USBUART_1_std.c ****                             {
 864              		.loc 1 740 0 is_stmt 0 discriminator 1
 865 0146 022B     		cmp	r3, #2
 866 0148 05D1     		bne	.L63
 867              	.L69:
 742:Generated_Source\PSoC5/USBUART_1_std.c ****                             }
 868              		.loc 1 742 0 is_stmt 1
 869 014a 2846     		mov	r0, r5
 870 014c 3146     		mov	r1, r6
 871 014e 4A46     		mov	r2, r9
 872 0150 FFF7FEFF 		bl	USBUART_1_Cdc_EpInit
 873              	.LVL76:
 874 0154 8146     		mov	r9, r0
 875              	.LVL77:
 876              	.L63:
 752:Generated_Source\PSoC5/USBUART_1_std.c ****                 }
 877              		.loc 1 752 0 discriminator 2
 878 0156 0835     		adds	r5, r5, #8
 879              	.LVL78:
 694:Generated_Source\PSoC5/USBUART_1_std.c ****                 {
 880              		.loc 1 694 0 discriminator 2
 881 0158 0134     		adds	r4, r4, #1
 882              	.LVL79:
 883 015a E4B2     		uxtb	r4, r4
 884              	.LVL80:
 885              	.L62:
 694:Generated_Source\PSoC5/USBUART_1_std.c ****                 {
 886              		.loc 1 694 0 is_stmt 0 discriminator 1
 887 015c BC42     		cmp	r4, r7
 888 015e 98D3     		bcc	.L70
 687:Generated_Source\PSoC5/USBUART_1_std.c ****             {
 889              		.loc 1 687 0 is_stmt 1 discriminator 2
 890 0160 0136     		adds	r6, r6, #1
 891              	.LVL81:
 892 0162 F6B2     		uxtb	r6, r6
 893              	.LVL82:
 894              	.L61:
 687:Generated_Source\PSoC5/USBUART_1_std.c ****             {
 895              		.loc 1 687 0 is_stmt 0 discriminator 1
 896 0164 082E     		cmp	r6, #8
 897 0166 90D9     		bls	.L71
 762:Generated_Source\PSoC5/USBUART_1_std.c ****         for (i = 0u; i < ep; i++)
 898              		.loc 1 762 0 is_stmt 1
 899 0168 D8F80C00 		ldr	r0, [r8, #12]
 900              	.LVL83:
 763:Generated_Source\PSoC5/USBUART_1_std.c ****         {
 901              		.loc 1 763 0
 902 016c 0022     		movs	r2, #0
 903 016e 0CE0     		b	.L72
 904              	.LVL84:
 905              	.L73:
 766:Generated_Source\PSoC5/USBUART_1_std.c ****             pEP = &pEP[1u];
 906              		.loc 1 766 0 discriminator 3
 907 0170 8378     		ldrb	r3, [r0, #2]	@ zero_extendqisi2
ARM GAS  C:\Users\DGILLI~1\AppData\Local\Temp\ccItuQxT.s 			page 37


 908 0172 03F07F03 		and	r3, r3, #127
 909 0176 10F8084B 		ldrb	r4, [r0], #8	@ zero_extendqisi2
 910              	.LVL85:
 911 017a 03EB4303 		add	r3, r3, r3, lsl #1
 912 017e 9B00     		lsls	r3, r3, #2
 913 0180 1649     		ldr	r1, .L80+20
 914 0182 0B44     		add	r3, r3, r1
 915 0184 9C70     		strb	r4, [r3, #2]
 916              	.LVL86:
 763:Generated_Source\PSoC5/USBUART_1_std.c ****         {
 917              		.loc 1 763 0 discriminator 3
 918 0186 0132     		adds	r2, r2, #1
 919              	.LVL87:
 920 0188 D2B2     		uxtb	r2, r2
 921              	.LVL88:
 922              	.L72:
 763:Generated_Source\PSoC5/USBUART_1_std.c ****         {
 923              		.loc 1 763 0 is_stmt 0 discriminator 1
 924 018a BA42     		cmp	r2, r7
 925 018c F0D3     		bcc	.L73
 771:Generated_Source\PSoC5/USBUART_1_std.c ****         
 926              		.loc 1 771 0 is_stmt 1
 927 018e FFF7FEFF 		bl	USBUART_1_GetInterfaceClassTablePtr
 928              	.LVL89:
 929 0192 134B     		ldr	r3, .L80+24
 930 0194 1860     		str	r0, [r3]
 931              	.LVL90:
 775:Generated_Source\PSoC5/USBUART_1_std.c ****         for (ep = USBUART_1_EP1; ep < USBUART_1_MAX_EP; ++ep)
 932              		.loc 1 775 0
 933 0196 0023     		movs	r3, #0
 776:Generated_Source\PSoC5/USBUART_1_std.c ****         {
 934              		.loc 1 776 0
 935 0198 0121     		movs	r1, #1
 936 019a 0EE0     		b	.L74
 937              	.LVL91:
 938              	.L75:
 778:Generated_Source\PSoC5/USBUART_1_std.c ****             buffCount += USBUART_1_EP[ep].bufferSize;
 939              		.loc 1 778 0 discriminator 3
 940 019c 0A4C     		ldr	r4, .L80
 941 019e 4A00     		lsls	r2, r1, #1
 942 01a0 5018     		adds	r0, r2, r1
 943 01a2 8000     		lsls	r0, r0, #2
 944 01a4 2044     		add	r0, r0, r4
 945 01a6 C380     		strh	r3, [r0, #6]	@ movhi
 779:Generated_Source\PSoC5/USBUART_1_std.c ****             
 946              		.loc 1 779 0 discriminator 3
 947 01a8 0289     		ldrh	r2, [r0, #8]
 948 01aa 1344     		add	r3, r3, r2
 949              	.LVL92:
 950 01ac 9BB2     		uxth	r3, r3
 951              	.LVL93:
 783:Generated_Source\PSoC5/USBUART_1_std.c ****         #endif /* (USBUART_1_GEN_16BITS_EP_ACCESS) */            
 952              		.loc 1 783 0 discriminator 3
 953 01ae 03F00102 		and	r2, r3, #1
 954 01b2 1344     		add	r3, r3, r2
 955              	.LVL94:
 956 01b4 9BB2     		uxth	r3, r3
ARM GAS  C:\Users\DGILLI~1\AppData\Local\Temp\ccItuQxT.s 			page 38


 957              	.LVL95:
 776:Generated_Source\PSoC5/USBUART_1_std.c ****         {
 958              		.loc 1 776 0 discriminator 3
 959 01b6 0131     		adds	r1, r1, #1
 960              	.LVL96:
 961 01b8 C9B2     		uxtb	r1, r1
 962              	.LVL97:
 963              	.L74:
 776:Generated_Source\PSoC5/USBUART_1_std.c ****         {
 964              		.loc 1 776 0 is_stmt 0 discriminator 1
 965 01ba 0829     		cmp	r1, #8
 966 01bc EED9     		bls	.L75
 789:Generated_Source\PSoC5/USBUART_1_std.c ****     }
 967              		.loc 1 789 0 is_stmt 1
 968 01be FFF7FEFF 		bl	USBUART_1_ConfigReg
 969              	.LVL98:
 970              	.L52:
 971 01c2 BDE8F883 		pop	{r3, r4, r5, r6, r7, r8, r9, pc}
 972              	.L81:
 973 01c6 00BF     		.align	2
 974              	.L80:
 975 01c8 00000000 		.word	USBUART_1_EP
 976 01cc 00000000 		.word	USBUART_1_interfaceSetting
 977 01d0 00000000 		.word	USBUART_1_interfaceSettingLast
 978 01d4 00000000 		.word	USBUART_1_configuration
 979 01d8 00000000 		.word	USBUART_1_deviceStatus
 980 01dc 08000000 		.word	USBUART_1_EP+8
 981 01e0 00000000 		.word	USBUART_1_interfaceClass
 982              	.LBE2:
 983              		.cfi_endproc
 984              	.LFE4:
 985              		.size	USBUART_1_Config, .-USBUART_1_Config
 986              		.section	.text.USBUART_1_TerminateEP,"ax",%progbits
 987              		.align	2
 988              		.global	USBUART_1_TerminateEP
 989              		.thumb
 990              		.thumb_func
 991              		.type	USBUART_1_TerminateEP, %function
 992              	USBUART_1_TerminateEP:
 993              	.LFB9:
1053:Generated_Source\PSoC5/USBUART_1_std.c **** 
1054:Generated_Source\PSoC5/USBUART_1_std.c **** 
1055:Generated_Source\PSoC5/USBUART_1_std.c **** /*******************************************************************************
1056:Generated_Source\PSoC5/USBUART_1_std.c **** * Function Name: USBUART_1_TerminateEP
1057:Generated_Source\PSoC5/USBUART_1_std.c **** ****************************************************************************//**
1058:Generated_Source\PSoC5/USBUART_1_std.c **** *
1059:Generated_Source\PSoC5/USBUART_1_std.c **** *  This function terminates the specified USBFS endpoint.
1060:Generated_Source\PSoC5/USBUART_1_std.c **** *  This function should be used before endpoint reconfiguration.
1061:Generated_Source\PSoC5/USBUART_1_std.c **** *
1062:Generated_Source\PSoC5/USBUART_1_std.c **** *  \param ep Contains the data endpoint number.
1063:Generated_Source\PSoC5/USBUART_1_std.c **** *
1064:Generated_Source\PSoC5/USBUART_1_std.c **** *  \reentrant
1065:Generated_Source\PSoC5/USBUART_1_std.c **** *  No.
1066:Generated_Source\PSoC5/USBUART_1_std.c **** *
1067:Generated_Source\PSoC5/USBUART_1_std.c **** * \sideeffect
1068:Generated_Source\PSoC5/USBUART_1_std.c **** * 
1069:Generated_Source\PSoC5/USBUART_1_std.c **** * The device responds with a NAK for any transactions on the selected endpoint.
ARM GAS  C:\Users\DGILLI~1\AppData\Local\Temp\ccItuQxT.s 			page 39


1070:Generated_Source\PSoC5/USBUART_1_std.c **** *   
1071:Generated_Source\PSoC5/USBUART_1_std.c **** *******************************************************************************/
1072:Generated_Source\PSoC5/USBUART_1_std.c **** void USBUART_1_TerminateEP(uint8 epNumber) 
1073:Generated_Source\PSoC5/USBUART_1_std.c **** {
 994              		.loc 1 1073 0
 995              		.cfi_startproc
 996              		@ args = 0, pretend = 0, frame = 0
 997              		@ frame_needed = 0, uses_anonymous_args = 0
 998              		@ link register save eliminated.
 999              	.LVL99:
1074:Generated_Source\PSoC5/USBUART_1_std.c ****     /* Get endpoint number */
1075:Generated_Source\PSoC5/USBUART_1_std.c ****     epNumber &= USBUART_1_DIR_UNUSED;
 1000              		.loc 1 1075 0
 1001 0000 00F07F00 		and	r0, r0, #127
 1002              	.LVL100:
1076:Generated_Source\PSoC5/USBUART_1_std.c **** 
1077:Generated_Source\PSoC5/USBUART_1_std.c ****     if ((epNumber > USBUART_1_EP0) && (epNumber < USBUART_1_MAX_EP))
 1003              		.loc 1 1077 0
 1004 0004 431E     		subs	r3, r0, #1
 1005 0006 DBB2     		uxtb	r3, r3
 1006 0008 072B     		cmp	r3, #7
 1007 000a 19D8     		bhi	.L82
1078:Generated_Source\PSoC5/USBUART_1_std.c ****     {
1079:Generated_Source\PSoC5/USBUART_1_std.c ****         /* Set the endpoint Halt */
1080:Generated_Source\PSoC5/USBUART_1_std.c ****         USBUART_1_EP[epNumber].hwEpState |= USBUART_1_ENDPOINT_STATUS_HALT;
 1008              		.loc 1 1080 0
 1009 000c 4300     		lsls	r3, r0, #1
 1010 000e 0344     		add	r3, r3, r0
 1011 0010 9B00     		lsls	r3, r3, #2
 1012 0012 0C4A     		ldr	r2, .L85
 1013 0014 1344     		add	r3, r3, r2
 1014 0016 9A78     		ldrb	r2, [r3, #2]	@ zero_extendqisi2
 1015 0018 42F00102 		orr	r2, r2, #1
 1016 001c 9A70     		strb	r2, [r3, #2]
1081:Generated_Source\PSoC5/USBUART_1_std.c **** 
1082:Generated_Source\PSoC5/USBUART_1_std.c ****         /* Clear the data toggle */
1083:Generated_Source\PSoC5/USBUART_1_std.c ****         USBUART_1_EP[epNumber].epToggle = 0u;
 1017              		.loc 1 1083 0
 1018 001e 0022     		movs	r2, #0
 1019 0020 DA70     		strb	r2, [r3, #3]
1084:Generated_Source\PSoC5/USBUART_1_std.c ****         USBUART_1_EP[epNumber].apiEpState = USBUART_1_NO_EVENT_ALLOWED;
 1020              		.loc 1 1084 0
 1021 0022 0222     		movs	r2, #2
 1022 0024 5A70     		strb	r2, [r3, #1]
1085:Generated_Source\PSoC5/USBUART_1_std.c **** 
1086:Generated_Source\PSoC5/USBUART_1_std.c ****         if ((USBUART_1_EP[epNumber].addr & USBUART_1_DIR_IN) != 0u)
 1023              		.loc 1 1086 0
 1024 0026 1B79     		ldrb	r3, [r3, #4]	@ zero_extendqisi2
 1025 0028 13F0800F 		tst	r3, #128
 1026 002c 04D0     		beq	.L84
1087:Generated_Source\PSoC5/USBUART_1_std.c ****         {   
1088:Generated_Source\PSoC5/USBUART_1_std.c ****             /* IN Endpoint */
1089:Generated_Source\PSoC5/USBUART_1_std.c ****             USBUART_1_SIE_EP_BASE.sieEp[epNumber].epCr0 = USBUART_1_MODE_NAK_IN;
 1027              		.loc 1 1089 0
 1028 002e 0001     		lsls	r0, r0, #4
 1029              	.LVL101:
 1030 0030 054B     		ldr	r3, .L85+4
ARM GAS  C:\Users\DGILLI~1\AppData\Local\Temp\ccItuQxT.s 			page 40


 1031 0032 0C22     		movs	r2, #12
 1032 0034 1A54     		strb	r2, [r3, r0]
 1033 0036 7047     		bx	lr
 1034              	.LVL102:
 1035              	.L84:
1090:Generated_Source\PSoC5/USBUART_1_std.c ****         }
1091:Generated_Source\PSoC5/USBUART_1_std.c ****         else
1092:Generated_Source\PSoC5/USBUART_1_std.c ****         {
1093:Generated_Source\PSoC5/USBUART_1_std.c ****             /* OUT Endpoint */
1094:Generated_Source\PSoC5/USBUART_1_std.c ****             USBUART_1_SIE_EP_BASE.sieEp[epNumber].epCr0 = USBUART_1_MODE_NAK_OUT;
 1036              		.loc 1 1094 0
 1037 0038 0001     		lsls	r0, r0, #4
 1038              	.LVL103:
 1039 003a 034B     		ldr	r3, .L85+4
 1040 003c 0822     		movs	r2, #8
 1041 003e 1A54     		strb	r2, [r3, r0]
 1042              	.L82:
 1043 0040 7047     		bx	lr
 1044              	.L86:
 1045 0042 00BF     		.align	2
 1046              	.L85:
 1047 0044 00000000 		.word	USBUART_1_EP
 1048 0048 FE5F0040 		.word	1073766398
 1049              		.cfi_endproc
 1050              	.LFE9:
 1051              		.size	USBUART_1_TerminateEP, .-USBUART_1_TerminateEP
 1052              		.section	.text.USBUART_1_SetEndpointHalt,"ax",%progbits
 1053              		.align	2
 1054              		.global	USBUART_1_SetEndpointHalt
 1055              		.thumb
 1056              		.thumb_func
 1057              		.type	USBUART_1_SetEndpointHalt, %function
 1058              	USBUART_1_SetEndpointHalt:
 1059              	.LFB10:
1095:Generated_Source\PSoC5/USBUART_1_std.c ****         }
1096:Generated_Source\PSoC5/USBUART_1_std.c ****     }
1097:Generated_Source\PSoC5/USBUART_1_std.c **** }
1098:Generated_Source\PSoC5/USBUART_1_std.c **** 
1099:Generated_Source\PSoC5/USBUART_1_std.c **** 
1100:Generated_Source\PSoC5/USBUART_1_std.c **** /*******************************************************************************
1101:Generated_Source\PSoC5/USBUART_1_std.c **** * Function Name: USBUART_1_SetEndpointHalt
1102:Generated_Source\PSoC5/USBUART_1_std.c **** ****************************************************************************//**
1103:Generated_Source\PSoC5/USBUART_1_std.c **** *
1104:Generated_Source\PSoC5/USBUART_1_std.c **** *  This routine handles set endpoint halt.
1105:Generated_Source\PSoC5/USBUART_1_std.c **** *
1106:Generated_Source\PSoC5/USBUART_1_std.c **** * \return
1107:Generated_Source\PSoC5/USBUART_1_std.c **** *  requestHandled.
1108:Generated_Source\PSoC5/USBUART_1_std.c **** *
1109:Generated_Source\PSoC5/USBUART_1_std.c **** * \reentrant
1110:Generated_Source\PSoC5/USBUART_1_std.c **** *  No.
1111:Generated_Source\PSoC5/USBUART_1_std.c **** *
1112:Generated_Source\PSoC5/USBUART_1_std.c **** *******************************************************************************/
1113:Generated_Source\PSoC5/USBUART_1_std.c **** uint8 USBUART_1_SetEndpointHalt(void) 
1114:Generated_Source\PSoC5/USBUART_1_std.c **** {
 1060              		.loc 1 1114 0
 1061              		.cfi_startproc
 1062              		@ args = 0, pretend = 0, frame = 0
ARM GAS  C:\Users\DGILLI~1\AppData\Local\Temp\ccItuQxT.s 			page 41


 1063              		@ frame_needed = 0, uses_anonymous_args = 0
 1064 0000 08B5     		push	{r3, lr}
 1065              		.cfi_def_cfa_offset 8
 1066              		.cfi_offset 3, -8
 1067              		.cfi_offset 14, -4
 1068              	.LVL104:
1115:Generated_Source\PSoC5/USBUART_1_std.c ****     uint8 requestHandled = USBUART_1_FALSE;
1116:Generated_Source\PSoC5/USBUART_1_std.c ****     uint8 ep;
1117:Generated_Source\PSoC5/USBUART_1_std.c ****     
1118:Generated_Source\PSoC5/USBUART_1_std.c ****     /* Set endpoint halt */
1119:Generated_Source\PSoC5/USBUART_1_std.c ****     ep = USBUART_1_wIndexLoReg & USBUART_1_DIR_UNUSED;
 1069              		.loc 1 1119 0
 1070 0002 154B     		ldr	r3, .L93
 1071 0004 1A79     		ldrb	r2, [r3, #4]	@ zero_extendqisi2
 1072 0006 02F07F02 		and	r2, r2, #127
 1073              	.LVL105:
1120:Generated_Source\PSoC5/USBUART_1_std.c **** 
1121:Generated_Source\PSoC5/USBUART_1_std.c ****     if ((ep > USBUART_1_EP0) && (ep < USBUART_1_MAX_EP))
 1074              		.loc 1 1121 0
 1075 000a 531E     		subs	r3, r2, #1
 1076 000c DBB2     		uxtb	r3, r3
 1077 000e 072B     		cmp	r3, #7
 1078 0010 20D8     		bhi	.L91
1122:Generated_Source\PSoC5/USBUART_1_std.c ****     {
1123:Generated_Source\PSoC5/USBUART_1_std.c ****         /* Set the endpoint Halt */
1124:Generated_Source\PSoC5/USBUART_1_std.c ****         USBUART_1_EP[ep].hwEpState |= (USBUART_1_ENDPOINT_STATUS_HALT);
 1079              		.loc 1 1124 0
 1080 0012 5300     		lsls	r3, r2, #1
 1081 0014 1344     		add	r3, r3, r2
 1082 0016 9B00     		lsls	r3, r3, #2
 1083 0018 1049     		ldr	r1, .L93+4
 1084 001a 0B44     		add	r3, r3, r1
 1085 001c 9978     		ldrb	r1, [r3, #2]	@ zero_extendqisi2
 1086 001e 41F00101 		orr	r1, r1, #1
 1087 0022 9970     		strb	r1, [r3, #2]
1125:Generated_Source\PSoC5/USBUART_1_std.c **** 
1126:Generated_Source\PSoC5/USBUART_1_std.c ****         /* Clear the data toggle */
1127:Generated_Source\PSoC5/USBUART_1_std.c ****         USBUART_1_EP[ep].epToggle = 0u;
 1088              		.loc 1 1127 0
 1089 0024 0021     		movs	r1, #0
 1090 0026 D970     		strb	r1, [r3, #3]
1128:Generated_Source\PSoC5/USBUART_1_std.c ****         USBUART_1_EP[ep].apiEpState |= USBUART_1_NO_EVENT_ALLOWED;
 1091              		.loc 1 1128 0
 1092 0028 5978     		ldrb	r1, [r3, #1]	@ zero_extendqisi2
 1093 002a 41F00201 		orr	r1, r1, #2
 1094 002e 5970     		strb	r1, [r3, #1]
1129:Generated_Source\PSoC5/USBUART_1_std.c **** 
1130:Generated_Source\PSoC5/USBUART_1_std.c ****         if ((USBUART_1_EP[ep].addr & USBUART_1_DIR_IN) != 0u)
 1095              		.loc 1 1130 0
 1096 0030 1B79     		ldrb	r3, [r3, #4]	@ zero_extendqisi2
 1097 0032 13F0800F 		tst	r3, #128
 1098 0036 05D0     		beq	.L89
1131:Generated_Source\PSoC5/USBUART_1_std.c ****         {
1132:Generated_Source\PSoC5/USBUART_1_std.c ****             /* IN Endpoint */
1133:Generated_Source\PSoC5/USBUART_1_std.c ****             USBUART_1_SIE_EP_BASE.sieEp[ep].epCr0 = (USBUART_1_MODE_STALL_DATA_EP | 
 1099              		.loc 1 1133 0
 1100 0038 1201     		lsls	r2, r2, #4
ARM GAS  C:\Users\DGILLI~1\AppData\Local\Temp\ccItuQxT.s 			page 42


 1101              	.LVL106:
 1102 003a 094B     		ldr	r3, .L93+8
 1103 003c 1344     		add	r3, r3, r2
 1104 003e 8D22     		movs	r2, #141
 1105 0040 9A70     		strb	r2, [r3, #2]
 1106 0042 04E0     		b	.L90
 1107              	.LVL107:
 1108              	.L89:
1134:Generated_Source\PSoC5/USBUART_1_std.c ****                                                             USBUART_1_MODE_ACK_IN);
1135:Generated_Source\PSoC5/USBUART_1_std.c ****         }
1136:Generated_Source\PSoC5/USBUART_1_std.c ****         else
1137:Generated_Source\PSoC5/USBUART_1_std.c ****         {
1138:Generated_Source\PSoC5/USBUART_1_std.c ****             /* OUT Endpoint */
1139:Generated_Source\PSoC5/USBUART_1_std.c ****             USBUART_1_SIE_EP_BASE.sieEp[ep].epCr0 = (USBUART_1_MODE_STALL_DATA_EP | 
 1109              		.loc 1 1139 0
 1110 0044 1201     		lsls	r2, r2, #4
 1111              	.LVL108:
 1112 0046 064B     		ldr	r3, .L93+8
 1113 0048 1344     		add	r3, r3, r2
 1114 004a 8922     		movs	r2, #137
 1115 004c 9A70     		strb	r2, [r3, #2]
 1116              	.L90:
1140:Generated_Source\PSoC5/USBUART_1_std.c ****                                                             USBUART_1_MODE_ACK_OUT);
1141:Generated_Source\PSoC5/USBUART_1_std.c ****         }
1142:Generated_Source\PSoC5/USBUART_1_std.c ****         requestHandled = USBUART_1_InitNoDataControlTransfer();
 1117              		.loc 1 1142 0
 1118 004e FFF7FEFF 		bl	USBUART_1_InitNoDataControlTransfer
 1119              	.LVL109:
 1120 0052 08BD     		pop	{r3, pc}
 1121              	.LVL110:
 1122              	.L91:
1115:Generated_Source\PSoC5/USBUART_1_std.c ****     uint8 ep;
 1123              		.loc 1 1115 0
 1124 0054 0020     		movs	r0, #0
 1125              	.LVL111:
1143:Generated_Source\PSoC5/USBUART_1_std.c ****     }
1144:Generated_Source\PSoC5/USBUART_1_std.c **** 
1145:Generated_Source\PSoC5/USBUART_1_std.c ****     return (requestHandled);
1146:Generated_Source\PSoC5/USBUART_1_std.c **** }
 1126              		.loc 1 1146 0
 1127 0056 08BD     		pop	{r3, pc}
 1128              	.L94:
 1129              		.align	2
 1130              	.L93:
 1131 0058 00600040 		.word	1073766400
 1132 005c 00000000 		.word	USBUART_1_EP
 1133 0060 FC5F0040 		.word	1073766396
 1134              		.cfi_endproc
 1135              	.LFE10:
 1136              		.size	USBUART_1_SetEndpointHalt, .-USBUART_1_SetEndpointHalt
 1137              		.section	.text.USBUART_1_ClearEndpointHalt,"ax",%progbits
 1138              		.align	2
 1139              		.global	USBUART_1_ClearEndpointHalt
 1140              		.thumb
 1141              		.thumb_func
 1142              		.type	USBUART_1_ClearEndpointHalt, %function
 1143              	USBUART_1_ClearEndpointHalt:
ARM GAS  C:\Users\DGILLI~1\AppData\Local\Temp\ccItuQxT.s 			page 43


 1144              	.LFB11:
1147:Generated_Source\PSoC5/USBUART_1_std.c **** 
1148:Generated_Source\PSoC5/USBUART_1_std.c **** 
1149:Generated_Source\PSoC5/USBUART_1_std.c **** /*******************************************************************************
1150:Generated_Source\PSoC5/USBUART_1_std.c **** * Function Name: USBUART_1_ClearEndpointHalt
1151:Generated_Source\PSoC5/USBUART_1_std.c **** ****************************************************************************//**
1152:Generated_Source\PSoC5/USBUART_1_std.c **** *
1153:Generated_Source\PSoC5/USBUART_1_std.c **** *  This routine handles clear endpoint halt.
1154:Generated_Source\PSoC5/USBUART_1_std.c **** *
1155:Generated_Source\PSoC5/USBUART_1_std.c **** * \return
1156:Generated_Source\PSoC5/USBUART_1_std.c **** *  requestHandled.
1157:Generated_Source\PSoC5/USBUART_1_std.c **** *
1158:Generated_Source\PSoC5/USBUART_1_std.c **** * \reentrant
1159:Generated_Source\PSoC5/USBUART_1_std.c **** *  No.
1160:Generated_Source\PSoC5/USBUART_1_std.c **** *
1161:Generated_Source\PSoC5/USBUART_1_std.c **** *******************************************************************************/
1162:Generated_Source\PSoC5/USBUART_1_std.c **** uint8 USBUART_1_ClearEndpointHalt(void) 
1163:Generated_Source\PSoC5/USBUART_1_std.c **** {
 1145              		.loc 1 1163 0
 1146              		.cfi_startproc
 1147              		@ args = 0, pretend = 0, frame = 0
 1148              		@ frame_needed = 0, uses_anonymous_args = 0
 1149              	.LVL112:
1164:Generated_Source\PSoC5/USBUART_1_std.c ****     uint8 requestHandled = USBUART_1_FALSE;
1165:Generated_Source\PSoC5/USBUART_1_std.c ****     uint8 ep;
1166:Generated_Source\PSoC5/USBUART_1_std.c **** 
1167:Generated_Source\PSoC5/USBUART_1_std.c ****     /* Clear endpoint halt */
1168:Generated_Source\PSoC5/USBUART_1_std.c ****     ep = USBUART_1_wIndexLoReg & USBUART_1_DIR_UNUSED;
 1150              		.loc 1 1168 0
 1151 0000 264B     		ldr	r3, .L104
 1152 0002 1B79     		ldrb	r3, [r3, #4]	@ zero_extendqisi2
 1153 0004 03F07F03 		and	r3, r3, #127
 1154              	.LVL113:
1169:Generated_Source\PSoC5/USBUART_1_std.c **** 
1170:Generated_Source\PSoC5/USBUART_1_std.c ****     if ((ep > USBUART_1_EP0) && (ep < USBUART_1_MAX_EP))
 1155              		.loc 1 1170 0
 1156 0008 5A1E     		subs	r2, r3, #1
 1157 000a D2B2     		uxtb	r2, r2
 1158 000c 072A     		cmp	r2, #7
 1159 000e 43D8     		bhi	.L101
1163:Generated_Source\PSoC5/USBUART_1_std.c ****     uint8 requestHandled = USBUART_1_FALSE;
 1160              		.loc 1 1163 0
 1161 0010 10B5     		push	{r4, lr}
 1162              		.cfi_def_cfa_offset 8
 1163              		.cfi_offset 4, -8
 1164              		.cfi_offset 14, -4
1171:Generated_Source\PSoC5/USBUART_1_std.c ****     {
1172:Generated_Source\PSoC5/USBUART_1_std.c ****         /* Clear the endpoint Halt */
1173:Generated_Source\PSoC5/USBUART_1_std.c ****         USBUART_1_EP[ep].hwEpState &= (uint8) ~USBUART_1_ENDPOINT_STATUS_HALT;
 1165              		.loc 1 1173 0
 1166 0012 5A00     		lsls	r2, r3, #1
 1167 0014 1A44     		add	r2, r2, r3
 1168 0016 9200     		lsls	r2, r2, #2
 1169 0018 2149     		ldr	r1, .L104+4
 1170 001a 0A44     		add	r2, r2, r1
 1171 001c 9178     		ldrb	r1, [r2, #2]	@ zero_extendqisi2
 1172 001e 01F0FE01 		and	r1, r1, #254
ARM GAS  C:\Users\DGILLI~1\AppData\Local\Temp\ccItuQxT.s 			page 44


 1173 0022 9170     		strb	r1, [r2, #2]
1174:Generated_Source\PSoC5/USBUART_1_std.c **** 
1175:Generated_Source\PSoC5/USBUART_1_std.c ****         /* Clear the data toggle */
1176:Generated_Source\PSoC5/USBUART_1_std.c ****         USBUART_1_EP[ep].epToggle = 0u;
 1174              		.loc 1 1176 0
 1175 0024 0021     		movs	r1, #0
 1176 0026 D170     		strb	r1, [r2, #3]
1177:Generated_Source\PSoC5/USBUART_1_std.c ****         
1178:Generated_Source\PSoC5/USBUART_1_std.c ****         /* Clear toggle bit for already armed packet */
1179:Generated_Source\PSoC5/USBUART_1_std.c ****         USBUART_1_SIE_EP_BASE.sieEp[ep].epCnt0 = (uint8) ~(uint8)USBUART_1_EPX_CNT_DATA_TOGGLE;
 1177              		.loc 1 1179 0
 1178 0028 1901     		lsls	r1, r3, #4
 1179 002a 7F24     		movs	r4, #127
 1180 002c 1D48     		ldr	r0, .L104+8
 1181 002e 4454     		strb	r4, [r0, r1]
1180:Generated_Source\PSoC5/USBUART_1_std.c ****         
1181:Generated_Source\PSoC5/USBUART_1_std.c ****         /* Return API State as it was defined before */
1182:Generated_Source\PSoC5/USBUART_1_std.c ****         USBUART_1_EP[ep].apiEpState &= (uint8) ~USBUART_1_NO_EVENT_ALLOWED;
 1182              		.loc 1 1182 0
 1183 0030 5178     		ldrb	r1, [r2, #1]	@ zero_extendqisi2
 1184 0032 01F0FD01 		and	r1, r1, #253
 1185 0036 5170     		strb	r1, [r2, #1]
1183:Generated_Source\PSoC5/USBUART_1_std.c **** 
1184:Generated_Source\PSoC5/USBUART_1_std.c ****         if ((USBUART_1_EP[ep].addr & USBUART_1_DIR_IN) != 0u)
 1186              		.loc 1 1184 0
 1187 0038 1279     		ldrb	r2, [r2, #4]	@ zero_extendqisi2
 1188 003a 12F0800F 		tst	r2, #128
 1189 003e 14D0     		beq	.L97
1185:Generated_Source\PSoC5/USBUART_1_std.c ****         {
1186:Generated_Source\PSoC5/USBUART_1_std.c ****             /* IN Endpoint */
1187:Generated_Source\PSoC5/USBUART_1_std.c ****             if(USBUART_1_EP[ep].apiEpState == USBUART_1_IN_BUFFER_EMPTY)
 1190              		.loc 1 1187 0
 1191 0040 03EB4302 		add	r2, r3, r3, lsl #1
 1192 0044 9200     		lsls	r2, r2, #2
 1193 0046 1649     		ldr	r1, .L104+4
 1194 0048 0A44     		add	r2, r2, r1
 1195 004a 5278     		ldrb	r2, [r2, #1]	@ zero_extendqisi2
 1196 004c D2B2     		uxtb	r2, r2
 1197 004e 012A     		cmp	r2, #1
 1198 0050 05D1     		bne	.L98
1188:Generated_Source\PSoC5/USBUART_1_std.c ****             {       
1189:Generated_Source\PSoC5/USBUART_1_std.c ****                 /* Wait for next packet from application */
1190:Generated_Source\PSoC5/USBUART_1_std.c ****                 USBUART_1_SIE_EP_BASE.sieEp[ep].epCr0 = USBUART_1_MODE_NAK_IN;
 1199              		.loc 1 1190 0
 1200 0052 1B01     		lsls	r3, r3, #4
 1201              	.LVL114:
 1202 0054 0246     		mov	r2, r0
 1203 0056 1A44     		add	r2, r2, r3
 1204 0058 0C23     		movs	r3, #12
 1205 005a 9370     		strb	r3, [r2, #2]
 1206 005c 19E0     		b	.L99
 1207              	.LVL115:
 1208              	.L98:
1191:Generated_Source\PSoC5/USBUART_1_std.c ****             }
1192:Generated_Source\PSoC5/USBUART_1_std.c ****             else    /* Continue armed transfer */
1193:Generated_Source\PSoC5/USBUART_1_std.c ****             {
1194:Generated_Source\PSoC5/USBUART_1_std.c ****                 USBUART_1_SIE_EP_BASE.sieEp[ep].epCr0 = USBUART_1_MODE_ACK_IN;
ARM GAS  C:\Users\DGILLI~1\AppData\Local\Temp\ccItuQxT.s 			page 45


 1209              		.loc 1 1194 0
 1210 005e 1B01     		lsls	r3, r3, #4
 1211              	.LVL116:
 1212 0060 104A     		ldr	r2, .L104+8
 1213 0062 1A44     		add	r2, r2, r3
 1214 0064 0D23     		movs	r3, #13
 1215 0066 9370     		strb	r3, [r2, #2]
 1216 0068 13E0     		b	.L99
 1217              	.LVL117:
 1218              	.L97:
1195:Generated_Source\PSoC5/USBUART_1_std.c ****             }
1196:Generated_Source\PSoC5/USBUART_1_std.c ****         }
1197:Generated_Source\PSoC5/USBUART_1_std.c ****         else
1198:Generated_Source\PSoC5/USBUART_1_std.c ****         {
1199:Generated_Source\PSoC5/USBUART_1_std.c ****             /* OUT Endpoint */
1200:Generated_Source\PSoC5/USBUART_1_std.c ****             if (USBUART_1_EP[ep].apiEpState == USBUART_1_OUT_BUFFER_FULL)
 1219              		.loc 1 1200 0
 1220 006a 03EB4302 		add	r2, r3, r3, lsl #1
 1221 006e 9200     		lsls	r2, r2, #2
 1222 0070 0B49     		ldr	r1, .L104+4
 1223 0072 0A44     		add	r2, r2, r1
 1224 0074 5278     		ldrb	r2, [r2, #1]	@ zero_extendqisi2
 1225 0076 D2B2     		uxtb	r2, r2
 1226 0078 012A     		cmp	r2, #1
 1227 007a 05D1     		bne	.L100
1201:Generated_Source\PSoC5/USBUART_1_std.c ****             {       
1202:Generated_Source\PSoC5/USBUART_1_std.c ****                 /* Allow application to read full buffer */
1203:Generated_Source\PSoC5/USBUART_1_std.c ****                 USBUART_1_SIE_EP_BASE.sieEp[ep].epCr0 = USBUART_1_MODE_NAK_OUT;
 1228              		.loc 1 1203 0
 1229 007c 1B01     		lsls	r3, r3, #4
 1230              	.LVL118:
 1231 007e 094A     		ldr	r2, .L104+8
 1232 0080 1A44     		add	r2, r2, r3
 1233 0082 0823     		movs	r3, #8
 1234 0084 9370     		strb	r3, [r2, #2]
 1235 0086 04E0     		b	.L99
 1236              	.LVL119:
 1237              	.L100:
1204:Generated_Source\PSoC5/USBUART_1_std.c ****             }
1205:Generated_Source\PSoC5/USBUART_1_std.c ****             else    /* Mark endpoint as empty, so it will be reloaded */
1206:Generated_Source\PSoC5/USBUART_1_std.c ****             {
1207:Generated_Source\PSoC5/USBUART_1_std.c ****                 USBUART_1_SIE_EP_BASE.sieEp[ep].epCr0 = USBUART_1_MODE_ACK_OUT;
 1238              		.loc 1 1207 0
 1239 0088 1B01     		lsls	r3, r3, #4
 1240              	.LVL120:
 1241 008a 064A     		ldr	r2, .L104+8
 1242 008c 1A44     		add	r2, r2, r3
 1243 008e 0923     		movs	r3, #9
 1244 0090 9370     		strb	r3, [r2, #2]
 1245              	.L99:
1208:Generated_Source\PSoC5/USBUART_1_std.c ****             }
1209:Generated_Source\PSoC5/USBUART_1_std.c ****         }
1210:Generated_Source\PSoC5/USBUART_1_std.c ****         
1211:Generated_Source\PSoC5/USBUART_1_std.c ****         requestHandled = USBUART_1_InitNoDataControlTransfer();
 1246              		.loc 1 1211 0
 1247 0092 FFF7FEFF 		bl	USBUART_1_InitNoDataControlTransfer
 1248              	.LVL121:
ARM GAS  C:\Users\DGILLI~1\AppData\Local\Temp\ccItuQxT.s 			page 46


 1249 0096 10BD     		pop	{r4, pc}
 1250              	.LVL122:
 1251              	.L101:
 1252              		.cfi_def_cfa_offset 0
 1253              		.cfi_restore 4
 1254              		.cfi_restore 14
1164:Generated_Source\PSoC5/USBUART_1_std.c ****     uint8 ep;
 1255              		.loc 1 1164 0
 1256 0098 0020     		movs	r0, #0
 1257 009a 7047     		bx	lr
 1258              	.L105:
 1259              		.align	2
 1260              	.L104:
 1261 009c 00600040 		.word	1073766400
 1262 00a0 00000000 		.word	USBUART_1_EP
 1263 00a4 FC5F0040 		.word	1073766396
 1264              		.cfi_endproc
 1265              	.LFE11:
 1266              		.size	USBUART_1_ClearEndpointHalt, .-USBUART_1_ClearEndpointHalt
 1267              		.section	.text.USBUART_1_ValidateAlternateSetting,"ax",%progbits
 1268              		.align	2
 1269              		.global	USBUART_1_ValidateAlternateSetting
 1270              		.thumb
 1271              		.thumb_func
 1272              		.type	USBUART_1_ValidateAlternateSetting, %function
 1273              	USBUART_1_ValidateAlternateSetting:
 1274              	.LFB12:
1212:Generated_Source\PSoC5/USBUART_1_std.c ****     }
1213:Generated_Source\PSoC5/USBUART_1_std.c **** 
1214:Generated_Source\PSoC5/USBUART_1_std.c ****     return(requestHandled);
1215:Generated_Source\PSoC5/USBUART_1_std.c **** }
1216:Generated_Source\PSoC5/USBUART_1_std.c **** 
1217:Generated_Source\PSoC5/USBUART_1_std.c **** 
1218:Generated_Source\PSoC5/USBUART_1_std.c **** /*******************************************************************************
1219:Generated_Source\PSoC5/USBUART_1_std.c **** * Function Name: USBUART_1_ValidateAlternateSetting
1220:Generated_Source\PSoC5/USBUART_1_std.c **** ****************************************************************************//**
1221:Generated_Source\PSoC5/USBUART_1_std.c **** *
1222:Generated_Source\PSoC5/USBUART_1_std.c **** *  Validates (and records) a SET INTERFACE request.
1223:Generated_Source\PSoC5/USBUART_1_std.c **** *
1224:Generated_Source\PSoC5/USBUART_1_std.c **** * \return
1225:Generated_Source\PSoC5/USBUART_1_std.c **** *  requestHandled.
1226:Generated_Source\PSoC5/USBUART_1_std.c **** *
1227:Generated_Source\PSoC5/USBUART_1_std.c **** * \reentrant
1228:Generated_Source\PSoC5/USBUART_1_std.c **** *  No.
1229:Generated_Source\PSoC5/USBUART_1_std.c **** *
1230:Generated_Source\PSoC5/USBUART_1_std.c **** *******************************************************************************/
1231:Generated_Source\PSoC5/USBUART_1_std.c **** uint8 USBUART_1_ValidateAlternateSetting(void) 
1232:Generated_Source\PSoC5/USBUART_1_std.c **** {
 1275              		.loc 1 1232 0
 1276              		.cfi_startproc
 1277              		@ args = 0, pretend = 0, frame = 0
 1278              		@ frame_needed = 0, uses_anonymous_args = 0
 1279 0000 10B5     		push	{r4, lr}
 1280              		.cfi_def_cfa_offset 8
 1281              		.cfi_offset 4, -8
 1282              		.cfi_offset 14, -4
 1283              	.LVL123:
ARM GAS  C:\Users\DGILLI~1\AppData\Local\Temp\ccItuQxT.s 			page 47


1233:Generated_Source\PSoC5/USBUART_1_std.c ****     uint8 requestHandled = USBUART_1_FALSE;
1234:Generated_Source\PSoC5/USBUART_1_std.c ****     
1235:Generated_Source\PSoC5/USBUART_1_std.c ****     uint8 interfaceNum;
1236:Generated_Source\PSoC5/USBUART_1_std.c ****     uint8 curInterfacesNum;
1237:Generated_Source\PSoC5/USBUART_1_std.c ****     const T_USBUART_1_LUT CYCODE *pTmp;
1238:Generated_Source\PSoC5/USBUART_1_std.c ****     
1239:Generated_Source\PSoC5/USBUART_1_std.c ****     /* Get interface number from the request. */
1240:Generated_Source\PSoC5/USBUART_1_std.c ****     interfaceNum = (uint8) USBUART_1_wIndexLoReg;
 1284              		.loc 1 1240 0
 1285 0002 0E4B     		ldr	r3, .L111
 1286 0004 1C79     		ldrb	r4, [r3, #4]	@ zero_extendqisi2
 1287 0006 E4B2     		uxtb	r4, r4
 1288              	.LVL124:
1241:Generated_Source\PSoC5/USBUART_1_std.c ****     
1242:Generated_Source\PSoC5/USBUART_1_std.c ****     /* Get number of interfaces for current configuration. */
1243:Generated_Source\PSoC5/USBUART_1_std.c ****     pTmp = USBUART_1_GetConfigTablePtr(USBUART_1_configuration - 1u);
 1289              		.loc 1 1243 0
 1290 0008 0D4B     		ldr	r3, .L111+4
 1291 000a 1878     		ldrb	r0, [r3]	@ zero_extendqisi2
 1292 000c 0138     		subs	r0, r0, #1
 1293 000e C0B2     		uxtb	r0, r0
 1294 0010 FFF7FEFF 		bl	USBUART_1_GetConfigTablePtr
 1295              	.LVL125:
1244:Generated_Source\PSoC5/USBUART_1_std.c ****     curInterfacesNum  = ((const uint8 *) pTmp->p_list)[USBUART_1_CONFIG_DESCR_NUM_INTERFACES];
 1296              		.loc 1 1244 0
 1297 0014 4368     		ldr	r3, [r0, #4]
 1298 0016 1B79     		ldrb	r3, [r3, #4]	@ zero_extendqisi2
 1299              	.LVL126:
1245:Generated_Source\PSoC5/USBUART_1_std.c **** 
1246:Generated_Source\PSoC5/USBUART_1_std.c ****     /* Validate that interface number is within range. */
1247:Generated_Source\PSoC5/USBUART_1_std.c ****     if ((interfaceNum <= curInterfacesNum) || (interfaceNum <= USBUART_1_MAX_INTERFACES_NUMBER))
 1300              		.loc 1 1247 0
 1301 0018 9C42     		cmp	r4, r3
 1302 001a 01D9     		bls	.L107
 1303              		.loc 1 1247 0 is_stmt 0 discriminator 1
 1304 001c 022C     		cmp	r4, #2
 1305 001e 0AD8     		bhi	.L109
 1306              	.L107:
1248:Generated_Source\PSoC5/USBUART_1_std.c ****     {
1249:Generated_Source\PSoC5/USBUART_1_std.c ****         /* Save current and new alternate settings (come with request) to make 
1250:Generated_Source\PSoC5/USBUART_1_std.c ****         * desicion about following endpoint re-configuration.
1251:Generated_Source\PSoC5/USBUART_1_std.c ****         */
1252:Generated_Source\PSoC5/USBUART_1_std.c ****         USBUART_1_interfaceSettingLast[interfaceNum] = USBUART_1_interfaceSetting[interfaceNum];
 1307              		.loc 1 1252 0 is_stmt 1
 1308 0020 084A     		ldr	r2, .L111+8
 1309 0022 135D     		ldrb	r3, [r2, r4]	@ zero_extendqisi2
 1310              	.LVL127:
 1311 0024 DBB2     		uxtb	r3, r3
 1312 0026 0849     		ldr	r1, .L111+12
 1313 0028 0B55     		strb	r3, [r1, r4]
1253:Generated_Source\PSoC5/USBUART_1_std.c ****         USBUART_1_interfaceSetting[interfaceNum]     = (uint8) USBUART_1_wValueLoReg;
 1314              		.loc 1 1253 0
 1315 002a 044B     		ldr	r3, .L111
 1316 002c 9B78     		ldrb	r3, [r3, #2]	@ zero_extendqisi2
 1317 002e DBB2     		uxtb	r3, r3
 1318 0030 1355     		strb	r3, [r2, r4]
 1319              	.LVL128:
ARM GAS  C:\Users\DGILLI~1\AppData\Local\Temp\ccItuQxT.s 			page 48


1254:Generated_Source\PSoC5/USBUART_1_std.c ****         
1255:Generated_Source\PSoC5/USBUART_1_std.c ****         requestHandled = USBUART_1_TRUE;
 1320              		.loc 1 1255 0
 1321 0032 0120     		movs	r0, #1
 1322              	.LVL129:
 1323 0034 10BD     		pop	{r4, pc}
 1324              	.LVL130:
 1325              	.L109:
1233:Generated_Source\PSoC5/USBUART_1_std.c ****     
 1326              		.loc 1 1233 0
 1327 0036 0020     		movs	r0, #0
 1328              	.LVL131:
1256:Generated_Source\PSoC5/USBUART_1_std.c ****     }
1257:Generated_Source\PSoC5/USBUART_1_std.c **** 
1258:Generated_Source\PSoC5/USBUART_1_std.c ****     return (requestHandled);
1259:Generated_Source\PSoC5/USBUART_1_std.c **** }
 1329              		.loc 1 1259 0
 1330 0038 10BD     		pop	{r4, pc}
 1331              	.LVL132:
 1332              	.L112:
 1333 003a 00BF     		.align	2
 1334              	.L111:
 1335 003c 00600040 		.word	1073766400
 1336 0040 00000000 		.word	USBUART_1_configuration
 1337 0044 00000000 		.word	USBUART_1_interfaceSetting
 1338 0048 00000000 		.word	USBUART_1_interfaceSettingLast
 1339              		.cfi_endproc
 1340              	.LFE12:
 1341              		.size	USBUART_1_ValidateAlternateSetting, .-USBUART_1_ValidateAlternateSetting
 1342              		.section	.text.USBUART_1_HandleStandardRqst,"ax",%progbits
 1343              		.align	2
 1344              		.global	USBUART_1_HandleStandardRqst
 1345              		.thumb
 1346              		.thumb_func
 1347              		.type	USBUART_1_HandleStandardRqst, %function
 1348              	USBUART_1_HandleStandardRqst:
 1349              	.LFB0:
  85:Generated_Source\PSoC5/USBUART_1_std.c ****     uint8 requestHandled = USBUART_1_FALSE;
 1350              		.loc 1 85 0
 1351              		.cfi_startproc
 1352              		@ args = 0, pretend = 0, frame = 0
 1353              		@ frame_needed = 0, uses_anonymous_args = 0
 1354 0000 10B5     		push	{r4, lr}
 1355              		.cfi_def_cfa_offset 8
 1356              		.cfi_offset 4, -8
 1357              		.cfi_offset 14, -4
 1358              	.LVL133:
  89:Generated_Source\PSoC5/USBUART_1_std.c **** 
 1359              		.loc 1 89 0
 1360 0002 9B4B     		ldr	r3, .L168
 1361 0004 1B78     		ldrb	r3, [r3]	@ zero_extendqisi2
 1362 0006 DBB2     		uxtb	r3, r3
 1363              	.LVL134:
 102:Generated_Source\PSoC5/USBUART_1_std.c **** 
 1364              		.loc 1 102 0
 1365 0008 0021     		movs	r1, #0
 1366 000a 9A4A     		ldr	r2, .L168+4
ARM GAS  C:\Users\DGILLI~1\AppData\Local\Temp\ccItuQxT.s 			page 49


 1367 000c 1180     		strh	r1, [r2]	@ movhi
 104:Generated_Source\PSoC5/USBUART_1_std.c ****     {
 1368              		.loc 1 104 0
 1369 000e 13F0800F 		tst	r3, #128
 1370 0012 00F0AD80 		beq	.L114
 107:Generated_Source\PSoC5/USBUART_1_std.c ****         {
 1371              		.loc 1 107 0
 1372 0016 964A     		ldr	r2, .L168
 1373 0018 5278     		ldrb	r2, [r2, #1]	@ zero_extendqisi2
 1374 001a D2B2     		uxtb	r2, r2
 1375 001c 0A2A     		cmp	r2, #10
 1376 001e 00F27281 		bhi	.L147
 1377 0022 DFE812F0 		tbh	[pc, r2, lsl #1]
 1378              	.L117:
 1379 0026 6900     		.2byte	(.L116-.L117)/2
 1380 0028 7001     		.2byte	(.L147-.L117)/2
 1381 002a 7001     		.2byte	(.L147-.L117)/2
 1382 002c 7001     		.2byte	(.L147-.L117)/2
 1383 002e 7001     		.2byte	(.L147-.L117)/2
 1384 0030 7001     		.2byte	(.L147-.L117)/2
 1385 0032 0B00     		.2byte	(.L118-.L117)/2
 1386 0034 7001     		.2byte	(.L147-.L117)/2
 1387 0036 9200     		.2byte	(.L119-.L117)/2
 1388 0038 7001     		.2byte	(.L147-.L117)/2
 1389 003a 9A00     		.2byte	(.L120-.L117)/2
 1390              		.p2align 1
 1391              	.L118:
 110:Generated_Source\PSoC5/USBUART_1_std.c ****                 {
 1392              		.loc 1 110 0
 1393 003c 8C4B     		ldr	r3, .L168
 1394              	.LVL135:
 1395 003e DB78     		ldrb	r3, [r3, #3]	@ zero_extendqisi2
 1396 0040 DBB2     		uxtb	r3, r3
 1397 0042 012B     		cmp	r3, #1
 1398 0044 09D1     		bne	.L121
 112:Generated_Source\PSoC5/USBUART_1_std.c ****                     USBUART_1_currentTD.pData = (volatile uint8 *)pTmp->p_list;
 1399              		.loc 1 112 0
 1400 0046 FFF7FEFF 		bl	USBUART_1_GetDeviceTablePtr
 1401              	.LVL136:
 113:Generated_Source\PSoC5/USBUART_1_std.c ****                     USBUART_1_currentTD.count = USBUART_1_DEVICE_DESCR_LENGTH;
 1402              		.loc 1 113 0
 1403 004a 4268     		ldr	r2, [r0, #4]
 1404 004c 894B     		ldr	r3, .L168+4
 1405 004e 5A60     		str	r2, [r3, #4]
 114:Generated_Source\PSoC5/USBUART_1_std.c ****                     
 1406              		.loc 1 114 0
 1407 0050 1222     		movs	r2, #18
 1408 0052 1A80     		strh	r2, [r3]	@ movhi
 116:Generated_Source\PSoC5/USBUART_1_std.c ****                 }
 1409              		.loc 1 116 0
 1410 0054 FFF7FEFF 		bl	USBUART_1_InitControlRead
 1411              	.LVL137:
 1412 0058 10BD     		pop	{r4, pc}
 1413              	.LVL138:
 1414              	.L121:
 118:Generated_Source\PSoC5/USBUART_1_std.c ****                 {
 1415              		.loc 1 118 0
ARM GAS  C:\Users\DGILLI~1\AppData\Local\Temp\ccItuQxT.s 			page 50


 1416 005a 854B     		ldr	r3, .L168
 1417 005c DB78     		ldrb	r3, [r3, #3]	@ zero_extendqisi2
 1418 005e DBB2     		uxtb	r3, r3
 1419 0060 022B     		cmp	r3, #2
 1420 0062 13D1     		bne	.L122
 120:Generated_Source\PSoC5/USBUART_1_std.c ****                     
 1421              		.loc 1 120 0
 1422 0064 824B     		ldr	r3, .L168
 1423 0066 9878     		ldrb	r0, [r3, #2]	@ zero_extendqisi2
 1424 0068 FFF7FEFF 		bl	USBUART_1_GetConfigTablePtr
 1425              	.LVL139:
 123:Generated_Source\PSoC5/USBUART_1_std.c ****                     {
 1426              		.loc 1 123 0
 1427 006c 0028     		cmp	r0, #0
 1428 006e 00F04C81 		beq	.L148
 125:Generated_Source\PSoC5/USBUART_1_std.c ****                         USBUART_1_currentTD.count = (uint16)((uint16)(USBUART_1_currentTD.pData)[US
 1429              		.loc 1 125 0
 1430 0072 4268     		ldr	r2, [r0, #4]
 1431 0074 7F4B     		ldr	r3, .L168+4
 1432 0076 5A60     		str	r2, [r3, #4]
 126:Generated_Source\PSoC5/USBUART_1_std.c ****                                                                             (USBUART_1_currentTD.pD
 1433              		.loc 1 126 0
 1434 0078 5A68     		ldr	r2, [r3, #4]
 1435 007a D178     		ldrb	r1, [r2, #3]	@ zero_extendqisi2
 127:Generated_Source\PSoC5/USBUART_1_std.c ****                         requestHandled  = USBUART_1_InitControlRead();
 1436              		.loc 1 127 0
 1437 007c 5A68     		ldr	r2, [r3, #4]
 1438 007e 9278     		ldrb	r2, [r2, #2]	@ zero_extendqisi2
 126:Generated_Source\PSoC5/USBUART_1_std.c ****                                                                             (USBUART_1_currentTD.pD
 1439              		.loc 1 126 0
 1440 0080 42EA0122 		orr	r2, r2, r1, lsl #8
 1441 0084 1A80     		strh	r2, [r3]	@ movhi
 128:Generated_Source\PSoC5/USBUART_1_std.c ****                     }
 1442              		.loc 1 128 0
 1443 0086 FFF7FEFF 		bl	USBUART_1_InitControlRead
 1444              	.LVL140:
 1445 008a 10BD     		pop	{r4, pc}
 1446              	.LVL141:
 1447              	.L122:
 149:Generated_Source\PSoC5/USBUART_1_std.c ****                 {
 1448              		.loc 1 149 0
 1449 008c 784B     		ldr	r3, .L168
 1450 008e DB78     		ldrb	r3, [r3, #3]	@ zero_extendqisi2
 1451 0090 DBB2     		uxtb	r3, r3
 1452 0092 032B     		cmp	r3, #3
 1453 0094 05D0     		beq	.L149
 1454 0096 2CE0     		b	.L163
 1455              	.LVL142:
 1456              	.L126:
 159:Generated_Source\PSoC5/USBUART_1_std.c ****                         /* Move to next string descriptor */
 1457              		.loc 1 159 0
 1458 0098 0A78     		ldrb	r2, [r1]	@ zero_extendqisi2
 1459              	.LVL143:
 161:Generated_Source\PSoC5/USBUART_1_std.c ****                         nStr++;
 1460              		.loc 1 161 0
 1461 009a 1144     		add	r1, r1, r2
 1462              	.LVL144:
ARM GAS  C:\Users\DGILLI~1\AppData\Local\Temp\ccItuQxT.s 			page 51


 162:Generated_Source\PSoC5/USBUART_1_std.c ****                     }
 1463              		.loc 1 162 0
 1464 009c 0133     		adds	r3, r3, #1
 1465              	.LVL145:
 1466 009e DBB2     		uxtb	r3, r3
 1467              	.LVL146:
 1468 00a0 01E0     		b	.L123
 1469              	.LVL147:
 1470              	.L149:
 1471 00a2 0023     		movs	r3, #0
 1472 00a4 7449     		ldr	r1, .L168+8
 1473              	.LVL148:
 1474              	.L123:
 156:Generated_Source\PSoC5/USBUART_1_std.c ****                     {
 1475              		.loc 1 156 0
 1476 00a6 724A     		ldr	r2, .L168
 1477 00a8 9278     		ldrb	r2, [r2, #2]	@ zero_extendqisi2
 1478 00aa D2B2     		uxtb	r2, r2
 1479 00ac 9A42     		cmp	r2, r3
 1480 00ae 03D9     		bls	.L125
 156:Generated_Source\PSoC5/USBUART_1_std.c ****                     {
 1481              		.loc 1 156 0 is_stmt 0 discriminator 1
 1482 00b0 0A78     		ldrb	r2, [r1]	@ zero_extendqisi2
 1483 00b2 12F0FF0F 		tst	r2, #255
 1484 00b6 EFD1     		bne	.L126
 1485              	.L125:
 176:Generated_Source\PSoC5/USBUART_1_std.c ****                         (USBUART_1_wValueLoReg == USBUART_1_DEVICE0_DESCR[USBUART_1_DEVICE_DESCR_SN
 1486              		.loc 1 176 0 is_stmt 1
 1487 00b8 6D4B     		ldr	r3, .L168
 1488              	.LVL149:
 1489 00ba 9B78     		ldrb	r3, [r3, #2]	@ zero_extendqisi2
 1490 00bc 13F0FF0F 		tst	r3, #255
 1491 00c0 0BD0     		beq	.L127
 177:Generated_Source\PSoC5/USBUART_1_std.c ****                     {
 1492              		.loc 1 177 0 discriminator 1
 1493 00c2 6B4B     		ldr	r3, .L168
 1494 00c4 9B78     		ldrb	r3, [r3, #2]	@ zero_extendqisi2
 1495 00c6 DBB2     		uxtb	r3, r3
 1496 00c8 6C4A     		ldr	r2, .L168+12
 1497 00ca 127C     		ldrb	r2, [r2, #16]	@ zero_extendqisi2
 176:Generated_Source\PSoC5/USBUART_1_std.c ****                         (USBUART_1_wValueLoReg == USBUART_1_DEVICE0_DESCR[USBUART_1_DEVICE_DESCR_SN
 1498              		.loc 1 176 0 discriminator 1
 1499 00cc 9342     		cmp	r3, r2
 1500 00ce 04D1     		bne	.L127
 181:Generated_Source\PSoC5/USBUART_1_std.c ****                         pStr = USBUART_1_idSerialNumberStringDescriptor;
 1501              		.loc 1 181 0
 1502 00d0 6B4C     		ldr	r4, .L168+16
 1503 00d2 2046     		mov	r0, r4
 1504 00d4 FFF7FEFF 		bl	USBUART_1_ReadDieID
 1505              	.LVL150:
 182:Generated_Source\PSoC5/USBUART_1_std.c ****                     #elif defined(USBUART_1_ENABLE_FWSN_STRING)
 1506              		.loc 1 182 0
 1507 00d8 2146     		mov	r1, r4
 1508              	.LVL151:
 1509              	.L127:
 199:Generated_Source\PSoC5/USBUART_1_std.c ****                     {
 1510              		.loc 1 199 0
ARM GAS  C:\Users\DGILLI~1\AppData\Local\Temp\ccItuQxT.s 			page 52


 1511 00da 0B78     		ldrb	r3, [r1]	@ zero_extendqisi2
 1512 00dc 13F0FF0F 		tst	r3, #255
 1513 00e0 00F01581 		beq	.L150
 201:Generated_Source\PSoC5/USBUART_1_std.c ****                         USBUART_1_currentTD.pData = pStr;
 1514              		.loc 1 201 0
 1515 00e4 0B78     		ldrb	r3, [r1]	@ zero_extendqisi2
 1516 00e6 634A     		ldr	r2, .L168+4
 1517 00e8 1380     		strh	r3, [r2]	@ movhi
 202:Generated_Source\PSoC5/USBUART_1_std.c ****                         requestHandled  = USBUART_1_InitControlRead();
 1518              		.loc 1 202 0
 1519 00ea 5160     		str	r1, [r2, #4]
 203:Generated_Source\PSoC5/USBUART_1_std.c ****                     }
 1520              		.loc 1 203 0
 1521 00ec FFF7FEFF 		bl	USBUART_1_InitControlRead
 1522              	.LVL152:
 1523 00f0 10BD     		pop	{r4, pc}
 1524              	.LVL153:
 1525              	.L163:
 209:Generated_Source\PSoC5/USBUART_1_std.c ****                 }
 1526              		.loc 1 209 0
 1527 00f2 FFF7FEFF 		bl	USBUART_1_DispatchClassRqst
 1528              	.LVL154:
 1529 00f6 10BD     		pop	{r4, pc}
 1530              	.LVL155:
 1531              	.L116:
 214:Generated_Source\PSoC5/USBUART_1_std.c ****                 {
 1532              		.loc 1 214 0
 1533 00f8 13F00303 		ands	r3, r3, #3
 1534              	.LVL156:
 1535 00fc 17D0     		beq	.L128
 1536 00fe 022B     		cmp	r3, #2
 1537 0100 40F00781 		bne	.L164
 217:Generated_Source\PSoC5/USBUART_1_std.c ****                         USBUART_1_tBuffer[0u]     = USBUART_1_EP[USBUART_1_wIndexLoReg & USBUART_1_
 1538              		.loc 1 217 0
 1539 0104 5B49     		ldr	r1, .L168+4
 1540 0106 0B80     		strh	r3, [r1]	@ movhi
 218:Generated_Source\PSoC5/USBUART_1_std.c ****                         USBUART_1_tBuffer[1u]     = 0u;
 1541              		.loc 1 218 0
 1542 0108 594B     		ldr	r3, .L168
 1543 010a 1B79     		ldrb	r3, [r3, #4]	@ zero_extendqisi2
 1544 010c 03F07F03 		and	r3, r3, #127
 1545 0110 03EB4303 		add	r3, r3, r3, lsl #1
 1546 0114 9B00     		lsls	r3, r3, #2
 1547 0116 5B4A     		ldr	r2, .L168+20
 1548 0118 1344     		add	r3, r3, r2
 1549 011a 9A78     		ldrb	r2, [r3, #2]	@ zero_extendqisi2
 1550 011c D2B2     		uxtb	r2, r2
 1551 011e 5A4B     		ldr	r3, .L168+24
 1552 0120 1A70     		strb	r2, [r3]
 219:Generated_Source\PSoC5/USBUART_1_std.c ****                         USBUART_1_currentTD.pData = &USBUART_1_tBuffer[0u];
 1553              		.loc 1 219 0
 1554 0122 0022     		movs	r2, #0
 1555 0124 5A70     		strb	r2, [r3, #1]
 220:Generated_Source\PSoC5/USBUART_1_std.c ****                         
 1556              		.loc 1 220 0
 1557 0126 4B60     		str	r3, [r1, #4]
 222:Generated_Source\PSoC5/USBUART_1_std.c ****                         break;
ARM GAS  C:\Users\DGILLI~1\AppData\Local\Temp\ccItuQxT.s 			page 53


 1558              		.loc 1 222 0
 1559 0128 FFF7FEFF 		bl	USBUART_1_InitControlRead
 1560              	.LVL157:
 223:Generated_Source\PSoC5/USBUART_1_std.c ****                     case USBUART_1_RQST_RCPT_DEV:
 1561              		.loc 1 223 0
 1562 012c 10BD     		pop	{r4, pc}
 1563              	.LVL158:
 1564              	.L128:
 225:Generated_Source\PSoC5/USBUART_1_std.c ****                         USBUART_1_tBuffer[0u]     = USBUART_1_deviceStatus;
 1565              		.loc 1 225 0
 1566 012e 5149     		ldr	r1, .L168+4
 1567 0130 0223     		movs	r3, #2
 1568 0132 0B80     		strh	r3, [r1]	@ movhi
 226:Generated_Source\PSoC5/USBUART_1_std.c ****                         USBUART_1_tBuffer[1u]     = 0u;
 1569              		.loc 1 226 0
 1570 0134 554B     		ldr	r3, .L168+28
 1571 0136 1A78     		ldrb	r2, [r3]	@ zero_extendqisi2
 1572 0138 D2B2     		uxtb	r2, r2
 1573 013a 534B     		ldr	r3, .L168+24
 1574 013c 1A70     		strb	r2, [r3]
 227:Generated_Source\PSoC5/USBUART_1_std.c ****                         USBUART_1_currentTD.pData = &USBUART_1_tBuffer[0u];
 1575              		.loc 1 227 0
 1576 013e 0022     		movs	r2, #0
 1577 0140 5A70     		strb	r2, [r3, #1]
 228:Generated_Source\PSoC5/USBUART_1_std.c ****                         
 1578              		.loc 1 228 0
 1579 0142 4B60     		str	r3, [r1, #4]
 230:Generated_Source\PSoC5/USBUART_1_std.c ****                         break;
 1580              		.loc 1 230 0
 1581 0144 FFF7FEFF 		bl	USBUART_1_InitControlRead
 1582              	.LVL159:
 231:Generated_Source\PSoC5/USBUART_1_std.c ****                     default:    /* requestHandled is initialized as FALSE by default */
 1583              		.loc 1 231 0
 1584 0148 10BD     		pop	{r4, pc}
 1585              	.LVL160:
 1586              	.L119:
 238:Generated_Source\PSoC5/USBUART_1_std.c ****                 USBUART_1_currentTD.pData = (volatile uint8 *) &USBUART_1_configuration;
 1587              		.loc 1 238 0
 1588 014a 4A4B     		ldr	r3, .L168+4
 1589              	.LVL161:
 1590 014c 0122     		movs	r2, #1
 1591 014e 1A80     		strh	r2, [r3]	@ movhi
 239:Generated_Source\PSoC5/USBUART_1_std.c ****                 requestHandled  = USBUART_1_InitControlRead();
 1592              		.loc 1 239 0
 1593 0150 4F4A     		ldr	r2, .L168+32
 1594 0152 5A60     		str	r2, [r3, #4]
 240:Generated_Source\PSoC5/USBUART_1_std.c ****                 break;
 1595              		.loc 1 240 0
 1596 0154 FFF7FEFF 		bl	USBUART_1_InitControlRead
 1597              	.LVL162:
 241:Generated_Source\PSoC5/USBUART_1_std.c ****                 
 1598              		.loc 1 241 0
 1599 0158 10BD     		pop	{r4, pc}
 1600              	.LVL163:
 1601              	.L120:
 244:Generated_Source\PSoC5/USBUART_1_std.c ****                 USBUART_1_currentTD.pData = (volatile uint8 *) &USBUART_1_interfaceSetting[USBUART_
 1602              		.loc 1 244 0
ARM GAS  C:\Users\DGILLI~1\AppData\Local\Temp\ccItuQxT.s 			page 54


 1603 015a 464A     		ldr	r2, .L168+4
 1604 015c 0123     		movs	r3, #1
 1605              	.LVL164:
 1606 015e 1380     		strh	r3, [r2]	@ movhi
 245:Generated_Source\PSoC5/USBUART_1_std.c ****                 requestHandled  = USBUART_1_InitControlRead();
 1607              		.loc 1 245 0
 1608 0160 434B     		ldr	r3, .L168
 1609 0162 1B79     		ldrb	r3, [r3, #4]	@ zero_extendqisi2
 1610 0164 4B49     		ldr	r1, .L168+36
 1611 0166 0B44     		add	r3, r3, r1
 1612 0168 5360     		str	r3, [r2, #4]
 246:Generated_Source\PSoC5/USBUART_1_std.c ****                 break;
 1613              		.loc 1 246 0
 1614 016a FFF7FEFF 		bl	USBUART_1_InitControlRead
 1615              	.LVL165:
 247:Generated_Source\PSoC5/USBUART_1_std.c ****                 
 1616              		.loc 1 247 0
 1617 016e 10BD     		pop	{r4, pc}
 1618              	.LVL166:
 1619              	.L114:
 256:Generated_Source\PSoC5/USBUART_1_std.c ****         {
 1620              		.loc 1 256 0
 1621 0170 3F4A     		ldr	r2, .L168
 1622 0172 5278     		ldrb	r2, [r2, #1]	@ zero_extendqisi2
 1623 0174 013A     		subs	r2, r2, #1
 1624 0176 0A2A     		cmp	r2, #10
 1625 0178 00F2CD80 		bhi	.L152
 1626 017c DFE812F0 		tbh	[pc, r2, lsl #1]
 1627              	.L131:
 1628 0180 4B00     		.2byte	(.L130-.L131)/2
 1629 0182 CB00     		.2byte	(.L152-.L131)/2
 1630 0184 9600     		.2byte	(.L132-.L131)/2
 1631 0186 CB00     		.2byte	(.L152-.L131)/2
 1632 0188 0B00     		.2byte	(.L133-.L131)/2
 1633 018a CB00     		.2byte	(.L152-.L131)/2
 1634 018c CB00     		.2byte	(.L152-.L131)/2
 1635 018e CB00     		.2byte	(.L152-.L131)/2
 1636 0190 1300     		.2byte	(.L134-.L131)/2
 1637 0192 CB00     		.2byte	(.L152-.L131)/2
 1638 0194 3000     		.2byte	(.L135-.L131)/2
 1639              		.p2align 1
 1640              	.L133:
 260:Generated_Source\PSoC5/USBUART_1_std.c ****                 requestHandled = USBUART_1_InitNoDataControlTransfer();
 1641              		.loc 1 260 0
 1642 0196 364B     		ldr	r3, .L168
 1643              	.LVL167:
 1644 0198 9B78     		ldrb	r3, [r3, #2]	@ zero_extendqisi2
 1645 019a DBB2     		uxtb	r3, r3
 1646 019c 3E4A     		ldr	r2, .L168+40
 1647 019e 1370     		strb	r3, [r2]
 261:Generated_Source\PSoC5/USBUART_1_std.c ****                 break;
 1648              		.loc 1 261 0
 1649 01a0 FFF7FEFF 		bl	USBUART_1_InitNoDataControlTransfer
 1650              	.LVL168:
 262:Generated_Source\PSoC5/USBUART_1_std.c ****                 
 1651              		.loc 1 262 0
 1652 01a4 10BD     		pop	{r4, pc}
ARM GAS  C:\Users\DGILLI~1\AppData\Local\Temp\ccItuQxT.s 			page 55


 1653              	.LVL169:
 1654              	.L134:
 265:Generated_Source\PSoC5/USBUART_1_std.c ****                 
 1655              		.loc 1 265 0
 1656 01a6 324B     		ldr	r3, .L168
 1657              	.LVL170:
 1658 01a8 9B78     		ldrb	r3, [r3, #2]	@ zero_extendqisi2
 1659              	.LVL171:
 268:Generated_Source\PSoC5/USBUART_1_std.c ****                 {
 1660              		.loc 1 268 0
 1661 01aa 03F0FF04 		and	r4, r3, #255
 1662 01ae 1BB1     		cbz	r3, .L136
 270:Generated_Source\PSoC5/USBUART_1_std.c ****                 }
 1663              		.loc 1 270 0
 1664 01b0 601E     		subs	r0, r4, #1
 1665 01b2 C0B2     		uxtb	r0, r0
 1666 01b4 FFF7FEFF 		bl	USBUART_1_GetConfigTablePtr
 1667              	.LVL172:
 1668              	.L136:
 274:Generated_Source\PSoC5/USBUART_1_std.c ****                 {
 1669              		.loc 1 274 0
 1670 01b8 04B1     		cbz	r4, .L137
 274:Generated_Source\PSoC5/USBUART_1_std.c ****                 {
 1671              		.loc 1 274 0 is_stmt 0 discriminator 1
 1672 01ba 10B9     		cbnz	r0, .L138
 1673              	.L137:
 274:Generated_Source\PSoC5/USBUART_1_std.c ****                 {
 1674              		.loc 1 274 0 discriminator 3
 1675 01bc 002C     		cmp	r4, #0
 1676 01be 40F0AC80 		bne	.L153
 1677              	.L138:
 277:Generated_Source\PSoC5/USBUART_1_std.c ****                     {
 1678              		.loc 1 277 0 is_stmt 1
 1679 01c2 334B     		ldr	r3, .L168+32
 1680 01c4 1B78     		ldrb	r3, [r3]	@ zero_extendqisi2
 1681 01c6 DBB2     		uxtb	r3, r3
 1682 01c8 9C42     		cmp	r4, r3
 1683 01ca 06D0     		beq	.L139
 279:Generated_Source\PSoC5/USBUART_1_std.c ****                         USBUART_1_configurationChanged = USBUART_1_TRUE;
 1684              		.loc 1 279 0
 1685 01cc 304B     		ldr	r3, .L168+32
 1686 01ce 1C70     		strb	r4, [r3]
 280:Generated_Source\PSoC5/USBUART_1_std.c ****                         USBUART_1_Config(USBUART_1_TRUE);
 1687              		.loc 1 280 0
 1688 01d0 0120     		movs	r0, #1
 1689              	.LVL173:
 1690 01d2 324B     		ldr	r3, .L168+44
 1691 01d4 1870     		strb	r0, [r3]
 281:Generated_Source\PSoC5/USBUART_1_std.c ****                     }
 1692              		.loc 1 281 0
 1693 01d6 FFF7FEFF 		bl	USBUART_1_Config
 1694              	.LVL174:
 1695              	.L139:
 283:Generated_Source\PSoC5/USBUART_1_std.c ****                 }
 1696              		.loc 1 283 0
 1697 01da FFF7FEFF 		bl	USBUART_1_InitNoDataControlTransfer
 1698              	.LVL175:
ARM GAS  C:\Users\DGILLI~1\AppData\Local\Temp\ccItuQxT.s 			page 56


 1699 01de 10BD     		pop	{r4, pc}
 1700              	.LVL176:
 1701              	.L135:
 288:Generated_Source\PSoC5/USBUART_1_std.c ****                 {
 1702              		.loc 1 288 0
 1703 01e0 FFF7FEFF 		bl	USBUART_1_ValidateAlternateSetting
 1704              	.LVL177:
 1705 01e4 0028     		cmp	r0, #0
 1706 01e6 00F09A80 		beq	.L154
 291:Generated_Source\PSoC5/USBUART_1_std.c ****                     USBUART_1_interfaceNumber = (uint8) USBUART_1_wIndexLoReg;
 1707              		.loc 1 291 0
 1708 01ea 214A     		ldr	r2, .L168
 1709 01ec 1379     		ldrb	r3, [r2, #4]	@ zero_extendqisi2
 1710 01ee DBB2     		uxtb	r3, r3
 1711              	.LVL178:
 292:Generated_Source\PSoC5/USBUART_1_std.c ****                      
 1712              		.loc 1 292 0
 1713 01f0 1279     		ldrb	r2, [r2, #4]	@ zero_extendqisi2
 1714 01f2 D2B2     		uxtb	r2, r2
 1715 01f4 2A49     		ldr	r1, .L168+48
 1716 01f6 0A70     		strb	r2, [r1]
 295:Generated_Source\PSoC5/USBUART_1_std.c ****                     {
 1717              		.loc 1 295 0
 1718 01f8 2A4A     		ldr	r2, .L168+52
 1719 01fa D25C     		ldrb	r2, [r2, r3]	@ zero_extendqisi2
 1720 01fc 2549     		ldr	r1, .L168+36
 1721 01fe C95C     		ldrb	r1, [r1, r3]	@ zero_extendqisi2
 1722 0200 D3B2     		uxtb	r3, r2
 1723              	.LVL179:
 1724 0202 8B42     		cmp	r3, r1
 1725 0204 04D0     		beq	.L140
 297:Generated_Source\PSoC5/USBUART_1_std.c ****                     
 1726              		.loc 1 297 0
 1727 0206 0122     		movs	r2, #1
 1728 0208 244B     		ldr	r3, .L168+44
 1729 020a 1A70     		strb	r2, [r3]
 303:Generated_Source\PSoC5/USBUART_1_std.c ****                     #endif /* (USBUART_1_EP_MANAGEMENT_MANUAL && USBUART_1_EP_ALLOC_DYNAMIC) */
 1730              		.loc 1 303 0
 1731 020c FFF7FEFF 		bl	USBUART_1_ConfigAltChanged
 1732              	.LVL180:
 1733              	.L140:
 307:Generated_Source\PSoC5/USBUART_1_std.c ****                 }
 1734              		.loc 1 307 0
 1735 0210 FFF7FEFF 		bl	USBUART_1_InitNoDataControlTransfer
 1736              	.LVL181:
 1737 0214 10BD     		pop	{r4, pc}
 1738              	.LVL182:
 1739              	.L130:
 312:Generated_Source\PSoC5/USBUART_1_std.c ****                 {
 1740              		.loc 1 312 0
 1741 0216 03F00303 		and	r3, r3, #3
 1742              	.LVL183:
 1743 021a 012B     		cmp	r3, #1
 1744 021c 17D0     		beq	.L141
 1745 021e 4BB1     		cbz	r3, .L142
 1746 0220 022B     		cmp	r3, #2
 1747 0222 7ED1     		bne	.L165
ARM GAS  C:\Users\DGILLI~1\AppData\Local\Temp\ccItuQxT.s 			page 57


 315:Generated_Source\PSoC5/USBUART_1_std.c ****                         {
 1748              		.loc 1 315 0
 1749 0224 124B     		ldr	r3, .L168
 1750 0226 9B78     		ldrb	r3, [r3, #2]	@ zero_extendqisi2
 1751 0228 13F0FF0F 		tst	r3, #255
 1752 022c 7BD1     		bne	.L156
 317:Generated_Source\PSoC5/USBUART_1_std.c ****                         }
 1753              		.loc 1 317 0
 1754 022e FFF7FEFF 		bl	USBUART_1_ClearEndpointHalt
 1755              	.LVL184:
 1756 0232 10BD     		pop	{r4, pc}
 1757              	.LVL185:
 1758              	.L142:
 322:Generated_Source\PSoC5/USBUART_1_std.c ****                         {
 1759              		.loc 1 322 0
 1760 0234 0E4B     		ldr	r3, .L168
 1761 0236 9B78     		ldrb	r3, [r3, #2]	@ zero_extendqisi2
 1762 0238 DBB2     		uxtb	r3, r3
 1763 023a 012B     		cmp	r3, #1
 1764 023c 75D1     		bne	.L157
 324:Generated_Source\PSoC5/USBUART_1_std.c ****                             requestHandled = USBUART_1_InitNoDataControlTransfer();
 1765              		.loc 1 324 0
 1766 023e 134A     		ldr	r2, .L168+28
 1767 0240 1378     		ldrb	r3, [r2]	@ zero_extendqisi2
 1768 0242 03F0FD03 		and	r3, r3, #253
 1769 0246 1370     		strb	r3, [r2]
 325:Generated_Source\PSoC5/USBUART_1_std.c ****                         }
 1770              		.loc 1 325 0
 1771 0248 FFF7FEFF 		bl	USBUART_1_InitNoDataControlTransfer
 1772              	.LVL186:
 1773 024c 10BD     		pop	{r4, pc}
 1774              	.LVL187:
 1775              	.L141:
 330:Generated_Source\PSoC5/USBUART_1_std.c ****                         {
 1776              		.loc 1 330 0
 1777 024e 084B     		ldr	r3, .L168
 1778 0250 1B79     		ldrb	r3, [r3, #4]	@ zero_extendqisi2
 1779 0252 DBB2     		uxtb	r3, r3
 1780 0254 012B     		cmp	r3, #1
 1781 0256 6AD8     		bhi	.L158
 332:Generated_Source\PSoC5/USBUART_1_std.c ****                             requestHandled = USBUART_1_InitNoDataControlTransfer();
 1782              		.loc 1 332 0
 1783 0258 054B     		ldr	r3, .L168
 1784 025a 9878     		ldrb	r0, [r3, #2]	@ zero_extendqisi2
 1785 025c 1B79     		ldrb	r3, [r3, #4]	@ zero_extendqisi2
 1786 025e DBB2     		uxtb	r3, r3
 1787 0260 1149     		ldr	r1, .L168+56
 1788 0262 CA5C     		ldrb	r2, [r1, r3]	@ zero_extendqisi2
 1789 0264 22EA0002 		bic	r2, r2, r0
 1790 0268 CA54     		strb	r2, [r1, r3]
 333:Generated_Source\PSoC5/USBUART_1_std.c ****                         }
 1791              		.loc 1 333 0
 1792 026a FFF7FEFF 		bl	USBUART_1_InitNoDataControlTransfer
 1793              	.LVL188:
 1794 026e 10BD     		pop	{r4, pc}
 1795              	.L169:
 1796              		.align	2
ARM GAS  C:\Users\DGILLI~1\AppData\Local\Temp\ccItuQxT.s 			page 58


 1797              	.L168:
 1798 0270 00600040 		.word	1073766400
 1799 0274 00000000 		.word	USBUART_1_currentTD
 1800 0278 00000000 		.word	USBUART_1_STRING_DESCRIPTORS
 1801 027c 00000000 		.word	USBUART_1_DEVICE0_DESCR
 1802 0280 00000000 		.word	USBUART_1_idSerialNumberStringDescriptor
 1803 0284 00000000 		.word	USBUART_1_EP
 1804 0288 00000000 		.word	.LANCHOR0
 1805 028c 00000000 		.word	USBUART_1_deviceStatus
 1806 0290 00000000 		.word	USBUART_1_configuration
 1807 0294 00000000 		.word	USBUART_1_interfaceSetting
 1808 0298 00000000 		.word	USBUART_1_deviceAddress
 1809 029c 00000000 		.word	USBUART_1_configurationChanged
 1810 02a0 00000000 		.word	USBUART_1_interfaceNumber
 1811 02a4 00000000 		.word	USBUART_1_interfaceSettingLast
 1812 02a8 00000000 		.word	USBUART_1_interfaceStatus
 1813              	.LVL189:
 1814              	.L132:
 342:Generated_Source\PSoC5/USBUART_1_std.c ****                 {
 1815              		.loc 1 342 0
 1816 02ac 03F00303 		and	r3, r3, #3
 1817              	.LVL190:
 1818 02b0 012B     		cmp	r3, #1
 1819 02b2 17D0     		beq	.L144
 1820 02b4 4BB1     		cbz	r3, .L145
 1821 02b6 022B     		cmp	r3, #2
 1822 02b8 3BD1     		bne	.L166
 345:Generated_Source\PSoC5/USBUART_1_std.c ****                         {
 1823              		.loc 1 345 0
 1824 02ba 224B     		ldr	r3, .L170
 1825 02bc 9B78     		ldrb	r3, [r3, #2]	@ zero_extendqisi2
 1826 02be 13F0FF0F 		tst	r3, #255
 1827 02c2 38D1     		bne	.L160
 347:Generated_Source\PSoC5/USBUART_1_std.c ****                         }
 1828              		.loc 1 347 0
 1829 02c4 FFF7FEFF 		bl	USBUART_1_SetEndpointHalt
 1830              	.LVL191:
 1831 02c8 10BD     		pop	{r4, pc}
 1832              	.LVL192:
 1833              	.L145:
 353:Generated_Source\PSoC5/USBUART_1_std.c ****                         {
 1834              		.loc 1 353 0
 1835 02ca 1E4B     		ldr	r3, .L170
 1836 02cc 9B78     		ldrb	r3, [r3, #2]	@ zero_extendqisi2
 1837 02ce DBB2     		uxtb	r3, r3
 1838 02d0 012B     		cmp	r3, #1
 1839 02d2 32D1     		bne	.L161
 355:Generated_Source\PSoC5/USBUART_1_std.c ****                             requestHandled = USBUART_1_InitNoDataControlTransfer();
 1840              		.loc 1 355 0
 1841 02d4 1C4A     		ldr	r2, .L170+4
 1842 02d6 1378     		ldrb	r3, [r2]	@ zero_extendqisi2
 1843 02d8 43F00203 		orr	r3, r3, #2
 1844 02dc 1370     		strb	r3, [r2]
 356:Generated_Source\PSoC5/USBUART_1_std.c ****                         }
 1845              		.loc 1 356 0
 1846 02de FFF7FEFF 		bl	USBUART_1_InitNoDataControlTransfer
 1847              	.LVL193:
ARM GAS  C:\Users\DGILLI~1\AppData\Local\Temp\ccItuQxT.s 			page 59


 1848 02e2 10BD     		pop	{r4, pc}
 1849              	.LVL194:
 1850              	.L144:
 362:Generated_Source\PSoC5/USBUART_1_std.c ****                         {
 1851              		.loc 1 362 0
 1852 02e4 174B     		ldr	r3, .L170
 1853 02e6 1B79     		ldrb	r3, [r3, #4]	@ zero_extendqisi2
 1854 02e8 DBB2     		uxtb	r3, r3
 1855 02ea 012B     		cmp	r3, #1
 1856 02ec 27D8     		bhi	.L162
 364:Generated_Source\PSoC5/USBUART_1_std.c ****                             requestHandled = USBUART_1_InitNoDataControlTransfer();
 1857              		.loc 1 364 0
 1858 02ee 154B     		ldr	r3, .L170
 1859 02f0 9878     		ldrb	r0, [r3, #2]	@ zero_extendqisi2
 1860 02f2 1B79     		ldrb	r3, [r3, #4]	@ zero_extendqisi2
 1861 02f4 DBB2     		uxtb	r3, r3
 1862 02f6 1549     		ldr	r1, .L170+8
 1863 02f8 CA5C     		ldrb	r2, [r1, r3]	@ zero_extendqisi2
 1864 02fa 22EA0002 		bic	r2, r2, r0
 1865 02fe CA54     		strb	r2, [r1, r3]
 365:Generated_Source\PSoC5/USBUART_1_std.c ****                         }
 1866              		.loc 1 365 0
 1867 0300 FFF7FEFF 		bl	USBUART_1_InitNoDataControlTransfer
 1868              	.LVL195:
 1869 0304 10BD     		pop	{r4, pc}
 1870              	.LVL196:
 1871              	.L147:
  86:Generated_Source\PSoC5/USBUART_1_std.c ****     uint8 interfaceNumber;
 1872              		.loc 1 86 0
 1873 0306 0020     		movs	r0, #0
 1874 0308 10BD     		pop	{r4, pc}
 1875              	.LVL197:
 1876              	.L148:
 1877 030a 0020     		movs	r0, #0
 1878              	.LVL198:
 1879 030c 10BD     		pop	{r4, pc}
 1880              	.LVL199:
 1881              	.L150:
 1882 030e 0020     		movs	r0, #0
 1883 0310 10BD     		pop	{r4, pc}
 1884              	.LVL200:
 1885              	.L164:
 1886 0312 0020     		movs	r0, #0
 1887 0314 10BD     		pop	{r4, pc}
 1888              	.LVL201:
 1889              	.L152:
 1890 0316 0020     		movs	r0, #0
 1891 0318 10BD     		pop	{r4, pc}
 1892              	.LVL202:
 1893              	.L153:
 1894 031a 0020     		movs	r0, #0
 1895              	.LVL203:
 1896 031c 10BD     		pop	{r4, pc}
 1897              	.L154:
 1898 031e 0020     		movs	r0, #0
 1899 0320 10BD     		pop	{r4, pc}
 1900              	.L165:
ARM GAS  C:\Users\DGILLI~1\AppData\Local\Temp\ccItuQxT.s 			page 60


 1901 0322 0020     		movs	r0, #0
 1902 0324 10BD     		pop	{r4, pc}
 1903              	.L156:
 1904 0326 0020     		movs	r0, #0
 1905 0328 10BD     		pop	{r4, pc}
 1906              	.L157:
 1907 032a 0020     		movs	r0, #0
 1908 032c 10BD     		pop	{r4, pc}
 1909              	.L158:
 1910 032e 0020     		movs	r0, #0
 1911 0330 10BD     		pop	{r4, pc}
 1912              	.L166:
 1913 0332 0020     		movs	r0, #0
 1914 0334 10BD     		pop	{r4, pc}
 1915              	.L160:
 1916 0336 0020     		movs	r0, #0
 1917 0338 10BD     		pop	{r4, pc}
 1918              	.L161:
 1919 033a 0020     		movs	r0, #0
 1920 033c 10BD     		pop	{r4, pc}
 1921              	.L162:
 1922 033e 0020     		movs	r0, #0
 1923              	.LVL204:
 380:Generated_Source\PSoC5/USBUART_1_std.c **** 
 1924              		.loc 1 380 0
 1925 0340 10BD     		pop	{r4, pc}
 1926              	.L171:
 1927 0342 00BF     		.align	2
 1928              	.L170:
 1929 0344 00600040 		.word	1073766400
 1930 0348 00000000 		.word	USBUART_1_deviceStatus
 1931 034c 00000000 		.word	USBUART_1_interfaceStatus
 1932              		.cfi_endproc
 1933              	.LFE0:
 1934              		.size	USBUART_1_HandleStandardRqst, .-USBUART_1_HandleStandardRqst
 1935              		.section	.rodata.str1.4,"aMS",%progbits,1
 1936              		.align	2
 1937              	.LC0:
 1938 0000 30313233 		.ascii	"0123456789ABCDEF\000"
 1938      34353637 
 1938      38394142 
 1938      43444546 
 1938      00
 1939 0011 000000   		.bss
 1940              		.align	2
 1941              		.set	.LANCHOR0,. + 0
 1942              		.type	USBUART_1_tBuffer.5117, %object
 1943              		.size	USBUART_1_tBuffer.5117, 2
 1944              	USBUART_1_tBuffer.5117:
 1945 0000 0000     		.space	2
 1946 0002 0000     		.text
 1947              	.Letext0:
 1948              		.file 2 "Generated_Source\\PSoC5\\cytypes.h"
 1949              		.file 3 "Generated_Source\\PSoC5\\USBUART_1.h"
 1950              		.file 4 "Generated_Source\\PSoC5\\USBUART_1_pvt.h"
 1951              		.file 5 "Generated_Source\\PSoC5\\CyLib.h"
 1952              		.section	.debug_info,"",%progbits
ARM GAS  C:\Users\DGILLI~1\AppData\Local\Temp\ccItuQxT.s 			page 61


 1953              	.Ldebug_info0:
 1954 0000 310B0000 		.4byte	0xb31
 1955 0004 0400     		.2byte	0x4
 1956 0006 00000000 		.4byte	.Ldebug_abbrev0
 1957 000a 04       		.byte	0x4
 1958 000b 01       		.uleb128 0x1
 1959 000c F2060000 		.4byte	.LASF115
 1960 0010 01       		.byte	0x1
 1961 0011 80070000 		.4byte	.LASF116
 1962 0015 A1010000 		.4byte	.LASF117
 1963 0019 00000000 		.4byte	.Ldebug_ranges0+0
 1964 001d 00000000 		.4byte	0
 1965 0021 00000000 		.4byte	.Ldebug_line0
 1966 0025 02       		.uleb128 0x2
 1967 0026 01       		.byte	0x1
 1968 0027 06       		.byte	0x6
 1969 0028 A0000000 		.4byte	.LASF0
 1970 002c 02       		.uleb128 0x2
 1971 002d 01       		.byte	0x1
 1972 002e 08       		.byte	0x8
 1973 002f 30050000 		.4byte	.LASF1
 1974 0033 02       		.uleb128 0x2
 1975 0034 02       		.byte	0x2
 1976 0035 05       		.byte	0x5
 1977 0036 72050000 		.4byte	.LASF2
 1978 003a 02       		.uleb128 0x2
 1979 003b 02       		.byte	0x2
 1980 003c 07       		.byte	0x7
 1981 003d 59030000 		.4byte	.LASF3
 1982 0041 02       		.uleb128 0x2
 1983 0042 04       		.byte	0x4
 1984 0043 05       		.byte	0x5
 1985 0044 43010000 		.4byte	.LASF4
 1986 0048 02       		.uleb128 0x2
 1987 0049 04       		.byte	0x4
 1988 004a 07       		.byte	0x7
 1989 004b 18030000 		.4byte	.LASF5
 1990 004f 02       		.uleb128 0x2
 1991 0050 08       		.byte	0x8
 1992 0051 05       		.byte	0x5
 1993 0052 92000000 		.4byte	.LASF6
 1994 0056 02       		.uleb128 0x2
 1995 0057 08       		.byte	0x8
 1996 0058 07       		.byte	0x7
 1997 0059 49000000 		.4byte	.LASF7
 1998 005d 03       		.uleb128 0x3
 1999 005e 04       		.byte	0x4
 2000 005f 05       		.byte	0x5
 2001 0060 696E7400 		.ascii	"int\000"
 2002 0064 02       		.uleb128 0x2
 2003 0065 04       		.byte	0x4
 2004 0066 07       		.byte	0x7
 2005 0067 E7020000 		.4byte	.LASF8
 2006 006b 04       		.uleb128 0x4
 2007 006c 81010000 		.4byte	.LASF9
 2008 0070 02       		.byte	0x2
 2009 0071 9201     		.2byte	0x192
ARM GAS  C:\Users\DGILLI~1\AppData\Local\Temp\ccItuQxT.s 			page 62


 2010 0073 2C000000 		.4byte	0x2c
 2011 0077 04       		.uleb128 0x4
 2012 0078 13000000 		.4byte	.LASF10
 2013 007c 02       		.byte	0x2
 2014 007d 9301     		.2byte	0x193
 2015 007f 3A000000 		.4byte	0x3a
 2016 0083 04       		.uleb128 0x4
 2017 0084 FE010000 		.4byte	.LASF11
 2018 0088 02       		.byte	0x2
 2019 0089 9401     		.2byte	0x194
 2020 008b 48000000 		.4byte	0x48
 2021 008f 02       		.uleb128 0x2
 2022 0090 04       		.byte	0x4
 2023 0091 04       		.byte	0x4
 2024 0092 E6040000 		.4byte	.LASF12
 2025 0096 02       		.uleb128 0x2
 2026 0097 08       		.byte	0x8
 2027 0098 04       		.byte	0x4
 2028 0099 95010000 		.4byte	.LASF13
 2029 009d 04       		.uleb128 0x4
 2030 009e 53060000 		.4byte	.LASF14
 2031 00a2 02       		.byte	0x2
 2032 00a3 A301     		.2byte	0x1a3
 2033 00a5 A9000000 		.4byte	0xa9
 2034 00a9 02       		.uleb128 0x2
 2035 00aa 01       		.byte	0x1
 2036 00ab 08       		.byte	0x8
 2037 00ac 14060000 		.4byte	.LASF15
 2038 00b0 04       		.uleb128 0x4
 2039 00b1 0B050000 		.4byte	.LASF16
 2040 00b5 02       		.byte	0x2
 2041 00b6 3C02     		.2byte	0x23c
 2042 00b8 BC000000 		.4byte	0xbc
 2043 00bc 05       		.uleb128 0x5
 2044 00bd 6B000000 		.4byte	0x6b
 2045 00c1 02       		.uleb128 0x2
 2046 00c2 04       		.byte	0x4
 2047 00c3 07       		.byte	0x7
 2048 00c4 18040000 		.4byte	.LASF17
 2049 00c8 06       		.uleb128 0x6
 2050 00c9 0C       		.byte	0xc
 2051 00ca 03       		.byte	0x3
 2052 00cb 8D       		.byte	0x8d
 2053 00cc 3D010000 		.4byte	0x13d
 2054 00d0 07       		.uleb128 0x7
 2055 00d1 3D040000 		.4byte	.LASF18
 2056 00d5 03       		.byte	0x3
 2057 00d6 8F       		.byte	0x8f
 2058 00d7 6B000000 		.4byte	0x6b
 2059 00db 00       		.byte	0
 2060 00dc 07       		.uleb128 0x7
 2061 00dd EC040000 		.4byte	.LASF19
 2062 00e1 03       		.byte	0x3
 2063 00e2 90       		.byte	0x90
 2064 00e3 6B000000 		.4byte	0x6b
 2065 00e7 01       		.byte	0x1
 2066 00e8 07       		.uleb128 0x7
ARM GAS  C:\Users\DGILLI~1\AppData\Local\Temp\ccItuQxT.s 			page 63


 2067 00e9 02040000 		.4byte	.LASF20
 2068 00ed 03       		.byte	0x3
 2069 00ee 91       		.byte	0x91
 2070 00ef 6B000000 		.4byte	0x6b
 2071 00f3 02       		.byte	0x2
 2072 00f4 07       		.uleb128 0x7
 2073 00f5 87010000 		.4byte	.LASF21
 2074 00f9 03       		.byte	0x3
 2075 00fa 92       		.byte	0x92
 2076 00fb 6B000000 		.4byte	0x6b
 2077 00ff 03       		.byte	0x3
 2078 0100 07       		.uleb128 0x7
 2079 0101 60000000 		.4byte	.LASF22
 2080 0105 03       		.byte	0x3
 2081 0106 93       		.byte	0x93
 2082 0107 6B000000 		.4byte	0x6b
 2083 010b 04       		.byte	0x4
 2084 010c 07       		.uleb128 0x7
 2085 010d 3D020000 		.4byte	.LASF23
 2086 0111 03       		.byte	0x3
 2087 0112 94       		.byte	0x94
 2088 0113 6B000000 		.4byte	0x6b
 2089 0117 05       		.byte	0x5
 2090 0118 07       		.uleb128 0x7
 2091 0119 48060000 		.4byte	.LASF24
 2092 011d 03       		.byte	0x3
 2093 011e 95       		.byte	0x95
 2094 011f 77000000 		.4byte	0x77
 2095 0123 06       		.byte	0x6
 2096 0124 07       		.uleb128 0x7
 2097 0125 19060000 		.4byte	.LASF25
 2098 0129 03       		.byte	0x3
 2099 012a 96       		.byte	0x96
 2100 012b 77000000 		.4byte	0x77
 2101 012f 08       		.byte	0x8
 2102 0130 07       		.uleb128 0x7
 2103 0131 D5030000 		.4byte	.LASF26
 2104 0135 03       		.byte	0x3
 2105 0136 97       		.byte	0x97
 2106 0137 6B000000 		.4byte	0x6b
 2107 013b 0A       		.byte	0xa
 2108 013c 00       		.byte	0
 2109 013d 08       		.uleb128 0x8
 2110 013e 7B020000 		.4byte	.LASF27
 2111 0142 03       		.byte	0x3
 2112 0143 98       		.byte	0x98
 2113 0144 C8000000 		.4byte	0xc8
 2114 0148 06       		.uleb128 0x6
 2115 0149 08       		.byte	0x8
 2116 014a 03       		.byte	0x3
 2117 014b 9A       		.byte	0x9a
 2118 014c 99010000 		.4byte	0x199
 2119 0150 07       		.uleb128 0x7
 2120 0151 D5030000 		.4byte	.LASF26
 2121 0155 03       		.byte	0x3
 2122 0156 9C       		.byte	0x9c
 2123 0157 6B000000 		.4byte	0x6b
ARM GAS  C:\Users\DGILLI~1\AppData\Local\Temp\ccItuQxT.s 			page 64


 2124 015b 00       		.byte	0
 2125 015c 07       		.uleb128 0x7
 2126 015d EB050000 		.4byte	.LASF28
 2127 0161 03       		.byte	0x3
 2128 0162 9D       		.byte	0x9d
 2129 0163 6B000000 		.4byte	0x6b
 2130 0167 01       		.byte	0x1
 2131 0168 07       		.uleb128 0x7
 2132 0169 60000000 		.4byte	.LASF22
 2133 016d 03       		.byte	0x3
 2134 016e 9E       		.byte	0x9e
 2135 016f 6B000000 		.4byte	0x6b
 2136 0173 02       		.byte	0x2
 2137 0174 07       		.uleb128 0x7
 2138 0175 BD050000 		.4byte	.LASF29
 2139 0179 03       		.byte	0x3
 2140 017a 9F       		.byte	0x9f
 2141 017b 6B000000 		.4byte	0x6b
 2142 017f 03       		.byte	0x3
 2143 0180 07       		.uleb128 0x7
 2144 0181 19060000 		.4byte	.LASF25
 2145 0185 03       		.byte	0x3
 2146 0186 A0       		.byte	0xa0
 2147 0187 77000000 		.4byte	0x77
 2148 018b 04       		.byte	0x4
 2149 018c 07       		.uleb128 0x7
 2150 018d BF070000 		.4byte	.LASF30
 2151 0191 03       		.byte	0x3
 2152 0192 A1       		.byte	0xa1
 2153 0193 6B000000 		.4byte	0x6b
 2154 0197 06       		.byte	0x6
 2155 0198 00       		.byte	0
 2156 0199 08       		.uleb128 0x8
 2157 019a 74000000 		.4byte	.LASF31
 2158 019e 03       		.byte	0x3
 2159 019f A2       		.byte	0xa2
 2160 01a0 48010000 		.4byte	0x148
 2161 01a4 06       		.uleb128 0x6
 2162 01a5 04       		.byte	0x4
 2163 01a6 03       		.byte	0x3
 2164 01a7 A4       		.byte	0xa4
 2165 01a8 C5010000 		.4byte	0x1c5
 2166 01ac 07       		.uleb128 0x7
 2167 01ad EB060000 		.4byte	.LASF32
 2168 01b1 03       		.byte	0x3
 2169 01b2 A6       		.byte	0xa6
 2170 01b3 6B000000 		.4byte	0x6b
 2171 01b7 00       		.byte	0
 2172 01b8 07       		.uleb128 0x7
 2173 01b9 A6060000 		.4byte	.LASF33
 2174 01bd 03       		.byte	0x3
 2175 01be A7       		.byte	0xa7
 2176 01bf 77000000 		.4byte	0x77
 2177 01c3 02       		.byte	0x2
 2178 01c4 00       		.byte	0
 2179 01c5 08       		.uleb128 0x8
 2180 01c6 F6050000 		.4byte	.LASF34
ARM GAS  C:\Users\DGILLI~1\AppData\Local\Temp\ccItuQxT.s 			page 65


 2181 01ca 03       		.byte	0x3
 2182 01cb A8       		.byte	0xa8
 2183 01cc A4010000 		.4byte	0x1a4
 2184 01d0 06       		.uleb128 0x6
 2185 01d1 0C       		.byte	0xc
 2186 01d2 03       		.byte	0x3
 2187 01d3 AA       		.byte	0xaa
 2188 01d4 FD010000 		.4byte	0x1fd
 2189 01d8 07       		.uleb128 0x7
 2190 01d9 0D000000 		.4byte	.LASF35
 2191 01dd 03       		.byte	0x3
 2192 01de AC       		.byte	0xac
 2193 01df 77000000 		.4byte	0x77
 2194 01e3 00       		.byte	0
 2195 01e4 07       		.uleb128 0x7
 2196 01e5 20020000 		.4byte	.LASF36
 2197 01e9 03       		.byte	0x3
 2198 01ea AD       		.byte	0xad
 2199 01eb FD010000 		.4byte	0x1fd
 2200 01ef 04       		.byte	0x4
 2201 01f0 07       		.uleb128 0x7
 2202 01f1 00000000 		.4byte	.LASF37
 2203 01f5 03       		.byte	0x3
 2204 01f6 AE       		.byte	0xae
 2205 01f7 03020000 		.4byte	0x203
 2206 01fb 08       		.byte	0x8
 2207 01fc 00       		.byte	0
 2208 01fd 09       		.uleb128 0x9
 2209 01fe 04       		.byte	0x4
 2210 01ff BC000000 		.4byte	0xbc
 2211 0203 09       		.uleb128 0x9
 2212 0204 04       		.byte	0x4
 2213 0205 C5010000 		.4byte	0x1c5
 2214 0209 08       		.uleb128 0x8
 2215 020a C5070000 		.4byte	.LASF38
 2216 020e 03       		.byte	0x3
 2217 020f AF       		.byte	0xaf
 2218 0210 D0010000 		.4byte	0x1d0
 2219 0214 06       		.uleb128 0x6
 2220 0215 08       		.byte	0x8
 2221 0216 03       		.byte	0x3
 2222 0217 B1       		.byte	0xb1
 2223 0218 33020000 		.4byte	0x233
 2224 021c 0A       		.uleb128 0xa
 2225 021d 6300     		.ascii	"c\000"
 2226 021f 03       		.byte	0x3
 2227 0220 B3       		.byte	0xb3
 2228 0221 6B000000 		.4byte	0x6b
 2229 0225 00       		.byte	0
 2230 0226 07       		.uleb128 0x7
 2231 0227 2C040000 		.4byte	.LASF39
 2232 022b 03       		.byte	0x3
 2233 022c B4       		.byte	0xb4
 2234 022d 33020000 		.4byte	0x233
 2235 0231 04       		.byte	0x4
 2236 0232 00       		.byte	0
 2237 0233 09       		.uleb128 0x9
ARM GAS  C:\Users\DGILLI~1\AppData\Local\Temp\ccItuQxT.s 			page 66


 2238 0234 04       		.byte	0x4
 2239 0235 39020000 		.4byte	0x239
 2240 0239 0B       		.uleb128 0xb
 2241 023a 08       		.uleb128 0x8
 2242 023b 22010000 		.4byte	.LASF40
 2243 023f 03       		.byte	0x3
 2244 0240 B5       		.byte	0xb5
 2245 0241 14020000 		.4byte	0x214
 2246 0245 06       		.uleb128 0x6
 2247 0246 08       		.byte	0x8
 2248 0247 03       		.byte	0x3
 2249 0248 C5       		.byte	0xc5
 2250 0249 5A020000 		.4byte	0x25a
 2251 024d 07       		.uleb128 0x7
 2252 024e B8070000 		.4byte	.LASF41
 2253 0252 03       		.byte	0x3
 2254 0253 C7       		.byte	0xc7
 2255 0254 5A020000 		.4byte	0x25a
 2256 0258 00       		.byte	0
 2257 0259 00       		.byte	0
 2258 025a 0C       		.uleb128 0xc
 2259 025b 6B000000 		.4byte	0x6b
 2260 025f 6A020000 		.4byte	0x26a
 2261 0263 0D       		.uleb128 0xd
 2262 0264 C1000000 		.4byte	0xc1
 2263 0268 07       		.byte	0x7
 2264 0269 00       		.byte	0
 2265 026a 08       		.uleb128 0x8
 2266 026b 62060000 		.4byte	.LASF42
 2267 026f 03       		.byte	0x3
 2268 0270 C8       		.byte	0xc8
 2269 0271 45020000 		.4byte	0x245
 2270 0275 06       		.uleb128 0x6
 2271 0276 10       		.byte	0x10
 2272 0277 03       		.byte	0x3
 2273 0278 D4       		.byte	0xd4
 2274 0279 AE020000 		.4byte	0x2ae
 2275 027d 07       		.uleb128 0x7
 2276 027e C5040000 		.4byte	.LASF43
 2277 0282 03       		.byte	0x3
 2278 0283 D6       		.byte	0xd6
 2279 0284 6B000000 		.4byte	0x6b
 2280 0288 00       		.byte	0
 2281 0289 07       		.uleb128 0x7
 2282 028a CC040000 		.4byte	.LASF44
 2283 028e 03       		.byte	0x3
 2284 028f D7       		.byte	0xd7
 2285 0290 6B000000 		.4byte	0x6b
 2286 0294 01       		.byte	0x1
 2287 0295 07       		.uleb128 0x7
 2288 0296 D3040000 		.4byte	.LASF45
 2289 029a 03       		.byte	0x3
 2290 029b D8       		.byte	0xd8
 2291 029c 6B000000 		.4byte	0x6b
 2292 02a0 02       		.byte	0x2
 2293 02a1 0A       		.uleb128 0xa
 2294 02a2 67617000 		.ascii	"gap\000"
ARM GAS  C:\Users\DGILLI~1\AppData\Local\Temp\ccItuQxT.s 			page 67


 2295 02a6 03       		.byte	0x3
 2296 02a7 D9       		.byte	0xd9
 2297 02a8 AE020000 		.4byte	0x2ae
 2298 02ac 03       		.byte	0x3
 2299 02ad 00       		.byte	0
 2300 02ae 0C       		.uleb128 0xc
 2301 02af 6B000000 		.4byte	0x6b
 2302 02b3 BE020000 		.4byte	0x2be
 2303 02b7 0D       		.uleb128 0xd
 2304 02b8 C1000000 		.4byte	0xc1
 2305 02bc 0C       		.byte	0xc
 2306 02bd 00       		.byte	0
 2307 02be 08       		.uleb128 0x8
 2308 02bf 7C050000 		.4byte	.LASF46
 2309 02c3 03       		.byte	0x3
 2310 02c4 DA       		.byte	0xda
 2311 02c5 75020000 		.4byte	0x275
 2312 02c9 06       		.uleb128 0x6
 2313 02ca 10       		.byte	0x10
 2314 02cb 03       		.byte	0x3
 2315 02cc E6       		.byte	0xe6
 2316 02cd 4A030000 		.4byte	0x34a
 2317 02d1 07       		.uleb128 0x7
 2318 02d2 65000000 		.4byte	.LASF47
 2319 02d6 03       		.byte	0x3
 2320 02d7 E8       		.byte	0xe8
 2321 02d8 6B000000 		.4byte	0x6b
 2322 02dc 00       		.byte	0
 2323 02dd 07       		.uleb128 0x7
 2324 02de D4070000 		.4byte	.LASF48
 2325 02e2 03       		.byte	0x3
 2326 02e3 E9       		.byte	0xe9
 2327 02e4 6B000000 		.4byte	0x6b
 2328 02e8 01       		.byte	0x1
 2329 02e9 07       		.uleb128 0x7
 2330 02ea 9C010000 		.4byte	.LASF49
 2331 02ee 03       		.byte	0x3
 2332 02ef EA       		.byte	0xea
 2333 02f0 6B000000 		.4byte	0x6b
 2334 02f4 02       		.byte	0x2
 2335 02f5 07       		.uleb128 0x7
 2336 02f6 59020000 		.4byte	.LASF50
 2337 02fa 03       		.byte	0x3
 2338 02fb EB       		.byte	0xeb
 2339 02fc 6B000000 		.4byte	0x6b
 2340 0300 03       		.byte	0x3
 2341 0301 07       		.uleb128 0x7
 2342 0302 90010000 		.4byte	.LASF51
 2343 0306 03       		.byte	0x3
 2344 0307 EC       		.byte	0xec
 2345 0308 6B000000 		.4byte	0x6b
 2346 030c 04       		.byte	0x4
 2347 030d 07       		.uleb128 0x7
 2348 030e B5050000 		.4byte	.LASF52
 2349 0312 03       		.byte	0x3
 2350 0313 ED       		.byte	0xed
 2351 0314 6B000000 		.4byte	0x6b
ARM GAS  C:\Users\DGILLI~1\AppData\Local\Temp\ccItuQxT.s 			page 68


 2352 0318 05       		.byte	0x5
 2353 0319 07       		.uleb128 0x7
 2354 031a 94050000 		.4byte	.LASF53
 2355 031e 03       		.byte	0x3
 2356 031f EE       		.byte	0xee
 2357 0320 6B000000 		.4byte	0x6b
 2358 0324 06       		.byte	0x6
 2359 0325 07       		.uleb128 0x7
 2360 0326 BD040000 		.4byte	.LASF54
 2361 032a 03       		.byte	0x3
 2362 032b EF       		.byte	0xef
 2363 032c 6B000000 		.4byte	0x6b
 2364 0330 07       		.byte	0x7
 2365 0331 07       		.uleb128 0x7
 2366 0332 38020000 		.4byte	.LASF55
 2367 0336 03       		.byte	0x3
 2368 0337 F0       		.byte	0xf0
 2369 0338 6B000000 		.4byte	0x6b
 2370 033c 08       		.byte	0x8
 2371 033d 0A       		.uleb128 0xa
 2372 033e 67617000 		.ascii	"gap\000"
 2373 0342 03       		.byte	0x3
 2374 0343 F1       		.byte	0xf1
 2375 0344 4A030000 		.4byte	0x34a
 2376 0348 09       		.byte	0x9
 2377 0349 00       		.byte	0
 2378 034a 0C       		.uleb128 0xc
 2379 034b 6B000000 		.4byte	0x6b
 2380 034f 5A030000 		.4byte	0x35a
 2381 0353 0D       		.uleb128 0xd
 2382 0354 C1000000 		.4byte	0xc1
 2383 0358 06       		.byte	0x6
 2384 0359 00       		.byte	0
 2385 035a 08       		.uleb128 0x8
 2386 035b 9B030000 		.4byte	.LASF56
 2387 035f 03       		.byte	0x3
 2388 0360 F2       		.byte	0xf2
 2389 0361 C9020000 		.4byte	0x2c9
 2390 0365 0E       		.uleb128 0xe
 2391 0366 90       		.byte	0x90
 2392 0367 03       		.byte	0x3
 2393 0368 0E01     		.2byte	0x10e
 2394 036a 7C030000 		.4byte	0x37c
 2395 036e 0F       		.uleb128 0xf
 2396 036f 21040000 		.4byte	.LASF57
 2397 0373 03       		.byte	0x3
 2398 0374 1001     		.2byte	0x110
 2399 0376 7C030000 		.4byte	0x37c
 2400 037a 00       		.byte	0
 2401 037b 00       		.byte	0
 2402 037c 0C       		.uleb128 0xc
 2403 037d BE020000 		.4byte	0x2be
 2404 0381 8C030000 		.4byte	0x38c
 2405 0385 0D       		.uleb128 0xd
 2406 0386 C1000000 		.4byte	0xc1
 2407 038a 08       		.byte	0x8
 2408 038b 00       		.byte	0
ARM GAS  C:\Users\DGILLI~1\AppData\Local\Temp\ccItuQxT.s 			page 69


 2409 038c 04       		.uleb128 0x4
 2410 038d 62020000 		.4byte	.LASF58
 2411 0391 03       		.byte	0x3
 2412 0392 1101     		.2byte	0x111
 2413 0394 65030000 		.4byte	0x365
 2414 0398 0E       		.uleb128 0xe
 2415 0399 90       		.byte	0x90
 2416 039a 03       		.byte	0x3
 2417 039b 1401     		.2byte	0x114
 2418 039d AF030000 		.4byte	0x3af
 2419 03a1 0F       		.uleb128 0xf
 2420 03a2 CF030000 		.4byte	.LASF59
 2421 03a6 03       		.byte	0x3
 2422 03a7 1601     		.2byte	0x116
 2423 03a9 AF030000 		.4byte	0x3af
 2424 03ad 00       		.byte	0
 2425 03ae 00       		.byte	0
 2426 03af 0C       		.uleb128 0xc
 2427 03b0 5A030000 		.4byte	0x35a
 2428 03b4 BF030000 		.4byte	0x3bf
 2429 03b8 0D       		.uleb128 0xd
 2430 03b9 C1000000 		.4byte	0xc1
 2431 03bd 08       		.byte	0x8
 2432 03be 00       		.byte	0
 2433 03bf 04       		.uleb128 0x4
 2434 03c0 A9020000 		.4byte	.LASF60
 2435 03c4 03       		.byte	0x3
 2436 03c5 1701     		.2byte	0x117
 2437 03c7 98030000 		.4byte	0x398
 2438 03cb 10       		.uleb128 0x10
 2439 03cc 1A000000 		.4byte	.LASF62
 2440 03d0 01       		.byte	0x1
 2441 03d1 8E01     		.2byte	0x18e
 2442 03d3 00000000 		.4byte	.LFB1
 2443 03d7 6C000000 		.4byte	.LFE1-.LFB1
 2444 03db 01       		.uleb128 0x1
 2445 03dc 9C       		.byte	0x9c
 2446 03dd 3C040000 		.4byte	0x43c
 2447 03e1 11       		.uleb128 0x11
 2448 03e2 2A050000 		.4byte	.LASF65
 2449 03e6 01       		.byte	0x1
 2450 03e7 8E01     		.2byte	0x18e
 2451 03e9 3C040000 		.4byte	0x43c
 2452 03ed 00000000 		.4byte	.LLST0
 2453 03f1 12       		.uleb128 0x12
 2454 03f2 68657800 		.ascii	"hex\000"
 2455 03f6 01       		.byte	0x1
 2456 03f7 9001     		.2byte	0x190
 2457 03f9 52040000 		.4byte	0x452
 2458 03fd 02       		.uleb128 0x2
 2459 03fe 91       		.byte	0x91
 2460 03ff 5C       		.sleb128 -36
 2461 0400 13       		.uleb128 0x13
 2462 0401 6900     		.ascii	"i\000"
 2463 0403 01       		.byte	0x1
 2464 0404 9101     		.2byte	0x191
 2465 0406 6B000000 		.4byte	0x6b
ARM GAS  C:\Users\DGILLI~1\AppData\Local\Temp\ccItuQxT.s 			page 70


 2466 040a 2C000000 		.4byte	.LLST1
 2467 040e 13       		.uleb128 0x13
 2468 040f 6A00     		.ascii	"j\000"
 2469 0411 01       		.byte	0x1
 2470 0412 9201     		.2byte	0x192
 2471 0414 6B000000 		.4byte	0x6b
 2472 0418 56000000 		.4byte	.LLST2
 2473 041c 14       		.uleb128 0x14
 2474 041d 59060000 		.4byte	.LASF61
 2475 0421 01       		.byte	0x1
 2476 0422 9301     		.2byte	0x193
 2477 0424 5A020000 		.4byte	0x25a
 2478 0428 02       		.uleb128 0x2
 2479 0429 91       		.byte	0x91
 2480 042a 54       		.sleb128 -44
 2481 042b 15       		.uleb128 0x15
 2482 042c 22000000 		.4byte	.LVL3
 2483 0430 DB0A0000 		.4byte	0xadb
 2484 0434 16       		.uleb128 0x16
 2485 0435 01       		.uleb128 0x1
 2486 0436 50       		.byte	0x50
 2487 0437 02       		.uleb128 0x2
 2488 0438 91       		.byte	0x91
 2489 0439 54       		.sleb128 -44
 2490 043a 00       		.byte	0
 2491 043b 00       		.byte	0
 2492 043c 09       		.uleb128 0x9
 2493 043d 04       		.byte	0x4
 2494 043e 6B000000 		.4byte	0x6b
 2495 0442 0C       		.uleb128 0xc
 2496 0443 9D000000 		.4byte	0x9d
 2497 0447 52040000 		.4byte	0x452
 2498 044b 0D       		.uleb128 0xd
 2499 044c C1000000 		.4byte	0xc1
 2500 0450 10       		.byte	0x10
 2501 0451 00       		.byte	0
 2502 0452 17       		.uleb128 0x17
 2503 0453 42040000 		.4byte	0x442
 2504 0457 10       		.uleb128 0x10
 2505 0458 A9040000 		.4byte	.LASF63
 2506 045c 01       		.byte	0x1
 2507 045d B501     		.2byte	0x1b5
 2508 045f 00000000 		.4byte	.LFB2
 2509 0463 A4000000 		.4byte	.LFE2-.LFB2
 2510 0467 01       		.uleb128 0x1
 2511 0468 9C       		.byte	0x9c
 2512 0469 7D040000 		.4byte	0x47d
 2513 046d 13       		.uleb128 0x13
 2514 046e 657000   		.ascii	"ep\000"
 2515 0471 01       		.byte	0x1
 2516 0472 B701     		.2byte	0x1b7
 2517 0474 6B000000 		.4byte	0x6b
 2518 0478 80000000 		.4byte	.LLST3
 2519 047c 00       		.byte	0
 2520 047d 10       		.uleb128 0x10
 2521 047e 0C010000 		.4byte	.LASF64
 2522 0482 01       		.byte	0x1
ARM GAS  C:\Users\DGILLI~1\AppData\Local\Temp\ccItuQxT.s 			page 71


 2523 0483 1402     		.2byte	0x214
 2524 0485 00000000 		.4byte	.LFB3
 2525 0489 40000000 		.4byte	.LFE3-.LFB3
 2526 048d 01       		.uleb128 0x1
 2527 048e 9C       		.byte	0x9c
 2528 048f A2040000 		.4byte	0x4a2
 2529 0493 13       		.uleb128 0x13
 2530 0494 6900     		.ascii	"i\000"
 2531 0496 01       		.byte	0x1
 2532 0497 1602     		.2byte	0x216
 2533 0499 6B000000 		.4byte	0x6b
 2534 049d AA000000 		.4byte	.LLST4
 2535 04a1 00       		.byte	0
 2536 04a2 18       		.uleb128 0x18
 2537 04a3 C4000000 		.4byte	.LASF72
 2538 04a7 01       		.byte	0x1
 2539 04a8 AE03     		.2byte	0x3ae
 2540 04aa DD040000 		.4byte	0x4dd
 2541 04ae 00000000 		.4byte	.LFB6
 2542 04b2 28000000 		.4byte	.LFE6-.LFB6
 2543 04b6 01       		.uleb128 0x1
 2544 04b7 9C       		.byte	0x9c
 2545 04b8 DD040000 		.4byte	0x4dd
 2546 04bc 11       		.uleb128 0x11
 2547 04bd 3F000000 		.4byte	.LASF66
 2548 04c1 01       		.byte	0x1
 2549 04c2 AE03     		.2byte	0x3ae
 2550 04c4 6B000000 		.4byte	0x6b
 2551 04c8 D4000000 		.4byte	.LLST5
 2552 04cc 19       		.uleb128 0x19
 2553 04cd 27040000 		.4byte	.LASF67
 2554 04d1 01       		.byte	0x1
 2555 04d2 B203     		.2byte	0x3b2
 2556 04d4 DD040000 		.4byte	0x4dd
 2557 04d8 0E010000 		.4byte	.LLST6
 2558 04dc 00       		.byte	0
 2559 04dd 09       		.uleb128 0x9
 2560 04de 04       		.byte	0x4
 2561 04df E3040000 		.4byte	0x4e3
 2562 04e3 17       		.uleb128 0x17
 2563 04e4 3A020000 		.4byte	0x23a
 2564 04e8 10       		.uleb128 0x10
 2565 04e9 05020000 		.4byte	.LASF68
 2566 04ed 01       		.byte	0x1
 2567 04ee 2503     		.2byte	0x325
 2568 04f0 00000000 		.4byte	.LFB5
 2569 04f4 1C010000 		.4byte	.LFE5-.LFB5
 2570 04f8 01       		.uleb128 0x1
 2571 04f9 9C       		.byte	0x9c
 2572 04fa 75050000 		.4byte	0x575
 2573 04fe 13       		.uleb128 0x13
 2574 04ff 657000   		.ascii	"ep\000"
 2575 0502 01       		.byte	0x1
 2576 0503 2703     		.2byte	0x327
 2577 0505 6B000000 		.4byte	0x6b
 2578 0509 46010000 		.4byte	.LLST7
 2579 050d 19       		.uleb128 0x19
ARM GAS  C:\Users\DGILLI~1\AppData\Local\Temp\ccItuQxT.s 			page 72


 2580 050e FC030000 		.4byte	.LASF69
 2581 0512 01       		.byte	0x1
 2582 0513 2803     		.2byte	0x328
 2583 0515 6B000000 		.4byte	0x6b
 2584 0519 59010000 		.4byte	.LLST8
 2585 051d 19       		.uleb128 0x19
 2586 051e 44020000 		.4byte	.LASF70
 2587 0522 01       		.byte	0x1
 2588 0523 2903     		.2byte	0x329
 2589 0525 6B000000 		.4byte	0x6b
 2590 0529 6C010000 		.4byte	.LLST9
 2591 052d 13       		.uleb128 0x13
 2592 052e 6900     		.ascii	"i\000"
 2593 0530 01       		.byte	0x1
 2594 0531 2A03     		.2byte	0x32a
 2595 0533 6B000000 		.4byte	0x6b
 2596 0537 8A010000 		.4byte	.LLST10
 2597 053b 19       		.uleb128 0x19
 2598 053c D9040000 		.4byte	.LASF71
 2599 0540 01       		.byte	0x1
 2600 0541 2B03     		.2byte	0x32b
 2601 0543 6B000000 		.4byte	0x6b
 2602 0547 B4010000 		.4byte	.LLST11
 2603 054b 19       		.uleb128 0x19
 2604 054c 27040000 		.4byte	.LASF67
 2605 0550 01       		.byte	0x1
 2606 0551 2D03     		.2byte	0x32d
 2607 0553 DD040000 		.4byte	0x4dd
 2608 0557 C7010000 		.4byte	.LLST12
 2609 055b 13       		.uleb128 0x13
 2610 055c 70455000 		.ascii	"pEP\000"
 2611 0560 01       		.byte	0x1
 2612 0561 2E03     		.2byte	0x32e
 2613 0563 75050000 		.4byte	0x575
 2614 0567 DC010000 		.4byte	.LLST13
 2615 056b 1A       		.uleb128 0x1a
 2616 056c 18000000 		.4byte	.LVL26
 2617 0570 A2040000 		.4byte	0x4a2
 2618 0574 00       		.byte	0
 2619 0575 09       		.uleb128 0x9
 2620 0576 04       		.byte	0x4
 2621 0577 7B050000 		.4byte	0x57b
 2622 057b 17       		.uleb128 0x17
 2623 057c 99010000 		.4byte	0x199
 2624 0580 1B       		.uleb128 0x1b
 2625 0581 B3030000 		.4byte	.LASF118
 2626 0585 01       		.byte	0x1
 2627 0586 F303     		.2byte	0x3f3
 2628 0588 DD040000 		.4byte	0x4dd
 2629 058c 00000000 		.4byte	.LFB7
 2630 0590 18000000 		.4byte	.LFE7-.LFB7
 2631 0594 01       		.uleb128 0x1
 2632 0595 9C       		.byte	0x9c
 2633 0596 18       		.uleb128 0x18
 2634 0597 85040000 		.4byte	.LASF73
 2635 059b 01       		.byte	0x1
 2636 059c 0604     		.2byte	0x406
ARM GAS  C:\Users\DGILLI~1\AppData\Local\Temp\ccItuQxT.s 			page 73


 2637 059e EA050000 		.4byte	0x5ea
 2638 05a2 00000000 		.4byte	.LFB8
 2639 05a6 24000000 		.4byte	.LFE8-.LFB8
 2640 05aa 01       		.uleb128 0x1
 2641 05ab 9C       		.byte	0x9c
 2642 05ac EA050000 		.4byte	0x5ea
 2643 05b0 19       		.uleb128 0x19
 2644 05b1 27040000 		.4byte	.LASF67
 2645 05b5 01       		.byte	0x1
 2646 05b6 0904     		.2byte	0x409
 2647 05b8 DD040000 		.4byte	0x4dd
 2648 05bc EF010000 		.4byte	.LLST14
 2649 05c0 19       		.uleb128 0x19
 2650 05c1 73030000 		.4byte	.LASF74
 2651 05c5 01       		.byte	0x1
 2652 05c6 0A04     		.2byte	0x40a
 2653 05c8 EA050000 		.4byte	0x5ea
 2654 05cc 1F020000 		.4byte	.LLST15
 2655 05d0 19       		.uleb128 0x19
 2656 05d1 33060000 		.4byte	.LASF75
 2657 05d5 01       		.byte	0x1
 2658 05d6 0B04     		.2byte	0x40b
 2659 05d8 6B000000 		.4byte	0x6b
 2660 05dc 3D020000 		.4byte	.LLST16
 2661 05e0 1A       		.uleb128 0x1a
 2662 05e1 0E000000 		.4byte	.LVL42
 2663 05e5 A2040000 		.4byte	0x4a2
 2664 05e9 00       		.byte	0
 2665 05ea 09       		.uleb128 0x9
 2666 05eb 04       		.byte	0x4
 2667 05ec F0050000 		.4byte	0x5f0
 2668 05f0 17       		.uleb128 0x17
 2669 05f1 6B000000 		.4byte	0x6b
 2670 05f5 10       		.uleb128 0x10
 2671 05f6 32010000 		.4byte	.LASF76
 2672 05fa 01       		.byte	0x1
 2673 05fb 3A02     		.2byte	0x23a
 2674 05fd 00000000 		.4byte	.LFB4
 2675 0601 E4010000 		.4byte	.LFE4-.LFB4
 2676 0605 01       		.uleb128 0x1
 2677 0606 9C       		.byte	0x9c
 2678 0607 EE060000 		.4byte	0x6ee
 2679 060b 11       		.uleb128 0x11
 2680 060c E0000000 		.4byte	.LASF77
 2681 0610 01       		.byte	0x1
 2682 0611 3A02     		.2byte	0x23a
 2683 0613 6B000000 		.4byte	0x6b
 2684 0617 50020000 		.4byte	.LLST17
 2685 061b 13       		.uleb128 0x13
 2686 061c 657000   		.ascii	"ep\000"
 2687 061f 01       		.byte	0x1
 2688 0620 3C02     		.2byte	0x23c
 2689 0622 6B000000 		.4byte	0x6b
 2690 0626 71020000 		.4byte	.LLST18
 2691 062a 19       		.uleb128 0x19
 2692 062b FC030000 		.4byte	.LASF69
 2693 062f 01       		.byte	0x1
ARM GAS  C:\Users\DGILLI~1\AppData\Local\Temp\ccItuQxT.s 			page 74


 2694 0630 3D02     		.2byte	0x23d
 2695 0632 6B000000 		.4byte	0x6b
 2696 0636 D3020000 		.4byte	.LLST19
 2697 063a 13       		.uleb128 0x13
 2698 063b 6900     		.ascii	"i\000"
 2699 063d 01       		.byte	0x1
 2700 063e 3E02     		.2byte	0x23e
 2701 0640 6B000000 		.4byte	0x6b
 2702 0644 FD020000 		.4byte	.LLST20
 2703 0648 19       		.uleb128 0x19
 2704 0649 44020000 		.4byte	.LASF70
 2705 064d 01       		.byte	0x1
 2706 064e 3F02     		.2byte	0x23f
 2707 0650 6B000000 		.4byte	0x6b
 2708 0654 6A030000 		.4byte	.LLST21
 2709 0658 19       		.uleb128 0x19
 2710 0659 6C030000 		.4byte	.LASF78
 2711 065d 01       		.byte	0x1
 2712 065e 4002     		.2byte	0x240
 2713 0660 EA050000 		.4byte	0x5ea
 2714 0664 AA030000 		.4byte	.LLST22
 2715 0668 19       		.uleb128 0x19
 2716 0669 33040000 		.4byte	.LASF79
 2717 066d 01       		.byte	0x1
 2718 066e 4302     		.2byte	0x243
 2719 0670 77000000 		.4byte	0x77
 2720 0674 C9030000 		.4byte	.LLST23
 2721 0678 19       		.uleb128 0x19
 2722 0679 27040000 		.4byte	.LASF67
 2723 067d 01       		.byte	0x1
 2724 067e 4602     		.2byte	0x246
 2725 0680 DD040000 		.4byte	0x4dd
 2726 0684 0A040000 		.4byte	.LLST24
 2727 0688 13       		.uleb128 0x13
 2728 0689 70455000 		.ascii	"pEP\000"
 2729 068d 01       		.byte	0x1
 2730 068e 4702     		.2byte	0x247
 2731 0690 75050000 		.4byte	0x575
 2732 0694 37040000 		.4byte	.LLST25
 2733 0698 1C       		.uleb128 0x1c
 2734 0699 50000000 		.4byte	.LBB2
 2735 069d 94010000 		.4byte	.LBE2-.LBB2
 2736 06a1 19       		.uleb128 0x19
 2737 06a2 4C010000 		.4byte	.LASF80
 2738 06a6 01       		.byte	0x1
 2739 06a7 6302     		.2byte	0x263
 2740 06a9 6B000000 		.4byte	0x6b
 2741 06ad 6D040000 		.4byte	.LLST26
 2742 06b1 1A       		.uleb128 0x1a
 2743 06b2 5C000000 		.4byte	.LVL61
 2744 06b6 A2040000 		.4byte	0x4a2
 2745 06ba 1D       		.uleb128 0x1d
 2746 06bb 54010000 		.4byte	.LVL76
 2747 06bf F20A0000 		.4byte	0xaf2
 2748 06c3 DA060000 		.4byte	0x6da
 2749 06c7 16       		.uleb128 0x16
 2750 06c8 01       		.uleb128 0x1
ARM GAS  C:\Users\DGILLI~1\AppData\Local\Temp\ccItuQxT.s 			page 75


 2751 06c9 52       		.byte	0x52
 2752 06ca 02       		.uleb128 0x2
 2753 06cb 79       		.byte	0x79
 2754 06cc 00       		.sleb128 0
 2755 06cd 16       		.uleb128 0x16
 2756 06ce 01       		.uleb128 0x1
 2757 06cf 51       		.byte	0x51
 2758 06d0 02       		.uleb128 0x2
 2759 06d1 76       		.byte	0x76
 2760 06d2 00       		.sleb128 0
 2761 06d3 16       		.uleb128 0x16
 2762 06d4 01       		.uleb128 0x1
 2763 06d5 50       		.byte	0x50
 2764 06d6 02       		.uleb128 0x2
 2765 06d7 75       		.byte	0x75
 2766 06d8 00       		.sleb128 0
 2767 06d9 00       		.byte	0
 2768 06da 1A       		.uleb128 0x1a
 2769 06db 92010000 		.4byte	.LVL89
 2770 06df 96050000 		.4byte	0x596
 2771 06e3 1A       		.uleb128 0x1a
 2772 06e4 C2010000 		.4byte	.LVL98
 2773 06e8 57040000 		.4byte	0x457
 2774 06ec 00       		.byte	0
 2775 06ed 00       		.byte	0
 2776 06ee 10       		.uleb128 0x10
 2777 06ef 57010000 		.4byte	.LASF81
 2778 06f3 01       		.byte	0x1
 2779 06f4 3004     		.2byte	0x430
 2780 06f6 00000000 		.4byte	.LFB9
 2781 06fa 4C000000 		.4byte	.LFE9-.LFB9
 2782 06fe 01       		.uleb128 0x1
 2783 06ff 9C       		.byte	0x9c
 2784 0700 15070000 		.4byte	0x715
 2785 0704 11       		.uleb128 0x11
 2786 0705 6B000000 		.4byte	.LASF82
 2787 0709 01       		.byte	0x1
 2788 070a 3004     		.2byte	0x430
 2789 070c 6B000000 		.4byte	0x6b
 2790 0710 8C040000 		.4byte	.LLST27
 2791 0714 00       		.byte	0
 2792 0715 18       		.uleb128 0x18
 2793 0716 DC070000 		.4byte	.LASF83
 2794 071a 01       		.byte	0x1
 2795 071b 5904     		.2byte	0x459
 2796 071d 6B000000 		.4byte	0x6b
 2797 0721 00000000 		.4byte	.LFB10
 2798 0725 64000000 		.4byte	.LFE10-.LFB10
 2799 0729 01       		.uleb128 0x1
 2800 072a 9C       		.byte	0x9c
 2801 072b 58070000 		.4byte	0x758
 2802 072f 19       		.uleb128 0x19
 2803 0730 24060000 		.4byte	.LASF84
 2804 0734 01       		.byte	0x1
 2805 0735 5B04     		.2byte	0x45b
 2806 0737 6B000000 		.4byte	0x6b
 2807 073b B5040000 		.4byte	.LLST28
ARM GAS  C:\Users\DGILLI~1\AppData\Local\Temp\ccItuQxT.s 			page 76


 2808 073f 13       		.uleb128 0x13
 2809 0740 657000   		.ascii	"ep\000"
 2810 0743 01       		.byte	0x1
 2811 0744 5C04     		.2byte	0x45c
 2812 0746 6B000000 		.4byte	0x6b
 2813 074a EB040000 		.4byte	.LLST29
 2814 074e 1A       		.uleb128 0x1a
 2815 074f 52000000 		.4byte	.LVL109
 2816 0753 120B0000 		.4byte	0xb12
 2817 0757 00       		.byte	0
 2818 0758 18       		.uleb128 0x18
 2819 0759 99050000 		.4byte	.LASF85
 2820 075d 01       		.byte	0x1
 2821 075e 8A04     		.2byte	0x48a
 2822 0760 6B000000 		.4byte	0x6b
 2823 0764 00000000 		.4byte	.LFB11
 2824 0768 A8000000 		.4byte	.LFE11-.LFB11
 2825 076c 01       		.uleb128 0x1
 2826 076d 9C       		.byte	0x9c
 2827 076e 9B070000 		.4byte	0x79b
 2828 0772 19       		.uleb128 0x19
 2829 0773 24060000 		.4byte	.LASF84
 2830 0777 01       		.byte	0x1
 2831 0778 8C04     		.2byte	0x48c
 2832 077a 6B000000 		.4byte	0x6b
 2833 077e 14050000 		.4byte	.LLST30
 2834 0782 13       		.uleb128 0x13
 2835 0783 657000   		.ascii	"ep\000"
 2836 0786 01       		.byte	0x1
 2837 0787 8D04     		.2byte	0x48d
 2838 0789 6B000000 		.4byte	0x6b
 2839 078d 3F050000 		.4byte	.LLST31
 2840 0791 1A       		.uleb128 0x1a
 2841 0792 96000000 		.4byte	.LVL121
 2842 0796 120B0000 		.4byte	0xb12
 2843 079a 00       		.byte	0
 2844 079b 18       		.uleb128 0x18
 2845 079c C8050000 		.4byte	.LASF86
 2846 07a0 01       		.byte	0x1
 2847 07a1 CF04     		.2byte	0x4cf
 2848 07a3 6B000000 		.4byte	0x6b
 2849 07a7 00000000 		.4byte	.LFB12
 2850 07ab 4C000000 		.4byte	.LFE12-.LFB12
 2851 07af 01       		.uleb128 0x1
 2852 07b0 9C       		.byte	0x9c
 2853 07b1 FF070000 		.4byte	0x7ff
 2854 07b5 19       		.uleb128 0x19
 2855 07b6 24060000 		.4byte	.LASF84
 2856 07ba 01       		.byte	0x1
 2857 07bb D104     		.2byte	0x4d1
 2858 07bd 6B000000 		.4byte	0x6b
 2859 07c1 7E050000 		.4byte	.LLST32
 2860 07c5 19       		.uleb128 0x19
 2861 07c6 D9040000 		.4byte	.LASF71
 2862 07ca 01       		.byte	0x1
 2863 07cb D304     		.2byte	0x4d3
 2864 07cd 6B000000 		.4byte	0x6b
ARM GAS  C:\Users\DGILLI~1\AppData\Local\Temp\ccItuQxT.s 			page 77


 2865 07d1 B5050000 		.4byte	.LLST33
 2866 07d5 19       		.uleb128 0x19
 2867 07d6 A7070000 		.4byte	.LASF87
 2868 07da 01       		.byte	0x1
 2869 07db D404     		.2byte	0x4d4
 2870 07dd 6B000000 		.4byte	0x6b
 2871 07e1 C8050000 		.4byte	.LLST34
 2872 07e5 19       		.uleb128 0x19
 2873 07e6 27040000 		.4byte	.LASF67
 2874 07ea 01       		.byte	0x1
 2875 07eb D504     		.2byte	0x4d5
 2876 07ed DD040000 		.4byte	0x4dd
 2877 07f1 F5050000 		.4byte	.LLST35
 2878 07f5 1A       		.uleb128 0x1a
 2879 07f6 14000000 		.4byte	.LVL125
 2880 07fa A2040000 		.4byte	0x4a2
 2881 07fe 00       		.byte	0
 2882 07ff 1E       		.uleb128 0x1e
 2883 0800 DF030000 		.4byte	.LASF88
 2884 0804 01       		.byte	0x1
 2885 0805 54       		.byte	0x54
 2886 0806 6B000000 		.4byte	0x6b
 2887 080a 00000000 		.4byte	.LFB0
 2888 080e 50030000 		.4byte	.LFE0-.LFB0
 2889 0812 01       		.uleb128 0x1
 2890 0813 9C       		.byte	0x9c
 2891 0814 9A090000 		.4byte	0x99a
 2892 0818 1F       		.uleb128 0x1f
 2893 0819 24060000 		.4byte	.LASF84
 2894 081d 01       		.byte	0x1
 2895 081e 56       		.byte	0x56
 2896 081f 6B000000 		.4byte	0x6b
 2897 0823 13060000 		.4byte	.LLST36
 2898 0827 1F       		.uleb128 0x1f
 2899 0828 7C060000 		.4byte	.LASF89
 2900 082c 01       		.byte	0x1
 2901 082d 57       		.byte	0x57
 2902 082e 6B000000 		.4byte	0x6b
 2903 0832 B9070000 		.4byte	.LLST37
 2904 0836 1F       		.uleb128 0x1f
 2905 0837 F7040000 		.4byte	.LASF90
 2906 083b 01       		.byte	0x1
 2907 083c 58       		.byte	0x58
 2908 083d 6B000000 		.4byte	0x6b
 2909 0841 CC070000 		.4byte	.LLST38
 2910 0845 1F       		.uleb128 0x1f
 2911 0846 4B020000 		.4byte	.LASF91
 2912 084a 01       		.byte	0x1
 2913 084b 59       		.byte	0x59
 2914 084c 6B000000 		.4byte	0x6b
 2915 0850 DF070000 		.4byte	.LLST39
 2916 0854 1F       		.uleb128 0x1f
 2917 0855 06050000 		.4byte	.LASF92
 2918 0859 01       		.byte	0x1
 2919 085a 5C       		.byte	0x5c
 2920 085b FD010000 		.4byte	0x1fd
 2921 085f 60080000 		.4byte	.LLST40
ARM GAS  C:\Users\DGILLI~1\AppData\Local\Temp\ccItuQxT.s 			page 78


 2922 0863 1F       		.uleb128 0x1f
 2923 0864 AD060000 		.4byte	.LASF93
 2924 0868 01       		.byte	0x1
 2925 0869 5E       		.byte	0x5e
 2926 086a 6B000000 		.4byte	0x6b
 2927 086e C4080000 		.4byte	.LLST41
 2928 0872 1F       		.uleb128 0x1f
 2929 0873 0C040000 		.4byte	.LASF94
 2930 0877 01       		.byte	0x1
 2931 0878 5F       		.byte	0x5f
 2932 0879 6B000000 		.4byte	0x6b
 2933 087d ED080000 		.4byte	.LLST42
 2934 0881 20       		.uleb128 0x20
 2935 0882 26020000 		.4byte	.LASF95
 2936 0886 01       		.byte	0x1
 2937 0887 63       		.byte	0x63
 2938 0888 AA090000 		.4byte	0x9aa
 2939 088c 05       		.uleb128 0x5
 2940 088d 03       		.byte	0x3
 2941 088e 00000000 		.4byte	USBUART_1_tBuffer.5117
 2942 0892 1F       		.uleb128 0x1f
 2943 0893 27040000 		.4byte	.LASF67
 2944 0897 01       		.byte	0x1
 2945 0898 64       		.byte	0x64
 2946 0899 DD040000 		.4byte	0x4dd
 2947 089d 00090000 		.4byte	.LLST43
 2948 08a1 1A       		.uleb128 0x1a
 2949 08a2 4A000000 		.4byte	.LVL136
 2950 08a6 80050000 		.4byte	0x580
 2951 08aa 1A       		.uleb128 0x1a
 2952 08ab 58000000 		.4byte	.LVL137
 2953 08af 1D0B0000 		.4byte	0xb1d
 2954 08b3 1A       		.uleb128 0x1a
 2955 08b4 6C000000 		.4byte	.LVL139
 2956 08b8 A2040000 		.4byte	0x4a2
 2957 08bc 1A       		.uleb128 0x1a
 2958 08bd 8A000000 		.4byte	.LVL140
 2959 08c1 1D0B0000 		.4byte	0xb1d
 2960 08c5 1D       		.uleb128 0x1d
 2961 08c6 D8000000 		.4byte	.LVL150
 2962 08ca CB030000 		.4byte	0x3cb
 2963 08ce D9080000 		.4byte	0x8d9
 2964 08d2 16       		.uleb128 0x16
 2965 08d3 01       		.uleb128 0x1
 2966 08d4 50       		.byte	0x50
 2967 08d5 02       		.uleb128 0x2
 2968 08d6 74       		.byte	0x74
 2969 08d7 00       		.sleb128 0
 2970 08d8 00       		.byte	0
 2971 08d9 1A       		.uleb128 0x1a
 2972 08da F0000000 		.4byte	.LVL152
 2973 08de 1D0B0000 		.4byte	0xb1d
 2974 08e2 1A       		.uleb128 0x1a
 2975 08e3 F6000000 		.4byte	.LVL154
 2976 08e7 280B0000 		.4byte	0xb28
 2977 08eb 1A       		.uleb128 0x1a
 2978 08ec 2C010000 		.4byte	.LVL157
ARM GAS  C:\Users\DGILLI~1\AppData\Local\Temp\ccItuQxT.s 			page 79


 2979 08f0 1D0B0000 		.4byte	0xb1d
 2980 08f4 1A       		.uleb128 0x1a
 2981 08f5 48010000 		.4byte	.LVL159
 2982 08f9 1D0B0000 		.4byte	0xb1d
 2983 08fd 1A       		.uleb128 0x1a
 2984 08fe 58010000 		.4byte	.LVL162
 2985 0902 1D0B0000 		.4byte	0xb1d
 2986 0906 1A       		.uleb128 0x1a
 2987 0907 6E010000 		.4byte	.LVL165
 2988 090b 1D0B0000 		.4byte	0xb1d
 2989 090f 1A       		.uleb128 0x1a
 2990 0910 A4010000 		.4byte	.LVL168
 2991 0914 120B0000 		.4byte	0xb12
 2992 0918 1D       		.uleb128 0x1d
 2993 0919 B8010000 		.4byte	.LVL172
 2994 091d A2040000 		.4byte	0x4a2
 2995 0921 2C090000 		.4byte	0x92c
 2996 0925 16       		.uleb128 0x16
 2997 0926 01       		.uleb128 0x1
 2998 0927 50       		.byte	0x50
 2999 0928 02       		.uleb128 0x2
 3000 0929 74       		.byte	0x74
 3001 092a 7F       		.sleb128 -1
 3002 092b 00       		.byte	0
 3003 092c 1D       		.uleb128 0x1d
 3004 092d DA010000 		.4byte	.LVL174
 3005 0931 F5050000 		.4byte	0x5f5
 3006 0935 3F090000 		.4byte	0x93f
 3007 0939 16       		.uleb128 0x16
 3008 093a 01       		.uleb128 0x1
 3009 093b 50       		.byte	0x50
 3010 093c 01       		.uleb128 0x1
 3011 093d 31       		.byte	0x31
 3012 093e 00       		.byte	0
 3013 093f 1A       		.uleb128 0x1a
 3014 0940 DE010000 		.4byte	.LVL175
 3015 0944 120B0000 		.4byte	0xb12
 3016 0948 1A       		.uleb128 0x1a
 3017 0949 E4010000 		.4byte	.LVL177
 3018 094d 9B070000 		.4byte	0x79b
 3019 0951 1A       		.uleb128 0x1a
 3020 0952 10020000 		.4byte	.LVL180
 3021 0956 E8040000 		.4byte	0x4e8
 3022 095a 1A       		.uleb128 0x1a
 3023 095b 14020000 		.4byte	.LVL181
 3024 095f 120B0000 		.4byte	0xb12
 3025 0963 1A       		.uleb128 0x1a
 3026 0964 32020000 		.4byte	.LVL184
 3027 0968 58070000 		.4byte	0x758
 3028 096c 1A       		.uleb128 0x1a
 3029 096d 4C020000 		.4byte	.LVL186
 3030 0971 120B0000 		.4byte	0xb12
 3031 0975 1A       		.uleb128 0x1a
 3032 0976 6E020000 		.4byte	.LVL188
 3033 097a 120B0000 		.4byte	0xb12
 3034 097e 1A       		.uleb128 0x1a
 3035 097f C8020000 		.4byte	.LVL191
ARM GAS  C:\Users\DGILLI~1\AppData\Local\Temp\ccItuQxT.s 			page 80


 3036 0983 15070000 		.4byte	0x715
 3037 0987 1A       		.uleb128 0x1a
 3038 0988 E2020000 		.4byte	.LVL193
 3039 098c 120B0000 		.4byte	0xb12
 3040 0990 1A       		.uleb128 0x1a
 3041 0991 04030000 		.4byte	.LVL195
 3042 0995 120B0000 		.4byte	0xb12
 3043 0999 00       		.byte	0
 3044 099a 0C       		.uleb128 0xc
 3045 099b 6B000000 		.4byte	0x6b
 3046 099f AA090000 		.4byte	0x9aa
 3047 09a3 0D       		.uleb128 0xd
 3048 09a4 C1000000 		.4byte	0xc1
 3049 09a8 01       		.byte	0x1
 3050 09a9 00       		.byte	0
 3051 09aa 05       		.uleb128 0x5
 3052 09ab 9A090000 		.4byte	0x99a
 3053 09af 21       		.uleb128 0x21
 3054 09b0 2E000000 		.4byte	.LASF96
 3055 09b4 03       		.byte	0x3
 3056 09b5 D202     		.2byte	0x2d2
 3057 09b7 BC000000 		.4byte	0xbc
 3058 09bb 21       		.uleb128 0x21
 3059 09bc 44040000 		.4byte	.LASF97
 3060 09c0 03       		.byte	0x3
 3061 09c1 D402     		.2byte	0x2d4
 3062 09c3 BC000000 		.4byte	0xbc
 3063 09c7 21       		.uleb128 0x21
 3064 09c8 3A030000 		.4byte	.LASF98
 3065 09cc 03       		.byte	0x3
 3066 09cd D502     		.2byte	0x2d5
 3067 09cf BC000000 		.4byte	0xbc
 3068 09d3 21       		.uleb128 0x21
 3069 09d4 C2020000 		.4byte	.LASF99
 3070 09d8 03       		.byte	0x3
 3071 09d9 D602     		.2byte	0x2d6
 3072 09db BC000000 		.4byte	0xbc
 3073 09df 0C       		.uleb128 0xc
 3074 09e0 6B000000 		.4byte	0x6b
 3075 09e4 EF090000 		.4byte	0x9ef
 3076 09e8 0D       		.uleb128 0xd
 3077 09e9 C1000000 		.4byte	0xc1
 3078 09ed 11       		.byte	0x11
 3079 09ee 00       		.byte	0
 3080 09ef 22       		.uleb128 0x22
 3081 09f0 AC000000 		.4byte	.LASF100
 3082 09f4 04       		.byte	0x4
 3083 09f5 61       		.byte	0x61
 3084 09f6 FA090000 		.4byte	0x9fa
 3085 09fa 17       		.uleb128 0x17
 3086 09fb DF090000 		.4byte	0x9df
 3087 09ff 0C       		.uleb128 0xc
 3088 0a00 3A020000 		.4byte	0x23a
 3089 0a04 0F0A0000 		.4byte	0xa0f
 3090 0a08 0D       		.uleb128 0xd
 3091 0a09 C1000000 		.4byte	0xc1
 3092 0a0d 00       		.byte	0
ARM GAS  C:\Users\DGILLI~1\AppData\Local\Temp\ccItuQxT.s 			page 81


 3093 0a0e 00       		.byte	0
 3094 0a0f 22       		.uleb128 0x22
 3095 0a10 2A030000 		.4byte	.LASF101
 3096 0a14 04       		.byte	0x4
 3097 0a15 67       		.byte	0x67
 3098 0a16 1A0A0000 		.4byte	0xa1a
 3099 0a1a 17       		.uleb128 0x17
 3100 0a1b FF090000 		.4byte	0x9ff
 3101 0a1f 0C       		.uleb128 0xc
 3102 0a20 6B000000 		.4byte	0x6b
 3103 0a24 2F0A0000 		.4byte	0xa2f
 3104 0a28 0D       		.uleb128 0xd
 3105 0a29 C1000000 		.4byte	0xc1
 3106 0a2d 9E       		.byte	0x9e
 3107 0a2e 00       		.byte	0
 3108 0a2f 22       		.uleb128 0x22
 3109 0a30 03080000 		.4byte	.LASF102
 3110 0a34 04       		.byte	0x4
 3111 0a35 69       		.byte	0x69
 3112 0a36 3A0A0000 		.4byte	0xa3a
 3113 0a3a 17       		.uleb128 0x17
 3114 0a3b 1F0A0000 		.4byte	0xa1f
 3115 0a3f 0C       		.uleb128 0xc
 3116 0a40 6B000000 		.4byte	0x6b
 3117 0a44 4F0A0000 		.4byte	0xa4f
 3118 0a48 0D       		.uleb128 0xd
 3119 0a49 C1000000 		.4byte	0xc1
 3120 0a4d 21       		.byte	0x21
 3121 0a4e 00       		.byte	0
 3122 0a4f 22       		.uleb128 0x22
 3123 0a50 5C040000 		.4byte	.LASF103
 3124 0a54 04       		.byte	0x4
 3125 0a55 6F       		.byte	0x6f
 3126 0a56 3F0A0000 		.4byte	0xa3f
 3127 0a5a 22       		.uleb128 0x22
 3128 0a5b B2060000 		.4byte	.LASF104
 3129 0a5f 04       		.byte	0x4
 3130 0a60 72       		.byte	0x72
 3131 0a61 BC000000 		.4byte	0xbc
 3132 0a65 22       		.uleb128 0x22
 3133 0a66 3E050000 		.4byte	.LASF105
 3134 0a6a 04       		.byte	0x4
 3135 0a6b 73       		.byte	0x73
 3136 0a6c 700A0000 		.4byte	0xa70
 3137 0a70 05       		.uleb128 0x5
 3138 0a71 9A090000 		.4byte	0x99a
 3139 0a75 22       		.uleb128 0x22
 3140 0a76 CC060000 		.4byte	.LASF106
 3141 0a7a 04       		.byte	0x4
 3142 0a7b 74       		.byte	0x74
 3143 0a7c 800A0000 		.4byte	0xa80
 3144 0a80 05       		.uleb128 0x5
 3145 0a81 9A090000 		.4byte	0x99a
 3146 0a85 22       		.uleb128 0x22
 3147 0a86 83030000 		.4byte	.LASF107
 3148 0a8a 04       		.byte	0x4
 3149 0a8b 75       		.byte	0x75
ARM GAS  C:\Users\DGILLI~1\AppData\Local\Temp\ccItuQxT.s 			page 82


 3150 0a8c BC000000 		.4byte	0xbc
 3151 0a90 22       		.uleb128 0x22
 3152 0a91 10050000 		.4byte	.LASF108
 3153 0a95 04       		.byte	0x4
 3154 0a96 76       		.byte	0x76
 3155 0a97 9B0A0000 		.4byte	0xa9b
 3156 0a9b 05       		.uleb128 0x5
 3157 0a9c 9A090000 		.4byte	0x99a
 3158 0aa0 22       		.uleb128 0x22
 3159 0aa1 59050000 		.4byte	.LASF109
 3160 0aa5 04       		.byte	0x4
 3161 0aa6 77       		.byte	0x77
 3162 0aa7 EA050000 		.4byte	0x5ea
 3163 0aab 0C       		.uleb128 0xc
 3164 0aac 3D010000 		.4byte	0x13d
 3165 0ab0 BB0A0000 		.4byte	0xabb
 3166 0ab4 0D       		.uleb128 0xd
 3167 0ab5 C1000000 		.4byte	0xc1
 3168 0ab9 08       		.byte	0x8
 3169 0aba 00       		.byte	0
 3170 0abb 22       		.uleb128 0x22
 3171 0abc F6070000 		.4byte	.LASF110
 3172 0ac0 04       		.byte	0x4
 3173 0ac1 79       		.byte	0x79
 3174 0ac2 C60A0000 		.4byte	0xac6
 3175 0ac6 05       		.uleb128 0x5
 3176 0ac7 AB0A0000 		.4byte	0xaab
 3177 0acb 22       		.uleb128 0x22
 3178 0acc 6D010000 		.4byte	.LASF111
 3179 0ad0 04       		.byte	0x4
 3180 0ad1 7A       		.byte	0x7a
 3181 0ad2 D60A0000 		.4byte	0xad6
 3182 0ad6 05       		.uleb128 0x5
 3183 0ad7 09020000 		.4byte	0x209
 3184 0adb 23       		.uleb128 0x23
 3185 0adc D9020000 		.4byte	.LASF119
 3186 0ae0 05       		.byte	0x5
 3187 0ae1 BE       		.byte	0xbe
 3188 0ae2 EC0A0000 		.4byte	0xaec
 3189 0ae6 24       		.uleb128 0x24
 3190 0ae7 EC0A0000 		.4byte	0xaec
 3191 0aeb 00       		.byte	0
 3192 0aec 09       		.uleb128 0x9
 3193 0aed 04       		.byte	0x4
 3194 0aee 83000000 		.4byte	0x83
 3195 0af2 25       		.uleb128 0x25
 3196 0af3 94020000 		.4byte	.LASF120
 3197 0af7 04       		.byte	0x4
 3198 0af8 7B01     		.2byte	0x17b
 3199 0afa 6B000000 		.4byte	0x6b
 3200 0afe 120B0000 		.4byte	0xb12
 3201 0b02 24       		.uleb128 0x24
 3202 0b03 75050000 		.4byte	0x575
 3203 0b07 24       		.uleb128 0x24
 3204 0b08 6B000000 		.4byte	0x6b
 3205 0b0c 24       		.uleb128 0x24
 3206 0b0d 6B000000 		.4byte	0x6b
ARM GAS  C:\Users\DGILLI~1\AppData\Local\Temp\ccItuQxT.s 			page 83


 3207 0b11 00       		.byte	0
 3208 0b12 26       		.uleb128 0x26
 3209 0b13 F4020000 		.4byte	.LASF112
 3210 0b17 04       		.byte	0x4
 3211 0b18 B3       		.byte	0xb3
 3212 0b19 6B000000 		.4byte	0x6b
 3213 0b1d 26       		.uleb128 0x26
 3214 0b1e 8C060000 		.4byte	.LASF113
 3215 0b22 04       		.byte	0x4
 3216 0b23 A9       		.byte	0xa9
 3217 0b24 6B000000 		.4byte	0x6b
 3218 0b28 27       		.uleb128 0x27
 3219 0b29 F0000000 		.4byte	.LASF114
 3220 0b2d 04       		.byte	0x4
 3221 0b2e 4E01     		.2byte	0x14e
 3222 0b30 6B000000 		.4byte	0x6b
 3223 0b34 00       		.byte	0
 3224              		.section	.debug_abbrev,"",%progbits
 3225              	.Ldebug_abbrev0:
 3226 0000 01       		.uleb128 0x1
 3227 0001 11       		.uleb128 0x11
 3228 0002 01       		.byte	0x1
 3229 0003 25       		.uleb128 0x25
 3230 0004 0E       		.uleb128 0xe
 3231 0005 13       		.uleb128 0x13
 3232 0006 0B       		.uleb128 0xb
 3233 0007 03       		.uleb128 0x3
 3234 0008 0E       		.uleb128 0xe
 3235 0009 1B       		.uleb128 0x1b
 3236 000a 0E       		.uleb128 0xe
 3237 000b 55       		.uleb128 0x55
 3238 000c 17       		.uleb128 0x17
 3239 000d 11       		.uleb128 0x11
 3240 000e 01       		.uleb128 0x1
 3241 000f 10       		.uleb128 0x10
 3242 0010 17       		.uleb128 0x17
 3243 0011 00       		.byte	0
 3244 0012 00       		.byte	0
 3245 0013 02       		.uleb128 0x2
 3246 0014 24       		.uleb128 0x24
 3247 0015 00       		.byte	0
 3248 0016 0B       		.uleb128 0xb
 3249 0017 0B       		.uleb128 0xb
 3250 0018 3E       		.uleb128 0x3e
 3251 0019 0B       		.uleb128 0xb
 3252 001a 03       		.uleb128 0x3
 3253 001b 0E       		.uleb128 0xe
 3254 001c 00       		.byte	0
 3255 001d 00       		.byte	0
 3256 001e 03       		.uleb128 0x3
 3257 001f 24       		.uleb128 0x24
 3258 0020 00       		.byte	0
 3259 0021 0B       		.uleb128 0xb
 3260 0022 0B       		.uleb128 0xb
 3261 0023 3E       		.uleb128 0x3e
 3262 0024 0B       		.uleb128 0xb
 3263 0025 03       		.uleb128 0x3
ARM GAS  C:\Users\DGILLI~1\AppData\Local\Temp\ccItuQxT.s 			page 84


 3264 0026 08       		.uleb128 0x8
 3265 0027 00       		.byte	0
 3266 0028 00       		.byte	0
 3267 0029 04       		.uleb128 0x4
 3268 002a 16       		.uleb128 0x16
 3269 002b 00       		.byte	0
 3270 002c 03       		.uleb128 0x3
 3271 002d 0E       		.uleb128 0xe
 3272 002e 3A       		.uleb128 0x3a
 3273 002f 0B       		.uleb128 0xb
 3274 0030 3B       		.uleb128 0x3b
 3275 0031 05       		.uleb128 0x5
 3276 0032 49       		.uleb128 0x49
 3277 0033 13       		.uleb128 0x13
 3278 0034 00       		.byte	0
 3279 0035 00       		.byte	0
 3280 0036 05       		.uleb128 0x5
 3281 0037 35       		.uleb128 0x35
 3282 0038 00       		.byte	0
 3283 0039 49       		.uleb128 0x49
 3284 003a 13       		.uleb128 0x13
 3285 003b 00       		.byte	0
 3286 003c 00       		.byte	0
 3287 003d 06       		.uleb128 0x6
 3288 003e 13       		.uleb128 0x13
 3289 003f 01       		.byte	0x1
 3290 0040 0B       		.uleb128 0xb
 3291 0041 0B       		.uleb128 0xb
 3292 0042 3A       		.uleb128 0x3a
 3293 0043 0B       		.uleb128 0xb
 3294 0044 3B       		.uleb128 0x3b
 3295 0045 0B       		.uleb128 0xb
 3296 0046 01       		.uleb128 0x1
 3297 0047 13       		.uleb128 0x13
 3298 0048 00       		.byte	0
 3299 0049 00       		.byte	0
 3300 004a 07       		.uleb128 0x7
 3301 004b 0D       		.uleb128 0xd
 3302 004c 00       		.byte	0
 3303 004d 03       		.uleb128 0x3
 3304 004e 0E       		.uleb128 0xe
 3305 004f 3A       		.uleb128 0x3a
 3306 0050 0B       		.uleb128 0xb
 3307 0051 3B       		.uleb128 0x3b
 3308 0052 0B       		.uleb128 0xb
 3309 0053 49       		.uleb128 0x49
 3310 0054 13       		.uleb128 0x13
 3311 0055 38       		.uleb128 0x38
 3312 0056 0B       		.uleb128 0xb
 3313 0057 00       		.byte	0
 3314 0058 00       		.byte	0
 3315 0059 08       		.uleb128 0x8
 3316 005a 16       		.uleb128 0x16
 3317 005b 00       		.byte	0
 3318 005c 03       		.uleb128 0x3
 3319 005d 0E       		.uleb128 0xe
 3320 005e 3A       		.uleb128 0x3a
ARM GAS  C:\Users\DGILLI~1\AppData\Local\Temp\ccItuQxT.s 			page 85


 3321 005f 0B       		.uleb128 0xb
 3322 0060 3B       		.uleb128 0x3b
 3323 0061 0B       		.uleb128 0xb
 3324 0062 49       		.uleb128 0x49
 3325 0063 13       		.uleb128 0x13
 3326 0064 00       		.byte	0
 3327 0065 00       		.byte	0
 3328 0066 09       		.uleb128 0x9
 3329 0067 0F       		.uleb128 0xf
 3330 0068 00       		.byte	0
 3331 0069 0B       		.uleb128 0xb
 3332 006a 0B       		.uleb128 0xb
 3333 006b 49       		.uleb128 0x49
 3334 006c 13       		.uleb128 0x13
 3335 006d 00       		.byte	0
 3336 006e 00       		.byte	0
 3337 006f 0A       		.uleb128 0xa
 3338 0070 0D       		.uleb128 0xd
 3339 0071 00       		.byte	0
 3340 0072 03       		.uleb128 0x3
 3341 0073 08       		.uleb128 0x8
 3342 0074 3A       		.uleb128 0x3a
 3343 0075 0B       		.uleb128 0xb
 3344 0076 3B       		.uleb128 0x3b
 3345 0077 0B       		.uleb128 0xb
 3346 0078 49       		.uleb128 0x49
 3347 0079 13       		.uleb128 0x13
 3348 007a 38       		.uleb128 0x38
 3349 007b 0B       		.uleb128 0xb
 3350 007c 00       		.byte	0
 3351 007d 00       		.byte	0
 3352 007e 0B       		.uleb128 0xb
 3353 007f 26       		.uleb128 0x26
 3354 0080 00       		.byte	0
 3355 0081 00       		.byte	0
 3356 0082 00       		.byte	0
 3357 0083 0C       		.uleb128 0xc
 3358 0084 01       		.uleb128 0x1
 3359 0085 01       		.byte	0x1
 3360 0086 49       		.uleb128 0x49
 3361 0087 13       		.uleb128 0x13
 3362 0088 01       		.uleb128 0x1
 3363 0089 13       		.uleb128 0x13
 3364 008a 00       		.byte	0
 3365 008b 00       		.byte	0
 3366 008c 0D       		.uleb128 0xd
 3367 008d 21       		.uleb128 0x21
 3368 008e 00       		.byte	0
 3369 008f 49       		.uleb128 0x49
 3370 0090 13       		.uleb128 0x13
 3371 0091 2F       		.uleb128 0x2f
 3372 0092 0B       		.uleb128 0xb
 3373 0093 00       		.byte	0
 3374 0094 00       		.byte	0
 3375 0095 0E       		.uleb128 0xe
 3376 0096 13       		.uleb128 0x13
 3377 0097 01       		.byte	0x1
ARM GAS  C:\Users\DGILLI~1\AppData\Local\Temp\ccItuQxT.s 			page 86


 3378 0098 0B       		.uleb128 0xb
 3379 0099 0B       		.uleb128 0xb
 3380 009a 3A       		.uleb128 0x3a
 3381 009b 0B       		.uleb128 0xb
 3382 009c 3B       		.uleb128 0x3b
 3383 009d 05       		.uleb128 0x5
 3384 009e 01       		.uleb128 0x1
 3385 009f 13       		.uleb128 0x13
 3386 00a0 00       		.byte	0
 3387 00a1 00       		.byte	0
 3388 00a2 0F       		.uleb128 0xf
 3389 00a3 0D       		.uleb128 0xd
 3390 00a4 00       		.byte	0
 3391 00a5 03       		.uleb128 0x3
 3392 00a6 0E       		.uleb128 0xe
 3393 00a7 3A       		.uleb128 0x3a
 3394 00a8 0B       		.uleb128 0xb
 3395 00a9 3B       		.uleb128 0x3b
 3396 00aa 05       		.uleb128 0x5
 3397 00ab 49       		.uleb128 0x49
 3398 00ac 13       		.uleb128 0x13
 3399 00ad 38       		.uleb128 0x38
 3400 00ae 0B       		.uleb128 0xb
 3401 00af 00       		.byte	0
 3402 00b0 00       		.byte	0
 3403 00b1 10       		.uleb128 0x10
 3404 00b2 2E       		.uleb128 0x2e
 3405 00b3 01       		.byte	0x1
 3406 00b4 3F       		.uleb128 0x3f
 3407 00b5 19       		.uleb128 0x19
 3408 00b6 03       		.uleb128 0x3
 3409 00b7 0E       		.uleb128 0xe
 3410 00b8 3A       		.uleb128 0x3a
 3411 00b9 0B       		.uleb128 0xb
 3412 00ba 3B       		.uleb128 0x3b
 3413 00bb 05       		.uleb128 0x5
 3414 00bc 27       		.uleb128 0x27
 3415 00bd 19       		.uleb128 0x19
 3416 00be 11       		.uleb128 0x11
 3417 00bf 01       		.uleb128 0x1
 3418 00c0 12       		.uleb128 0x12
 3419 00c1 06       		.uleb128 0x6
 3420 00c2 40       		.uleb128 0x40
 3421 00c3 18       		.uleb128 0x18
 3422 00c4 9742     		.uleb128 0x2117
 3423 00c6 19       		.uleb128 0x19
 3424 00c7 01       		.uleb128 0x1
 3425 00c8 13       		.uleb128 0x13
 3426 00c9 00       		.byte	0
 3427 00ca 00       		.byte	0
 3428 00cb 11       		.uleb128 0x11
 3429 00cc 05       		.uleb128 0x5
 3430 00cd 00       		.byte	0
 3431 00ce 03       		.uleb128 0x3
 3432 00cf 0E       		.uleb128 0xe
 3433 00d0 3A       		.uleb128 0x3a
 3434 00d1 0B       		.uleb128 0xb
ARM GAS  C:\Users\DGILLI~1\AppData\Local\Temp\ccItuQxT.s 			page 87


 3435 00d2 3B       		.uleb128 0x3b
 3436 00d3 05       		.uleb128 0x5
 3437 00d4 49       		.uleb128 0x49
 3438 00d5 13       		.uleb128 0x13
 3439 00d6 02       		.uleb128 0x2
 3440 00d7 17       		.uleb128 0x17
 3441 00d8 00       		.byte	0
 3442 00d9 00       		.byte	0
 3443 00da 12       		.uleb128 0x12
 3444 00db 34       		.uleb128 0x34
 3445 00dc 00       		.byte	0
 3446 00dd 03       		.uleb128 0x3
 3447 00de 08       		.uleb128 0x8
 3448 00df 3A       		.uleb128 0x3a
 3449 00e0 0B       		.uleb128 0xb
 3450 00e1 3B       		.uleb128 0x3b
 3451 00e2 05       		.uleb128 0x5
 3452 00e3 49       		.uleb128 0x49
 3453 00e4 13       		.uleb128 0x13
 3454 00e5 02       		.uleb128 0x2
 3455 00e6 18       		.uleb128 0x18
 3456 00e7 00       		.byte	0
 3457 00e8 00       		.byte	0
 3458 00e9 13       		.uleb128 0x13
 3459 00ea 34       		.uleb128 0x34
 3460 00eb 00       		.byte	0
 3461 00ec 03       		.uleb128 0x3
 3462 00ed 08       		.uleb128 0x8
 3463 00ee 3A       		.uleb128 0x3a
 3464 00ef 0B       		.uleb128 0xb
 3465 00f0 3B       		.uleb128 0x3b
 3466 00f1 05       		.uleb128 0x5
 3467 00f2 49       		.uleb128 0x49
 3468 00f3 13       		.uleb128 0x13
 3469 00f4 02       		.uleb128 0x2
 3470 00f5 17       		.uleb128 0x17
 3471 00f6 00       		.byte	0
 3472 00f7 00       		.byte	0
 3473 00f8 14       		.uleb128 0x14
 3474 00f9 34       		.uleb128 0x34
 3475 00fa 00       		.byte	0
 3476 00fb 03       		.uleb128 0x3
 3477 00fc 0E       		.uleb128 0xe
 3478 00fd 3A       		.uleb128 0x3a
 3479 00fe 0B       		.uleb128 0xb
 3480 00ff 3B       		.uleb128 0x3b
 3481 0100 05       		.uleb128 0x5
 3482 0101 49       		.uleb128 0x49
 3483 0102 13       		.uleb128 0x13
 3484 0103 02       		.uleb128 0x2
 3485 0104 18       		.uleb128 0x18
 3486 0105 00       		.byte	0
 3487 0106 00       		.byte	0
 3488 0107 15       		.uleb128 0x15
 3489 0108 898201   		.uleb128 0x4109
 3490 010b 01       		.byte	0x1
 3491 010c 11       		.uleb128 0x11
ARM GAS  C:\Users\DGILLI~1\AppData\Local\Temp\ccItuQxT.s 			page 88


 3492 010d 01       		.uleb128 0x1
 3493 010e 31       		.uleb128 0x31
 3494 010f 13       		.uleb128 0x13
 3495 0110 00       		.byte	0
 3496 0111 00       		.byte	0
 3497 0112 16       		.uleb128 0x16
 3498 0113 8A8201   		.uleb128 0x410a
 3499 0116 00       		.byte	0
 3500 0117 02       		.uleb128 0x2
 3501 0118 18       		.uleb128 0x18
 3502 0119 9142     		.uleb128 0x2111
 3503 011b 18       		.uleb128 0x18
 3504 011c 00       		.byte	0
 3505 011d 00       		.byte	0
 3506 011e 17       		.uleb128 0x17
 3507 011f 26       		.uleb128 0x26
 3508 0120 00       		.byte	0
 3509 0121 49       		.uleb128 0x49
 3510 0122 13       		.uleb128 0x13
 3511 0123 00       		.byte	0
 3512 0124 00       		.byte	0
 3513 0125 18       		.uleb128 0x18
 3514 0126 2E       		.uleb128 0x2e
 3515 0127 01       		.byte	0x1
 3516 0128 3F       		.uleb128 0x3f
 3517 0129 19       		.uleb128 0x19
 3518 012a 03       		.uleb128 0x3
 3519 012b 0E       		.uleb128 0xe
 3520 012c 3A       		.uleb128 0x3a
 3521 012d 0B       		.uleb128 0xb
 3522 012e 3B       		.uleb128 0x3b
 3523 012f 05       		.uleb128 0x5
 3524 0130 27       		.uleb128 0x27
 3525 0131 19       		.uleb128 0x19
 3526 0132 49       		.uleb128 0x49
 3527 0133 13       		.uleb128 0x13
 3528 0134 11       		.uleb128 0x11
 3529 0135 01       		.uleb128 0x1
 3530 0136 12       		.uleb128 0x12
 3531 0137 06       		.uleb128 0x6
 3532 0138 40       		.uleb128 0x40
 3533 0139 18       		.uleb128 0x18
 3534 013a 9742     		.uleb128 0x2117
 3535 013c 19       		.uleb128 0x19
 3536 013d 01       		.uleb128 0x1
 3537 013e 13       		.uleb128 0x13
 3538 013f 00       		.byte	0
 3539 0140 00       		.byte	0
 3540 0141 19       		.uleb128 0x19
 3541 0142 34       		.uleb128 0x34
 3542 0143 00       		.byte	0
 3543 0144 03       		.uleb128 0x3
 3544 0145 0E       		.uleb128 0xe
 3545 0146 3A       		.uleb128 0x3a
 3546 0147 0B       		.uleb128 0xb
 3547 0148 3B       		.uleb128 0x3b
 3548 0149 05       		.uleb128 0x5
ARM GAS  C:\Users\DGILLI~1\AppData\Local\Temp\ccItuQxT.s 			page 89


 3549 014a 49       		.uleb128 0x49
 3550 014b 13       		.uleb128 0x13
 3551 014c 02       		.uleb128 0x2
 3552 014d 17       		.uleb128 0x17
 3553 014e 00       		.byte	0
 3554 014f 00       		.byte	0
 3555 0150 1A       		.uleb128 0x1a
 3556 0151 898201   		.uleb128 0x4109
 3557 0154 00       		.byte	0
 3558 0155 11       		.uleb128 0x11
 3559 0156 01       		.uleb128 0x1
 3560 0157 31       		.uleb128 0x31
 3561 0158 13       		.uleb128 0x13
 3562 0159 00       		.byte	0
 3563 015a 00       		.byte	0
 3564 015b 1B       		.uleb128 0x1b
 3565 015c 2E       		.uleb128 0x2e
 3566 015d 00       		.byte	0
 3567 015e 3F       		.uleb128 0x3f
 3568 015f 19       		.uleb128 0x19
 3569 0160 03       		.uleb128 0x3
 3570 0161 0E       		.uleb128 0xe
 3571 0162 3A       		.uleb128 0x3a
 3572 0163 0B       		.uleb128 0xb
 3573 0164 3B       		.uleb128 0x3b
 3574 0165 05       		.uleb128 0x5
 3575 0166 27       		.uleb128 0x27
 3576 0167 19       		.uleb128 0x19
 3577 0168 49       		.uleb128 0x49
 3578 0169 13       		.uleb128 0x13
 3579 016a 11       		.uleb128 0x11
 3580 016b 01       		.uleb128 0x1
 3581 016c 12       		.uleb128 0x12
 3582 016d 06       		.uleb128 0x6
 3583 016e 40       		.uleb128 0x40
 3584 016f 18       		.uleb128 0x18
 3585 0170 9742     		.uleb128 0x2117
 3586 0172 19       		.uleb128 0x19
 3587 0173 00       		.byte	0
 3588 0174 00       		.byte	0
 3589 0175 1C       		.uleb128 0x1c
 3590 0176 0B       		.uleb128 0xb
 3591 0177 01       		.byte	0x1
 3592 0178 11       		.uleb128 0x11
 3593 0179 01       		.uleb128 0x1
 3594 017a 12       		.uleb128 0x12
 3595 017b 06       		.uleb128 0x6
 3596 017c 00       		.byte	0
 3597 017d 00       		.byte	0
 3598 017e 1D       		.uleb128 0x1d
 3599 017f 898201   		.uleb128 0x4109
 3600 0182 01       		.byte	0x1
 3601 0183 11       		.uleb128 0x11
 3602 0184 01       		.uleb128 0x1
 3603 0185 31       		.uleb128 0x31
 3604 0186 13       		.uleb128 0x13
 3605 0187 01       		.uleb128 0x1
ARM GAS  C:\Users\DGILLI~1\AppData\Local\Temp\ccItuQxT.s 			page 90


 3606 0188 13       		.uleb128 0x13
 3607 0189 00       		.byte	0
 3608 018a 00       		.byte	0
 3609 018b 1E       		.uleb128 0x1e
 3610 018c 2E       		.uleb128 0x2e
 3611 018d 01       		.byte	0x1
 3612 018e 3F       		.uleb128 0x3f
 3613 018f 19       		.uleb128 0x19
 3614 0190 03       		.uleb128 0x3
 3615 0191 0E       		.uleb128 0xe
 3616 0192 3A       		.uleb128 0x3a
 3617 0193 0B       		.uleb128 0xb
 3618 0194 3B       		.uleb128 0x3b
 3619 0195 0B       		.uleb128 0xb
 3620 0196 27       		.uleb128 0x27
 3621 0197 19       		.uleb128 0x19
 3622 0198 49       		.uleb128 0x49
 3623 0199 13       		.uleb128 0x13
 3624 019a 11       		.uleb128 0x11
 3625 019b 01       		.uleb128 0x1
 3626 019c 12       		.uleb128 0x12
 3627 019d 06       		.uleb128 0x6
 3628 019e 40       		.uleb128 0x40
 3629 019f 18       		.uleb128 0x18
 3630 01a0 9742     		.uleb128 0x2117
 3631 01a2 19       		.uleb128 0x19
 3632 01a3 01       		.uleb128 0x1
 3633 01a4 13       		.uleb128 0x13
 3634 01a5 00       		.byte	0
 3635 01a6 00       		.byte	0
 3636 01a7 1F       		.uleb128 0x1f
 3637 01a8 34       		.uleb128 0x34
 3638 01a9 00       		.byte	0
 3639 01aa 03       		.uleb128 0x3
 3640 01ab 0E       		.uleb128 0xe
 3641 01ac 3A       		.uleb128 0x3a
 3642 01ad 0B       		.uleb128 0xb
 3643 01ae 3B       		.uleb128 0x3b
 3644 01af 0B       		.uleb128 0xb
 3645 01b0 49       		.uleb128 0x49
 3646 01b1 13       		.uleb128 0x13
 3647 01b2 02       		.uleb128 0x2
 3648 01b3 17       		.uleb128 0x17
 3649 01b4 00       		.byte	0
 3650 01b5 00       		.byte	0
 3651 01b6 20       		.uleb128 0x20
 3652 01b7 34       		.uleb128 0x34
 3653 01b8 00       		.byte	0
 3654 01b9 03       		.uleb128 0x3
 3655 01ba 0E       		.uleb128 0xe
 3656 01bb 3A       		.uleb128 0x3a
 3657 01bc 0B       		.uleb128 0xb
 3658 01bd 3B       		.uleb128 0x3b
 3659 01be 0B       		.uleb128 0xb
 3660 01bf 49       		.uleb128 0x49
 3661 01c0 13       		.uleb128 0x13
 3662 01c1 02       		.uleb128 0x2
ARM GAS  C:\Users\DGILLI~1\AppData\Local\Temp\ccItuQxT.s 			page 91


 3663 01c2 18       		.uleb128 0x18
 3664 01c3 00       		.byte	0
 3665 01c4 00       		.byte	0
 3666 01c5 21       		.uleb128 0x21
 3667 01c6 34       		.uleb128 0x34
 3668 01c7 00       		.byte	0
 3669 01c8 03       		.uleb128 0x3
 3670 01c9 0E       		.uleb128 0xe
 3671 01ca 3A       		.uleb128 0x3a
 3672 01cb 0B       		.uleb128 0xb
 3673 01cc 3B       		.uleb128 0x3b
 3674 01cd 05       		.uleb128 0x5
 3675 01ce 49       		.uleb128 0x49
 3676 01cf 13       		.uleb128 0x13
 3677 01d0 3F       		.uleb128 0x3f
 3678 01d1 19       		.uleb128 0x19
 3679 01d2 3C       		.uleb128 0x3c
 3680 01d3 19       		.uleb128 0x19
 3681 01d4 00       		.byte	0
 3682 01d5 00       		.byte	0
 3683 01d6 22       		.uleb128 0x22
 3684 01d7 34       		.uleb128 0x34
 3685 01d8 00       		.byte	0
 3686 01d9 03       		.uleb128 0x3
 3687 01da 0E       		.uleb128 0xe
 3688 01db 3A       		.uleb128 0x3a
 3689 01dc 0B       		.uleb128 0xb
 3690 01dd 3B       		.uleb128 0x3b
 3691 01de 0B       		.uleb128 0xb
 3692 01df 49       		.uleb128 0x49
 3693 01e0 13       		.uleb128 0x13
 3694 01e1 3F       		.uleb128 0x3f
 3695 01e2 19       		.uleb128 0x19
 3696 01e3 3C       		.uleb128 0x3c
 3697 01e4 19       		.uleb128 0x19
 3698 01e5 00       		.byte	0
 3699 01e6 00       		.byte	0
 3700 01e7 23       		.uleb128 0x23
 3701 01e8 2E       		.uleb128 0x2e
 3702 01e9 01       		.byte	0x1
 3703 01ea 3F       		.uleb128 0x3f
 3704 01eb 19       		.uleb128 0x19
 3705 01ec 03       		.uleb128 0x3
 3706 01ed 0E       		.uleb128 0xe
 3707 01ee 3A       		.uleb128 0x3a
 3708 01ef 0B       		.uleb128 0xb
 3709 01f0 3B       		.uleb128 0x3b
 3710 01f1 0B       		.uleb128 0xb
 3711 01f2 27       		.uleb128 0x27
 3712 01f3 19       		.uleb128 0x19
 3713 01f4 3C       		.uleb128 0x3c
 3714 01f5 19       		.uleb128 0x19
 3715 01f6 01       		.uleb128 0x1
 3716 01f7 13       		.uleb128 0x13
 3717 01f8 00       		.byte	0
 3718 01f9 00       		.byte	0
 3719 01fa 24       		.uleb128 0x24
ARM GAS  C:\Users\DGILLI~1\AppData\Local\Temp\ccItuQxT.s 			page 92


 3720 01fb 05       		.uleb128 0x5
 3721 01fc 00       		.byte	0
 3722 01fd 49       		.uleb128 0x49
 3723 01fe 13       		.uleb128 0x13
 3724 01ff 00       		.byte	0
 3725 0200 00       		.byte	0
 3726 0201 25       		.uleb128 0x25
 3727 0202 2E       		.uleb128 0x2e
 3728 0203 01       		.byte	0x1
 3729 0204 3F       		.uleb128 0x3f
 3730 0205 19       		.uleb128 0x19
 3731 0206 03       		.uleb128 0x3
 3732 0207 0E       		.uleb128 0xe
 3733 0208 3A       		.uleb128 0x3a
 3734 0209 0B       		.uleb128 0xb
 3735 020a 3B       		.uleb128 0x3b
 3736 020b 05       		.uleb128 0x5
 3737 020c 27       		.uleb128 0x27
 3738 020d 19       		.uleb128 0x19
 3739 020e 49       		.uleb128 0x49
 3740 020f 13       		.uleb128 0x13
 3741 0210 3C       		.uleb128 0x3c
 3742 0211 19       		.uleb128 0x19
 3743 0212 01       		.uleb128 0x1
 3744 0213 13       		.uleb128 0x13
 3745 0214 00       		.byte	0
 3746 0215 00       		.byte	0
 3747 0216 26       		.uleb128 0x26
 3748 0217 2E       		.uleb128 0x2e
 3749 0218 00       		.byte	0
 3750 0219 3F       		.uleb128 0x3f
 3751 021a 19       		.uleb128 0x19
 3752 021b 03       		.uleb128 0x3
 3753 021c 0E       		.uleb128 0xe
 3754 021d 3A       		.uleb128 0x3a
 3755 021e 0B       		.uleb128 0xb
 3756 021f 3B       		.uleb128 0x3b
 3757 0220 0B       		.uleb128 0xb
 3758 0221 27       		.uleb128 0x27
 3759 0222 19       		.uleb128 0x19
 3760 0223 49       		.uleb128 0x49
 3761 0224 13       		.uleb128 0x13
 3762 0225 3C       		.uleb128 0x3c
 3763 0226 19       		.uleb128 0x19
 3764 0227 00       		.byte	0
 3765 0228 00       		.byte	0
 3766 0229 27       		.uleb128 0x27
 3767 022a 2E       		.uleb128 0x2e
 3768 022b 00       		.byte	0
 3769 022c 3F       		.uleb128 0x3f
 3770 022d 19       		.uleb128 0x19
 3771 022e 03       		.uleb128 0x3
 3772 022f 0E       		.uleb128 0xe
 3773 0230 3A       		.uleb128 0x3a
 3774 0231 0B       		.uleb128 0xb
 3775 0232 3B       		.uleb128 0x3b
 3776 0233 05       		.uleb128 0x5
ARM GAS  C:\Users\DGILLI~1\AppData\Local\Temp\ccItuQxT.s 			page 93


 3777 0234 27       		.uleb128 0x27
 3778 0235 19       		.uleb128 0x19
 3779 0236 49       		.uleb128 0x49
 3780 0237 13       		.uleb128 0x13
 3781 0238 3C       		.uleb128 0x3c
 3782 0239 19       		.uleb128 0x19
 3783 023a 00       		.byte	0
 3784 023b 00       		.byte	0
 3785 023c 00       		.byte	0
 3786              		.section	.debug_loc,"",%progbits
 3787              	.Ldebug_loc0:
 3788              	.LLST0:
 3789 0000 00000000 		.4byte	.LVL0
 3790 0004 0C000000 		.4byte	.LVL1
 3791 0008 0100     		.2byte	0x1
 3792 000a 50       		.byte	0x50
 3793 000b 0C000000 		.4byte	.LVL1
 3794 000f 66000000 		.4byte	.LVL10
 3795 0013 0100     		.2byte	0x1
 3796 0015 55       		.byte	0x55
 3797 0016 66000000 		.4byte	.LVL10
 3798 001a 6C000000 		.4byte	.LFE1
 3799 001e 0400     		.2byte	0x4
 3800 0020 F3       		.byte	0xf3
 3801 0021 01       		.uleb128 0x1
 3802 0022 50       		.byte	0x50
 3803 0023 9F       		.byte	0x9f
 3804 0024 00000000 		.4byte	0
 3805 0028 00000000 		.4byte	0
 3806              	.LLST1:
 3807 002c 22000000 		.4byte	.LVL3
 3808 0030 28000000 		.4byte	.LVL4
 3809 0034 0200     		.2byte	0x2
 3810 0036 32       		.byte	0x32
 3811 0037 9F       		.byte	0x9f
 3812 0038 28000000 		.4byte	.LVL4
 3813 003c 5C000000 		.4byte	.LVL7
 3814 0040 0100     		.2byte	0x1
 3815 0042 53       		.byte	0x53
 3816 0043 5E000000 		.4byte	.LVL8
 3817 0047 62000000 		.4byte	.LVL9
 3818 004b 0100     		.2byte	0x1
 3819 004d 53       		.byte	0x53
 3820 004e 00000000 		.4byte	0
 3821 0052 00000000 		.4byte	0
 3822              	.LLST2:
 3823 0056 12000000 		.4byte	.LVL2
 3824 005a 28000000 		.4byte	.LVL4
 3825 005e 0200     		.2byte	0x2
 3826 0060 30       		.byte	0x30
 3827 0061 9F       		.byte	0x9f
 3828 0062 28000000 		.4byte	.LVL4
 3829 0066 58000000 		.4byte	.LVL5
 3830 006a 0100     		.2byte	0x1
 3831 006c 54       		.byte	0x54
 3832 006d 5A000000 		.4byte	.LVL6
 3833 0071 62000000 		.4byte	.LVL9
ARM GAS  C:\Users\DGILLI~1\AppData\Local\Temp\ccItuQxT.s 			page 94


 3834 0075 0100     		.2byte	0x1
 3835 0077 54       		.byte	0x54
 3836 0078 00000000 		.4byte	0
 3837 007c 00000000 		.4byte	0
 3838              	.LLST3:
 3839 0080 02000000 		.4byte	.LVL11
 3840 0084 06000000 		.4byte	.LVL12
 3841 0088 0200     		.2byte	0x2
 3842 008a 31       		.byte	0x31
 3843 008b 9F       		.byte	0x9f
 3844 008c 06000000 		.4byte	.LVL12
 3845 0090 80000000 		.4byte	.LVL13
 3846 0094 0100     		.2byte	0x1
 3847 0096 52       		.byte	0x52
 3848 0097 82000000 		.4byte	.LVL14
 3849 009b 88000000 		.4byte	.LVL15
 3850 009f 0100     		.2byte	0x1
 3851 00a1 52       		.byte	0x52
 3852 00a2 00000000 		.4byte	0
 3853 00a6 00000000 		.4byte	0
 3854              	.LLST4:
 3855 00aa 00000000 		.4byte	.LVL16
 3856 00ae 04000000 		.4byte	.LVL17
 3857 00b2 0200     		.2byte	0x2
 3858 00b4 31       		.byte	0x31
 3859 00b5 9F       		.byte	0x9f
 3860 00b6 04000000 		.4byte	.LVL17
 3861 00ba 34000000 		.4byte	.LVL18
 3862 00be 0100     		.2byte	0x1
 3863 00c0 53       		.byte	0x53
 3864 00c1 36000000 		.4byte	.LVL19
 3865 00c5 40000000 		.4byte	.LFE3
 3866 00c9 0100     		.2byte	0x1
 3867 00cb 53       		.byte	0x53
 3868 00cc 00000000 		.4byte	0
 3869 00d0 00000000 		.4byte	0
 3870              	.LLST5:
 3871 00d4 00000000 		.4byte	.LVL20
 3872 00d8 18000000 		.4byte	.LVL23
 3873 00dc 0100     		.2byte	0x1
 3874 00de 50       		.byte	0x50
 3875 00df 18000000 		.4byte	.LVL23
 3876 00e3 1A000000 		.4byte	.LVL24
 3877 00e7 0400     		.2byte	0x4
 3878 00e9 F3       		.byte	0xf3
 3879 00ea 01       		.uleb128 0x1
 3880 00eb 50       		.byte	0x50
 3881 00ec 9F       		.byte	0x9f
 3882 00ed 1A000000 		.4byte	.LVL24
 3883 00f1 1C000000 		.4byte	.LVL25
 3884 00f5 0100     		.2byte	0x1
 3885 00f7 50       		.byte	0x50
 3886 00f8 1C000000 		.4byte	.LVL25
 3887 00fc 28000000 		.4byte	.LFE6
 3888 0100 0400     		.2byte	0x4
 3889 0102 F3       		.byte	0xf3
 3890 0103 01       		.uleb128 0x1
ARM GAS  C:\Users\DGILLI~1\AppData\Local\Temp\ccItuQxT.s 			page 95


 3891 0104 50       		.byte	0x50
 3892 0105 9F       		.byte	0x9f
 3893 0106 00000000 		.4byte	0
 3894 010a 00000000 		.4byte	0
 3895              	.LLST6:
 3896 010e 0C000000 		.4byte	.LVL21
 3897 0112 16000000 		.4byte	.LVL22
 3898 0116 0300     		.2byte	0x3
 3899 0118 73       		.byte	0x73
 3900 0119 10       		.sleb128 16
 3901 011a 9F       		.byte	0x9f
 3902 011b 18000000 		.4byte	.LVL23
 3903 011f 1A000000 		.4byte	.LVL24
 3904 0123 0100     		.2byte	0x1
 3905 0125 50       		.byte	0x50
 3906 0126 1A000000 		.4byte	.LVL24
 3907 012a 1C000000 		.4byte	.LVL25
 3908 012e 0300     		.2byte	0x3
 3909 0130 73       		.byte	0x73
 3910 0131 10       		.sleb128 16
 3911 0132 9F       		.byte	0x9f
 3912 0133 1C000000 		.4byte	.LVL25
 3913 0137 28000000 		.4byte	.LFE6
 3914 013b 0100     		.2byte	0x1
 3915 013d 50       		.byte	0x50
 3916 013e 00000000 		.4byte	0
 3917 0142 00000000 		.4byte	0
 3918              	.LLST7:
 3919 0146 1A000000 		.4byte	.LVL27
 3920 014a 00010000 		.4byte	.LVL41
 3921 014e 0100     		.2byte	0x1
 3922 0150 54       		.byte	0x54
 3923 0151 00000000 		.4byte	0
 3924 0155 00000000 		.4byte	0
 3925              	.LLST8:
 3926 0159 3E000000 		.4byte	.LVL32
 3927 015d C0000000 		.4byte	.LVL37
 3928 0161 0100     		.2byte	0x1
 3929 0163 51       		.byte	0x51
 3930 0164 00000000 		.4byte	0
 3931 0168 00000000 		.4byte	0
 3932              	.LLST9:
 3933 016c 44000000 		.4byte	.LVL33
 3934 0170 88000000 		.4byte	.LVL34
 3935 0174 0100     		.2byte	0x1
 3936 0176 56       		.byte	0x56
 3937 0177 92000000 		.4byte	.LVL35
 3938 017b A4000000 		.4byte	.LVL36
 3939 017f 0100     		.2byte	0x1
 3940 0181 56       		.byte	0x56
 3941 0182 00000000 		.4byte	0
 3942 0186 00000000 		.4byte	0
 3943              	.LLST10:
 3944 018a 22000000 		.4byte	.LVL30
 3945 018e 26000000 		.4byte	.LVL31
 3946 0192 0200     		.2byte	0x2
 3947 0194 30       		.byte	0x30
ARM GAS  C:\Users\DGILLI~1\AppData\Local\Temp\ccItuQxT.s 			page 96


 3948 0195 9F       		.byte	0x9f
 3949 0196 26000000 		.4byte	.LVL31
 3950 019a FA000000 		.4byte	.LVL39
 3951 019e 0100     		.2byte	0x1
 3952 01a0 53       		.byte	0x53
 3953 01a1 FC000000 		.4byte	.LVL40
 3954 01a5 00010000 		.4byte	.LVL41
 3955 01a9 0100     		.2byte	0x1
 3956 01ab 53       		.byte	0x53
 3957 01ac 00000000 		.4byte	0
 3958 01b0 00000000 		.4byte	0
 3959              	.LLST11:
 3960 01b4 22000000 		.4byte	.LVL30
 3961 01b8 00010000 		.4byte	.LVL41
 3962 01bc 0100     		.2byte	0x1
 3963 01be 50       		.byte	0x50
 3964 01bf 00000000 		.4byte	0
 3965 01c3 00000000 		.4byte	0
 3966              	.LLST12:
 3967 01c7 18000000 		.4byte	.LVL26
 3968 01cb 20000000 		.4byte	.LVL29
 3969 01cf 0300     		.2byte	0x3
 3970 01d1 70       		.byte	0x70
 3971 01d2 08       		.sleb128 8
 3972 01d3 9F       		.byte	0x9f
 3973 01d4 00000000 		.4byte	0
 3974 01d8 00000000 		.4byte	0
 3975              	.LLST13:
 3976 01dc 1C000000 		.4byte	.LVL28
 3977 01e0 00010000 		.4byte	.LVL41
 3978 01e4 0100     		.2byte	0x1
 3979 01e6 52       		.byte	0x52
 3980 01e7 00000000 		.4byte	0
 3981 01eb 00000000 		.4byte	0
 3982              	.LLST14:
 3983 01ef 0E000000 		.4byte	.LVL42
 3984 01f3 18000000 		.4byte	.LVL44
 3985 01f7 0100     		.2byte	0x1
 3986 01f9 50       		.byte	0x50
 3987 01fa 18000000 		.4byte	.LVL44
 3988 01fe 1A000000 		.4byte	.LVL45
 3989 0202 0800     		.2byte	0x8
 3990 0204 72       		.byte	0x72
 3991 0205 02       		.sleb128 2
 3992 0206 33       		.byte	0x33
 3993 0207 24       		.byte	0x24
 3994 0208 70       		.byte	0x70
 3995 0209 00       		.sleb128 0
 3996 020a 22       		.byte	0x22
 3997 020b 9F       		.byte	0x9f
 3998 020c 1C000000 		.4byte	.LVL46
 3999 0210 1E000000 		.4byte	.LVL47
 4000 0214 0100     		.2byte	0x1
 4001 0216 50       		.byte	0x50
 4002 0217 00000000 		.4byte	0
 4003 021b 00000000 		.4byte	0
 4004              	.LLST15:
ARM GAS  C:\Users\DGILLI~1\AppData\Local\Temp\ccItuQxT.s 			page 97


 4005 021f 1A000000 		.4byte	.LVL45
 4006 0223 1C000000 		.4byte	.LVL46
 4007 0227 0100     		.2byte	0x1
 4008 0229 50       		.byte	0x50
 4009 022a 1E000000 		.4byte	.LVL47
 4010 022e 24000000 		.4byte	.LFE8
 4011 0232 0100     		.2byte	0x1
 4012 0234 50       		.byte	0x50
 4013 0235 00000000 		.4byte	0
 4014 0239 00000000 		.4byte	0
 4015              	.LLST16:
 4016 023d 14000000 		.4byte	.LVL43
 4017 0241 1C000000 		.4byte	.LVL46
 4018 0245 0100     		.2byte	0x1
 4019 0247 52       		.byte	0x52
 4020 0248 00000000 		.4byte	0
 4021 024c 00000000 		.4byte	0
 4022              	.LLST17:
 4023 0250 00000000 		.4byte	.LVL48
 4024 0254 54000000 		.4byte	.LVL60
 4025 0258 0100     		.2byte	0x1
 4026 025a 50       		.byte	0x50
 4027 025b 54000000 		.4byte	.LVL60
 4028 025f E4010000 		.4byte	.LFE4
 4029 0263 0400     		.2byte	0x4
 4030 0265 F3       		.byte	0xf3
 4031 0266 01       		.uleb128 0x1
 4032 0267 50       		.byte	0x50
 4033 0268 9F       		.byte	0x9f
 4034 0269 00000000 		.4byte	0
 4035 026d 00000000 		.4byte	0
 4036              	.LLST18:
 4037 0271 04000000 		.4byte	.LVL49
 4038 0275 08000000 		.4byte	.LVL50
 4039 0279 0200     		.2byte	0x2
 4040 027b 30       		.byte	0x30
 4041 027c 9F       		.byte	0x9f
 4042 027d 08000000 		.4byte	.LVL50
 4043 0281 24000000 		.4byte	.LVL51
 4044 0285 0100     		.2byte	0x1
 4045 0287 52       		.byte	0x52
 4046 0288 26000000 		.4byte	.LVL52
 4047 028c 2E000000 		.4byte	.LVL53
 4048 0290 0100     		.2byte	0x1
 4049 0292 52       		.byte	0x52
 4050 0293 3E000000 		.4byte	.LVL56
 4051 0297 40000000 		.4byte	.LVL57
 4052 029b 0100     		.2byte	0x1
 4053 029d 52       		.byte	0x52
 4054 029e 82000000 		.4byte	.LVL66
 4055 02a2 96010000 		.4byte	.LVL90
 4056 02a6 0100     		.2byte	0x1
 4057 02a8 57       		.byte	0x57
 4058 02a9 96010000 		.4byte	.LVL90
 4059 02ad 9C010000 		.4byte	.LVL91
 4060 02b1 0200     		.2byte	0x2
 4061 02b3 31       		.byte	0x31
ARM GAS  C:\Users\DGILLI~1\AppData\Local\Temp\ccItuQxT.s 			page 98


 4062 02b4 9F       		.byte	0x9f
 4063 02b5 9C010000 		.4byte	.LVL91
 4064 02b9 B8010000 		.4byte	.LVL96
 4065 02bd 0100     		.2byte	0x1
 4066 02bf 51       		.byte	0x51
 4067 02c0 BA010000 		.4byte	.LVL97
 4068 02c4 C1010000 		.4byte	.LVL98-1
 4069 02c8 0100     		.2byte	0x1
 4070 02ca 51       		.byte	0x51
 4071 02cb 00000000 		.4byte	0
 4072 02cf 00000000 		.4byte	0
 4073              	.LLST19:
 4074 02d3 8E000000 		.4byte	.LVL68
 4075 02d7 92000000 		.4byte	.LVL69
 4076 02db 0200     		.2byte	0x2
 4077 02dd 30       		.byte	0x30
 4078 02de 9F       		.byte	0x9f
 4079 02df 92000000 		.4byte	.LVL69
 4080 02e3 5A010000 		.4byte	.LVL79
 4081 02e7 0100     		.2byte	0x1
 4082 02e9 54       		.byte	0x54
 4083 02ea 5C010000 		.4byte	.LVL80
 4084 02ee 64010000 		.4byte	.LVL82
 4085 02f2 0100     		.2byte	0x1
 4086 02f4 54       		.byte	0x54
 4087 02f5 00000000 		.4byte	0
 4088 02f9 00000000 		.4byte	0
 4089              	.LLST20:
 4090 02fd 2E000000 		.4byte	.LVL53
 4091 0301 3A000000 		.4byte	.LVL54
 4092 0305 0100     		.2byte	0x1
 4093 0307 53       		.byte	0x53
 4094 0308 3C000000 		.4byte	.LVL55
 4095 030c 3E000000 		.4byte	.LVL56
 4096 0310 0100     		.2byte	0x1
 4097 0312 53       		.byte	0x53
 4098 0313 40000000 		.4byte	.LVL57
 4099 0317 44000000 		.4byte	.LVL58
 4100 031b 0100     		.2byte	0x1
 4101 031d 53       		.byte	0x53
 4102 031e 82000000 		.4byte	.LVL66
 4103 0322 8A000000 		.4byte	.LVL67
 4104 0326 0200     		.2byte	0x2
 4105 0328 31       		.byte	0x31
 4106 0329 9F       		.byte	0x9f
 4107 032a 8A000000 		.4byte	.LVL67
 4108 032e 62010000 		.4byte	.LVL81
 4109 0332 0100     		.2byte	0x1
 4110 0334 56       		.byte	0x56
 4111 0335 64010000 		.4byte	.LVL82
 4112 0339 6C010000 		.4byte	.LVL83
 4113 033d 0100     		.2byte	0x1
 4114 033f 56       		.byte	0x56
 4115 0340 6C010000 		.4byte	.LVL83
 4116 0344 70010000 		.4byte	.LVL84
 4117 0348 0200     		.2byte	0x2
 4118 034a 30       		.byte	0x30
ARM GAS  C:\Users\DGILLI~1\AppData\Local\Temp\ccItuQxT.s 			page 99


 4119 034b 9F       		.byte	0x9f
 4120 034c 70010000 		.4byte	.LVL84
 4121 0350 88010000 		.4byte	.LVL87
 4122 0354 0100     		.2byte	0x1
 4123 0356 52       		.byte	0x52
 4124 0357 8A010000 		.4byte	.LVL88
 4125 035b 91010000 		.4byte	.LVL89-1
 4126 035f 0100     		.2byte	0x1
 4127 0361 52       		.byte	0x52
 4128 0362 00000000 		.4byte	0
 4129 0366 00000000 		.4byte	0
 4130              	.LLST21:
 4131 036a EE000000 		.4byte	.LVL70
 4132 036e 0A010000 		.4byte	.LVL71
 4133 0372 0100     		.2byte	0x1
 4134 0374 53       		.byte	0x53
 4135 0375 0A010000 		.4byte	.LVL71
 4136 0379 14010000 		.4byte	.LVL72
 4137 037d 0700     		.2byte	0x7
 4138 037f 75       		.byte	0x75
 4139 0380 03       		.sleb128 3
 4140 0381 94       		.byte	0x94
 4141 0382 01       		.byte	0x1
 4142 0383 33       		.byte	0x33
 4143 0384 1A       		.byte	0x1a
 4144 0385 9F       		.byte	0x9f
 4145 0386 1A010000 		.4byte	.LVL73
 4146 038a 32010000 		.4byte	.LVL74
 4147 038e 0100     		.2byte	0x1
 4148 0390 53       		.byte	0x53
 4149 0391 32010000 		.4byte	.LVL74
 4150 0395 3A010000 		.4byte	.LVL75
 4151 0399 0700     		.2byte	0x7
 4152 039b 75       		.byte	0x75
 4153 039c 03       		.sleb128 3
 4154 039d 94       		.byte	0x94
 4155 039e 01       		.byte	0x1
 4156 039f 33       		.byte	0x33
 4157 03a0 1A       		.byte	0x1a
 4158 03a1 9F       		.byte	0x9f
 4159 03a2 00000000 		.4byte	0
 4160 03a6 00000000 		.4byte	0
 4161              	.LLST22:
 4162 03aa 60000000 		.4byte	.LVL63
 4163 03ae 62000000 		.4byte	.LVL64
 4164 03b2 0100     		.2byte	0x1
 4165 03b4 53       		.byte	0x53
 4166 03b5 62000000 		.4byte	.LVL64
 4167 03b9 8A000000 		.4byte	.LVL67
 4168 03bd 0200     		.2byte	0x2
 4169 03bf 70       		.byte	0x70
 4170 03c0 04       		.sleb128 4
 4171 03c1 00000000 		.4byte	0
 4172 03c5 00000000 		.4byte	0
 4173              	.LLST23:
 4174 03c9 04000000 		.4byte	.LVL49
 4175 03cd 9C010000 		.4byte	.LVL91
ARM GAS  C:\Users\DGILLI~1\AppData\Local\Temp\ccItuQxT.s 			page 100


 4176 03d1 0200     		.2byte	0x2
 4177 03d3 30       		.byte	0x30
 4178 03d4 9F       		.byte	0x9f
 4179 03d5 9C010000 		.4byte	.LVL91
 4180 03d9 AC010000 		.4byte	.LVL92
 4181 03dd 0100     		.2byte	0x1
 4182 03df 53       		.byte	0x53
 4183 03e0 AC010000 		.4byte	.LVL92
 4184 03e4 AE010000 		.4byte	.LVL93
 4185 03e8 0200     		.2byte	0x2
 4186 03ea 70       		.byte	0x70
 4187 03eb 06       		.sleb128 6
 4188 03ec AE010000 		.4byte	.LVL93
 4189 03f0 B4010000 		.4byte	.LVL94
 4190 03f4 0100     		.2byte	0x1
 4191 03f6 53       		.byte	0x53
 4192 03f7 B6010000 		.4byte	.LVL95
 4193 03fb C1010000 		.4byte	.LVL98-1
 4194 03ff 0100     		.2byte	0x1
 4195 0401 53       		.byte	0x53
 4196 0402 00000000 		.4byte	0
 4197 0406 00000000 		.4byte	0
 4198              	.LLST24:
 4199 040a 5E000000 		.4byte	.LVL62
 4200 040e 7E000000 		.4byte	.LVL65
 4201 0412 0100     		.2byte	0x1
 4202 0414 50       		.byte	0x50
 4203 0415 7E000000 		.4byte	.LVL65
 4204 0419 8A000000 		.4byte	.LVL67
 4205 041d 0300     		.2byte	0x3
 4206 041f 70       		.byte	0x70
 4207 0420 08       		.sleb128 8
 4208 0421 9F       		.byte	0x9f
 4209 0422 8A000000 		.4byte	.LVL67
 4210 0426 C2010000 		.4byte	.LVL98
 4211 042a 0300     		.2byte	0x3
 4212 042c 78       		.byte	0x78
 4213 042d 08       		.sleb128 8
 4214 042e 9F       		.byte	0x9f
 4215 042f 00000000 		.4byte	0
 4216 0433 00000000 		.4byte	0
 4217              	.LLST25:
 4218 0437 8E000000 		.4byte	.LVL68
 4219 043b 64010000 		.4byte	.LVL82
 4220 043f 0100     		.2byte	0x1
 4221 0441 55       		.byte	0x55
 4222 0442 6C010000 		.4byte	.LVL83
 4223 0446 7A010000 		.4byte	.LVL85
 4224 044a 0100     		.2byte	0x1
 4225 044c 50       		.byte	0x50
 4226 044d 7A010000 		.4byte	.LVL85
 4227 0451 86010000 		.4byte	.LVL86
 4228 0455 0300     		.2byte	0x3
 4229 0457 70       		.byte	0x70
 4230 0458 78       		.sleb128 -8
 4231 0459 9F       		.byte	0x9f
 4232 045a 86010000 		.4byte	.LVL86
ARM GAS  C:\Users\DGILLI~1\AppData\Local\Temp\ccItuQxT.s 			page 101


 4233 045e 91010000 		.4byte	.LVL89-1
 4234 0462 0100     		.2byte	0x1
 4235 0464 50       		.byte	0x50
 4236 0465 00000000 		.4byte	0
 4237 0469 00000000 		.4byte	0
 4238              	.LLST26:
 4239 046d 50000000 		.4byte	.LVL59
 4240 0471 8A000000 		.4byte	.LVL67
 4241 0475 0200     		.2byte	0x2
 4242 0477 30       		.byte	0x30
 4243 0478 9F       		.byte	0x9f
 4244 0479 8A000000 		.4byte	.LVL67
 4245 047d C2010000 		.4byte	.LVL98
 4246 0481 0100     		.2byte	0x1
 4247 0483 59       		.byte	0x59
 4248 0484 00000000 		.4byte	0
 4249 0488 00000000 		.4byte	0
 4250              	.LLST27:
 4251 048c 00000000 		.4byte	.LVL99
 4252 0490 04000000 		.4byte	.LVL100
 4253 0494 0100     		.2byte	0x1
 4254 0496 50       		.byte	0x50
 4255 0497 04000000 		.4byte	.LVL100
 4256 049b 30000000 		.4byte	.LVL101
 4257 049f 0100     		.2byte	0x1
 4258 04a1 50       		.byte	0x50
 4259 04a2 38000000 		.4byte	.LVL102
 4260 04a6 3A000000 		.4byte	.LVL103
 4261 04aa 0100     		.2byte	0x1
 4262 04ac 50       		.byte	0x50
 4263 04ad 00000000 		.4byte	0
 4264 04b1 00000000 		.4byte	0
 4265              	.LLST28:
 4266 04b5 02000000 		.4byte	.LVL104
 4267 04b9 52000000 		.4byte	.LVL109
 4268 04bd 0200     		.2byte	0x2
 4269 04bf 30       		.byte	0x30
 4270 04c0 9F       		.byte	0x9f
 4271 04c1 52000000 		.4byte	.LVL109
 4272 04c5 54000000 		.4byte	.LVL110
 4273 04c9 0100     		.2byte	0x1
 4274 04cb 50       		.byte	0x50
 4275 04cc 54000000 		.4byte	.LVL110
 4276 04d0 56000000 		.4byte	.LVL111
 4277 04d4 0200     		.2byte	0x2
 4278 04d6 30       		.byte	0x30
 4279 04d7 9F       		.byte	0x9f
 4280 04d8 56000000 		.4byte	.LVL111
 4281 04dc 64000000 		.4byte	.LFE10
 4282 04e0 0100     		.2byte	0x1
 4283 04e2 50       		.byte	0x50
 4284 04e3 00000000 		.4byte	0
 4285 04e7 00000000 		.4byte	0
 4286              	.LLST29:
 4287 04eb 0A000000 		.4byte	.LVL105
 4288 04ef 3A000000 		.4byte	.LVL106
 4289 04f3 0100     		.2byte	0x1
ARM GAS  C:\Users\DGILLI~1\AppData\Local\Temp\ccItuQxT.s 			page 102


 4290 04f5 52       		.byte	0x52
 4291 04f6 44000000 		.4byte	.LVL107
 4292 04fa 46000000 		.4byte	.LVL108
 4293 04fe 0100     		.2byte	0x1
 4294 0500 52       		.byte	0x52
 4295 0501 54000000 		.4byte	.LVL110
 4296 0505 64000000 		.4byte	.LFE10
 4297 0509 0100     		.2byte	0x1
 4298 050b 52       		.byte	0x52
 4299 050c 00000000 		.4byte	0
 4300 0510 00000000 		.4byte	0
 4301              	.LLST30:
 4302 0514 00000000 		.4byte	.LVL112
 4303 0518 96000000 		.4byte	.LVL121
 4304 051c 0200     		.2byte	0x2
 4305 051e 30       		.byte	0x30
 4306 051f 9F       		.byte	0x9f
 4307 0520 96000000 		.4byte	.LVL121
 4308 0524 98000000 		.4byte	.LVL122
 4309 0528 0100     		.2byte	0x1
 4310 052a 50       		.byte	0x50
 4311 052b 98000000 		.4byte	.LVL122
 4312 052f A8000000 		.4byte	.LFE11
 4313 0533 0200     		.2byte	0x2
 4314 0535 30       		.byte	0x30
 4315 0536 9F       		.byte	0x9f
 4316 0537 00000000 		.4byte	0
 4317 053b 00000000 		.4byte	0
 4318              	.LLST31:
 4319 053f 08000000 		.4byte	.LVL113
 4320 0543 54000000 		.4byte	.LVL114
 4321 0547 0100     		.2byte	0x1
 4322 0549 53       		.byte	0x53
 4323 054a 5E000000 		.4byte	.LVL115
 4324 054e 60000000 		.4byte	.LVL116
 4325 0552 0100     		.2byte	0x1
 4326 0554 53       		.byte	0x53
 4327 0555 6A000000 		.4byte	.LVL117
 4328 0559 7E000000 		.4byte	.LVL118
 4329 055d 0100     		.2byte	0x1
 4330 055f 53       		.byte	0x53
 4331 0560 88000000 		.4byte	.LVL119
 4332 0564 8A000000 		.4byte	.LVL120
 4333 0568 0100     		.2byte	0x1
 4334 056a 53       		.byte	0x53
 4335 056b 98000000 		.4byte	.LVL122
 4336 056f A8000000 		.4byte	.LFE11
 4337 0573 0100     		.2byte	0x1
 4338 0575 53       		.byte	0x53
 4339 0576 00000000 		.4byte	0
 4340 057a 00000000 		.4byte	0
 4341              	.LLST32:
 4342 057e 02000000 		.4byte	.LVL123
 4343 0582 32000000 		.4byte	.LVL128
 4344 0586 0200     		.2byte	0x2
 4345 0588 30       		.byte	0x30
 4346 0589 9F       		.byte	0x9f
ARM GAS  C:\Users\DGILLI~1\AppData\Local\Temp\ccItuQxT.s 			page 103


 4347 058a 32000000 		.4byte	.LVL128
 4348 058e 36000000 		.4byte	.LVL130
 4349 0592 0200     		.2byte	0x2
 4350 0594 31       		.byte	0x31
 4351 0595 9F       		.byte	0x9f
 4352 0596 36000000 		.4byte	.LVL130
 4353 059a 38000000 		.4byte	.LVL131
 4354 059e 0200     		.2byte	0x2
 4355 05a0 30       		.byte	0x30
 4356 05a1 9F       		.byte	0x9f
 4357 05a2 38000000 		.4byte	.LVL131
 4358 05a6 4C000000 		.4byte	.LFE12
 4359 05aa 0100     		.2byte	0x1
 4360 05ac 50       		.byte	0x50
 4361 05ad 00000000 		.4byte	0
 4362 05b1 00000000 		.4byte	0
 4363              	.LLST33:
 4364 05b5 08000000 		.4byte	.LVL124
 4365 05b9 3A000000 		.4byte	.LVL132
 4366 05bd 0100     		.2byte	0x1
 4367 05bf 54       		.byte	0x54
 4368 05c0 00000000 		.4byte	0
 4369 05c4 00000000 		.4byte	0
 4370              	.LLST34:
 4371 05c8 18000000 		.4byte	.LVL126
 4372 05cc 24000000 		.4byte	.LVL127
 4373 05d0 0100     		.2byte	0x1
 4374 05d2 53       		.byte	0x53
 4375 05d3 24000000 		.4byte	.LVL127
 4376 05d7 34000000 		.4byte	.LVL129
 4377 05db 0500     		.2byte	0x5
 4378 05dd 70       		.byte	0x70
 4379 05de 04       		.sleb128 4
 4380 05df 06       		.byte	0x6
 4381 05e0 23       		.byte	0x23
 4382 05e1 04       		.uleb128 0x4
 4383 05e2 36000000 		.4byte	.LVL130
 4384 05e6 4C000000 		.4byte	.LFE12
 4385 05ea 0100     		.2byte	0x1
 4386 05ec 53       		.byte	0x53
 4387 05ed 00000000 		.4byte	0
 4388 05f1 00000000 		.4byte	0
 4389              	.LLST35:
 4390 05f5 14000000 		.4byte	.LVL125
 4391 05f9 34000000 		.4byte	.LVL129
 4392 05fd 0100     		.2byte	0x1
 4393 05ff 50       		.byte	0x50
 4394 0600 36000000 		.4byte	.LVL130
 4395 0604 38000000 		.4byte	.LVL131
 4396 0608 0100     		.2byte	0x1
 4397 060a 50       		.byte	0x50
 4398 060b 00000000 		.4byte	0
 4399 060f 00000000 		.4byte	0
 4400              	.LLST36:
 4401 0613 02000000 		.4byte	.LVL133
 4402 0617 58000000 		.4byte	.LVL137
 4403 061b 0200     		.2byte	0x2
ARM GAS  C:\Users\DGILLI~1\AppData\Local\Temp\ccItuQxT.s 			page 104


 4404 061d 30       		.byte	0x30
 4405 061e 9F       		.byte	0x9f
 4406 061f 58000000 		.4byte	.LVL137
 4407 0623 5A000000 		.4byte	.LVL138
 4408 0627 0100     		.2byte	0x1
 4409 0629 50       		.byte	0x50
 4410 062a 5A000000 		.4byte	.LVL138
 4411 062e 8A000000 		.4byte	.LVL140
 4412 0632 0200     		.2byte	0x2
 4413 0634 30       		.byte	0x30
 4414 0635 9F       		.byte	0x9f
 4415 0636 8A000000 		.4byte	.LVL140
 4416 063a 8C000000 		.4byte	.LVL141
 4417 063e 0100     		.2byte	0x1
 4418 0640 50       		.byte	0x50
 4419 0641 8C000000 		.4byte	.LVL141
 4420 0645 F0000000 		.4byte	.LVL152
 4421 0649 0200     		.2byte	0x2
 4422 064b 30       		.byte	0x30
 4423 064c 9F       		.byte	0x9f
 4424 064d F0000000 		.4byte	.LVL152
 4425 0651 F2000000 		.4byte	.LVL153
 4426 0655 0100     		.2byte	0x1
 4427 0657 50       		.byte	0x50
 4428 0658 F2000000 		.4byte	.LVL153
 4429 065c F6000000 		.4byte	.LVL154
 4430 0660 0200     		.2byte	0x2
 4431 0662 30       		.byte	0x30
 4432 0663 9F       		.byte	0x9f
 4433 0664 F6000000 		.4byte	.LVL154
 4434 0668 F8000000 		.4byte	.LVL155
 4435 066c 0100     		.2byte	0x1
 4436 066e 50       		.byte	0x50
 4437 066f F8000000 		.4byte	.LVL155
 4438 0673 2C010000 		.4byte	.LVL157
 4439 0677 0200     		.2byte	0x2
 4440 0679 30       		.byte	0x30
 4441 067a 9F       		.byte	0x9f
 4442 067b 2C010000 		.4byte	.LVL157
 4443 067f 2E010000 		.4byte	.LVL158
 4444 0683 0100     		.2byte	0x1
 4445 0685 50       		.byte	0x50
 4446 0686 2E010000 		.4byte	.LVL158
 4447 068a 48010000 		.4byte	.LVL159
 4448 068e 0200     		.2byte	0x2
 4449 0690 30       		.byte	0x30
 4450 0691 9F       		.byte	0x9f
 4451 0692 48010000 		.4byte	.LVL159
 4452 0696 4A010000 		.4byte	.LVL160
 4453 069a 0100     		.2byte	0x1
 4454 069c 50       		.byte	0x50
 4455 069d 4A010000 		.4byte	.LVL160
 4456 06a1 58010000 		.4byte	.LVL162
 4457 06a5 0200     		.2byte	0x2
 4458 06a7 30       		.byte	0x30
 4459 06a8 9F       		.byte	0x9f
 4460 06a9 58010000 		.4byte	.LVL162
ARM GAS  C:\Users\DGILLI~1\AppData\Local\Temp\ccItuQxT.s 			page 105


 4461 06ad 5A010000 		.4byte	.LVL163
 4462 06b1 0100     		.2byte	0x1
 4463 06b3 50       		.byte	0x50
 4464 06b4 5A010000 		.4byte	.LVL163
 4465 06b8 6E010000 		.4byte	.LVL165
 4466 06bc 0200     		.2byte	0x2
 4467 06be 30       		.byte	0x30
 4468 06bf 9F       		.byte	0x9f
 4469 06c0 6E010000 		.4byte	.LVL165
 4470 06c4 70010000 		.4byte	.LVL166
 4471 06c8 0100     		.2byte	0x1
 4472 06ca 50       		.byte	0x50
 4473 06cb 70010000 		.4byte	.LVL166
 4474 06cf A4010000 		.4byte	.LVL168
 4475 06d3 0200     		.2byte	0x2
 4476 06d5 30       		.byte	0x30
 4477 06d6 9F       		.byte	0x9f
 4478 06d7 A4010000 		.4byte	.LVL168
 4479 06db A6010000 		.4byte	.LVL169
 4480 06df 0100     		.2byte	0x1
 4481 06e1 50       		.byte	0x50
 4482 06e2 A6010000 		.4byte	.LVL169
 4483 06e6 DE010000 		.4byte	.LVL175
 4484 06ea 0200     		.2byte	0x2
 4485 06ec 30       		.byte	0x30
 4486 06ed 9F       		.byte	0x9f
 4487 06ee DE010000 		.4byte	.LVL175
 4488 06f2 E0010000 		.4byte	.LVL176
 4489 06f6 0100     		.2byte	0x1
 4490 06f8 50       		.byte	0x50
 4491 06f9 E0010000 		.4byte	.LVL176
 4492 06fd 14020000 		.4byte	.LVL181
 4493 0701 0200     		.2byte	0x2
 4494 0703 30       		.byte	0x30
 4495 0704 9F       		.byte	0x9f
 4496 0705 14020000 		.4byte	.LVL181
 4497 0709 16020000 		.4byte	.LVL182
 4498 070d 0100     		.2byte	0x1
 4499 070f 50       		.byte	0x50
 4500 0710 16020000 		.4byte	.LVL182
 4501 0714 32020000 		.4byte	.LVL184
 4502 0718 0200     		.2byte	0x2
 4503 071a 30       		.byte	0x30
 4504 071b 9F       		.byte	0x9f
 4505 071c 32020000 		.4byte	.LVL184
 4506 0720 34020000 		.4byte	.LVL185
 4507 0724 0100     		.2byte	0x1
 4508 0726 50       		.byte	0x50
 4509 0727 34020000 		.4byte	.LVL185
 4510 072b 4C020000 		.4byte	.LVL186
 4511 072f 0200     		.2byte	0x2
 4512 0731 30       		.byte	0x30
 4513 0732 9F       		.byte	0x9f
 4514 0733 4C020000 		.4byte	.LVL186
 4515 0737 4E020000 		.4byte	.LVL187
 4516 073b 0100     		.2byte	0x1
 4517 073d 50       		.byte	0x50
ARM GAS  C:\Users\DGILLI~1\AppData\Local\Temp\ccItuQxT.s 			page 106


 4518 073e 4E020000 		.4byte	.LVL187
 4519 0742 6E020000 		.4byte	.LVL188
 4520 0746 0200     		.2byte	0x2
 4521 0748 30       		.byte	0x30
 4522 0749 9F       		.byte	0x9f
 4523 074a 6E020000 		.4byte	.LVL188
 4524 074e AC020000 		.4byte	.LVL189
 4525 0752 0100     		.2byte	0x1
 4526 0754 50       		.byte	0x50
 4527 0755 AC020000 		.4byte	.LVL189
 4528 0759 C8020000 		.4byte	.LVL191
 4529 075d 0200     		.2byte	0x2
 4530 075f 30       		.byte	0x30
 4531 0760 9F       		.byte	0x9f
 4532 0761 C8020000 		.4byte	.LVL191
 4533 0765 CA020000 		.4byte	.LVL192
 4534 0769 0100     		.2byte	0x1
 4535 076b 50       		.byte	0x50
 4536 076c CA020000 		.4byte	.LVL192
 4537 0770 E2020000 		.4byte	.LVL193
 4538 0774 0200     		.2byte	0x2
 4539 0776 30       		.byte	0x30
 4540 0777 9F       		.byte	0x9f
 4541 0778 E2020000 		.4byte	.LVL193
 4542 077c E4020000 		.4byte	.LVL194
 4543 0780 0100     		.2byte	0x1
 4544 0782 50       		.byte	0x50
 4545 0783 E4020000 		.4byte	.LVL194
 4546 0787 04030000 		.4byte	.LVL195
 4547 078b 0200     		.2byte	0x2
 4548 078d 30       		.byte	0x30
 4549 078e 9F       		.byte	0x9f
 4550 078f 04030000 		.4byte	.LVL195
 4551 0793 06030000 		.4byte	.LVL196
 4552 0797 0100     		.2byte	0x1
 4553 0799 50       		.byte	0x50
 4554 079a 06030000 		.4byte	.LVL196
 4555 079e 40030000 		.4byte	.LVL204
 4556 07a2 0200     		.2byte	0x2
 4557 07a4 30       		.byte	0x30
 4558 07a5 9F       		.byte	0x9f
 4559 07a6 40030000 		.4byte	.LVL204
 4560 07aa 50030000 		.4byte	.LFE0
 4561 07ae 0100     		.2byte	0x1
 4562 07b0 50       		.byte	0x50
 4563 07b1 00000000 		.4byte	0
 4564 07b5 00000000 		.4byte	0
 4565              	.LLST37:
 4566 07b9 F0010000 		.4byte	.LVL178
 4567 07bd 02020000 		.4byte	.LVL179
 4568 07c1 0100     		.2byte	0x1
 4569 07c3 53       		.byte	0x53
 4570 07c4 00000000 		.4byte	0
 4571 07c8 00000000 		.4byte	0
 4572              	.LLST38:
 4573 07cc AA010000 		.4byte	.LVL171
 4574 07d0 B7010000 		.4byte	.LVL172-1
ARM GAS  C:\Users\DGILLI~1\AppData\Local\Temp\ccItuQxT.s 			page 107


 4575 07d4 0100     		.2byte	0x1
 4576 07d6 53       		.byte	0x53
 4577 07d7 00000000 		.4byte	0
 4578 07db 00000000 		.4byte	0
 4579              	.LLST39:
 4580 07df 08000000 		.4byte	.LVL134
 4581 07e3 3E000000 		.4byte	.LVL135
 4582 07e7 0100     		.2byte	0x1
 4583 07e9 53       		.byte	0x53
 4584 07ea F8000000 		.4byte	.LVL155
 4585 07ee FC000000 		.4byte	.LVL156
 4586 07f2 0100     		.2byte	0x1
 4587 07f4 53       		.byte	0x53
 4588 07f5 4A010000 		.4byte	.LVL160
 4589 07f9 4C010000 		.4byte	.LVL161
 4590 07fd 0100     		.2byte	0x1
 4591 07ff 53       		.byte	0x53
 4592 0800 5A010000 		.4byte	.LVL163
 4593 0804 5E010000 		.4byte	.LVL164
 4594 0808 0100     		.2byte	0x1
 4595 080a 53       		.byte	0x53
 4596 080b 70010000 		.4byte	.LVL166
 4597 080f 98010000 		.4byte	.LVL167
 4598 0813 0100     		.2byte	0x1
 4599 0815 53       		.byte	0x53
 4600 0816 A6010000 		.4byte	.LVL169
 4601 081a A8010000 		.4byte	.LVL170
 4602 081e 0100     		.2byte	0x1
 4603 0820 53       		.byte	0x53
 4604 0821 E0010000 		.4byte	.LVL176
 4605 0825 E3010000 		.4byte	.LVL177-1
 4606 0829 0100     		.2byte	0x1
 4607 082b 53       		.byte	0x53
 4608 082c 16020000 		.4byte	.LVL182
 4609 0830 1A020000 		.4byte	.LVL183
 4610 0834 0100     		.2byte	0x1
 4611 0836 53       		.byte	0x53
 4612 0837 AC020000 		.4byte	.LVL189
 4613 083b B0020000 		.4byte	.LVL190
 4614 083f 0100     		.2byte	0x1
 4615 0841 53       		.byte	0x53
 4616 0842 06030000 		.4byte	.LVL196
 4617 0846 0A030000 		.4byte	.LVL197
 4618 084a 0100     		.2byte	0x1
 4619 084c 53       		.byte	0x53
 4620 084d 16030000 		.4byte	.LVL201
 4621 0851 1A030000 		.4byte	.LVL202
 4622 0855 0100     		.2byte	0x1
 4623 0857 53       		.byte	0x53
 4624 0858 00000000 		.4byte	0
 4625 085c 00000000 		.4byte	0
 4626              	.LLST40:
 4627 0860 08000000 		.4byte	.LVL134
 4628 0864 98000000 		.4byte	.LVL142
 4629 0868 0200     		.2byte	0x2
 4630 086a 30       		.byte	0x30
 4631 086b 9F       		.byte	0x9f
ARM GAS  C:\Users\DGILLI~1\AppData\Local\Temp\ccItuQxT.s 			page 108


 4632 086c 98000000 		.4byte	.LVL142
 4633 0870 A2000000 		.4byte	.LVL147
 4634 0874 0100     		.2byte	0x1
 4635 0876 51       		.byte	0x51
 4636 0877 A2000000 		.4byte	.LVL147
 4637 087b A6000000 		.4byte	.LVL148
 4638 087f 0200     		.2byte	0x2
 4639 0881 30       		.byte	0x30
 4640 0882 9F       		.byte	0x9f
 4641 0883 A6000000 		.4byte	.LVL148
 4642 0887 D7000000 		.4byte	.LVL150-1
 4643 088b 0100     		.2byte	0x1
 4644 088d 51       		.byte	0x51
 4645 088e DA000000 		.4byte	.LVL151
 4646 0892 EF000000 		.4byte	.LVL152-1
 4647 0896 0100     		.2byte	0x1
 4648 0898 51       		.byte	0x51
 4649 0899 F2000000 		.4byte	.LVL153
 4650 089d 0E030000 		.4byte	.LVL199
 4651 08a1 0200     		.2byte	0x2
 4652 08a3 30       		.byte	0x30
 4653 08a4 9F       		.byte	0x9f
 4654 08a5 0E030000 		.4byte	.LVL199
 4655 08a9 12030000 		.4byte	.LVL200
 4656 08ad 0100     		.2byte	0x1
 4657 08af 51       		.byte	0x51
 4658 08b0 12030000 		.4byte	.LVL200
 4659 08b4 50030000 		.4byte	.LFE0
 4660 08b8 0200     		.2byte	0x2
 4661 08ba 30       		.byte	0x30
 4662 08bb 9F       		.byte	0x9f
 4663 08bc 00000000 		.4byte	0
 4664 08c0 00000000 		.4byte	0
 4665              	.LLST41:
 4666 08c4 98000000 		.4byte	.LVL142
 4667 08c8 9E000000 		.4byte	.LVL145
 4668 08cc 0100     		.2byte	0x1
 4669 08ce 53       		.byte	0x53
 4670 08cf A0000000 		.4byte	.LVL146
 4671 08d3 A2000000 		.4byte	.LVL147
 4672 08d7 0100     		.2byte	0x1
 4673 08d9 53       		.byte	0x53
 4674 08da A6000000 		.4byte	.LVL148
 4675 08de BA000000 		.4byte	.LVL149
 4676 08e2 0100     		.2byte	0x1
 4677 08e4 53       		.byte	0x53
 4678 08e5 00000000 		.4byte	0
 4679 08e9 00000000 		.4byte	0
 4680              	.LLST42:
 4681 08ed 9A000000 		.4byte	.LVL143
 4682 08f1 A2000000 		.4byte	.LVL147
 4683 08f5 0100     		.2byte	0x1
 4684 08f7 52       		.byte	0x52
 4685 08f8 00000000 		.4byte	0
 4686 08fc 00000000 		.4byte	0
 4687              	.LLST43:
 4688 0900 4A000000 		.4byte	.LVL136
ARM GAS  C:\Users\DGILLI~1\AppData\Local\Temp\ccItuQxT.s 			page 109


 4689 0904 57000000 		.4byte	.LVL137-1
 4690 0908 0100     		.2byte	0x1
 4691 090a 50       		.byte	0x50
 4692 090b 6C000000 		.4byte	.LVL139
 4693 090f 89000000 		.4byte	.LVL140-1
 4694 0913 0100     		.2byte	0x1
 4695 0915 50       		.byte	0x50
 4696 0916 B8010000 		.4byte	.LVL172
 4697 091a D2010000 		.4byte	.LVL173
 4698 091e 0100     		.2byte	0x1
 4699 0920 50       		.byte	0x50
 4700 0921 0A030000 		.4byte	.LVL197
 4701 0925 0C030000 		.4byte	.LVL198
 4702 0929 0100     		.2byte	0x1
 4703 092b 50       		.byte	0x50
 4704 092c 1A030000 		.4byte	.LVL202
 4705 0930 1C030000 		.4byte	.LVL203
 4706 0934 0100     		.2byte	0x1
 4707 0936 50       		.byte	0x50
 4708 0937 00000000 		.4byte	0
 4709 093b 00000000 		.4byte	0
 4710              		.section	.debug_aranges,"",%progbits
 4711 0000 7C000000 		.4byte	0x7c
 4712 0004 0200     		.2byte	0x2
 4713 0006 00000000 		.4byte	.Ldebug_info0
 4714 000a 04       		.byte	0x4
 4715 000b 00       		.byte	0
 4716 000c 0000     		.2byte	0
 4717 000e 0000     		.2byte	0
 4718 0010 00000000 		.4byte	.LFB1
 4719 0014 6C000000 		.4byte	.LFE1-.LFB1
 4720 0018 00000000 		.4byte	.LFB2
 4721 001c A4000000 		.4byte	.LFE2-.LFB2
 4722 0020 00000000 		.4byte	.LFB3
 4723 0024 40000000 		.4byte	.LFE3-.LFB3
 4724 0028 00000000 		.4byte	.LFB6
 4725 002c 28000000 		.4byte	.LFE6-.LFB6
 4726 0030 00000000 		.4byte	.LFB5
 4727 0034 1C010000 		.4byte	.LFE5-.LFB5
 4728 0038 00000000 		.4byte	.LFB7
 4729 003c 18000000 		.4byte	.LFE7-.LFB7
 4730 0040 00000000 		.4byte	.LFB8
 4731 0044 24000000 		.4byte	.LFE8-.LFB8
 4732 0048 00000000 		.4byte	.LFB4
 4733 004c E4010000 		.4byte	.LFE4-.LFB4
 4734 0050 00000000 		.4byte	.LFB9
 4735 0054 4C000000 		.4byte	.LFE9-.LFB9
 4736 0058 00000000 		.4byte	.LFB10
 4737 005c 64000000 		.4byte	.LFE10-.LFB10
 4738 0060 00000000 		.4byte	.LFB11
 4739 0064 A8000000 		.4byte	.LFE11-.LFB11
 4740 0068 00000000 		.4byte	.LFB12
 4741 006c 4C000000 		.4byte	.LFE12-.LFB12
 4742 0070 00000000 		.4byte	.LFB0
 4743 0074 50030000 		.4byte	.LFE0-.LFB0
 4744 0078 00000000 		.4byte	0
 4745 007c 00000000 		.4byte	0
ARM GAS  C:\Users\DGILLI~1\AppData\Local\Temp\ccItuQxT.s 			page 110


 4746              		.section	.debug_ranges,"",%progbits
 4747              	.Ldebug_ranges0:
 4748 0000 00000000 		.4byte	.LFB1
 4749 0004 6C000000 		.4byte	.LFE1
 4750 0008 00000000 		.4byte	.LFB2
 4751 000c A4000000 		.4byte	.LFE2
 4752 0010 00000000 		.4byte	.LFB3
 4753 0014 40000000 		.4byte	.LFE3
 4754 0018 00000000 		.4byte	.LFB6
 4755 001c 28000000 		.4byte	.LFE6
 4756 0020 00000000 		.4byte	.LFB5
 4757 0024 1C010000 		.4byte	.LFE5
 4758 0028 00000000 		.4byte	.LFB7
 4759 002c 18000000 		.4byte	.LFE7
 4760 0030 00000000 		.4byte	.LFB8
 4761 0034 24000000 		.4byte	.LFE8
 4762 0038 00000000 		.4byte	.LFB4
 4763 003c E4010000 		.4byte	.LFE4
 4764 0040 00000000 		.4byte	.LFB9
 4765 0044 4C000000 		.4byte	.LFE9
 4766 0048 00000000 		.4byte	.LFB10
 4767 004c 64000000 		.4byte	.LFE10
 4768 0050 00000000 		.4byte	.LFB11
 4769 0054 A8000000 		.4byte	.LFE11
 4770 0058 00000000 		.4byte	.LFB12
 4771 005c 4C000000 		.4byte	.LFE12
 4772 0060 00000000 		.4byte	.LFB0
 4773 0064 50030000 		.4byte	.LFE0
 4774 0068 00000000 		.4byte	0
 4775 006c 00000000 		.4byte	0
 4776              		.section	.debug_line,"",%progbits
 4777              	.Ldebug_line0:
 4778 0000 E4030000 		.section	.debug_str,"MS",%progbits,1
 4778      02007700 
 4778      00000201 
 4778      FB0E0D00 
 4778      01010101 
 4779              	.LASF37:
 4780 0000 70537461 		.ascii	"pStatusBlock\000"
 4780      74757342 
 4780      6C6F636B 
 4780      00
 4781              	.LASF35:
 4782 000d 636F756E 		.ascii	"count\000"
 4782      7400
 4783              	.LASF10:
 4784 0013 75696E74 		.ascii	"uint16\000"
 4784      313600
 4785              	.LASF62:
 4786 001a 55534255 		.ascii	"USBUART_1_ReadDieID\000"
 4786      4152545F 
 4786      315F5265 
 4786      61644469 
 4786      65494400 
 4787              	.LASF96:
 4788 002e 55534255 		.ascii	"USBUART_1_device\000"
 4788      4152545F 
ARM GAS  C:\Users\DGILLI~1\AppData\Local\Temp\ccItuQxT.s 			page 111


 4788      315F6465 
 4788      76696365 
 4788      00
 4789              	.LASF66:
 4790 003f 636F6E66 		.ascii	"confIndex\000"
 4790      496E6465 
 4790      7800
 4791              	.LASF7:
 4792 0049 6C6F6E67 		.ascii	"long long unsigned int\000"
 4792      206C6F6E 
 4792      6720756E 
 4792      7369676E 
 4792      65642069 
 4793              	.LASF22:
 4794 0060 61646472 		.ascii	"addr\000"
 4794      00
 4795              	.LASF47:
 4796 0065 65704366 		.ascii	"epCfg\000"
 4796      6700
 4797              	.LASF82:
 4798 006b 65704E75 		.ascii	"epNumber\000"
 4798      6D626572 
 4798      00
 4799              	.LASF31:
 4800 0074 545F5553 		.ascii	"T_USBUART_1_EP_SETTINGS_BLOCK\000"
 4800      42554152 
 4800      545F315F 
 4800      45505F53 
 4800      45545449 
 4801              	.LASF6:
 4802 0092 6C6F6E67 		.ascii	"long long int\000"
 4802      206C6F6E 
 4802      6720696E 
 4802      7400
 4803              	.LASF0:
 4804 00a0 7369676E 		.ascii	"signed char\000"
 4804      65642063 
 4804      68617200 
 4805              	.LASF100:
 4806 00ac 55534255 		.ascii	"USBUART_1_DEVICE0_DESCR\000"
 4806      4152545F 
 4806      315F4445 
 4806      56494345 
 4806      305F4445 
 4807              	.LASF72:
 4808 00c4 55534255 		.ascii	"USBUART_1_GetConfigTablePtr\000"
 4808      4152545F 
 4808      315F4765 
 4808      74436F6E 
 4808      66696754 
 4809              	.LASF77:
 4810 00e0 636C6561 		.ascii	"clearAltSetting\000"
 4810      72416C74 
 4810      53657474 
 4810      696E6700 
 4811              	.LASF114:
 4812 00f0 55534255 		.ascii	"USBUART_1_DispatchClassRqst\000"
ARM GAS  C:\Users\DGILLI~1\AppData\Local\Temp\ccItuQxT.s 			page 112


 4812      4152545F 
 4812      315F4469 
 4812      73706174 
 4812      6368436C 
 4813              	.LASF64:
 4814 010c 55534255 		.ascii	"USBUART_1_EpStateInit\000"
 4814      4152545F 
 4814      315F4570 
 4814      53746174 
 4814      65496E69 
 4815              	.LASF40:
 4816 0122 545F5553 		.ascii	"T_USBUART_1_LUT\000"
 4816      42554152 
 4816      545F315F 
 4816      4C555400 
 4817              	.LASF76:
 4818 0132 55534255 		.ascii	"USBUART_1_Config\000"
 4818      4152545F 
 4818      315F436F 
 4818      6E666967 
 4818      00
 4819              	.LASF4:
 4820 0143 6C6F6E67 		.ascii	"long int\000"
 4820      20696E74 
 4820      00
 4821              	.LASF80:
 4822 014c 63646343 		.ascii	"cdcComNums\000"
 4822      6F6D4E75 
 4822      6D7300
 4823              	.LASF81:
 4824 0157 55534255 		.ascii	"USBUART_1_TerminateEP\000"
 4824      4152545F 
 4824      315F5465 
 4824      726D696E 
 4824      61746545 
 4825              	.LASF111:
 4826 016d 55534255 		.ascii	"USBUART_1_currentTD\000"
 4826      4152545F 
 4826      315F6375 
 4826      7272656E 
 4826      74544400 
 4827              	.LASF9:
 4828 0181 75696E74 		.ascii	"uint8\000"
 4828      3800
 4829              	.LASF21:
 4830 0187 6570546F 		.ascii	"epToggle\000"
 4830      67676C65 
 4830      00
 4831              	.LASF51:
 4832 0190 72775761 		.ascii	"rwWa\000"
 4832      00
 4833              	.LASF13:
 4834 0195 646F7562 		.ascii	"double\000"
 4834      6C6500
 4835              	.LASF49:
 4836 019c 65705372 		.ascii	"epSr\000"
 4836      00
ARM GAS  C:\Users\DGILLI~1\AppData\Local\Temp\ccItuQxT.s 			page 113


 4837              	.LASF117:
 4838 01a1 433A5C55 		.ascii	"C:\\Users\\DGilliland\\Documents\\GitHub\\ODAS\\ODA"
 4838      73657273 
 4838      5C444769 
 4838      6C6C696C 
 4838      616E645C 
 4839 01ce 532D5053 		.ascii	"S-PSOC5\\Projects\\ODAS-PSOC5-USB_Serial-01.cydsn\000"
 4839      4F43355C 
 4839      50726F6A 
 4839      65637473 
 4839      5C4F4441 
 4840              	.LASF11:
 4841 01fe 75696E74 		.ascii	"uint32\000"
 4841      333200
 4842              	.LASF68:
 4843 0205 55534255 		.ascii	"USBUART_1_ConfigAltChanged\000"
 4843      4152545F 
 4843      315F436F 
 4843      6E666967 
 4843      416C7443 
 4844              	.LASF36:
 4845 0220 70446174 		.ascii	"pData\000"
 4845      6100
 4846              	.LASF95:
 4847 0226 55534255 		.ascii	"USBUART_1_tBuffer\000"
 4847      4152545F 
 4847      315F7442 
 4847      75666665 
 4847      7200
 4848              	.LASF55:
 4849 0238 72774472 		.ascii	"rwDr\000"
 4849      00
 4850              	.LASF23:
 4851 023d 65704D6F 		.ascii	"epMode\000"
 4851      646500
 4852              	.LASF70:
 4853 0244 65705479 		.ascii	"epType\000"
 4853      706500
 4854              	.LASF91:
 4855 024b 626D5265 		.ascii	"bmRequestType\000"
 4855      71756573 
 4855      74547970 
 4855      6500
 4856              	.LASF50:
 4857 0259 72657365 		.ascii	"reserved\000"
 4857      72766564 
 4857      00
 4858              	.LASF58:
 4859 0262 55534255 		.ascii	"USBUART_1_sie_eps_struct\000"
 4859      4152545F 
 4859      315F7369 
 4859      655F6570 
 4859      735F7374 
 4860              	.LASF27:
 4861 027b 545F5553 		.ascii	"T_USBUART_1_EP_CTL_BLOCK\000"
 4861      42554152 
 4861      545F315F 
ARM GAS  C:\Users\DGILLI~1\AppData\Local\Temp\ccItuQxT.s 			page 114


 4861      45505F43 
 4861      544C5F42 
 4862              	.LASF120:
 4863 0294 55534255 		.ascii	"USBUART_1_Cdc_EpInit\000"
 4863      4152545F 
 4863      315F4364 
 4863      635F4570 
 4863      496E6974 
 4864              	.LASF60:
 4865 02a9 55534255 		.ascii	"USBUART_1_arb_eps_struct\000"
 4865      4152545F 
 4865      315F6172 
 4865      625F6570 
 4865      735F7374 
 4866              	.LASF99:
 4867 02c2 55534255 		.ascii	"USBUART_1_deviceStatus\000"
 4867      4152545F 
 4867      315F6465 
 4867      76696365 
 4867      53746174 
 4868              	.LASF119:
 4869 02d9 43794765 		.ascii	"CyGetUniqueId\000"
 4869      74556E69 
 4869      71756549 
 4869      6400
 4870              	.LASF8:
 4871 02e7 756E7369 		.ascii	"unsigned int\000"
 4871      676E6564 
 4871      20696E74 
 4871      00
 4872              	.LASF112:
 4873 02f4 55534255 		.ascii	"USBUART_1_InitNoDataControlTransfer\000"
 4873      4152545F 
 4873      315F496E 
 4873      69744E6F 
 4873      44617461 
 4874              	.LASF5:
 4875 0318 6C6F6E67 		.ascii	"long unsigned int\000"
 4875      20756E73 
 4875      69676E65 
 4875      6420696E 
 4875      7400
 4876              	.LASF101:
 4877 032a 55534255 		.ascii	"USBUART_1_TABLE\000"
 4877      4152545F 
 4877      315F5441 
 4877      424C4500 
 4878              	.LASF98:
 4879 033a 55534255 		.ascii	"USBUART_1_configurationChanged\000"
 4879      4152545F 
 4879      315F636F 
 4879      6E666967 
 4879      75726174 
 4880              	.LASF3:
 4881 0359 73686F72 		.ascii	"short unsigned int\000"
 4881      7420756E 
 4881      7369676E 
ARM GAS  C:\Users\DGILLI~1\AppData\Local\Temp\ccItuQxT.s 			page 115


 4881      65642069 
 4881      6E7400
 4882              	.LASF78:
 4883 036c 70446573 		.ascii	"pDescr\000"
 4883      637200
 4884              	.LASF74:
 4885 0373 70496E74 		.ascii	"pInterfaceClass\000"
 4885      65726661 
 4885      6365436C 
 4885      61737300 
 4886              	.LASF107:
 4887 0383 55534255 		.ascii	"USBUART_1_deviceAddress\000"
 4887      4152545F 
 4887      315F6465 
 4887      76696365 
 4887      41646472 
 4888              	.LASF56:
 4889 039b 55534255 		.ascii	"USBUART_1_arb_ep_struct\000"
 4889      4152545F 
 4889      315F6172 
 4889      625F6570 
 4889      5F737472 
 4890              	.LASF118:
 4891 03b3 55534255 		.ascii	"USBUART_1_GetDeviceTablePtr\000"
 4891      4152545F 
 4891      315F4765 
 4891      74446576 
 4891      69636554 
 4892              	.LASF59:
 4893 03cf 61726245 		.ascii	"arbEp\000"
 4893      7000
 4894              	.LASF26:
 4895 03d5 696E7465 		.ascii	"interface\000"
 4895      72666163 
 4895      6500
 4896              	.LASF88:
 4897 03df 55534255 		.ascii	"USBUART_1_HandleStandardRqst\000"
 4897      4152545F 
 4897      315F4861 
 4897      6E646C65 
 4897      5374616E 
 4898              	.LASF69:
 4899 03fc 63757245 		.ascii	"curEp\000"
 4899      7000
 4900              	.LASF20:
 4901 0402 68774570 		.ascii	"hwEpState\000"
 4901      53746174 
 4901      6500
 4902              	.LASF94:
 4903 040c 64657363 		.ascii	"descrLength\000"
 4903      724C656E 
 4903      67746800 
 4904              	.LASF17:
 4905 0418 73697A65 		.ascii	"sizetype\000"
 4905      74797065 
 4905      00
 4906              	.LASF57:
ARM GAS  C:\Users\DGILLI~1\AppData\Local\Temp\ccItuQxT.s 			page 116


 4907 0421 73696545 		.ascii	"sieEp\000"
 4907      7000
 4908              	.LASF67:
 4909 0427 70546D70 		.ascii	"pTmp\000"
 4909      00
 4910              	.LASF39:
 4911 042c 705F6C69 		.ascii	"p_list\000"
 4911      737400
 4912              	.LASF79:
 4913 0433 62756666 		.ascii	"buffCount\000"
 4913      436F756E 
 4913      7400
 4914              	.LASF18:
 4915 043d 61747472 		.ascii	"attrib\000"
 4915      696200
 4916              	.LASF97:
 4917 0444 55534255 		.ascii	"USBUART_1_configuration\000"
 4917      4152545F 
 4917      315F636F 
 4917      6E666967 
 4917      75726174 
 4918              	.LASF103:
 4919 045c 55534255 		.ascii	"USBUART_1_idSerialNumberStringDescriptor\000"
 4919      4152545F 
 4919      315F6964 
 4919      53657269 
 4919      616C4E75 
 4920              	.LASF73:
 4921 0485 55534255 		.ascii	"USBUART_1_GetInterfaceClassTablePtr\000"
 4921      4152545F 
 4921      315F4765 
 4921      74496E74 
 4921      65726661 
 4922              	.LASF63:
 4923 04a9 55534255 		.ascii	"USBUART_1_ConfigReg\000"
 4923      4152545F 
 4923      315F436F 
 4923      6E666967 
 4923      52656700 
 4924              	.LASF54:
 4925 04bd 72775261 		.ascii	"rwRaMsb\000"
 4925      4D736200 
 4926              	.LASF43:
 4927 04c5 6570436E 		.ascii	"epCnt0\000"
 4927      743000
 4928              	.LASF44:
 4929 04cc 6570436E 		.ascii	"epCnt1\000"
 4929      743100
 4930              	.LASF45:
 4931 04d3 65704372 		.ascii	"epCr0\000"
 4931      3000
 4932              	.LASF71:
 4933 04d9 696E7465 		.ascii	"interfaceNum\000"
 4933      72666163 
 4933      654E756D 
 4933      00
 4934              	.LASF12:
ARM GAS  C:\Users\DGILLI~1\AppData\Local\Temp\ccItuQxT.s 			page 117


 4935 04e6 666C6F61 		.ascii	"float\000"
 4935      7400
 4936              	.LASF19:
 4937 04ec 61706945 		.ascii	"apiEpState\000"
 4937      70537461 
 4937      746500
 4938              	.LASF90:
 4939 04f7 636F6E66 		.ascii	"configurationN\000"
 4939      69677572 
 4939      6174696F 
 4939      6E4E00
 4940              	.LASF92:
 4941 0506 70537472 		.ascii	"pStr\000"
 4941      00
 4942              	.LASF16:
 4943 050b 72656738 		.ascii	"reg8\000"
 4943      00
 4944              	.LASF108:
 4945 0510 55534255 		.ascii	"USBUART_1_interfaceStatus\000"
 4945      4152545F 
 4945      315F696E 
 4945      74657266 
 4945      61636553 
 4946              	.LASF65:
 4947 052a 64657363 		.ascii	"descr\000"
 4947      7200
 4948              	.LASF1:
 4949 0530 756E7369 		.ascii	"unsigned char\000"
 4949      676E6564 
 4949      20636861 
 4949      7200
 4950              	.LASF105:
 4951 053e 55534255 		.ascii	"USBUART_1_interfaceSetting\000"
 4951      4152545F 
 4951      315F696E 
 4951      74657266 
 4951      61636553 
 4952              	.LASF109:
 4953 0559 55534255 		.ascii	"USBUART_1_interfaceClass\000"
 4953      4152545F 
 4953      315F696E 
 4953      74657266 
 4953      61636543 
 4954              	.LASF2:
 4955 0572 73686F72 		.ascii	"short int\000"
 4955      7420696E 
 4955      7400
 4956              	.LASF46:
 4957 057c 55534255 		.ascii	"USBUART_1_sie_ep_struct\000"
 4957      4152545F 
 4957      315F7369 
 4957      655F6570 
 4957      5F737472 
 4958              	.LASF53:
 4959 0594 72775261 		.ascii	"rwRa\000"
 4959      00
 4960              	.LASF85:
ARM GAS  C:\Users\DGILLI~1\AppData\Local\Temp\ccItuQxT.s 			page 118


 4961 0599 55534255 		.ascii	"USBUART_1_ClearEndpointHalt\000"
 4961      4152545F 
 4961      315F436C 
 4961      65617245 
 4961      6E64706F 
 4962              	.LASF52:
 4963 05b5 72775761 		.ascii	"rwWaMsb\000"
 4963      4D736200 
 4964              	.LASF29:
 4965 05bd 61747472 		.ascii	"attributes\000"
 4965      69627574 
 4965      657300
 4966              	.LASF86:
 4967 05c8 55534255 		.ascii	"USBUART_1_ValidateAlternateSetting\000"
 4967      4152545F 
 4967      315F5661 
 4967      6C696461 
 4967      7465416C 
 4968              	.LASF28:
 4969 05eb 616C7453 		.ascii	"altSetting\000"
 4969      65747469 
 4969      6E6700
 4970              	.LASF34:
 4971 05f6 545F5553 		.ascii	"T_USBUART_1_XFER_STATUS_BLOCK\000"
 4971      42554152 
 4971      545F315F 
 4971      58464552 
 4971      5F535441 
 4972              	.LASF15:
 4973 0614 63686172 		.ascii	"char\000"
 4973      00
 4974              	.LASF25:
 4975 0619 62756666 		.ascii	"bufferSize\000"
 4975      65725369 
 4975      7A6500
 4976              	.LASF84:
 4977 0624 72657175 		.ascii	"requestHandled\000"
 4977      65737448 
 4977      616E646C 
 4977      656400
 4978              	.LASF75:
 4979 0633 63757272 		.ascii	"currentInterfacesNum\000"
 4979      656E7449 
 4979      6E746572 
 4979      66616365 
 4979      734E756D 
 4980              	.LASF24:
 4981 0648 62756666 		.ascii	"buffOffset\000"
 4981      4F666673 
 4981      657400
 4982              	.LASF14:
 4983 0653 63686172 		.ascii	"char8\000"
 4983      3800
 4984              	.LASF61:
 4985 0659 756E6971 		.ascii	"uniqueId\000"
 4985      75654964 
 4985      00
ARM GAS  C:\Users\DGILLI~1\AppData\Local\Temp\ccItuQxT.s 			page 119


 4986              	.LASF42:
 4987 0662 55534255 		.ascii	"USBUART_1_ep0_data_struct\000"
 4987      4152545F 
 4987      315F6570 
 4987      305F6461 
 4987      74615F73 
 4988              	.LASF89:
 4989 067c 696E7465 		.ascii	"interfaceNumber\000"
 4989      72666163 
 4989      654E756D 
 4989      62657200 
 4990              	.LASF113:
 4991 068c 55534255 		.ascii	"USBUART_1_InitControlRead\000"
 4991      4152545F 
 4991      315F496E 
 4991      6974436F 
 4991      6E74726F 
 4992              	.LASF33:
 4993 06a6 6C656E67 		.ascii	"length\000"
 4993      746800
 4994              	.LASF93:
 4995 06ad 6E537472 		.ascii	"nStr\000"
 4995      00
 4996              	.LASF104:
 4997 06b2 55534255 		.ascii	"USBUART_1_interfaceNumber\000"
 4997      4152545F 
 4997      315F696E 
 4997      74657266 
 4997      6163654E 
 4998              	.LASF106:
 4999 06cc 55534255 		.ascii	"USBUART_1_interfaceSettingLast\000"
 4999      4152545F 
 4999      315F696E 
 4999      74657266 
 4999      61636553 
 5000              	.LASF32:
 5001 06eb 73746174 		.ascii	"status\000"
 5001      757300
 5002              	.LASF115:
 5003 06f2 474E5520 		.ascii	"GNU C 4.9.3 20150303 (release) [ARM/embedded-4_9-br"
 5003      4320342E 
 5003      392E3320 
 5003      32303135 
 5003      30333033 
 5004 0725 616E6368 		.ascii	"anch revision 221220] -mcpu=cortex-m3 -mthumb -g -O"
 5004      20726576 
 5004      6973696F 
 5004      6E203232 
 5004      31323230 
 5005 0758 67202D66 		.ascii	"g -ffunction-sections -ffat-lto-objects\000"
 5005      66756E63 
 5005      74696F6E 
 5005      2D736563 
 5005      74696F6E 
 5006              	.LASF116:
 5007 0780 47656E65 		.ascii	"Generated_Source\\PSoC5\\USBUART_1_std.c\000"
 5007      72617465 
ARM GAS  C:\Users\DGILLI~1\AppData\Local\Temp\ccItuQxT.s 			page 120


 5007      645F536F 
 5007      75726365 
 5007      5C50536F 
 5008              	.LASF87:
 5009 07a7 63757249 		.ascii	"curInterfacesNum\000"
 5009      6E746572 
 5009      66616365 
 5009      734E756D 
 5009      00
 5010              	.LASF41:
 5011 07b8 65704461 		.ascii	"epData\000"
 5011      746100
 5012              	.LASF30:
 5013 07bf 624D6973 		.ascii	"bMisc\000"
 5013      6300
 5014              	.LASF38:
 5015 07c5 545F5553 		.ascii	"T_USBUART_1_TD\000"
 5015      42554152 
 5015      545F315F 
 5015      544400
 5016              	.LASF48:
 5017 07d4 6570496E 		.ascii	"epIntEn\000"
 5017      74456E00 
 5018              	.LASF83:
 5019 07dc 55534255 		.ascii	"USBUART_1_SetEndpointHalt\000"
 5019      4152545F 
 5019      315F5365 
 5019      74456E64 
 5019      706F696E 
 5020              	.LASF110:
 5021 07f6 55534255 		.ascii	"USBUART_1_EP\000"
 5021      4152545F 
 5021      315F4550 
 5021      00
 5022              	.LASF102:
 5023 0803 55534255 		.ascii	"USBUART_1_STRING_DESCRIPTORS\000"
 5023      4152545F 
 5023      315F5354 
 5023      52494E47 
 5023      5F444553 
 5024              		.ident	"GCC: (GNU Tools for ARM Embedded Processors) 4.9.3 20150303 (release) [ARM/embedded-4_9-br
