ARM GAS  C:\Users\DGILLI~1\AppData\Local\Temp\ccRNf6Xa.s 			page 1


   1              		.syntax unified
   2              		.cpu cortex-m3
   3              		.fpu softvfp
   4              		.eabi_attribute 20, 1
   5              		.eabi_attribute 21, 1
   6              		.eabi_attribute 23, 3
   7              		.eabi_attribute 24, 1
   8              		.eabi_attribute 25, 1
   9              		.eabi_attribute 26, 1
  10              		.eabi_attribute 30, 1
  11              		.eabi_attribute 34, 1
  12              		.eabi_attribute 18, 4
  13              		.thumb
  14              		.syntax unified
  15              		.file	"cyfitter_cfg.c"
  16              		.text
  17              	.Ltext0:
  18              		.cfi_sections	.debug_frame
  19              		.section	.text.CyClockStartupError,"ax",%progbits
  20              		.align	2
  21              		.thumb
  22              		.thumb_func
  23              		.type	CyClockStartupError, %function
  24              	CyClockStartupError:
  25              	.LFB3:
  26              		.file 1 "Generated_Source\\PSoC5\\cyfitter_cfg.c"
   1:Generated_Source\PSoC5/cyfitter_cfg.c **** 
   2:Generated_Source\PSoC5/cyfitter_cfg.c **** /*******************************************************************************
   3:Generated_Source\PSoC5/cyfitter_cfg.c **** * File Name: cyfitter_cfg.c
   4:Generated_Source\PSoC5/cyfitter_cfg.c **** * 
   5:Generated_Source\PSoC5/cyfitter_cfg.c **** * PSoC Creator  4.2
   6:Generated_Source\PSoC5/cyfitter_cfg.c **** *
   7:Generated_Source\PSoC5/cyfitter_cfg.c **** * Description:
   8:Generated_Source\PSoC5/cyfitter_cfg.c **** * This file contains device initialization code.
   9:Generated_Source\PSoC5/cyfitter_cfg.c **** * Except for the user defined sections in CyClockStartupError(), this file should not be modified.
  10:Generated_Source\PSoC5/cyfitter_cfg.c **** * This file is automatically generated by PSoC Creator.
  11:Generated_Source\PSoC5/cyfitter_cfg.c **** *
  12:Generated_Source\PSoC5/cyfitter_cfg.c **** ********************************************************************************
  13:Generated_Source\PSoC5/cyfitter_cfg.c **** * Copyright (c) 2007-2018 Cypress Semiconductor.  All rights reserved.
  14:Generated_Source\PSoC5/cyfitter_cfg.c **** * You may use this file only in accordance with the license, terms, conditions, 
  15:Generated_Source\PSoC5/cyfitter_cfg.c **** * disclaimers, and limitations in the end user license agreement accompanying 
  16:Generated_Source\PSoC5/cyfitter_cfg.c **** * the software package with which this file was provided.
  17:Generated_Source\PSoC5/cyfitter_cfg.c **** ********************************************************************************/
  18:Generated_Source\PSoC5/cyfitter_cfg.c **** 
  19:Generated_Source\PSoC5/cyfitter_cfg.c **** #include <string.h>
  20:Generated_Source\PSoC5/cyfitter_cfg.c **** #include "cytypes.h"
  21:Generated_Source\PSoC5/cyfitter_cfg.c **** #include "cydevice_trm.h"
  22:Generated_Source\PSoC5/cyfitter_cfg.c **** #include "cyfitter.h"
  23:Generated_Source\PSoC5/cyfitter_cfg.c **** #include "CyLib.h"
  24:Generated_Source\PSoC5/cyfitter_cfg.c **** #include "cyfitter_cfg.h"
  25:Generated_Source\PSoC5/cyfitter_cfg.c **** #include "cyapicallbacks.h"
  26:Generated_Source\PSoC5/cyfitter_cfg.c **** 
  27:Generated_Source\PSoC5/cyfitter_cfg.c **** #define CY_NEED_CYCLOCKSTARTUPERROR 1
  28:Generated_Source\PSoC5/cyfitter_cfg.c **** 
  29:Generated_Source\PSoC5/cyfitter_cfg.c **** 
  30:Generated_Source\PSoC5/cyfitter_cfg.c **** #if defined(__GNUC__) || defined(__ARMCC_VERSION)
  31:Generated_Source\PSoC5/cyfitter_cfg.c ****     #define CYPACKED 
ARM GAS  C:\Users\DGILLI~1\AppData\Local\Temp\ccRNf6Xa.s 			page 2


  32:Generated_Source\PSoC5/cyfitter_cfg.c ****     #define CYPACKED_ATTR __attribute__ ((packed))
  33:Generated_Source\PSoC5/cyfitter_cfg.c ****     #define CYALIGNED __attribute__ ((aligned))
  34:Generated_Source\PSoC5/cyfitter_cfg.c ****     #define CY_CFG_UNUSED __attribute__ ((unused))
  35:Generated_Source\PSoC5/cyfitter_cfg.c ****     #ifndef CY_CFG_SECTION
  36:Generated_Source\PSoC5/cyfitter_cfg.c ****         #define CY_CFG_SECTION __attribute__ ((section(".psocinit")))
  37:Generated_Source\PSoC5/cyfitter_cfg.c ****     #endif
  38:Generated_Source\PSoC5/cyfitter_cfg.c ****     
  39:Generated_Source\PSoC5/cyfitter_cfg.c ****     #if defined(__ARMCC_VERSION)
  40:Generated_Source\PSoC5/cyfitter_cfg.c ****         #define CY_CFG_MEMORY_BARRIER() __memory_changed()
  41:Generated_Source\PSoC5/cyfitter_cfg.c ****     #else
  42:Generated_Source\PSoC5/cyfitter_cfg.c ****         #define CY_CFG_MEMORY_BARRIER() __sync_synchronize()
  43:Generated_Source\PSoC5/cyfitter_cfg.c ****     #endif
  44:Generated_Source\PSoC5/cyfitter_cfg.c ****     
  45:Generated_Source\PSoC5/cyfitter_cfg.c **** #elif defined(__ICCARM__)
  46:Generated_Source\PSoC5/cyfitter_cfg.c ****     #include <intrinsics.h>
  47:Generated_Source\PSoC5/cyfitter_cfg.c **** 
  48:Generated_Source\PSoC5/cyfitter_cfg.c ****     #define CYPACKED __packed
  49:Generated_Source\PSoC5/cyfitter_cfg.c ****     #define CYPACKED_ATTR 
  50:Generated_Source\PSoC5/cyfitter_cfg.c ****     #define CYALIGNED _Pragma("data_alignment=4")
  51:Generated_Source\PSoC5/cyfitter_cfg.c ****     #define CY_CFG_UNUSED _Pragma("diag_suppress=Pe177")
  52:Generated_Source\PSoC5/cyfitter_cfg.c ****     #define CY_CFG_SECTION _Pragma("location=\".psocinit\"")
  53:Generated_Source\PSoC5/cyfitter_cfg.c ****     
  54:Generated_Source\PSoC5/cyfitter_cfg.c ****     #define CY_CFG_MEMORY_BARRIER() __DMB()
  55:Generated_Source\PSoC5/cyfitter_cfg.c ****     
  56:Generated_Source\PSoC5/cyfitter_cfg.c **** #else
  57:Generated_Source\PSoC5/cyfitter_cfg.c ****     #error Unsupported toolchain
  58:Generated_Source\PSoC5/cyfitter_cfg.c **** #endif
  59:Generated_Source\PSoC5/cyfitter_cfg.c **** 
  60:Generated_Source\PSoC5/cyfitter_cfg.c **** #ifndef CYCODE
  61:Generated_Source\PSoC5/cyfitter_cfg.c ****     #define CYCODE
  62:Generated_Source\PSoC5/cyfitter_cfg.c **** #endif
  63:Generated_Source\PSoC5/cyfitter_cfg.c **** #ifndef CYDATA
  64:Generated_Source\PSoC5/cyfitter_cfg.c ****     #define CYDATA
  65:Generated_Source\PSoC5/cyfitter_cfg.c **** #endif
  66:Generated_Source\PSoC5/cyfitter_cfg.c **** #ifndef CYFAR
  67:Generated_Source\PSoC5/cyfitter_cfg.c ****     #define CYFAR
  68:Generated_Source\PSoC5/cyfitter_cfg.c **** #endif
  69:Generated_Source\PSoC5/cyfitter_cfg.c **** #ifndef CYXDATA
  70:Generated_Source\PSoC5/cyfitter_cfg.c ****     #define CYXDATA
  71:Generated_Source\PSoC5/cyfitter_cfg.c **** #endif
  72:Generated_Source\PSoC5/cyfitter_cfg.c **** 
  73:Generated_Source\PSoC5/cyfitter_cfg.c **** 
  74:Generated_Source\PSoC5/cyfitter_cfg.c **** CY_CFG_UNUSED
  75:Generated_Source\PSoC5/cyfitter_cfg.c **** static void CYMEMZERO(void *s, size_t n);
  76:Generated_Source\PSoC5/cyfitter_cfg.c **** CY_CFG_UNUSED
  77:Generated_Source\PSoC5/cyfitter_cfg.c **** static void CYMEMZERO(void *s, size_t n)
  78:Generated_Source\PSoC5/cyfitter_cfg.c **** {
  79:Generated_Source\PSoC5/cyfitter_cfg.c **** 	(void)memset(s, 0, n);
  80:Generated_Source\PSoC5/cyfitter_cfg.c **** }
  81:Generated_Source\PSoC5/cyfitter_cfg.c **** CY_CFG_UNUSED
  82:Generated_Source\PSoC5/cyfitter_cfg.c **** static void CYCONFIGCPY(void *dest, const void *src, size_t n);
  83:Generated_Source\PSoC5/cyfitter_cfg.c **** CY_CFG_UNUSED
  84:Generated_Source\PSoC5/cyfitter_cfg.c **** static void CYCONFIGCPY(void *dest, const void *src, size_t n)
  85:Generated_Source\PSoC5/cyfitter_cfg.c **** {
  86:Generated_Source\PSoC5/cyfitter_cfg.c **** 	(void)memcpy(dest, src, n);
  87:Generated_Source\PSoC5/cyfitter_cfg.c **** }
  88:Generated_Source\PSoC5/cyfitter_cfg.c **** CY_CFG_UNUSED
ARM GAS  C:\Users\DGILLI~1\AppData\Local\Temp\ccRNf6Xa.s 			page 3


  89:Generated_Source\PSoC5/cyfitter_cfg.c **** static void CYCONFIGCPYCODE(void *dest, const void *src, size_t n);
  90:Generated_Source\PSoC5/cyfitter_cfg.c **** CY_CFG_UNUSED
  91:Generated_Source\PSoC5/cyfitter_cfg.c **** static void CYCONFIGCPYCODE(void *dest, const void *src, size_t n)
  92:Generated_Source\PSoC5/cyfitter_cfg.c **** {
  93:Generated_Source\PSoC5/cyfitter_cfg.c **** 	(void)memcpy(dest, src, n);
  94:Generated_Source\PSoC5/cyfitter_cfg.c **** }
  95:Generated_Source\PSoC5/cyfitter_cfg.c **** 
  96:Generated_Source\PSoC5/cyfitter_cfg.c **** 
  97:Generated_Source\PSoC5/cyfitter_cfg.c **** 
  98:Generated_Source\PSoC5/cyfitter_cfg.c **** 
  99:Generated_Source\PSoC5/cyfitter_cfg.c **** /* Clock startup error codes                                                   */
 100:Generated_Source\PSoC5/cyfitter_cfg.c **** #define CYCLOCKSTART_NO_ERROR    0u
 101:Generated_Source\PSoC5/cyfitter_cfg.c **** #define CYCLOCKSTART_XTAL_ERROR  1u
 102:Generated_Source\PSoC5/cyfitter_cfg.c **** #define CYCLOCKSTART_32KHZ_ERROR 2u
 103:Generated_Source\PSoC5/cyfitter_cfg.c **** #define CYCLOCKSTART_PLL_ERROR   3u
 104:Generated_Source\PSoC5/cyfitter_cfg.c **** #define CYCLOCKSTART_FLL_ERROR   4u
 105:Generated_Source\PSoC5/cyfitter_cfg.c **** #define CYCLOCKSTART_WCO_ERROR   5u
 106:Generated_Source\PSoC5/cyfitter_cfg.c **** 
 107:Generated_Source\PSoC5/cyfitter_cfg.c **** 
 108:Generated_Source\PSoC5/cyfitter_cfg.c **** #ifdef CY_NEED_CYCLOCKSTARTUPERROR
 109:Generated_Source\PSoC5/cyfitter_cfg.c **** /*******************************************************************************
 110:Generated_Source\PSoC5/cyfitter_cfg.c **** * Function Name: CyClockStartupError
 111:Generated_Source\PSoC5/cyfitter_cfg.c **** ********************************************************************************
 112:Generated_Source\PSoC5/cyfitter_cfg.c **** * Summary:
 113:Generated_Source\PSoC5/cyfitter_cfg.c **** *  If an error is encountered during clock configuration (crystal startup error,
 114:Generated_Source\PSoC5/cyfitter_cfg.c **** *  PLL lock error, etc.), the system will end up here.  Unless reimplemented by
 115:Generated_Source\PSoC5/cyfitter_cfg.c **** *  the customer, this function will stop in an infinite loop.
 116:Generated_Source\PSoC5/cyfitter_cfg.c **** *
 117:Generated_Source\PSoC5/cyfitter_cfg.c **** * Parameters:
 118:Generated_Source\PSoC5/cyfitter_cfg.c **** *   void
 119:Generated_Source\PSoC5/cyfitter_cfg.c **** *
 120:Generated_Source\PSoC5/cyfitter_cfg.c **** * Return:
 121:Generated_Source\PSoC5/cyfitter_cfg.c **** *   void
 122:Generated_Source\PSoC5/cyfitter_cfg.c **** *
 123:Generated_Source\PSoC5/cyfitter_cfg.c **** *******************************************************************************/
 124:Generated_Source\PSoC5/cyfitter_cfg.c **** CY_CFG_UNUSED
 125:Generated_Source\PSoC5/cyfitter_cfg.c **** static void CyClockStartupError(uint8 errorCode);
 126:Generated_Source\PSoC5/cyfitter_cfg.c **** CY_CFG_UNUSED
 127:Generated_Source\PSoC5/cyfitter_cfg.c **** static void CyClockStartupError(uint8 errorCode)
 128:Generated_Source\PSoC5/cyfitter_cfg.c **** {
  27              		.loc 1 128 0
  28              		.cfi_startproc
  29              		@ Volatile: function does not return.
  30              		@ args = 0, pretend = 0, frame = 0
  31              		@ frame_needed = 0, uses_anonymous_args = 0
  32              		@ link register save eliminated.
  33              	.LVL0:
  34              	.L2:
  35 0000 FEE7     		b	.L2
  36              		.cfi_endproc
  37              	.LFE3:
  38              		.size	CyClockStartupError, .-CyClockStartupError
  39 0002 00BF     		.section	.text.cfg_write_bytes32,"ax",%progbits
  40              		.align	2
  41              		.thumb
  42              		.thumb_func
  43              		.type	cfg_write_bytes32, %function
ARM GAS  C:\Users\DGILLI~1\AppData\Local\Temp\ccRNf6Xa.s 			page 4


  44              	cfg_write_bytes32:
  45              	.LFB4:
 129:Generated_Source\PSoC5/cyfitter_cfg.c ****     /* To remove the compiler warning if errorCode not used.                */
 130:Generated_Source\PSoC5/cyfitter_cfg.c ****     errorCode = errorCode;
 131:Generated_Source\PSoC5/cyfitter_cfg.c **** 
 132:Generated_Source\PSoC5/cyfitter_cfg.c ****     /* If we have a clock startup error (bad MHz crystal, PLL lock, etc.),  */
 133:Generated_Source\PSoC5/cyfitter_cfg.c ****     /* we will end up here to allow the customer to implement something to  */
 134:Generated_Source\PSoC5/cyfitter_cfg.c ****     /* deal with the clock condition.                                       */
 135:Generated_Source\PSoC5/cyfitter_cfg.c **** 
 136:Generated_Source\PSoC5/cyfitter_cfg.c **** #ifdef CY_CFG_CLOCK_STARTUP_ERROR_CALLBACK
 137:Generated_Source\PSoC5/cyfitter_cfg.c ****     CY_CFG_Clock_Startup_ErrorCallback();
 138:Generated_Source\PSoC5/cyfitter_cfg.c **** #else
 139:Generated_Source\PSoC5/cyfitter_cfg.c ****     /*  If not using CY_CFG_CLOCK_STARTUP_ERROR_CALLBACK, place your clock startup code here. */
 140:Generated_Source\PSoC5/cyfitter_cfg.c ****     /* `#START CyClockStartupError` */
 141:Generated_Source\PSoC5/cyfitter_cfg.c **** 
 142:Generated_Source\PSoC5/cyfitter_cfg.c **** 
 143:Generated_Source\PSoC5/cyfitter_cfg.c **** 
 144:Generated_Source\PSoC5/cyfitter_cfg.c ****     /* `#END` */
 145:Generated_Source\PSoC5/cyfitter_cfg.c **** 
 146:Generated_Source\PSoC5/cyfitter_cfg.c ****     while(1) {}
 147:Generated_Source\PSoC5/cyfitter_cfg.c **** #endif /* CY_CFG_CLOCK_STARTUP_ERROR_CALLBACK */
 148:Generated_Source\PSoC5/cyfitter_cfg.c **** }
 149:Generated_Source\PSoC5/cyfitter_cfg.c **** #endif
 150:Generated_Source\PSoC5/cyfitter_cfg.c **** 
 151:Generated_Source\PSoC5/cyfitter_cfg.c **** #define CY_CFG_BASE_ADDR_COUNT 34u
 152:Generated_Source\PSoC5/cyfitter_cfg.c **** CYPACKED typedef struct
 153:Generated_Source\PSoC5/cyfitter_cfg.c **** {
 154:Generated_Source\PSoC5/cyfitter_cfg.c **** 	uint8 offset;
 155:Generated_Source\PSoC5/cyfitter_cfg.c **** 	uint8 value;
 156:Generated_Source\PSoC5/cyfitter_cfg.c **** } CYPACKED_ATTR cy_cfg_addrvalue_t;
 157:Generated_Source\PSoC5/cyfitter_cfg.c **** 
 158:Generated_Source\PSoC5/cyfitter_cfg.c **** #define cy_cfg_addr_table ((const uint32 CYFAR *)0x48000000u)
 159:Generated_Source\PSoC5/cyfitter_cfg.c **** #define cy_cfg_data_table ((const cy_cfg_addrvalue_t CYFAR *)0x48000088u)
 160:Generated_Source\PSoC5/cyfitter_cfg.c **** 
 161:Generated_Source\PSoC5/cyfitter_cfg.c **** /* IOPORT_4 Address: CYDEV_PRTDSI_PRT4_BASE Size (bytes): 7 */
 162:Generated_Source\PSoC5/cyfitter_cfg.c **** #define BS_IOPORT_4_VAL ((const uint8 CYFAR *)0x4800076Cu)
 163:Generated_Source\PSoC5/cyfitter_cfg.c **** 
 164:Generated_Source\PSoC5/cyfitter_cfg.c **** /* IOPORT_5 Address: CYDEV_PRTDSI_PRT5_BASE Size (bytes): 7 */
 165:Generated_Source\PSoC5/cyfitter_cfg.c **** #define BS_IOPORT_5_VAL ((const uint8 CYFAR *)0x48000774u)
 166:Generated_Source\PSoC5/cyfitter_cfg.c **** 
 167:Generated_Source\PSoC5/cyfitter_cfg.c **** /* IOPINS0_0 Address: CYREG_PRT0_DM0 Size (bytes): 8 */
 168:Generated_Source\PSoC5/cyfitter_cfg.c **** #define BS_IOPINS0_0_VAL ((const uint8 CYFAR *)0x4800077Cu)
 169:Generated_Source\PSoC5/cyfitter_cfg.c **** 
 170:Generated_Source\PSoC5/cyfitter_cfg.c **** /* IOPINS0_7 Address: CYREG_PRT12_DR Size (bytes): 10 */
 171:Generated_Source\PSoC5/cyfitter_cfg.c **** #define BS_IOPINS0_7_VAL ((const uint8 CYFAR *)0x48000784u)
 172:Generated_Source\PSoC5/cyfitter_cfg.c **** 
 173:Generated_Source\PSoC5/cyfitter_cfg.c **** /* IOPINS0_8 Address: CYREG_PRT15_DR Size (bytes): 10 */
 174:Generated_Source\PSoC5/cyfitter_cfg.c **** #define BS_IOPINS0_8_VAL ((const uint8 CYFAR *)0x48000790u)
 175:Generated_Source\PSoC5/cyfitter_cfg.c **** 
 176:Generated_Source\PSoC5/cyfitter_cfg.c **** /* IOPINS0_1 Address: CYREG_PRT1_DM0 Size (bytes): 8 */
 177:Generated_Source\PSoC5/cyfitter_cfg.c **** #define BS_IOPINS0_1_VAL ((const uint8 CYFAR *)0x4800079Cu)
 178:Generated_Source\PSoC5/cyfitter_cfg.c **** 
 179:Generated_Source\PSoC5/cyfitter_cfg.c **** /* IOPINS0_2 Address: CYREG_PRT2_DM0 Size (bytes): 8 */
 180:Generated_Source\PSoC5/cyfitter_cfg.c **** #define BS_IOPINS0_2_VAL ((const uint8 CYFAR *)0x480007A4u)
 181:Generated_Source\PSoC5/cyfitter_cfg.c **** 
 182:Generated_Source\PSoC5/cyfitter_cfg.c **** /* IOPINS0_3 Address: CYREG_PRT3_DR Size (bytes): 10 */
 183:Generated_Source\PSoC5/cyfitter_cfg.c **** #define BS_IOPINS0_3_VAL ((const uint8 CYFAR *)0x480007ACu)
ARM GAS  C:\Users\DGILLI~1\AppData\Local\Temp\ccRNf6Xa.s 			page 5


 184:Generated_Source\PSoC5/cyfitter_cfg.c **** 
 185:Generated_Source\PSoC5/cyfitter_cfg.c **** /* IOPINS0_4 Address: CYREG_PRT4_DM0 Size (bytes): 8 */
 186:Generated_Source\PSoC5/cyfitter_cfg.c **** #define BS_IOPINS0_4_VAL ((const uint8 CYFAR *)0x480007B8u)
 187:Generated_Source\PSoC5/cyfitter_cfg.c **** 
 188:Generated_Source\PSoC5/cyfitter_cfg.c **** /* IOPINS0_5 Address: CYREG_PRT5_DR Size (bytes): 10 */
 189:Generated_Source\PSoC5/cyfitter_cfg.c **** #define BS_IOPINS0_5_VAL ((const uint8 CYFAR *)0x480007C0u)
 190:Generated_Source\PSoC5/cyfitter_cfg.c **** 
 191:Generated_Source\PSoC5/cyfitter_cfg.c **** /* IOPINS0_6 Address: CYREG_PRT6_DR Size (bytes): 10 */
 192:Generated_Source\PSoC5/cyfitter_cfg.c **** #define BS_IOPINS0_6_VAL ((const uint8 CYFAR *)0x480007CCu)
 193:Generated_Source\PSoC5/cyfitter_cfg.c **** 
 194:Generated_Source\PSoC5/cyfitter_cfg.c **** 
 195:Generated_Source\PSoC5/cyfitter_cfg.c **** /*******************************************************************************
 196:Generated_Source\PSoC5/cyfitter_cfg.c **** * Function Name: cfg_write_bytes32
 197:Generated_Source\PSoC5/cyfitter_cfg.c **** ********************************************************************************
 198:Generated_Source\PSoC5/cyfitter_cfg.c **** * Summary:
 199:Generated_Source\PSoC5/cyfitter_cfg.c **** *  This function is used for setting up the chip configuration areas that
 200:Generated_Source\PSoC5/cyfitter_cfg.c **** *  contain relatively sparse data.
 201:Generated_Source\PSoC5/cyfitter_cfg.c **** *
 202:Generated_Source\PSoC5/cyfitter_cfg.c **** * Parameters:
 203:Generated_Source\PSoC5/cyfitter_cfg.c **** *   void
 204:Generated_Source\PSoC5/cyfitter_cfg.c **** *
 205:Generated_Source\PSoC5/cyfitter_cfg.c **** * Return:
 206:Generated_Source\PSoC5/cyfitter_cfg.c **** *   void
 207:Generated_Source\PSoC5/cyfitter_cfg.c **** *
 208:Generated_Source\PSoC5/cyfitter_cfg.c **** *******************************************************************************/
 209:Generated_Source\PSoC5/cyfitter_cfg.c **** static void cfg_write_bytes32(const uint32 addr_table[], const cy_cfg_addrvalue_t data_table[]);
 210:Generated_Source\PSoC5/cyfitter_cfg.c **** static void cfg_write_bytes32(const uint32 addr_table[], const cy_cfg_addrvalue_t data_table[])
 211:Generated_Source\PSoC5/cyfitter_cfg.c **** {
  46              		.loc 1 211 0
  47              		.cfi_startproc
  48              		@ args = 0, pretend = 0, frame = 0
  49              		@ frame_needed = 0, uses_anonymous_args = 0
  50              		@ link register save eliminated.
  51              	.LVL1:
  52              		.loc 1 211 0
  53 0000 F0B4     		push	{r4, r5, r6, r7}
  54              		.cfi_def_cfa_offset 16
  55              		.cfi_offset 4, -16
  56              		.cfi_offset 5, -12
  57              		.cfi_offset 6, -8
  58              		.cfi_offset 7, -4
  59              	.LVL2:
 212:Generated_Source\PSoC5/cyfitter_cfg.c **** 	/* For 32-bit little-endian architectures */
 213:Generated_Source\PSoC5/cyfitter_cfg.c **** 	uint32 i, j = 0u;
  60              		.loc 1 213 0
  61 0002 0022     		movs	r2, #0
 214:Generated_Source\PSoC5/cyfitter_cfg.c **** 	for (i = 0u; i < CY_CFG_BASE_ADDR_COUNT; i++)
  62              		.loc 1 214 0
  63 0004 1746     		mov	r7, r2
  64 0006 11E0     		b	.L4
  65              	.LVL3:
  66              	.L7:
  67              	.LBB2:
 215:Generated_Source\PSoC5/cyfitter_cfg.c **** 	{
 216:Generated_Source\PSoC5/cyfitter_cfg.c **** 		uint32 baseAddr = addr_table[i];
  68              		.loc 1 216 0
  69 0008 50F82760 		ldr	r6, [r0, r7, lsl #2]
ARM GAS  C:\Users\DGILLI~1\AppData\Local\Temp\ccRNf6Xa.s 			page 6


  70              	.LVL4:
 217:Generated_Source\PSoC5/cyfitter_cfg.c **** 		uint8 count = (uint8)baseAddr;
  71              		.loc 1 217 0
  72 000c F3B2     		uxtb	r3, r6
  73              	.LVL5:
 218:Generated_Source\PSoC5/cyfitter_cfg.c **** 		baseAddr &= 0xFFFFFF00u;
  74              		.loc 1 218 0
  75 000e 26F0FF06 		bic	r6, r6, #255
  76              	.LVL6:
 219:Generated_Source\PSoC5/cyfitter_cfg.c **** 		while (count != 0u)
  77              		.loc 1 219 0
  78 0012 08E0     		b	.L5
  79              	.L6:
 220:Generated_Source\PSoC5/cyfitter_cfg.c **** 		{
 221:Generated_Source\PSoC5/cyfitter_cfg.c **** 			CY_SET_REG8((void *)(baseAddr + data_table[j].offset), data_table[j].value);
  80              		.loc 1 221 0
  81 0014 01EB4205 		add	r5, r1, r2, lsl #1
  82 0018 11F81240 		ldrb	r4, [r1, r2, lsl #1]	@ zero_extendqisi2
  83 001c 6D78     		ldrb	r5, [r5, #1]	@ zero_extendqisi2
  84 001e A555     		strb	r5, [r4, r6]
 222:Generated_Source\PSoC5/cyfitter_cfg.c **** 			j++;
  85              		.loc 1 222 0
  86 0020 0132     		adds	r2, r2, #1
  87              	.LVL7:
 223:Generated_Source\PSoC5/cyfitter_cfg.c **** 			count--;
  88              		.loc 1 223 0
  89 0022 013B     		subs	r3, r3, #1
  90              	.LVL8:
  91 0024 DBB2     		uxtb	r3, r3
  92              	.LVL9:
  93              	.L5:
 219:Generated_Source\PSoC5/cyfitter_cfg.c **** 		{
  94              		.loc 1 219 0
  95 0026 002B     		cmp	r3, #0
  96 0028 F4D1     		bne	.L6
  97              	.LBE2:
 214:Generated_Source\PSoC5/cyfitter_cfg.c **** 	{
  98              		.loc 1 214 0 discriminator 2
  99 002a 0137     		adds	r7, r7, #1
 100              	.LVL10:
 101              	.L4:
 214:Generated_Source\PSoC5/cyfitter_cfg.c **** 	{
 102              		.loc 1 214 0 is_stmt 0 discriminator 1
 103 002c 212F     		cmp	r7, #33
 104 002e EBD9     		bls	.L7
 224:Generated_Source\PSoC5/cyfitter_cfg.c **** 		}
 225:Generated_Source\PSoC5/cyfitter_cfg.c **** 	}
 226:Generated_Source\PSoC5/cyfitter_cfg.c **** }
 105              		.loc 1 226 0 is_stmt 1
 106 0030 F0BC     		pop	{r4, r5, r6, r7}
 107              		.cfi_restore 7
 108              		.cfi_restore 6
 109              		.cfi_restore 5
 110              		.cfi_restore 4
 111              		.cfi_def_cfa_offset 0
 112              	.LVL11:
 113 0032 7047     		bx	lr
ARM GAS  C:\Users\DGILLI~1\AppData\Local\Temp\ccRNf6Xa.s 			page 7


 114              		.cfi_endproc
 115              	.LFE4:
 116              		.size	cfg_write_bytes32, .-cfg_write_bytes32
 117              		.section	.text.AnalogSetDefault,"ax",%progbits
 118              		.align	2
 119              		.thumb
 120              		.thumb_func
 121              		.type	AnalogSetDefault, %function
 122              	AnalogSetDefault:
 123              	.LFB6:
 227:Generated_Source\PSoC5/cyfitter_cfg.c **** 
 228:Generated_Source\PSoC5/cyfitter_cfg.c **** /*******************************************************************************
 229:Generated_Source\PSoC5/cyfitter_cfg.c **** * Function Name: ClockSetup
 230:Generated_Source\PSoC5/cyfitter_cfg.c **** ********************************************************************************
 231:Generated_Source\PSoC5/cyfitter_cfg.c **** *
 232:Generated_Source\PSoC5/cyfitter_cfg.c **** * Summary:
 233:Generated_Source\PSoC5/cyfitter_cfg.c **** *  Performs the initialization of all of the clocks in the device based on the
 234:Generated_Source\PSoC5/cyfitter_cfg.c **** *  settings in the Clock tab of the DWR.  This includes enabling the requested
 235:Generated_Source\PSoC5/cyfitter_cfg.c **** *  clocks and setting the necessary dividers to produce the desired frequency. 
 236:Generated_Source\PSoC5/cyfitter_cfg.c **** *
 237:Generated_Source\PSoC5/cyfitter_cfg.c **** * Parameters:
 238:Generated_Source\PSoC5/cyfitter_cfg.c **** *  void
 239:Generated_Source\PSoC5/cyfitter_cfg.c **** *
 240:Generated_Source\PSoC5/cyfitter_cfg.c **** * Return:
 241:Generated_Source\PSoC5/cyfitter_cfg.c **** *  void
 242:Generated_Source\PSoC5/cyfitter_cfg.c **** *
 243:Generated_Source\PSoC5/cyfitter_cfg.c **** *******************************************************************************/
 244:Generated_Source\PSoC5/cyfitter_cfg.c **** static void ClockSetup(void);
 245:Generated_Source\PSoC5/cyfitter_cfg.c **** static void ClockSetup(void)
 246:Generated_Source\PSoC5/cyfitter_cfg.c **** {
 247:Generated_Source\PSoC5/cyfitter_cfg.c **** 	uint8 x32TrHold;
 248:Generated_Source\PSoC5/cyfitter_cfg.c **** 	uint32 timeout;
 249:Generated_Source\PSoC5/cyfitter_cfg.c **** 	uint8 pllLock;
 250:Generated_Source\PSoC5/cyfitter_cfg.c **** 
 251:Generated_Source\PSoC5/cyfitter_cfg.c **** 	x32TrHold = CY_GET_XTND_REG8((void CYFAR *)CYREG_X32_TR);
 252:Generated_Source\PSoC5/cyfitter_cfg.c **** 
 253:Generated_Source\PSoC5/cyfitter_cfg.c **** 	/* Configure Digital Clocks based on settings from Clock DWR */
 254:Generated_Source\PSoC5/cyfitter_cfg.c **** 	CY_SET_XTND_REG16((void CYFAR *)(CYREG_CLKDIST_DCFG0_CFG0), 0x0000u);
 255:Generated_Source\PSoC5/cyfitter_cfg.c **** 	CY_SET_XTND_REG8((void CYFAR *)(CYREG_CLKDIST_DCFG0_CFG0 + 0x2u), 0x58u);
 256:Generated_Source\PSoC5/cyfitter_cfg.c **** 	CY_SET_XTND_REG16((void CYFAR *)(CYREG_CLKDIST_DCFG1_CFG0), 0x0009u);
 257:Generated_Source\PSoC5/cyfitter_cfg.c **** 	CY_SET_XTND_REG8((void CYFAR *)(CYREG_CLKDIST_DCFG1_CFG0 + 0x2u), 0x18u);
 258:Generated_Source\PSoC5/cyfitter_cfg.c **** 	CY_SET_XTND_REG16((void CYFAR *)(CYREG_CLKDIST_DCFG2_CFG0), 0x0095u);
 259:Generated_Source\PSoC5/cyfitter_cfg.c **** 	CY_SET_XTND_REG8((void CYFAR *)(CYREG_CLKDIST_DCFG2_CFG0 + 0x2u), 0x18u);
 260:Generated_Source\PSoC5/cyfitter_cfg.c **** 
 261:Generated_Source\PSoC5/cyfitter_cfg.c **** 	/* Configure ILO based on settings from Clock DWR */
 262:Generated_Source\PSoC5/cyfitter_cfg.c **** 	CY_SET_XTND_REG8((void CYFAR *)(CYREG_SLOWCLK_ILO_CR0), 0x06u);
 263:Generated_Source\PSoC5/cyfitter_cfg.c **** 
 264:Generated_Source\PSoC5/cyfitter_cfg.c **** 	/* Configure XTAL 32kHz based on settings from Clock DWR */
 265:Generated_Source\PSoC5/cyfitter_cfg.c **** 	CY_SET_XTND_REG8((void CYFAR *)(CYREG_SLOWCLK_X32_TST), 0xF3u);
 266:Generated_Source\PSoC5/cyfitter_cfg.c **** 	CY_SET_XTND_REG8((void CYFAR *)(CYREG_X32_TR), 0x03u);
 267:Generated_Source\PSoC5/cyfitter_cfg.c **** 	CY_SET_XTND_REG8((void CYFAR *)(CYREG_SLOWCLK_X32_CFG), 0x84u);
 268:Generated_Source\PSoC5/cyfitter_cfg.c **** 	CY_SET_XTND_REG8((void CYFAR *)(CYREG_SLOWCLK_X32_CR), 0x05u);
 269:Generated_Source\PSoC5/cyfitter_cfg.c **** 	/* Wait up to 1000000us for the XTAL 32kHz to lock */
 270:Generated_Source\PSoC5/cyfitter_cfg.c **** 	for (timeout = 1000000u / 10u; (timeout > 0u) && ((CY_GET_XTND_REG8((void CYFAR *)CYREG_SLOWCLK_X3
 271:Generated_Source\PSoC5/cyfitter_cfg.c **** 	{ 
 272:Generated_Source\PSoC5/cyfitter_cfg.c **** 		
 273:Generated_Source\PSoC5/cyfitter_cfg.c **** 		CyDelayCycles(10u * 48u); /* Delay 10us based on 48MHz clock */
ARM GAS  C:\Users\DGILLI~1\AppData\Local\Temp\ccRNf6Xa.s 			page 8


 274:Generated_Source\PSoC5/cyfitter_cfg.c **** 	}
 275:Generated_Source\PSoC5/cyfitter_cfg.c **** 	CY_SET_XTND_REG8((void CYFAR *)(CYREG_X32_TR), (x32TrHold));
 276:Generated_Source\PSoC5/cyfitter_cfg.c **** 
 277:Generated_Source\PSoC5/cyfitter_cfg.c **** 	/* Configure IMO based on settings from Clock DWR */
 278:Generated_Source\PSoC5/cyfitter_cfg.c **** 	CY_SET_XTND_REG8((void CYFAR *)(CYREG_FASTCLK_IMO_CR), 0x52u);
 279:Generated_Source\PSoC5/cyfitter_cfg.c **** 	CY_SET_XTND_REG8((void CYFAR *)(CYREG_IMO_TR1), (CY_GET_XTND_REG8((void CYFAR *)CYREG_FLSHID_CUST_
 280:Generated_Source\PSoC5/cyfitter_cfg.c **** 
 281:Generated_Source\PSoC5/cyfitter_cfg.c **** 	/* Configure PLL based on settings from Clock DWR */
 282:Generated_Source\PSoC5/cyfitter_cfg.c **** 	CY_SET_XTND_REG16((void CYFAR *)(CYREG_FASTCLK_PLL_P), 0x0714u);
 283:Generated_Source\PSoC5/cyfitter_cfg.c **** 	CY_SET_XTND_REG16((void CYFAR *)(CYREG_FASTCLK_PLL_CFG0), 0x1251u);
 284:Generated_Source\PSoC5/cyfitter_cfg.c **** 	/* Wait up to 250us for the PLL to lock */
 285:Generated_Source\PSoC5/cyfitter_cfg.c **** 	pllLock = 0u;
 286:Generated_Source\PSoC5/cyfitter_cfg.c **** 	for (timeout = 250u / 10u; (timeout > 0u) && (pllLock != 0x03u); timeout--)
 287:Generated_Source\PSoC5/cyfitter_cfg.c **** 	{ 
 288:Generated_Source\PSoC5/cyfitter_cfg.c **** 		pllLock = 0x03u & ((uint8)((uint8)pllLock << 1) | ((CY_GET_XTND_REG8((void CYFAR *)CYREG_FASTCLK_
 289:Generated_Source\PSoC5/cyfitter_cfg.c **** 		CyDelayCycles(10u * 48u); /* Delay 10us based on 48MHz clock */
 290:Generated_Source\PSoC5/cyfitter_cfg.c **** 	}
 291:Generated_Source\PSoC5/cyfitter_cfg.c **** 	/* If we ran out of time the PLL didn't lock so go to the error function */
 292:Generated_Source\PSoC5/cyfitter_cfg.c **** 	if (timeout == 0u)
 293:Generated_Source\PSoC5/cyfitter_cfg.c **** 	{
 294:Generated_Source\PSoC5/cyfitter_cfg.c **** 		CyClockStartupError(CYCLOCKSTART_PLL_ERROR);
 295:Generated_Source\PSoC5/cyfitter_cfg.c **** 	}
 296:Generated_Source\PSoC5/cyfitter_cfg.c **** 
 297:Generated_Source\PSoC5/cyfitter_cfg.c **** 	/* Configure Bus/Master Clock based on settings from Clock DWR */
 298:Generated_Source\PSoC5/cyfitter_cfg.c **** 	CY_SET_XTND_REG16((void CYFAR *)(CYREG_CLKDIST_MSTR0), 0x0100u);
 299:Generated_Source\PSoC5/cyfitter_cfg.c **** 	CY_SET_XTND_REG8((void CYFAR *)(CYREG_CLKDIST_MSTR0), 0x07u);
 300:Generated_Source\PSoC5/cyfitter_cfg.c **** 	CY_SET_XTND_REG8((void CYFAR *)(CYREG_CLKDIST_BCFG0), 0x00u);
 301:Generated_Source\PSoC5/cyfitter_cfg.c **** 	CY_SET_XTND_REG8((void CYFAR *)(CYREG_CLKDIST_BCFG2), 0x48u);
 302:Generated_Source\PSoC5/cyfitter_cfg.c **** 	CY_SET_XTND_REG8((void CYFAR *)(CYREG_CLKDIST_MSTR0), 0x00u);
 303:Generated_Source\PSoC5/cyfitter_cfg.c **** 
 304:Generated_Source\PSoC5/cyfitter_cfg.c **** 	/* Configure USB Clock based on settings from Clock DWR */
 305:Generated_Source\PSoC5/cyfitter_cfg.c **** 	CY_SET_XTND_REG8((void CYFAR *)(CYREG_CLKDIST_UCFG), 0x00u);
 306:Generated_Source\PSoC5/cyfitter_cfg.c **** 	CY_SET_XTND_REG8((void CYFAR *)(CYREG_CLKDIST_LD), 0x02u);
 307:Generated_Source\PSoC5/cyfitter_cfg.c **** 
 308:Generated_Source\PSoC5/cyfitter_cfg.c **** 	CY_SET_XTND_REG8((void CYFAR *)(CYREG_PM_ACT_CFG2), ((CY_GET_XTND_REG8((void CYFAR *)CYREG_PM_ACT_
 309:Generated_Source\PSoC5/cyfitter_cfg.c **** }
 310:Generated_Source\PSoC5/cyfitter_cfg.c **** 
 311:Generated_Source\PSoC5/cyfitter_cfg.c **** 
 312:Generated_Source\PSoC5/cyfitter_cfg.c **** /* Analog API Functions */
 313:Generated_Source\PSoC5/cyfitter_cfg.c **** 
 314:Generated_Source\PSoC5/cyfitter_cfg.c **** 
 315:Generated_Source\PSoC5/cyfitter_cfg.c **** /*******************************************************************************
 316:Generated_Source\PSoC5/cyfitter_cfg.c **** * Function Name: AnalogSetDefault
 317:Generated_Source\PSoC5/cyfitter_cfg.c **** ********************************************************************************
 318:Generated_Source\PSoC5/cyfitter_cfg.c **** *
 319:Generated_Source\PSoC5/cyfitter_cfg.c **** * Summary:
 320:Generated_Source\PSoC5/cyfitter_cfg.c **** *  Sets up the analog portions of the chip to default values based on chip
 321:Generated_Source\PSoC5/cyfitter_cfg.c **** *  configuration options from the project.
 322:Generated_Source\PSoC5/cyfitter_cfg.c **** *
 323:Generated_Source\PSoC5/cyfitter_cfg.c **** * Parameters:
 324:Generated_Source\PSoC5/cyfitter_cfg.c **** *  void
 325:Generated_Source\PSoC5/cyfitter_cfg.c **** *
 326:Generated_Source\PSoC5/cyfitter_cfg.c **** * Return:
 327:Generated_Source\PSoC5/cyfitter_cfg.c **** *  void
 328:Generated_Source\PSoC5/cyfitter_cfg.c **** *
 329:Generated_Source\PSoC5/cyfitter_cfg.c **** *******************************************************************************/
 330:Generated_Source\PSoC5/cyfitter_cfg.c **** static void AnalogSetDefault(void);
ARM GAS  C:\Users\DGILLI~1\AppData\Local\Temp\ccRNf6Xa.s 			page 9


 331:Generated_Source\PSoC5/cyfitter_cfg.c **** static void AnalogSetDefault(void)
 332:Generated_Source\PSoC5/cyfitter_cfg.c **** {
 124              		.loc 1 332 0
 125              		.cfi_startproc
 126              		@ args = 0, pretend = 0, frame = 0
 127              		@ frame_needed = 0, uses_anonymous_args = 0
 128              		@ link register save eliminated.
 333:Generated_Source\PSoC5/cyfitter_cfg.c **** 	uint8 bg_xover_inl_trim = CY_GET_XTND_REG8((void CYFAR *)(CYREG_FLSHID_MFG_CFG_BG_XOVER_INL_TRIM +
 129              		.loc 1 333 0
 130 0000 0A4B     		ldr	r3, .L10
 131 0002 1B78     		ldrb	r3, [r3]	@ zero_extendqisi2
 132 0004 DBB2     		uxtb	r3, r3
 133              	.LVL12:
 334:Generated_Source\PSoC5/cyfitter_cfg.c **** 	CY_SET_XTND_REG8((void CYFAR *)(CYREG_BG_DFT0), (bg_xover_inl_trim & 0x07u));
 134              		.loc 1 334 0
 135 0006 03F00701 		and	r1, r3, #7
 136 000a 094A     		ldr	r2, .L10+4
 137 000c 1170     		strb	r1, [r2]
 335:Generated_Source\PSoC5/cyfitter_cfg.c **** 	CY_SET_XTND_REG8((void CYFAR *)(CYREG_BG_DFT1), ((bg_xover_inl_trim >> 4) & 0x0Fu));
 138              		.loc 1 335 0
 139 000e 1B09     		lsrs	r3, r3, #4
 140              	.LVL13:
 141 0010 0132     		adds	r2, r2, #1
 142 0012 1370     		strb	r3, [r2]
 336:Generated_Source\PSoC5/cyfitter_cfg.c **** 	CY_SET_XTND_REG8((void CYFAR *)CYREG_PRT15_AG, 0x20u);
 143              		.loc 1 336 0
 144 0014 2022     		movs	r2, #32
 145 0016 074B     		ldr	r3, .L10+8
 146 0018 1A70     		strb	r2, [r3]
 337:Generated_Source\PSoC5/cyfitter_cfg.c **** 	CY_SET_XTND_REG8((void CYFAR *)CYREG_DAC0_SW0, 0x02u);
 147              		.loc 1 337 0
 148 001a 0222     		movs	r2, #2
 149 001c 03F68303 		addw	r3, r3, #2179
 150 0020 1A70     		strb	r2, [r3]
 338:Generated_Source\PSoC5/cyfitter_cfg.c **** 	CY_SET_XTND_REG8((void CYFAR *)CYREG_PUMP_CR0, 0x44u);
 151              		.loc 1 338 0
 152 0022 4422     		movs	r2, #68
 153 0024 A3F20A23 		subw	r3, r3, #522
 154 0028 1A70     		strb	r2, [r3]
 155 002a 7047     		bx	lr
 156              	.L11:
 157              		.align	2
 158              	.L10:
 159 002c CF010049 		.word	1224737231
 160 0030 6E580040 		.word	1073764462
 161 0034 FD510040 		.word	1073762813
 162              		.cfi_endproc
 163              	.LFE6:
 164              		.size	AnalogSetDefault, .-AnalogSetDefault
 165              		.section	.text.CYMEMZERO,"ax",%progbits
 166              		.align	2
 167              		.thumb
 168              		.thumb_func
 169              		.type	CYMEMZERO, %function
 170              	CYMEMZERO:
 171              	.LFB0:
  78:Generated_Source\PSoC5/cyfitter_cfg.c **** 	(void)memset(s, 0, n);
ARM GAS  C:\Users\DGILLI~1\AppData\Local\Temp\ccRNf6Xa.s 			page 10


 172              		.loc 1 78 0
 173              		.cfi_startproc
 174              		@ args = 0, pretend = 0, frame = 0
 175              		@ frame_needed = 0, uses_anonymous_args = 0
 176              	.LVL14:
 177 0000 08B5     		push	{r3, lr}
 178              		.cfi_def_cfa_offset 8
 179              		.cfi_offset 3, -8
 180              		.cfi_offset 14, -4
  79:Generated_Source\PSoC5/cyfitter_cfg.c **** }
 181              		.loc 1 79 0
 182 0002 0A46     		mov	r2, r1
 183 0004 0021     		movs	r1, #0
 184              	.LVL15:
 185 0006 FFF7FEFF 		bl	memset
 186              	.LVL16:
 187 000a 08BD     		pop	{r3, pc}
 188              		.cfi_endproc
 189              	.LFE0:
 190              		.size	CYMEMZERO, .-CYMEMZERO
 191              		.section	.text.ClockSetup,"ax",%progbits
 192              		.align	2
 193              		.thumb
 194              		.thumb_func
 195              		.type	ClockSetup, %function
 196              	ClockSetup:
 197              	.LFB5:
 246:Generated_Source\PSoC5/cyfitter_cfg.c **** 	uint8 x32TrHold;
 198              		.loc 1 246 0
 199              		.cfi_startproc
 200              		@ args = 0, pretend = 0, frame = 0
 201              		@ frame_needed = 0, uses_anonymous_args = 0
 202 0000 38B5     		push	{r3, r4, r5, lr}
 203              		.cfi_def_cfa_offset 16
 204              		.cfi_offset 3, -16
 205              		.cfi_offset 4, -12
 206              		.cfi_offset 5, -8
 207              		.cfi_offset 14, -4
 251:Generated_Source\PSoC5/cyfitter_cfg.c **** 
 208              		.loc 1 251 0
 209 0002 394B     		ldr	r3, .L23
 210 0004 1D78     		ldrb	r5, [r3]	@ zero_extendqisi2
 211 0006 EDB2     		uxtb	r5, r5
 212              	.LVL17:
 254:Generated_Source\PSoC5/cyfitter_cfg.c **** 	CY_SET_XTND_REG8((void CYFAR *)(CYREG_CLKDIST_DCFG0_CFG0 + 0x2u), 0x58u);
 213              		.loc 1 254 0
 214 0008 0021     		movs	r1, #0
 215 000a 384A     		ldr	r2, .L23+4
 216 000c 1180     		strh	r1, [r2]	@ movhi
 255:Generated_Source\PSoC5/cyfitter_cfg.c **** 	CY_SET_XTND_REG16((void CYFAR *)(CYREG_CLKDIST_DCFG1_CFG0), 0x0009u);
 217              		.loc 1 255 0
 218 000e 5821     		movs	r1, #88
 219 0010 0232     		adds	r2, r2, #2
 220 0012 1170     		strb	r1, [r2]
 256:Generated_Source\PSoC5/cyfitter_cfg.c **** 	CY_SET_XTND_REG8((void CYFAR *)(CYREG_CLKDIST_DCFG1_CFG0 + 0x2u), 0x18u);
 221              		.loc 1 256 0
 222 0014 0921     		movs	r1, #9
ARM GAS  C:\Users\DGILLI~1\AppData\Local\Temp\ccRNf6Xa.s 			page 11


 223 0016 0232     		adds	r2, r2, #2
 224 0018 1180     		strh	r1, [r2]	@ movhi
 257:Generated_Source\PSoC5/cyfitter_cfg.c **** 	CY_SET_XTND_REG16((void CYFAR *)(CYREG_CLKDIST_DCFG2_CFG0), 0x0095u);
 225              		.loc 1 257 0
 226 001a 1822     		movs	r2, #24
 227 001c 3449     		ldr	r1, .L23+8
 228 001e 0A70     		strb	r2, [r1]
 258:Generated_Source\PSoC5/cyfitter_cfg.c **** 	CY_SET_XTND_REG8((void CYFAR *)(CYREG_CLKDIST_DCFG2_CFG0 + 0x2u), 0x18u);
 229              		.loc 1 258 0
 230 0020 9520     		movs	r0, #149
 231 0022 0231     		adds	r1, r1, #2
 232 0024 0880     		strh	r0, [r1]	@ movhi
 259:Generated_Source\PSoC5/cyfitter_cfg.c **** 
 233              		.loc 1 259 0
 234 0026 0231     		adds	r1, r1, #2
 235 0028 0A70     		strb	r2, [r1]
 262:Generated_Source\PSoC5/cyfitter_cfg.c **** 
 236              		.loc 1 262 0
 237 002a 0621     		movs	r1, #6
 238 002c 314A     		ldr	r2, .L23+12
 239 002e 1170     		strb	r1, [r2]
 265:Generated_Source\PSoC5/cyfitter_cfg.c **** 	CY_SET_XTND_REG8((void CYFAR *)(CYREG_X32_TR), 0x03u);
 240              		.loc 1 265 0
 241 0030 F321     		movs	r1, #243
 242 0032 0A32     		adds	r2, r2, #10
 243 0034 1170     		strb	r1, [r2]
 266:Generated_Source\PSoC5/cyfitter_cfg.c **** 	CY_SET_XTND_REG8((void CYFAR *)(CYREG_SLOWCLK_X32_CFG), 0x84u);
 244              		.loc 1 266 0
 245 0036 0322     		movs	r2, #3
 246 0038 1A70     		strb	r2, [r3]
 267:Generated_Source\PSoC5/cyfitter_cfg.c **** 	CY_SET_XTND_REG8((void CYFAR *)(CYREG_SLOWCLK_X32_CR), 0x05u);
 247              		.loc 1 267 0
 248 003a 8422     		movs	r2, #132
 249 003c A3F28F33 		subw	r3, r3, #911
 250 0040 1A70     		strb	r2, [r3]
 268:Generated_Source\PSoC5/cyfitter_cfg.c **** 	/* Wait up to 1000000us for the XTAL 32kHz to lock */
 251              		.loc 1 268 0
 252 0042 0522     		movs	r2, #5
 253 0044 013B     		subs	r3, r3, #1
 254 0046 1A70     		strb	r2, [r3]
 255              	.LVL18:
 270:Generated_Source\PSoC5/cyfitter_cfg.c **** 	{ 
 256              		.loc 1 270 0
 257 0048 2B4C     		ldr	r4, .L23+16
 258 004a 04E0     		b	.L15
 259              	.LVL19:
 260              	.L17:
 273:Generated_Source\PSoC5/cyfitter_cfg.c **** 	}
 261              		.loc 1 273 0 discriminator 4
 262 004c 4FF4F070 		mov	r0, #480
 263 0050 FFF7FEFF 		bl	CyDelayCycles
 264              	.LVL20:
 270:Generated_Source\PSoC5/cyfitter_cfg.c **** 	{ 
 265              		.loc 1 270 0 discriminator 4
 266 0054 013C     		subs	r4, r4, #1
 267              	.LVL21:
 268              	.L15:
ARM GAS  C:\Users\DGILLI~1\AppData\Local\Temp\ccRNf6Xa.s 			page 12


 270:Generated_Source\PSoC5/cyfitter_cfg.c **** 	{ 
 269              		.loc 1 270 0 is_stmt 0 discriminator 1
 270 0056 24B1     		cbz	r4, .L16
 270:Generated_Source\PSoC5/cyfitter_cfg.c **** 	{ 
 271              		.loc 1 270 0 discriminator 3
 272 0058 284B     		ldr	r3, .L23+20
 273 005a 1B78     		ldrb	r3, [r3]	@ zero_extendqisi2
 274 005c 13F0200F 		tst	r3, #32
 275 0060 F4D0     		beq	.L17
 276              	.L16:
 275:Generated_Source\PSoC5/cyfitter_cfg.c **** 
 277              		.loc 1 275 0 is_stmt 1
 278 0062 214B     		ldr	r3, .L23
 279 0064 1D70     		strb	r5, [r3]
 278:Generated_Source\PSoC5/cyfitter_cfg.c **** 	CY_SET_XTND_REG8((void CYFAR *)(CYREG_IMO_TR1), (CY_GET_XTND_REG8((void CYFAR *)CYREG_FLSHID_CUST_
 280              		.loc 1 278 0
 281 0066 5222     		movs	r2, #82
 282 0068 A3F59363 		sub	r3, r3, #1176
 283 006c 1A70     		strb	r2, [r3]
 279:Generated_Source\PSoC5/cyfitter_cfg.c **** 
 284              		.loc 1 279 0
 285 006e 244B     		ldr	r3, .L23+24
 286 0070 1B78     		ldrb	r3, [r3]	@ zero_extendqisi2
 287 0072 DBB2     		uxtb	r3, r3
 288 0074 234A     		ldr	r2, .L23+28
 289 0076 1370     		strb	r3, [r2]
 282:Generated_Source\PSoC5/cyfitter_cfg.c **** 	CY_SET_XTND_REG16((void CYFAR *)(CYREG_FASTCLK_PLL_CFG0), 0x1251u);
 290              		.loc 1 282 0
 291 0078 40F21472 		movw	r2, #1812
 292 007c 224B     		ldr	r3, .L23+32
 293 007e 1A80     		strh	r2, [r3]	@ movhi
 283:Generated_Source\PSoC5/cyfitter_cfg.c **** 	/* Wait up to 250us for the PLL to lock */
 294              		.loc 1 283 0
 295 0080 41F25122 		movw	r2, #4689
 296 0084 023B     		subs	r3, r3, #2
 297 0086 1A80     		strh	r2, [r3]	@ movhi
 298              	.LVL22:
 285:Generated_Source\PSoC5/cyfitter_cfg.c **** 	for (timeout = 250u / 10u; (timeout > 0u) && (pllLock != 0x03u); timeout--)
 299              		.loc 1 285 0
 300 0088 0024     		movs	r4, #0
 286:Generated_Source\PSoC5/cyfitter_cfg.c **** 	{ 
 301              		.loc 1 286 0
 302 008a 1925     		movs	r5, #25
 303              	.LVL23:
 304 008c 0CE0     		b	.L18
 305              	.LVL24:
 306              	.L20:
 288:Generated_Source\PSoC5/cyfitter_cfg.c **** 		CyDelayCycles(10u * 48u); /* Delay 10us based on 48MHz clock */
 307              		.loc 1 288 0 discriminator 4
 308 008e 1F4B     		ldr	r3, .L23+36
 309 0090 1B78     		ldrb	r3, [r3]	@ zero_extendqisi2
 310 0092 03F00103 		and	r3, r3, #1
 311 0096 43EA4404 		orr	r4, r3, r4, lsl #1
 312              	.LVL25:
 313 009a 04F00304 		and	r4, r4, #3
 314              	.LVL26:
 289:Generated_Source\PSoC5/cyfitter_cfg.c **** 	}
ARM GAS  C:\Users\DGILLI~1\AppData\Local\Temp\ccRNf6Xa.s 			page 13


 315              		.loc 1 289 0 discriminator 4
 316 009e 4FF4F070 		mov	r0, #480
 317 00a2 FFF7FEFF 		bl	CyDelayCycles
 318              	.LVL27:
 286:Generated_Source\PSoC5/cyfitter_cfg.c **** 	{ 
 319              		.loc 1 286 0 discriminator 4
 320 00a6 013D     		subs	r5, r5, #1
 321              	.LVL28:
 322              	.L18:
 286:Generated_Source\PSoC5/cyfitter_cfg.c **** 	{ 
 323              		.loc 1 286 0 is_stmt 0 discriminator 1
 324 00a8 0DB1     		cbz	r5, .L19
 286:Generated_Source\PSoC5/cyfitter_cfg.c **** 	{ 
 325              		.loc 1 286 0 discriminator 3
 326 00aa 032C     		cmp	r4, #3
 327 00ac EFD1     		bne	.L20
 328              	.L19:
 292:Generated_Source\PSoC5/cyfitter_cfg.c **** 	{
 329              		.loc 1 292 0 is_stmt 1
 330 00ae 15B9     		cbnz	r5, .L21
 294:Generated_Source\PSoC5/cyfitter_cfg.c **** 	}
 331              		.loc 1 294 0
 332 00b0 0320     		movs	r0, #3
 333 00b2 FFF7FEFF 		bl	CyClockStartupError
 334              	.LVL29:
 335              	.L21:
 298:Generated_Source\PSoC5/cyfitter_cfg.c **** 	CY_SET_XTND_REG8((void CYFAR *)(CYREG_CLKDIST_MSTR0), 0x07u);
 336              		.loc 1 298 0
 337 00b6 164A     		ldr	r2, .L23+40
 338 00b8 4FF48073 		mov	r3, #256
 339 00bc 1380     		strh	r3, [r2]	@ movhi
 299:Generated_Source\PSoC5/cyfitter_cfg.c **** 	CY_SET_XTND_REG8((void CYFAR *)(CYREG_CLKDIST_BCFG0), 0x00u);
 340              		.loc 1 299 0
 341 00be 0723     		movs	r3, #7
 342 00c0 1370     		strb	r3, [r2]
 300:Generated_Source\PSoC5/cyfitter_cfg.c **** 	CY_SET_XTND_REG8((void CYFAR *)(CYREG_CLKDIST_BCFG2), 0x48u);
 343              		.loc 1 300 0
 344 00c2 0023     		movs	r3, #0
 345 00c4 1349     		ldr	r1, .L23+44
 346 00c6 0B70     		strb	r3, [r1]
 301:Generated_Source\PSoC5/cyfitter_cfg.c **** 	CY_SET_XTND_REG8((void CYFAR *)(CYREG_CLKDIST_MSTR0), 0x00u);
 347              		.loc 1 301 0
 348 00c8 4820     		movs	r0, #72
 349 00ca 0231     		adds	r1, r1, #2
 350 00cc 0870     		strb	r0, [r1]
 302:Generated_Source\PSoC5/cyfitter_cfg.c **** 
 351              		.loc 1 302 0
 352 00ce 1370     		strb	r3, [r2]
 305:Generated_Source\PSoC5/cyfitter_cfg.c **** 	CY_SET_XTND_REG8((void CYFAR *)(CYREG_CLKDIST_LD), 0x02u);
 353              		.loc 1 305 0
 354 00d0 0532     		adds	r2, r2, #5
 355 00d2 1370     		strb	r3, [r2]
 306:Generated_Source\PSoC5/cyfitter_cfg.c **** 
 356              		.loc 1 306 0
 357 00d4 0222     		movs	r2, #2
 358 00d6 104B     		ldr	r3, .L23+48
 359 00d8 1A70     		strb	r2, [r3]
ARM GAS  C:\Users\DGILLI~1\AppData\Local\Temp\ccRNf6Xa.s 			page 14


 308:Generated_Source\PSoC5/cyfitter_cfg.c **** }
 360              		.loc 1 308 0
 361 00da 104A     		ldr	r2, .L23+52
 362 00dc 1378     		ldrb	r3, [r2]	@ zero_extendqisi2
 363 00de 43F00703 		orr	r3, r3, #7
 364 00e2 1370     		strb	r3, [r2]
 365 00e4 38BD     		pop	{r3, r4, r5, pc}
 366              	.LVL30:
 367              	.L24:
 368 00e6 00BF     		.align	2
 369              	.L23:
 370 00e8 98460040 		.word	1073759896
 371 00ec 80400040 		.word	1073758336
 372 00f0 86400040 		.word	1073758342
 373 00f4 00430040 		.word	1073758976
 374 00f8 A0860100 		.word	100000
 375 00fc 08430040 		.word	1073758984
 376 0100 0F010049 		.word	1224737039
 377 0104 A1460040 		.word	1073759905
 378 0108 22420040 		.word	1073758754
 379 010c 25420040 		.word	1073758757
 380 0110 04400040 		.word	1073758212
 381 0114 06400040 		.word	1073758214
 382 0118 01400040 		.word	1073758209
 383 011c A2430040 		.word	1073759138
 384              		.cfi_endproc
 385              	.LFE5:
 386              		.size	ClockSetup, .-ClockSetup
 387              		.section	.text.CYCONFIGCPY,"ax",%progbits
 388              		.align	2
 389              		.thumb
 390              		.thumb_func
 391              		.type	CYCONFIGCPY, %function
 392              	CYCONFIGCPY:
 393              	.LFB1:
  85:Generated_Source\PSoC5/cyfitter_cfg.c **** 	(void)memcpy(dest, src, n);
 394              		.loc 1 85 0
 395              		.cfi_startproc
 396              		@ args = 0, pretend = 0, frame = 0
 397              		@ frame_needed = 0, uses_anonymous_args = 0
 398              	.LVL31:
 399 0000 08B5     		push	{r3, lr}
 400              		.cfi_def_cfa_offset 8
 401              		.cfi_offset 3, -8
 402              		.cfi_offset 14, -4
  86:Generated_Source\PSoC5/cyfitter_cfg.c **** }
 403              		.loc 1 86 0
 404 0002 FFF7FEFF 		bl	memcpy
 405              	.LVL32:
 406 0006 08BD     		pop	{r3, pc}
 407              		.cfi_endproc
 408              	.LFE1:
 409              		.size	CYCONFIGCPY, .-CYCONFIGCPY
 410              		.section	.text.SetAnalogRoutingPumps,"ax",%progbits
 411              		.align	2
 412              		.global	SetAnalogRoutingPumps
 413              		.thumb
ARM GAS  C:\Users\DGILLI~1\AppData\Local\Temp\ccRNf6Xa.s 			page 15


 414              		.thumb_func
 415              		.type	SetAnalogRoutingPumps, %function
 416              	SetAnalogRoutingPumps:
 417              	.LFB7:
 339:Generated_Source\PSoC5/cyfitter_cfg.c **** }
 340:Generated_Source\PSoC5/cyfitter_cfg.c **** 
 341:Generated_Source\PSoC5/cyfitter_cfg.c **** 
 342:Generated_Source\PSoC5/cyfitter_cfg.c **** /*******************************************************************************
 343:Generated_Source\PSoC5/cyfitter_cfg.c **** * Function Name: SetAnalogRoutingPumps
 344:Generated_Source\PSoC5/cyfitter_cfg.c **** ********************************************************************************
 345:Generated_Source\PSoC5/cyfitter_cfg.c **** *
 346:Generated_Source\PSoC5/cyfitter_cfg.c **** * Summary:
 347:Generated_Source\PSoC5/cyfitter_cfg.c **** * Enables or disables the analog pumps feeding analog routing switches.
 348:Generated_Source\PSoC5/cyfitter_cfg.c **** * Intended to be called at startup, based on the Vdda system configuration;
 349:Generated_Source\PSoC5/cyfitter_cfg.c **** * may be called during operation when the user informs us that the Vdda voltage
 350:Generated_Source\PSoC5/cyfitter_cfg.c **** * crossed the pump threshold.
 351:Generated_Source\PSoC5/cyfitter_cfg.c **** *
 352:Generated_Source\PSoC5/cyfitter_cfg.c **** * Parameters:
 353:Generated_Source\PSoC5/cyfitter_cfg.c **** *  enabled - 1 to enable the pumps, 0 to disable the pumps
 354:Generated_Source\PSoC5/cyfitter_cfg.c **** *
 355:Generated_Source\PSoC5/cyfitter_cfg.c **** * Return:
 356:Generated_Source\PSoC5/cyfitter_cfg.c **** *  void
 357:Generated_Source\PSoC5/cyfitter_cfg.c **** *
 358:Generated_Source\PSoC5/cyfitter_cfg.c **** *******************************************************************************/
 359:Generated_Source\PSoC5/cyfitter_cfg.c **** void SetAnalogRoutingPumps(uint8 enabled)
 360:Generated_Source\PSoC5/cyfitter_cfg.c **** {
 418              		.loc 1 360 0
 419              		.cfi_startproc
 420              		@ args = 0, pretend = 0, frame = 0
 421              		@ frame_needed = 0, uses_anonymous_args = 0
 422              		@ link register save eliminated.
 423              	.LVL33:
 361:Generated_Source\PSoC5/cyfitter_cfg.c **** 	uint8 regValue = CY_GET_XTND_REG8((void CYFAR *)CYREG_PUMP_CR0);
 424              		.loc 1 361 0
 425 0000 054B     		ldr	r3, .L30
 426 0002 1B78     		ldrb	r3, [r3]	@ zero_extendqisi2
 427 0004 DBB2     		uxtb	r3, r3
 428              	.LVL34:
 362:Generated_Source\PSoC5/cyfitter_cfg.c **** 	if (enabled != 0u)
 429              		.loc 1 362 0
 430 0006 10B1     		cbz	r0, .L28
 363:Generated_Source\PSoC5/cyfitter_cfg.c **** 	{
 364:Generated_Source\PSoC5/cyfitter_cfg.c **** 		regValue |= 0x22u;
 431              		.loc 1 364 0
 432 0008 43F02203 		orr	r3, r3, #34
 433              	.LVL35:
 434 000c 01E0     		b	.L29
 435              	.L28:
 365:Generated_Source\PSoC5/cyfitter_cfg.c **** 	}
 366:Generated_Source\PSoC5/cyfitter_cfg.c **** 	else
 367:Generated_Source\PSoC5/cyfitter_cfg.c **** 	{
 368:Generated_Source\PSoC5/cyfitter_cfg.c **** 		regValue &= (uint8)~0x22u;
 436              		.loc 1 368 0
 437 000e 03F0DD03 		and	r3, r3, #221
 438              	.LVL36:
 439              	.L29:
 369:Generated_Source\PSoC5/cyfitter_cfg.c **** 	}
ARM GAS  C:\Users\DGILLI~1\AppData\Local\Temp\ccRNf6Xa.s 			page 16


 370:Generated_Source\PSoC5/cyfitter_cfg.c **** 	CY_SET_XTND_REG8((void CYFAR *)CYREG_PUMP_CR0, regValue);
 440              		.loc 1 370 0
 441 0012 014A     		ldr	r2, .L30
 442 0014 1370     		strb	r3, [r2]
 443 0016 7047     		bx	lr
 444              	.L31:
 445              		.align	2
 446              	.L30:
 447 0018 76580040 		.word	1073764470
 448              		.cfi_endproc
 449              	.LFE7:
 450              		.size	SetAnalogRoutingPumps, .-SetAnalogRoutingPumps
 451              		.section	.text.cyfitter_cfg,"ax",%progbits
 452              		.align	2
 453              		.global	cyfitter_cfg
 454              		.thumb
 455              		.thumb_func
 456              		.type	cyfitter_cfg, %function
 457              	cyfitter_cfg:
 458              	.LFB8:
 371:Generated_Source\PSoC5/cyfitter_cfg.c **** }
 372:Generated_Source\PSoC5/cyfitter_cfg.c **** 
 373:Generated_Source\PSoC5/cyfitter_cfg.c **** 
 374:Generated_Source\PSoC5/cyfitter_cfg.c **** 
 375:Generated_Source\PSoC5/cyfitter_cfg.c **** 
 376:Generated_Source\PSoC5/cyfitter_cfg.c **** /*******************************************************************************
 377:Generated_Source\PSoC5/cyfitter_cfg.c **** * Function Name: cyfitter_cfg
 378:Generated_Source\PSoC5/cyfitter_cfg.c **** ********************************************************************************
 379:Generated_Source\PSoC5/cyfitter_cfg.c **** * Summary:
 380:Generated_Source\PSoC5/cyfitter_cfg.c **** *  This function is called by the start-up code for the selected device. It
 381:Generated_Source\PSoC5/cyfitter_cfg.c **** *  performs all of the necessary device configuration based on the design
 382:Generated_Source\PSoC5/cyfitter_cfg.c **** *  settings.  This includes settings from the Design Wide Resources (DWR) such
 383:Generated_Source\PSoC5/cyfitter_cfg.c **** *  as Clocks and Pins as well as any component configuration that is necessary.
 384:Generated_Source\PSoC5/cyfitter_cfg.c **** *
 385:Generated_Source\PSoC5/cyfitter_cfg.c **** * Parameters:
 386:Generated_Source\PSoC5/cyfitter_cfg.c **** *   void
 387:Generated_Source\PSoC5/cyfitter_cfg.c **** *
 388:Generated_Source\PSoC5/cyfitter_cfg.c **** * Return:
 389:Generated_Source\PSoC5/cyfitter_cfg.c **** *   void
 390:Generated_Source\PSoC5/cyfitter_cfg.c **** *
 391:Generated_Source\PSoC5/cyfitter_cfg.c **** *******************************************************************************/
 392:Generated_Source\PSoC5/cyfitter_cfg.c **** 
 393:Generated_Source\PSoC5/cyfitter_cfg.c **** void cyfitter_cfg(void)
 394:Generated_Source\PSoC5/cyfitter_cfg.c **** {
 459              		.loc 1 394 0
 460              		.cfi_startproc
 461              		@ args = 0, pretend = 0, frame = 0
 462              		@ frame_needed = 0, uses_anonymous_args = 0
 463 0000 38B5     		push	{r3, r4, r5, lr}
 464              		.cfi_def_cfa_offset 16
 465              		.cfi_offset 3, -16
 466              		.cfi_offset 4, -12
 467              		.cfi_offset 5, -8
 468              		.cfi_offset 14, -4
 395:Generated_Source\PSoC5/cyfitter_cfg.c **** #ifdef CYGlobalIntDisable
 396:Generated_Source\PSoC5/cyfitter_cfg.c **** 	/* Disable interrupts by default. Let user enable if/when they want. */
 397:Generated_Source\PSoC5/cyfitter_cfg.c **** 	CYGlobalIntDisable
ARM GAS  C:\Users\DGILLI~1\AppData\Local\Temp\ccRNf6Xa.s 			page 17


 469              		.loc 1 397 0
 470              		.syntax unified
 471              	@ 397 "Generated_Source\PSoC5\cyfitter_cfg.c" 1
 472 0002 72B6     		CPSID   i
 473              	@ 0 "" 2
 398:Generated_Source\PSoC5/cyfitter_cfg.c **** #endif
 399:Generated_Source\PSoC5/cyfitter_cfg.c **** 
 400:Generated_Source\PSoC5/cyfitter_cfg.c **** 	/* Enable/Disable Debug functionality based on settings from System DWR */
 401:Generated_Source\PSoC5/cyfitter_cfg.c **** 	CY_SET_XTND_REG8((void CYFAR *)CYREG_MLOGIC_DEBUG, (CY_GET_XTND_REG8((void CYFAR *)CYREG_MLOGIC_DE
 474              		.loc 1 401 0
 475              		.thumb
 476              		.syntax unified
 477 0004 404A     		ldr	r2, .L38
 478 0006 1378     		ldrb	r3, [r2]	@ zero_extendqisi2
 479 0008 43F00403 		orr	r3, r3, #4
 480 000c 1370     		strb	r3, [r2]
 481              	.LVL37:
 482              	.LBB3:
 402:Generated_Source\PSoC5/cyfitter_cfg.c **** 
 403:Generated_Source\PSoC5/cyfitter_cfg.c **** 	{
 404:Generated_Source\PSoC5/cyfitter_cfg.c **** 
 405:Generated_Source\PSoC5/cyfitter_cfg.c **** 		CYPACKED typedef struct {
 406:Generated_Source\PSoC5/cyfitter_cfg.c **** 			void CYFAR *address;
 407:Generated_Source\PSoC5/cyfitter_cfg.c **** 			uint16 size;
 408:Generated_Source\PSoC5/cyfitter_cfg.c **** 		} CYPACKED_ATTR cfg_memset_t;
 409:Generated_Source\PSoC5/cyfitter_cfg.c **** 
 410:Generated_Source\PSoC5/cyfitter_cfg.c **** 
 411:Generated_Source\PSoC5/cyfitter_cfg.c **** 		CYPACKED typedef struct {
 412:Generated_Source\PSoC5/cyfitter_cfg.c **** 			void CYFAR *dest;
 413:Generated_Source\PSoC5/cyfitter_cfg.c **** 			const void CYFAR *src;
 414:Generated_Source\PSoC5/cyfitter_cfg.c **** 			uint16 size;
 415:Generated_Source\PSoC5/cyfitter_cfg.c **** 		} CYPACKED_ATTR cfg_memcpy_t;
 416:Generated_Source\PSoC5/cyfitter_cfg.c **** 
 417:Generated_Source\PSoC5/cyfitter_cfg.c **** 		static const cfg_memset_t CYCODE cfg_memset_list[] = {
 418:Generated_Source\PSoC5/cyfitter_cfg.c **** 			/* address, size */
 419:Generated_Source\PSoC5/cyfitter_cfg.c **** 			{(void CYFAR *)(CYREG_I2C_XCFG), 25u},
 420:Generated_Source\PSoC5/cyfitter_cfg.c **** 			{(void CYFAR *)(CYDEV_UCFG_B0_P0_U0_BASE), 4096u},
 421:Generated_Source\PSoC5/cyfitter_cfg.c **** 			{(void CYFAR *)(CYDEV_UCFG_B1_P2_U0_BASE), 2048u},
 422:Generated_Source\PSoC5/cyfitter_cfg.c **** 			{(void CYFAR *)(CYDEV_UCFG_DSI0_BASE), 2560u},
 423:Generated_Source\PSoC5/cyfitter_cfg.c **** 			{(void CYFAR *)(CYDEV_UCFG_DSI12_BASE), 512u},
 424:Generated_Source\PSoC5/cyfitter_cfg.c **** 			{(void CYFAR *)(CYREG_BCTL0_MDCLK_EN), 32u},
 425:Generated_Source\PSoC5/cyfitter_cfg.c **** 		};
 426:Generated_Source\PSoC5/cyfitter_cfg.c **** 
 427:Generated_Source\PSoC5/cyfitter_cfg.c **** 		static const cfg_memcpy_t CYCODE cfg_memcpy_list [] = {
 428:Generated_Source\PSoC5/cyfitter_cfg.c **** 			/* dest, src, size */
 429:Generated_Source\PSoC5/cyfitter_cfg.c **** 			{(void CYFAR *)(CYDEV_PRTDSI_PRT4_BASE), BS_IOPORT_4_VAL, 7u},
 430:Generated_Source\PSoC5/cyfitter_cfg.c **** 			{(void CYFAR *)(CYDEV_PRTDSI_PRT5_BASE), BS_IOPORT_5_VAL, 7u},
 431:Generated_Source\PSoC5/cyfitter_cfg.c **** 		};
 432:Generated_Source\PSoC5/cyfitter_cfg.c **** 
 433:Generated_Source\PSoC5/cyfitter_cfg.c **** 		uint8 CYDATA i;
 434:Generated_Source\PSoC5/cyfitter_cfg.c **** 
 435:Generated_Source\PSoC5/cyfitter_cfg.c **** 		/* Zero out critical memory blocks before beginning configuration */
 436:Generated_Source\PSoC5/cyfitter_cfg.c **** 		for (i = 0u; i < (sizeof(cfg_memset_list)/sizeof(cfg_memset_list[0])); i++)
 483              		.loc 1 436 0
 484 000e 0024     		movs	r4, #0
 485 0010 0CE0     		b	.L33
 486              	.LVL38:
ARM GAS  C:\Users\DGILLI~1\AppData\Local\Temp\ccRNf6Xa.s 			page 18


 487              	.L34:
 488              	.LBB4:
 437:Generated_Source\PSoC5/cyfitter_cfg.c **** 		{
 438:Generated_Source\PSoC5/cyfitter_cfg.c **** 			const cfg_memset_t CYCODE * CYDATA ms = &cfg_memset_list[i];
 439:Generated_Source\PSoC5/cyfitter_cfg.c **** 			CYMEMZERO(ms->address, (size_t)(uint32)(ms->size));
 489              		.loc 1 439 0 discriminator 3
 490 0012 3E4D     		ldr	r5, .L38+4
 491 0014 6300     		lsls	r3, r4, #1
 492 0016 1919     		adds	r1, r3, r4
 493 0018 4A00     		lsls	r2, r1, #1
 494 001a 1146     		mov	r1, r2
 495 001c 2A44     		add	r2, r2, r5
 496 001e 0846     		mov	r0, r1
 497 0020 9188     		ldrh	r1, [r2, #4]
 498 0022 2858     		ldr	r0, [r5, r0]	@ unaligned
 499 0024 FFF7FEFF 		bl	CYMEMZERO
 500              	.LVL39:
 501              	.LBE4:
 436:Generated_Source\PSoC5/cyfitter_cfg.c **** 		{
 502              		.loc 1 436 0 discriminator 3
 503 0028 0134     		adds	r4, r4, #1
 504              	.LVL40:
 505 002a E4B2     		uxtb	r4, r4
 506              	.LVL41:
 507              	.L33:
 436:Generated_Source\PSoC5/cyfitter_cfg.c **** 		{
 508              		.loc 1 436 0 is_stmt 0 discriminator 1
 509 002c 052C     		cmp	r4, #5
 510 002e F0D9     		bls	.L34
 511 0030 0024     		movs	r4, #0
 512              	.LVL42:
 513 0032 0BE0     		b	.L35
 514              	.LVL43:
 515              	.L36:
 516              	.LBB5:
 440:Generated_Source\PSoC5/cyfitter_cfg.c **** 		}
 441:Generated_Source\PSoC5/cyfitter_cfg.c **** 
 442:Generated_Source\PSoC5/cyfitter_cfg.c **** 		/* Copy device configuration data into registers */
 443:Generated_Source\PSoC5/cyfitter_cfg.c **** 		for (i = 0u; i < (sizeof(cfg_memcpy_list)/sizeof(cfg_memcpy_list[0])); i++)
 444:Generated_Source\PSoC5/cyfitter_cfg.c **** 		{
 445:Generated_Source\PSoC5/cyfitter_cfg.c **** 			const cfg_memcpy_t CYCODE * CYDATA mc = &cfg_memcpy_list[i];
 446:Generated_Source\PSoC5/cyfitter_cfg.c **** 			void * CYDATA destPtr = mc->dest;
 517              		.loc 1 446 0 is_stmt 1 discriminator 3
 518 0034 3548     		ldr	r0, .L38+4
 519 0036 A200     		lsls	r2, r4, #2
 520 0038 1119     		adds	r1, r2, r4
 521 003a 4B00     		lsls	r3, r1, #1
 522 003c 0344     		add	r3, r3, r0
 523              	.LVL44:
 447:Generated_Source\PSoC5/cyfitter_cfg.c **** 			const void * CYDATA srcPtr = mc->src;
 448:Generated_Source\PSoC5/cyfitter_cfg.c **** 			uint16 CYDATA numBytes = mc->size;
 449:Generated_Source\PSoC5/cyfitter_cfg.c **** 			CYCONFIGCPY(destPtr, srcPtr, numBytes);
 524              		.loc 1 449 0 discriminator 3
 525 003e 9A8D     		ldrh	r2, [r3, #44]
 526 0040 996A     		ldr	r1, [r3, #40]	@ unaligned
 527              	.LVL45:
 528 0042 586A     		ldr	r0, [r3, #36]	@ unaligned
ARM GAS  C:\Users\DGILLI~1\AppData\Local\Temp\ccRNf6Xa.s 			page 19


 529              	.LVL46:
 530 0044 FFF7FEFF 		bl	CYCONFIGCPY
 531              	.LVL47:
 532              	.LBE5:
 443:Generated_Source\PSoC5/cyfitter_cfg.c **** 		{
 533              		.loc 1 443 0 discriminator 3
 534 0048 0134     		adds	r4, r4, #1
 535              	.LVL48:
 536 004a E4B2     		uxtb	r4, r4
 537              	.LVL49:
 538              	.L35:
 443:Generated_Source\PSoC5/cyfitter_cfg.c **** 		{
 539              		.loc 1 443 0 is_stmt 0 discriminator 1
 540 004c 012C     		cmp	r4, #1
 541 004e F1D9     		bls	.L36
 450:Generated_Source\PSoC5/cyfitter_cfg.c **** 		}
 451:Generated_Source\PSoC5/cyfitter_cfg.c **** 
 452:Generated_Source\PSoC5/cyfitter_cfg.c **** 		cfg_write_bytes32(cy_cfg_addr_table, cy_cfg_data_table);
 542              		.loc 1 452 0 is_stmt 1
 543 0050 2F49     		ldr	r1, .L38+8
 544 0052 4FF09040 		mov	r0, #1207959552
 545 0056 FFF7FEFF 		bl	cfg_write_bytes32
 546              	.LVL50:
 453:Generated_Source\PSoC5/cyfitter_cfg.c **** 
 454:Generated_Source\PSoC5/cyfitter_cfg.c **** 		/* Enable digital routing */
 455:Generated_Source\PSoC5/cyfitter_cfg.c **** 		CY_SET_XTND_REG8((void CYFAR *)CYREG_BCTL0_BANK_CTL, CY_GET_XTND_REG8((void CYFAR *)CYREG_BCTL0_B
 547              		.loc 1 455 0
 548 005a 2E4A     		ldr	r2, .L38+12
 549 005c 1378     		ldrb	r3, [r2]	@ zero_extendqisi2
 550 005e 43F00203 		orr	r3, r3, #2
 551 0062 1370     		strb	r3, [r2]
 456:Generated_Source\PSoC5/cyfitter_cfg.c **** 		CY_SET_XTND_REG8((void CYFAR *)CYREG_BCTL1_BANK_CTL, CY_GET_XTND_REG8((void CYFAR *)CYREG_BCTL1_B
 552              		.loc 1 456 0
 553 0064 1032     		adds	r2, r2, #16
 554 0066 1378     		ldrb	r3, [r2]	@ zero_extendqisi2
 555 0068 43F00203 		orr	r3, r3, #2
 556 006c 1370     		strb	r3, [r2]
 457:Generated_Source\PSoC5/cyfitter_cfg.c **** 
 458:Generated_Source\PSoC5/cyfitter_cfg.c **** 		/* Enable UDB array */
 459:Generated_Source\PSoC5/cyfitter_cfg.c **** 		CY_SET_XTND_REG8((void CYFAR *)CYREG_PM_ACT_CFG0, CY_GET_XTND_REG8((void CYFAR *)CYREG_PM_ACT_CFG
 557              		.loc 1 459 0
 558 006e 2A4C     		ldr	r4, .L38+16
 559              	.LVL51:
 560 0070 2378     		ldrb	r3, [r4]	@ zero_extendqisi2
 561 0072 43F04003 		orr	r3, r3, #64
 562 0076 2370     		strb	r3, [r4]
 460:Generated_Source\PSoC5/cyfitter_cfg.c **** 		CY_SET_XTND_REG8((void CYFAR *)CYREG_PM_AVAIL_CR2, CY_GET_XTND_REG8((void CYFAR *)CYREG_PM_AVAIL_
 563              		.loc 1 460 0
 564 0078 A2F58632 		sub	r2, r2, #68608
 565 007c 513A     		subs	r2, r2, #81
 566 007e 1378     		ldrb	r3, [r2]	@ zero_extendqisi2
 567 0080 43F01003 		orr	r3, r3, #16
 568 0084 1370     		strb	r3, [r2]
 569              	.LBE3:
 461:Generated_Source\PSoC5/cyfitter_cfg.c **** 	}
 462:Generated_Source\PSoC5/cyfitter_cfg.c **** 
 463:Generated_Source\PSoC5/cyfitter_cfg.c **** 
ARM GAS  C:\Users\DGILLI~1\AppData\Local\Temp\ccRNf6Xa.s 			page 20


 464:Generated_Source\PSoC5/cyfitter_cfg.c **** 	/* Perform second pass device configuration. These items must be configured in specific order afte
 465:Generated_Source\PSoC5/cyfitter_cfg.c **** 	CYCONFIGCPY((void CYFAR *)(CYREG_PRT0_DM0), (const void CYFAR *)(BS_IOPINS0_0_VAL), 8u);
 570              		.loc 1 465 0
 571 0086 0822     		movs	r2, #8
 572 0088 2449     		ldr	r1, .L38+20
 573 008a 2548     		ldr	r0, .L38+24
 574 008c FFF7FEFF 		bl	CYCONFIGCPY
 575              	.LVL52:
 466:Generated_Source\PSoC5/cyfitter_cfg.c **** 	CYCONFIGCPY((void CYFAR *)(CYREG_PRT12_DR), (const void CYFAR *)(BS_IOPINS0_7_VAL), 10u);
 576              		.loc 1 466 0
 577 0090 0A22     		movs	r2, #10
 578 0092 2449     		ldr	r1, .L38+28
 579 0094 2448     		ldr	r0, .L38+32
 580 0096 FFF7FEFF 		bl	CYCONFIGCPY
 581              	.LVL53:
 467:Generated_Source\PSoC5/cyfitter_cfg.c **** 	CYCONFIGCPY((void CYFAR *)(CYREG_PRT15_DR), (const void CYFAR *)(BS_IOPINS0_8_VAL), 10u);
 582              		.loc 1 467 0
 583 009a 0A22     		movs	r2, #10
 584 009c 2349     		ldr	r1, .L38+36
 585 009e 2448     		ldr	r0, .L38+40
 586 00a0 FFF7FEFF 		bl	CYCONFIGCPY
 587              	.LVL54:
 468:Generated_Source\PSoC5/cyfitter_cfg.c **** 	CYCONFIGCPY((void CYFAR *)(CYREG_PRT1_DM0), (const void CYFAR *)(BS_IOPINS0_1_VAL), 8u);
 588              		.loc 1 468 0
 589 00a4 0822     		movs	r2, #8
 590 00a6 2349     		ldr	r1, .L38+44
 591 00a8 2348     		ldr	r0, .L38+48
 592 00aa FFF7FEFF 		bl	CYCONFIGCPY
 593              	.LVL55:
 469:Generated_Source\PSoC5/cyfitter_cfg.c **** 	CYCONFIGCPY((void CYFAR *)(CYREG_PRT2_DM0), (const void CYFAR *)(BS_IOPINS0_2_VAL), 8u);
 594              		.loc 1 469 0
 595 00ae 0822     		movs	r2, #8
 596 00b0 2249     		ldr	r1, .L38+52
 597 00b2 2348     		ldr	r0, .L38+56
 598 00b4 FFF7FEFF 		bl	CYCONFIGCPY
 599              	.LVL56:
 470:Generated_Source\PSoC5/cyfitter_cfg.c **** 	CYCONFIGCPY((void CYFAR *)(CYREG_PRT3_DR), (const void CYFAR *)(BS_IOPINS0_3_VAL), 10u);
 600              		.loc 1 470 0
 601 00b8 0A22     		movs	r2, #10
 602 00ba 2249     		ldr	r1, .L38+60
 603 00bc 2248     		ldr	r0, .L38+64
 604 00be FFF7FEFF 		bl	CYCONFIGCPY
 605              	.LVL57:
 471:Generated_Source\PSoC5/cyfitter_cfg.c **** 	CYCONFIGCPY((void CYFAR *)(CYREG_PRT4_DM0), (const void CYFAR *)(BS_IOPINS0_4_VAL), 8u);
 606              		.loc 1 471 0
 607 00c2 0822     		movs	r2, #8
 608 00c4 2149     		ldr	r1, .L38+68
 609 00c6 2248     		ldr	r0, .L38+72
 610 00c8 FFF7FEFF 		bl	CYCONFIGCPY
 611              	.LVL58:
 472:Generated_Source\PSoC5/cyfitter_cfg.c **** 	CYCONFIGCPY((void CYFAR *)(CYREG_PRT5_DR), (const void CYFAR *)(BS_IOPINS0_5_VAL), 10u);
 612              		.loc 1 472 0
 613 00cc 0A22     		movs	r2, #10
 614 00ce 2149     		ldr	r1, .L38+76
 615 00d0 2148     		ldr	r0, .L38+80
 616 00d2 FFF7FEFF 		bl	CYCONFIGCPY
 617              	.LVL59:
ARM GAS  C:\Users\DGILLI~1\AppData\Local\Temp\ccRNf6Xa.s 			page 21


 473:Generated_Source\PSoC5/cyfitter_cfg.c **** 	CYCONFIGCPY((void CYFAR *)(CYREG_PRT6_DR), (const void CYFAR *)(BS_IOPINS0_6_VAL), 10u);
 618              		.loc 1 473 0
 619 00d6 0A22     		movs	r2, #10
 620 00d8 2049     		ldr	r1, .L38+84
 621 00da 2148     		ldr	r0, .L38+88
 622 00dc FFF7FEFF 		bl	CYCONFIGCPY
 623              	.LVL60:
 474:Generated_Source\PSoC5/cyfitter_cfg.c **** 	/* Switch Boost to the precision bandgap reference from its internal reference */
 475:Generated_Source\PSoC5/cyfitter_cfg.c **** 	CY_SET_REG8((void CYXDATA *)CYREG_BOOST_CR2, (CY_GET_REG8((void CYXDATA *)CYREG_BOOST_CR2) | 0x08u
 624              		.loc 1 475 0
 625 00e0 204A     		ldr	r2, .L38+92
 626 00e2 1378     		ldrb	r3, [r2]	@ zero_extendqisi2
 627 00e4 43F00803 		orr	r3, r3, #8
 628 00e8 1370     		strb	r3, [r2]
 476:Generated_Source\PSoC5/cyfitter_cfg.c **** 
 477:Generated_Source\PSoC5/cyfitter_cfg.c **** 	/* Set Flash Cycles based on max possible frequency in case a glitch occurs during ClockSetup(). *
 478:Generated_Source\PSoC5/cyfitter_cfg.c **** 	CY_SET_XTND_REG8((void CYFAR *)(CYREG_CACHE_CC_CTL), (((CYDEV_INSTRUCT_CACHE_ENABLED) != 0) ? 0x61
 629              		.loc 1 478 0
 630 00ea 1F4D     		ldr	r5, .L38+96
 631 00ec 6123     		movs	r3, #97
 632 00ee 2B70     		strb	r3, [r5]
 479:Generated_Source\PSoC5/cyfitter_cfg.c **** 	/* Setup clocks based on selections from Clock DWR */
 480:Generated_Source\PSoC5/cyfitter_cfg.c **** 	ClockSetup();
 633              		.loc 1 480 0
 634 00f0 FFF7FEFF 		bl	ClockSetup
 635              	.LVL61:
 481:Generated_Source\PSoC5/cyfitter_cfg.c **** 	/* Set Flash Cycles based on newly configured 60.00MHz Bus Clock. */
 482:Generated_Source\PSoC5/cyfitter_cfg.c **** 	CY_SET_XTND_REG8((void CYFAR *)(CYREG_CACHE_CC_CTL), (((CYDEV_INSTRUCT_CACHE_ENABLED) != 0) ? 0x01
 636              		.loc 1 482 0
 637 00f4 0123     		movs	r3, #1
 638 00f6 2B70     		strb	r3, [r5]
 483:Generated_Source\PSoC5/cyfitter_cfg.c **** 
 484:Generated_Source\PSoC5/cyfitter_cfg.c **** 	/* Perform basic analog initialization to defaults */
 485:Generated_Source\PSoC5/cyfitter_cfg.c **** 	AnalogSetDefault();
 639              		.loc 1 485 0
 640 00f8 FFF7FEFF 		bl	AnalogSetDefault
 641              	.LVL62:
 486:Generated_Source\PSoC5/cyfitter_cfg.c **** 
 487:Generated_Source\PSoC5/cyfitter_cfg.c **** 	/* Configure alternate active mode */
 488:Generated_Source\PSoC5/cyfitter_cfg.c **** 	CYCONFIGCPY((void CYFAR *)CYDEV_PM_STBY_BASE, (const void CYFAR *)CYDEV_PM_ACT_BASE, 14u);
 642              		.loc 1 488 0
 643 00fc 0E22     		movs	r2, #14
 644 00fe 2146     		mov	r1, r4
 645 0100 1A48     		ldr	r0, .L38+100
 646 0102 FFF7FEFF 		bl	CYCONFIGCPY
 647              	.LVL63:
 648 0106 38BD     		pop	{r3, r4, r5, pc}
 649              	.L39:
 650              		.align	2
 651              	.L38:
 652 0108 E8460040 		.word	1073759976
 653 010c 00000000 		.word	.LANCHOR0
 654 0110 88000048 		.word	1207959688
 655 0114 03500140 		.word	1073827843
 656 0118 A0430040 		.word	1073759136
 657 011c 7C070048 		.word	1207961468
 658 0120 02510040 		.word	1073762562
ARM GAS  C:\Users\DGILLI~1\AppData\Local\Temp\ccRNf6Xa.s 			page 22


 659 0124 84070048 		.word	1207961476
 660 0128 C0510040 		.word	1073762752
 661 012c 90070048 		.word	1207961488
 662 0130 F0510040 		.word	1073762800
 663 0134 9C070048 		.word	1207961500
 664 0138 12510040 		.word	1073762578
 665 013c A4070048 		.word	1207961508
 666 0140 22510040 		.word	1073762594
 667 0144 AC070048 		.word	1207961516
 668 0148 30510040 		.word	1073762608
 669 014c B8070048 		.word	1207961528
 670 0150 42510040 		.word	1073762626
 671 0154 C0070048 		.word	1207961536
 672 0158 50510040 		.word	1073762640
 673 015c CC070048 		.word	1207961548
 674 0160 60510040 		.word	1073762656
 675 0164 22430040 		.word	1073759010
 676 0168 00480040 		.word	1073760256
 677 016c B0430040 		.word	1073759152
 678              		.cfi_endproc
 679              	.LFE8:
 680              		.size	cyfitter_cfg, .-cyfitter_cfg
 681              		.section	.rodata
 682              		.align	2
 683              		.set	.LANCHOR0,. + 0
 684              		.type	cfg_memset_list.5022, %object
 685              		.size	cfg_memset_list.5022, 36
 686              	cfg_memset_list.5022:
 687 0000 C8490040 		.word	1073760712
 688 0004 1900     		.short	25
 689 0006 00000140 		.4byte	1073807360
 690 000a 0010     		.short	4096
 691 000c 00140140 		.word	1073812480
 692 0010 0008     		.short	2048
 693 0012 00400140 		.4byte	1073823744
 694 0016 000A     		.short	2560
 695 0018 004C0140 		.word	1073826816
 696 001c 0002     		.short	512
 697 001e 00500140 		.4byte	1073827840
 698 0022 2000     		.short	32
 699              		.type	cfg_memcpy_list.5023, %object
 700              		.size	cfg_memcpy_list.5023, 20
 701              	cfg_memcpy_list.5023:
 702 0024 20520040 		.word	1073762848
 703 0028 6C070048 		.word	1207961452
 704 002c 0700     		.short	7
 705 002e 28520040 		.4byte	1073762856
 706 0032 74070048 		.4byte	1207961460
 707 0036 0700     		.short	7
 708              		.text
 709              	.Letext0:
 710              		.file 2 "c:\\program files (x86)\\cypress\\psoc creator\\4.2\\psoc creator\\import\\gnu\\arm\\5.4.
 711              		.file 3 "Generated_Source\\PSoC5\\cytypes.h"
 712              		.file 4 "Generated_Source\\PSoC5\\CyLib.h"