ARM GAS  C:\Users\DGILLI~1\AppData\Local\Temp\ccQGZyV4.s 			page 1


   1              		.syntax unified
   2              		.cpu cortex-m3
   3              		.fpu softvfp
   4              		.eabi_attribute 20, 1
   5              		.eabi_attribute 21, 1
   6              		.eabi_attribute 23, 3
   7              		.eabi_attribute 24, 1
   8              		.eabi_attribute 25, 1
   9              		.eabi_attribute 26, 1
  10              		.eabi_attribute 30, 1
  11              		.eabi_attribute 34, 1
  12              		.eabi_attribute 18, 4
  13              		.thumb
  14              		.syntax unified
  15              		.file	"FrontPanel.c"
  16              		.text
  17              	.Ltext0:
  18              		.cfi_sections	.debug_frame
  19              		.section	.text.readRegister_MCP23017,"ax",%progbits
  20              		.align	2
  21              		.global	readRegister_MCP23017
  22              		.thumb
  23              		.thumb_func
  24              		.type	readRegister_MCP23017, %function
  25              	readRegister_MCP23017:
  26              	.LFB71:
  27              		.file 1 "FrontPanel.c"
   1:FrontPanel.c  **** /* ========================================
   2:FrontPanel.c  ****  *
   3:FrontPanel.c  ****  * Copyright Land Boards, LLC, 2019.
   4:FrontPanel.c  ****  * All Rights Reserved
   5:FrontPanel.c  ****  * UNPUBLISHED, LICENSED SOFTWARE.
   6:FrontPanel.c  ****  *
   7:FrontPanel.c  ****  * CONFIDENTIAL AND PROPRIETARY INFORMATION
   8:FrontPanel.c  ****  * WHICH IS THE PROPERTY OF LAND BOARDS. LLC.
   9:FrontPanel.c  ****  *
  10:FrontPanel.c  ****  * ========================================
  11:FrontPanel.c  **** */
  12:FrontPanel.c  **** 
  13:FrontPanel.c  **** #include <project.h>
  14:FrontPanel.c  **** #include "FrontPanel.h"
  15:FrontPanel.c  **** #include "ExtSRAM.h"
  16:FrontPanel.c  **** #include "Z80_SIO_emul.h"
  17:FrontPanel.c  **** 
  18:FrontPanel.c  **** #define MCP23017_IODIR_DEFVAL    0xff       // Initially set all channels to inputs
  19:FrontPanel.c  **** #define MCP23017_IODIR_ALL_INS   0xff
  20:FrontPanel.c  **** #define MCP23017_IODIR_ALL_OUTS  0x00
  21:FrontPanel.c  **** 
  22:FrontPanel.c  **** #define MCP23017_IPOL_INVERT     0xFF       // Input polarity = invert jumpers
  23:FrontPanel.c  **** #define MCP23017_GPINTEN_DISABLE 0x00       // Disable GPIO for interrupt on change
  24:FrontPanel.c  **** #define MCP23017_GPINTEN_ENABLE  0xFF       // Enable GPIO for interrupt on change
  25:FrontPanel.c  **** #define MCP23017_INTCON_DEFVAL   0x00       // Int for change from previous pin
  26:FrontPanel.c  **** #define MCP23017_IOCON_DEFVAL    0x04       // Disable sequential,  active-low
  27:FrontPanel.c  **** #define MCP23017_GPPU_DISABLE    0x00       // Disable pull-ups
  28:FrontPanel.c  **** #define MCP23017_GPPU_ENABLE     0xFF       // Enable pull-ups
  29:FrontPanel.c  **** 
  30:FrontPanel.c  **** //////////////////////////////////////////////////////////////////////////////
ARM GAS  C:\Users\DGILLI~1\AppData\Local\Temp\ccQGZyV4.s 			page 2


  31:FrontPanel.c  **** // Front Panel Handler
  32:FrontPanel.c  **** // Starts at CPU address = 0
  33:FrontPanel.c  **** //////////////////////////////////////////////////////////////////////////////
  34:FrontPanel.c  **** 
  35:FrontPanel.c  **** // Global variables
  36:FrontPanel.c  **** uint8 FPData;       // Data that is on the Front Panel (bottom 8 LEDs)
  37:FrontPanel.c  **** uint16 FPAddr;      // Address that is on the Front Panel (middle 16 lEDs)
  38:FrontPanel.c  **** uint8 FPCtrl;       // Control that is on the Front Panel (top 8 LEDs)
  39:FrontPanel.c  **** uint32 FPLong;      // Long value of the Front Panel
  40:FrontPanel.c  **** 
  41:FrontPanel.c  **** // Bits of FPCtrl
  42:FrontPanel.c  **** #define INC_ADDR    0x01    // Increment address and read memory value at next address
  43:FrontPanel.c  **** #define ST_INC      0x02    // Store data value, increment address and read next memory 
  44:FrontPanel.c  **** #define LD_ADDR     0x04    // Load address bits and read memory
  45:FrontPanel.c  **** #define RUN_SW      0x80    // Run Switch
  46:FrontPanel.c  **** 
  47:FrontPanel.c  **** //////////////////////////////////////////////////////////////////////////////
  48:FrontPanel.c  **** // FrontPanelZ80Read() - Read the Front Panel switches to the Z80
  49:FrontPanel.c  **** 
  50:FrontPanel.c  **** void FrontPanelZ80Read(uint8 portSelect)
  51:FrontPanel.c  **** {
  52:FrontPanel.c  ****     uint32 fpVal = readFrontPanelSwitchesStatic();
  53:FrontPanel.c  ****     uint8 fpByte;
  54:FrontPanel.c  ****     switch (portSelect & 0x3)
  55:FrontPanel.c  ****     {
  56:FrontPanel.c  ****         case 0:
  57:FrontPanel.c  ****             fpByte = ((uint8) fpVal) & 0xff;
  58:FrontPanel.c  ****             break;
  59:FrontPanel.c  ****         case 1:
  60:FrontPanel.c  ****             fpByte = ((uint8) (fpVal>>8)) & 0xff;
  61:FrontPanel.c  ****             break;
  62:FrontPanel.c  ****         case 2:
  63:FrontPanel.c  ****             fpByte = ((uint8) (fpVal>>16)) & 0xff;
  64:FrontPanel.c  ****             break;
  65:FrontPanel.c  ****         case 3:
  66:FrontPanel.c  ****             fpByte = ((uint8) (fpVal>>24)) & 0xff;
  67:FrontPanel.c  ****             break;
  68:FrontPanel.c  ****     }
  69:FrontPanel.c  ****     Z80_Data_In_Write(fpVal);
  70:FrontPanel.c  ****     ackIO();
  71:FrontPanel.c  **** }
  72:FrontPanel.c  **** 
  73:FrontPanel.c  **** //////////////////////////////////////////////////////////////////////////////
  74:FrontPanel.c  **** // FrontPanelZ80Read() - Write to the Front Panel LEDs from the Z80
  75:FrontPanel.c  **** 
  76:FrontPanel.c  **** void FrontPanelZ80Write(uint8 portSelect)
  77:FrontPanel.c  **** {
  78:FrontPanel.c  ****     uint32 outVal = Z80_Data_Out_Read();
  79:FrontPanel.c  ****     switch (portSelect & 0x3)
  80:FrontPanel.c  ****     {
  81:FrontPanel.c  ****         case 0:
  82:FrontPanel.c  ****             LEDsVal &= ((0xffffff00) | outVal);
  83:FrontPanel.c  ****             break;
  84:FrontPanel.c  ****         case 1:
  85:FrontPanel.c  ****             LEDsVal &= ((0xffff00ff) | (outVal<<8));
  86:FrontPanel.c  ****             break;
  87:FrontPanel.c  ****         case 2:
ARM GAS  C:\Users\DGILLI~1\AppData\Local\Temp\ccQGZyV4.s 			page 3


  88:FrontPanel.c  ****             LEDsVal &= ((0xff00ffff) | (outVal<<16));
  89:FrontPanel.c  ****             break;
  90:FrontPanel.c  ****         case 3:
  91:FrontPanel.c  ****             LEDsVal &= ((0x00ffffff) | (outVal<<24));
  92:FrontPanel.c  ****             break;
  93:FrontPanel.c  ****     }
  94:FrontPanel.c  ****     writeFrontPanelLEDs((uint8)LEDsVal);
  95:FrontPanel.c  ****     ackIO();
  96:FrontPanel.c  **** }
  97:FrontPanel.c  **** 
  98:FrontPanel.c  **** //////////////////////////////////////////////////////////////////////////////
  99:FrontPanel.c  **** // init_FrontPanel() - Switches are on Port A, LEDs are on Port B
 100:FrontPanel.c  **** 
 101:FrontPanel.c  **** void init_FrontPanel(void)
 102:FrontPanel.c  **** {
 103:FrontPanel.c  ****     uint8 chipAddr;
 104:FrontPanel.c  ****     for (chipAddr = 0x24; chipAddr < 0x28; chipAddr++)
 105:FrontPanel.c  ****     {
 106:FrontPanel.c  ****         writeRegister_MCP23017(chipAddr,MCP23017_IODIRA_REGADR,MCP23017_IODIR_ALL_INS);     // IO: 
 107:FrontPanel.c  ****         writeRegister_MCP23017(chipAddr,MCP23017_IODIRB_REGADR,MCP23017_IODIR_ALL_OUTS);    // IO: 
 108:FrontPanel.c  ****         writeRegister_MCP23017(chipAddr,MCP23017_IPOLA_REGADR,MCP23017_IPOL_INVERT);        // IP: 
 109:FrontPanel.c  ****         writeRegister_MCP23017(chipAddr,MCP23017_GPINTENA_REGADR,MCP23017_GPINTEN_ENABLE);  // GPIN
 110:FrontPanel.c  ****         writeRegister_MCP23017(chipAddr,MCP23017_GPINTENB_REGADR,MCP23017_GPINTEN_DISABLE); // GPIN
 111:FrontPanel.c  ****         writeRegister_MCP23017(chipAddr,MCP23017_DEFVALA_REGADR,0xFF);                      // Defa
 112:FrontPanel.c  ****         writeRegister_MCP23017(chipAddr,MCP23017_INTCONA_REGADR,MCP23017_INTCON_DEFVAL);    // Int 
 113:FrontPanel.c  ****         writeRegister_MCP23017(chipAddr,MCP23017_IOCONA_REGADR,MCP23017_IOCON_DEFVAL);      // BANK
 114:FrontPanel.c  ****                                                                                             // MIRR
 115:FrontPanel.c  ****                                                                                             // SEQO
 116:FrontPanel.c  ****                                                                                             // HAEN
 117:FrontPanel.c  ****                                                                                             // ODR:
 118:FrontPanel.c  ****                                                                                             // INTP
 119:FrontPanel.c  ****         writeRegister_MCP23017(chipAddr,MCP23017_IOCONB_REGADR,MCP23017_IOCON_DEFVAL);      // Int 
 120:FrontPanel.c  ****         writeRegister_MCP23017(chipAddr,MCP23017_GPPUA_REGADR,MCP23017_GPPU_ENABLE);        // Pull
 121:FrontPanel.c  ****         readRegister_MCP23017(chipAddr,MCP23017_INTCAPA_REGADR);                            // Clea
 122:FrontPanel.c  ****     }
 123:FrontPanel.c  ****     FPData = 0;
 124:FrontPanel.c  ****     FPAddr = 0;
 125:FrontPanel.c  ****     FPCtrl = 0;
 126:FrontPanel.c  ****     FPLong = 0;
 127:FrontPanel.c  **** }
 128:FrontPanel.c  **** 
 129:FrontPanel.c  **** //////////////////////////////////////////////////////////////////////////////////////
 130:FrontPanel.c  **** // runFrontPanel()
 131:FrontPanel.c  **** // Returns when run button is pressed on front panel
 132:FrontPanel.c  **** 
 133:FrontPanel.c  **** void runFrontPanel(void)
 134:FrontPanel.c  **** {
 135:FrontPanel.c  ****     uint32 switchesVal = 0;
 136:FrontPanel.c  ****     LEDsVal = 0;
 137:FrontPanel.c  ****     
 138:FrontPanel.c  ****     I2C_Start();
 139:FrontPanel.c  ****     init_FrontPanel();
 140:FrontPanel.c  ****     // Bounce LEDs
 141:FrontPanel.c  ****     for (LEDsVal = 1; LEDsVal != 0; LEDsVal <<= 1)
 142:FrontPanel.c  ****     {
 143:FrontPanel.c  ****         writeFrontPanelLEDs(LEDsVal);
 144:FrontPanel.c  ****         CyDelay(50);
ARM GAS  C:\Users\DGILLI~1\AppData\Local\Temp\ccQGZyV4.s 			page 4


 145:FrontPanel.c  ****     }
 146:FrontPanel.c  ****     LEDsVal |= ReadExtSRAM(0);
 147:FrontPanel.c  ****     writeFrontPanelLEDs(LEDsVal);       // clears LEDs
 148:FrontPanel.c  ****     for(;;)                     // Loop forever
 149:FrontPanel.c  ****     {
 150:FrontPanel.c  ****         switchesVal = waitFrontPanelSwitchesPressed();
 151:FrontPanel.c  ****         if ((switchesVal & 0xff000000) != 0)    // Control switch on top row was pressed
 152:FrontPanel.c  ****         {
 153:FrontPanel.c  ****             if ((switchesVal & 0x01000000) == 0x01000000)       // Incr address and read memory
 154:FrontPanel.c  ****             {
 155:FrontPanel.c  ****                 LEDsVal |= 0x01000000;          // Flicker INCAD LED
 156:FrontPanel.c  ****                 writeFrontPanelLEDs(LEDsVal);
 157:FrontPanel.c  ****                 LEDsVal += 0x00000100;
 158:FrontPanel.c  ****                 LEDsVal &= 0x00ffff00;
 159:FrontPanel.c  ****                 LEDsVal |= ReadExtSRAM((LEDsVal >> 8) & 0xffff);
 160:FrontPanel.c  ****                 writeFrontPanelLEDs(LEDsVal);
 161:FrontPanel.c  ****             }
 162:FrontPanel.c  ****             else if ((switchesVal & 0x02000000) == 0x02000000)  // Store to addr, incr address and 
 163:FrontPanel.c  ****             {
 164:FrontPanel.c  ****                 LEDsVal |= 0x02000000;          // Flicker STINC LED
 165:FrontPanel.c  ****                 writeFrontPanelLEDs(LEDsVal);
 166:FrontPanel.c  ****                 WriteExtSRAM((LEDsVal >> 8) & 0xffff,LEDsVal&0xff);
 167:FrontPanel.c  ****                 LEDsVal += 0x00000100;
 168:FrontPanel.c  ****                 LEDsVal &= 0x00ffff00;
 169:FrontPanel.c  ****                 LEDsVal |= ReadExtSRAM((LEDsVal >> 8) & 0xffff);
 170:FrontPanel.c  ****                 writeFrontPanelLEDs(LEDsVal);
 171:FrontPanel.c  ****             }
 172:FrontPanel.c  ****             else if ((switchesVal & 0x04000000) == 0x04000000)  //Load address and read memory
 173:FrontPanel.c  ****             {
 174:FrontPanel.c  ****                 LEDsVal |= 0x04000000;          // Flicker LDADR LED
 175:FrontPanel.c  ****                 writeFrontPanelLEDs(LEDsVal);
 176:FrontPanel.c  ****                 LEDsVal &= 0x00ffff00;
 177:FrontPanel.c  ****                 LEDsVal |= ReadExtSRAM((LEDsVal >> 8) & 0xffff);
 178:FrontPanel.c  ****                 writeFrontPanelLEDs(LEDsVal);
 179:FrontPanel.c  ****             }
 180:FrontPanel.c  ****             else if ((switchesVal & 0x08000000) == 0x08000000)  // Run program
 181:FrontPanel.c  ****             {
 182:FrontPanel.c  ****                 ExtSRAMCtl_Control = 0;
 183:FrontPanel.c  ****                 LEDsVal = 0x08000000;
 184:FrontPanel.c  ****                 writeFrontPanelLEDs(LEDsVal);       // Leave Run LED on
 185:FrontPanel.c  ****                 return;
 186:FrontPanel.c  ****             }
 187:FrontPanel.c  ****             else if ((switchesVal & 0x10000000) == 0x10000000)  // TBD
 188:FrontPanel.c  ****             {
 189:FrontPanel.c  ****                 LEDsVal = 0x10000000;
 190:FrontPanel.c  ****                 writeFrontPanelLEDs(LEDsVal);       // Leave LED on
 191:FrontPanel.c  ****                 CyDelay(250);
 192:FrontPanel.c  ****                 LEDsVal &= 0x00ffffff;
 193:FrontPanel.c  ****                 writeFrontPanelLEDs(LEDsVal);       // Turn off LED
 194:FrontPanel.c  ****             }
 195:FrontPanel.c  ****             else if ((switchesVal & 0x20000000) == 0x20000000)  // TBD
 196:FrontPanel.c  ****             {
 197:FrontPanel.c  ****                 LEDsVal = 0x20000000;
 198:FrontPanel.c  ****                 writeFrontPanelLEDs(LEDsVal);       // Leave LED on
 199:FrontPanel.c  ****                 CyDelay(250);
 200:FrontPanel.c  ****                 LEDsVal &= 0x00ffffff;
 201:FrontPanel.c  ****                 writeFrontPanelLEDs(LEDsVal);       // Turn off LED
ARM GAS  C:\Users\DGILLI~1\AppData\Local\Temp\ccQGZyV4.s 			page 5


 202:FrontPanel.c  ****             }
 203:FrontPanel.c  ****             else if ((switchesVal & 0x40000000) == 0x40000000)  // TBD
 204:FrontPanel.c  ****             {
 205:FrontPanel.c  ****                 LEDsVal = 0x40000000;
 206:FrontPanel.c  ****                 writeFrontPanelLEDs(LEDsVal);       // Leave LED on
 207:FrontPanel.c  ****                 CyDelay(250);
 208:FrontPanel.c  ****                 LEDsVal &= 0x00ffffff;
 209:FrontPanel.c  ****                 writeFrontPanelLEDs(LEDsVal);       // Turn off LED
 210:FrontPanel.c  ****             }
 211:FrontPanel.c  ****             else if ((switchesVal & 0x80000000) == 0x80000000)  // Exit front panel without releasi
 212:FrontPanel.c  ****             {
 213:FrontPanel.c  ****                 LEDsVal = 0x80000000;
 214:FrontPanel.c  ****                 writeFrontPanelLEDs(LEDsVal);       // Leave LED on
 215:FrontPanel.c  ****                 return;
 216:FrontPanel.c  ****             }
 217:FrontPanel.c  ****         }
 218:FrontPanel.c  ****         else    // Non-control switch was pressed
 219:FrontPanel.c  ****         {
 220:FrontPanel.c  ****             LEDsVal ^= switchesVal;
 221:FrontPanel.c  ****             writeFrontPanelLEDs(LEDsVal);
 222:FrontPanel.c  ****         }
 223:FrontPanel.c  ****     }
 224:FrontPanel.c  **** }
 225:FrontPanel.c  **** 
 226:FrontPanel.c  **** //////////////////////////////////////////////////////////////////////////////////////
 227:FrontPanel.c  **** // readFrontPanelSwitchesRegistered
 228:FrontPanel.c  **** //  Handler for the Pushbuttons and LEDs
 229:FrontPanel.c  **** //  Toggles the LED
 230:FrontPanel.c  **** //  Reads all four MCP23017 Port A's to make a 32-bit result
 231:FrontPanel.c  **** //  Looks for the switch to be pressed for 3 samples in a row
 232:FrontPanel.c  **** // Returns: 0 if there was no key pressed
 233:FrontPanel.c  **** //          1 if there was a key pressed
 234:FrontPanel.c  **** 
 235:FrontPanel.c  **** uint32 readFrontPanelSwitchesRegistered(void)
 236:FrontPanel.c  **** {
 237:FrontPanel.c  ****     uint32 rdVal;
 238:FrontPanel.c  ****     uint32 retVal = 0;
 239:FrontPanel.c  ****     uint32 valMin1 = 0;
 240:FrontPanel.c  ****     uint32 valMin2 = 0;
 241:FrontPanel.c  ****     uint32 valMin3 = 0;
 242:FrontPanel.c  ****     uint8 keyPressed = 0;
 243:FrontPanel.c  ****     rdVal = readFrontPanelSwitchesStatic();
 244:FrontPanel.c  ****     if (rdVal  == 0x00)     // No key is pressed at this polling
 245:FrontPanel.c  ****     {
 246:FrontPanel.c  ****         valMin1 = 0;
 247:FrontPanel.c  ****         valMin2 = 0;
 248:FrontPanel.c  ****         valMin3 = 0;
 249:FrontPanel.c  ****         return(0);
 250:FrontPanel.c  ****     }
 251:FrontPanel.c  ****     else    // key is now pressed
 252:FrontPanel.c  ****     {
 253:FrontPanel.c  ****         keyPressed = 1;
 254:FrontPanel.c  ****         while (keyPressed)  // stick around until key is no longer pressed
 255:FrontPanel.c  ****         {
 256:FrontPanel.c  ****             rdVal = readFrontPanelSwitchesStatic();
 257:FrontPanel.c  ****             if (rdVal == 0)
 258:FrontPanel.c  ****             {
ARM GAS  C:\Users\DGILLI~1\AppData\Local\Temp\ccQGZyV4.s 			page 6


 259:FrontPanel.c  ****                 keyPressed = 0;
 260:FrontPanel.c  ****                 valMin1 = 0;
 261:FrontPanel.c  ****                 valMin2 = 0;
 262:FrontPanel.c  ****                 valMin3 = 0;
 263:FrontPanel.c  ****                 return(retVal);
 264:FrontPanel.c  ****             }
 265:FrontPanel.c  ****             valMin3 = valMin2;
 266:FrontPanel.c  ****             valMin2 = valMin1;
 267:FrontPanel.c  ****             valMin1 = rdVal;
 268:FrontPanel.c  ****             if ((valMin3 == 0) && (valMin2 != 0) && (valMin1 != 0) && (rdVal != 0))
 269:FrontPanel.c  ****             {
 270:FrontPanel.c  ****                 return(valMin2);
 271:FrontPanel.c  ****             }
 272:FrontPanel.c  ****             CyDelay(10);    // 10 mS sampling for debouncing
 273:FrontPanel.c  ****         }
 274:FrontPanel.c  ****     }
 275:FrontPanel.c  ****     return (retVal);
 276:FrontPanel.c  **** }
 277:FrontPanel.c  **** 
 278:FrontPanel.c  **** //////////////////////////////////////////////////////////////////////////////////////
 279:FrontPanel.c  **** // waitFrontPanelSwitchesPressed() - Wait for switch to be pressed and return value
 280:FrontPanel.c  **** 
 281:FrontPanel.c  **** uint32 waitFrontPanelSwitchesPressed(void)
 282:FrontPanel.c  **** {
 283:FrontPanel.c  ****     uint32 switchVals = 0;
 284:FrontPanel.c  ****     while (readFrontPanelSwitchesRegistered() != 0);    // wait for previous key release
 285:FrontPanel.c  ****     while (switchVals == 0)
 286:FrontPanel.c  ****     {   
 287:FrontPanel.c  ****         switchVals = readFrontPanelSwitchesRegistered();
 288:FrontPanel.c  ****         if (switchVals != 0x0)
 289:FrontPanel.c  ****             return (switchVals);
 290:FrontPanel.c  ****     }
 291:FrontPanel.c  ****     return (0);
 292:FrontPanel.c  **** }
 293:FrontPanel.c  **** 
 294:FrontPanel.c  **** //////////////////////////////////////////////////////////////////////////////////////
 295:FrontPanel.c  **** // readFrontPanelSwitchesStatic() - Reads the current value of the actual switches
 296:FrontPanel.c  **** //  Reads all four MCP23017 Port A's to make a 32-bit result
 297:FrontPanel.c  **** 
 298:FrontPanel.c  **** uint32 readFrontPanelSwitchesStatic(void)
 299:FrontPanel.c  **** {
 300:FrontPanel.c  ****     uint32 switchVals = 0;
 301:FrontPanel.c  ****     switchVals = readRegister_MCP23017(MCP23017_0,MCP23017_GPIOA_REGADR);
 302:FrontPanel.c  ****     switchVals = switchVals<<8;
 303:FrontPanel.c  ****     switchVals |= readRegister_MCP23017(MCP23017_1,MCP23017_GPIOA_REGADR);
 304:FrontPanel.c  ****     switchVals = switchVals<<8;
 305:FrontPanel.c  ****     switchVals |= readRegister_MCP23017(MCP23017_2,MCP23017_GPIOA_REGADR);
 306:FrontPanel.c  ****     switchVals = switchVals<<8;
 307:FrontPanel.c  ****     switchVals |= readRegister_MCP23017(MCP23017_3,MCP23017_GPIOA_REGADR);
 308:FrontPanel.c  ****     return (switchVals);
 309:FrontPanel.c  **** }
 310:FrontPanel.c  **** 
 311:FrontPanel.c  **** //////////////////////////////////////////////////////////////////////////////////////
 312:FrontPanel.c  **** // writeFrontPanelLEDs(uint32) - Write a 32-bit value to the Front Panel LEDs
 313:FrontPanel.c  **** 
 314:FrontPanel.c  **** void writeFrontPanelLEDs(uint32 ledsVal)
 315:FrontPanel.c  **** {
ARM GAS  C:\Users\DGILLI~1\AppData\Local\Temp\ccQGZyV4.s 			page 7


 316:FrontPanel.c  ****     writeRegister_MCP23017(MCP23017_0,MCP23017_OLATB_REGADR,((ledsVal>>24) & 0xff));
 317:FrontPanel.c  ****     writeRegister_MCP23017(MCP23017_1,MCP23017_OLATB_REGADR,((ledsVal>>16) & 0xff));
 318:FrontPanel.c  ****     writeRegister_MCP23017(MCP23017_2,MCP23017_OLATB_REGADR,((ledsVal>>8) & 0xff));
 319:FrontPanel.c  ****     writeRegister_MCP23017(MCP23017_3,MCP23017_OLATB_REGADR,ledsVal&0xff);
 320:FrontPanel.c  **** }
 321:FrontPanel.c  **** 
 322:FrontPanel.c  **** //////////////////////////////////////////////////////////////////////////////////////
 323:FrontPanel.c  **** // I2C Low Level Hardware access functions
 324:FrontPanel.c  **** 
 325:FrontPanel.c  **** //////////////////////////////////////////////////////////////////////////////////////
 326:FrontPanel.c  **** //
 327:FrontPanel.c  **** //////////////////////////////////////////////////////////////////////////////////////
 328:FrontPanel.c  **** 
 329:FrontPanel.c  **** uint8 readRegister_MCP23017(uint8 chipAddr, uint8 ctrlAdr)
 330:FrontPanel.c  **** {
  28              		.loc 1 330 0
  29              		.cfi_startproc
  30              		@ args = 0, pretend = 0, frame = 0
  31              		@ frame_needed = 0, uses_anonymous_args = 0
  32              	.LVL0:
  33 0000 38B5     		push	{r3, r4, r5, lr}
  34              		.cfi_def_cfa_offset 16
  35              		.cfi_offset 3, -16
  36              		.cfi_offset 4, -12
  37              		.cfi_offset 5, -8
  38              		.cfi_offset 14, -4
  39 0002 0446     		mov	r4, r0
  40 0004 0D46     		mov	r5, r1
 331:FrontPanel.c  ****     uint8 rdBuff;
 332:FrontPanel.c  **** 
 333:FrontPanel.c  ****     I2C_MasterClearStatus();
  41              		.loc 1 333 0
  42 0006 FFF7FEFF 		bl	I2C_MasterClearStatus
  43              	.LVL1:
 334:FrontPanel.c  ****     I2C_MasterSendStart(chipAddr,I2C_WRITE_XFER_MODE);
  44              		.loc 1 334 0
  45 000a 0021     		movs	r1, #0
  46 000c 2046     		mov	r0, r4
  47 000e FFF7FEFF 		bl	I2C_MasterSendStart
  48              	.LVL2:
 335:FrontPanel.c  ****     I2C_MasterWriteByte(ctrlAdr);
  49              		.loc 1 335 0
  50 0012 2846     		mov	r0, r5
  51 0014 FFF7FEFF 		bl	I2C_MasterWriteByte
  52              	.LVL3:
 336:FrontPanel.c  ****     I2C_MasterSendStop();
  53              		.loc 1 336 0
  54 0018 FFF7FEFF 		bl	I2C_MasterSendStop
  55              	.LVL4:
 337:FrontPanel.c  ****     I2C_MasterSendStart(chipAddr,I2C_READ_XFER_MODE);
  56              		.loc 1 337 0
  57 001c 0121     		movs	r1, #1
  58 001e 2046     		mov	r0, r4
  59 0020 FFF7FEFF 		bl	I2C_MasterSendStart
  60              	.LVL5:
 338:FrontPanel.c  ****     rdBuff = I2C_MasterReadByte(I2C_NAK_DATA);
  61              		.loc 1 338 0
ARM GAS  C:\Users\DGILLI~1\AppData\Local\Temp\ccQGZyV4.s 			page 8


  62 0024 0020     		movs	r0, #0
  63 0026 FFF7FEFF 		bl	I2C_MasterReadByte
  64              	.LVL6:
  65 002a 0446     		mov	r4, r0
  66              	.LVL7:
 339:FrontPanel.c  ****     I2C_MasterSendStop();
  67              		.loc 1 339 0
  68 002c FFF7FEFF 		bl	I2C_MasterSendStop
  69              	.LVL8:
 340:FrontPanel.c  ****     I2C_MasterClearStatus();
  70              		.loc 1 340 0
  71 0030 FFF7FEFF 		bl	I2C_MasterClearStatus
  72              	.LVL9:
 341:FrontPanel.c  ****     return rdBuff;
 342:FrontPanel.c  **** 
 343:FrontPanel.c  **** }
  73              		.loc 1 343 0
  74 0034 2046     		mov	r0, r4
  75 0036 38BD     		pop	{r3, r4, r5, pc}
  76              		.cfi_endproc
  77              	.LFE71:
  78              		.size	readRegister_MCP23017, .-readRegister_MCP23017
  79              		.section	.text.readFrontPanelSwitchesStatic,"ax",%progbits
  80              		.align	2
  81              		.global	readFrontPanelSwitchesStatic
  82              		.thumb
  83              		.thumb_func
  84              		.type	readFrontPanelSwitchesStatic, %function
  85              	readFrontPanelSwitchesStatic:
  86              	.LFB69:
 299:FrontPanel.c  ****     uint32 switchVals = 0;
  87              		.loc 1 299 0
  88              		.cfi_startproc
  89              		@ args = 0, pretend = 0, frame = 0
  90              		@ frame_needed = 0, uses_anonymous_args = 0
  91 0000 10B5     		push	{r4, lr}
  92              		.cfi_def_cfa_offset 8
  93              		.cfi_offset 4, -8
  94              		.cfi_offset 14, -4
  95              	.LVL10:
 301:FrontPanel.c  ****     switchVals = switchVals<<8;
  96              		.loc 1 301 0
  97 0002 1221     		movs	r1, #18
  98 0004 2420     		movs	r0, #36
  99 0006 FFF7FEFF 		bl	readRegister_MCP23017
 100              	.LVL11:
 302:FrontPanel.c  ****     switchVals |= readRegister_MCP23017(MCP23017_1,MCP23017_GPIOA_REGADR);
 101              		.loc 1 302 0
 102 000a 0402     		lsls	r4, r0, #8
 103              	.LVL12:
 303:FrontPanel.c  ****     switchVals = switchVals<<8;
 104              		.loc 1 303 0
 105 000c 1221     		movs	r1, #18
 106 000e 2520     		movs	r0, #37
 107 0010 FFF7FEFF 		bl	readRegister_MCP23017
 108              	.LVL13:
 109 0014 2043     		orrs	r0, r0, r4
ARM GAS  C:\Users\DGILLI~1\AppData\Local\Temp\ccQGZyV4.s 			page 9


 110              	.LVL14:
 304:FrontPanel.c  ****     switchVals |= readRegister_MCP23017(MCP23017_2,MCP23017_GPIOA_REGADR);
 111              		.loc 1 304 0
 112 0016 0402     		lsls	r4, r0, #8
 113              	.LVL15:
 305:FrontPanel.c  ****     switchVals = switchVals<<8;
 114              		.loc 1 305 0
 115 0018 1221     		movs	r1, #18
 116 001a 2620     		movs	r0, #38
 117 001c FFF7FEFF 		bl	readRegister_MCP23017
 118              	.LVL16:
 119 0020 2043     		orrs	r0, r0, r4
 120              	.LVL17:
 306:FrontPanel.c  ****     switchVals |= readRegister_MCP23017(MCP23017_3,MCP23017_GPIOA_REGADR);
 121              		.loc 1 306 0
 122 0022 0402     		lsls	r4, r0, #8
 123              	.LVL18:
 307:FrontPanel.c  ****     return (switchVals);
 124              		.loc 1 307 0
 125 0024 1221     		movs	r1, #18
 126 0026 2720     		movs	r0, #39
 127 0028 FFF7FEFF 		bl	readRegister_MCP23017
 128              	.LVL19:
 309:FrontPanel.c  **** 
 129              		.loc 1 309 0
 130 002c 2043     		orrs	r0, r0, r4
 131              	.LVL20:
 132 002e 10BD     		pop	{r4, pc}
 133              		.cfi_endproc
 134              	.LFE69:
 135              		.size	readFrontPanelSwitchesStatic, .-readFrontPanelSwitchesStatic
 136              		.section	.text.FrontPanelZ80Read,"ax",%progbits
 137              		.align	2
 138              		.global	FrontPanelZ80Read
 139              		.thumb
 140              		.thumb_func
 141              		.type	FrontPanelZ80Read, %function
 142              	FrontPanelZ80Read:
 143              	.LFB63:
  51:FrontPanel.c  ****     uint32 fpVal = readFrontPanelSwitchesStatic();
 144              		.loc 1 51 0
 145              		.cfi_startproc
 146              		@ args = 0, pretend = 0, frame = 0
 147              		@ frame_needed = 0, uses_anonymous_args = 0
 148              	.LVL21:
 149 0000 08B5     		push	{r3, lr}
 150              		.cfi_def_cfa_offset 8
 151              		.cfi_offset 3, -8
 152              		.cfi_offset 14, -4
  52:FrontPanel.c  ****     uint8 fpByte;
 153              		.loc 1 52 0
 154 0002 FFF7FEFF 		bl	readFrontPanelSwitchesStatic
 155              	.LVL22:
  69:FrontPanel.c  ****     ackIO();
 156              		.loc 1 69 0
 157 0006 C0B2     		uxtb	r0, r0
 158              	.LVL23:
ARM GAS  C:\Users\DGILLI~1\AppData\Local\Temp\ccQGZyV4.s 			page 10


 159 0008 FFF7FEFF 		bl	Z80_Data_In_Write
 160              	.LVL24:
  70:FrontPanel.c  **** }
 161              		.loc 1 70 0
 162 000c FFF7FEFF 		bl	ackIO
 163              	.LVL25:
 164 0010 08BD     		pop	{r3, pc}
 165              		.cfi_endproc
 166              	.LFE63:
 167              		.size	FrontPanelZ80Read, .-FrontPanelZ80Read
 168 0012 00BF     		.section	.text.readFrontPanelSwitchesRegistered,"ax",%progbits
 169              		.align	2
 170              		.global	readFrontPanelSwitchesRegistered
 171              		.thumb
 172              		.thumb_func
 173              		.type	readFrontPanelSwitchesRegistered, %function
 174              	readFrontPanelSwitchesRegistered:
 175              	.LFB67:
 236:FrontPanel.c  ****     uint32 rdVal;
 176              		.loc 1 236 0
 177              		.cfi_startproc
 178              		@ args = 0, pretend = 0, frame = 0
 179              		@ frame_needed = 0, uses_anonymous_args = 0
 180 0000 70B5     		push	{r4, r5, r6, lr}
 181              		.cfi_def_cfa_offset 16
 182              		.cfi_offset 4, -16
 183              		.cfi_offset 5, -12
 184              		.cfi_offset 6, -8
 185              		.cfi_offset 14, -4
 186              	.LVL26:
 243:FrontPanel.c  ****     if (rdVal  == 0x00)     // No key is pressed at this polling
 187              		.loc 1 243 0
 188 0002 FFF7FEFF 		bl	readFrontPanelSwitchesStatic
 189              	.LVL27:
 244:FrontPanel.c  ****     {
 190              		.loc 1 244 0
 191 0006 88B1     		cbz	r0, .L12
 192 0008 0026     		movs	r6, #0
 193 000a 3446     		mov	r4, r6
 194 000c 08E0     		b	.L9
 195              	.LVL28:
 196              	.L11:
 268:FrontPanel.c  ****             {
 197              		.loc 1 268 0
 198 000e 16B9     		cbnz	r6, .L10
 268:FrontPanel.c  ****             {
 199              		.loc 1 268 0 is_stmt 0 discriminator 1
 200 0010 0CB1     		cbz	r4, .L10
 268:FrontPanel.c  ****             {
 201              		.loc 1 268 0 discriminator 2
 202 0012 05B1     		cbz	r5, .L10
 268:FrontPanel.c  ****             {
 203              		.loc 1 268 0 discriminator 3
 204 0014 65B9     		cbnz	r5, .L13
 205              	.L10:
 272:FrontPanel.c  ****         }
 206              		.loc 1 272 0 is_stmt 1
ARM GAS  C:\Users\DGILLI~1\AppData\Local\Temp\ccQGZyV4.s 			page 11


 207 0016 0A20     		movs	r0, #10
 208              	.LVL29:
 209 0018 FFF7FEFF 		bl	CyDelay
 210              	.LVL30:
 266:FrontPanel.c  ****             valMin1 = rdVal;
 211              		.loc 1 266 0
 212 001c 2646     		mov	r6, r4
 213              	.LVL31:
 267:FrontPanel.c  ****             if ((valMin3 == 0) && (valMin2 != 0) && (valMin1 != 0) && (rdVal != 0))
 214              		.loc 1 267 0
 215 001e 2C46     		mov	r4, r5
 216              	.LVL32:
 217              	.L9:
 256:FrontPanel.c  ****             if (rdVal == 0)
 218              		.loc 1 256 0
 219 0020 FFF7FEFF 		bl	readFrontPanelSwitchesStatic
 220              	.LVL33:
 257:FrontPanel.c  ****             {
 221              		.loc 1 257 0
 222 0024 0546     		mov	r5, r0
 223 0026 0028     		cmp	r0, #0
 224 0028 F1D1     		bne	.L11
 225 002a 70BD     		pop	{r4, r5, r6, pc}
 226              	.LVL34:
 227              	.L12:
 249:FrontPanel.c  ****     }
 228              		.loc 1 249 0
 229 002c 0020     		movs	r0, #0
 230              	.LVL35:
 231 002e 70BD     		pop	{r4, r5, r6, pc}
 232              	.LVL36:
 233              	.L13:
 270:FrontPanel.c  ****             }
 234              		.loc 1 270 0
 235 0030 2046     		mov	r0, r4
 236              	.LVL37:
 276:FrontPanel.c  **** 
 237              		.loc 1 276 0
 238 0032 70BD     		pop	{r4, r5, r6, pc}
 239              		.cfi_endproc
 240              	.LFE67:
 241              		.size	readFrontPanelSwitchesRegistered, .-readFrontPanelSwitchesRegistered
 242              		.section	.text.waitFrontPanelSwitchesPressed,"ax",%progbits
 243              		.align	2
 244              		.global	waitFrontPanelSwitchesPressed
 245              		.thumb
 246              		.thumb_func
 247              		.type	waitFrontPanelSwitchesPressed, %function
 248              	waitFrontPanelSwitchesPressed:
 249              	.LFB68:
 282:FrontPanel.c  ****     uint32 switchVals = 0;
 250              		.loc 1 282 0
 251              		.cfi_startproc
 252              		@ args = 0, pretend = 0, frame = 0
 253              		@ frame_needed = 0, uses_anonymous_args = 0
 254 0000 10B5     		push	{r4, lr}
 255              		.cfi_def_cfa_offset 8
ARM GAS  C:\Users\DGILLI~1\AppData\Local\Temp\ccQGZyV4.s 			page 12


 256              		.cfi_offset 4, -8
 257              		.cfi_offset 14, -4
 258              	.L16:
 284:FrontPanel.c  ****     while (switchVals == 0)
 259              		.loc 1 284 0 discriminator 1
 260 0002 FFF7FEFF 		bl	readFrontPanelSwitchesRegistered
 261              	.LVL38:
 262 0006 0028     		cmp	r0, #0
 263 0008 FBD1     		bne	.L16
 264 000a 0446     		mov	r4, r0
 265 000c 0023     		movs	r3, #0
 266 000e 03E0     		b	.L17
 267              	.LVL39:
 268              	.L19:
 287:FrontPanel.c  ****         if (switchVals != 0x0)
 269              		.loc 1 287 0
 270 0010 FFF7FEFF 		bl	readFrontPanelSwitchesRegistered
 271              	.LVL40:
 288:FrontPanel.c  ****             return (switchVals);
 272              		.loc 1 288 0
 273 0014 0346     		mov	r3, r0
 274 0016 10B9     		cbnz	r0, .L20
 275              	.LVL41:
 276              	.L17:
 285:FrontPanel.c  ****     {   
 277              		.loc 1 285 0
 278 0018 002B     		cmp	r3, #0
 279 001a F9D0     		beq	.L19
 280 001c 00E0     		b	.L18
 281              	.LVL42:
 282              	.L20:
 289:FrontPanel.c  ****     }
 283              		.loc 1 289 0
 284 001e 0446     		mov	r4, r0
 285              	.LVL43:
 286              	.L18:
 292:FrontPanel.c  **** 
 287              		.loc 1 292 0
 288 0020 2046     		mov	r0, r4
 289 0022 10BD     		pop	{r4, pc}
 290              		.cfi_endproc
 291              	.LFE68:
 292              		.size	waitFrontPanelSwitchesPressed, .-waitFrontPanelSwitchesPressed
 293              		.section	.text.writeRegister_MCP23017,"ax",%progbits
 294              		.align	2
 295              		.global	writeRegister_MCP23017
 296              		.thumb
 297              		.thumb_func
 298              		.type	writeRegister_MCP23017, %function
 299              	writeRegister_MCP23017:
 300              	.LFB72:
 344:FrontPanel.c  **** 
 345:FrontPanel.c  **** //////////////////////////////////////////////////////////////////////////////////////
 346:FrontPanel.c  **** //
 347:FrontPanel.c  **** //////////////////////////////////////////////////////////////////////////////////////
 348:FrontPanel.c  **** 
 349:FrontPanel.c  **** void writeRegister_MCP23017(uint8 chipAddr, uint8 ctrlAdr, uint8 ctrlVal)
ARM GAS  C:\Users\DGILLI~1\AppData\Local\Temp\ccQGZyV4.s 			page 13


 350:FrontPanel.c  **** {
 301              		.loc 1 350 0
 302              		.cfi_startproc
 303              		@ args = 0, pretend = 0, frame = 8
 304              		@ frame_needed = 0, uses_anonymous_args = 0
 305              	.LVL44:
 306 0000 70B5     		push	{r4, r5, r6, lr}
 307              		.cfi_def_cfa_offset 16
 308              		.cfi_offset 4, -16
 309              		.cfi_offset 5, -12
 310              		.cfi_offset 6, -8
 311              		.cfi_offset 14, -4
 312 0002 82B0     		sub	sp, sp, #8
 313              		.cfi_def_cfa_offset 24
 314 0004 0446     		mov	r4, r0
 315 0006 0E46     		mov	r6, r1
 316 0008 1546     		mov	r5, r2
 351:FrontPanel.c  **** uint8 MCP23017_WrBuffer[2];
 352:FrontPanel.c  ****     I2C_MasterClearStatus();
 317              		.loc 1 352 0
 318 000a FFF7FEFF 		bl	I2C_MasterClearStatus
 319              	.LVL45:
 353:FrontPanel.c  ****     MCP23017_WrBuffer[0] = ctrlAdr;
 320              		.loc 1 353 0
 321 000e 8DF80460 		strb	r6, [sp, #4]
 354:FrontPanel.c  ****     MCP23017_WrBuffer[1] = ctrlVal;
 322              		.loc 1 354 0
 323 0012 8DF80550 		strb	r5, [sp, #5]
 355:FrontPanel.c  ****     I2C_MasterWriteBuf(chipAddr, MCP23017_WrBuffer, 2, I2C_MODE_COMPLETE_XFER);
 324              		.loc 1 355 0
 325 0016 0023     		movs	r3, #0
 326 0018 0222     		movs	r2, #2
 327 001a 01A9     		add	r1, sp, #4
 328 001c 2046     		mov	r0, r4
 329 001e FFF7FEFF 		bl	I2C_MasterWriteBuf
 330              	.LVL46:
 331              	.L23:
 356:FrontPanel.c  ****     while (0u == (I2C_MasterStatus() & I2C_MSTAT_WR_CMPLT));
 332              		.loc 1 356 0 discriminator 1
 333 0022 FFF7FEFF 		bl	I2C_MasterStatus
 334              	.LVL47:
 335 0026 10F0020F 		tst	r0, #2
 336 002a FAD0     		beq	.L23
 357:FrontPanel.c  ****     I2C_MasterClearStatus();
 337              		.loc 1 357 0
 338 002c FFF7FEFF 		bl	I2C_MasterClearStatus
 339              	.LVL48:
 358:FrontPanel.c  **** }
 340              		.loc 1 358 0
 341 0030 02B0     		add	sp, sp, #8
 342              		.cfi_def_cfa_offset 16
 343              		@ sp needed
 344 0032 70BD     		pop	{r4, r5, r6, pc}
 345              		.cfi_endproc
 346              	.LFE72:
 347              		.size	writeRegister_MCP23017, .-writeRegister_MCP23017
 348              		.section	.text.init_FrontPanel,"ax",%progbits
ARM GAS  C:\Users\DGILLI~1\AppData\Local\Temp\ccQGZyV4.s 			page 14


 349              		.align	2
 350              		.global	init_FrontPanel
 351              		.thumb
 352              		.thumb_func
 353              		.type	init_FrontPanel, %function
 354              	init_FrontPanel:
 355              	.LFB65:
 102:FrontPanel.c  ****     uint8 chipAddr;
 356              		.loc 1 102 0
 357              		.cfi_startproc
 358              		@ args = 0, pretend = 0, frame = 0
 359              		@ frame_needed = 0, uses_anonymous_args = 0
 360 0000 10B5     		push	{r4, lr}
 361              		.cfi_def_cfa_offset 8
 362              		.cfi_offset 4, -8
 363              		.cfi_offset 14, -4
 364              	.LVL49:
 104:FrontPanel.c  ****     {
 365              		.loc 1 104 0
 366 0002 2424     		movs	r4, #36
 367 0004 37E0     		b	.L26
 368              	.LVL50:
 369              	.L27:
 106:FrontPanel.c  ****         writeRegister_MCP23017(chipAddr,MCP23017_IODIRB_REGADR,MCP23017_IODIR_ALL_OUTS);    // IO: 
 370              		.loc 1 106 0 discriminator 3
 371 0006 FF22     		movs	r2, #255
 372 0008 0021     		movs	r1, #0
 373 000a 2046     		mov	r0, r4
 374 000c FFF7FEFF 		bl	writeRegister_MCP23017
 375              	.LVL51:
 107:FrontPanel.c  ****         writeRegister_MCP23017(chipAddr,MCP23017_IPOLA_REGADR,MCP23017_IPOL_INVERT);        // IP: 
 376              		.loc 1 107 0 discriminator 3
 377 0010 0022     		movs	r2, #0
 378 0012 0121     		movs	r1, #1
 379 0014 2046     		mov	r0, r4
 380 0016 FFF7FEFF 		bl	writeRegister_MCP23017
 381              	.LVL52:
 108:FrontPanel.c  ****         writeRegister_MCP23017(chipAddr,MCP23017_GPINTENA_REGADR,MCP23017_GPINTEN_ENABLE);  // GPIN
 382              		.loc 1 108 0 discriminator 3
 383 001a FF22     		movs	r2, #255
 384 001c 0221     		movs	r1, #2
 385 001e 2046     		mov	r0, r4
 386 0020 FFF7FEFF 		bl	writeRegister_MCP23017
 387              	.LVL53:
 109:FrontPanel.c  ****         writeRegister_MCP23017(chipAddr,MCP23017_GPINTENB_REGADR,MCP23017_GPINTEN_DISABLE); // GPIN
 388              		.loc 1 109 0 discriminator 3
 389 0024 FF22     		movs	r2, #255
 390 0026 0421     		movs	r1, #4
 391 0028 2046     		mov	r0, r4
 392 002a FFF7FEFF 		bl	writeRegister_MCP23017
 393              	.LVL54:
 110:FrontPanel.c  ****         writeRegister_MCP23017(chipAddr,MCP23017_DEFVALA_REGADR,0xFF);                      // Defa
 394              		.loc 1 110 0 discriminator 3
 395 002e 0022     		movs	r2, #0
 396 0030 0521     		movs	r1, #5
 397 0032 2046     		mov	r0, r4
 398 0034 FFF7FEFF 		bl	writeRegister_MCP23017
ARM GAS  C:\Users\DGILLI~1\AppData\Local\Temp\ccQGZyV4.s 			page 15


 399              	.LVL55:
 111:FrontPanel.c  ****         writeRegister_MCP23017(chipAddr,MCP23017_INTCONA_REGADR,MCP23017_INTCON_DEFVAL);    // Int 
 400              		.loc 1 111 0 discriminator 3
 401 0038 FF22     		movs	r2, #255
 402 003a 0621     		movs	r1, #6
 403 003c 2046     		mov	r0, r4
 404 003e FFF7FEFF 		bl	writeRegister_MCP23017
 405              	.LVL56:
 112:FrontPanel.c  ****         writeRegister_MCP23017(chipAddr,MCP23017_IOCONA_REGADR,MCP23017_IOCON_DEFVAL);      // BANK
 406              		.loc 1 112 0 discriminator 3
 407 0042 0022     		movs	r2, #0
 408 0044 0821     		movs	r1, #8
 409 0046 2046     		mov	r0, r4
 410 0048 FFF7FEFF 		bl	writeRegister_MCP23017
 411              	.LVL57:
 113:FrontPanel.c  ****                                                                                             // MIRR
 412              		.loc 1 113 0 discriminator 3
 413 004c 0422     		movs	r2, #4
 414 004e 0A21     		movs	r1, #10
 415 0050 2046     		mov	r0, r4
 416 0052 FFF7FEFF 		bl	writeRegister_MCP23017
 417              	.LVL58:
 119:FrontPanel.c  ****         writeRegister_MCP23017(chipAddr,MCP23017_GPPUA_REGADR,MCP23017_GPPU_ENABLE);        // Pull
 418              		.loc 1 119 0 discriminator 3
 419 0056 0422     		movs	r2, #4
 420 0058 0B21     		movs	r1, #11
 421 005a 2046     		mov	r0, r4
 422 005c FFF7FEFF 		bl	writeRegister_MCP23017
 423              	.LVL59:
 120:FrontPanel.c  ****         readRegister_MCP23017(chipAddr,MCP23017_INTCAPA_REGADR);                            // Clea
 424              		.loc 1 120 0 discriminator 3
 425 0060 FF22     		movs	r2, #255
 426 0062 0C21     		movs	r1, #12
 427 0064 2046     		mov	r0, r4
 428 0066 FFF7FEFF 		bl	writeRegister_MCP23017
 429              	.LVL60:
 121:FrontPanel.c  ****     }
 430              		.loc 1 121 0 discriminator 3
 431 006a 1021     		movs	r1, #16
 432 006c 2046     		mov	r0, r4
 433 006e FFF7FEFF 		bl	readRegister_MCP23017
 434              	.LVL61:
 104:FrontPanel.c  ****     {
 435              		.loc 1 104 0 discriminator 3
 436 0072 0134     		adds	r4, r4, #1
 437              	.LVL62:
 438 0074 E4B2     		uxtb	r4, r4
 439              	.LVL63:
 440              	.L26:
 104:FrontPanel.c  ****     {
 441              		.loc 1 104 0 is_stmt 0 discriminator 1
 442 0076 272C     		cmp	r4, #39
 443 0078 C5D9     		bls	.L27
 123:FrontPanel.c  ****     FPAddr = 0;
 444              		.loc 1 123 0 is_stmt 1
 445 007a 0023     		movs	r3, #0
 446 007c 044A     		ldr	r2, .L29
ARM GAS  C:\Users\DGILLI~1\AppData\Local\Temp\ccQGZyV4.s 			page 16


 447 007e 1370     		strb	r3, [r2]
 124:FrontPanel.c  ****     FPCtrl = 0;
 448              		.loc 1 124 0
 449 0080 044A     		ldr	r2, .L29+4
 450 0082 1380     		strh	r3, [r2]	@ movhi
 125:FrontPanel.c  ****     FPLong = 0;
 451              		.loc 1 125 0
 452 0084 044A     		ldr	r2, .L29+8
 453 0086 1370     		strb	r3, [r2]
 126:FrontPanel.c  **** }
 454              		.loc 1 126 0
 455 0088 044A     		ldr	r2, .L29+12
 456 008a 1360     		str	r3, [r2]
 457 008c 10BD     		pop	{r4, pc}
 458              	.LVL64:
 459              	.L30:
 460 008e 00BF     		.align	2
 461              	.L29:
 462 0090 00000000 		.word	FPData
 463 0094 00000000 		.word	FPAddr
 464 0098 00000000 		.word	FPCtrl
 465 009c 00000000 		.word	FPLong
 466              		.cfi_endproc
 467              	.LFE65:
 468              		.size	init_FrontPanel, .-init_FrontPanel
 469              		.section	.text.writeFrontPanelLEDs,"ax",%progbits
 470              		.align	2
 471              		.global	writeFrontPanelLEDs
 472              		.thumb
 473              		.thumb_func
 474              		.type	writeFrontPanelLEDs, %function
 475              	writeFrontPanelLEDs:
 476              	.LFB70:
 315:FrontPanel.c  ****     writeRegister_MCP23017(MCP23017_0,MCP23017_OLATB_REGADR,((ledsVal>>24) & 0xff));
 477              		.loc 1 315 0
 478              		.cfi_startproc
 479              		@ args = 0, pretend = 0, frame = 0
 480              		@ frame_needed = 0, uses_anonymous_args = 0
 481              	.LVL65:
 482 0000 10B5     		push	{r4, lr}
 483              		.cfi_def_cfa_offset 8
 484              		.cfi_offset 4, -8
 485              		.cfi_offset 14, -4
 486 0002 0446     		mov	r4, r0
 316:FrontPanel.c  ****     writeRegister_MCP23017(MCP23017_1,MCP23017_OLATB_REGADR,((ledsVal>>16) & 0xff));
 487              		.loc 1 316 0
 488 0004 020E     		lsrs	r2, r0, #24
 489 0006 1521     		movs	r1, #21
 490 0008 2420     		movs	r0, #36
 491              	.LVL66:
 492 000a FFF7FEFF 		bl	writeRegister_MCP23017
 493              	.LVL67:
 317:FrontPanel.c  ****     writeRegister_MCP23017(MCP23017_2,MCP23017_OLATB_REGADR,((ledsVal>>8) & 0xff));
 494              		.loc 1 317 0
 495 000e C4F30742 		ubfx	r2, r4, #16, #8
 496 0012 1521     		movs	r1, #21
 497 0014 2520     		movs	r0, #37
ARM GAS  C:\Users\DGILLI~1\AppData\Local\Temp\ccQGZyV4.s 			page 17


 498 0016 FFF7FEFF 		bl	writeRegister_MCP23017
 499              	.LVL68:
 318:FrontPanel.c  ****     writeRegister_MCP23017(MCP23017_3,MCP23017_OLATB_REGADR,ledsVal&0xff);
 500              		.loc 1 318 0
 501 001a C4F30722 		ubfx	r2, r4, #8, #8
 502 001e 1521     		movs	r1, #21
 503 0020 2620     		movs	r0, #38
 504 0022 FFF7FEFF 		bl	writeRegister_MCP23017
 505              	.LVL69:
 319:FrontPanel.c  **** }
 506              		.loc 1 319 0
 507 0026 E2B2     		uxtb	r2, r4
 508 0028 1521     		movs	r1, #21
 509 002a 2720     		movs	r0, #39
 510 002c FFF7FEFF 		bl	writeRegister_MCP23017
 511              	.LVL70:
 512 0030 10BD     		pop	{r4, pc}
 513              		.cfi_endproc
 514              	.LFE70:
 515              		.size	writeFrontPanelLEDs, .-writeFrontPanelLEDs
 516 0032 00BF     		.section	.text.FrontPanelZ80Write,"ax",%progbits
 517              		.align	2
 518              		.global	FrontPanelZ80Write
 519              		.thumb
 520              		.thumb_func
 521              		.type	FrontPanelZ80Write, %function
 522              	FrontPanelZ80Write:
 523              	.LFB64:
  77:FrontPanel.c  ****     uint32 outVal = Z80_Data_Out_Read();
 524              		.loc 1 77 0
 525              		.cfi_startproc
 526              		@ args = 0, pretend = 0, frame = 0
 527              		@ frame_needed = 0, uses_anonymous_args = 0
 528              	.LVL71:
 529 0000 10B5     		push	{r4, lr}
 530              		.cfi_def_cfa_offset 8
 531              		.cfi_offset 4, -8
 532              		.cfi_offset 14, -4
 533 0002 0446     		mov	r4, r0
  78:FrontPanel.c  ****     switch (portSelect & 0x3)
 534              		.loc 1 78 0
 535 0004 FFF7FEFF 		bl	Z80_Data_Out_Read
 536              	.LVL72:
  79:FrontPanel.c  ****     {
 537              		.loc 1 79 0
 538 0008 04F00303 		and	r3, r4, #3
 539 000c 032B     		cmp	r3, #3
 540 000e 21D8     		bhi	.L34
 541 0010 DFE803F0 		tbb	[pc, r3]
 542              	.L36:
 543 0014 02       		.byte	(.L35-.L36)/2
 544 0015 09       		.byte	(.L37-.L36)/2
 545 0016 11       		.byte	(.L38-.L36)/2
 546 0017 19       		.byte	(.L39-.L36)/2
 547              		.p2align 1
 548              	.L35:
  82:FrontPanel.c  ****             break;
ARM GAS  C:\Users\DGILLI~1\AppData\Local\Temp\ccQGZyV4.s 			page 18


 549              		.loc 1 82 0
 550 0018 60F0FF00 		orn	r0, r0, #255
 551              	.LVL73:
 552 001c 114B     		ldr	r3, .L41
 553 001e 1A68     		ldr	r2, [r3]
 554 0020 1040     		ands	r0, r0, r2
 555 0022 1860     		str	r0, [r3]
  83:FrontPanel.c  ****         case 1:
 556              		.loc 1 83 0
 557 0024 16E0     		b	.L34
 558              	.LVL74:
 559              	.L37:
  85:FrontPanel.c  ****             break;
 560              		.loc 1 85 0
 561 0026 0002     		lsls	r0, r0, #8
 562              	.LVL75:
 563 0028 60F47F40 		orn	r0, r0, #65280
 564 002c 0D4B     		ldr	r3, .L41
 565 002e 1A68     		ldr	r2, [r3]
 566 0030 1040     		ands	r0, r0, r2
 567 0032 1860     		str	r0, [r3]
  86:FrontPanel.c  ****         case 2:
 568              		.loc 1 86 0
 569 0034 0EE0     		b	.L34
 570              	.LVL76:
 571              	.L38:
  88:FrontPanel.c  ****             break;
 572              		.loc 1 88 0
 573 0036 0004     		lsls	r0, r0, #16
 574              	.LVL77:
 575 0038 60F47F00 		orn	r0, r0, #16711680
 576 003c 094B     		ldr	r3, .L41
 577 003e 1A68     		ldr	r2, [r3]
 578 0040 1040     		ands	r0, r0, r2
 579 0042 1860     		str	r0, [r3]
  89:FrontPanel.c  ****         case 3:
 580              		.loc 1 89 0
 581 0044 06E0     		b	.L34
 582              	.LVL78:
 583              	.L39:
  91:FrontPanel.c  ****             break;
 584              		.loc 1 91 0
 585 0046 0006     		lsls	r0, r0, #24
 586              	.LVL79:
 587 0048 60F07F40 		orn	r0, r0, #-16777216
 588 004c 054B     		ldr	r3, .L41
 589 004e 1A68     		ldr	r2, [r3]
 590 0050 1040     		ands	r0, r0, r2
 591 0052 1860     		str	r0, [r3]
 592              	.L34:
  94:FrontPanel.c  ****     ackIO();
 593              		.loc 1 94 0
 594 0054 034B     		ldr	r3, .L41
 595 0056 1878     		ldrb	r0, [r3]	@ zero_extendqisi2
 596 0058 FFF7FEFF 		bl	writeFrontPanelLEDs
 597              	.LVL80:
  95:FrontPanel.c  **** }
ARM GAS  C:\Users\DGILLI~1\AppData\Local\Temp\ccQGZyV4.s 			page 19


 598              		.loc 1 95 0
 599 005c FFF7FEFF 		bl	ackIO
 600              	.LVL81:
 601 0060 10BD     		pop	{r4, pc}
 602              	.L42:
 603 0062 00BF     		.align	2
 604              	.L41:
 605 0064 00000000 		.word	LEDsVal
 606              		.cfi_endproc
 607              	.LFE64:
 608              		.size	FrontPanelZ80Write, .-FrontPanelZ80Write
 609              		.section	.text.runFrontPanel,"ax",%progbits
 610              		.align	2
 611              		.global	runFrontPanel
 612              		.thumb
 613              		.thumb_func
 614              		.type	runFrontPanel, %function
 615              	runFrontPanel:
 616              	.LFB66:
 134:FrontPanel.c  ****     uint32 switchesVal = 0;
 617              		.loc 1 134 0
 618              		.cfi_startproc
 619              		@ args = 0, pretend = 0, frame = 0
 620              		@ frame_needed = 0, uses_anonymous_args = 0
 621 0000 10B5     		push	{r4, lr}
 622              		.cfi_def_cfa_offset 8
 623              		.cfi_offset 4, -8
 624              		.cfi_offset 14, -4
 625              	.LVL82:
 136:FrontPanel.c  ****     
 626              		.loc 1 136 0
 627 0002 684C     		ldr	r4, .L58
 628 0004 0023     		movs	r3, #0
 629 0006 2360     		str	r3, [r4]
 138:FrontPanel.c  ****     init_FrontPanel();
 630              		.loc 1 138 0
 631 0008 FFF7FEFF 		bl	I2C_Start
 632              	.LVL83:
 139:FrontPanel.c  ****     // Bounce LEDs
 633              		.loc 1 139 0
 634 000c FFF7FEFF 		bl	init_FrontPanel
 635              	.LVL84:
 141:FrontPanel.c  ****     {
 636              		.loc 1 141 0
 637 0010 0123     		movs	r3, #1
 638 0012 2360     		str	r3, [r4]
 639 0014 08E0     		b	.L44
 640              	.L45:
 143:FrontPanel.c  ****         CyDelay(50);
 641              		.loc 1 143 0 discriminator 3
 642 0016 FFF7FEFF 		bl	writeFrontPanelLEDs
 643              	.LVL85:
 144:FrontPanel.c  ****     }
 644              		.loc 1 144 0 discriminator 3
 645 001a 3220     		movs	r0, #50
 646 001c FFF7FEFF 		bl	CyDelay
 647              	.LVL86:
ARM GAS  C:\Users\DGILLI~1\AppData\Local\Temp\ccQGZyV4.s 			page 20


 141:FrontPanel.c  ****     {
 648              		.loc 1 141 0 discriminator 3
 649 0020 604A     		ldr	r2, .L58
 650 0022 1368     		ldr	r3, [r2]
 651 0024 5B00     		lsls	r3, r3, #1
 652 0026 1360     		str	r3, [r2]
 653              	.L44:
 141:FrontPanel.c  ****     {
 654              		.loc 1 141 0 is_stmt 0 discriminator 1
 655 0028 5E4B     		ldr	r3, .L58
 656 002a 1868     		ldr	r0, [r3]
 657 002c 0028     		cmp	r0, #0
 658 002e F2D1     		bne	.L45
 146:FrontPanel.c  ****     writeFrontPanelLEDs(LEDsVal);       // clears LEDs
 659              		.loc 1 146 0 is_stmt 1
 660 0030 FFF7FEFF 		bl	ReadExtSRAM
 661              	.LVL87:
 662 0034 5B4A     		ldr	r2, .L58
 663 0036 1368     		ldr	r3, [r2]
 664 0038 1843     		orrs	r0, r0, r3
 665 003a 1060     		str	r0, [r2]
 147:FrontPanel.c  ****     for(;;)                     // Loop forever
 666              		.loc 1 147 0
 667 003c FFF7FEFF 		bl	writeFrontPanelLEDs
 668              	.LVL88:
 669              	.L46:
 150:FrontPanel.c  ****         if ((switchesVal & 0xff000000) != 0)    // Control switch on top row was pressed
 670              		.loc 1 150 0
 671 0040 FFF7FEFF 		bl	waitFrontPanelSwitchesPressed
 672              	.LVL89:
 151:FrontPanel.c  ****         {
 673              		.loc 1 151 0
 674 0044 10F07F4F 		tst	r0, #-16777216
 675 0048 00F0A580 		beq	.L47
 153:FrontPanel.c  ****             {
 676              		.loc 1 153 0
 677 004c 10F0807F 		tst	r0, #16777216
 678 0050 17D0     		beq	.L48
 155:FrontPanel.c  ****                 writeFrontPanelLEDs(LEDsVal);
 679              		.loc 1 155 0
 680 0052 544C     		ldr	r4, .L58
 681 0054 2068     		ldr	r0, [r4]
 682              	.LVL90:
 683 0056 40F08070 		orr	r0, r0, #16777216
 684 005a 2060     		str	r0, [r4]
 156:FrontPanel.c  ****                 LEDsVal += 0x00000100;
 685              		.loc 1 156 0
 686 005c FFF7FEFF 		bl	writeFrontPanelLEDs
 687              	.LVL91:
 157:FrontPanel.c  ****                 LEDsVal &= 0x00ffff00;
 688              		.loc 1 157 0
 689 0060 2068     		ldr	r0, [r4]
 690 0062 00F58070 		add	r0, r0, #256
 158:FrontPanel.c  ****                 LEDsVal |= ReadExtSRAM((LEDsVal >> 8) & 0xffff);
 691              		.loc 1 158 0
 692 0066 20F07F40 		bic	r0, r0, #-16777216
 693 006a 20F0FF00 		bic	r0, r0, #255
ARM GAS  C:\Users\DGILLI~1\AppData\Local\Temp\ccQGZyV4.s 			page 21


 694 006e 2060     		str	r0, [r4]
 159:FrontPanel.c  ****                 writeFrontPanelLEDs(LEDsVal);
 695              		.loc 1 159 0
 696 0070 000A     		lsrs	r0, r0, #8
 697 0072 FFF7FEFF 		bl	ReadExtSRAM
 698              	.LVL92:
 699 0076 2368     		ldr	r3, [r4]
 700 0078 1843     		orrs	r0, r0, r3
 701 007a 2060     		str	r0, [r4]
 160:FrontPanel.c  ****             }
 702              		.loc 1 160 0
 703 007c FFF7FEFF 		bl	writeFrontPanelLEDs
 704              	.LVL93:
 705 0080 DEE7     		b	.L46
 706              	.LVL94:
 707              	.L48:
 162:FrontPanel.c  ****             {
 708              		.loc 1 162 0
 709 0082 10F0007F 		tst	r0, #33554432
 710 0086 1DD0     		beq	.L50
 164:FrontPanel.c  ****                 writeFrontPanelLEDs(LEDsVal);
 711              		.loc 1 164 0
 712 0088 464C     		ldr	r4, .L58
 713 008a 2068     		ldr	r0, [r4]
 714              	.LVL95:
 715 008c 40F00070 		orr	r0, r0, #33554432
 716 0090 2060     		str	r0, [r4]
 165:FrontPanel.c  ****                 WriteExtSRAM((LEDsVal >> 8) & 0xffff,LEDsVal&0xff);
 717              		.loc 1 165 0
 718 0092 FFF7FEFF 		bl	writeFrontPanelLEDs
 719              	.LVL96:
 166:FrontPanel.c  ****                 LEDsVal += 0x00000100;
 720              		.loc 1 166 0
 721 0096 2068     		ldr	r0, [r4]
 722 0098 C1B2     		uxtb	r1, r0
 723 009a C0F30F20 		ubfx	r0, r0, #8, #16
 724 009e FFF7FEFF 		bl	WriteExtSRAM
 725              	.LVL97:
 167:FrontPanel.c  ****                 LEDsVal &= 0x00ffff00;
 726              		.loc 1 167 0
 727 00a2 2068     		ldr	r0, [r4]
 728 00a4 00F58070 		add	r0, r0, #256
 168:FrontPanel.c  ****                 LEDsVal |= ReadExtSRAM((LEDsVal >> 8) & 0xffff);
 729              		.loc 1 168 0
 730 00a8 20F07F40 		bic	r0, r0, #-16777216
 731 00ac 20F0FF00 		bic	r0, r0, #255
 732 00b0 2060     		str	r0, [r4]
 169:FrontPanel.c  ****                 writeFrontPanelLEDs(LEDsVal);
 733              		.loc 1 169 0
 734 00b2 000A     		lsrs	r0, r0, #8
 735 00b4 FFF7FEFF 		bl	ReadExtSRAM
 736              	.LVL98:
 737 00b8 2368     		ldr	r3, [r4]
 738 00ba 1843     		orrs	r0, r0, r3
 739 00bc 2060     		str	r0, [r4]
 170:FrontPanel.c  ****             }
 740              		.loc 1 170 0
ARM GAS  C:\Users\DGILLI~1\AppData\Local\Temp\ccQGZyV4.s 			page 22


 741 00be FFF7FEFF 		bl	writeFrontPanelLEDs
 742              	.LVL99:
 743 00c2 BDE7     		b	.L46
 744              	.LVL100:
 745              	.L50:
 172:FrontPanel.c  ****             {
 746              		.loc 1 172 0
 747 00c4 10F0806F 		tst	r0, #67108864
 748 00c8 15D0     		beq	.L51
 174:FrontPanel.c  ****                 writeFrontPanelLEDs(LEDsVal);
 749              		.loc 1 174 0
 750 00ca 364C     		ldr	r4, .L58
 751 00cc 2068     		ldr	r0, [r4]
 752              	.LVL101:
 753 00ce 40F08060 		orr	r0, r0, #67108864
 754 00d2 2060     		str	r0, [r4]
 175:FrontPanel.c  ****                 LEDsVal &= 0x00ffff00;
 755              		.loc 1 175 0
 756 00d4 FFF7FEFF 		bl	writeFrontPanelLEDs
 757              	.LVL102:
 176:FrontPanel.c  ****                 LEDsVal |= ReadExtSRAM((LEDsVal >> 8) & 0xffff);
 758              		.loc 1 176 0
 759 00d8 2068     		ldr	r0, [r4]
 760 00da 20F07F40 		bic	r0, r0, #-16777216
 761 00de 20F0FF00 		bic	r0, r0, #255
 762 00e2 2060     		str	r0, [r4]
 177:FrontPanel.c  ****                 writeFrontPanelLEDs(LEDsVal);
 763              		.loc 1 177 0
 764 00e4 000A     		lsrs	r0, r0, #8
 765 00e6 FFF7FEFF 		bl	ReadExtSRAM
 766              	.LVL103:
 767 00ea 2368     		ldr	r3, [r4]
 768 00ec 1843     		orrs	r0, r0, r3
 769 00ee 2060     		str	r0, [r4]
 178:FrontPanel.c  ****             }
 770              		.loc 1 178 0
 771 00f0 FFF7FEFF 		bl	writeFrontPanelLEDs
 772              	.LVL104:
 773 00f4 A4E7     		b	.L46
 774              	.LVL105:
 775              	.L51:
 180:FrontPanel.c  ****             {
 776              		.loc 1 180 0
 777 00f6 10F0006F 		tst	r0, #134217728
 778 00fa 09D0     		beq	.L52
 182:FrontPanel.c  ****                 LEDsVal = 0x08000000;
 779              		.loc 1 182 0
 780 00fc 0022     		movs	r2, #0
 781 00fe 2A4B     		ldr	r3, .L58+4
 782 0100 1A70     		strb	r2, [r3]
 183:FrontPanel.c  ****                 writeFrontPanelLEDs(LEDsVal);       // Leave Run LED on
 783              		.loc 1 183 0
 784 0102 4FF00060 		mov	r0, #134217728
 785              	.LVL106:
 786 0106 274B     		ldr	r3, .L58
 787 0108 1860     		str	r0, [r3]
 184:FrontPanel.c  ****                 return;
ARM GAS  C:\Users\DGILLI~1\AppData\Local\Temp\ccQGZyV4.s 			page 23


 788              		.loc 1 184 0
 789 010a FFF7FEFF 		bl	writeFrontPanelLEDs
 790              	.LVL107:
 185:FrontPanel.c  ****             }
 791              		.loc 1 185 0
 792 010e 10BD     		pop	{r4, pc}
 793              	.LVL108:
 794              	.L52:
 187:FrontPanel.c  ****             {
 795              		.loc 1 187 0
 796 0110 10F0805F 		tst	r0, #268435456
 797 0114 0FD0     		beq	.L54
 189:FrontPanel.c  ****                 writeFrontPanelLEDs(LEDsVal);       // Leave LED on
 798              		.loc 1 189 0
 799 0116 234C     		ldr	r4, .L58
 800 0118 4FF08050 		mov	r0, #268435456
 801              	.LVL109:
 802 011c 2060     		str	r0, [r4]
 190:FrontPanel.c  ****                 CyDelay(250);
 803              		.loc 1 190 0
 804 011e FFF7FEFF 		bl	writeFrontPanelLEDs
 805              	.LVL110:
 191:FrontPanel.c  ****                 LEDsVal &= 0x00ffffff;
 806              		.loc 1 191 0
 807 0122 FA20     		movs	r0, #250
 808 0124 FFF7FEFF 		bl	CyDelay
 809              	.LVL111:
 192:FrontPanel.c  ****                 writeFrontPanelLEDs(LEDsVal);       // Turn off LED
 810              		.loc 1 192 0
 811 0128 2068     		ldr	r0, [r4]
 812 012a 20F07F40 		bic	r0, r0, #-16777216
 813 012e 2060     		str	r0, [r4]
 193:FrontPanel.c  ****             }
 814              		.loc 1 193 0
 815 0130 FFF7FEFF 		bl	writeFrontPanelLEDs
 816              	.LVL112:
 817 0134 84E7     		b	.L46
 818              	.LVL113:
 819              	.L54:
 195:FrontPanel.c  ****             {
 820              		.loc 1 195 0
 821 0136 10F0005F 		tst	r0, #536870912
 822 013a 0FD0     		beq	.L55
 197:FrontPanel.c  ****                 writeFrontPanelLEDs(LEDsVal);       // Leave LED on
 823              		.loc 1 197 0
 824 013c 194C     		ldr	r4, .L58
 825 013e 4FF00050 		mov	r0, #536870912
 826              	.LVL114:
 827 0142 2060     		str	r0, [r4]
 198:FrontPanel.c  ****                 CyDelay(250);
 828              		.loc 1 198 0
 829 0144 FFF7FEFF 		bl	writeFrontPanelLEDs
 830              	.LVL115:
 199:FrontPanel.c  ****                 LEDsVal &= 0x00ffffff;
 831              		.loc 1 199 0
 832 0148 FA20     		movs	r0, #250
 833 014a FFF7FEFF 		bl	CyDelay
ARM GAS  C:\Users\DGILLI~1\AppData\Local\Temp\ccQGZyV4.s 			page 24


 834              	.LVL116:
 200:FrontPanel.c  ****                 writeFrontPanelLEDs(LEDsVal);       // Turn off LED
 835              		.loc 1 200 0
 836 014e 2068     		ldr	r0, [r4]
 837 0150 20F07F40 		bic	r0, r0, #-16777216
 838 0154 2060     		str	r0, [r4]
 201:FrontPanel.c  ****             }
 839              		.loc 1 201 0
 840 0156 FFF7FEFF 		bl	writeFrontPanelLEDs
 841              	.LVL117:
 842 015a 71E7     		b	.L46
 843              	.LVL118:
 844              	.L55:
 203:FrontPanel.c  ****             {
 845              		.loc 1 203 0
 846 015c 10F0804F 		tst	r0, #1073741824
 847 0160 0FD0     		beq	.L56
 205:FrontPanel.c  ****                 writeFrontPanelLEDs(LEDsVal);       // Leave LED on
 848              		.loc 1 205 0
 849 0162 104C     		ldr	r4, .L58
 850 0164 4FF08040 		mov	r0, #1073741824
 851              	.LVL119:
 852 0168 2060     		str	r0, [r4]
 206:FrontPanel.c  ****                 CyDelay(250);
 853              		.loc 1 206 0
 854 016a FFF7FEFF 		bl	writeFrontPanelLEDs
 855              	.LVL120:
 207:FrontPanel.c  ****                 LEDsVal &= 0x00ffffff;
 856              		.loc 1 207 0
 857 016e FA20     		movs	r0, #250
 858 0170 FFF7FEFF 		bl	CyDelay
 859              	.LVL121:
 208:FrontPanel.c  ****                 writeFrontPanelLEDs(LEDsVal);       // Turn off LED
 860              		.loc 1 208 0
 861 0174 2068     		ldr	r0, [r4]
 862 0176 20F07F40 		bic	r0, r0, #-16777216
 863 017a 2060     		str	r0, [r4]
 209:FrontPanel.c  ****             }
 864              		.loc 1 209 0
 865 017c FFF7FEFF 		bl	writeFrontPanelLEDs
 866              	.LVL122:
 867 0180 5EE7     		b	.L46
 868              	.LVL123:
 869              	.L56:
 211:FrontPanel.c  ****             {
 870              		.loc 1 211 0
 871 0182 0028     		cmp	r0, #0
 872 0184 BFF65CAF 		bge	.L46
 213:FrontPanel.c  ****                 writeFrontPanelLEDs(LEDsVal);       // Leave LED on
 873              		.loc 1 213 0
 874 0188 4FF00040 		mov	r0, #-2147483648
 875              	.LVL124:
 876 018c 054B     		ldr	r3, .L58
 877 018e 1860     		str	r0, [r3]
 214:FrontPanel.c  ****                 return;
 878              		.loc 1 214 0
 879 0190 FFF7FEFF 		bl	writeFrontPanelLEDs
ARM GAS  C:\Users\DGILLI~1\AppData\Local\Temp\ccQGZyV4.s 			page 25


 880              	.LVL125:
 215:FrontPanel.c  ****             }
 881              		.loc 1 215 0
 882 0194 10BD     		pop	{r4, pc}
 883              	.LVL126:
 884              	.L47:
 220:FrontPanel.c  ****             writeFrontPanelLEDs(LEDsVal);
 885              		.loc 1 220 0
 886 0196 034A     		ldr	r2, .L58
 887 0198 1368     		ldr	r3, [r2]
 888 019a 5840     		eors	r0, r0, r3
 889              	.LVL127:
 890 019c 1060     		str	r0, [r2]
 221:FrontPanel.c  ****         }
 891              		.loc 1 221 0
 892 019e FFF7FEFF 		bl	writeFrontPanelLEDs
 893              	.LVL128:
 894 01a2 4DE7     		b	.L46
 895              	.L59:
 896              		.align	2
 897              	.L58:
 898 01a4 00000000 		.word	LEDsVal
 899 01a8 74640040 		.word	1073767540
 900              		.cfi_endproc
 901              	.LFE66:
 902              		.size	runFrontPanel, .-runFrontPanel
 903              		.comm	FPLong,4,4
 904              		.comm	FPCtrl,1,1
 905              		.comm	FPAddr,2,2
 906              		.comm	FPData,1,1
 907              		.comm	LEDsVal,4,4
 908              		.text
 909              	.Letext0:
 910              		.file 2 "c:\\program files (x86)\\cypress\\psoc creator\\4.2\\psoc creator\\import\\gnu\\arm\\5.4.
 911              		.file 3 "c:\\program files (x86)\\cypress\\psoc creator\\4.2\\psoc creator\\import\\gnu\\arm\\5.4.
 912              		.file 4 "Generated_Source\\PSoC5/cytypes.h"
 913              		.file 5 "Generated_Source\\PSoC5/core_cm3.h"
 914              		.file 6 "FrontPanel.h"
 915              		.file 7 "Generated_Source\\PSoC5/I2C.h"
 916              		.file 8 "Generated_Source\\PSoC5/Z80_Data_In.h"
 917              		.file 9 "Generated_Source\\PSoC5/CyLib.h"
 918              		.file 10 "Generated_Source\\PSoC5/Z80_Data_Out.h"
 919              		.file 11 "ExtSRAM.h"