ARM GAS  C:\Users\HPz420\AppData\Local\Temp\ccHqlaxd.s 			page 1


   1              		.syntax unified
   2              		.cpu cortex-m3
   3              		.fpu softvfp
   4              		.eabi_attribute 20, 1
   5              		.eabi_attribute 21, 1
   6              		.eabi_attribute 23, 3
   7              		.eabi_attribute 24, 1
   8              		.eabi_attribute 25, 1
   9              		.eabi_attribute 26, 1
  10              		.eabi_attribute 30, 1
  11              		.eabi_attribute 34, 1
  12              		.eabi_attribute 18, 4
  13              		.thumb
  14              		.syntax unified
  15              		.file	"Z80_CFCard_Emul.c"
  16              		.text
  17              	.Ltext0:
  18              		.cfi_sections	.debug_frame
  19              		.section	.text.CFInit,"ax",%progbits
  20              		.align	2
  21              		.global	CFInit
  22              		.thumb
  23              		.thumb_func
  24              		.type	CFInit, %function
  25              	CFInit:
  26              	.LFB63:
  27              		.file 1 "Z80_CFCard_Emul.c"
   1:Z80_CFCard_Emul.c **** /* ========================================
   2:Z80_CFCard_Emul.c ****  *
   3:Z80_CFCard_Emul.c ****  * Copyright LAND BOARDS, LLC, 2019
   4:Z80_CFCard_Emul.c ****  * All Rights Reserved
   5:Z80_CFCard_Emul.c ****  * UNPUBLISHED, LICENSED SOFTWARE.
   6:Z80_CFCard_Emul.c ****  *
   7:Z80_CFCard_Emul.c ****  * CONFIDENTIAL AND PROPRIETARY INFORMATION
   8:Z80_CFCard_Emul.c ****  * WHICH IS THE PROPERTY OF Land Boards, LLC.
   9:Z80_CFCard_Emul.c ****  *
  10:Z80_CFCard_Emul.c ****  * ========================================
  11:Z80_CFCard_Emul.c **** */
  12:Z80_CFCard_Emul.c **** 
  13:Z80_CFCard_Emul.c **** #include <project.h>
  14:Z80_CFCard_Emul.c **** 
  15:Z80_CFCard_Emul.c **** #include "Hardware_Config.h"
  16:Z80_CFCard_Emul.c **** #include "Z80_CFCard_Emul.h"
  17:Z80_CFCard_Emul.c **** #include "Z80_IO_Handle.h"
  18:Z80_CFCard_Emul.c **** 
  19:Z80_CFCard_Emul.c **** #ifdef USING_CFCARD
  20:Z80_CFCard_Emul.c **** 
  21:Z80_CFCard_Emul.c ****     volatile uint8 CF_DataOut;
  22:Z80_CFCard_Emul.c ****     volatile uint8 CF_DataIn;
  23:Z80_CFCard_Emul.c ****     volatile uint8 CF_Status;
  24:Z80_CFCard_Emul.c ****     volatile uint8 CF_ErrorStatus;
  25:Z80_CFCard_Emul.c ****     volatile uint8 CF_Features;
  26:Z80_CFCard_Emul.c ****     volatile uint8 CF_SectorCount;
  27:Z80_CFCard_Emul.c ****     volatile uint8 CF_ReadSector;
  28:Z80_CFCard_Emul.c ****     volatile uint8 CF_LBA0;
  29:Z80_CFCard_Emul.c ****     volatile uint8 CF_LBA1;
  30:Z80_CFCard_Emul.c ****     volatile uint8 CF_LBA2;
ARM GAS  C:\Users\HPz420\AppData\Local\Temp\ccHqlaxd.s 			page 2


  31:Z80_CFCard_Emul.c ****     volatile uint8 CF_LBA3;
  32:Z80_CFCard_Emul.c ****     volatile uint8 CF_CylLow;
  33:Z80_CFCard_Emul.c ****     volatile uint8 CF_CylHigh;
  34:Z80_CFCard_Emul.c ****     volatile uint8 CF_WriteCommand;
  35:Z80_CFCard_Emul.c ****     volatile uint8 CF_Head;
  36:Z80_CFCard_Emul.c **** 
  37:Z80_CFCard_Emul.c ****     ///////////////////////////////////////////////////////////////////////////////
  38:Z80_CFCard_Emul.c ****     // void CFInit(void)
  39:Z80_CFCard_Emul.c ****         
  40:Z80_CFCard_Emul.c ****     void CFInit(void)
  41:Z80_CFCard_Emul.c ****     {
  28              		.loc 1 41 0
  29              		.cfi_startproc
  30              		@ args = 0, pretend = 0, frame = 0
  31              		@ frame_needed = 0, uses_anonymous_args = 0
  32              		@ link register save eliminated.
  42:Z80_CFCard_Emul.c ****         CF_DataOut = 0x0;
  33              		.loc 1 42 0
  34 0000 0023     		movs	r3, #0
  35 0002 0F4A     		ldr	r2, .L2
  36 0004 1370     		strb	r3, [r2]
  43:Z80_CFCard_Emul.c ****         CF_DataIn = 0x0;
  37              		.loc 1 43 0
  38 0006 0F4A     		ldr	r2, .L2+4
  39 0008 1370     		strb	r3, [r2]
  44:Z80_CFCard_Emul.c ****         CF_Status = 0x0;
  40              		.loc 1 44 0
  41 000a 0F4A     		ldr	r2, .L2+8
  42 000c 1370     		strb	r3, [r2]
  45:Z80_CFCard_Emul.c ****         CF_ErrorStatus = 0;
  43              		.loc 1 45 0
  44 000e 0F4A     		ldr	r2, .L2+12
  45 0010 1370     		strb	r3, [r2]
  46:Z80_CFCard_Emul.c ****         CF_Features = 0;
  46              		.loc 1 46 0
  47 0012 0F4A     		ldr	r2, .L2+16
  48 0014 1370     		strb	r3, [r2]
  47:Z80_CFCard_Emul.c ****         CF_SectorCount = 0;
  49              		.loc 1 47 0
  50 0016 0F4A     		ldr	r2, .L2+20
  51 0018 1370     		strb	r3, [r2]
  48:Z80_CFCard_Emul.c ****         CF_ReadSector = 0;
  52              		.loc 1 48 0
  53 001a 0F4A     		ldr	r2, .L2+24
  54 001c 1370     		strb	r3, [r2]
  49:Z80_CFCard_Emul.c ****         CF_LBA0 = 0;
  55              		.loc 1 49 0
  56 001e 0F4A     		ldr	r2, .L2+28
  57 0020 1370     		strb	r3, [r2]
  50:Z80_CFCard_Emul.c ****         CF_LBA1 = 0;
  58              		.loc 1 50 0
  59 0022 0F4A     		ldr	r2, .L2+32
  60 0024 1370     		strb	r3, [r2]
  51:Z80_CFCard_Emul.c ****         CF_LBA2 = 0;
  61              		.loc 1 51 0
  62 0026 0F4A     		ldr	r2, .L2+36
  63 0028 1370     		strb	r3, [r2]
ARM GAS  C:\Users\HPz420\AppData\Local\Temp\ccHqlaxd.s 			page 3


  52:Z80_CFCard_Emul.c ****         CF_LBA3 = 0;
  64              		.loc 1 52 0
  65 002a 0F4A     		ldr	r2, .L2+40
  66 002c 1370     		strb	r3, [r2]
  53:Z80_CFCard_Emul.c ****         CF_CylLow = 0;
  67              		.loc 1 53 0
  68 002e 0F4A     		ldr	r2, .L2+44
  69 0030 1370     		strb	r3, [r2]
  54:Z80_CFCard_Emul.c ****         CF_CylHigh = 0;
  70              		.loc 1 54 0
  71 0032 0F4A     		ldr	r2, .L2+48
  72 0034 1370     		strb	r3, [r2]
  55:Z80_CFCard_Emul.c ****         CF_WriteCommand = 0;
  73              		.loc 1 55 0
  74 0036 0F4A     		ldr	r2, .L2+52
  75 0038 1370     		strb	r3, [r2]
  56:Z80_CFCard_Emul.c ****         CF_Head = 0;
  76              		.loc 1 56 0
  77 003a 0F4A     		ldr	r2, .L2+56
  78 003c 1370     		strb	r3, [r2]
  79 003e 7047     		bx	lr
  80              	.L3:
  81              		.align	2
  82              	.L2:
  83 0040 00000000 		.word	CF_DataOut
  84 0044 00000000 		.word	CF_DataIn
  85 0048 00000000 		.word	CF_Status
  86 004c 00000000 		.word	CF_ErrorStatus
  87 0050 00000000 		.word	CF_Features
  88 0054 00000000 		.word	CF_SectorCount
  89 0058 00000000 		.word	CF_ReadSector
  90 005c 00000000 		.word	CF_LBA0
  91 0060 00000000 		.word	CF_LBA1
  92 0064 00000000 		.word	CF_LBA2
  93 0068 00000000 		.word	CF_LBA3
  94 006c 00000000 		.word	CF_CylLow
  95 0070 00000000 		.word	CF_CylHigh
  96 0074 00000000 		.word	CF_WriteCommand
  97 0078 00000000 		.word	CF_Head
  98              		.cfi_endproc
  99              	.LFE63:
 100              		.size	CFInit, .-CFInit
 101              		.section	.text.CFReadData,"ax",%progbits
 102              		.align	2
 103              		.global	CFReadData
 104              		.thumb
 105              		.thumb_func
 106              		.type	CFReadData, %function
 107              	CFReadData:
 108              	.LFB64:
  57:Z80_CFCard_Emul.c ****     }
  58:Z80_CFCard_Emul.c ****         
  59:Z80_CFCard_Emul.c ****     ///////////////////////////////////////////////////////////////////////////////
  60:Z80_CFCard_Emul.c ****     // void CFReadData(void)
  61:Z80_CFCard_Emul.c ****     // CF_DATA		.EQU	$10
  62:Z80_CFCard_Emul.c ****     // In Grant's monitor code - IN - Function rdByte
  63:Z80_CFCard_Emul.c ****     // In cbios128 - IN - In functions rdByte512, readhst
ARM GAS  C:\Users\HPz420\AppData\Local\Temp\ccHqlaxd.s 			page 4


  64:Z80_CFCard_Emul.c **** 
  65:Z80_CFCard_Emul.c ****     void CFReadData(void)
  66:Z80_CFCard_Emul.c ****     {
 109              		.loc 1 66 0
 110              		.cfi_startproc
 111              		@ args = 0, pretend = 0, frame = 0
 112              		@ frame_needed = 0, uses_anonymous_args = 0
 113 0000 08B5     		push	{r3, lr}
 114              		.cfi_def_cfa_offset 8
 115              		.cfi_offset 3, -8
 116              		.cfi_offset 14, -4
  67:Z80_CFCard_Emul.c ****         Z80_Data_In_Write(CF_DataIn);
 117              		.loc 1 67 0
 118 0002 034B     		ldr	r3, .L6
 119 0004 1878     		ldrb	r0, [r3]	@ zero_extendqisi2
 120 0006 FFF7FEFF 		bl	Z80_Data_In_Write
 121              	.LVL0:
  68:Z80_CFCard_Emul.c ****         ackIO();
 122              		.loc 1 68 0
 123 000a FFF7FEFF 		bl	ackIO
 124              	.LVL1:
 125 000e 08BD     		pop	{r3, pc}
 126              	.L7:
 127              		.align	2
 128              	.L6:
 129 0010 00000000 		.word	CF_DataIn
 130              		.cfi_endproc
 131              	.LFE64:
 132              		.size	CFReadData, .-CFReadData
 133              		.section	.text.CFWriteData,"ax",%progbits
 134              		.align	2
 135              		.global	CFWriteData
 136              		.thumb
 137              		.thumb_func
 138              		.type	CFWriteData, %function
 139              	CFWriteData:
 140              	.LFB65:
  69:Z80_CFCard_Emul.c ****     }
  70:Z80_CFCard_Emul.c **** 
  71:Z80_CFCard_Emul.c ****     ///////////////////////////////////////////////////////////////////////////////
  72:Z80_CFCard_Emul.c ****     // void CFWriteData(void)
  73:Z80_CFCard_Emul.c ****     // CF_DATA		.EQU	$10
  74:Z80_CFCard_Emul.c ****     // In Grant's monitor code - No OUT - Read only
  75:Z80_CFCard_Emul.c ****     // In cbios128 - OUT - In function wrByte
  76:Z80_CFCard_Emul.c ****         
  77:Z80_CFCard_Emul.c ****     void CFWriteData(void)
  78:Z80_CFCard_Emul.c ****     {
 141              		.loc 1 78 0
 142              		.cfi_startproc
 143              		@ args = 0, pretend = 0, frame = 0
 144              		@ frame_needed = 0, uses_anonymous_args = 0
 145 0000 08B5     		push	{r3, lr}
 146              		.cfi_def_cfa_offset 8
 147              		.cfi_offset 3, -8
 148              		.cfi_offset 14, -4
  79:Z80_CFCard_Emul.c ****         CF_DataOut = Z80_Data_Out_Read();
 149              		.loc 1 79 0
ARM GAS  C:\Users\HPz420\AppData\Local\Temp\ccHqlaxd.s 			page 5


 150 0002 FFF7FEFF 		bl	Z80_Data_Out_Read
 151              	.LVL2:
 152 0006 024B     		ldr	r3, .L10
 153 0008 1870     		strb	r0, [r3]
  80:Z80_CFCard_Emul.c ****         ackIO();
 154              		.loc 1 80 0
 155 000a FFF7FEFF 		bl	ackIO
 156              	.LVL3:
 157 000e 08BD     		pop	{r3, pc}
 158              	.L11:
 159              		.align	2
 160              	.L10:
 161 0010 00000000 		.word	CF_DataOut
 162              		.cfi_endproc
 163              	.LFE65:
 164              		.size	CFWriteData, .-CFWriteData
 165              		.section	.text.CFReadErrorStat,"ax",%progbits
 166              		.align	2
 167              		.global	CFReadErrorStat
 168              		.thumb
 169              		.thumb_func
 170              		.type	CFReadErrorStat, %function
 171              	CFReadErrorStat:
 172              	.LFB66:
  81:Z80_CFCard_Emul.c ****         return;
  82:Z80_CFCard_Emul.c ****     }
  83:Z80_CFCard_Emul.c **** 
  84:Z80_CFCard_Emul.c ****     ///////////////////////////////////////////////////////////////////////////////
  85:Z80_CFCard_Emul.c ****     // void CFReadErrorStat(void)
  86:Z80_CFCard_Emul.c ****     // CF_ERROR	.EQU	$11
  87:Z80_CFCard_Emul.c ****     // In Grant's monitor code - Not used
  88:Z80_CFCard_Emul.c ****     // In cbios128 - Not used
  89:Z80_CFCard_Emul.c ****         
  90:Z80_CFCard_Emul.c ****     void CFReadErrorStat(void)
  91:Z80_CFCard_Emul.c ****     {
 173              		.loc 1 91 0
 174              		.cfi_startproc
 175              		@ args = 0, pretend = 0, frame = 0
 176              		@ frame_needed = 0, uses_anonymous_args = 0
 177 0000 08B5     		push	{r3, lr}
 178              		.cfi_def_cfa_offset 8
 179              		.cfi_offset 3, -8
 180              		.cfi_offset 14, -4
  92:Z80_CFCard_Emul.c ****         Z80_Data_In_Write(CF_ErrorStatus);
 181              		.loc 1 92 0
 182 0002 034B     		ldr	r3, .L14
 183 0004 1878     		ldrb	r0, [r3]	@ zero_extendqisi2
 184 0006 FFF7FEFF 		bl	Z80_Data_In_Write
 185              	.LVL4:
  93:Z80_CFCard_Emul.c ****         ackIO();
 186              		.loc 1 93 0
 187 000a FFF7FEFF 		bl	ackIO
 188              	.LVL5:
 189 000e 08BD     		pop	{r3, pc}
 190              	.L15:
 191              		.align	2
 192              	.L14:
ARM GAS  C:\Users\HPz420\AppData\Local\Temp\ccHqlaxd.s 			page 6


 193 0010 00000000 		.word	CF_ErrorStatus
 194              		.cfi_endproc
 195              	.LFE66:
 196              		.size	CFReadErrorStat, .-CFReadErrorStat
 197              		.section	.text.CFWriteFeatures,"ax",%progbits
 198              		.align	2
 199              		.global	CFWriteFeatures
 200              		.thumb
 201              		.thumb_func
 202              		.type	CFWriteFeatures, %function
 203              	CFWriteFeatures:
 204              	.LFB67:
  94:Z80_CFCard_Emul.c ****     }
  95:Z80_CFCard_Emul.c **** 
  96:Z80_CFCard_Emul.c ****     ///////////////////////////////////////////////////////////////////////////////
  97:Z80_CFCard_Emul.c ****     // void CFWriteFeatures(void)
  98:Z80_CFCard_Emul.c ****     // CF_FEATURES	.EQU	$11
  99:Z80_CFCard_Emul.c ****     // In Grant's monitor code - OUT - In function CPMLOAD2
 100:Z80_CFCard_Emul.c ****     // In cbios128 - OUT - In function boot
 101:Z80_CFCard_Emul.c ****     // Values to write CF_8BIT, CF_NOCACHE
 102:Z80_CFCard_Emul.c ****         
 103:Z80_CFCard_Emul.c ****     void CFWriteFeatures(void)
 104:Z80_CFCard_Emul.c ****     {
 205              		.loc 1 104 0
 206              		.cfi_startproc
 207              		@ args = 0, pretend = 0, frame = 0
 208              		@ frame_needed = 0, uses_anonymous_args = 0
 209 0000 08B5     		push	{r3, lr}
 210              		.cfi_def_cfa_offset 8
 211              		.cfi_offset 3, -8
 212              		.cfi_offset 14, -4
 105:Z80_CFCard_Emul.c ****         CF_Features = Z80_Data_Out_Read();
 213              		.loc 1 105 0
 214 0002 FFF7FEFF 		bl	Z80_Data_Out_Read
 215              	.LVL6:
 216 0006 024B     		ldr	r3, .L18
 217 0008 1870     		strb	r0, [r3]
 106:Z80_CFCard_Emul.c ****         ackIO();
 218              		.loc 1 106 0
 219 000a FFF7FEFF 		bl	ackIO
 220              	.LVL7:
 221 000e 08BD     		pop	{r3, pc}
 222              	.L19:
 223              		.align	2
 224              	.L18:
 225 0010 00000000 		.word	CF_Features
 226              		.cfi_endproc
 227              	.LFE67:
 228              		.size	CFWriteFeatures, .-CFWriteFeatures
 229              		.section	.text.CFReadSectorCount,"ax",%progbits
 230              		.align	2
 231              		.global	CFReadSectorCount
 232              		.thumb
 233              		.thumb_func
 234              		.type	CFReadSectorCount, %function
 235              	CFReadSectorCount:
 236              	.LFB68:
ARM GAS  C:\Users\HPz420\AppData\Local\Temp\ccHqlaxd.s 			page 7


 107:Z80_CFCard_Emul.c ****         return;
 108:Z80_CFCard_Emul.c ****     }
 109:Z80_CFCard_Emul.c **** 
 110:Z80_CFCard_Emul.c ****     ///////////////////////////////////////////////////////////////////////////////
 111:Z80_CFCard_Emul.c ****     // void CFReadSectorCount(void)
 112:Z80_CFCard_Emul.c ****     // CF_SECCOUNT	.EQU	$12
 113:Z80_CFCard_Emul.c ****     // In Grant's monitor code - No IN - Not used
 114:Z80_CFCard_Emul.c ****     // In cbios128 - OUT - In function rdSectors
 115:Z80_CFCard_Emul.c ****         
 116:Z80_CFCard_Emul.c ****     void CFReadSectorCount(void)
 117:Z80_CFCard_Emul.c ****     {
 237              		.loc 1 117 0
 238              		.cfi_startproc
 239              		@ args = 0, pretend = 0, frame = 0
 240              		@ frame_needed = 0, uses_anonymous_args = 0
 241 0000 08B5     		push	{r3, lr}
 242              		.cfi_def_cfa_offset 8
 243              		.cfi_offset 3, -8
 244              		.cfi_offset 14, -4
 118:Z80_CFCard_Emul.c ****         Z80_Data_In_Write(CF_SectorCount);
 245              		.loc 1 118 0
 246 0002 034B     		ldr	r3, .L22
 247 0004 1878     		ldrb	r0, [r3]	@ zero_extendqisi2
 248 0006 FFF7FEFF 		bl	Z80_Data_In_Write
 249              	.LVL8:
 119:Z80_CFCard_Emul.c ****         ackIO();
 250              		.loc 1 119 0
 251 000a FFF7FEFF 		bl	ackIO
 252              	.LVL9:
 253 000e 08BD     		pop	{r3, pc}
 254              	.L23:
 255              		.align	2
 256              	.L22:
 257 0010 00000000 		.word	CF_SectorCount
 258              		.cfi_endproc
 259              	.LFE68:
 260              		.size	CFReadSectorCount, .-CFReadSectorCount
 261              		.section	.text.CFWriteSectorCount,"ax",%progbits
 262              		.align	2
 263              		.global	CFWriteSectorCount
 264              		.thumb
 265              		.thumb_func
 266              		.type	CFWriteSectorCount, %function
 267              	CFWriteSectorCount:
 268              	.LFB69:
 120:Z80_CFCard_Emul.c ****         return;
 121:Z80_CFCard_Emul.c ****     }
 122:Z80_CFCard_Emul.c **** 
 123:Z80_CFCard_Emul.c ****     ///////////////////////////////////////////////////////////////////////////////
 124:Z80_CFCard_Emul.c ****     // void CFWriteSectorCount(void)
 125:Z80_CFCard_Emul.c ****     // CF_SECCOUNT	.EQU	$12
 126:Z80_CFCard_Emul.c ****     // In Grant's monitor code - OUT - In function processSectors
 127:Z80_CFCard_Emul.c ****     // In cbios128 - OUT - in function rdSectors - In functions rdSectors, setLBAaddr
 128:Z80_CFCard_Emul.c ****         
 129:Z80_CFCard_Emul.c ****     void CFWriteSectorCount(void)
 130:Z80_CFCard_Emul.c ****     {
 269              		.loc 1 130 0
ARM GAS  C:\Users\HPz420\AppData\Local\Temp\ccHqlaxd.s 			page 8


 270              		.cfi_startproc
 271              		@ args = 0, pretend = 0, frame = 0
 272              		@ frame_needed = 0, uses_anonymous_args = 0
 273 0000 08B5     		push	{r3, lr}
 274              		.cfi_def_cfa_offset 8
 275              		.cfi_offset 3, -8
 276              		.cfi_offset 14, -4
 131:Z80_CFCard_Emul.c ****         CF_SectorCount = Z80_Data_Out_Read();
 277              		.loc 1 131 0
 278 0002 FFF7FEFF 		bl	Z80_Data_Out_Read
 279              	.LVL10:
 280 0006 024B     		ldr	r3, .L26
 281 0008 1870     		strb	r0, [r3]
 132:Z80_CFCard_Emul.c ****         ackIO();
 282              		.loc 1 132 0
 283 000a FFF7FEFF 		bl	ackIO
 284              	.LVL11:
 285 000e 08BD     		pop	{r3, pc}
 286              	.L27:
 287              		.align	2
 288              	.L26:
 289 0010 00000000 		.word	CF_SectorCount
 290              		.cfi_endproc
 291              	.LFE69:
 292              		.size	CFWriteSectorCount, .-CFWriteSectorCount
 293              		.section	.text.CFReadSector,"ax",%progbits
 294              		.align	2
 295              		.global	CFReadSector
 296              		.thumb
 297              		.thumb_func
 298              		.type	CFReadSector, %function
 299              	CFReadSector:
 300              	.LFB70:
 133:Z80_CFCard_Emul.c ****         return;
 134:Z80_CFCard_Emul.c ****     }
 135:Z80_CFCard_Emul.c **** 
 136:Z80_CFCard_Emul.c ****     ///////////////////////////////////////////////////////////////////////////////
 137:Z80_CFCard_Emul.c ****     // void CFReadSector(void)
 138:Z80_CFCard_Emul.c ****     // CF_SECTOR	.EQU	$13
 139:Z80_CFCard_Emul.c ****     // In Grant's monitor code - Not used
 140:Z80_CFCard_Emul.c ****     // In cbios128 - Not used
 141:Z80_CFCard_Emul.c ****         
 142:Z80_CFCard_Emul.c ****     void CFReadSector(void)
 143:Z80_CFCard_Emul.c ****     {
 301              		.loc 1 143 0
 302              		.cfi_startproc
 303              		@ args = 0, pretend = 0, frame = 0
 304              		@ frame_needed = 0, uses_anonymous_args = 0
 305 0000 08B5     		push	{r3, lr}
 306              		.cfi_def_cfa_offset 8
 307              		.cfi_offset 3, -8
 308              		.cfi_offset 14, -4
 144:Z80_CFCard_Emul.c ****         Z80_Data_In_Write(CF_ReadSector);
 309              		.loc 1 144 0
 310 0002 034B     		ldr	r3, .L30
 311 0004 1878     		ldrb	r0, [r3]	@ zero_extendqisi2
 312 0006 FFF7FEFF 		bl	Z80_Data_In_Write
ARM GAS  C:\Users\HPz420\AppData\Local\Temp\ccHqlaxd.s 			page 9


 313              	.LVL12:
 145:Z80_CFCard_Emul.c ****         ackIO();
 314              		.loc 1 145 0
 315 000a FFF7FEFF 		bl	ackIO
 316              	.LVL13:
 317 000e 08BD     		pop	{r3, pc}
 318              	.L31:
 319              		.align	2
 320              	.L30:
 321 0010 00000000 		.word	CF_ReadSector
 322              		.cfi_endproc
 323              	.LFE70:
 324              		.size	CFReadSector, .-CFReadSector
 325              		.section	.text.CFWriteLBA0,"ax",%progbits
 326              		.align	2
 327              		.global	CFWriteLBA0
 328              		.thumb
 329              		.thumb_func
 330              		.type	CFWriteLBA0, %function
 331              	CFWriteLBA0:
 332              	.LFB71:
 146:Z80_CFCard_Emul.c ****         return;
 147:Z80_CFCard_Emul.c ****     }
 148:Z80_CFCard_Emul.c **** 
 149:Z80_CFCard_Emul.c ****     ///////////////////////////////////////////////////////////////////////////////
 150:Z80_CFCard_Emul.c ****     // void CFWriteLBA0(void)
 151:Z80_CFCard_Emul.c ****     // CF_LBA0		.EQU	$13
 152:Z80_CFCard_Emul.c ****     // In Grant's monitor code - OUT - in function processSectors
 153:Z80_CFCard_Emul.c ****     // In cbios128 - OUT - In functions setLBAaddr, CF_LBA0
 154:Z80_CFCard_Emul.c ****         
 155:Z80_CFCard_Emul.c ****     void CFWriteLBA0(void)
 156:Z80_CFCard_Emul.c ****     {
 333              		.loc 1 156 0
 334              		.cfi_startproc
 335              		@ args = 0, pretend = 0, frame = 0
 336              		@ frame_needed = 0, uses_anonymous_args = 0
 337 0000 08B5     		push	{r3, lr}
 338              		.cfi_def_cfa_offset 8
 339              		.cfi_offset 3, -8
 340              		.cfi_offset 14, -4
 157:Z80_CFCard_Emul.c ****         CF_LBA0 = Z80_Data_Out_Read();
 341              		.loc 1 157 0
 342 0002 FFF7FEFF 		bl	Z80_Data_Out_Read
 343              	.LVL14:
 344 0006 024B     		ldr	r3, .L34
 345 0008 1870     		strb	r0, [r3]
 158:Z80_CFCard_Emul.c ****         ackIO();
 346              		.loc 1 158 0
 347 000a FFF7FEFF 		bl	ackIO
 348              	.LVL15:
 349 000e 08BD     		pop	{r3, pc}
 350              	.L35:
 351              		.align	2
 352              	.L34:
 353 0010 00000000 		.word	CF_LBA0
 354              		.cfi_endproc
 355              	.LFE71:
ARM GAS  C:\Users\HPz420\AppData\Local\Temp\ccHqlaxd.s 			page 10


 356              		.size	CFWriteLBA0, .-CFWriteLBA0
 357              		.section	.text.CFReadCylLow,"ax",%progbits
 358              		.align	2
 359              		.global	CFReadCylLow
 360              		.thumb
 361              		.thumb_func
 362              		.type	CFReadCylLow, %function
 363              	CFReadCylLow:
 364              	.LFB72:
 159:Z80_CFCard_Emul.c ****         return;
 160:Z80_CFCard_Emul.c ****     }
 161:Z80_CFCard_Emul.c **** 
 162:Z80_CFCard_Emul.c ****     ///////////////////////////////////////////////////////////////////////////////
 163:Z80_CFCard_Emul.c ****     // void CFReadCylLow(void)
 164:Z80_CFCard_Emul.c ****     // CF_CYL_LOW	.EQU	$14
 165:Z80_CFCard_Emul.c ****     // In Grant's monitor code - Not used
 166:Z80_CFCard_Emul.c ****     // In cbios128 - Not used
 167:Z80_CFCard_Emul.c ****         
 168:Z80_CFCard_Emul.c ****     void    CFReadCylLow(void)
 169:Z80_CFCard_Emul.c ****     {
 365              		.loc 1 169 0
 366              		.cfi_startproc
 367              		@ args = 0, pretend = 0, frame = 0
 368              		@ frame_needed = 0, uses_anonymous_args = 0
 369 0000 08B5     		push	{r3, lr}
 370              		.cfi_def_cfa_offset 8
 371              		.cfi_offset 3, -8
 372              		.cfi_offset 14, -4
 170:Z80_CFCard_Emul.c ****         Z80_Data_In_Write(CF_CylLow);
 373              		.loc 1 170 0
 374 0002 034B     		ldr	r3, .L38
 375 0004 1878     		ldrb	r0, [r3]	@ zero_extendqisi2
 376 0006 FFF7FEFF 		bl	Z80_Data_In_Write
 377              	.LVL16:
 171:Z80_CFCard_Emul.c ****         ackIO();
 378              		.loc 1 171 0
 379 000a FFF7FEFF 		bl	ackIO
 380              	.LVL17:
 381 000e 08BD     		pop	{r3, pc}
 382              	.L39:
 383              		.align	2
 384              	.L38:
 385 0010 00000000 		.word	CF_CylLow
 386              		.cfi_endproc
 387              	.LFE72:
 388              		.size	CFReadCylLow, .-CFReadCylLow
 389              		.section	.text.CFWriteLBA1,"ax",%progbits
 390              		.align	2
 391              		.global	CFWriteLBA1
 392              		.thumb
 393              		.thumb_func
 394              		.type	CFWriteLBA1, %function
 395              	CFWriteLBA1:
 396              	.LFB73:
 172:Z80_CFCard_Emul.c ****         return;
 173:Z80_CFCard_Emul.c ****     }
 174:Z80_CFCard_Emul.c **** 
ARM GAS  C:\Users\HPz420\AppData\Local\Temp\ccHqlaxd.s 			page 11


 175:Z80_CFCard_Emul.c ****     ///////////////////////////////////////////////////////////////////////////////
 176:Z80_CFCard_Emul.c ****     // void CFWriteLBA1(void)
 177:Z80_CFCard_Emul.c ****     // CF_LBA1		.EQU	$14
 178:Z80_CFCard_Emul.c ****     // In Grant's monitor code - OUT - in function processSectors
 179:Z80_CFCard_Emul.c ****     // Hard coded to 0x00
 180:Z80_CFCard_Emul.c ****     // In cbios128 - OUT - In functions setLBAaddr, CF_LBA0
 181:Z80_CFCard_Emul.c ****     // Hard coded to 0x00
 182:Z80_CFCard_Emul.c ****         
 183:Z80_CFCard_Emul.c ****     void    CFWriteLBA1(void)
 184:Z80_CFCard_Emul.c ****     {
 397              		.loc 1 184 0
 398              		.cfi_startproc
 399              		@ args = 0, pretend = 0, frame = 0
 400              		@ frame_needed = 0, uses_anonymous_args = 0
 401 0000 08B5     		push	{r3, lr}
 402              		.cfi_def_cfa_offset 8
 403              		.cfi_offset 3, -8
 404              		.cfi_offset 14, -4
 185:Z80_CFCard_Emul.c ****         CF_LBA1 = Z80_Data_Out_Read();
 405              		.loc 1 185 0
 406 0002 FFF7FEFF 		bl	Z80_Data_Out_Read
 407              	.LVL18:
 408 0006 024B     		ldr	r3, .L42
 409 0008 1870     		strb	r0, [r3]
 186:Z80_CFCard_Emul.c ****         ackIO();
 410              		.loc 1 186 0
 411 000a FFF7FEFF 		bl	ackIO
 412              	.LVL19:
 413 000e 08BD     		pop	{r3, pc}
 414              	.L43:
 415              		.align	2
 416              	.L42:
 417 0010 00000000 		.word	CF_LBA1
 418              		.cfi_endproc
 419              	.LFE73:
 420              		.size	CFWriteLBA1, .-CFWriteLBA1
 421              		.section	.text.CFReadCylHigh,"ax",%progbits
 422              		.align	2
 423              		.global	CFReadCylHigh
 424              		.thumb
 425              		.thumb_func
 426              		.type	CFReadCylHigh, %function
 427              	CFReadCylHigh:
 428              	.LFB74:
 187:Z80_CFCard_Emul.c ****         return;
 188:Z80_CFCard_Emul.c ****     }
 189:Z80_CFCard_Emul.c **** 
 190:Z80_CFCard_Emul.c ****     ///////////////////////////////////////////////////////////////////////////////
 191:Z80_CFCard_Emul.c ****     // void CFReadCylHigh(void)
 192:Z80_CFCard_Emul.c ****     // F_CYL_HI	.EQU	$15
 193:Z80_CFCard_Emul.c ****     // In Grant's monitor code - Not used
 194:Z80_CFCard_Emul.c ****     // Hard coded to 0x00
 195:Z80_CFCard_Emul.c ****     // In cbios128 - Not used
 196:Z80_CFCard_Emul.c ****         
 197:Z80_CFCard_Emul.c ****     void    CFReadCylHigh(void)
 198:Z80_CFCard_Emul.c ****     {
 429              		.loc 1 198 0
ARM GAS  C:\Users\HPz420\AppData\Local\Temp\ccHqlaxd.s 			page 12


 430              		.cfi_startproc
 431              		@ args = 0, pretend = 0, frame = 0
 432              		@ frame_needed = 0, uses_anonymous_args = 0
 433 0000 08B5     		push	{r3, lr}
 434              		.cfi_def_cfa_offset 8
 435              		.cfi_offset 3, -8
 436              		.cfi_offset 14, -4
 199:Z80_CFCard_Emul.c ****         Z80_Data_In_Write(CF_CylHigh);
 437              		.loc 1 199 0
 438 0002 034B     		ldr	r3, .L46
 439 0004 1878     		ldrb	r0, [r3]	@ zero_extendqisi2
 440 0006 FFF7FEFF 		bl	Z80_Data_In_Write
 441              	.LVL20:
 200:Z80_CFCard_Emul.c ****         ackIO();
 442              		.loc 1 200 0
 443 000a FFF7FEFF 		bl	ackIO
 444              	.LVL21:
 445 000e 08BD     		pop	{r3, pc}
 446              	.L47:
 447              		.align	2
 448              	.L46:
 449 0010 00000000 		.word	CF_CylHigh
 450              		.cfi_endproc
 451              	.LFE74:
 452              		.size	CFReadCylHigh, .-CFReadCylHigh
 453              		.section	.text.CFWriteLBA2,"ax",%progbits
 454              		.align	2
 455              		.global	CFWriteLBA2
 456              		.thumb
 457              		.thumb_func
 458              		.type	CFWriteLBA2, %function
 459              	CFWriteLBA2:
 460              	.LFB75:
 201:Z80_CFCard_Emul.c ****         return;
 202:Z80_CFCard_Emul.c ****     }
 203:Z80_CFCard_Emul.c **** 
 204:Z80_CFCard_Emul.c ****     ///////////////////////////////////////////////////////////////////////////////
 205:Z80_CFCard_Emul.c ****     // void CFWriteLBA2(void)
 206:Z80_CFCard_Emul.c ****     // CF_LBA2		.EQU	$15
 207:Z80_CFCard_Emul.c ****     // In Grant's monitor code - OUT - in function processSectors
 208:Z80_CFCard_Emul.c ****     // Hard coded to 0x00
 209:Z80_CFCard_Emul.c ****     // In cbios128 - OUT - In functions setLBAaddr, CF_LBA0
 210:Z80_CFCard_Emul.c ****     // Hard coded to 0x00
 211:Z80_CFCard_Emul.c ****         
 212:Z80_CFCard_Emul.c ****     void    CFWriteLBA2(void)
 213:Z80_CFCard_Emul.c ****     {
 461              		.loc 1 213 0
 462              		.cfi_startproc
 463              		@ args = 0, pretend = 0, frame = 0
 464              		@ frame_needed = 0, uses_anonymous_args = 0
 465 0000 08B5     		push	{r3, lr}
 466              		.cfi_def_cfa_offset 8
 467              		.cfi_offset 3, -8
 468              		.cfi_offset 14, -4
 214:Z80_CFCard_Emul.c ****         CF_LBA2 = Z80_Data_Out_Read();
 469              		.loc 1 214 0
 470 0002 FFF7FEFF 		bl	Z80_Data_Out_Read
ARM GAS  C:\Users\HPz420\AppData\Local\Temp\ccHqlaxd.s 			page 13


 471              	.LVL22:
 472 0006 024B     		ldr	r3, .L50
 473 0008 1870     		strb	r0, [r3]
 215:Z80_CFCard_Emul.c ****         ackIO();
 474              		.loc 1 215 0
 475 000a FFF7FEFF 		bl	ackIO
 476              	.LVL23:
 477 000e 08BD     		pop	{r3, pc}
 478              	.L51:
 479              		.align	2
 480              	.L50:
 481 0010 00000000 		.word	CF_LBA2
 482              		.cfi_endproc
 483              	.LFE75:
 484              		.size	CFWriteLBA2, .-CFWriteLBA2
 485              		.section	.text.CFReadHead,"ax",%progbits
 486              		.align	2
 487              		.global	CFReadHead
 488              		.thumb
 489              		.thumb_func
 490              		.type	CFReadHead, %function
 491              	CFReadHead:
 492              	.LFB76:
 216:Z80_CFCard_Emul.c ****         return;
 217:Z80_CFCard_Emul.c ****     }
 218:Z80_CFCard_Emul.c **** 
 219:Z80_CFCard_Emul.c ****     ///////////////////////////////////////////////////////////////////////////////
 220:Z80_CFCard_Emul.c ****     // void CFReadHead(void)
 221:Z80_CFCard_Emul.c ****     // F_CYL_HI	.EQU	$16
 222:Z80_CFCard_Emul.c ****     // In Grant's monitor code - 
 223:Z80_CFCard_Emul.c ****     // In cbios128 - Not used
 224:Z80_CFCard_Emul.c ****         
 225:Z80_CFCard_Emul.c ****     void    CFReadHead(void)
 226:Z80_CFCard_Emul.c ****     {
 493              		.loc 1 226 0
 494              		.cfi_startproc
 495              		@ args = 0, pretend = 0, frame = 0
 496              		@ frame_needed = 0, uses_anonymous_args = 0
 497 0000 08B5     		push	{r3, lr}
 498              		.cfi_def_cfa_offset 8
 499              		.cfi_offset 3, -8
 500              		.cfi_offset 14, -4
 227:Z80_CFCard_Emul.c ****         Z80_Data_In_Write(CF_Head);
 501              		.loc 1 227 0
 502 0002 034B     		ldr	r3, .L54
 503 0004 1878     		ldrb	r0, [r3]	@ zero_extendqisi2
 504 0006 FFF7FEFF 		bl	Z80_Data_In_Write
 505              	.LVL24:
 228:Z80_CFCard_Emul.c ****         ackIO();
 506              		.loc 1 228 0
 507 000a FFF7FEFF 		bl	ackIO
 508              	.LVL25:
 509 000e 08BD     		pop	{r3, pc}
 510              	.L55:
 511              		.align	2
 512              	.L54:
 513 0010 00000000 		.word	CF_Head
ARM GAS  C:\Users\HPz420\AppData\Local\Temp\ccHqlaxd.s 			page 14


 514              		.cfi_endproc
 515              	.LFE76:
 516              		.size	CFReadHead, .-CFReadHead
 517              		.section	.text.CFWriteLBA3,"ax",%progbits
 518              		.align	2
 519              		.global	CFWriteLBA3
 520              		.thumb
 521              		.thumb_func
 522              		.type	CFWriteLBA3, %function
 523              	CFWriteLBA3:
 524              	.LFB77:
 229:Z80_CFCard_Emul.c ****         return;
 230:Z80_CFCard_Emul.c ****     }
 231:Z80_CFCard_Emul.c **** 
 232:Z80_CFCard_Emul.c ****     ///////////////////////////////////////////////////////////////////////////////
 233:Z80_CFCard_Emul.c ****     // void CFWriteLBA3(void)
 234:Z80_CFCard_Emul.c ****     // CF_LBA3		.EQU	$16
 235:Z80_CFCard_Emul.c ****     // In Grant's monitor code
 236:Z80_CFCard_Emul.c ****     // In cbios128 - OUT - In functions setLBAaddr, CF_LBA0
 237:Z80_CFCard_Emul.c ****     // Hard coded to 0xE0
 238:Z80_CFCard_Emul.c ****         
 239:Z80_CFCard_Emul.c ****     void    CFWriteLBA3(void)
 240:Z80_CFCard_Emul.c ****     {
 525              		.loc 1 240 0
 526              		.cfi_startproc
 527              		@ args = 0, pretend = 0, frame = 0
 528              		@ frame_needed = 0, uses_anonymous_args = 0
 529 0000 08B5     		push	{r3, lr}
 530              		.cfi_def_cfa_offset 8
 531              		.cfi_offset 3, -8
 532              		.cfi_offset 14, -4
 241:Z80_CFCard_Emul.c ****         CF_LBA3 = Z80_Data_Out_Read();
 533              		.loc 1 241 0
 534 0002 FFF7FEFF 		bl	Z80_Data_Out_Read
 535              	.LVL26:
 536 0006 024B     		ldr	r3, .L58
 537 0008 1870     		strb	r0, [r3]
 242:Z80_CFCard_Emul.c ****         ackIO();
 538              		.loc 1 242 0
 539 000a FFF7FEFF 		bl	ackIO
 540              	.LVL27:
 541 000e 08BD     		pop	{r3, pc}
 542              	.L59:
 543              		.align	2
 544              	.L58:
 545 0010 00000000 		.word	CF_LBA3
 546              		.cfi_endproc
 547              	.LFE77:
 548              		.size	CFWriteLBA3, .-CFWriteLBA3
 549              		.section	.text.CFReadStatus,"ax",%progbits
 550              		.align	2
 551              		.global	CFReadStatus
 552              		.thumb
 553              		.thumb_func
 554              		.type	CFReadStatus, %function
 555              	CFReadStatus:
 556              	.LFB78:
ARM GAS  C:\Users\HPz420\AppData\Local\Temp\ccHqlaxd.s 			page 15


 243:Z80_CFCard_Emul.c ****         return;
 244:Z80_CFCard_Emul.c ****     }
 245:Z80_CFCard_Emul.c **** 
 246:Z80_CFCard_Emul.c ****     ///////////////////////////////////////////////////////////////////////////////
 247:Z80_CFCard_Emul.c ****     // void CFReadStatus(void)
 248:Z80_CFCard_Emul.c ****     // CF_STATUS	.EQU	$17
 249:Z80_CFCard_Emul.c ****     // In Grant's monitor code - IN - In function cfWait
 250:Z80_CFCard_Emul.c ****     // Wait for disk to be ready (busy=0,ready=1)
 251:Z80_CFCard_Emul.c ****     // In cbios128 - IN - Used in function cfWait1
 252:Z80_CFCard_Emul.c **** 
 253:Z80_CFCard_Emul.c ****     void CFReadStatus(void)
 254:Z80_CFCard_Emul.c ****     {
 557              		.loc 1 254 0
 558              		.cfi_startproc
 559              		@ args = 0, pretend = 0, frame = 0
 560              		@ frame_needed = 0, uses_anonymous_args = 0
 561 0000 08B5     		push	{r3, lr}
 562              		.cfi_def_cfa_offset 8
 563              		.cfi_offset 3, -8
 564              		.cfi_offset 14, -4
 255:Z80_CFCard_Emul.c ****         Z80_Data_In_Write(CF_Status);
 565              		.loc 1 255 0
 566 0002 034B     		ldr	r3, .L62
 567 0004 1878     		ldrb	r0, [r3]	@ zero_extendqisi2
 568 0006 FFF7FEFF 		bl	Z80_Data_In_Write
 569              	.LVL28:
 256:Z80_CFCard_Emul.c ****         ackIO();
 570              		.loc 1 256 0
 571 000a FFF7FEFF 		bl	ackIO
 572              	.LVL29:
 573 000e 08BD     		pop	{r3, pc}
 574              	.L63:
 575              		.align	2
 576              	.L62:
 577 0010 00000000 		.word	CF_Status
 578              		.cfi_endproc
 579              	.LFE78:
 580              		.size	CFReadStatus, .-CFReadStatus
 581              		.section	.text.CFWriteCommand,"ax",%progbits
 582              		.align	2
 583              		.global	CFWriteCommand
 584              		.thumb
 585              		.thumb_func
 586              		.type	CFWriteCommand, %function
 587              	CFWriteCommand:
 588              	.LFB79:
 257:Z80_CFCard_Emul.c ****     }
 258:Z80_CFCard_Emul.c **** 
 259:Z80_CFCard_Emul.c ****     ///////////////////////////////////////////////////////////////////////////////
 260:Z80_CFCard_Emul.c ****     // void CFWriteCommand(void)
 261:Z80_CFCard_Emul.c ****     // CF_COMMAND	.EQU	$17
 262:Z80_CFCard_Emul.c ****     // In Grant's monitor code - OUT - In function CPMLOAD2
 263:Z80_CFCard_Emul.c ****     // In cbios128 - OUT - In functions boot, CF_LBA0(wboot), readhst, writehst
 264:Z80_CFCard_Emul.c **** 
 265:Z80_CFCard_Emul.c ****     void CFWriteCommand(void)
 266:Z80_CFCard_Emul.c ****     {
 589              		.loc 1 266 0
ARM GAS  C:\Users\HPz420\AppData\Local\Temp\ccHqlaxd.s 			page 16


 590              		.cfi_startproc
 591              		@ args = 0, pretend = 0, frame = 0
 592              		@ frame_needed = 0, uses_anonymous_args = 0
 593 0000 08B5     		push	{r3, lr}
 594              		.cfi_def_cfa_offset 8
 595              		.cfi_offset 3, -8
 596              		.cfi_offset 14, -4
 267:Z80_CFCard_Emul.c ****         CF_WriteCommand = Z80_Data_Out_Read();
 597              		.loc 1 267 0
 598 0002 FFF7FEFF 		bl	Z80_Data_Out_Read
 599              	.LVL30:
 600 0006 024B     		ldr	r3, .L66
 601 0008 1870     		strb	r0, [r3]
 268:Z80_CFCard_Emul.c ****         ackIO();
 602              		.loc 1 268 0
 603 000a FFF7FEFF 		bl	ackIO
 604              	.LVL31:
 605 000e 08BD     		pop	{r3, pc}
 606              	.L67:
 607              		.align	2
 608              	.L66:
 609 0010 00000000 		.word	CF_WriteCommand
 610              		.cfi_endproc
 611              	.LFE79:
 612              		.size	CFWriteCommand, .-CFWriteCommand
 613              		.comm	CF_Head,1,1
 614              		.comm	CF_WriteCommand,1,1
 615              		.comm	CF_CylHigh,1,1
 616              		.comm	CF_CylLow,1,1
 617              		.comm	CF_LBA3,1,1
 618              		.comm	CF_LBA2,1,1
 619              		.comm	CF_LBA1,1,1
 620              		.comm	CF_LBA0,1,1
 621              		.comm	CF_ReadSector,1,1
 622              		.comm	CF_SectorCount,1,1
 623              		.comm	CF_Features,1,1
 624              		.comm	CF_ErrorStatus,1,1
 625              		.comm	CF_Status,1,1
 626              		.comm	CF_DataIn,1,1
 627              		.comm	CF_DataOut,1,1
 628              		.text
 629              	.Letext0:
 630              		.file 2 "c:\\program files (x86)\\cypress\\psoc creator\\4.2\\psoc creator\\import\\gnu\\arm\\5.4.
 631              		.file 3 "c:\\program files (x86)\\cypress\\psoc creator\\4.2\\psoc creator\\import\\gnu\\arm\\5.4.
 632              		.file 4 "Generated_Source\\PSoC5/cytypes.h"
 633              		.file 5 "Generated_Source\\PSoC5/core_cm3.h"
 634              		.file 6 "Generated_Source\\PSoC5/Z80_Data_In.h"
 635              		.file 7 "Z80_IO_Handle.h"
 636              		.file 8 "Generated_Source\\PSoC5/Z80_Data_Out.h"