ARM GAS  C:\Users\HPz420\AppData\Local\Temp\ccCnyhH2.s 			page 1


   1              		.syntax unified
   2              		.cpu cortex-m3
   3              		.fpu softvfp
   4              		.eabi_attribute 20, 1
   5              		.eabi_attribute 21, 1
   6              		.eabi_attribute 23, 3
   7              		.eabi_attribute 24, 1
   8              		.eabi_attribute 25, 1
   9              		.eabi_attribute 26, 1
  10              		.eabi_attribute 30, 1
  11              		.eabi_attribute 34, 1
  12              		.eabi_attribute 18, 4
  13              		.thumb
  14              		.syntax unified
  15              		.file	"Z80_6850_Emul.c"
  16              		.text
  17              	.Ltext0:
  18              		.cfi_sections	.debug_frame
  19              		.section	.text.M6850ReadIntReg,"ax",%progbits
  20              		.align	2
  21              		.global	M6850ReadIntReg
  22              		.thumb
  23              		.thumb_func
  24              		.type	M6850ReadIntReg, %function
  25              	M6850ReadIntReg:
  26              	.LFB63:
  27              		.file 1 "Z80_6850_Emul.c"
   1:Z80_6850_Emul.c **** /* ========================================
   2:Z80_6850_Emul.c ****  *
   3:Z80_6850_Emul.c ****  * Copyright YOUR COMPANY, THE YEAR
   4:Z80_6850_Emul.c ****  * All Rights Reserved
   5:Z80_6850_Emul.c ****  * UNPUBLISHED, LICENSED SOFTWARE.
   6:Z80_6850_Emul.c ****  *
   7:Z80_6850_Emul.c ****  * CONFIDENTIAL AND PROPRIETARY INFORMATION
   8:Z80_6850_Emul.c ****  * WHICH IS THE PROPERTY OF your company.
   9:Z80_6850_Emul.c ****  *
  10:Z80_6850_Emul.c ****  * ========================================
  11:Z80_6850_Emul.c **** */
  12:Z80_6850_Emul.c **** 
  13:Z80_6850_Emul.c **** #include <project.h>
  14:Z80_6850_Emul.c **** 
  15:Z80_6850_Emul.c **** #include "Hardware_Config.h"
  16:Z80_6850_Emul.c **** #include "Z80_6850_Emul.h"
  17:Z80_6850_Emul.c **** #include "Z80_IO_Handle.h"
  18:Z80_6850_Emul.c **** 
  19:Z80_6850_Emul.c **** #ifdef USING_6850
  20:Z80_6850_Emul.c **** 
  21:Z80_6850_Emul.c **** #define SIO_CHAR_RDY                0x01
  22:Z80_6850_Emul.c **** #define M6850_INT_RTS_MASK          0x60
  23:Z80_6850_Emul.c **** #define M6850_RTS_LOW__INT_EN       0x20    // Not used by Grant's 7-chip code
  24:Z80_6850_Emul.c **** #define M6850_RTS_HI__INT_DIS       0x40
  25:Z80_6850_Emul.c **** #define M6850_RTS_LOW__INT_DIS_BK   0x60    // Not used by Grant's 7-chip code
  26:Z80_6850_Emul.c **** 
  27:Z80_6850_Emul.c **** volatile uint8 M6850_Ctrl;
  28:Z80_6850_Emul.c **** volatile uint8 M6850_Status;
  29:Z80_6850_Emul.c **** volatile uint8 M6850_DataOut;
  30:Z80_6850_Emul.c **** volatile uint8 M6850_DataIn;
ARM GAS  C:\Users\HPz420\AppData\Local\Temp\ccCnyhH2.s 			page 2


  31:Z80_6850_Emul.c **** 
  32:Z80_6850_Emul.c **** ///////////////////////////////////////////////////////////////////////////////
  33:Z80_6850_Emul.c **** // void M6850ReadIntReg(void) - Read the Interrupt vector
  34:Z80_6850_Emul.c **** 
  35:Z80_6850_Emul.c **** void M6850ReadIntReg(void)
  36:Z80_6850_Emul.c **** {
  28              		.loc 1 36 0
  29              		.cfi_startproc
  30              		@ args = 0, pretend = 0, frame = 0
  31              		@ frame_needed = 0, uses_anonymous_args = 0
  32 0000 08B5     		push	{r3, lr}
  33              		.cfi_def_cfa_offset 8
  34              		.cfi_offset 3, -8
  35              		.cfi_offset 14, -4
  37:Z80_6850_Emul.c ****     Z80_Data_In_Write(0xFF);
  36              		.loc 1 37 0
  37 0002 FF20     		movs	r0, #255
  38 0004 FFF7FEFF 		bl	Z80_Data_In_Write
  39              	.LVL0:
  38:Z80_6850_Emul.c ****     IO_Ctrl_Reg_Write(IO_Ctrl_Reg_Read() & 0x7F);   // Clear IRQ* line
  40              		.loc 1 38 0
  41 0008 FFF7FEFF 		bl	IO_Ctrl_Reg_Read
  42              	.LVL1:
  43 000c 00F07F00 		and	r0, r0, #127
  44 0010 FFF7FEFF 		bl	IO_Ctrl_Reg_Write
  45              	.LVL2:
  39:Z80_6850_Emul.c ****     ackIO();
  46              		.loc 1 39 0
  47 0014 FFF7FEFF 		bl	ackIO
  48              	.LVL3:
  49 0018 08BD     		pop	{r3, pc}
  50              		.cfi_endproc
  51              	.LFE63:
  52              		.size	M6850ReadIntReg, .-M6850ReadIntReg
  53 001a 00BF     		.section	.text.sendCharToZ80,"ax",%progbits
  54              		.align	2
  55              		.global	sendCharToZ80
  56              		.thumb
  57              		.thumb_func
  58              		.type	sendCharToZ80, %function
  59              	sendCharToZ80:
  60              	.LFB64:
  40:Z80_6850_Emul.c **** }
  41:Z80_6850_Emul.c **** 
  42:Z80_6850_Emul.c **** ///////////////////////////////////////////////////////////////////////////////
  43:Z80_6850_Emul.c **** // void sendCharToZ80(uint8 rxChar) - Send a character to the Z80 by placing it
  44:Z80_6850_Emul.c **** // into the SIO_A_DataIn register and making the RxCharacterAvailable active.
  45:Z80_6850_Emul.c **** 
  46:Z80_6850_Emul.c **** void sendCharToZ80(uint8 rxChar)
  47:Z80_6850_Emul.c **** {
  61              		.loc 1 47 0
  62              		.cfi_startproc
  63              		@ args = 0, pretend = 0, frame = 0
  64              		@ frame_needed = 0, uses_anonymous_args = 0
  65              	.LVL4:
  66 0000 08B5     		push	{r3, lr}
  67              		.cfi_def_cfa_offset 8
ARM GAS  C:\Users\HPz420\AppData\Local\Temp\ccCnyhH2.s 			page 3


  68              		.cfi_offset 3, -8
  69              		.cfi_offset 14, -4
  48:Z80_6850_Emul.c ****     M6850_DataIn = rxChar;                                          // Put the char into the buffer
  70              		.loc 1 48 0
  71 0002 0A4B     		ldr	r3, .L6
  72 0004 1870     		strb	r0, [r3]
  49:Z80_6850_Emul.c ****     M6850_Status |= SIO_CHAR_RDY;                                   // Rx Character Available
  73              		.loc 1 49 0
  74 0006 0A4A     		ldr	r2, .L6+4
  75 0008 1378     		ldrb	r3, [r2]	@ zero_extendqisi2
  76 000a 43F00103 		orr	r3, r3, #1
  77 000e 1370     		strb	r3, [r2]
  50:Z80_6850_Emul.c ****     if ((M6850_Ctrl & M6850_INT_RTS_MASK) != M6850_RTS_LOW__INT_EN) // Only set IRQ if it is enable
  78              		.loc 1 50 0
  79 0010 084B     		ldr	r3, .L6+8
  80 0012 1B78     		ldrb	r3, [r3]	@ zero_extendqisi2
  81 0014 03F06003 		and	r3, r3, #96
  82 0018 202B     		cmp	r3, #32
  83 001a 06D0     		beq	.L3
  51:Z80_6850_Emul.c ****         IO_Ctrl_Reg_Write(IO_Ctrl_Reg_Read() | 0x04);               // Set IRQ* line
  84              		.loc 1 51 0
  85 001c FFF7FEFF 		bl	IO_Ctrl_Reg_Read
  86              	.LVL5:
  87 0020 40F00400 		orr	r0, r0, #4
  88 0024 C0B2     		uxtb	r0, r0
  89 0026 FFF7FEFF 		bl	IO_Ctrl_Reg_Write
  90              	.LVL6:
  91              	.L3:
  92 002a 08BD     		pop	{r3, pc}
  93              	.L7:
  94              		.align	2
  95              	.L6:
  96 002c 00000000 		.word	M6850_DataIn
  97 0030 00000000 		.word	M6850_Status
  98 0034 00000000 		.word	M6850_Ctrl
  99              		.cfi_endproc
 100              	.LFE64:
 101              		.size	sendCharToZ80, .-sendCharToZ80
 102              		.section	.text.checkSerialReceiverBusy,"ax",%progbits
 103              		.align	2
 104              		.global	checkSerialReceiverBusy
 105              		.thumb
 106              		.thumb_func
 107              		.type	checkSerialReceiverBusy, %function
 108              	checkSerialReceiverBusy:
 109              	.LFB65:
  52:Z80_6850_Emul.c **** }
  53:Z80_6850_Emul.c **** 
  54:Z80_6850_Emul.c **** ///////////////////////////////////////////////////////////////////////////////
  55:Z80_6850_Emul.c **** // uint8 checkSerialReceiverBusy(void) - Check the Serial port receiver status
  56:Z80_6850_Emul.c **** // Returns: 
  57:Z80_6850_Emul.c **** //  0 if the port can take another character
  58:Z80_6850_Emul.c **** //  1 if the port is busy and can't take another character
  59:Z80_6850_Emul.c **** 
  60:Z80_6850_Emul.c **** uint8 checkSerialReceiverBusy(void)
  61:Z80_6850_Emul.c **** {
 110              		.loc 1 61 0
ARM GAS  C:\Users\HPz420\AppData\Local\Temp\ccCnyhH2.s 			page 4


 111              		.cfi_startproc
 112              		@ args = 0, pretend = 0, frame = 0
 113              		@ frame_needed = 0, uses_anonymous_args = 0
 114              		@ link register save eliminated.
  62:Z80_6850_Emul.c ****     if ((M6850_Ctrl & M6850_INT_RTS_MASK) != M6850_RTS_HI__INT_DIS)
 115              		.loc 1 62 0
 116 0000 064B     		ldr	r3, .L11
 117 0002 1B78     		ldrb	r3, [r3]	@ zero_extendqisi2
 118 0004 03F06003 		and	r3, r3, #96
 119 0008 402B     		cmp	r3, #64
 120 000a 04D1     		bne	.L10
  63:Z80_6850_Emul.c ****     {
  64:Z80_6850_Emul.c ****         return(1);
  65:Z80_6850_Emul.c ****     }
  66:Z80_6850_Emul.c ****     return (M6850_Status & SIO_CHAR_RDY);
 121              		.loc 1 66 0
 122 000c 044B     		ldr	r3, .L11+4
 123 000e 1878     		ldrb	r0, [r3]	@ zero_extendqisi2
 124 0010 00F00100 		and	r0, r0, #1
 125 0014 7047     		bx	lr
 126              	.L10:
  64:Z80_6850_Emul.c ****     }
 127              		.loc 1 64 0
 128 0016 0120     		movs	r0, #1
  67:Z80_6850_Emul.c **** }
 129              		.loc 1 67 0
 130 0018 7047     		bx	lr
 131              	.L12:
 132 001a 00BF     		.align	2
 133              	.L11:
 134 001c 00000000 		.word	M6850_Ctrl
 135 0020 00000000 		.word	M6850_Status
 136              		.cfi_endproc
 137              	.LFE65:
 138              		.size	checkSerialReceiverBusy, .-checkSerialReceiverBusy
 139              		.section	.text.M6850ReadData,"ax",%progbits
 140              		.align	2
 141              		.global	M6850ReadData
 142              		.thumb
 143              		.thumb_func
 144              		.type	M6850ReadData, %function
 145              	M6850ReadData:
 146              	.LFB66:
  68:Z80_6850_Emul.c **** 
  69:Z80_6850_Emul.c **** ///////////////////////////////////////////////////////////////////////////////
  70:Z80_6850_Emul.c **** // M6850ReadData(void)- Z80 is reading data from Serial Port
  71:Z80_6850_Emul.c **** 
  72:Z80_6850_Emul.c **** void M6850ReadData(void)
  73:Z80_6850_Emul.c **** {
 147              		.loc 1 73 0
 148              		.cfi_startproc
 149              		@ args = 0, pretend = 0, frame = 0
 150              		@ frame_needed = 0, uses_anonymous_args = 0
 151 0000 08B5     		push	{r3, lr}
 152              		.cfi_def_cfa_offset 8
 153              		.cfi_offset 3, -8
 154              		.cfi_offset 14, -4
ARM GAS  C:\Users\HPz420\AppData\Local\Temp\ccCnyhH2.s 			page 5


  74:Z80_6850_Emul.c ****     Z80_Data_In_Write(M6850_DataIn);
 155              		.loc 1 74 0
 156 0002 064B     		ldr	r3, .L15
 157 0004 1878     		ldrb	r0, [r3]	@ zero_extendqisi2
 158 0006 FFF7FEFF 		bl	Z80_Data_In_Write
 159              	.LVL7:
  75:Z80_6850_Emul.c ****     M6850_Status &= 0xFE;                              // No Rx Character Available
 160              		.loc 1 75 0
 161 000a 054A     		ldr	r2, .L15+4
 162 000c 1378     		ldrb	r3, [r2]	@ zero_extendqisi2
 163 000e 03F0FE03 		and	r3, r3, #254
 164 0012 1370     		strb	r3, [r2]
  76:Z80_6850_Emul.c ****     ackIO();
 165              		.loc 1 76 0
 166 0014 FFF7FEFF 		bl	ackIO
 167              	.LVL8:
 168 0018 08BD     		pop	{r3, pc}
 169              	.L16:
 170 001a 00BF     		.align	2
 171              	.L15:
 172 001c 00000000 		.word	M6850_DataIn
 173 0020 00000000 		.word	M6850_Status
 174              		.cfi_endproc
 175              	.LFE66:
 176              		.size	M6850ReadData, .-M6850ReadData
 177              		.section	.text.M6850WriteData,"ax",%progbits
 178              		.align	2
 179              		.global	M6850WriteData
 180              		.thumb
 181              		.thumb_func
 182              		.type	M6850WriteData, %function
 183              	M6850WriteData:
 184              	.LFB67:
  77:Z80_6850_Emul.c **** }
  78:Z80_6850_Emul.c **** 
  79:Z80_6850_Emul.c **** ///////////////////////////////////////////////////////////////////////////////
  80:Z80_6850_Emul.c **** // void M6850WriteData(void) - Send a single byte from the Z80 to the USB
  81:Z80_6850_Emul.c **** 
  82:Z80_6850_Emul.c **** void M6850WriteData(void)
  83:Z80_6850_Emul.c **** {
 185              		.loc 1 83 0
 186              		.cfi_startproc
 187              		@ args = 0, pretend = 0, frame = 64
 188              		@ frame_needed = 0, uses_anonymous_args = 0
 189 0000 00B5     		push	{lr}
 190              		.cfi_def_cfa_offset 4
 191              		.cfi_offset 14, -4
 192 0002 91B0     		sub	sp, sp, #68
 193              		.cfi_def_cfa_offset 72
 194              	.L18:
  84:Z80_6850_Emul.c ****     uint8 buffer[64];
  85:Z80_6850_Emul.c ****     uint16 count = 1;
  86:Z80_6850_Emul.c ****     while (0u == USBUART_CDCIsReady());
 195              		.loc 1 86 0 discriminator 1
 196 0004 FFF7FEFF 		bl	USBUART_CDCIsReady
 197              	.LVL9:
 198 0008 0028     		cmp	r0, #0
ARM GAS  C:\Users\HPz420\AppData\Local\Temp\ccCnyhH2.s 			page 6


 199 000a FBD0     		beq	.L18
  87:Z80_6850_Emul.c ****     buffer[0] = Z80_Data_Out_Read();
 200              		.loc 1 87 0
 201 000c FFF7FEFF 		bl	Z80_Data_Out_Read
 202              	.LVL10:
 203 0010 10AB     		add	r3, sp, #64
 204 0012 03F8400D 		strb	r0, [r3, #-64]!
  88:Z80_6850_Emul.c ****     USBUART_PutData(buffer, count);
 205              		.loc 1 88 0
 206 0016 0121     		movs	r1, #1
 207 0018 1846     		mov	r0, r3
 208 001a FFF7FEFF 		bl	USBUART_PutData
 209              	.LVL11:
  89:Z80_6850_Emul.c ****     ackIO();
 210              		.loc 1 89 0
 211 001e FFF7FEFF 		bl	ackIO
 212              	.LVL12:
  90:Z80_6850_Emul.c **** }
 213              		.loc 1 90 0
 214 0022 11B0     		add	sp, sp, #68
 215              		.cfi_def_cfa_offset 4
 216              		@ sp needed
 217 0024 5DF804FB 		ldr	pc, [sp], #4
 218              		.cfi_endproc
 219              	.LFE67:
 220              		.size	M6850WriteData, .-M6850WriteData
 221              		.section	.text.M6850ReadStatus,"ax",%progbits
 222              		.align	2
 223              		.global	M6850ReadStatus
 224              		.thumb
 225              		.thumb_func
 226              		.type	M6850ReadStatus, %function
 227              	M6850ReadStatus:
 228              	.LFB68:
  91:Z80_6850_Emul.c **** 
  92:Z80_6850_Emul.c **** ///////////////////////////////////////////////////////////////////////////////
  93:Z80_6850_Emul.c **** // void M6850ReadStatus(void) - Read the Status registers
  94:Z80_6850_Emul.c **** 
  95:Z80_6850_Emul.c **** void M6850ReadStatus(void)
  96:Z80_6850_Emul.c **** {
 229              		.loc 1 96 0
 230              		.cfi_startproc
 231              		@ args = 0, pretend = 0, frame = 0
 232              		@ frame_needed = 0, uses_anonymous_args = 0
 233 0000 08B5     		push	{r3, lr}
 234              		.cfi_def_cfa_offset 8
 235              		.cfi_offset 3, -8
 236              		.cfi_offset 14, -4
  97:Z80_6850_Emul.c ****     Z80_Data_In_Write(M6850_Status);
 237              		.loc 1 97 0
 238 0002 034B     		ldr	r3, .L22
 239 0004 1878     		ldrb	r0, [r3]	@ zero_extendqisi2
 240 0006 FFF7FEFF 		bl	Z80_Data_In_Write
 241              	.LVL13:
  98:Z80_6850_Emul.c ****     ackIO();
 242              		.loc 1 98 0
 243 000a FFF7FEFF 		bl	ackIO
ARM GAS  C:\Users\HPz420\AppData\Local\Temp\ccCnyhH2.s 			page 7


 244              	.LVL14:
 245 000e 08BD     		pop	{r3, pc}
 246              	.L23:
 247              		.align	2
 248              	.L22:
 249 0010 00000000 		.word	M6850_Status
 250              		.cfi_endproc
 251              	.LFE68:
 252              		.size	M6850ReadStatus, .-M6850ReadStatus
 253              		.section	.text.M6850WriteCtrl,"ax",%progbits
 254              		.align	2
 255              		.global	M6850WriteCtrl
 256              		.thumb
 257              		.thumb_func
 258              		.type	M6850WriteCtrl, %function
 259              	M6850WriteCtrl:
 260              	.LFB69:
  99:Z80_6850_Emul.c **** }
 100:Z80_6850_Emul.c **** 
 101:Z80_6850_Emul.c **** ///////////////////////////////////////////////////////////////////////////////
 102:Z80_6850_Emul.c **** // void M6850WriteCtrl(void) - Write to the SIO Port A control registers
 103:Z80_6850_Emul.c **** 
 104:Z80_6850_Emul.c **** void M6850WriteCtrl(void)
 105:Z80_6850_Emul.c **** {
 261              		.loc 1 105 0
 262              		.cfi_startproc
 263              		@ args = 0, pretend = 0, frame = 0
 264              		@ frame_needed = 0, uses_anonymous_args = 0
 265 0000 08B5     		push	{r3, lr}
 266              		.cfi_def_cfa_offset 8
 267              		.cfi_offset 3, -8
 268              		.cfi_offset 14, -4
 106:Z80_6850_Emul.c ****     M6850_Ctrl = Z80_Data_Out_Read();
 269              		.loc 1 106 0
 270 0002 FFF7FEFF 		bl	Z80_Data_Out_Read
 271              	.LVL15:
 272 0006 024B     		ldr	r3, .L26
 273 0008 1870     		strb	r0, [r3]
 107:Z80_6850_Emul.c ****     // TBD - This is where the side effects of changing control codes are handled
 108:Z80_6850_Emul.c ****     ackIO();
 274              		.loc 1 108 0
 275 000a FFF7FEFF 		bl	ackIO
 276              	.LVL16:
 277 000e 08BD     		pop	{r3, pc}
 278              	.L27:
 279              		.align	2
 280              	.L26:
 281 0010 00000000 		.word	M6850_Ctrl
 282              		.cfi_endproc
 283              	.LFE69:
 284              		.size	M6850WriteCtrl, .-M6850WriteCtrl
 285              		.comm	M6850_DataIn,1,1
 286              		.comm	M6850_DataOut,1,1
 287              		.comm	M6850_Status,1,1
 288              		.comm	M6850_Ctrl,1,1
 289              		.text
 290              	.Letext0:
ARM GAS  C:\Users\HPz420\AppData\Local\Temp\ccCnyhH2.s 			page 8


 291              		.file 2 "c:\\program files (x86)\\cypress\\psoc creator\\4.2\\psoc creator\\import\\gnu\\arm\\5.4.
 292              		.file 3 "c:\\program files (x86)\\cypress\\psoc creator\\4.2\\psoc creator\\import\\gnu\\arm\\5.4.
 293              		.file 4 "Generated_Source\\PSoC5/cytypes.h"
 294              		.file 5 "Generated_Source\\PSoC5/core_cm3.h"
 295              		.file 6 "Generated_Source\\PSoC5/Z80_Data_In.h"
 296              		.file 7 "Generated_Source\\PSoC5/IO_Ctrl_Reg.h"
 297              		.file 8 "Z80_IO_Handle.h"
 298              		.file 9 "Generated_Source\\PSoC5/USBUART_cdc.h"
 299              		.file 10 "Generated_Source\\PSoC5/Z80_Data_Out.h"