ARM GAS  C:\Users\HPz420\AppData\Local\Temp\ccfVn4Iy.s 			page 1


   1              		.syntax unified
   2              		.cpu cortex-m3
   3              		.fpu softvfp
   4              		.eabi_attribute 20, 1
   5              		.eabi_attribute 21, 1
   6              		.eabi_attribute 23, 3
   7              		.eabi_attribute 24, 1
   8              		.eabi_attribute 25, 1
   9              		.eabi_attribute 26, 1
  10              		.eabi_attribute 30, 1
  11              		.eabi_attribute 34, 1
  12              		.eabi_attribute 18, 4
  13              		.thumb
  14              		.syntax unified
  15              		.file	"Z80_SIO_emul.c"
  16              		.text
  17              	.Ltext0:
  18              		.cfi_sections	.debug_frame
  19              		.section	.text.sendCharToZ80,"ax",%progbits
  20              		.align	2
  21              		.global	sendCharToZ80
  22              		.thumb
  23              		.thumb_func
  24              		.type	sendCharToZ80, %function
  25              	sendCharToZ80:
  26              	.LFB63:
  27              		.file 1 "Z80_SIO_emul.c"
   1:Z80_SIO_emul.c **** /* ========================================
   2:Z80_SIO_emul.c ****  *
   3:Z80_SIO_emul.c ****  * Copyright YOUR COMPANY, THE YEAR
   4:Z80_SIO_emul.c ****  * All Rights Reserved
   5:Z80_SIO_emul.c ****  * UNPUBLISHED, LICENSED SOFTWARE.
   6:Z80_SIO_emul.c ****  *
   7:Z80_SIO_emul.c ****  * CONFIDENTIAL AND PROPRIETARY INFORMATION
   8:Z80_SIO_emul.c ****  * WHICH IS THE PROPERTY OF your company.
   9:Z80_SIO_emul.c ****  *
  10:Z80_SIO_emul.c ****  * ========================================
  11:Z80_SIO_emul.c **** */
  12:Z80_SIO_emul.c **** 
  13:Z80_SIO_emul.c **** #include <project.h>
  14:Z80_SIO_emul.c **** #include "Z80_SIO_emul.h"
  15:Z80_SIO_emul.c **** 
  16:Z80_SIO_emul.c **** volatile uint8 SIO_A_Ctrl1;
  17:Z80_SIO_emul.c **** volatile uint8 SIO_A_Ctrl2;
  18:Z80_SIO_emul.c **** volatile uint8 SIO_A_Status;
  19:Z80_SIO_emul.c **** volatile uint8 SIO_A_DataOut;
  20:Z80_SIO_emul.c **** volatile uint8 SIO_A_DataIn;
  21:Z80_SIO_emul.c **** volatile uint8 SIO_A_Ctrl_Count;
  22:Z80_SIO_emul.c **** volatile uint8 SIO_A_WR0;
  23:Z80_SIO_emul.c **** volatile uint8 SIO_A_WR1;
  24:Z80_SIO_emul.c **** volatile uint8 SIO_A_WR2;
  25:Z80_SIO_emul.c **** volatile uint8 SIO_A_WR3;
  26:Z80_SIO_emul.c **** volatile uint8 SIO_A_WR4;
  27:Z80_SIO_emul.c **** volatile uint8 SIO_A_WR5;
  28:Z80_SIO_emul.c **** volatile uint8 SIO_A_WR6;
  29:Z80_SIO_emul.c **** volatile uint8 SIO_A_WR7;
  30:Z80_SIO_emul.c **** volatile uint8 SIO_A_RD0;
ARM GAS  C:\Users\HPz420\AppData\Local\Temp\ccfVn4Iy.s 			page 2


  31:Z80_SIO_emul.c **** volatile uint8 SIO_A_RD1;
  32:Z80_SIO_emul.c **** volatile uint8 SIO_A_RD2;
  33:Z80_SIO_emul.c **** volatile uint8 UART_A_TXD;
  34:Z80_SIO_emul.c **** volatile uint8 UART_A_TXD_BUSY;
  35:Z80_SIO_emul.c **** 
  36:Z80_SIO_emul.c **** volatile uint8 SIO_B_Ctrl1;
  37:Z80_SIO_emul.c **** volatile uint8 SIO_B_Ctrl2;
  38:Z80_SIO_emul.c **** volatile uint8 SIO_B_Status;
  39:Z80_SIO_emul.c **** volatile uint8 SIO_B_DataOut;
  40:Z80_SIO_emul.c **** volatile uint8 SIO_B_DataIn;
  41:Z80_SIO_emul.c **** volatile uint8 SIO_B_Ctrl_Count;
  42:Z80_SIO_emul.c **** volatile uint8 SIO_B_WR0;
  43:Z80_SIO_emul.c **** volatile uint8 SIO_B_WR1;
  44:Z80_SIO_emul.c **** volatile uint8 SIO_B_WR2;
  45:Z80_SIO_emul.c **** volatile uint8 SIO_B_WR3;
  46:Z80_SIO_emul.c **** volatile uint8 SIO_B_WR4;
  47:Z80_SIO_emul.c **** volatile uint8 SIO_B_WR5;
  48:Z80_SIO_emul.c **** volatile uint8 SIO_B_WR6;
  49:Z80_SIO_emul.c **** volatile uint8 SIO_B_WR7;
  50:Z80_SIO_emul.c **** volatile uint8 SIO_B_RD0;
  51:Z80_SIO_emul.c **** volatile uint8 SIO_B_RD1;
  52:Z80_SIO_emul.c **** volatile uint8 SIO_B_RD2;
  53:Z80_SIO_emul.c **** volatile uint8 UART_B_TXD;
  54:Z80_SIO_emul.c **** volatile uint8 UART_B_TXD_BUSY;
  55:Z80_SIO_emul.c **** 
  56:Z80_SIO_emul.c **** void sendCharToZ80(uint8 rxChar)
  57:Z80_SIO_emul.c **** {
  28              		.loc 1 57 0
  29              		.cfi_startproc
  30              		@ args = 0, pretend = 0, frame = 0
  31              		@ frame_needed = 0, uses_anonymous_args = 0
  32              	.LVL0:
  33 0000 08B5     		push	{r3, lr}
  34              		.cfi_def_cfa_offset 8
  35              		.cfi_offset 3, -8
  36              		.cfi_offset 14, -4
  58:Z80_SIO_emul.c ****     SIO_A_DataIn = rxChar;                          // Put the char into the buffer
  37              		.loc 1 58 0
  38 0002 074B     		ldr	r3, .L3
  39 0004 1870     		strb	r0, [r3]
  59:Z80_SIO_emul.c ****     SIO_A_RD0 |= 0x1;                               // Rx Character Available
  40              		.loc 1 59 0
  41 0006 074A     		ldr	r2, .L3+4
  42 0008 1378     		ldrb	r3, [r2]	@ zero_extendqisi2
  43 000a 43F00103 		orr	r3, r3, #1
  44 000e 1370     		strb	r3, [r2]
  60:Z80_SIO_emul.c ****     IO_Ctrl_Reg_Write(IO_Ctrl_Reg_Read() | 0x04);   // Set IRQ* line
  45              		.loc 1 60 0
  46 0010 FFF7FEFF 		bl	IO_Ctrl_Reg_Read
  47              	.LVL1:
  48 0014 40F00400 		orr	r0, r0, #4
  49 0018 C0B2     		uxtb	r0, r0
  50 001a FFF7FEFF 		bl	IO_Ctrl_Reg_Write
  51              	.LVL2:
  52 001e 08BD     		pop	{r3, pc}
  53              	.L4:
  54              		.align	2
ARM GAS  C:\Users\HPz420\AppData\Local\Temp\ccfVn4Iy.s 			page 3


  55              	.L3:
  56 0020 00000000 		.word	SIO_A_DataIn
  57 0024 00000000 		.word	SIO_A_RD0
  58              		.cfi_endproc
  59              	.LFE63:
  60              		.size	sendCharToZ80, .-sendCharToZ80
  61              		.section	.text.SioReadDataA,"ax",%progbits
  62              		.align	2
  63              		.global	SioReadDataA
  64              		.thumb
  65              		.thumb_func
  66              		.type	SioReadDataA, %function
  67              	SioReadDataA:
  68              	.LFB64:
  61:Z80_SIO_emul.c **** }
  62:Z80_SIO_emul.c **** 
  63:Z80_SIO_emul.c **** void SioReadDataA(void)
  64:Z80_SIO_emul.c **** {
  69              		.loc 1 64 0
  70              		.cfi_startproc
  71              		@ args = 0, pretend = 0, frame = 0
  72              		@ frame_needed = 0, uses_anonymous_args = 0
  73 0000 08B5     		push	{r3, lr}
  74              		.cfi_def_cfa_offset 8
  75              		.cfi_offset 3, -8
  76              		.cfi_offset 14, -4
  65:Z80_SIO_emul.c ****     Z80_Data_In_Write(SIO_A_DataIn);
  77              		.loc 1 65 0
  78 0002 064B     		ldr	r3, .L7
  79 0004 1878     		ldrb	r0, [r3]	@ zero_extendqisi2
  80 0006 FFF7FEFF 		bl	Z80_Data_In_Write
  81              	.LVL3:
  66:Z80_SIO_emul.c ****     SIO_A_RD0 &= 0xFE;                              // No Rx Character Available
  82              		.loc 1 66 0
  83 000a 054A     		ldr	r2, .L7+4
  84 000c 1378     		ldrb	r3, [r2]	@ zero_extendqisi2
  85 000e 03F0FE03 		and	r3, r3, #254
  86 0012 1370     		strb	r3, [r2]
  67:Z80_SIO_emul.c ****     ackIO();
  87              		.loc 1 67 0
  88 0014 FFF7FEFF 		bl	ackIO
  89              	.LVL4:
  90 0018 08BD     		pop	{r3, pc}
  91              	.L8:
  92 001a 00BF     		.align	2
  93              	.L7:
  94 001c 00000000 		.word	SIO_A_DataIn
  95 0020 00000000 		.word	SIO_A_RD0
  96              		.cfi_endproc
  97              	.LFE64:
  98              		.size	SioReadDataA, .-SioReadDataA
  99              		.section	.text.SioWriteDataA,"ax",%progbits
 100              		.align	2
 101              		.global	SioWriteDataA
 102              		.thumb
 103              		.thumb_func
 104              		.type	SioWriteDataA, %function
ARM GAS  C:\Users\HPz420\AppData\Local\Temp\ccfVn4Iy.s 			page 4


 105              	SioWriteDataA:
 106              	.LFB65:
  68:Z80_SIO_emul.c **** }
  69:Z80_SIO_emul.c **** 
  70:Z80_SIO_emul.c **** void SioWriteDataA(void)
  71:Z80_SIO_emul.c **** {
 107              		.loc 1 71 0
 108              		.cfi_startproc
 109              		@ args = 0, pretend = 0, frame = 64
 110              		@ frame_needed = 0, uses_anonymous_args = 0
 111 0000 00B5     		push	{lr}
 112              		.cfi_def_cfa_offset 4
 113              		.cfi_offset 14, -4
 114 0002 91B0     		sub	sp, sp, #68
 115              		.cfi_def_cfa_offset 72
 116              	.L10:
  72:Z80_SIO_emul.c ****     uint8 buffer[64];
  73:Z80_SIO_emul.c ****     uint16 count = 1;
  74:Z80_SIO_emul.c ****     while (0u == USBUART_CDCIsReady());
 117              		.loc 1 74 0 discriminator 1
 118 0004 FFF7FEFF 		bl	USBUART_CDCIsReady
 119              	.LVL5:
 120 0008 0028     		cmp	r0, #0
 121 000a FBD0     		beq	.L10
  75:Z80_SIO_emul.c ****     buffer[0] = Z80_Data_Out_Read();
 122              		.loc 1 75 0
 123 000c FFF7FEFF 		bl	Z80_Data_Out_Read
 124              	.LVL6:
 125 0010 10AB     		add	r3, sp, #64
 126 0012 03F8400D 		strb	r0, [r3, #-64]!
  76:Z80_SIO_emul.c ****     USBUART_PutData(buffer, count);
 127              		.loc 1 76 0
 128 0016 0121     		movs	r1, #1
 129 0018 1846     		mov	r0, r3
 130 001a FFF7FEFF 		bl	USBUART_PutData
 131              	.LVL7:
  77:Z80_SIO_emul.c ****     ackIO();
 132              		.loc 1 77 0
 133 001e FFF7FEFF 		bl	ackIO
 134              	.LVL8:
  78:Z80_SIO_emul.c ****     UART_A_TXD_BUSY = 1;
 135              		.loc 1 78 0
 136 0022 0122     		movs	r2, #1
 137 0024 024B     		ldr	r3, .L12
 138 0026 1A70     		strb	r2, [r3]
  79:Z80_SIO_emul.c **** }
 139              		.loc 1 79 0
 140 0028 11B0     		add	sp, sp, #68
 141              		.cfi_def_cfa_offset 4
 142              		@ sp needed
 143 002a 5DF804FB 		ldr	pc, [sp], #4
 144              	.L13:
 145 002e 00BF     		.align	2
 146              	.L12:
 147 0030 00000000 		.word	UART_A_TXD_BUSY
 148              		.cfi_endproc
 149              	.LFE65:
ARM GAS  C:\Users\HPz420\AppData\Local\Temp\ccfVn4Iy.s 			page 5


 150              		.size	SioWriteDataA, .-SioWriteDataA
 151              		.section	.text.SioReadStatusA,"ax",%progbits
 152              		.align	2
 153              		.global	SioReadStatusA
 154              		.thumb
 155              		.thumb_func
 156              		.type	SioReadStatusA, %function
 157              	SioReadStatusA:
 158              	.LFB66:
  80:Z80_SIO_emul.c **** 
  81:Z80_SIO_emul.c **** void SioReadStatusA(uint8 regNum)
  82:Z80_SIO_emul.c **** {
 159              		.loc 1 82 0
 160              		.cfi_startproc
 161              		@ args = 0, pretend = 0, frame = 0
 162              		@ frame_needed = 0, uses_anonymous_args = 0
 163              	.LVL9:
 164 0000 08B5     		push	{r3, lr}
 165              		.cfi_def_cfa_offset 8
 166              		.cfi_offset 3, -8
 167              		.cfi_offset 14, -4
  83:Z80_SIO_emul.c ****     switch (regNum)
 168              		.loc 1 83 0
 169 0002 0128     		cmp	r0, #1
 170 0004 0AD0     		beq	.L16
 171 0006 10B1     		cbz	r0, .L17
 172 0008 0228     		cmp	r0, #2
 173 000a 0ED0     		beq	.L18
 174 000c 08BD     		pop	{r3, pc}
 175              	.L17:
  84:Z80_SIO_emul.c ****     {
  85:Z80_SIO_emul.c ****         // SIO_A_WR0 bottom bits determine which read register is read
  86:Z80_SIO_emul.c ****         case 0x00:
  87:Z80_SIO_emul.c ****         {
  88:Z80_SIO_emul.c ****             // p 292 of um0081
  89:Z80_SIO_emul.c ****             // D0 - Receive character ready - 1 at least one char in receiver
  90:Z80_SIO_emul.c ****             // D1 - Interrupt Pending (Channel A register only) 
  91:Z80_SIO_emul.c ****             // D2 - Transmit Buffer Empty - 1 = Tx Buffer is empty
  92:Z80_SIO_emul.c ****             // D3 - DCD - not used
  93:Z80_SIO_emul.c ****             // D4 - Sync/Hunt - ignored
  94:Z80_SIO_emul.c ****             // D5 - CTS - 
  95:Z80_SIO_emul.c ****             // D6 - Tx Underrun
  96:Z80_SIO_emul.c ****             // D7 - Break/Abort
  97:Z80_SIO_emul.c ****             Z80_Data_In_Write(SIO_A_RD0);
 176              		.loc 1 97 0
 177 000e 0A4B     		ldr	r3, .L20
 178 0010 1878     		ldrb	r0, [r3]	@ zero_extendqisi2
 179              	.LVL10:
 180 0012 FFF7FEFF 		bl	Z80_Data_In_Write
 181              	.LVL11:
  98:Z80_SIO_emul.c ****             ackIO();
 182              		.loc 1 98 0
 183 0016 FFF7FEFF 		bl	ackIO
 184              	.LVL12:
  99:Z80_SIO_emul.c ****             return;
 185              		.loc 1 99 0
 186 001a 08BD     		pop	{r3, pc}
ARM GAS  C:\Users\HPz420\AppData\Local\Temp\ccfVn4Iy.s 			page 6


 187              	.LVL13:
 188              	.L16:
 100:Z80_SIO_emul.c ****             break;
 101:Z80_SIO_emul.c ****         }
 102:Z80_SIO_emul.c ****         case 0x01:
 103:Z80_SIO_emul.c ****         {
 104:Z80_SIO_emul.c ****             // p 297 of um0081
 105:Z80_SIO_emul.c ****             // SIO_RD1
 106:Z80_SIO_emul.c ****             //  D0 - All tx chars have been sent
 107:Z80_SIO_emul.c ****             // Special Rx condition status - not used
 108:Z80_SIO_emul.c ****             Z80_Data_In_Write(SIO_A_RD1);
 189              		.loc 1 108 0
 190 001c 074B     		ldr	r3, .L20+4
 191 001e 1878     		ldrb	r0, [r3]	@ zero_extendqisi2
 192              	.LVL14:
 193 0020 FFF7FEFF 		bl	Z80_Data_In_Write
 194              	.LVL15:
 109:Z80_SIO_emul.c ****             ackIO();
 195              		.loc 1 109 0
 196 0024 FFF7FEFF 		bl	ackIO
 197              	.LVL16:
 110:Z80_SIO_emul.c ****             return;
 198              		.loc 1 110 0
 199 0028 08BD     		pop	{r3, pc}
 200              	.LVL17:
 201              	.L18:
 111:Z80_SIO_emul.c ****             break;
 112:Z80_SIO_emul.c ****         }
 113:Z80_SIO_emul.c ****         case 0x02:
 114:Z80_SIO_emul.c ****         {
 115:Z80_SIO_emul.c ****             // p 300 of um0081
 116:Z80_SIO_emul.c ****             // Only used in status register B
 117:Z80_SIO_emul.c ****             Z80_Data_In_Write(SIO_A_RD2);
 202              		.loc 1 117 0
 203 002a 054B     		ldr	r3, .L20+8
 204 002c 1878     		ldrb	r0, [r3]	@ zero_extendqisi2
 205              	.LVL18:
 206 002e FFF7FEFF 		bl	Z80_Data_In_Write
 207              	.LVL19:
 118:Z80_SIO_emul.c ****             ackIO();
 208              		.loc 1 118 0
 209 0032 FFF7FEFF 		bl	ackIO
 210              	.LVL20:
 211 0036 08BD     		pop	{r3, pc}
 212              	.L21:
 213              		.align	2
 214              	.L20:
 215 0038 00000000 		.word	SIO_A_RD0
 216 003c 00000000 		.word	SIO_A_RD1
 217 0040 00000000 		.word	SIO_A_RD2
 218              		.cfi_endproc
 219              	.LFE66:
 220              		.size	SioReadStatusA, .-SioReadStatusA
 221              		.section	.text.SioReadIntRegA,"ax",%progbits
 222              		.align	2
 223              		.global	SioReadIntRegA
 224              		.thumb
ARM GAS  C:\Users\HPz420\AppData\Local\Temp\ccfVn4Iy.s 			page 7


 225              		.thumb_func
 226              		.type	SioReadIntRegA, %function
 227              	SioReadIntRegA:
 228              	.LFB67:
 119:Z80_SIO_emul.c ****             return;
 120:Z80_SIO_emul.c ****             break;
 121:Z80_SIO_emul.c ****         }
 122:Z80_SIO_emul.c ****     }
 123:Z80_SIO_emul.c **** }
 124:Z80_SIO_emul.c **** 
 125:Z80_SIO_emul.c **** void SioReadIntRegA()
 126:Z80_SIO_emul.c **** {
 229              		.loc 1 126 0
 230              		.cfi_startproc
 231              		@ args = 0, pretend = 0, frame = 0
 232              		@ frame_needed = 0, uses_anonymous_args = 0
 233 0000 08B5     		push	{r3, lr}
 234              		.cfi_def_cfa_offset 8
 235              		.cfi_offset 3, -8
 236              		.cfi_offset 14, -4
 127:Z80_SIO_emul.c ****     Z80_Data_In_Write(SIO_B_WR2);
 237              		.loc 1 127 0
 238 0002 064B     		ldr	r3, .L24
 239 0004 1878     		ldrb	r0, [r3]	@ zero_extendqisi2
 240 0006 FFF7FEFF 		bl	Z80_Data_In_Write
 241              	.LVL21:
 128:Z80_SIO_emul.c ****     IO_Ctrl_Reg_Write(IO_Ctrl_Reg_Read() & 0xFB);   // Clear IRQ* line
 242              		.loc 1 128 0
 243 000a FFF7FEFF 		bl	IO_Ctrl_Reg_Read
 244              	.LVL22:
 245 000e 00F0FB00 		and	r0, r0, #251
 246 0012 FFF7FEFF 		bl	IO_Ctrl_Reg_Write
 247              	.LVL23:
 129:Z80_SIO_emul.c ****     ackIO();
 248              		.loc 1 129 0
 249 0016 FFF7FEFF 		bl	ackIO
 250              	.LVL24:
 251 001a 08BD     		pop	{r3, pc}
 252              	.L25:
 253              		.align	2
 254              	.L24:
 255 001c 00000000 		.word	SIO_B_WR2
 256              		.cfi_endproc
 257              	.LFE67:
 258              		.size	SioReadIntRegA, .-SioReadIntRegA
 259              		.section	.text.SioWriteCtrlA,"ax",%progbits
 260              		.align	2
 261              		.global	SioWriteCtrlA
 262              		.thumb
 263              		.thumb_func
 264              		.type	SioWriteCtrlA, %function
 265              	SioWriteCtrlA:
 266              	.LFB68:
 130:Z80_SIO_emul.c **** }
 131:Z80_SIO_emul.c **** 
 132:Z80_SIO_emul.c **** void SioWriteCtrlA(void)
 133:Z80_SIO_emul.c **** {
ARM GAS  C:\Users\HPz420\AppData\Local\Temp\ccfVn4Iy.s 			page 8


 267              		.loc 1 133 0
 268              		.cfi_startproc
 269              		@ args = 0, pretend = 0, frame = 0
 270              		@ frame_needed = 0, uses_anonymous_args = 0
 271 0000 10B5     		push	{r4, lr}
 272              		.cfi_def_cfa_offset 8
 273              		.cfi_offset 4, -8
 274              		.cfi_offset 14, -4
 134:Z80_SIO_emul.c ****     uint8 regNum;
 135:Z80_SIO_emul.c ****     SIO_A_Ctrl1 = Z80_Data_Out_Read();   // Get the first command which selects register of second 
 275              		.loc 1 135 0
 276 0002 FFF7FEFF 		bl	Z80_Data_Out_Read
 277              	.LVL25:
 278 0006 374C     		ldr	r4, .L39
 279 0008 2070     		strb	r0, [r4]
 136:Z80_SIO_emul.c ****     ackIO();
 280              		.loc 1 136 0
 281 000a FFF7FEFF 		bl	ackIO
 282              	.LVL26:
 137:Z80_SIO_emul.c ****     regNum = SIO_A_Ctrl1 & 0x7;          // bottom 3 bits are the address of the next access
 283              		.loc 1 137 0
 284 000e 2478     		ldrb	r4, [r4]	@ zero_extendqisi2
 285 0010 04F00704 		and	r4, r4, #7
 286              	.LVL27:
 138:Z80_SIO_emul.c ****     waitNextIORq();                       // wait for next IO cycle since it's the contents
 287              		.loc 1 138 0
 288 0014 FFF7FEFF 		bl	waitNextIORq
 289              	.LVL28:
 139:Z80_SIO_emul.c ****     if (IO_Stat_Reg_Read() == REGULAR_READ_CYCLE)
 290              		.loc 1 139 0
 291 0018 FFF7FEFF 		bl	IO_Stat_Reg_Read
 292              	.LVL29:
 293 001c 1C28     		cmp	r0, #28
 294 001e 03D1     		bne	.L27
 140:Z80_SIO_emul.c ****     {
 141:Z80_SIO_emul.c ****         SioReadStatusA(regNum);
 295              		.loc 1 141 0
 296 0020 2046     		mov	r0, r4
 297 0022 FFF7FEFF 		bl	SioReadStatusA
 298              	.LVL30:
 142:Z80_SIO_emul.c ****         return;
 299              		.loc 1 142 0
 300 0026 10BD     		pop	{r4, pc}
 301              	.LVL31:
 302              	.L27:
 143:Z80_SIO_emul.c ****     }
 144:Z80_SIO_emul.c ****     // Not a read cycle, therefore a write cycle
 145:Z80_SIO_emul.c ****     SIO_A_Ctrl2 = Z80_Data_Out_Read();
 303              		.loc 1 145 0
 304 0028 FFF7FEFF 		bl	Z80_Data_Out_Read
 305              	.LVL32:
 306 002c 2E4B     		ldr	r3, .L39+4
 307 002e 1870     		strb	r0, [r3]
 146:Z80_SIO_emul.c ****     ackIO();
 308              		.loc 1 146 0
 309 0030 FFF7FEFF 		bl	ackIO
 310              	.LVL33:
ARM GAS  C:\Users\HPz420\AppData\Local\Temp\ccfVn4Iy.s 			page 9


 147:Z80_SIO_emul.c ****     switch(regNum)
 311              		.loc 1 147 0
 312 0034 072C     		cmp	r4, #7
 313 0036 53D8     		bhi	.L26
 314 0038 DFE804F0 		tbb	[pc, r4]
 315              	.L30:
 316 003c 04       		.byte	(.L29-.L30)/2
 317 003d 29       		.byte	(.L31-.L30)/2
 318 003e 2F       		.byte	(.L32-.L30)/2
 319 003f 35       		.byte	(.L33-.L30)/2
 320 0040 3B       		.byte	(.L34-.L30)/2
 321 0041 41       		.byte	(.L35-.L30)/2
 322 0042 47       		.byte	(.L36-.L30)/2
 323 0043 4D       		.byte	(.L37-.L30)/2
 324              		.p2align 1
 325              	.L29:
 148:Z80_SIO_emul.c ****     {
 149:Z80_SIO_emul.c ****         case 0x0:
 150:Z80_SIO_emul.c ****             SIO_A_WR0 = SIO_A_Ctrl2;
 326              		.loc 1 150 0
 327 0044 284B     		ldr	r3, .L39+4
 328 0046 1B78     		ldrb	r3, [r3]	@ zero_extendqisi2
 329 0048 DBB2     		uxtb	r3, r3
 330 004a 284A     		ldr	r2, .L39+8
 331 004c 1370     		strb	r3, [r2]
 151:Z80_SIO_emul.c ****             // Only implementing the reset command
 152:Z80_SIO_emul.c ****             // p 275 of um0081 - All control registers for the channel must be rewritten after a Ch
 153:Z80_SIO_emul.c ****             if ((SIO_A_WR0 & 0x18) == 0x18)     // Channel reset clears registers 
 332              		.loc 1 153 0
 333 004e 1378     		ldrb	r3, [r2]	@ zero_extendqisi2
 334 0050 03F01803 		and	r3, r3, #24
 335 0054 182B     		cmp	r3, #24
 336 0056 43D1     		bne	.L26
 154:Z80_SIO_emul.c ****             {
 155:Z80_SIO_emul.c ****                 SIO_A_WR0 = 0x0;
 337              		.loc 1 155 0
 338 0058 0023     		movs	r3, #0
 339 005a 1370     		strb	r3, [r2]
 156:Z80_SIO_emul.c ****                 SIO_A_WR1 = 0x0;
 340              		.loc 1 156 0
 341 005c 244A     		ldr	r2, .L39+12
 342 005e 1370     		strb	r3, [r2]
 157:Z80_SIO_emul.c ****                 SIO_A_WR2 = 0x0;
 343              		.loc 1 157 0
 344 0060 244A     		ldr	r2, .L39+16
 345 0062 1370     		strb	r3, [r2]
 158:Z80_SIO_emul.c ****                 SIO_A_WR3 = 0x0;
 346              		.loc 1 158 0
 347 0064 244A     		ldr	r2, .L39+20
 348 0066 1370     		strb	r3, [r2]
 159:Z80_SIO_emul.c ****                 SIO_A_WR4 = 0x0;
 349              		.loc 1 159 0
 350 0068 244A     		ldr	r2, .L39+24
 351 006a 1370     		strb	r3, [r2]
 160:Z80_SIO_emul.c ****                 SIO_A_WR5 = 0x0;
 352              		.loc 1 160 0
 353 006c 244A     		ldr	r2, .L39+28
ARM GAS  C:\Users\HPz420\AppData\Local\Temp\ccfVn4Iy.s 			page 10


 354 006e 1370     		strb	r3, [r2]
 161:Z80_SIO_emul.c ****                 SIO_A_WR6 = 0x0;
 355              		.loc 1 161 0
 356 0070 244A     		ldr	r2, .L39+32
 357 0072 1370     		strb	r3, [r2]
 162:Z80_SIO_emul.c ****                 SIO_A_WR7 = 0x0;
 358              		.loc 1 162 0
 359 0074 244A     		ldr	r2, .L39+36
 360 0076 1370     		strb	r3, [r2]
 163:Z80_SIO_emul.c ****                 SIO_A_RD0 = 0x44;
 361              		.loc 1 163 0
 362 0078 4421     		movs	r1, #68
 363 007a 244A     		ldr	r2, .L39+40
 364 007c 1170     		strb	r1, [r2]
 164:Z80_SIO_emul.c ****                 SIO_A_RD1 = 0x01;
 365              		.loc 1 164 0
 366 007e 0121     		movs	r1, #1
 367 0080 234A     		ldr	r2, .L39+44
 368 0082 1170     		strb	r1, [r2]
 165:Z80_SIO_emul.c ****                 SIO_A_RD2 = 0x00;
 369              		.loc 1 165 0
 370 0084 234A     		ldr	r2, .L39+48
 371 0086 1370     		strb	r3, [r2]
 166:Z80_SIO_emul.c ****                 UART_A_TXD_BUSY = 0;
 372              		.loc 1 166 0
 373 0088 234A     		ldr	r2, .L39+52
 374 008a 1370     		strb	r3, [r2]
 375 008c 10BD     		pop	{r4, pc}
 376              	.LVL34:
 377              	.L31:
 167:Z80_SIO_emul.c ****             }
 168:Z80_SIO_emul.c ****             break;
 169:Z80_SIO_emul.c ****         case 0x1:               
 170:Z80_SIO_emul.c ****             // p 277 of um0081
 171:Z80_SIO_emul.c ****             /// D0 - Ext int enable - not using interrupt on CTS
 172:Z80_SIO_emul.c ****             // D1 - Tx Int Enable - Not using
 173:Z80_SIO_emul.c ****             // D2 - Status affect vector is only active on Channel B
 174:Z80_SIO_emul.c ****             // D3, D4 - 00 = Rx Int disabled, 01 = Rx Int on first char, 10 = Rx Int on all chars (
 175:Z80_SIO_emul.c ****             // D5, D6 - Wait/RDY function select - ignoring
 176:Z80_SIO_emul.c ****             // D7 - Use Wait/RDY function - ignoring
 177:Z80_SIO_emul.c ****             SIO_A_WR1 = SIO_A_Ctrl2;
 378              		.loc 1 177 0
 379 008e 164B     		ldr	r3, .L39+4
 380 0090 1B78     		ldrb	r3, [r3]	@ zero_extendqisi2
 381 0092 DBB2     		uxtb	r3, r3
 382 0094 164A     		ldr	r2, .L39+12
 383 0096 1370     		strb	r3, [r2]
 178:Z80_SIO_emul.c ****             break;
 384              		.loc 1 178 0
 385 0098 10BD     		pop	{r4, pc}
 386              	.LVL35:
 387              	.L32:
 179:Z80_SIO_emul.c ****         case 0x2:
 180:Z80_SIO_emul.c ****             // p 281 of um0081
 181:Z80_SIO_emul.c ****             // Interrupt vector - only used in channel B
 182:Z80_SIO_emul.c ****             SIO_A_WR2 = SIO_A_Ctrl2;
 388              		.loc 1 182 0
ARM GAS  C:\Users\HPz420\AppData\Local\Temp\ccfVn4Iy.s 			page 11


 389 009a 134B     		ldr	r3, .L39+4
 390 009c 1B78     		ldrb	r3, [r3]	@ zero_extendqisi2
 391 009e DBB2     		uxtb	r3, r3
 392 00a0 144A     		ldr	r2, .L39+16
 393 00a2 1370     		strb	r3, [r2]
 183:Z80_SIO_emul.c ****             break;
 394              		.loc 1 183 0
 395 00a4 10BD     		pop	{r4, pc}
 396              	.LVL36:
 397              	.L33:
 184:Z80_SIO_emul.c ****         case 0x3:
 185:Z80_SIO_emul.c ****             // p 282 
 186:Z80_SIO_emul.c ****             // D0 - Receiver enable - always used
 187:Z80_SIO_emul.c ****             // D1 - Sync char load inhibit - not used
 188:Z80_SIO_emul.c ****             // D2 - Address Search Mode SDLC mode - not used
 189:Z80_SIO_emul.c ****             // D3 - Receiver CRC enable - not used
 190:Z80_SIO_emul.c ****             // D4 - Enter hunt phase Synch or SDLC - not used
 191:Z80_SIO_emul.c ****             // D5 - Auto enables - polled vs automatic use of CTS - not needed for USB-Serial for p
 192:Z80_SIO_emul.c ****             // D6, D7 - Rx Bits/char - 11 = 8 bits/char - normal value expected
 193:Z80_SIO_emul.c ****             SIO_A_WR3 = SIO_A_Ctrl2;
 398              		.loc 1 193 0
 399 00a6 104B     		ldr	r3, .L39+4
 400 00a8 1B78     		ldrb	r3, [r3]	@ zero_extendqisi2
 401 00aa DBB2     		uxtb	r3, r3
 402 00ac 124A     		ldr	r2, .L39+20
 403 00ae 1370     		strb	r3, [r2]
 194:Z80_SIO_emul.c ****             break;
 404              		.loc 1 194 0
 405 00b0 10BD     		pop	{r4, pc}
 406              	.LVL37:
 407              	.L34:
 195:Z80_SIO_emul.c ****         case 0x4:
 196:Z80_SIO_emul.c ****             // p 284 D0 = Parity - Not used
 197:Z80_SIO_emul.c ****             // D1 = Parity odd/even - Not used
 198:Z80_SIO_emul.c ****             // D2,D3 - 01 = 1 stop bit per character
 199:Z80_SIO_emul.c ****             // D4, D5 - Sync modes - Ignored
 200:Z80_SIO_emul.c ****             // D6, D7 - Clock rate - set by USB-Serial interface automatically so ignored for Port 
 201:Z80_SIO_emul.c ****             // Grant has 7.2738 MHz - divided by 64 = 115,200 baud
 202:Z80_SIO_emul.c ****             SIO_A_WR4 = SIO_A_Ctrl2;
 408              		.loc 1 202 0
 409 00b2 0D4B     		ldr	r3, .L39+4
 410 00b4 1B78     		ldrb	r3, [r3]	@ zero_extendqisi2
 411 00b6 DBB2     		uxtb	r3, r3
 412 00b8 104A     		ldr	r2, .L39+24
 413 00ba 1370     		strb	r3, [r2]
 203:Z80_SIO_emul.c ****             break;
 414              		.loc 1 203 0
 415 00bc 10BD     		pop	{r4, pc}
 416              	.LVL38:
 417              	.L35:
 204:Z80_SIO_emul.c ****         case 0x5:
 205:Z80_SIO_emul.c ****             // p 287
 206:Z80_SIO_emul.c ****             // Grant's code sets this to 0xEA
 207:Z80_SIO_emul.c ****             // D0 - Tx CRC enable
 208:Z80_SIO_emul.c ****             // D1 - RTS - allows RTS to be manually set
 209:Z80_SIO_emul.c ****             // D2 - CRC-16/SDLC - Not used
 210:Z80_SIO_emul.c ****             // D3 - Transmit Enable
ARM GAS  C:\Users\HPz420\AppData\Local\Temp\ccfVn4Iy.s 			page 12


 211:Z80_SIO_emul.c ****             // D4 - Send break - not used
 212:Z80_SIO_emul.c ****             // D5, D6 - SYNC mode - Not used
 213:Z80_SIO_emul.c ****             // D7 - DTR - allows DTR to be manually set
 214:Z80_SIO_emul.c ****             SIO_A_WR5 = SIO_A_Ctrl2;
 418              		.loc 1 214 0
 419 00be 0A4B     		ldr	r3, .L39+4
 420 00c0 1B78     		ldrb	r3, [r3]	@ zero_extendqisi2
 421 00c2 DBB2     		uxtb	r3, r3
 422 00c4 0E4A     		ldr	r2, .L39+28
 423 00c6 1370     		strb	r3, [r2]
 215:Z80_SIO_emul.c ****             break;
 424              		.loc 1 215 0
 425 00c8 10BD     		pop	{r4, pc}
 426              	.LVL39:
 427              	.L36:
 216:Z80_SIO_emul.c ****         case 0x6:
 217:Z80_SIO_emul.c ****             // D90D7 - SYNC bits - not used
 218:Z80_SIO_emul.c ****             SIO_A_WR6 = SIO_A_Ctrl2;
 428              		.loc 1 218 0
 429 00ca 074B     		ldr	r3, .L39+4
 430 00cc 1B78     		ldrb	r3, [r3]	@ zero_extendqisi2
 431 00ce DBB2     		uxtb	r3, r3
 432 00d0 0C4A     		ldr	r2, .L39+32
 433 00d2 1370     		strb	r3, [r2]
 219:Z80_SIO_emul.c ****             break;
 434              		.loc 1 219 0
 435 00d4 10BD     		pop	{r4, pc}
 436              	.LVL40:
 437              	.L37:
 220:Z80_SIO_emul.c ****         case 0x7:
 221:Z80_SIO_emul.c ****             // D0-D7 - receive sync character - not used
 222:Z80_SIO_emul.c ****             SIO_A_WR7 = SIO_A_Ctrl2;
 438              		.loc 1 222 0
 439 00d6 044B     		ldr	r3, .L39+4
 440 00d8 1B78     		ldrb	r3, [r3]	@ zero_extendqisi2
 441 00da DBB2     		uxtb	r3, r3
 442 00dc 0A4A     		ldr	r2, .L39+36
 443 00de 1370     		strb	r3, [r2]
 444              	.L26:
 445 00e0 10BD     		pop	{r4, pc}
 446              	.LVL41:
 447              	.L40:
 448 00e2 00BF     		.align	2
 449              	.L39:
 450 00e4 00000000 		.word	SIO_A_Ctrl1
 451 00e8 00000000 		.word	SIO_A_Ctrl2
 452 00ec 00000000 		.word	SIO_A_WR0
 453 00f0 00000000 		.word	SIO_A_WR1
 454 00f4 00000000 		.word	SIO_A_WR2
 455 00f8 00000000 		.word	SIO_A_WR3
 456 00fc 00000000 		.word	SIO_A_WR4
 457 0100 00000000 		.word	SIO_A_WR5
 458 0104 00000000 		.word	SIO_A_WR6
 459 0108 00000000 		.word	SIO_A_WR7
 460 010c 00000000 		.word	SIO_A_RD0
 461 0110 00000000 		.word	SIO_A_RD1
 462 0114 00000000 		.word	SIO_A_RD2
ARM GAS  C:\Users\HPz420\AppData\Local\Temp\ccfVn4Iy.s 			page 13


 463 0118 00000000 		.word	UART_A_TXD_BUSY
 464              		.cfi_endproc
 465              	.LFE68:
 466              		.size	SioWriteCtrlA, .-SioWriteCtrlA
 467              		.section	.text.SioReadDataB,"ax",%progbits
 468              		.align	2
 469              		.global	SioReadDataB
 470              		.thumb
 471              		.thumb_func
 472              		.type	SioReadDataB, %function
 473              	SioReadDataB:
 474              	.LFB69:
 223:Z80_SIO_emul.c ****             break;
 224:Z80_SIO_emul.c ****     }
 225:Z80_SIO_emul.c **** }
 226:Z80_SIO_emul.c **** 
 227:Z80_SIO_emul.c **** void SioReadDataB(void)
 228:Z80_SIO_emul.c **** {
 475              		.loc 1 228 0
 476              		.cfi_startproc
 477              		@ args = 0, pretend = 0, frame = 0
 478              		@ frame_needed = 0, uses_anonymous_args = 0
 479 0000 08B5     		push	{r3, lr}
 480              		.cfi_def_cfa_offset 8
 481              		.cfi_offset 3, -8
 482              		.cfi_offset 14, -4
 229:Z80_SIO_emul.c ****     Z80_Data_In_Write(SIO_B_DataIn);
 483              		.loc 1 229 0
 484 0002 064B     		ldr	r3, .L43
 485 0004 1878     		ldrb	r0, [r3]	@ zero_extendqisi2
 486 0006 FFF7FEFF 		bl	Z80_Data_In_Write
 487              	.LVL42:
 230:Z80_SIO_emul.c ****     SIO_B_RD0 &= 0xFE;                              // No Rx Character Available
 488              		.loc 1 230 0
 489 000a 054A     		ldr	r2, .L43+4
 490 000c 1378     		ldrb	r3, [r2]	@ zero_extendqisi2
 491 000e 03F0FE03 		and	r3, r3, #254
 492 0012 1370     		strb	r3, [r2]
 231:Z80_SIO_emul.c ****     ackIO();    
 493              		.loc 1 231 0
 494 0014 FFF7FEFF 		bl	ackIO
 495              	.LVL43:
 496 0018 08BD     		pop	{r3, pc}
 497              	.L44:
 498 001a 00BF     		.align	2
 499              	.L43:
 500 001c 00000000 		.word	SIO_B_DataIn
 501 0020 00000000 		.word	SIO_B_RD0
 502              		.cfi_endproc
 503              	.LFE69:
 504              		.size	SioReadDataB, .-SioReadDataB
 505              		.section	.text.SioWriteDataB,"ax",%progbits
 506              		.align	2
 507              		.global	SioWriteDataB
 508              		.thumb
 509              		.thumb_func
 510              		.type	SioWriteDataB, %function
ARM GAS  C:\Users\HPz420\AppData\Local\Temp\ccfVn4Iy.s 			page 14


 511              	SioWriteDataB:
 512              	.LFB70:
 232:Z80_SIO_emul.c **** }
 233:Z80_SIO_emul.c **** 
 234:Z80_SIO_emul.c **** void SioWriteDataB(void)
 235:Z80_SIO_emul.c **** {
 513              		.loc 1 235 0
 514              		.cfi_startproc
 515              		@ args = 0, pretend = 0, frame = 0
 516              		@ frame_needed = 0, uses_anonymous_args = 0
 517 0000 08B5     		push	{r3, lr}
 518              		.cfi_def_cfa_offset 8
 519              		.cfi_offset 3, -8
 520              		.cfi_offset 14, -4
 236:Z80_SIO_emul.c ****     UART_B_TXD = 0;
 521              		.loc 1 236 0
 522 0002 0022     		movs	r2, #0
 523 0004 024B     		ldr	r3, .L47
 524 0006 1A70     		strb	r2, [r3]
 237:Z80_SIO_emul.c ****     ackIO();
 525              		.loc 1 237 0
 526 0008 FFF7FEFF 		bl	ackIO
 527              	.LVL44:
 528 000c 08BD     		pop	{r3, pc}
 529              	.L48:
 530 000e 00BF     		.align	2
 531              	.L47:
 532 0010 00000000 		.word	UART_B_TXD
 533              		.cfi_endproc
 534              	.LFE70:
 535              		.size	SioWriteDataB, .-SioWriteDataB
 536              		.section	.text.SioReadStatusB,"ax",%progbits
 537              		.align	2
 538              		.global	SioReadStatusB
 539              		.thumb
 540              		.thumb_func
 541              		.type	SioReadStatusB, %function
 542              	SioReadStatusB:
 543              	.LFB71:
 238:Z80_SIO_emul.c **** }
 239:Z80_SIO_emul.c **** 
 240:Z80_SIO_emul.c **** void SioReadStatusB(uint8 regNum)
 241:Z80_SIO_emul.c **** {
 544              		.loc 1 241 0
 545              		.cfi_startproc
 546              		@ args = 0, pretend = 0, frame = 0
 547              		@ frame_needed = 0, uses_anonymous_args = 0
 548              	.LVL45:
 549 0000 08B5     		push	{r3, lr}
 550              		.cfi_def_cfa_offset 8
 551              		.cfi_offset 3, -8
 552              		.cfi_offset 14, -4
 242:Z80_SIO_emul.c ****     switch (regNum)
 553              		.loc 1 242 0
 554 0002 0128     		cmp	r0, #1
 555 0004 0AD0     		beq	.L51
 556 0006 10B1     		cbz	r0, .L52
ARM GAS  C:\Users\HPz420\AppData\Local\Temp\ccfVn4Iy.s 			page 15


 557 0008 0228     		cmp	r0, #2
 558 000a 0ED0     		beq	.L53
 559 000c 14E0     		b	.L50
 560              	.L52:
 243:Z80_SIO_emul.c ****     {
 244:Z80_SIO_emul.c ****         // SIO_B_WR0 bottom bits determine which read register is read
 245:Z80_SIO_emul.c ****         case 0x00:
 246:Z80_SIO_emul.c ****         {
 247:Z80_SIO_emul.c ****             // p 292 of um0081
 248:Z80_SIO_emul.c ****             // D0 - Receive character ready - 1 at least one char in receiver
 249:Z80_SIO_emul.c ****             // D1 - Interrupt Pending (Channel A register only) 
 250:Z80_SIO_emul.c ****             // D2 - Transmit Buffer Empty - 1 = Tx Buffer is empty
 251:Z80_SIO_emul.c ****             // D3 - DCD - not used
 252:Z80_SIO_emul.c ****             // D4 - Sync/Hunt - ignored
 253:Z80_SIO_emul.c ****             // D5 - CTS - 
 254:Z80_SIO_emul.c ****             // D6 - Tx Underrun
 255:Z80_SIO_emul.c ****             // D7 - Break/Abort
 256:Z80_SIO_emul.c ****             Z80_Data_In_Write(SIO_B_RD0);
 561              		.loc 1 256 0
 562 000e 0C4B     		ldr	r3, .L56
 563 0010 1878     		ldrb	r0, [r3]	@ zero_extendqisi2
 564              	.LVL46:
 565 0012 FFF7FEFF 		bl	Z80_Data_In_Write
 566              	.LVL47:
 257:Z80_SIO_emul.c ****             ackIO();
 567              		.loc 1 257 0
 568 0016 FFF7FEFF 		bl	ackIO
 569              	.LVL48:
 258:Z80_SIO_emul.c ****             return;
 570              		.loc 1 258 0
 571 001a 08BD     		pop	{r3, pc}
 572              	.LVL49:
 573              	.L51:
 259:Z80_SIO_emul.c ****             break;
 260:Z80_SIO_emul.c ****         }
 261:Z80_SIO_emul.c ****         case 0x01:
 262:Z80_SIO_emul.c ****         {
 263:Z80_SIO_emul.c ****             // p 297 of um0081
 264:Z80_SIO_emul.c ****             // SIO_RD1
 265:Z80_SIO_emul.c ****             //  D0 - All tx chars have been sent
 266:Z80_SIO_emul.c ****             // Special Rx condition status - not used
 267:Z80_SIO_emul.c ****             Z80_Data_In_Write(SIO_B_RD1);
 574              		.loc 1 267 0
 575 001c 094B     		ldr	r3, .L56+4
 576 001e 1878     		ldrb	r0, [r3]	@ zero_extendqisi2
 577              	.LVL50:
 578 0020 FFF7FEFF 		bl	Z80_Data_In_Write
 579              	.LVL51:
 268:Z80_SIO_emul.c ****             ackIO();
 580              		.loc 1 268 0
 581 0024 FFF7FEFF 		bl	ackIO
 582              	.LVL52:
 269:Z80_SIO_emul.c ****             break;
 583              		.loc 1 269 0
 584 0028 06E0     		b	.L50
 585              	.LVL53:
 586              	.L53:
ARM GAS  C:\Users\HPz420\AppData\Local\Temp\ccfVn4Iy.s 			page 16


 270:Z80_SIO_emul.c ****             return;
 271:Z80_SIO_emul.c ****         }
 272:Z80_SIO_emul.c ****         case 0x02:
 273:Z80_SIO_emul.c ****         {
 274:Z80_SIO_emul.c ****             // p 300 of um0081
 275:Z80_SIO_emul.c ****             // Only used in status register B
 276:Z80_SIO_emul.c ****             Z80_Data_In_Write(SIO_B_RD2);
 587              		.loc 1 276 0
 588 002a 074B     		ldr	r3, .L56+8
 589 002c 1878     		ldrb	r0, [r3]	@ zero_extendqisi2
 590              	.LVL54:
 591 002e FFF7FEFF 		bl	Z80_Data_In_Write
 592              	.LVL55:
 277:Z80_SIO_emul.c ****             ackIO();
 593              		.loc 1 277 0
 594 0032 FFF7FEFF 		bl	ackIO
 595              	.LVL56:
 278:Z80_SIO_emul.c ****             return;
 596              		.loc 1 278 0
 597 0036 08BD     		pop	{r3, pc}
 598              	.L50:
 279:Z80_SIO_emul.c ****             break;
 280:Z80_SIO_emul.c ****         }
 281:Z80_SIO_emul.c ****     }
 282:Z80_SIO_emul.c ****     ackIO();    
 599              		.loc 1 282 0
 600 0038 FFF7FEFF 		bl	ackIO
 601              	.LVL57:
 602 003c 08BD     		pop	{r3, pc}
 603              	.L57:
 604 003e 00BF     		.align	2
 605              	.L56:
 606 0040 00000000 		.word	SIO_B_RD0
 607 0044 00000000 		.word	SIO_B_RD1
 608 0048 00000000 		.word	SIO_B_RD2
 609              		.cfi_endproc
 610              	.LFE71:
 611              		.size	SioReadStatusB, .-SioReadStatusB
 612              		.section	.text.SioReadIntRegB,"ax",%progbits
 613              		.align	2
 614              		.global	SioReadIntRegB
 615              		.thumb
 616              		.thumb_func
 617              		.type	SioReadIntRegB, %function
 618              	SioReadIntRegB:
 619              	.LFB72:
 283:Z80_SIO_emul.c **** }
 284:Z80_SIO_emul.c **** 
 285:Z80_SIO_emul.c **** void SioReadIntRegB(void)
 286:Z80_SIO_emul.c **** {
 620              		.loc 1 286 0
 621              		.cfi_startproc
 622              		@ args = 0, pretend = 0, frame = 0
 623              		@ frame_needed = 0, uses_anonymous_args = 0
 624 0000 08B5     		push	{r3, lr}
 625              		.cfi_def_cfa_offset 8
 626              		.cfi_offset 3, -8
ARM GAS  C:\Users\HPz420\AppData\Local\Temp\ccfVn4Iy.s 			page 17


 627              		.cfi_offset 14, -4
 287:Z80_SIO_emul.c ****     Z80_Data_In_Write(SIO_B_WR2);
 628              		.loc 1 287 0
 629 0002 064B     		ldr	r3, .L60
 630 0004 1878     		ldrb	r0, [r3]	@ zero_extendqisi2
 631 0006 FFF7FEFF 		bl	Z80_Data_In_Write
 632              	.LVL58:
 288:Z80_SIO_emul.c ****     IO_Ctrl_Reg_Write(IO_Ctrl_Reg_Read() & 0xFB);   // Clear IRQ* line
 633              		.loc 1 288 0
 634 000a FFF7FEFF 		bl	IO_Ctrl_Reg_Read
 635              	.LVL59:
 636 000e 00F0FB00 		and	r0, r0, #251
 637 0012 FFF7FEFF 		bl	IO_Ctrl_Reg_Write
 638              	.LVL60:
 289:Z80_SIO_emul.c ****     ackIO();
 639              		.loc 1 289 0
 640 0016 FFF7FEFF 		bl	ackIO
 641              	.LVL61:
 642 001a 08BD     		pop	{r3, pc}
 643              	.L61:
 644              		.align	2
 645              	.L60:
 646 001c 00000000 		.word	SIO_B_WR2
 647              		.cfi_endproc
 648              	.LFE72:
 649              		.size	SioReadIntRegB, .-SioReadIntRegB
 650              		.section	.text.SioWriteCtrlB,"ax",%progbits
 651              		.align	2
 652              		.global	SioWriteCtrlB
 653              		.thumb
 654              		.thumb_func
 655              		.type	SioWriteCtrlB, %function
 656              	SioWriteCtrlB:
 657              	.LFB73:
 290:Z80_SIO_emul.c **** }
 291:Z80_SIO_emul.c **** 
 292:Z80_SIO_emul.c **** void SioWriteCtrlB(void)
 293:Z80_SIO_emul.c **** {
 658              		.loc 1 293 0
 659              		.cfi_startproc
 660              		@ args = 0, pretend = 0, frame = 0
 661              		@ frame_needed = 0, uses_anonymous_args = 0
 662 0000 10B5     		push	{r4, lr}
 663              		.cfi_def_cfa_offset 8
 664              		.cfi_offset 4, -8
 665              		.cfi_offset 14, -4
 294:Z80_SIO_emul.c ****     uint8 regNum;
 295:Z80_SIO_emul.c ****     SIO_B_Ctrl1 = Z80_Data_Out_Read();   // Get the first command which selects register of second 
 666              		.loc 1 295 0
 667 0002 FFF7FEFF 		bl	Z80_Data_Out_Read
 668              	.LVL62:
 669 0006 374C     		ldr	r4, .L75
 670 0008 2070     		strb	r0, [r4]
 296:Z80_SIO_emul.c ****     ackIO();
 671              		.loc 1 296 0
 672 000a FFF7FEFF 		bl	ackIO
 673              	.LVL63:
ARM GAS  C:\Users\HPz420\AppData\Local\Temp\ccfVn4Iy.s 			page 18


 297:Z80_SIO_emul.c ****     regNum = SIO_B_Ctrl1 & 0x7;          // bottom 3 bits are the address of the next access
 674              		.loc 1 297 0
 675 000e 2478     		ldrb	r4, [r4]	@ zero_extendqisi2
 676 0010 04F00704 		and	r4, r4, #7
 677              	.LVL64:
 298:Z80_SIO_emul.c ****     waitNextIORq();                     // wait for next IO cycle since it's the contents
 678              		.loc 1 298 0
 679 0014 FFF7FEFF 		bl	waitNextIORq
 680              	.LVL65:
 299:Z80_SIO_emul.c ****     if (IO_Stat_Reg_Status == REGULAR_READ_CYCLE)
 681              		.loc 1 299 0
 682 0018 334B     		ldr	r3, .L75+4
 683 001a 1B78     		ldrb	r3, [r3]	@ zero_extendqisi2
 684 001c DBB2     		uxtb	r3, r3
 685 001e 1C2B     		cmp	r3, #28
 686 0020 03D1     		bne	.L63
 300:Z80_SIO_emul.c ****     {
 301:Z80_SIO_emul.c ****         SioReadStatusB(regNum);
 687              		.loc 1 301 0
 688 0022 2046     		mov	r0, r4
 689 0024 FFF7FEFF 		bl	SioReadStatusB
 690              	.LVL66:
 302:Z80_SIO_emul.c ****         return;
 691              		.loc 1 302 0
 692 0028 10BD     		pop	{r4, pc}
 693              	.LVL67:
 694              	.L63:
 303:Z80_SIO_emul.c ****     }
 304:Z80_SIO_emul.c ****     // Not a read cycle, therefore a write cycle
 305:Z80_SIO_emul.c ****     SIO_B_Ctrl2 = Z80_Data_Out_Read();
 695              		.loc 1 305 0
 696 002a FFF7FEFF 		bl	Z80_Data_Out_Read
 697              	.LVL68:
 698 002e 2F4B     		ldr	r3, .L75+8
 699 0030 1870     		strb	r0, [r3]
 306:Z80_SIO_emul.c ****     ackIO();
 700              		.loc 1 306 0
 701 0032 FFF7FEFF 		bl	ackIO
 702              	.LVL69:
 307:Z80_SIO_emul.c ****     switch(regNum)
 703              		.loc 1 307 0
 704 0036 072C     		cmp	r4, #7
 705 0038 53D8     		bhi	.L62
 706 003a DFE804F0 		tbb	[pc, r4]
 707              	.L66:
 708 003e 04       		.byte	(.L65-.L66)/2
 709 003f 29       		.byte	(.L67-.L66)/2
 710 0040 2F       		.byte	(.L68-.L66)/2
 711 0041 35       		.byte	(.L69-.L66)/2
 712 0042 3B       		.byte	(.L70-.L66)/2
 713 0043 41       		.byte	(.L71-.L66)/2
 714 0044 47       		.byte	(.L72-.L66)/2
 715 0045 4D       		.byte	(.L73-.L66)/2
 716              		.p2align 1
 717              	.L65:
 308:Z80_SIO_emul.c ****     {
 309:Z80_SIO_emul.c ****         case 0x0:
ARM GAS  C:\Users\HPz420\AppData\Local\Temp\ccfVn4Iy.s 			page 19


 310:Z80_SIO_emul.c ****             SIO_B_WR0 = SIO_B_Ctrl2;
 718              		.loc 1 310 0
 719 0046 294B     		ldr	r3, .L75+8
 720 0048 1B78     		ldrb	r3, [r3]	@ zero_extendqisi2
 721 004a DBB2     		uxtb	r3, r3
 722 004c 284A     		ldr	r2, .L75+12
 723 004e 1370     		strb	r3, [r2]
 311:Z80_SIO_emul.c ****             // Only implementing the reset command
 312:Z80_SIO_emul.c ****             // p 275 of um0081 - All control registers for the channel must be rewritten after a Ch
 313:Z80_SIO_emul.c ****             if ((SIO_B_WR0 & 0x18) == 0x18)     // Channel reset clears registers 
 724              		.loc 1 313 0
 725 0050 1378     		ldrb	r3, [r2]	@ zero_extendqisi2
 726 0052 03F01803 		and	r3, r3, #24
 727 0056 182B     		cmp	r3, #24
 728 0058 43D1     		bne	.L62
 314:Z80_SIO_emul.c ****             {
 315:Z80_SIO_emul.c ****                 SIO_B_WR0 = 0x0;
 729              		.loc 1 315 0
 730 005a 0023     		movs	r3, #0
 731 005c 1370     		strb	r3, [r2]
 316:Z80_SIO_emul.c ****                 SIO_B_WR1 = 0x0;
 732              		.loc 1 316 0
 733 005e 254A     		ldr	r2, .L75+16
 734 0060 1370     		strb	r3, [r2]
 317:Z80_SIO_emul.c ****                 SIO_B_WR2 = 0x0;
 735              		.loc 1 317 0
 736 0062 254A     		ldr	r2, .L75+20
 737 0064 1370     		strb	r3, [r2]
 318:Z80_SIO_emul.c ****                 SIO_B_WR3 = 0x0;
 738              		.loc 1 318 0
 739 0066 254A     		ldr	r2, .L75+24
 740 0068 1370     		strb	r3, [r2]
 319:Z80_SIO_emul.c ****                 SIO_B_WR4 = 0x0;
 741              		.loc 1 319 0
 742 006a 254A     		ldr	r2, .L75+28
 743 006c 1370     		strb	r3, [r2]
 320:Z80_SIO_emul.c ****                 SIO_B_WR5 = 0x0;
 744              		.loc 1 320 0
 745 006e 254A     		ldr	r2, .L75+32
 746 0070 1370     		strb	r3, [r2]
 321:Z80_SIO_emul.c ****                 SIO_B_WR6 = 0x0;
 747              		.loc 1 321 0
 748 0072 254A     		ldr	r2, .L75+36
 749 0074 1370     		strb	r3, [r2]
 322:Z80_SIO_emul.c ****                 SIO_B_WR7 = 0x0;
 750              		.loc 1 322 0
 751 0076 254A     		ldr	r2, .L75+40
 752 0078 1370     		strb	r3, [r2]
 323:Z80_SIO_emul.c ****                 SIO_B_RD0 = 0x44;
 753              		.loc 1 323 0
 754 007a 4421     		movs	r1, #68
 755 007c 244A     		ldr	r2, .L75+44
 756 007e 1170     		strb	r1, [r2]
 324:Z80_SIO_emul.c ****                 SIO_B_RD1 = 0x01;
 757              		.loc 1 324 0
 758 0080 0121     		movs	r1, #1
 759 0082 244A     		ldr	r2, .L75+48
ARM GAS  C:\Users\HPz420\AppData\Local\Temp\ccfVn4Iy.s 			page 20


 760 0084 1170     		strb	r1, [r2]
 325:Z80_SIO_emul.c ****                 SIO_B_RD2 = 0x00;
 761              		.loc 1 325 0
 762 0086 244A     		ldr	r2, .L75+52
 763 0088 1370     		strb	r3, [r2]
 326:Z80_SIO_emul.c ****                 UART_B_TXD_BUSY = 0;
 764              		.loc 1 326 0
 765 008a 244A     		ldr	r2, .L75+56
 766 008c 1370     		strb	r3, [r2]
 767 008e 10BD     		pop	{r4, pc}
 768              	.LVL70:
 769              	.L67:
 327:Z80_SIO_emul.c ****             }
 328:Z80_SIO_emul.c ****             break;
 329:Z80_SIO_emul.c ****         case 0x1:               
 330:Z80_SIO_emul.c ****             // p 277 of um0081
 331:Z80_SIO_emul.c ****             // D0 - Ext int enable - not using interrupt on CTS
 332:Z80_SIO_emul.c ****             // D1 - Tx Int Enable - Not using
 333:Z80_SIO_emul.c ****             // D2 - Status affect vector is only active on Channel B
 334:Z80_SIO_emul.c ****             // D3, D4 - 00 = Rx Int disabled, 01 = Rx Int on first char, 10 = Rx Int on all chars (
 335:Z80_SIO_emul.c ****             // D5, D6 - Wait/RDY function select - ignoring
 336:Z80_SIO_emul.c ****             // D7 - Use Wait/RDY function - ignoring
 337:Z80_SIO_emul.c ****             SIO_B_WR1 = SIO_B_Ctrl2;
 770              		.loc 1 337 0
 771 0090 164B     		ldr	r3, .L75+8
 772 0092 1B78     		ldrb	r3, [r3]	@ zero_extendqisi2
 773 0094 DBB2     		uxtb	r3, r3
 774 0096 174A     		ldr	r2, .L75+16
 775 0098 1370     		strb	r3, [r2]
 338:Z80_SIO_emul.c ****             break;
 776              		.loc 1 338 0
 777 009a 10BD     		pop	{r4, pc}
 778              	.LVL71:
 779              	.L68:
 339:Z80_SIO_emul.c ****         case 0x2:
 340:Z80_SIO_emul.c ****             // p 281 of um0081
 341:Z80_SIO_emul.c ****             // Interrupt vector - only used in channel B
 342:Z80_SIO_emul.c ****             SIO_B_WR2 = SIO_B_Ctrl2;
 780              		.loc 1 342 0
 781 009c 134B     		ldr	r3, .L75+8
 782 009e 1B78     		ldrb	r3, [r3]	@ zero_extendqisi2
 783 00a0 DBB2     		uxtb	r3, r3
 784 00a2 154A     		ldr	r2, .L75+20
 785 00a4 1370     		strb	r3, [r2]
 343:Z80_SIO_emul.c ****             break;
 786              		.loc 1 343 0
 787 00a6 10BD     		pop	{r4, pc}
 788              	.LVL72:
 789              	.L69:
 344:Z80_SIO_emul.c ****         case 0x3:
 345:Z80_SIO_emul.c ****             // p 282 
 346:Z80_SIO_emul.c ****             // D0 - Receiver enable - always used
 347:Z80_SIO_emul.c ****             // D1 - Sync char load inhibit - not used
 348:Z80_SIO_emul.c ****             // D2 - Address Search Mode SDLC mode - not used
 349:Z80_SIO_emul.c ****             // D3 - Receiver CRC enable - not used
 350:Z80_SIO_emul.c ****             // D4 - Enter hunt phase Synch or SDLC - not used
 351:Z80_SIO_emul.c ****             // D5 - Auto enables - polled vs automatic use of CTS - not used for port A (maybe B?)
ARM GAS  C:\Users\HPz420\AppData\Local\Temp\ccfVn4Iy.s 			page 21


 352:Z80_SIO_emul.c ****             // D6, D7 - Rx Bits/char - 11 = 8 bits/char - normal value expected
 353:Z80_SIO_emul.c ****             SIO_B_WR3 = SIO_B_Ctrl2;
 790              		.loc 1 353 0
 791 00a8 104B     		ldr	r3, .L75+8
 792 00aa 1B78     		ldrb	r3, [r3]	@ zero_extendqisi2
 793 00ac DBB2     		uxtb	r3, r3
 794 00ae 134A     		ldr	r2, .L75+24
 795 00b0 1370     		strb	r3, [r2]
 354:Z80_SIO_emul.c ****             break;
 796              		.loc 1 354 0
 797 00b2 10BD     		pop	{r4, pc}
 798              	.LVL73:
 799              	.L70:
 355:Z80_SIO_emul.c ****         case 0x4:
 356:Z80_SIO_emul.c ****             // p 284 D0 = Parity - Not used
 357:Z80_SIO_emul.c ****             // D0 = Parity - Not used
 358:Z80_SIO_emul.c ****             // D1 = Parity odd/even - Not used
 359:Z80_SIO_emul.c ****             // D2,D3 - 01 = 1 stop bit per character
 360:Z80_SIO_emul.c ****             // D4, D5 - Sync modes - Ignored
 361:Z80_SIO_emul.c ****             // D6, D7 - Clock rate - set by USB-Serial interface automatically so ignored for Port 
 362:Z80_SIO_emul.c ****             // Grant has 7.2738 MHz - divided by 64 = 115,200 baud
 363:Z80_SIO_emul.c ****             SIO_B_WR4 = SIO_B_Ctrl2;
 800              		.loc 1 363 0
 801 00b4 0D4B     		ldr	r3, .L75+8
 802 00b6 1B78     		ldrb	r3, [r3]	@ zero_extendqisi2
 803 00b8 DBB2     		uxtb	r3, r3
 804 00ba 114A     		ldr	r2, .L75+28
 805 00bc 1370     		strb	r3, [r2]
 364:Z80_SIO_emul.c ****             break;
 806              		.loc 1 364 0
 807 00be 10BD     		pop	{r4, pc}
 808              	.LVL74:
 809              	.L71:
 365:Z80_SIO_emul.c ****         case 0x5:
 366:Z80_SIO_emul.c ****             // p 287
 367:Z80_SIO_emul.c ****             // D0 - Tx CRC enable
 368:Z80_SIO_emul.c ****             // D1 - RTS - allows RTS to be manually set
 369:Z80_SIO_emul.c ****             // D2 - CRC-16/SDLC - Not used
 370:Z80_SIO_emul.c ****             // D3 - Transmit Enable
 371:Z80_SIO_emul.c ****             // D4 - Send break - not used
 372:Z80_SIO_emul.c ****             // D5, D6 - SYNC mode - Not used
 373:Z80_SIO_emul.c ****             // D7 - DTR - allows DTR to be manually set
 374:Z80_SIO_emul.c ****             SIO_B_WR5 = SIO_B_Ctrl2;
 810              		.loc 1 374 0
 811 00c0 0A4B     		ldr	r3, .L75+8
 812 00c2 1B78     		ldrb	r3, [r3]	@ zero_extendqisi2
 813 00c4 DBB2     		uxtb	r3, r3
 814 00c6 0F4A     		ldr	r2, .L75+32
 815 00c8 1370     		strb	r3, [r2]
 375:Z80_SIO_emul.c ****             break;
 816              		.loc 1 375 0
 817 00ca 10BD     		pop	{r4, pc}
 818              	.LVL75:
 819              	.L72:
 376:Z80_SIO_emul.c ****         case 0x6:
 377:Z80_SIO_emul.c ****             // D90D7 - SYNC bits - not used
 378:Z80_SIO_emul.c ****             SIO_B_WR6 = SIO_B_Ctrl2;
ARM GAS  C:\Users\HPz420\AppData\Local\Temp\ccfVn4Iy.s 			page 22


 820              		.loc 1 378 0
 821 00cc 074B     		ldr	r3, .L75+8
 822 00ce 1B78     		ldrb	r3, [r3]	@ zero_extendqisi2
 823 00d0 DBB2     		uxtb	r3, r3
 824 00d2 0D4A     		ldr	r2, .L75+36
 825 00d4 1370     		strb	r3, [r2]
 379:Z80_SIO_emul.c ****             break;
 826              		.loc 1 379 0
 827 00d6 10BD     		pop	{r4, pc}
 828              	.LVL76:
 829              	.L73:
 380:Z80_SIO_emul.c ****         case 0x7:
 381:Z80_SIO_emul.c ****             // D0-D7 - receive sync character - not used
 382:Z80_SIO_emul.c ****             SIO_B_WR7 = SIO_B_Ctrl2;
 830              		.loc 1 382 0
 831 00d8 044B     		ldr	r3, .L75+8
 832 00da 1B78     		ldrb	r3, [r3]	@ zero_extendqisi2
 833 00dc DBB2     		uxtb	r3, r3
 834 00de 0B4A     		ldr	r2, .L75+40
 835 00e0 1370     		strb	r3, [r2]
 836              	.L62:
 837 00e2 10BD     		pop	{r4, pc}
 838              	.LVL77:
 839              	.L76:
 840              		.align	2
 841              	.L75:
 842 00e4 00000000 		.word	SIO_B_Ctrl1
 843 00e8 67640040 		.word	1073767527
 844 00ec 00000000 		.word	SIO_B_Ctrl2
 845 00f0 00000000 		.word	SIO_B_WR0
 846 00f4 00000000 		.word	SIO_B_WR1
 847 00f8 00000000 		.word	SIO_B_WR2
 848 00fc 00000000 		.word	SIO_B_WR3
 849 0100 00000000 		.word	SIO_B_WR4
 850 0104 00000000 		.word	SIO_B_WR5
 851 0108 00000000 		.word	SIO_B_WR6
 852 010c 00000000 		.word	SIO_B_WR7
 853 0110 00000000 		.word	SIO_B_RD0
 854 0114 00000000 		.word	SIO_B_RD1
 855 0118 00000000 		.word	SIO_B_RD2
 856 011c 00000000 		.word	UART_B_TXD_BUSY
 857              		.cfi_endproc
 858              	.LFE73:
 859              		.size	SioWriteCtrlB, .-SioWriteCtrlB
 860              		.comm	UART_B_TXD_BUSY,1,1
 861              		.comm	UART_B_TXD,1,1
 862              		.comm	SIO_B_RD2,1,1
 863              		.comm	SIO_B_RD1,1,1
 864              		.comm	SIO_B_RD0,1,1
 865              		.comm	SIO_B_WR7,1,1
 866              		.comm	SIO_B_WR6,1,1
 867              		.comm	SIO_B_WR5,1,1
 868              		.comm	SIO_B_WR4,1,1
 869              		.comm	SIO_B_WR3,1,1
 870              		.comm	SIO_B_WR2,1,1
 871              		.comm	SIO_B_WR1,1,1
 872              		.comm	SIO_B_WR0,1,1
ARM GAS  C:\Users\HPz420\AppData\Local\Temp\ccfVn4Iy.s 			page 23


 873              		.comm	SIO_B_Ctrl_Count,1,1
 874              		.comm	SIO_B_DataIn,1,1
 875              		.comm	SIO_B_DataOut,1,1
 876              		.comm	SIO_B_Status,1,1
 877              		.comm	SIO_B_Ctrl2,1,1
 878              		.comm	SIO_B_Ctrl1,1,1
 879              		.comm	UART_A_TXD_BUSY,1,1
 880              		.comm	UART_A_TXD,1,1
 881              		.comm	SIO_A_RD2,1,1
 882              		.comm	SIO_A_RD1,1,1
 883              		.comm	SIO_A_RD0,1,1
 884              		.comm	SIO_A_WR7,1,1
 885              		.comm	SIO_A_WR6,1,1
 886              		.comm	SIO_A_WR5,1,1
 887              		.comm	SIO_A_WR4,1,1
 888              		.comm	SIO_A_WR3,1,1
 889              		.comm	SIO_A_WR2,1,1
 890              		.comm	SIO_A_WR1,1,1
 891              		.comm	SIO_A_WR0,1,1
 892              		.comm	SIO_A_Ctrl_Count,1,1
 893              		.comm	SIO_A_DataIn,1,1
 894              		.comm	SIO_A_DataOut,1,1
 895              		.comm	SIO_A_Status,1,1
 896              		.comm	SIO_A_Ctrl2,1,1
 897              		.comm	SIO_A_Ctrl1,1,1
 898              		.text
 899              	.Letext0:
 900              		.file 2 "c:\\program files (x86)\\cypress\\psoc creator\\4.2\\psoc creator\\import\\gnu\\arm\\5.4.
 901              		.file 3 "c:\\program files (x86)\\cypress\\psoc creator\\4.2\\psoc creator\\import\\gnu\\arm\\5.4.
 902              		.file 4 "Generated_Source\\PSoC5/cytypes.h"
 903              		.file 5 "Generated_Source\\PSoC5/core_cm3.h"
 904              		.file 6 "Generated_Source\\PSoC5/IO_Ctrl_Reg.h"
 905              		.file 7 "Generated_Source\\PSoC5/Z80_Data_In.h"
 906              		.file 8 "Z80_SIO_emul.h"
 907              		.file 9 "Generated_Source\\PSoC5/USBUART_cdc.h"
 908              		.file 10 "Generated_Source\\PSoC5/Z80_Data_Out.h"
 909              		.file 11 "Generated_Source\\PSoC5/IO_Stat_Reg.h"