ARM GAS  C:\Users\HPz420\AppData\Local\Temp\ccmm230D.s 			page 1


   1              		.syntax unified
   2              		.cpu cortex-m3
   3              		.fpu softvfp
   4              		.eabi_attribute 20, 1
   5              		.eabi_attribute 21, 1
   6              		.eabi_attribute 23, 3
   7              		.eabi_attribute 24, 1
   8              		.eabi_attribute 25, 1
   9              		.eabi_attribute 26, 1
  10              		.eabi_attribute 30, 1
  11              		.eabi_attribute 34, 1
  12              		.eabi_attribute 18, 4
  13              		.thumb
  14              		.syntax unified
  15              		.file	"Z80_IO_Handle.c"
  16              		.text
  17              	.Ltext0:
  18              		.cfi_sections	.debug_frame
  19              		.section	.text.HandleZ80IO,"ax",%progbits
  20              		.align	2
  21              		.global	HandleZ80IO
  22              		.thumb
  23              		.thumb_func
  24              		.type	HandleZ80IO, %function
  25              	HandleZ80IO:
  26              	.LFB63:
  27              		.file 1 "Z80_IO_Handle.c"
   1:Z80_IO_Handle.c **** /* ========================================
   2:Z80_IO_Handle.c ****  *
   3:Z80_IO_Handle.c ****  * Copyright LAND BOARDS, LLC, 2019
   4:Z80_IO_Handle.c ****  * All Rights Reserved
   5:Z80_IO_Handle.c ****  * UNPUBLISHED, LICENSED SOFTWARE.
   6:Z80_IO_Handle.c ****  *
   7:Z80_IO_Handle.c ****  * CONFIDENTIAL AND PROPRIETARY INFORMATION
   8:Z80_IO_Handle.c ****  * WHICH IS THE PROPERTY OF Land Boards, LLC.
   9:Z80_IO_Handle.c ****  *
  10:Z80_IO_Handle.c ****  * ========================================
  11:Z80_IO_Handle.c **** */
  12:Z80_IO_Handle.c **** 
  13:Z80_IO_Handle.c **** #include <project.h>
  14:Z80_IO_Handle.c **** #include "FrontPanel.h"
  15:Z80_IO_Handle.c **** #include "Z80_IO_Handle.h"
  16:Z80_IO_Handle.c **** #include "Z80_SIO_emul.h"
  17:Z80_IO_Handle.c **** #include "Z80_PIO_emul.h"
  18:Z80_IO_Handle.c **** #include "Z80_6850_Emul.h"
  19:Z80_IO_Handle.c **** #include "Z80_CFCard_Emul.h"
  20:Z80_IO_Handle.c **** #include "Hardware_Config.h"
  21:Z80_IO_Handle.c **** 
  22:Z80_IO_Handle.c **** void HandleZ80IO(void)
  23:Z80_IO_Handle.c **** {
  28              		.loc 1 23 0
  29              		.cfi_startproc
  30              		@ args = 0, pretend = 0, frame = 8
  31              		@ frame_needed = 0, uses_anonymous_args = 0
  32 0000 00B5     		push	{lr}
  33              		.cfi_def_cfa_offset 4
  34              		.cfi_offset 14, -4
ARM GAS  C:\Users\HPz420\AppData\Local\Temp\ccmm230D.s 			page 2


  35 0002 83B0     		sub	sp, sp, #12
  36              		.cfi_def_cfa_offset 16
  24:Z80_IO_Handle.c ****     volatile uint8 ioCrtlRegVal;
  25:Z80_IO_Handle.c ****     volatile uint8 ioZ80Addr;
  26:Z80_IO_Handle.c ****     
  27:Z80_IO_Handle.c ****     ioCrtlRegVal = IO_Stat_Reg_Read();
  37              		.loc 1 27 0
  38 0004 FFF7FEFF 		bl	IO_Stat_Reg_Read
  39              	.LVL0:
  40 0008 8DF80700 		strb	r0, [sp, #7]
  28:Z80_IO_Handle.c **** #ifdef USING_SIO
  29:Z80_IO_Handle.c ****     if ((ioCrtlRegVal & IACK_MASK) == IN_IACK_CYCLE)
  41              		.loc 1 29 0
  42 000c 9DF80730 		ldrb	r3, [sp, #7]	@ zero_extendqisi2
  43 0010 03F01903 		and	r3, r3, #25
  44 0014 102B     		cmp	r3, #16
  45 0016 02D1     		bne	.L2
  30:Z80_IO_Handle.c ****     {
  31:Z80_IO_Handle.c ****         SioReadIntRegB();
  46              		.loc 1 31 0
  47 0018 FFF7FEFF 		bl	SioReadIntRegB
  48              	.LVL1:
  32:Z80_IO_Handle.c ****         return;
  49              		.loc 1 32 0
  50 001c 26E1     		b	.L1
  51              	.L2:
  33:Z80_IO_Handle.c ****     }
  34:Z80_IO_Handle.c **** #endif
  35:Z80_IO_Handle.c **** #ifdef USING_6850
  36:Z80_IO_Handle.c ****     if ((ioCrtlRegVal & IACK_MASK) == IN_IACK_CYCLE)
  37:Z80_IO_Handle.c ****     {
  38:Z80_IO_Handle.c ****         M6850ReadIntReg();
  39:Z80_IO_Handle.c ****         return;
  40:Z80_IO_Handle.c ****     }
  41:Z80_IO_Handle.c **** #endif
  42:Z80_IO_Handle.c ****     ioZ80Addr = AdrLowIn_Read();
  52              		.loc 1 42 0
  53 001e FFF7FEFF 		bl	AdrLowIn_Read
  54              	.LVL2:
  55 0022 8DF80600 		strb	r0, [sp, #6]
  43:Z80_IO_Handle.c ****     switch (ioZ80Addr)
  56              		.loc 1 43 0
  57 0026 9DF80630 		ldrb	r3, [sp, #6]	@ zero_extendqisi2
  58 002a DBB2     		uxtb	r3, r3
  59 002c 1B2B     		cmp	r3, #27
  60 002e 00F21D81 		bhi	.L1
  61 0032 DFE813F0 		tbh	[pc, r3, lsl #1]
  62              	.L5:
  63 0036 1C00     		.2byte	(.L4-.L5)/2
  64 0038 3600     		.2byte	(.L6-.L5)/2
  65 003a 2D00     		.2byte	(.L7-.L5)/2
  66 003c 4700     		.2byte	(.L8-.L5)/2
  67 003e 1B01     		.2byte	(.L1-.L5)/2
  68 0040 1B01     		.2byte	(.L1-.L5)/2
  69 0042 1B01     		.2byte	(.L1-.L5)/2
  70 0044 1B01     		.2byte	(.L1-.L5)/2
  71 0046 1B01     		.2byte	(.L1-.L5)/2
ARM GAS  C:\Users\HPz420\AppData\Local\Temp\ccmm230D.s 			page 3


  72 0048 1B01     		.2byte	(.L1-.L5)/2
  73 004a 1B01     		.2byte	(.L1-.L5)/2
  74 004c 1B01     		.2byte	(.L1-.L5)/2
  75 004e 1B01     		.2byte	(.L1-.L5)/2
  76 0050 1B01     		.2byte	(.L1-.L5)/2
  77 0052 1B01     		.2byte	(.L1-.L5)/2
  78 0054 1B01     		.2byte	(.L1-.L5)/2
  79 0056 5000     		.2byte	(.L9-.L5)/2
  80 0058 6100     		.2byte	(.L10-.L5)/2
  81 005a 7200     		.2byte	(.L11-.L5)/2
  82 005c 8300     		.2byte	(.L12-.L5)/2
  83 005e 9400     		.2byte	(.L13-.L5)/2
  84 0060 A400     		.2byte	(.L14-.L5)/2
  85 0062 B400     		.2byte	(.L15-.L5)/2
  86 0064 C400     		.2byte	(.L16-.L5)/2
  87 0066 D400     		.2byte	(.L17-.L5)/2
  88 0068 E600     		.2byte	(.L18-.L5)/2
  89 006a F800     		.2byte	(.L19-.L5)/2
  90 006c 0A01     		.2byte	(.L20-.L5)/2
  91              		.p2align 1
  92              	.L4:
  44:Z80_IO_Handle.c ****     {
  45:Z80_IO_Handle.c **** #ifdef USING_SIO
  46:Z80_IO_Handle.c ****         case SIOA_D:
  47:Z80_IO_Handle.c ****             if (ioCrtlRegVal == REGULAR_READ_CYCLE)             // regular read cycle
  93              		.loc 1 47 0
  94 006e 9DF80730 		ldrb	r3, [sp, #7]	@ zero_extendqisi2
  95 0072 DBB2     		uxtb	r3, r3
  96 0074 1C2B     		cmp	r3, #28
  97 0076 02D1     		bne	.L21
  48:Z80_IO_Handle.c ****             {
  49:Z80_IO_Handle.c ****                 SioReadDataA();
  98              		.loc 1 49 0
  99 0078 FFF7FEFF 		bl	SioReadDataA
 100              	.LVL3:
  50:Z80_IO_Handle.c ****                 return;
 101              		.loc 1 50 0
 102 007c F6E0     		b	.L1
 103              	.L21:
  51:Z80_IO_Handle.c ****             }
  52:Z80_IO_Handle.c ****             else if (ioCrtlRegVal == REGULAR_WRITE_CYCLE)      // regular write cycle
 104              		.loc 1 52 0
 105 007e 9DF80730 		ldrb	r3, [sp, #7]	@ zero_extendqisi2
 106 0082 DBB2     		uxtb	r3, r3
 107 0084 1A2B     		cmp	r3, #26
 108 0086 40F0F180 		bne	.L1
  53:Z80_IO_Handle.c ****             {
  54:Z80_IO_Handle.c ****                 SioWriteDataA();
 109              		.loc 1 54 0
 110 008a FFF7FEFF 		bl	SioWriteDataA
 111              	.LVL4:
  55:Z80_IO_Handle.c ****                 return;
 112              		.loc 1 55 0
 113 008e EDE0     		b	.L1
 114              	.L7:
  56:Z80_IO_Handle.c ****             }
  57:Z80_IO_Handle.c ****             break;
ARM GAS  C:\Users\HPz420\AppData\Local\Temp\ccmm230D.s 			page 4


  58:Z80_IO_Handle.c ****         case SIOA_C:    // Control register
  59:Z80_IO_Handle.c ****             if (ioCrtlRegVal == REGULAR_WRITE_CYCLE)      // regular write cycle
 115              		.loc 1 59 0
 116 0090 9DF80730 		ldrb	r3, [sp, #7]	@ zero_extendqisi2
 117 0094 DBB2     		uxtb	r3, r3
 118 0096 1A2B     		cmp	r3, #26
 119 0098 40F0E880 		bne	.L1
  60:Z80_IO_Handle.c ****             {
  61:Z80_IO_Handle.c ****                 SioWriteCtrlA();
 120              		.loc 1 61 0
 121 009c FFF7FEFF 		bl	SioWriteCtrlA
 122              	.LVL5:
  62:Z80_IO_Handle.c ****                 return;
 123              		.loc 1 62 0
 124 00a0 E4E0     		b	.L1
 125              	.L6:
  63:Z80_IO_Handle.c ****             }
  64:Z80_IO_Handle.c ****             break;
  65:Z80_IO_Handle.c ****         case SIOB_D:
  66:Z80_IO_Handle.c ****             if (ioCrtlRegVal == REGULAR_READ_CYCLE)            // regular read cycle
 126              		.loc 1 66 0
 127 00a2 9DF80730 		ldrb	r3, [sp, #7]	@ zero_extendqisi2
 128 00a6 DBB2     		uxtb	r3, r3
 129 00a8 1C2B     		cmp	r3, #28
 130 00aa 02D1     		bne	.L22
  67:Z80_IO_Handle.c ****             {
  68:Z80_IO_Handle.c ****                 SioReadDataB();
 131              		.loc 1 68 0
 132 00ac FFF7FEFF 		bl	SioReadDataB
 133              	.LVL6:
  69:Z80_IO_Handle.c ****                 return;
 134              		.loc 1 69 0
 135 00b0 DCE0     		b	.L1
 136              	.L22:
  70:Z80_IO_Handle.c ****             }
  71:Z80_IO_Handle.c ****             else if (ioCrtlRegVal == REGULAR_WRITE_CYCLE)      // regular write cycle
 137              		.loc 1 71 0
 138 00b2 9DF80730 		ldrb	r3, [sp, #7]	@ zero_extendqisi2
 139 00b6 DBB2     		uxtb	r3, r3
 140 00b8 1A2B     		cmp	r3, #26
 141 00ba 40F0D780 		bne	.L1
  72:Z80_IO_Handle.c ****             {
  73:Z80_IO_Handle.c ****                 SioWriteDataB();
 142              		.loc 1 73 0
 143 00be FFF7FEFF 		bl	SioWriteDataB
 144              	.LVL7:
  74:Z80_IO_Handle.c ****                 return;
 145              		.loc 1 74 0
 146 00c2 D3E0     		b	.L1
 147              	.L8:
  75:Z80_IO_Handle.c ****             }
  76:Z80_IO_Handle.c ****             break;
  77:Z80_IO_Handle.c ****         case SIOB_C:
  78:Z80_IO_Handle.c ****             if (ioCrtlRegVal == REGULAR_WRITE_CYCLE)      // regular write cycle
 148              		.loc 1 78 0
 149 00c4 9DF80730 		ldrb	r3, [sp, #7]	@ zero_extendqisi2
 150 00c8 DBB2     		uxtb	r3, r3
ARM GAS  C:\Users\HPz420\AppData\Local\Temp\ccmm230D.s 			page 5


 151 00ca 1A2B     		cmp	r3, #26
 152 00cc 40F0CE80 		bne	.L1
  79:Z80_IO_Handle.c ****             {
  80:Z80_IO_Handle.c ****                 SioWriteCtrlB();
 153              		.loc 1 80 0
 154 00d0 FFF7FEFF 		bl	SioWriteCtrlB
 155              	.LVL8:
  81:Z80_IO_Handle.c ****                 return;
 156              		.loc 1 81 0
 157 00d4 CAE0     		b	.L1
 158              	.L9:
  82:Z80_IO_Handle.c ****             }
  83:Z80_IO_Handle.c ****             break;
  84:Z80_IO_Handle.c **** #endif
  85:Z80_IO_Handle.c **** #ifdef USING_CFCARD
  86:Z80_IO_Handle.c ****         case CF_DATA:           // 0x10
  87:Z80_IO_Handle.c ****             if (ioCrtlRegVal == REGULAR_READ_CYCLE)            // regular read cycle
 159              		.loc 1 87 0
 160 00d6 9DF80730 		ldrb	r3, [sp, #7]	@ zero_extendqisi2
 161 00da DBB2     		uxtb	r3, r3
 162 00dc 1C2B     		cmp	r3, #28
 163 00de 02D1     		bne	.L23
  88:Z80_IO_Handle.c ****             {
  89:Z80_IO_Handle.c ****                 CFReadData();
 164              		.loc 1 89 0
 165 00e0 FFF7FEFF 		bl	CFReadData
 166              	.LVL9:
 167 00e4 C2E0     		b	.L1
 168              	.L23:
  90:Z80_IO_Handle.c ****             }
  91:Z80_IO_Handle.c ****             else if (ioCrtlRegVal == REGULAR_WRITE_CYCLE)      // regular write cycle
 169              		.loc 1 91 0
 170 00e6 9DF80730 		ldrb	r3, [sp, #7]	@ zero_extendqisi2
 171 00ea DBB2     		uxtb	r3, r3
 172 00ec 1A2B     		cmp	r3, #26
 173 00ee 40F0BD80 		bne	.L1
  92:Z80_IO_Handle.c ****             {
  93:Z80_IO_Handle.c ****                 CFWriteData();
 174              		.loc 1 93 0
 175 00f2 FFF7FEFF 		bl	CFWriteData
 176              	.LVL10:
 177 00f6 B9E0     		b	.L1
 178              	.L10:
  94:Z80_IO_Handle.c ****             }
  95:Z80_IO_Handle.c ****             break;
  96:Z80_IO_Handle.c ****         case CF_FEATURES_ERROR: // 0x11
  97:Z80_IO_Handle.c ****             if (ioCrtlRegVal == REGULAR_READ_CYCLE)            // regular read cycle
 179              		.loc 1 97 0
 180 00f8 9DF80730 		ldrb	r3, [sp, #7]	@ zero_extendqisi2
 181 00fc DBB2     		uxtb	r3, r3
 182 00fe 1C2B     		cmp	r3, #28
 183 0100 02D1     		bne	.L24
  98:Z80_IO_Handle.c ****             {
  99:Z80_IO_Handle.c ****                 CFReadErrorStat();
 184              		.loc 1 99 0
 185 0102 FFF7FEFF 		bl	CFReadErrorStat
 186              	.LVL11:
ARM GAS  C:\Users\HPz420\AppData\Local\Temp\ccmm230D.s 			page 6


 187 0106 B1E0     		b	.L1
 188              	.L24:
 100:Z80_IO_Handle.c ****             }
 101:Z80_IO_Handle.c ****             else if (ioCrtlRegVal == REGULAR_WRITE_CYCLE)      // regular write cycle
 189              		.loc 1 101 0
 190 0108 9DF80730 		ldrb	r3, [sp, #7]	@ zero_extendqisi2
 191 010c DBB2     		uxtb	r3, r3
 192 010e 1A2B     		cmp	r3, #26
 193 0110 40F0AC80 		bne	.L1
 102:Z80_IO_Handle.c ****             {
 103:Z80_IO_Handle.c ****                 CFWriteFeatures();
 194              		.loc 1 103 0
 195 0114 FFF7FEFF 		bl	CFWriteFeatures
 196              	.LVL12:
 197 0118 A8E0     		b	.L1
 198              	.L11:
 104:Z80_IO_Handle.c ****             }
 105:Z80_IO_Handle.c ****             break;
 106:Z80_IO_Handle.c ****         case CF_SECCOUNT:       // 0x12
 107:Z80_IO_Handle.c ****             if (ioCrtlRegVal == REGULAR_READ_CYCLE)            // regular read cycle
 199              		.loc 1 107 0
 200 011a 9DF80730 		ldrb	r3, [sp, #7]	@ zero_extendqisi2
 201 011e DBB2     		uxtb	r3, r3
 202 0120 1C2B     		cmp	r3, #28
 203 0122 02D1     		bne	.L25
 108:Z80_IO_Handle.c ****             {
 109:Z80_IO_Handle.c ****                 CFReadSectorCount();
 204              		.loc 1 109 0
 205 0124 FFF7FEFF 		bl	CFReadSectorCount
 206              	.LVL13:
 207 0128 A0E0     		b	.L1
 208              	.L25:
 110:Z80_IO_Handle.c ****             }
 111:Z80_IO_Handle.c ****             else if (ioCrtlRegVal == REGULAR_WRITE_CYCLE)      // regular write cycle
 209              		.loc 1 111 0
 210 012a 9DF80730 		ldrb	r3, [sp, #7]	@ zero_extendqisi2
 211 012e DBB2     		uxtb	r3, r3
 212 0130 1A2B     		cmp	r3, #26
 213 0132 40F09B80 		bne	.L1
 112:Z80_IO_Handle.c ****             {
 113:Z80_IO_Handle.c ****                 CFWriteSectorCount();
 214              		.loc 1 113 0
 215 0136 FFF7FEFF 		bl	CFWriteSectorCount
 216              	.LVL14:
 217 013a 97E0     		b	.L1
 218              	.L12:
 114:Z80_IO_Handle.c ****             }
 115:Z80_IO_Handle.c ****             break;
 116:Z80_IO_Handle.c ****         case CF_SECTOR_LAB0:    // 0x13
 117:Z80_IO_Handle.c ****             if (ioCrtlRegVal == REGULAR_READ_CYCLE)            // regular read cycle
 219              		.loc 1 117 0
 220 013c 9DF80730 		ldrb	r3, [sp, #7]	@ zero_extendqisi2
 221 0140 DBB2     		uxtb	r3, r3
 222 0142 1C2B     		cmp	r3, #28
 223 0144 02D1     		bne	.L26
 118:Z80_IO_Handle.c ****             {
 119:Z80_IO_Handle.c ****                 CFReadSector();
ARM GAS  C:\Users\HPz420\AppData\Local\Temp\ccmm230D.s 			page 7


 224              		.loc 1 119 0
 225 0146 FFF7FEFF 		bl	CFReadSector
 226              	.LVL15:
 227 014a 8FE0     		b	.L1
 228              	.L26:
 120:Z80_IO_Handle.c ****             }
 121:Z80_IO_Handle.c ****             else if (ioCrtlRegVal == REGULAR_WRITE_CYCLE)      // regular write cycle
 229              		.loc 1 121 0
 230 014c 9DF80730 		ldrb	r3, [sp, #7]	@ zero_extendqisi2
 231 0150 DBB2     		uxtb	r3, r3
 232 0152 1A2B     		cmp	r3, #26
 233 0154 40F08A80 		bne	.L1
 122:Z80_IO_Handle.c ****             {
 123:Z80_IO_Handle.c ****                 CFWriteLBA0();
 234              		.loc 1 123 0
 235 0158 FFF7FEFF 		bl	CFWriteLBA0
 236              	.LVL16:
 237 015c 86E0     		b	.L1
 238              	.L13:
 124:Z80_IO_Handle.c ****             }
 125:Z80_IO_Handle.c ****             break;
 126:Z80_IO_Handle.c ****         case CF_CYL_LOW_LBA1:   // 0x14
 127:Z80_IO_Handle.c ****             if (ioCrtlRegVal == REGULAR_READ_CYCLE)            // regular read cycle
 239              		.loc 1 127 0
 240 015e 9DF80730 		ldrb	r3, [sp, #7]	@ zero_extendqisi2
 241 0162 DBB2     		uxtb	r3, r3
 242 0164 1C2B     		cmp	r3, #28
 243 0166 02D1     		bne	.L27
 128:Z80_IO_Handle.c ****             {
 129:Z80_IO_Handle.c ****                 CFReadCylLow();
 244              		.loc 1 129 0
 245 0168 FFF7FEFF 		bl	CFReadCylLow
 246              	.LVL17:
 247 016c 7EE0     		b	.L1
 248              	.L27:
 130:Z80_IO_Handle.c ****             }
 131:Z80_IO_Handle.c ****             else if (ioCrtlRegVal == REGULAR_WRITE_CYCLE)      // regular write cycle
 249              		.loc 1 131 0
 250 016e 9DF80730 		ldrb	r3, [sp, #7]	@ zero_extendqisi2
 251 0172 DBB2     		uxtb	r3, r3
 252 0174 1A2B     		cmp	r3, #26
 253 0176 79D1     		bne	.L1
 132:Z80_IO_Handle.c ****             {
 133:Z80_IO_Handle.c ****                 CFWriteLBA1();
 254              		.loc 1 133 0
 255 0178 FFF7FEFF 		bl	CFWriteLBA1
 256              	.LVL18:
 257 017c 76E0     		b	.L1
 258              	.L14:
 134:Z80_IO_Handle.c ****             }
 135:Z80_IO_Handle.c ****             break;
 136:Z80_IO_Handle.c ****         case CF_CYL_HI_LBA2:    // 0x15
 137:Z80_IO_Handle.c ****             if (ioCrtlRegVal == REGULAR_READ_CYCLE)            // regular read cycle
 259              		.loc 1 137 0
 260 017e 9DF80730 		ldrb	r3, [sp, #7]	@ zero_extendqisi2
 261 0182 DBB2     		uxtb	r3, r3
 262 0184 1C2B     		cmp	r3, #28
ARM GAS  C:\Users\HPz420\AppData\Local\Temp\ccmm230D.s 			page 8


 263 0186 02D1     		bne	.L28
 138:Z80_IO_Handle.c ****             {
 139:Z80_IO_Handle.c ****                 CFReadCylHigh();
 264              		.loc 1 139 0
 265 0188 FFF7FEFF 		bl	CFReadCylHigh
 266              	.LVL19:
 267 018c 6EE0     		b	.L1
 268              	.L28:
 140:Z80_IO_Handle.c ****             }
 141:Z80_IO_Handle.c ****             else if (ioCrtlRegVal == REGULAR_WRITE_CYCLE)      // regular write cycle
 269              		.loc 1 141 0
 270 018e 9DF80730 		ldrb	r3, [sp, #7]	@ zero_extendqisi2
 271 0192 DBB2     		uxtb	r3, r3
 272 0194 1A2B     		cmp	r3, #26
 273 0196 69D1     		bne	.L1
 142:Z80_IO_Handle.c ****             {
 143:Z80_IO_Handle.c ****                 CFWriteLBA2();
 274              		.loc 1 143 0
 275 0198 FFF7FEFF 		bl	CFWriteLBA2
 276              	.LVL20:
 277 019c 66E0     		b	.L1
 278              	.L15:
 144:Z80_IO_Handle.c ****             }
 145:Z80_IO_Handle.c ****             break;
 146:Z80_IO_Handle.c ****         case CF_HEAD_LBA3:    // 0x16
 147:Z80_IO_Handle.c ****             if (ioCrtlRegVal == REGULAR_READ_CYCLE)            // regular read cycle
 279              		.loc 1 147 0
 280 019e 9DF80730 		ldrb	r3, [sp, #7]	@ zero_extendqisi2
 281 01a2 DBB2     		uxtb	r3, r3
 282 01a4 1C2B     		cmp	r3, #28
 283 01a6 02D1     		bne	.L29
 148:Z80_IO_Handle.c ****             {
 149:Z80_IO_Handle.c ****                 CFReadHead();
 284              		.loc 1 149 0
 285 01a8 FFF7FEFF 		bl	CFReadHead
 286              	.LVL21:
 287 01ac 5EE0     		b	.L1
 288              	.L29:
 150:Z80_IO_Handle.c ****             }
 151:Z80_IO_Handle.c ****             else if (ioCrtlRegVal == REGULAR_WRITE_CYCLE)      // regular write cycle
 289              		.loc 1 151 0
 290 01ae 9DF80730 		ldrb	r3, [sp, #7]	@ zero_extendqisi2
 291 01b2 DBB2     		uxtb	r3, r3
 292 01b4 1A2B     		cmp	r3, #26
 293 01b6 59D1     		bne	.L1
 152:Z80_IO_Handle.c ****             {
 153:Z80_IO_Handle.c ****                 CFWriteLBA3();
 294              		.loc 1 153 0
 295 01b8 FFF7FEFF 		bl	CFWriteLBA3
 296              	.LVL22:
 297 01bc 56E0     		b	.L1
 298              	.L16:
 154:Z80_IO_Handle.c ****             }
 155:Z80_IO_Handle.c ****             break;
 156:Z80_IO_Handle.c ****         case CF_STATUS_COMMAND: // 0x17
 157:Z80_IO_Handle.c ****             if (ioCrtlRegVal == REGULAR_READ_CYCLE)            // regular read cycle
 299              		.loc 1 157 0
ARM GAS  C:\Users\HPz420\AppData\Local\Temp\ccmm230D.s 			page 9


 300 01be 9DF80730 		ldrb	r3, [sp, #7]	@ zero_extendqisi2
 301 01c2 DBB2     		uxtb	r3, r3
 302 01c4 1C2B     		cmp	r3, #28
 303 01c6 02D1     		bne	.L30
 158:Z80_IO_Handle.c ****             {
 159:Z80_IO_Handle.c ****                 CFReadStatus();
 304              		.loc 1 159 0
 305 01c8 FFF7FEFF 		bl	CFReadStatus
 306              	.LVL23:
 307 01cc 4EE0     		b	.L1
 308              	.L30:
 160:Z80_IO_Handle.c ****             }
 161:Z80_IO_Handle.c ****             else if (ioCrtlRegVal == REGULAR_WRITE_CYCLE)      // regular write cycle
 309              		.loc 1 161 0
 310 01ce 9DF80730 		ldrb	r3, [sp, #7]	@ zero_extendqisi2
 311 01d2 DBB2     		uxtb	r3, r3
 312 01d4 1A2B     		cmp	r3, #26
 313 01d6 49D1     		bne	.L1
 162:Z80_IO_Handle.c ****             {
 163:Z80_IO_Handle.c ****                 CFWriteCommand();
 314              		.loc 1 163 0
 315 01d8 FFF7FEFF 		bl	CFWriteCommand
 316              	.LVL24:
 317 01dc 46E0     		b	.L1
 318              	.L17:
 164:Z80_IO_Handle.c ****             }
 165:Z80_IO_Handle.c ****             break;
 166:Z80_IO_Handle.c **** #endif
 167:Z80_IO_Handle.c **** #ifdef USING_6850
 168:Z80_IO_Handle.c ****         case M6850_D:
 169:Z80_IO_Handle.c ****             if (ioCrtlRegVal == REGULAR_READ_CYCLE)             // regular read cycle
 170:Z80_IO_Handle.c ****             {
 171:Z80_IO_Handle.c ****                 M6850ReadData();
 172:Z80_IO_Handle.c ****                 return;
 173:Z80_IO_Handle.c ****             }
 174:Z80_IO_Handle.c ****             else if (ioCrtlRegVal == REGULAR_WRITE_CYCLE)      // regular write cycle
 175:Z80_IO_Handle.c ****             {
 176:Z80_IO_Handle.c ****                 M6850WriteData();
 177:Z80_IO_Handle.c ****                 return;
 178:Z80_IO_Handle.c ****             }
 179:Z80_IO_Handle.c ****             break;
 180:Z80_IO_Handle.c ****         case  M6850_C:    // Control register
 181:Z80_IO_Handle.c ****             if (ioCrtlRegVal == REGULAR_READ_CYCLE)             // regular read cycle
 182:Z80_IO_Handle.c ****             {
 183:Z80_IO_Handle.c ****                 M6850ReadStatus();
 184:Z80_IO_Handle.c ****                 return;
 185:Z80_IO_Handle.c ****             }
 186:Z80_IO_Handle.c ****             if (ioCrtlRegVal == REGULAR_WRITE_CYCLE)      // regular write cycle
 187:Z80_IO_Handle.c ****             {
 188:Z80_IO_Handle.c ****                 M6850WriteCtrl();
 189:Z80_IO_Handle.c ****                 return;
 190:Z80_IO_Handle.c ****             }
 191:Z80_IO_Handle.c ****             break;
 192:Z80_IO_Handle.c **** #endif
 193:Z80_IO_Handle.c **** #ifdef USING_FRONT_PANEL
 194:Z80_IO_Handle.c ****         case FR_PNL_IO_LO:
 195:Z80_IO_Handle.c ****             if (ioCrtlRegVal == REGULAR_READ_CYCLE)            // regular read cycle
ARM GAS  C:\Users\HPz420\AppData\Local\Temp\ccmm230D.s 			page 10


 319              		.loc 1 195 0
 320 01de 9DF80730 		ldrb	r3, [sp, #7]	@ zero_extendqisi2
 321 01e2 DBB2     		uxtb	r3, r3
 322 01e4 1C2B     		cmp	r3, #28
 323 01e6 03D1     		bne	.L31
 196:Z80_IO_Handle.c ****             {
 197:Z80_IO_Handle.c ****                 FrontPanelZ80Read(0);
 324              		.loc 1 197 0
 325 01e8 0020     		movs	r0, #0
 326 01ea FFF7FEFF 		bl	FrontPanelZ80Read
 327              	.LVL25:
 198:Z80_IO_Handle.c ****                 return;
 328              		.loc 1 198 0
 329 01ee 3DE0     		b	.L1
 330              	.L31:
 199:Z80_IO_Handle.c ****             }
 200:Z80_IO_Handle.c ****             else if (ioCrtlRegVal == REGULAR_WRITE_CYCLE)      // regular write cycle
 331              		.loc 1 200 0
 332 01f0 9DF80730 		ldrb	r3, [sp, #7]	@ zero_extendqisi2
 333 01f4 DBB2     		uxtb	r3, r3
 334 01f6 1A2B     		cmp	r3, #26
 335 01f8 38D1     		bne	.L1
 201:Z80_IO_Handle.c ****             {
 202:Z80_IO_Handle.c ****                 FrontPanelZ80Write(0);
 336              		.loc 1 202 0
 337 01fa 0020     		movs	r0, #0
 338 01fc FFF7FEFF 		bl	FrontPanelZ80Write
 339              	.LVL26:
 203:Z80_IO_Handle.c ****                 return;
 340              		.loc 1 203 0
 341 0200 34E0     		b	.L1
 342              	.L18:
 204:Z80_IO_Handle.c ****             }
 205:Z80_IO_Handle.c ****             break;
 206:Z80_IO_Handle.c ****         case FR_PNL_IO_LO_MID:
 207:Z80_IO_Handle.c ****             if (ioCrtlRegVal == REGULAR_READ_CYCLE)            // regular read cycle
 343              		.loc 1 207 0
 344 0202 9DF80730 		ldrb	r3, [sp, #7]	@ zero_extendqisi2
 345 0206 DBB2     		uxtb	r3, r3
 346 0208 1C2B     		cmp	r3, #28
 347 020a 03D1     		bne	.L32
 208:Z80_IO_Handle.c ****             {
 209:Z80_IO_Handle.c ****                 FrontPanelZ80Read(1);
 348              		.loc 1 209 0
 349 020c 0120     		movs	r0, #1
 350 020e FFF7FEFF 		bl	FrontPanelZ80Read
 351              	.LVL27:
 210:Z80_IO_Handle.c ****                 return;
 352              		.loc 1 210 0
 353 0212 2BE0     		b	.L1
 354              	.L32:
 211:Z80_IO_Handle.c ****             }
 212:Z80_IO_Handle.c ****             else if (ioCrtlRegVal == REGULAR_WRITE_CYCLE)      // regular write cycle
 355              		.loc 1 212 0
 356 0214 9DF80730 		ldrb	r3, [sp, #7]	@ zero_extendqisi2
 357 0218 DBB2     		uxtb	r3, r3
 358 021a 1A2B     		cmp	r3, #26
ARM GAS  C:\Users\HPz420\AppData\Local\Temp\ccmm230D.s 			page 11


 359 021c 26D1     		bne	.L1
 213:Z80_IO_Handle.c ****             {
 214:Z80_IO_Handle.c ****                 FrontPanelZ80Write(1);
 360              		.loc 1 214 0
 361 021e 0120     		movs	r0, #1
 362 0220 FFF7FEFF 		bl	FrontPanelZ80Write
 363              	.LVL28:
 215:Z80_IO_Handle.c ****                 return;
 364              		.loc 1 215 0
 365 0224 22E0     		b	.L1
 366              	.L19:
 216:Z80_IO_Handle.c ****             }
 217:Z80_IO_Handle.c ****             break;
 218:Z80_IO_Handle.c ****         case FR_PNL_IO_HI_MID:
 219:Z80_IO_Handle.c ****             if (ioCrtlRegVal == REGULAR_READ_CYCLE)            // regular read cycle
 367              		.loc 1 219 0
 368 0226 9DF80730 		ldrb	r3, [sp, #7]	@ zero_extendqisi2
 369 022a DBB2     		uxtb	r3, r3
 370 022c 1C2B     		cmp	r3, #28
 371 022e 03D1     		bne	.L33
 220:Z80_IO_Handle.c ****             {
 221:Z80_IO_Handle.c ****                 FrontPanelZ80Read(2);
 372              		.loc 1 221 0
 373 0230 0220     		movs	r0, #2
 374 0232 FFF7FEFF 		bl	FrontPanelZ80Read
 375              	.LVL29:
 222:Z80_IO_Handle.c ****                 return;
 376              		.loc 1 222 0
 377 0236 19E0     		b	.L1
 378              	.L33:
 223:Z80_IO_Handle.c ****             }
 224:Z80_IO_Handle.c ****             else if (ioCrtlRegVal == REGULAR_WRITE_CYCLE)      // regular write cycle
 379              		.loc 1 224 0
 380 0238 9DF80730 		ldrb	r3, [sp, #7]	@ zero_extendqisi2
 381 023c DBB2     		uxtb	r3, r3
 382 023e 1A2B     		cmp	r3, #26
 383 0240 14D1     		bne	.L1
 225:Z80_IO_Handle.c ****             {
 226:Z80_IO_Handle.c ****                 FrontPanelZ80Write(2);
 384              		.loc 1 226 0
 385 0242 0220     		movs	r0, #2
 386 0244 FFF7FEFF 		bl	FrontPanelZ80Write
 387              	.LVL30:
 227:Z80_IO_Handle.c ****                 return;
 388              		.loc 1 227 0
 389 0248 10E0     		b	.L1
 390              	.L20:
 228:Z80_IO_Handle.c ****             }
 229:Z80_IO_Handle.c ****             break;
 230:Z80_IO_Handle.c ****         case FR_PNL_IO_HI:
 231:Z80_IO_Handle.c ****             if (ioCrtlRegVal == REGULAR_READ_CYCLE)            // regular read cycle
 391              		.loc 1 231 0
 392 024a 9DF80730 		ldrb	r3, [sp, #7]	@ zero_extendqisi2
 393 024e DBB2     		uxtb	r3, r3
 394 0250 1C2B     		cmp	r3, #28
 395 0252 03D1     		bne	.L34
 232:Z80_IO_Handle.c ****             {
ARM GAS  C:\Users\HPz420\AppData\Local\Temp\ccmm230D.s 			page 12


 233:Z80_IO_Handle.c ****                 FrontPanelZ80Read(3);
 396              		.loc 1 233 0
 397 0254 0320     		movs	r0, #3
 398 0256 FFF7FEFF 		bl	FrontPanelZ80Read
 399              	.LVL31:
 234:Z80_IO_Handle.c ****                 return;
 400              		.loc 1 234 0
 401 025a 07E0     		b	.L1
 402              	.L34:
 235:Z80_IO_Handle.c ****             }
 236:Z80_IO_Handle.c ****             else if (ioCrtlRegVal == REGULAR_WRITE_CYCLE)      // regular write cycle
 403              		.loc 1 236 0
 404 025c 9DF80730 		ldrb	r3, [sp, #7]	@ zero_extendqisi2
 405 0260 DBB2     		uxtb	r3, r3
 406 0262 1A2B     		cmp	r3, #26
 407 0264 02D1     		bne	.L1
 237:Z80_IO_Handle.c ****             {
 238:Z80_IO_Handle.c ****                 FrontPanelZ80Write(3);
 408              		.loc 1 238 0
 409 0266 0320     		movs	r0, #3
 410 0268 FFF7FEFF 		bl	FrontPanelZ80Write
 411              	.LVL32:
 412              	.L1:
 239:Z80_IO_Handle.c ****                 return;
 240:Z80_IO_Handle.c ****             }
 241:Z80_IO_Handle.c ****             break;
 242:Z80_IO_Handle.c **** #endif
 243:Z80_IO_Handle.c **** #ifdef USING_EXP_MCCP23017
 244:Z80_IO_Handle.c ****         case PIOA_D:
 245:Z80_IO_Handle.c ****             if (ioCrtlRegVal == REGULAR_READ_CYCLE)             // regular read cycle
 246:Z80_IO_Handle.c ****             {
 247:Z80_IO_Handle.c ****                 PioReadDataA();
 248:Z80_IO_Handle.c ****                 return;
 249:Z80_IO_Handle.c ****             }
 250:Z80_IO_Handle.c ****             else if (ioCrtlRegVal == REGULAR_WRITE_CYCLE)      // regular write cycle
 251:Z80_IO_Handle.c ****             {
 252:Z80_IO_Handle.c ****                 PioWriteDataA();
 253:Z80_IO_Handle.c ****                 return;
 254:Z80_IO_Handle.c ****             }
 255:Z80_IO_Handle.c ****             break;
 256:Z80_IO_Handle.c ****         case PIOA_C:    // Control register
 257:Z80_IO_Handle.c ****             if (ioCrtlRegVal == REGULAR_WRITE_CYCLE)      // regular write cycle
 258:Z80_IO_Handle.c ****             {
 259:Z80_IO_Handle.c ****                 PioWriteCtrlA();
 260:Z80_IO_Handle.c ****                 return;
 261:Z80_IO_Handle.c ****             }
 262:Z80_IO_Handle.c ****             break;
 263:Z80_IO_Handle.c ****         case PIOB_D:
 264:Z80_IO_Handle.c ****             if (ioCrtlRegVal == REGULAR_READ_CYCLE)            // regular read cycle
 265:Z80_IO_Handle.c ****             {
 266:Z80_IO_Handle.c ****                 PioReadDataB();
 267:Z80_IO_Handle.c ****                 return;
 268:Z80_IO_Handle.c ****             }
 269:Z80_IO_Handle.c ****             else if (ioCrtlRegVal == REGULAR_WRITE_CYCLE)      // regular write cycle
 270:Z80_IO_Handle.c ****             {
 271:Z80_IO_Handle.c ****                 SioWriteDataB();
 272:Z80_IO_Handle.c ****                 return;
ARM GAS  C:\Users\HPz420\AppData\Local\Temp\ccmm230D.s 			page 13


 273:Z80_IO_Handle.c ****             }
 274:Z80_IO_Handle.c ****             break;
 275:Z80_IO_Handle.c ****         case PIOB_C:
 276:Z80_IO_Handle.c ****             if (ioCrtlRegVal == REGULAR_WRITE_CYCLE)      // regular write cycle
 277:Z80_IO_Handle.c ****             {
 278:Z80_IO_Handle.c ****                 PioWriteCtrlB();
 279:Z80_IO_Handle.c ****                 return;
 280:Z80_IO_Handle.c ****             }
 281:Z80_IO_Handle.c ****             break;
 282:Z80_IO_Handle.c **** #endif
 283:Z80_IO_Handle.c ****         default:    // Handle other cases
 284:Z80_IO_Handle.c ****             break;
 285:Z80_IO_Handle.c ****     }
 286:Z80_IO_Handle.c **** }
 413              		.loc 1 286 0
 414 026c 03B0     		add	sp, sp, #12
 415              		.cfi_def_cfa_offset 4
 416              		@ sp needed
 417 026e 5DF804FB 		ldr	pc, [sp], #4
 418              		.cfi_endproc
 419              	.LFE63:
 420              		.size	HandleZ80IO, .-HandleZ80IO
 421 0272 00BF     		.section	.text.ackIO,"ax",%progbits
 422              		.align	2
 423              		.global	ackIO
 424              		.thumb
 425              		.thumb_func
 426              		.type	ackIO, %function
 427              	ackIO:
 428              	.LFB64:
 287:Z80_IO_Handle.c **** 
 288:Z80_IO_Handle.c **** void ackIO(void)
 289:Z80_IO_Handle.c **** {
 429              		.loc 1 289 0
 430              		.cfi_startproc
 431              		@ args = 0, pretend = 0, frame = 0
 432              		@ frame_needed = 0, uses_anonymous_args = 0
 433 0000 08B5     		push	{r3, lr}
 434              		.cfi_def_cfa_offset 8
 435              		.cfi_offset 3, -8
 436              		.cfi_offset 14, -4
 290:Z80_IO_Handle.c ****     IO_Ctrl_Reg_Write(IO_Ctrl_Reg_Read() | CLR_IO_INT_BIT);
 437              		.loc 1 290 0
 438 0002 FFF7FEFF 		bl	IO_Ctrl_Reg_Read
 439              	.LVL33:
 440 0006 40F00100 		orr	r0, r0, #1
 441 000a C0B2     		uxtb	r0, r0
 442 000c FFF7FEFF 		bl	IO_Ctrl_Reg_Write
 443              	.LVL34:
 444 0010 08BD     		pop	{r3, pc}
 445              		.cfi_endproc
 446              	.LFE64:
 447              		.size	ackIO, .-ackIO
 448 0012 00BF     		.section	.text.waitNextIORq,"ax",%progbits
 449              		.align	2
 450              		.global	waitNextIORq
 451              		.thumb
ARM GAS  C:\Users\HPz420\AppData\Local\Temp\ccmm230D.s 			page 14


 452              		.thumb_func
 453              		.type	waitNextIORq, %function
 454              	waitNextIORq:
 455              	.LFB65:
 291:Z80_IO_Handle.c **** }
 292:Z80_IO_Handle.c **** 
 293:Z80_IO_Handle.c **** void waitNextIORq(void)
 294:Z80_IO_Handle.c **** {
 456              		.loc 1 294 0
 457              		.cfi_startproc
 458              		@ args = 0, pretend = 0, frame = 0
 459              		@ frame_needed = 0, uses_anonymous_args = 0
 460 0000 08B5     		push	{r3, lr}
 461              		.cfi_def_cfa_offset 8
 462              		.cfi_offset 3, -8
 463              		.cfi_offset 14, -4
 464              	.L39:
 295:Z80_IO_Handle.c ****     while ((IO_Stat_Reg_Read() & IOBUSY_BIT) == 0x00);
 465              		.loc 1 295 0 discriminator 1
 466 0002 FFF7FEFF 		bl	IO_Stat_Reg_Read
 467              	.LVL35:
 468 0006 10F0100F 		tst	r0, #16
 469 000a FAD0     		beq	.L39
 296:Z80_IO_Handle.c **** }
 470              		.loc 1 296 0
 471 000c 08BD     		pop	{r3, pc}
 472              		.cfi_endproc
 473              	.LFE65:
 474              		.size	waitNextIORq, .-waitNextIORq
 475 000e 00BF     		.text
 476              	.Letext0:
 477              		.file 2 "c:\\program files (x86)\\cypress\\psoc creator\\4.2\\psoc creator\\import\\gnu\\arm\\5.4.
 478              		.file 3 "c:\\program files (x86)\\cypress\\psoc creator\\4.2\\psoc creator\\import\\gnu\\arm\\5.4.
 479              		.file 4 "Generated_Source\\PSoC5/cytypes.h"
 480              		.file 5 "Generated_Source\\PSoC5/IO_Stat_Reg.h"
 481              		.file 6 "Z80_SIO_emul.h"
 482              		.file 7 "Generated_Source\\PSoC5/AdrLowIn.h"
 483              		.file 8 "Z80_CFCard_Emul.h"
 484              		.file 9 "FrontPanel.h"
 485              		.file 10 "Generated_Source\\PSoC5/IO_Ctrl_Reg.h"
 486              		.file 11 "Generated_Source\\PSoC5/core_cm3.h"