ARM GAS  C:\Users\HPz420\AppData\Local\Temp\cchCdHFa.s 			page 1


   1              		.syntax unified
   2              		.cpu cortex-m3
   3              		.fpu softvfp
   4              		.eabi_attribute 20, 1
   5              		.eabi_attribute 21, 1
   6              		.eabi_attribute 23, 3
   7              		.eabi_attribute 24, 1
   8              		.eabi_attribute 25, 1
   9              		.eabi_attribute 26, 1
  10              		.eabi_attribute 30, 6
  11              		.eabi_attribute 34, 1
  12              		.eabi_attribute 18, 4
  13              		.thumb
  14              		.syntax unified
  15              		.file	"Clock_1.c"
  16              		.text
  17              	.Ltext0:
  18              		.cfi_sections	.debug_frame
  19              		.section	.text.Clock_1_Start,"ax",%progbits
  20              		.align	2
  21              		.global	Clock_1_Start
  22              		.thumb
  23              		.thumb_func
  24              		.type	Clock_1_Start, %function
  25              	Clock_1_Start:
  26              	.LFB0:
  27              		.file 1 "Generated_Source\\PSoC5\\Clock_1.c"
   1:Generated_Source\PSoC5/Clock_1.c **** /*******************************************************************************
   2:Generated_Source\PSoC5/Clock_1.c **** * File Name: Clock_1.c
   3:Generated_Source\PSoC5/Clock_1.c **** * Version 2.20
   4:Generated_Source\PSoC5/Clock_1.c **** *
   5:Generated_Source\PSoC5/Clock_1.c **** *  Description:
   6:Generated_Source\PSoC5/Clock_1.c **** *   This file provides the source code to the API for the clock component.
   7:Generated_Source\PSoC5/Clock_1.c **** *
   8:Generated_Source\PSoC5/Clock_1.c **** *  Note:
   9:Generated_Source\PSoC5/Clock_1.c **** *
  10:Generated_Source\PSoC5/Clock_1.c **** ********************************************************************************
  11:Generated_Source\PSoC5/Clock_1.c **** * Copyright 2008-2012, Cypress Semiconductor Corporation.  All rights reserved.
  12:Generated_Source\PSoC5/Clock_1.c **** * You may use this file only in accordance with the license, terms, conditions, 
  13:Generated_Source\PSoC5/Clock_1.c **** * disclaimers, and limitations in the end user license agreement accompanying 
  14:Generated_Source\PSoC5/Clock_1.c **** * the software package with which this file was provided.
  15:Generated_Source\PSoC5/Clock_1.c **** *******************************************************************************/
  16:Generated_Source\PSoC5/Clock_1.c **** 
  17:Generated_Source\PSoC5/Clock_1.c **** #include <cydevice_trm.h>
  18:Generated_Source\PSoC5/Clock_1.c **** #include "Clock_1.h"
  19:Generated_Source\PSoC5/Clock_1.c **** 
  20:Generated_Source\PSoC5/Clock_1.c **** /* Clock Distribution registers. */
  21:Generated_Source\PSoC5/Clock_1.c **** #define CLK_DIST_LD              (* (reg8 *) CYREG_CLKDIST_LD)
  22:Generated_Source\PSoC5/Clock_1.c **** #define CLK_DIST_BCFG2           (* (reg8 *) CYREG_CLKDIST_BCFG2)
  23:Generated_Source\PSoC5/Clock_1.c **** #define BCFG2_MASK               (0x80u)
  24:Generated_Source\PSoC5/Clock_1.c **** #define CLK_DIST_DMASK           (* (reg8 *) CYREG_CLKDIST_DMASK)
  25:Generated_Source\PSoC5/Clock_1.c **** #define CLK_DIST_AMASK           (* (reg8 *) CYREG_CLKDIST_AMASK)
  26:Generated_Source\PSoC5/Clock_1.c **** 
  27:Generated_Source\PSoC5/Clock_1.c **** #define HAS_CLKDIST_LD_DISABLE   (CY_PSOC3 || CY_PSOC5LP)
  28:Generated_Source\PSoC5/Clock_1.c **** 
  29:Generated_Source\PSoC5/Clock_1.c **** 
  30:Generated_Source\PSoC5/Clock_1.c **** /*******************************************************************************
ARM GAS  C:\Users\HPz420\AppData\Local\Temp\cchCdHFa.s 			page 2


  31:Generated_Source\PSoC5/Clock_1.c **** * Function Name: Clock_1_Start
  32:Generated_Source\PSoC5/Clock_1.c **** ********************************************************************************
  33:Generated_Source\PSoC5/Clock_1.c **** *
  34:Generated_Source\PSoC5/Clock_1.c **** * Summary:
  35:Generated_Source\PSoC5/Clock_1.c **** *  Starts the clock. Note that on startup, clocks may be already running if the
  36:Generated_Source\PSoC5/Clock_1.c **** *  "Start on Reset" option is enabled in the DWR.
  37:Generated_Source\PSoC5/Clock_1.c **** *
  38:Generated_Source\PSoC5/Clock_1.c **** * Parameters:
  39:Generated_Source\PSoC5/Clock_1.c **** *  None
  40:Generated_Source\PSoC5/Clock_1.c **** *
  41:Generated_Source\PSoC5/Clock_1.c **** * Returns:
  42:Generated_Source\PSoC5/Clock_1.c **** *  None
  43:Generated_Source\PSoC5/Clock_1.c **** *
  44:Generated_Source\PSoC5/Clock_1.c **** *******************************************************************************/
  45:Generated_Source\PSoC5/Clock_1.c **** void Clock_1_Start(void) 
  46:Generated_Source\PSoC5/Clock_1.c **** {
  28              		.loc 1 46 0
  29              		.cfi_startproc
  30              		@ args = 0, pretend = 0, frame = 0
  31              		@ frame_needed = 1, uses_anonymous_args = 0
  32              		@ link register save eliminated.
  33 0000 80B4     		push	{r7}
  34              		.cfi_def_cfa_offset 4
  35              		.cfi_offset 7, -4
  36 0002 00AF     		add	r7, sp, #0
  37              		.cfi_def_cfa_register 7
  47:Generated_Source\PSoC5/Clock_1.c ****     /* Set the bit to enable the clock. */
  48:Generated_Source\PSoC5/Clock_1.c ****     Clock_1_CLKEN |= Clock_1_CLKEN_MASK;
  38              		.loc 1 48 0
  39 0004 094A     		ldr	r2, .L2
  40 0006 094B     		ldr	r3, .L2
  41 0008 1B78     		ldrb	r3, [r3]
  42 000a DBB2     		uxtb	r3, r3
  43 000c 43F00203 		orr	r3, r3, #2
  44 0010 DBB2     		uxtb	r3, r3
  45 0012 1370     		strb	r3, [r2]
  49:Generated_Source\PSoC5/Clock_1.c **** 	Clock_1_CLKSTBY |= Clock_1_CLKSTBY_MASK;
  46              		.loc 1 49 0
  47 0014 064A     		ldr	r2, .L2+4
  48 0016 064B     		ldr	r3, .L2+4
  49 0018 1B78     		ldrb	r3, [r3]
  50 001a DBB2     		uxtb	r3, r3
  51 001c 43F00203 		orr	r3, r3, #2
  52 0020 DBB2     		uxtb	r3, r3
  53 0022 1370     		strb	r3, [r2]
  50:Generated_Source\PSoC5/Clock_1.c **** }
  54              		.loc 1 50 0
  55 0024 00BF     		nop
  56 0026 BD46     		mov	sp, r7
  57              		.cfi_def_cfa_register 13
  58              		@ sp needed
  59 0028 80BC     		pop	{r7}
  60              		.cfi_restore 7
  61              		.cfi_def_cfa_offset 0
  62 002a 7047     		bx	lr
  63              	.L3:
  64              		.align	2
ARM GAS  C:\Users\HPz420\AppData\Local\Temp\cchCdHFa.s 			page 3


  65              	.L2:
  66 002c A2430040 		.word	1073759138
  67 0030 B2430040 		.word	1073759154
  68              		.cfi_endproc
  69              	.LFE0:
  70              		.size	Clock_1_Start, .-Clock_1_Start
  71              		.section	.text.Clock_1_Stop,"ax",%progbits
  72              		.align	2
  73              		.global	Clock_1_Stop
  74              		.thumb
  75              		.thumb_func
  76              		.type	Clock_1_Stop, %function
  77              	Clock_1_Stop:
  78              	.LFB1:
  51:Generated_Source\PSoC5/Clock_1.c **** 
  52:Generated_Source\PSoC5/Clock_1.c **** 
  53:Generated_Source\PSoC5/Clock_1.c **** /*******************************************************************************
  54:Generated_Source\PSoC5/Clock_1.c **** * Function Name: Clock_1_Stop
  55:Generated_Source\PSoC5/Clock_1.c **** ********************************************************************************
  56:Generated_Source\PSoC5/Clock_1.c **** *
  57:Generated_Source\PSoC5/Clock_1.c **** * Summary:
  58:Generated_Source\PSoC5/Clock_1.c **** *  Stops the clock and returns immediately. This API does not require the
  59:Generated_Source\PSoC5/Clock_1.c **** *  source clock to be running but may return before the hardware is actually
  60:Generated_Source\PSoC5/Clock_1.c **** *  disabled. If the settings of the clock are changed after calling this
  61:Generated_Source\PSoC5/Clock_1.c **** *  function, the clock may glitch when it is started. To avoid the clock
  62:Generated_Source\PSoC5/Clock_1.c **** *  glitch, use the StopBlock function.
  63:Generated_Source\PSoC5/Clock_1.c **** *
  64:Generated_Source\PSoC5/Clock_1.c **** * Parameters:
  65:Generated_Source\PSoC5/Clock_1.c **** *  None
  66:Generated_Source\PSoC5/Clock_1.c **** *
  67:Generated_Source\PSoC5/Clock_1.c **** * Returns:
  68:Generated_Source\PSoC5/Clock_1.c **** *  None
  69:Generated_Source\PSoC5/Clock_1.c **** *
  70:Generated_Source\PSoC5/Clock_1.c **** *******************************************************************************/
  71:Generated_Source\PSoC5/Clock_1.c **** void Clock_1_Stop(void) 
  72:Generated_Source\PSoC5/Clock_1.c **** {
  79              		.loc 1 72 0
  80              		.cfi_startproc
  81              		@ args = 0, pretend = 0, frame = 0
  82              		@ frame_needed = 1, uses_anonymous_args = 0
  83              		@ link register save eliminated.
  84 0000 80B4     		push	{r7}
  85              		.cfi_def_cfa_offset 4
  86              		.cfi_offset 7, -4
  87 0002 00AF     		add	r7, sp, #0
  88              		.cfi_def_cfa_register 7
  73:Generated_Source\PSoC5/Clock_1.c ****     /* Clear the bit to disable the clock. */
  74:Generated_Source\PSoC5/Clock_1.c ****     Clock_1_CLKEN &= (uint8)(~Clock_1_CLKEN_MASK);
  89              		.loc 1 74 0
  90 0004 094A     		ldr	r2, .L5
  91 0006 094B     		ldr	r3, .L5
  92 0008 1B78     		ldrb	r3, [r3]
  93 000a DBB2     		uxtb	r3, r3
  94 000c 23F00203 		bic	r3, r3, #2
  95 0010 DBB2     		uxtb	r3, r3
  96 0012 1370     		strb	r3, [r2]
  75:Generated_Source\PSoC5/Clock_1.c **** 	Clock_1_CLKSTBY &= (uint8)(~Clock_1_CLKSTBY_MASK);
ARM GAS  C:\Users\HPz420\AppData\Local\Temp\cchCdHFa.s 			page 4


  97              		.loc 1 75 0
  98 0014 064A     		ldr	r2, .L5+4
  99 0016 064B     		ldr	r3, .L5+4
 100 0018 1B78     		ldrb	r3, [r3]
 101 001a DBB2     		uxtb	r3, r3
 102 001c 23F00203 		bic	r3, r3, #2
 103 0020 DBB2     		uxtb	r3, r3
 104 0022 1370     		strb	r3, [r2]
  76:Generated_Source\PSoC5/Clock_1.c **** }
 105              		.loc 1 76 0
 106 0024 00BF     		nop
 107 0026 BD46     		mov	sp, r7
 108              		.cfi_def_cfa_register 13
 109              		@ sp needed
 110 0028 80BC     		pop	{r7}
 111              		.cfi_restore 7
 112              		.cfi_def_cfa_offset 0
 113 002a 7047     		bx	lr
 114              	.L6:
 115              		.align	2
 116              	.L5:
 117 002c A2430040 		.word	1073759138
 118 0030 B2430040 		.word	1073759154
 119              		.cfi_endproc
 120              	.LFE1:
 121              		.size	Clock_1_Stop, .-Clock_1_Stop
 122              		.section	.text.Clock_1_StopBlock,"ax",%progbits
 123              		.align	2
 124              		.global	Clock_1_StopBlock
 125              		.thumb
 126              		.thumb_func
 127              		.type	Clock_1_StopBlock, %function
 128              	Clock_1_StopBlock:
 129              	.LFB2:
  77:Generated_Source\PSoC5/Clock_1.c **** 
  78:Generated_Source\PSoC5/Clock_1.c **** 
  79:Generated_Source\PSoC5/Clock_1.c **** #if(CY_PSOC3 || CY_PSOC5LP)
  80:Generated_Source\PSoC5/Clock_1.c **** 
  81:Generated_Source\PSoC5/Clock_1.c **** 
  82:Generated_Source\PSoC5/Clock_1.c **** /*******************************************************************************
  83:Generated_Source\PSoC5/Clock_1.c **** * Function Name: Clock_1_StopBlock
  84:Generated_Source\PSoC5/Clock_1.c **** ********************************************************************************
  85:Generated_Source\PSoC5/Clock_1.c **** *
  86:Generated_Source\PSoC5/Clock_1.c **** * Summary:
  87:Generated_Source\PSoC5/Clock_1.c **** *  Stops the clock and waits for the hardware to actually be disabled before
  88:Generated_Source\PSoC5/Clock_1.c **** *  returning. This ensures that the clock is never truncated (high part of the
  89:Generated_Source\PSoC5/Clock_1.c **** *  cycle will terminate before the clock is disabled and the API returns).
  90:Generated_Source\PSoC5/Clock_1.c **** *  Note that the source clock must be running or this API will never return as
  91:Generated_Source\PSoC5/Clock_1.c **** *  a stopped clock cannot be disabled.
  92:Generated_Source\PSoC5/Clock_1.c **** *
  93:Generated_Source\PSoC5/Clock_1.c **** * Parameters:
  94:Generated_Source\PSoC5/Clock_1.c **** *  None
  95:Generated_Source\PSoC5/Clock_1.c **** *
  96:Generated_Source\PSoC5/Clock_1.c **** * Returns:
  97:Generated_Source\PSoC5/Clock_1.c **** *  None
  98:Generated_Source\PSoC5/Clock_1.c **** *
  99:Generated_Source\PSoC5/Clock_1.c **** *******************************************************************************/
ARM GAS  C:\Users\HPz420\AppData\Local\Temp\cchCdHFa.s 			page 5


 100:Generated_Source\PSoC5/Clock_1.c **** void Clock_1_StopBlock(void) 
 101:Generated_Source\PSoC5/Clock_1.c **** {
 130              		.loc 1 101 0
 131              		.cfi_startproc
 132              		@ args = 0, pretend = 0, frame = 8
 133              		@ frame_needed = 1, uses_anonymous_args = 0
 134              		@ link register save eliminated.
 135 0000 80B4     		push	{r7}
 136              		.cfi_def_cfa_offset 4
 137              		.cfi_offset 7, -4
 138 0002 83B0     		sub	sp, sp, #12
 139              		.cfi_def_cfa_offset 16
 140 0004 00AF     		add	r7, sp, #0
 141              		.cfi_def_cfa_register 7
 102:Generated_Source\PSoC5/Clock_1.c ****     if ((Clock_1_CLKEN & Clock_1_CLKEN_MASK) != 0u)
 142              		.loc 1 102 0
 143 0006 224B     		ldr	r3, .L11
 144 0008 1B78     		ldrb	r3, [r3]
 145 000a DBB2     		uxtb	r3, r3
 146 000c 03F00203 		and	r3, r3, #2
 147 0010 002B     		cmp	r3, #0
 148 0012 37D0     		beq	.L10
 149              	.LBB2:
 103:Generated_Source\PSoC5/Clock_1.c ****     {
 104:Generated_Source\PSoC5/Clock_1.c **** #if HAS_CLKDIST_LD_DISABLE
 105:Generated_Source\PSoC5/Clock_1.c ****         uint16 oldDivider;
 106:Generated_Source\PSoC5/Clock_1.c **** 
 107:Generated_Source\PSoC5/Clock_1.c ****         CLK_DIST_LD = 0u;
 150              		.loc 1 107 0
 151 0014 1F4B     		ldr	r3, .L11+4
 152 0016 0022     		movs	r2, #0
 153 0018 1A70     		strb	r2, [r3]
 108:Generated_Source\PSoC5/Clock_1.c **** 
 109:Generated_Source\PSoC5/Clock_1.c ****         /* Clear all the mask bits except ours. */
 110:Generated_Source\PSoC5/Clock_1.c **** #if defined(Clock_1__CFG3)
 111:Generated_Source\PSoC5/Clock_1.c ****         CLK_DIST_AMASK = Clock_1_CLKEN_MASK;
 112:Generated_Source\PSoC5/Clock_1.c ****         CLK_DIST_DMASK = 0x00u;
 113:Generated_Source\PSoC5/Clock_1.c **** #else
 114:Generated_Source\PSoC5/Clock_1.c ****         CLK_DIST_DMASK = Clock_1_CLKEN_MASK;
 154              		.loc 1 114 0
 155 001a 1F4B     		ldr	r3, .L11+8
 156 001c 0222     		movs	r2, #2
 157 001e 1A70     		strb	r2, [r3]
 115:Generated_Source\PSoC5/Clock_1.c ****         CLK_DIST_AMASK = 0x00u;
 158              		.loc 1 115 0
 159 0020 1E4B     		ldr	r3, .L11+12
 160 0022 0022     		movs	r2, #0
 161 0024 1A70     		strb	r2, [r3]
 116:Generated_Source\PSoC5/Clock_1.c **** #endif /* Clock_1__CFG3 */
 117:Generated_Source\PSoC5/Clock_1.c **** 
 118:Generated_Source\PSoC5/Clock_1.c ****         /* Clear mask of bus clock. */
 119:Generated_Source\PSoC5/Clock_1.c ****         CLK_DIST_BCFG2 &= (uint8)(~BCFG2_MASK);
 162              		.loc 1 119 0
 163 0026 1E4A     		ldr	r2, .L11+16
 164 0028 1D4B     		ldr	r3, .L11+16
 165 002a 1B78     		ldrb	r3, [r3]
 166 002c DBB2     		uxtb	r3, r3
ARM GAS  C:\Users\HPz420\AppData\Local\Temp\cchCdHFa.s 			page 6


 167 002e 03F07F03 		and	r3, r3, #127
 168 0032 DBB2     		uxtb	r3, r3
 169 0034 1370     		strb	r3, [r2]
 120:Generated_Source\PSoC5/Clock_1.c **** 
 121:Generated_Source\PSoC5/Clock_1.c ****         oldDivider = CY_GET_REG16(Clock_1_DIV_PTR);
 170              		.loc 1 121 0
 171 0036 1B4B     		ldr	r3, .L11+20
 172 0038 1B88     		ldrh	r3, [r3]	@ movhi
 173 003a FB80     		strh	r3, [r7, #6]	@ movhi
 122:Generated_Source\PSoC5/Clock_1.c ****         CY_SET_REG16(CYREG_CLKDIST_WRK0, oldDivider);
 174              		.loc 1 122 0
 175 003c 1A4A     		ldr	r2, .L11+24
 176 003e FB88     		ldrh	r3, [r7, #6]	@ movhi
 177 0040 1380     		strh	r3, [r2]	@ movhi
 123:Generated_Source\PSoC5/Clock_1.c ****         CLK_DIST_LD = CYCLK_LD_DISABLE | CYCLK_LD_SYNC_EN | CYCLK_LD_LOAD;
 178              		.loc 1 123 0
 179 0042 144B     		ldr	r3, .L11+4
 180 0044 0722     		movs	r2, #7
 181 0046 1A70     		strb	r2, [r3]
 124:Generated_Source\PSoC5/Clock_1.c **** 
 125:Generated_Source\PSoC5/Clock_1.c ****         /* Wait for clock to be disabled */
 126:Generated_Source\PSoC5/Clock_1.c ****         while ((CLK_DIST_LD & CYCLK_LD_LOAD) != 0u) { }
 182              		.loc 1 126 0
 183 0048 00BF     		nop
 184              	.L9:
 185              		.loc 1 126 0 is_stmt 0 discriminator 1
 186 004a 124B     		ldr	r3, .L11+4
 187 004c 1B78     		ldrb	r3, [r3]
 188 004e DBB2     		uxtb	r3, r3
 189 0050 03F00103 		and	r3, r3, #1
 190 0054 002B     		cmp	r3, #0
 191 0056 F8D1     		bne	.L9
 127:Generated_Source\PSoC5/Clock_1.c **** #endif /* HAS_CLKDIST_LD_DISABLE */
 128:Generated_Source\PSoC5/Clock_1.c **** 
 129:Generated_Source\PSoC5/Clock_1.c ****         /* Clear the bit to disable the clock. */
 130:Generated_Source\PSoC5/Clock_1.c ****         Clock_1_CLKEN &= (uint8)(~Clock_1_CLKEN_MASK);
 192              		.loc 1 130 0 is_stmt 1
 193 0058 0D4A     		ldr	r2, .L11
 194 005a 0D4B     		ldr	r3, .L11
 195 005c 1B78     		ldrb	r3, [r3]
 196 005e DBB2     		uxtb	r3, r3
 197 0060 23F00203 		bic	r3, r3, #2
 198 0064 DBB2     		uxtb	r3, r3
 199 0066 1370     		strb	r3, [r2]
 131:Generated_Source\PSoC5/Clock_1.c ****         Clock_1_CLKSTBY &= (uint8)(~Clock_1_CLKSTBY_MASK);
 200              		.loc 1 131 0
 201 0068 104A     		ldr	r2, .L11+28
 202 006a 104B     		ldr	r3, .L11+28
 203 006c 1B78     		ldrb	r3, [r3]
 204 006e DBB2     		uxtb	r3, r3
 205 0070 23F00203 		bic	r3, r3, #2
 206 0074 DBB2     		uxtb	r3, r3
 207 0076 1370     		strb	r3, [r2]
 132:Generated_Source\PSoC5/Clock_1.c **** 
 133:Generated_Source\PSoC5/Clock_1.c **** #if HAS_CLKDIST_LD_DISABLE
 134:Generated_Source\PSoC5/Clock_1.c ****         /* Clear the disable bit */
 135:Generated_Source\PSoC5/Clock_1.c ****         CLK_DIST_LD = 0x00u;
ARM GAS  C:\Users\HPz420\AppData\Local\Temp\cchCdHFa.s 			page 7


 208              		.loc 1 135 0
 209 0078 064B     		ldr	r3, .L11+4
 210 007a 0022     		movs	r2, #0
 211 007c 1A70     		strb	r2, [r3]
 136:Generated_Source\PSoC5/Clock_1.c ****         CY_SET_REG16(Clock_1_DIV_PTR, oldDivider);
 212              		.loc 1 136 0
 213 007e 094A     		ldr	r2, .L11+20
 214 0080 FB88     		ldrh	r3, [r7, #6]	@ movhi
 215 0082 1380     		strh	r3, [r2]	@ movhi
 216              	.L10:
 217              	.LBE2:
 137:Generated_Source\PSoC5/Clock_1.c **** #endif /* HAS_CLKDIST_LD_DISABLE */
 138:Generated_Source\PSoC5/Clock_1.c ****     }
 139:Generated_Source\PSoC5/Clock_1.c **** }
 218              		.loc 1 139 0
 219 0084 00BF     		nop
 220 0086 0C37     		adds	r7, r7, #12
 221              		.cfi_def_cfa_offset 4
 222 0088 BD46     		mov	sp, r7
 223              		.cfi_def_cfa_register 13
 224              		@ sp needed
 225 008a 80BC     		pop	{r7}
 226              		.cfi_restore 7
 227              		.cfi_def_cfa_offset 0
 228 008c 7047     		bx	lr
 229              	.L12:
 230 008e 00BF     		.align	2
 231              	.L11:
 232 0090 A2430040 		.word	1073759138
 233 0094 01400040 		.word	1073758209
 234 0098 10400040 		.word	1073758224
 235 009c 14400040 		.word	1073758228
 236 00a0 08400040 		.word	1073758216
 237 00a4 84400040 		.word	1073758340
 238 00a8 02400040 		.word	1073758210
 239 00ac B2430040 		.word	1073759154
 240              		.cfi_endproc
 241              	.LFE2:
 242              		.size	Clock_1_StopBlock, .-Clock_1_StopBlock
 243              		.section	.text.Clock_1_StandbyPower,"ax",%progbits
 244              		.align	2
 245              		.global	Clock_1_StandbyPower
 246              		.thumb
 247              		.thumb_func
 248              		.type	Clock_1_StandbyPower, %function
 249              	Clock_1_StandbyPower:
 250              	.LFB3:
 140:Generated_Source\PSoC5/Clock_1.c **** #endif /* (CY_PSOC3 || CY_PSOC5LP) */
 141:Generated_Source\PSoC5/Clock_1.c **** 
 142:Generated_Source\PSoC5/Clock_1.c **** 
 143:Generated_Source\PSoC5/Clock_1.c **** /*******************************************************************************
 144:Generated_Source\PSoC5/Clock_1.c **** * Function Name: Clock_1_StandbyPower
 145:Generated_Source\PSoC5/Clock_1.c **** ********************************************************************************
 146:Generated_Source\PSoC5/Clock_1.c **** *
 147:Generated_Source\PSoC5/Clock_1.c **** * Summary:
 148:Generated_Source\PSoC5/Clock_1.c **** *  Sets whether the clock is active in standby mode.
 149:Generated_Source\PSoC5/Clock_1.c **** *
ARM GAS  C:\Users\HPz420\AppData\Local\Temp\cchCdHFa.s 			page 8


 150:Generated_Source\PSoC5/Clock_1.c **** * Parameters:
 151:Generated_Source\PSoC5/Clock_1.c **** *  state:  0 to disable clock during standby, nonzero to enable.
 152:Generated_Source\PSoC5/Clock_1.c **** *
 153:Generated_Source\PSoC5/Clock_1.c **** * Returns:
 154:Generated_Source\PSoC5/Clock_1.c **** *  None
 155:Generated_Source\PSoC5/Clock_1.c **** *
 156:Generated_Source\PSoC5/Clock_1.c **** *******************************************************************************/
 157:Generated_Source\PSoC5/Clock_1.c **** void Clock_1_StandbyPower(uint8 state) 
 158:Generated_Source\PSoC5/Clock_1.c **** {
 251              		.loc 1 158 0
 252              		.cfi_startproc
 253              		@ args = 0, pretend = 0, frame = 8
 254              		@ frame_needed = 1, uses_anonymous_args = 0
 255              		@ link register save eliminated.
 256 0000 80B4     		push	{r7}
 257              		.cfi_def_cfa_offset 4
 258              		.cfi_offset 7, -4
 259 0002 83B0     		sub	sp, sp, #12
 260              		.cfi_def_cfa_offset 16
 261 0004 00AF     		add	r7, sp, #0
 262              		.cfi_def_cfa_register 7
 263 0006 0346     		mov	r3, r0
 264 0008 FB71     		strb	r3, [r7, #7]
 159:Generated_Source\PSoC5/Clock_1.c ****     if(state == 0u)
 265              		.loc 1 159 0
 266 000a FB79     		ldrb	r3, [r7, #7]	@ zero_extendqisi2
 267 000c 002B     		cmp	r3, #0
 268 000e 08D1     		bne	.L14
 160:Generated_Source\PSoC5/Clock_1.c ****     {
 161:Generated_Source\PSoC5/Clock_1.c ****         Clock_1_CLKSTBY &= (uint8)(~Clock_1_CLKSTBY_MASK);
 269              		.loc 1 161 0
 270 0010 0A4A     		ldr	r2, .L17
 271 0012 0A4B     		ldr	r3, .L17
 272 0014 1B78     		ldrb	r3, [r3]
 273 0016 DBB2     		uxtb	r3, r3
 274 0018 23F00203 		bic	r3, r3, #2
 275 001c DBB2     		uxtb	r3, r3
 276 001e 1370     		strb	r3, [r2]
 162:Generated_Source\PSoC5/Clock_1.c ****     }
 163:Generated_Source\PSoC5/Clock_1.c ****     else
 164:Generated_Source\PSoC5/Clock_1.c ****     {
 165:Generated_Source\PSoC5/Clock_1.c ****         Clock_1_CLKSTBY |= Clock_1_CLKSTBY_MASK;
 166:Generated_Source\PSoC5/Clock_1.c ****     }
 167:Generated_Source\PSoC5/Clock_1.c **** }
 277              		.loc 1 167 0
 278 0020 07E0     		b	.L16
 279              	.L14:
 165:Generated_Source\PSoC5/Clock_1.c ****     }
 280              		.loc 1 165 0
 281 0022 064A     		ldr	r2, .L17
 282 0024 054B     		ldr	r3, .L17
 283 0026 1B78     		ldrb	r3, [r3]
 284 0028 DBB2     		uxtb	r3, r3
 285 002a 43F00203 		orr	r3, r3, #2
 286 002e DBB2     		uxtb	r3, r3
 287 0030 1370     		strb	r3, [r2]
 288              	.L16:
ARM GAS  C:\Users\HPz420\AppData\Local\Temp\cchCdHFa.s 			page 9


 289              		.loc 1 167 0
 290 0032 00BF     		nop
 291 0034 0C37     		adds	r7, r7, #12
 292              		.cfi_def_cfa_offset 4
 293 0036 BD46     		mov	sp, r7
 294              		.cfi_def_cfa_register 13
 295              		@ sp needed
 296 0038 80BC     		pop	{r7}
 297              		.cfi_restore 7
 298              		.cfi_def_cfa_offset 0
 299 003a 7047     		bx	lr
 300              	.L18:
 301              		.align	2
 302              	.L17:
 303 003c B2430040 		.word	1073759154
 304              		.cfi_endproc
 305              	.LFE3:
 306              		.size	Clock_1_StandbyPower, .-Clock_1_StandbyPower
 307              		.section	.text.Clock_1_SetDividerRegister,"ax",%progbits
 308              		.align	2
 309              		.global	Clock_1_SetDividerRegister
 310              		.thumb
 311              		.thumb_func
 312              		.type	Clock_1_SetDividerRegister, %function
 313              	Clock_1_SetDividerRegister:
 314              	.LFB4:
 168:Generated_Source\PSoC5/Clock_1.c **** 
 169:Generated_Source\PSoC5/Clock_1.c **** 
 170:Generated_Source\PSoC5/Clock_1.c **** /*******************************************************************************
 171:Generated_Source\PSoC5/Clock_1.c **** * Function Name: Clock_1_SetDividerRegister
 172:Generated_Source\PSoC5/Clock_1.c **** ********************************************************************************
 173:Generated_Source\PSoC5/Clock_1.c **** *
 174:Generated_Source\PSoC5/Clock_1.c **** * Summary:
 175:Generated_Source\PSoC5/Clock_1.c **** *  Modifies the clock divider and, thus, the frequency. When the clock divider
 176:Generated_Source\PSoC5/Clock_1.c **** *  register is set to zero or changed from zero, the clock will be temporarily
 177:Generated_Source\PSoC5/Clock_1.c **** *  disabled in order to change the SSS mode bit. If the clock is enabled when
 178:Generated_Source\PSoC5/Clock_1.c **** *  SetDividerRegister is called, then the source clock must be running.
 179:Generated_Source\PSoC5/Clock_1.c **** *
 180:Generated_Source\PSoC5/Clock_1.c **** * Parameters:
 181:Generated_Source\PSoC5/Clock_1.c **** *  clkDivider:  Divider register value (0-65,535). This value is NOT the
 182:Generated_Source\PSoC5/Clock_1.c **** *    divider; the clock hardware divides by clkDivider plus one. For example,
 183:Generated_Source\PSoC5/Clock_1.c **** *    to divide the clock by 2, this parameter should be set to 1.
 184:Generated_Source\PSoC5/Clock_1.c **** *  restart:  If nonzero, restarts the clock divider: the current clock cycle
 185:Generated_Source\PSoC5/Clock_1.c **** *   will be truncated and the new divide value will take effect immediately. If
 186:Generated_Source\PSoC5/Clock_1.c **** *   zero, the new divide value will take effect at the end of the current clock
 187:Generated_Source\PSoC5/Clock_1.c **** *   cycle.
 188:Generated_Source\PSoC5/Clock_1.c **** *
 189:Generated_Source\PSoC5/Clock_1.c **** * Returns:
 190:Generated_Source\PSoC5/Clock_1.c **** *  None
 191:Generated_Source\PSoC5/Clock_1.c **** *
 192:Generated_Source\PSoC5/Clock_1.c **** *******************************************************************************/
 193:Generated_Source\PSoC5/Clock_1.c **** void Clock_1_SetDividerRegister(uint16 clkDivider, uint8 restart)
 194:Generated_Source\PSoC5/Clock_1.c ****                                 
 195:Generated_Source\PSoC5/Clock_1.c **** {
 315              		.loc 1 195 0
 316              		.cfi_startproc
 317              		@ args = 0, pretend = 0, frame = 16
ARM GAS  C:\Users\HPz420\AppData\Local\Temp\cchCdHFa.s 			page 10


 318              		@ frame_needed = 1, uses_anonymous_args = 0
 319 0000 80B5     		push	{r7, lr}
 320              		.cfi_def_cfa_offset 8
 321              		.cfi_offset 7, -8
 322              		.cfi_offset 14, -4
 323 0002 84B0     		sub	sp, sp, #16
 324              		.cfi_def_cfa_offset 24
 325 0004 00AF     		add	r7, sp, #0
 326              		.cfi_def_cfa_register 7
 327 0006 0346     		mov	r3, r0
 328 0008 0A46     		mov	r2, r1
 329 000a FB80     		strh	r3, [r7, #6]	@ movhi
 330 000c 1346     		mov	r3, r2
 331 000e 7B71     		strb	r3, [r7, #5]
 196:Generated_Source\PSoC5/Clock_1.c ****     uint8 enabled;
 197:Generated_Source\PSoC5/Clock_1.c **** 
 198:Generated_Source\PSoC5/Clock_1.c ****     uint8 currSrc = Clock_1_GetSourceRegister();
 332              		.loc 1 198 0
 333 0010 FFF7FEFF 		bl	Clock_1_GetSourceRegister
 334 0014 0346     		mov	r3, r0
 335 0016 FB73     		strb	r3, [r7, #15]
 199:Generated_Source\PSoC5/Clock_1.c ****     uint16 oldDivider = Clock_1_GetDividerRegister();
 336              		.loc 1 199 0
 337 0018 FFF7FEFF 		bl	Clock_1_GetDividerRegister
 338 001c 0346     		mov	r3, r0
 339 001e BB81     		strh	r3, [r7, #12]	@ movhi
 200:Generated_Source\PSoC5/Clock_1.c **** 
 201:Generated_Source\PSoC5/Clock_1.c ****     if (clkDivider != oldDivider)
 340              		.loc 1 201 0
 341 0020 FA88     		ldrh	r2, [r7, #6]
 342 0022 BB89     		ldrh	r3, [r7, #12]
 343 0024 9A42     		cmp	r2, r3
 344 0026 00F08880 		beq	.L32
 202:Generated_Source\PSoC5/Clock_1.c ****     {
 203:Generated_Source\PSoC5/Clock_1.c ****         enabled = Clock_1_CLKEN & Clock_1_CLKEN_MASK;
 345              		.loc 1 203 0
 346 002a 464B     		ldr	r3, .L33
 347 002c 1B78     		ldrb	r3, [r3]
 348 002e DBB2     		uxtb	r3, r3
 349 0030 03F00203 		and	r3, r3, #2
 350 0034 FB72     		strb	r3, [r7, #11]
 204:Generated_Source\PSoC5/Clock_1.c **** 
 205:Generated_Source\PSoC5/Clock_1.c ****         if ((currSrc == (uint8)CYCLK_SRC_SEL_CLK_SYNC_D) && ((oldDivider == 0u) || (clkDivider == 0
 351              		.loc 1 205 0
 352 0036 FB7B     		ldrb	r3, [r7, #15]	@ zero_extendqisi2
 353 0038 002B     		cmp	r3, #0
 354 003a 20D1     		bne	.L21
 355              		.loc 1 205 0 is_stmt 0 discriminator 1
 356 003c BB89     		ldrh	r3, [r7, #12]
 357 003e 002B     		cmp	r3, #0
 358 0040 02D0     		beq	.L22
 359              		.loc 1 205 0 discriminator 2
 360 0042 FB88     		ldrh	r3, [r7, #6]
 361 0044 002B     		cmp	r3, #0
 362 0046 1AD1     		bne	.L21
 363              	.L22:
 206:Generated_Source\PSoC5/Clock_1.c ****         {
ARM GAS  C:\Users\HPz420\AppData\Local\Temp\cchCdHFa.s 			page 11


 207:Generated_Source\PSoC5/Clock_1.c ****             /* Moving to/from SSS requires correct ordering to prevent halting the clock    */
 208:Generated_Source\PSoC5/Clock_1.c ****             if (oldDivider == 0u)
 364              		.loc 1 208 0 is_stmt 1
 365 0048 BB89     		ldrh	r3, [r7, #12]
 366 004a 002B     		cmp	r3, #0
 367 004c 0BD1     		bne	.L23
 209:Generated_Source\PSoC5/Clock_1.c ****             {
 210:Generated_Source\PSoC5/Clock_1.c ****                 /* Moving away from SSS, set the divider first so when SSS is cleared we    */
 211:Generated_Source\PSoC5/Clock_1.c ****                 /* don't halt the clock.  Using the shadow load isn't required as the       */
 212:Generated_Source\PSoC5/Clock_1.c ****                 /* divider is ignored while SSS is set.                                     */
 213:Generated_Source\PSoC5/Clock_1.c ****                 CY_SET_REG16(Clock_1_DIV_PTR, clkDivider);
 368              		.loc 1 213 0
 369 004e 3E4A     		ldr	r2, .L33+4
 370 0050 FB88     		ldrh	r3, [r7, #6]	@ movhi
 371 0052 1380     		strh	r3, [r2]	@ movhi
 214:Generated_Source\PSoC5/Clock_1.c ****                 Clock_1_MOD_SRC &= (uint8)(~CYCLK_SSS);
 372              		.loc 1 214 0
 373 0054 3D4A     		ldr	r2, .L33+8
 374 0056 3D4B     		ldr	r3, .L33+8
 375 0058 1B78     		ldrb	r3, [r3]
 376 005a DBB2     		uxtb	r3, r3
 377 005c 23F04003 		bic	r3, r3, #64
 378 0060 DBB2     		uxtb	r3, r3
 379 0062 1370     		strb	r3, [r2]
 208:Generated_Source\PSoC5/Clock_1.c ****             {
 380              		.loc 1 208 0
 381 0064 69E0     		b	.L20
 382              	.L23:
 215:Generated_Source\PSoC5/Clock_1.c ****             }
 216:Generated_Source\PSoC5/Clock_1.c ****             else
 217:Generated_Source\PSoC5/Clock_1.c ****             {
 218:Generated_Source\PSoC5/Clock_1.c ****                 /* Moving to SSS, set SSS which then ignores the divider and we can set     */
 219:Generated_Source\PSoC5/Clock_1.c ****                 /* it without bothering with the shadow load.                               */
 220:Generated_Source\PSoC5/Clock_1.c ****                 Clock_1_MOD_SRC |= CYCLK_SSS;
 383              		.loc 1 220 0
 384 0066 394A     		ldr	r2, .L33+8
 385 0068 384B     		ldr	r3, .L33+8
 386 006a 1B78     		ldrb	r3, [r3]
 387 006c DBB2     		uxtb	r3, r3
 388 006e 43F04003 		orr	r3, r3, #64
 389 0072 DBB2     		uxtb	r3, r3
 390 0074 1370     		strb	r3, [r2]
 221:Generated_Source\PSoC5/Clock_1.c ****                 CY_SET_REG16(Clock_1_DIV_PTR, clkDivider);
 391              		.loc 1 221 0
 392 0076 344A     		ldr	r2, .L33+4
 393 0078 FB88     		ldrh	r3, [r7, #6]	@ movhi
 394 007a 1380     		strh	r3, [r2]	@ movhi
 208:Generated_Source\PSoC5/Clock_1.c ****             {
 395              		.loc 1 208 0
 396 007c 5DE0     		b	.L20
 397              	.L21:
 222:Generated_Source\PSoC5/Clock_1.c ****             }
 223:Generated_Source\PSoC5/Clock_1.c ****         }
 224:Generated_Source\PSoC5/Clock_1.c ****         else
 225:Generated_Source\PSoC5/Clock_1.c ****         {
 226:Generated_Source\PSoC5/Clock_1.c **** 			
 227:Generated_Source\PSoC5/Clock_1.c ****             if (enabled != 0u)
ARM GAS  C:\Users\HPz420\AppData\Local\Temp\cchCdHFa.s 			page 12


 398              		.loc 1 227 0
 399 007e FB7A     		ldrb	r3, [r7, #11]	@ zero_extendqisi2
 400 0080 002B     		cmp	r3, #0
 401 0082 33D0     		beq	.L25
 228:Generated_Source\PSoC5/Clock_1.c ****             {
 229:Generated_Source\PSoC5/Clock_1.c ****                 CLK_DIST_LD = 0x00u;
 402              		.loc 1 229 0
 403 0084 324B     		ldr	r3, .L33+12
 404 0086 0022     		movs	r2, #0
 405 0088 1A70     		strb	r2, [r3]
 230:Generated_Source\PSoC5/Clock_1.c **** 
 231:Generated_Source\PSoC5/Clock_1.c ****                 /* Clear all the mask bits except ours. */
 232:Generated_Source\PSoC5/Clock_1.c **** #if defined(Clock_1__CFG3)
 233:Generated_Source\PSoC5/Clock_1.c ****                 CLK_DIST_AMASK = Clock_1_CLKEN_MASK;
 234:Generated_Source\PSoC5/Clock_1.c ****                 CLK_DIST_DMASK = 0x00u;
 235:Generated_Source\PSoC5/Clock_1.c **** #else
 236:Generated_Source\PSoC5/Clock_1.c ****                 CLK_DIST_DMASK = Clock_1_CLKEN_MASK;
 406              		.loc 1 236 0
 407 008a 324B     		ldr	r3, .L33+16
 408 008c 0222     		movs	r2, #2
 409 008e 1A70     		strb	r2, [r3]
 237:Generated_Source\PSoC5/Clock_1.c ****                 CLK_DIST_AMASK = 0x00u;
 410              		.loc 1 237 0
 411 0090 314B     		ldr	r3, .L33+20
 412 0092 0022     		movs	r2, #0
 413 0094 1A70     		strb	r2, [r3]
 238:Generated_Source\PSoC5/Clock_1.c **** #endif /* Clock_1__CFG3 */
 239:Generated_Source\PSoC5/Clock_1.c ****                 /* Clear mask of bus clock. */
 240:Generated_Source\PSoC5/Clock_1.c ****                 CLK_DIST_BCFG2 &= (uint8)(~BCFG2_MASK);
 414              		.loc 1 240 0
 415 0096 314A     		ldr	r2, .L33+24
 416 0098 304B     		ldr	r3, .L33+24
 417 009a 1B78     		ldrb	r3, [r3]
 418 009c DBB2     		uxtb	r3, r3
 419 009e 03F07F03 		and	r3, r3, #127
 420 00a2 DBB2     		uxtb	r3, r3
 421 00a4 1370     		strb	r3, [r2]
 241:Generated_Source\PSoC5/Clock_1.c **** 
 242:Generated_Source\PSoC5/Clock_1.c ****                 /* If clock is currently enabled, disable it if async or going from N-to-1*/
 243:Generated_Source\PSoC5/Clock_1.c ****                 if (((Clock_1_MOD_SRC & CYCLK_SYNC) == 0u) || (clkDivider == 0u))
 422              		.loc 1 243 0
 423 00a6 294B     		ldr	r3, .L33+8
 424 00a8 1B78     		ldrb	r3, [r3]
 425 00aa DBB2     		uxtb	r3, r3
 426 00ac 03F00803 		and	r3, r3, #8
 427 00b0 002B     		cmp	r3, #0
 428 00b2 02D0     		beq	.L26
 429              		.loc 1 243 0 is_stmt 0 discriminator 1
 430 00b4 FB88     		ldrh	r3, [r7, #6]
 431 00b6 002B     		cmp	r3, #0
 432 00b8 18D1     		bne	.L25
 433              	.L26:
 244:Generated_Source\PSoC5/Clock_1.c ****                 {
 245:Generated_Source\PSoC5/Clock_1.c **** #if HAS_CLKDIST_LD_DISABLE
 246:Generated_Source\PSoC5/Clock_1.c ****                     CY_SET_REG16(CYREG_CLKDIST_WRK0, oldDivider);
 434              		.loc 1 246 0 is_stmt 1
 435 00ba 294A     		ldr	r2, .L33+28
ARM GAS  C:\Users\HPz420\AppData\Local\Temp\cchCdHFa.s 			page 13


 436 00bc BB89     		ldrh	r3, [r7, #12]	@ movhi
 437 00be 1380     		strh	r3, [r2]	@ movhi
 247:Generated_Source\PSoC5/Clock_1.c ****                     CLK_DIST_LD = CYCLK_LD_DISABLE|CYCLK_LD_SYNC_EN|CYCLK_LD_LOAD;
 438              		.loc 1 247 0
 439 00c0 234B     		ldr	r3, .L33+12
 440 00c2 0722     		movs	r2, #7
 441 00c4 1A70     		strb	r2, [r3]
 248:Generated_Source\PSoC5/Clock_1.c **** 
 249:Generated_Source\PSoC5/Clock_1.c ****                     /* Wait for clock to be disabled */
 250:Generated_Source\PSoC5/Clock_1.c ****                     while ((CLK_DIST_LD & CYCLK_LD_LOAD) != 0u) { }
 442              		.loc 1 250 0
 443 00c6 00BF     		nop
 444              	.L27:
 445              		.loc 1 250 0 is_stmt 0 discriminator 1
 446 00c8 214B     		ldr	r3, .L33+12
 447 00ca 1B78     		ldrb	r3, [r3]
 448 00cc DBB2     		uxtb	r3, r3
 449 00ce 03F00103 		and	r3, r3, #1
 450 00d2 002B     		cmp	r3, #0
 451 00d4 F8D1     		bne	.L27
 251:Generated_Source\PSoC5/Clock_1.c **** #endif /* HAS_CLKDIST_LD_DISABLE */
 252:Generated_Source\PSoC5/Clock_1.c **** 
 253:Generated_Source\PSoC5/Clock_1.c ****                     Clock_1_CLKEN &= (uint8)(~Clock_1_CLKEN_MASK);
 452              		.loc 1 253 0 is_stmt 1
 453 00d6 1B4A     		ldr	r2, .L33
 454 00d8 1A4B     		ldr	r3, .L33
 455 00da 1B78     		ldrb	r3, [r3]
 456 00dc DBB2     		uxtb	r3, r3
 457 00de 23F00203 		bic	r3, r3, #2
 458 00e2 DBB2     		uxtb	r3, r3
 459 00e4 1370     		strb	r3, [r2]
 254:Generated_Source\PSoC5/Clock_1.c **** 
 255:Generated_Source\PSoC5/Clock_1.c **** #if HAS_CLKDIST_LD_DISABLE
 256:Generated_Source\PSoC5/Clock_1.c ****                     /* Clear the disable bit */
 257:Generated_Source\PSoC5/Clock_1.c ****                     CLK_DIST_LD = 0x00u;
 460              		.loc 1 257 0
 461 00e6 1A4B     		ldr	r3, .L33+12
 462 00e8 0022     		movs	r2, #0
 463 00ea 1A70     		strb	r2, [r3]
 464              	.L25:
 258:Generated_Source\PSoC5/Clock_1.c **** #endif /* HAS_CLKDIST_LD_DISABLE */
 259:Generated_Source\PSoC5/Clock_1.c ****                 }
 260:Generated_Source\PSoC5/Clock_1.c ****             }
 261:Generated_Source\PSoC5/Clock_1.c **** 
 262:Generated_Source\PSoC5/Clock_1.c ****             /* Load divide value. */
 263:Generated_Source\PSoC5/Clock_1.c ****             if ((Clock_1_CLKEN & Clock_1_CLKEN_MASK) != 0u)
 465              		.loc 1 263 0
 466 00ec 154B     		ldr	r3, .L33
 467 00ee 1B78     		ldrb	r3, [r3]
 468 00f0 DBB2     		uxtb	r3, r3
 469 00f2 03F00203 		and	r3, r3, #2
 470 00f6 002B     		cmp	r3, #0
 471 00f8 13D0     		beq	.L28
 264:Generated_Source\PSoC5/Clock_1.c ****             {
 265:Generated_Source\PSoC5/Clock_1.c ****                 /* If the clock is still enabled, use the shadow registers */
 266:Generated_Source\PSoC5/Clock_1.c ****                 CY_SET_REG16(CYREG_CLKDIST_WRK0, clkDivider);
 472              		.loc 1 266 0
ARM GAS  C:\Users\HPz420\AppData\Local\Temp\cchCdHFa.s 			page 14


 473 00fa 194A     		ldr	r2, .L33+28
 474 00fc FB88     		ldrh	r3, [r7, #6]	@ movhi
 475 00fe 1380     		strh	r3, [r2]	@ movhi
 267:Generated_Source\PSoC5/Clock_1.c **** 
 268:Generated_Source\PSoC5/Clock_1.c ****                 CLK_DIST_LD = (CYCLK_LD_LOAD | ((restart != 0u) ? CYCLK_LD_SYNC_EN : 0x00u));
 476              		.loc 1 268 0
 477 0100 134A     		ldr	r2, .L33+12
 478 0102 7B79     		ldrb	r3, [r7, #5]	@ zero_extendqisi2
 479 0104 002B     		cmp	r3, #0
 480 0106 01D0     		beq	.L29
 481              		.loc 1 268 0 is_stmt 0 discriminator 1
 482 0108 0323     		movs	r3, #3
 483 010a 00E0     		b	.L30
 484              	.L29:
 485              		.loc 1 268 0 discriminator 2
 486 010c 0123     		movs	r3, #1
 487              	.L30:
 488              		.loc 1 268 0 discriminator 4
 489 010e 1370     		strb	r3, [r2]
 269:Generated_Source\PSoC5/Clock_1.c ****                 while ((CLK_DIST_LD & CYCLK_LD_LOAD) != 0u) { }
 490              		.loc 1 269 0 is_stmt 1 discriminator 4
 491 0110 00BF     		nop
 492              	.L31:
 493              		.loc 1 269 0 is_stmt 0 discriminator 1
 494 0112 0F4B     		ldr	r3, .L33+12
 495 0114 1B78     		ldrb	r3, [r3]
 496 0116 DBB2     		uxtb	r3, r3
 497 0118 03F00103 		and	r3, r3, #1
 498 011c 002B     		cmp	r3, #0
 499 011e F8D1     		bne	.L31
 270:Generated_Source\PSoC5/Clock_1.c ****             }
 271:Generated_Source\PSoC5/Clock_1.c ****             else
 272:Generated_Source\PSoC5/Clock_1.c ****             {
 273:Generated_Source\PSoC5/Clock_1.c ****                 /* If the clock is disabled, set the divider directly */
 274:Generated_Source\PSoC5/Clock_1.c ****                 CY_SET_REG16(Clock_1_DIV_PTR, clkDivider);
 275:Generated_Source\PSoC5/Clock_1.c **** 				Clock_1_CLKEN |= enabled;
 276:Generated_Source\PSoC5/Clock_1.c ****             }
 277:Generated_Source\PSoC5/Clock_1.c ****         }
 278:Generated_Source\PSoC5/Clock_1.c ****     }
 279:Generated_Source\PSoC5/Clock_1.c **** }
 500              		.loc 1 279 0 is_stmt 1
 501 0120 0BE0     		b	.L32
 502              	.L28:
 274:Generated_Source\PSoC5/Clock_1.c **** 				Clock_1_CLKEN |= enabled;
 503              		.loc 1 274 0
 504 0122 094A     		ldr	r2, .L33+4
 505 0124 FB88     		ldrh	r3, [r7, #6]	@ movhi
 506 0126 1380     		strh	r3, [r2]	@ movhi
 275:Generated_Source\PSoC5/Clock_1.c ****             }
 507              		.loc 1 275 0
 508 0128 0649     		ldr	r1, .L33
 509 012a 064B     		ldr	r3, .L33
 510 012c 1B78     		ldrb	r3, [r3]
 511 012e DAB2     		uxtb	r2, r3
 512 0130 FB7A     		ldrb	r3, [r7, #11]
 513 0132 1343     		orrs	r3, r3, r2
 514 0134 DBB2     		uxtb	r3, r3
ARM GAS  C:\Users\HPz420\AppData\Local\Temp\cchCdHFa.s 			page 15


 515 0136 0B70     		strb	r3, [r1]
 516              		.loc 1 279 0
 517 0138 FFE7     		b	.L32
 518              	.L20:
 519              	.L32:
 520 013a 00BF     		nop
 521 013c 1037     		adds	r7, r7, #16
 522              		.cfi_def_cfa_offset 8
 523 013e BD46     		mov	sp, r7
 524              		.cfi_def_cfa_register 13
 525              		@ sp needed
 526 0140 80BD     		pop	{r7, pc}
 527              	.L34:
 528 0142 00BF     		.align	2
 529              	.L33:
 530 0144 A2430040 		.word	1073759138
 531 0148 84400040 		.word	1073758340
 532 014c 86400040 		.word	1073758342
 533 0150 01400040 		.word	1073758209
 534 0154 10400040 		.word	1073758224
 535 0158 14400040 		.word	1073758228
 536 015c 08400040 		.word	1073758216
 537 0160 02400040 		.word	1073758210
 538              		.cfi_endproc
 539              	.LFE4:
 540              		.size	Clock_1_SetDividerRegister, .-Clock_1_SetDividerRegister
 541              		.section	.text.Clock_1_GetDividerRegister,"ax",%progbits
 542              		.align	2
 543              		.global	Clock_1_GetDividerRegister
 544              		.thumb
 545              		.thumb_func
 546              		.type	Clock_1_GetDividerRegister, %function
 547              	Clock_1_GetDividerRegister:
 548              	.LFB5:
 280:Generated_Source\PSoC5/Clock_1.c **** 
 281:Generated_Source\PSoC5/Clock_1.c **** 
 282:Generated_Source\PSoC5/Clock_1.c **** /*******************************************************************************
 283:Generated_Source\PSoC5/Clock_1.c **** * Function Name: Clock_1_GetDividerRegister
 284:Generated_Source\PSoC5/Clock_1.c **** ********************************************************************************
 285:Generated_Source\PSoC5/Clock_1.c **** *
 286:Generated_Source\PSoC5/Clock_1.c **** * Summary:
 287:Generated_Source\PSoC5/Clock_1.c **** *  Gets the clock divider register value.
 288:Generated_Source\PSoC5/Clock_1.c **** *
 289:Generated_Source\PSoC5/Clock_1.c **** * Parameters:
 290:Generated_Source\PSoC5/Clock_1.c **** *  None
 291:Generated_Source\PSoC5/Clock_1.c **** *
 292:Generated_Source\PSoC5/Clock_1.c **** * Returns:
 293:Generated_Source\PSoC5/Clock_1.c **** *  Divide value of the clock minus 1. For example, if the clock is set to
 294:Generated_Source\PSoC5/Clock_1.c **** *  divide by 2, the return value will be 1.
 295:Generated_Source\PSoC5/Clock_1.c **** *
 296:Generated_Source\PSoC5/Clock_1.c **** *******************************************************************************/
 297:Generated_Source\PSoC5/Clock_1.c **** uint16 Clock_1_GetDividerRegister(void) 
 298:Generated_Source\PSoC5/Clock_1.c **** {
 549              		.loc 1 298 0
 550              		.cfi_startproc
 551              		@ args = 0, pretend = 0, frame = 0
 552              		@ frame_needed = 1, uses_anonymous_args = 0
ARM GAS  C:\Users\HPz420\AppData\Local\Temp\cchCdHFa.s 			page 16


 553              		@ link register save eliminated.
 554 0000 80B4     		push	{r7}
 555              		.cfi_def_cfa_offset 4
 556              		.cfi_offset 7, -4
 557 0002 00AF     		add	r7, sp, #0
 558              		.cfi_def_cfa_register 7
 299:Generated_Source\PSoC5/Clock_1.c ****     return CY_GET_REG16(Clock_1_DIV_PTR);
 559              		.loc 1 299 0
 560 0004 034B     		ldr	r3, .L37
 561 0006 1B88     		ldrh	r3, [r3]	@ movhi
 562 0008 9BB2     		uxth	r3, r3
 300:Generated_Source\PSoC5/Clock_1.c **** }
 563              		.loc 1 300 0
 564 000a 1846     		mov	r0, r3
 565 000c BD46     		mov	sp, r7
 566              		.cfi_def_cfa_register 13
 567              		@ sp needed
 568 000e 80BC     		pop	{r7}
 569              		.cfi_restore 7
 570              		.cfi_def_cfa_offset 0
 571 0010 7047     		bx	lr
 572              	.L38:
 573 0012 00BF     		.align	2
 574              	.L37:
 575 0014 84400040 		.word	1073758340
 576              		.cfi_endproc
 577              	.LFE5:
 578              		.size	Clock_1_GetDividerRegister, .-Clock_1_GetDividerRegister
 579              		.section	.text.Clock_1_SetModeRegister,"ax",%progbits
 580              		.align	2
 581              		.global	Clock_1_SetModeRegister
 582              		.thumb
 583              		.thumb_func
 584              		.type	Clock_1_SetModeRegister, %function
 585              	Clock_1_SetModeRegister:
 586              	.LFB6:
 301:Generated_Source\PSoC5/Clock_1.c **** 
 302:Generated_Source\PSoC5/Clock_1.c **** 
 303:Generated_Source\PSoC5/Clock_1.c **** /*******************************************************************************
 304:Generated_Source\PSoC5/Clock_1.c **** * Function Name: Clock_1_SetModeRegister
 305:Generated_Source\PSoC5/Clock_1.c **** ********************************************************************************
 306:Generated_Source\PSoC5/Clock_1.c **** *
 307:Generated_Source\PSoC5/Clock_1.c **** * Summary:
 308:Generated_Source\PSoC5/Clock_1.c **** *  Sets flags that control the operating mode of the clock. This function only
 309:Generated_Source\PSoC5/Clock_1.c **** *  changes flags from 0 to 1; flags that are already 1 will remain unchanged.
 310:Generated_Source\PSoC5/Clock_1.c **** *  To clear flags, use the ClearModeRegister function. The clock must be
 311:Generated_Source\PSoC5/Clock_1.c **** *  disabled before changing the mode.
 312:Generated_Source\PSoC5/Clock_1.c **** *
 313:Generated_Source\PSoC5/Clock_1.c **** * Parameters:
 314:Generated_Source\PSoC5/Clock_1.c **** *  clkMode: Bit mask containing the bits to set. For PSoC 3 and PSoC 5,
 315:Generated_Source\PSoC5/Clock_1.c **** *   clkMode should be a set of the following optional bits or'ed together.
 316:Generated_Source\PSoC5/Clock_1.c **** *   - CYCLK_EARLY Enable early phase mode. Rising edge of output clock will
 317:Generated_Source\PSoC5/Clock_1.c **** *                 occur when the divider count reaches half of the divide
 318:Generated_Source\PSoC5/Clock_1.c **** *                 value.
 319:Generated_Source\PSoC5/Clock_1.c **** *   - CYCLK_DUTY  Enable 50% duty cycle output. When enabled, the output clock
 320:Generated_Source\PSoC5/Clock_1.c **** *                 is asserted for approximately half of its period. When
 321:Generated_Source\PSoC5/Clock_1.c **** *                 disabled, the output clock is asserted for one period of the
ARM GAS  C:\Users\HPz420\AppData\Local\Temp\cchCdHFa.s 			page 17


 322:Generated_Source\PSoC5/Clock_1.c **** *                 source clock.
 323:Generated_Source\PSoC5/Clock_1.c **** *   - CYCLK_SYNC  Enable output synchronization to master clock. This should
 324:Generated_Source\PSoC5/Clock_1.c **** *                 be enabled for all synchronous clocks.
 325:Generated_Source\PSoC5/Clock_1.c **** *   See the Technical Reference Manual for details about setting the mode of
 326:Generated_Source\PSoC5/Clock_1.c **** *   the clock. Specifically, see the CLKDIST.DCFG.CFG2 register.
 327:Generated_Source\PSoC5/Clock_1.c **** *
 328:Generated_Source\PSoC5/Clock_1.c **** * Returns:
 329:Generated_Source\PSoC5/Clock_1.c **** *  None
 330:Generated_Source\PSoC5/Clock_1.c **** *
 331:Generated_Source\PSoC5/Clock_1.c **** *******************************************************************************/
 332:Generated_Source\PSoC5/Clock_1.c **** void Clock_1_SetModeRegister(uint8 modeBitMask) 
 333:Generated_Source\PSoC5/Clock_1.c **** {
 587              		.loc 1 333 0
 588              		.cfi_startproc
 589              		@ args = 0, pretend = 0, frame = 8
 590              		@ frame_needed = 1, uses_anonymous_args = 0
 591              		@ link register save eliminated.
 592 0000 80B4     		push	{r7}
 593              		.cfi_def_cfa_offset 4
 594              		.cfi_offset 7, -4
 595 0002 83B0     		sub	sp, sp, #12
 596              		.cfi_def_cfa_offset 16
 597 0004 00AF     		add	r7, sp, #0
 598              		.cfi_def_cfa_register 7
 599 0006 0346     		mov	r3, r0
 600 0008 FB71     		strb	r3, [r7, #7]
 334:Generated_Source\PSoC5/Clock_1.c ****     Clock_1_MOD_SRC |= modeBitMask & (uint8)Clock_1_MODE_MASK;
 601              		.loc 1 334 0
 602 000a 0949     		ldr	r1, .L40
 603 000c 084B     		ldr	r3, .L40
 604 000e 1B78     		ldrb	r3, [r3]
 605 0010 DBB2     		uxtb	r3, r3
 606 0012 5AB2     		sxtb	r2, r3
 607 0014 97F90730 		ldrsb	r3, [r7, #7]
 608 0018 23F00703 		bic	r3, r3, #7
 609 001c 5BB2     		sxtb	r3, r3
 610 001e 1343     		orrs	r3, r3, r2
 611 0020 5BB2     		sxtb	r3, r3
 612 0022 DBB2     		uxtb	r3, r3
 613 0024 0B70     		strb	r3, [r1]
 335:Generated_Source\PSoC5/Clock_1.c **** }
 614              		.loc 1 335 0
 615 0026 00BF     		nop
 616 0028 0C37     		adds	r7, r7, #12
 617              		.cfi_def_cfa_offset 4
 618 002a BD46     		mov	sp, r7
 619              		.cfi_def_cfa_register 13
 620              		@ sp needed
 621 002c 80BC     		pop	{r7}
 622              		.cfi_restore 7
 623              		.cfi_def_cfa_offset 0
 624 002e 7047     		bx	lr
 625              	.L41:
 626              		.align	2
 627              	.L40:
 628 0030 86400040 		.word	1073758342
 629              		.cfi_endproc
ARM GAS  C:\Users\HPz420\AppData\Local\Temp\cchCdHFa.s 			page 18


 630              	.LFE6:
 631              		.size	Clock_1_SetModeRegister, .-Clock_1_SetModeRegister
 632              		.section	.text.Clock_1_ClearModeRegister,"ax",%progbits
 633              		.align	2
 634              		.global	Clock_1_ClearModeRegister
 635              		.thumb
 636              		.thumb_func
 637              		.type	Clock_1_ClearModeRegister, %function
 638              	Clock_1_ClearModeRegister:
 639              	.LFB7:
 336:Generated_Source\PSoC5/Clock_1.c **** 
 337:Generated_Source\PSoC5/Clock_1.c **** 
 338:Generated_Source\PSoC5/Clock_1.c **** /*******************************************************************************
 339:Generated_Source\PSoC5/Clock_1.c **** * Function Name: Clock_1_ClearModeRegister
 340:Generated_Source\PSoC5/Clock_1.c **** ********************************************************************************
 341:Generated_Source\PSoC5/Clock_1.c **** *
 342:Generated_Source\PSoC5/Clock_1.c **** * Summary:
 343:Generated_Source\PSoC5/Clock_1.c **** *  Clears flags that control the operating mode of the clock. This function
 344:Generated_Source\PSoC5/Clock_1.c **** *  only changes flags from 1 to 0; flags that are already 0 will remain
 345:Generated_Source\PSoC5/Clock_1.c **** *  unchanged. To set flags, use the SetModeRegister function. The clock must be
 346:Generated_Source\PSoC5/Clock_1.c **** *  disabled before changing the mode.
 347:Generated_Source\PSoC5/Clock_1.c **** *
 348:Generated_Source\PSoC5/Clock_1.c **** * Parameters:
 349:Generated_Source\PSoC5/Clock_1.c **** *  clkMode: Bit mask containing the bits to clear. For PSoC 3 and PSoC 5,
 350:Generated_Source\PSoC5/Clock_1.c **** *   clkMode should be a set of the following optional bits or'ed together.
 351:Generated_Source\PSoC5/Clock_1.c **** *   - CYCLK_EARLY Enable early phase mode. Rising edge of output clock will
 352:Generated_Source\PSoC5/Clock_1.c **** *                 occur when the divider count reaches half of the divide
 353:Generated_Source\PSoC5/Clock_1.c **** *                 value.
 354:Generated_Source\PSoC5/Clock_1.c **** *   - CYCLK_DUTY  Enable 50% duty cycle output. When enabled, the output clock
 355:Generated_Source\PSoC5/Clock_1.c **** *                 is asserted for approximately half of its period. When
 356:Generated_Source\PSoC5/Clock_1.c **** *                 disabled, the output clock is asserted for one period of the
 357:Generated_Source\PSoC5/Clock_1.c **** *                 source clock.
 358:Generated_Source\PSoC5/Clock_1.c **** *   - CYCLK_SYNC  Enable output synchronization to master clock. This should
 359:Generated_Source\PSoC5/Clock_1.c **** *                 be enabled for all synchronous clocks.
 360:Generated_Source\PSoC5/Clock_1.c **** *   See the Technical Reference Manual for details about setting the mode of
 361:Generated_Source\PSoC5/Clock_1.c **** *   the clock. Specifically, see the CLKDIST.DCFG.CFG2 register.
 362:Generated_Source\PSoC5/Clock_1.c **** *
 363:Generated_Source\PSoC5/Clock_1.c **** * Returns:
 364:Generated_Source\PSoC5/Clock_1.c **** *  None
 365:Generated_Source\PSoC5/Clock_1.c **** *
 366:Generated_Source\PSoC5/Clock_1.c **** *******************************************************************************/
 367:Generated_Source\PSoC5/Clock_1.c **** void Clock_1_ClearModeRegister(uint8 modeBitMask) 
 368:Generated_Source\PSoC5/Clock_1.c **** {
 640              		.loc 1 368 0
 641              		.cfi_startproc
 642              		@ args = 0, pretend = 0, frame = 8
 643              		@ frame_needed = 1, uses_anonymous_args = 0
 644              		@ link register save eliminated.
 645 0000 80B4     		push	{r7}
 646              		.cfi_def_cfa_offset 4
 647              		.cfi_offset 7, -4
 648 0002 83B0     		sub	sp, sp, #12
 649              		.cfi_def_cfa_offset 16
 650 0004 00AF     		add	r7, sp, #0
 651              		.cfi_def_cfa_register 7
 652 0006 0346     		mov	r3, r0
 653 0008 FB71     		strb	r3, [r7, #7]
ARM GAS  C:\Users\HPz420\AppData\Local\Temp\cchCdHFa.s 			page 19


 369:Generated_Source\PSoC5/Clock_1.c ****     Clock_1_MOD_SRC &= (uint8)(~modeBitMask) | (uint8)(~(uint8)(Clock_1_MODE_MASK));
 654              		.loc 1 369 0
 655 000a 0949     		ldr	r1, .L43
 656 000c 084B     		ldr	r3, .L43
 657 000e 1B78     		ldrb	r3, [r3]
 658 0010 DAB2     		uxtb	r2, r3
 659 0012 FB79     		ldrb	r3, [r7, #7]
 660 0014 DB43     		mvns	r3, r3
 661 0016 DBB2     		uxtb	r3, r3
 662 0018 43F00703 		orr	r3, r3, #7
 663 001c DBB2     		uxtb	r3, r3
 664 001e 1340     		ands	r3, r3, r2
 665 0020 DBB2     		uxtb	r3, r3
 666 0022 0B70     		strb	r3, [r1]
 370:Generated_Source\PSoC5/Clock_1.c **** }
 667              		.loc 1 370 0
 668 0024 00BF     		nop
 669 0026 0C37     		adds	r7, r7, #12
 670              		.cfi_def_cfa_offset 4
 671 0028 BD46     		mov	sp, r7
 672              		.cfi_def_cfa_register 13
 673              		@ sp needed
 674 002a 80BC     		pop	{r7}
 675              		.cfi_restore 7
 676              		.cfi_def_cfa_offset 0
 677 002c 7047     		bx	lr
 678              	.L44:
 679 002e 00BF     		.align	2
 680              	.L43:
 681 0030 86400040 		.word	1073758342
 682              		.cfi_endproc
 683              	.LFE7:
 684              		.size	Clock_1_ClearModeRegister, .-Clock_1_ClearModeRegister
 685              		.section	.text.Clock_1_GetModeRegister,"ax",%progbits
 686              		.align	2
 687              		.global	Clock_1_GetModeRegister
 688              		.thumb
 689              		.thumb_func
 690              		.type	Clock_1_GetModeRegister, %function
 691              	Clock_1_GetModeRegister:
 692              	.LFB8:
 371:Generated_Source\PSoC5/Clock_1.c **** 
 372:Generated_Source\PSoC5/Clock_1.c **** 
 373:Generated_Source\PSoC5/Clock_1.c **** /*******************************************************************************
 374:Generated_Source\PSoC5/Clock_1.c **** * Function Name: Clock_1_GetModeRegister
 375:Generated_Source\PSoC5/Clock_1.c **** ********************************************************************************
 376:Generated_Source\PSoC5/Clock_1.c **** *
 377:Generated_Source\PSoC5/Clock_1.c **** * Summary:
 378:Generated_Source\PSoC5/Clock_1.c **** *  Gets the clock mode register value.
 379:Generated_Source\PSoC5/Clock_1.c **** *
 380:Generated_Source\PSoC5/Clock_1.c **** * Parameters:
 381:Generated_Source\PSoC5/Clock_1.c **** *  None
 382:Generated_Source\PSoC5/Clock_1.c **** *
 383:Generated_Source\PSoC5/Clock_1.c **** * Returns:
 384:Generated_Source\PSoC5/Clock_1.c **** *  Bit mask representing the enabled mode bits. See the SetModeRegister and
 385:Generated_Source\PSoC5/Clock_1.c **** *  ClearModeRegister descriptions for details about the mode bits.
 386:Generated_Source\PSoC5/Clock_1.c **** *
ARM GAS  C:\Users\HPz420\AppData\Local\Temp\cchCdHFa.s 			page 20


 387:Generated_Source\PSoC5/Clock_1.c **** *******************************************************************************/
 388:Generated_Source\PSoC5/Clock_1.c **** uint8 Clock_1_GetModeRegister(void) 
 389:Generated_Source\PSoC5/Clock_1.c **** {
 693              		.loc 1 389 0
 694              		.cfi_startproc
 695              		@ args = 0, pretend = 0, frame = 0
 696              		@ frame_needed = 1, uses_anonymous_args = 0
 697              		@ link register save eliminated.
 698 0000 80B4     		push	{r7}
 699              		.cfi_def_cfa_offset 4
 700              		.cfi_offset 7, -4
 701 0002 00AF     		add	r7, sp, #0
 702              		.cfi_def_cfa_register 7
 390:Generated_Source\PSoC5/Clock_1.c ****     return Clock_1_MOD_SRC & (uint8)(Clock_1_MODE_MASK);
 703              		.loc 1 390 0
 704 0004 044B     		ldr	r3, .L47
 705 0006 1B78     		ldrb	r3, [r3]
 706 0008 DBB2     		uxtb	r3, r3
 707 000a 23F00703 		bic	r3, r3, #7
 708 000e DBB2     		uxtb	r3, r3
 391:Generated_Source\PSoC5/Clock_1.c **** }
 709              		.loc 1 391 0
 710 0010 1846     		mov	r0, r3
 711 0012 BD46     		mov	sp, r7
 712              		.cfi_def_cfa_register 13
 713              		@ sp needed
 714 0014 80BC     		pop	{r7}
 715              		.cfi_restore 7
 716              		.cfi_def_cfa_offset 0
 717 0016 7047     		bx	lr
 718              	.L48:
 719              		.align	2
 720              	.L47:
 721 0018 86400040 		.word	1073758342
 722              		.cfi_endproc
 723              	.LFE8:
 724              		.size	Clock_1_GetModeRegister, .-Clock_1_GetModeRegister
 725              		.section	.text.Clock_1_SetSourceRegister,"ax",%progbits
 726              		.align	2
 727              		.global	Clock_1_SetSourceRegister
 728              		.thumb
 729              		.thumb_func
 730              		.type	Clock_1_SetSourceRegister, %function
 731              	Clock_1_SetSourceRegister:
 732              	.LFB9:
 392:Generated_Source\PSoC5/Clock_1.c **** 
 393:Generated_Source\PSoC5/Clock_1.c **** 
 394:Generated_Source\PSoC5/Clock_1.c **** /*******************************************************************************
 395:Generated_Source\PSoC5/Clock_1.c **** * Function Name: Clock_1_SetSourceRegister
 396:Generated_Source\PSoC5/Clock_1.c **** ********************************************************************************
 397:Generated_Source\PSoC5/Clock_1.c **** *
 398:Generated_Source\PSoC5/Clock_1.c **** * Summary:
 399:Generated_Source\PSoC5/Clock_1.c **** *  Sets the input source of the clock. The clock must be disabled before
 400:Generated_Source\PSoC5/Clock_1.c **** *  changing the source. The old and new clock sources must be running.
 401:Generated_Source\PSoC5/Clock_1.c **** *
 402:Generated_Source\PSoC5/Clock_1.c **** * Parameters:
 403:Generated_Source\PSoC5/Clock_1.c **** *  clkSource:  For PSoC 3 and PSoC 5 devices, clkSource should be one of the
ARM GAS  C:\Users\HPz420\AppData\Local\Temp\cchCdHFa.s 			page 21


 404:Generated_Source\PSoC5/Clock_1.c **** *   following input sources:
 405:Generated_Source\PSoC5/Clock_1.c **** *   - CYCLK_SRC_SEL_SYNC_DIG
 406:Generated_Source\PSoC5/Clock_1.c **** *   - CYCLK_SRC_SEL_IMO
 407:Generated_Source\PSoC5/Clock_1.c **** *   - CYCLK_SRC_SEL_XTALM
 408:Generated_Source\PSoC5/Clock_1.c **** *   - CYCLK_SRC_SEL_ILO
 409:Generated_Source\PSoC5/Clock_1.c **** *   - CYCLK_SRC_SEL_PLL
 410:Generated_Source\PSoC5/Clock_1.c **** *   - CYCLK_SRC_SEL_XTALK
 411:Generated_Source\PSoC5/Clock_1.c **** *   - CYCLK_SRC_SEL_DSI_G
 412:Generated_Source\PSoC5/Clock_1.c **** *   - CYCLK_SRC_SEL_DSI_D/CYCLK_SRC_SEL_DSI_A
 413:Generated_Source\PSoC5/Clock_1.c **** *   See the Technical Reference Manual for details on clock sources.
 414:Generated_Source\PSoC5/Clock_1.c **** *
 415:Generated_Source\PSoC5/Clock_1.c **** * Returns:
 416:Generated_Source\PSoC5/Clock_1.c **** *  None
 417:Generated_Source\PSoC5/Clock_1.c **** *
 418:Generated_Source\PSoC5/Clock_1.c **** *******************************************************************************/
 419:Generated_Source\PSoC5/Clock_1.c **** void Clock_1_SetSourceRegister(uint8 clkSource) 
 420:Generated_Source\PSoC5/Clock_1.c **** {
 733              		.loc 1 420 0
 734              		.cfi_startproc
 735              		@ args = 0, pretend = 0, frame = 16
 736              		@ frame_needed = 1, uses_anonymous_args = 0
 737 0000 80B5     		push	{r7, lr}
 738              		.cfi_def_cfa_offset 8
 739              		.cfi_offset 7, -8
 740              		.cfi_offset 14, -4
 741 0002 84B0     		sub	sp, sp, #16
 742              		.cfi_def_cfa_offset 24
 743 0004 00AF     		add	r7, sp, #0
 744              		.cfi_def_cfa_register 7
 745 0006 0346     		mov	r3, r0
 746 0008 FB71     		strb	r3, [r7, #7]
 421:Generated_Source\PSoC5/Clock_1.c ****     uint16 currDiv = Clock_1_GetDividerRegister();
 747              		.loc 1 421 0
 748 000a FFF7FEFF 		bl	Clock_1_GetDividerRegister
 749 000e 0346     		mov	r3, r0
 750 0010 FB81     		strh	r3, [r7, #14]	@ movhi
 422:Generated_Source\PSoC5/Clock_1.c ****     uint8 oldSrc = Clock_1_GetSourceRegister();
 751              		.loc 1 422 0
 752 0012 FFF7FEFF 		bl	Clock_1_GetSourceRegister
 753 0016 0346     		mov	r3, r0
 754 0018 7B73     		strb	r3, [r7, #13]
 423:Generated_Source\PSoC5/Clock_1.c **** 
 424:Generated_Source\PSoC5/Clock_1.c ****     if (((oldSrc != ((uint8)CYCLK_SRC_SEL_CLK_SYNC_D)) && 
 755              		.loc 1 424 0
 756 001a 7B7B     		ldrb	r3, [r7, #13]	@ zero_extendqisi2
 757 001c 002B     		cmp	r3, #0
 758 001e 1CD0     		beq	.L50
 759              		.loc 1 424 0 is_stmt 0 discriminator 1
 760 0020 FB79     		ldrb	r3, [r7, #7]	@ zero_extendqisi2
 761 0022 002B     		cmp	r3, #0
 762 0024 19D1     		bne	.L50
 425:Generated_Source\PSoC5/Clock_1.c ****         (clkSource == ((uint8)CYCLK_SRC_SEL_CLK_SYNC_D))) && (currDiv == 0u))
 763              		.loc 1 425 0 is_stmt 1
 764 0026 FB89     		ldrh	r3, [r7, #14]
 765 0028 002B     		cmp	r3, #0
 766 002a 16D1     		bne	.L50
 426:Generated_Source\PSoC5/Clock_1.c ****     {
ARM GAS  C:\Users\HPz420\AppData\Local\Temp\cchCdHFa.s 			page 22


 427:Generated_Source\PSoC5/Clock_1.c ****         /* Switching to Master and divider is 1, set SSS, which will output master, */
 428:Generated_Source\PSoC5/Clock_1.c ****         /* then set the source so we are consistent.                                */
 429:Generated_Source\PSoC5/Clock_1.c ****         Clock_1_MOD_SRC |= CYCLK_SSS;
 767              		.loc 1 429 0
 768 002c 244A     		ldr	r2, .L53
 769 002e 244B     		ldr	r3, .L53
 770 0030 1B78     		ldrb	r3, [r3]
 771 0032 DBB2     		uxtb	r3, r3
 772 0034 43F04003 		orr	r3, r3, #64
 773 0038 DBB2     		uxtb	r3, r3
 774 003a 1370     		strb	r3, [r2]
 430:Generated_Source\PSoC5/Clock_1.c ****         Clock_1_MOD_SRC =
 775              		.loc 1 430 0
 776 003c 2049     		ldr	r1, .L53
 431:Generated_Source\PSoC5/Clock_1.c ****             (Clock_1_MOD_SRC & (uint8)(~Clock_1_SRC_SEL_MSK)) | clkSource;
 777              		.loc 1 431 0
 778 003e 204B     		ldr	r3, .L53
 779 0040 1B78     		ldrb	r3, [r3]
 780 0042 DBB2     		uxtb	r3, r3
 430:Generated_Source\PSoC5/Clock_1.c ****         Clock_1_MOD_SRC =
 781              		.loc 1 430 0
 782 0044 5BB2     		sxtb	r3, r3
 783 0046 23F00703 		bic	r3, r3, #7
 784 004a 5AB2     		sxtb	r2, r3
 785 004c 97F90730 		ldrsb	r3, [r7, #7]
 786 0050 1343     		orrs	r3, r3, r2
 787 0052 5BB2     		sxtb	r3, r3
 788 0054 DBB2     		uxtb	r3, r3
 789 0056 0B70     		strb	r3, [r1]
 790 0058 2DE0     		b	.L51
 791              	.L50:
 432:Generated_Source\PSoC5/Clock_1.c ****     }
 433:Generated_Source\PSoC5/Clock_1.c ****     else if (((oldSrc == ((uint8)CYCLK_SRC_SEL_CLK_SYNC_D)) && 
 792              		.loc 1 433 0
 793 005a 7B7B     		ldrb	r3, [r7, #13]	@ zero_extendqisi2
 794 005c 002B     		cmp	r3, #0
 795 005e 1CD1     		bne	.L52
 796              		.loc 1 433 0 is_stmt 0 discriminator 1
 797 0060 FB79     		ldrb	r3, [r7, #7]	@ zero_extendqisi2
 798 0062 002B     		cmp	r3, #0
 799 0064 19D0     		beq	.L52
 434:Generated_Source\PSoC5/Clock_1.c ****             (clkSource != ((uint8)CYCLK_SRC_SEL_CLK_SYNC_D))) && (currDiv == 0u))
 800              		.loc 1 434 0 is_stmt 1
 801 0066 FB89     		ldrh	r3, [r7, #14]
 802 0068 002B     		cmp	r3, #0
 803 006a 16D1     		bne	.L52
 435:Generated_Source\PSoC5/Clock_1.c ****     {
 436:Generated_Source\PSoC5/Clock_1.c ****         /* Switching from Master to not and divider is 1, set source, so we don't   */
 437:Generated_Source\PSoC5/Clock_1.c ****         /* lock when we clear SSS.                                                  */
 438:Generated_Source\PSoC5/Clock_1.c ****         Clock_1_MOD_SRC =
 804              		.loc 1 438 0
 805 006c 1449     		ldr	r1, .L53
 439:Generated_Source\PSoC5/Clock_1.c ****             (Clock_1_MOD_SRC & (uint8)(~Clock_1_SRC_SEL_MSK)) | clkSource;
 806              		.loc 1 439 0
 807 006e 144B     		ldr	r3, .L53
 808 0070 1B78     		ldrb	r3, [r3]
 809 0072 DBB2     		uxtb	r3, r3
ARM GAS  C:\Users\HPz420\AppData\Local\Temp\cchCdHFa.s 			page 23


 438:Generated_Source\PSoC5/Clock_1.c ****             (Clock_1_MOD_SRC & (uint8)(~Clock_1_SRC_SEL_MSK)) | clkSource;
 810              		.loc 1 438 0
 811 0074 5BB2     		sxtb	r3, r3
 812 0076 23F00703 		bic	r3, r3, #7
 813 007a 5AB2     		sxtb	r2, r3
 814 007c 97F90730 		ldrsb	r3, [r7, #7]
 815 0080 1343     		orrs	r3, r3, r2
 816 0082 5BB2     		sxtb	r3, r3
 817 0084 DBB2     		uxtb	r3, r3
 818 0086 0B70     		strb	r3, [r1]
 440:Generated_Source\PSoC5/Clock_1.c ****         Clock_1_MOD_SRC &= (uint8)(~CYCLK_SSS);
 819              		.loc 1 440 0
 820 0088 0D4A     		ldr	r2, .L53
 821 008a 0D4B     		ldr	r3, .L53
 822 008c 1B78     		ldrb	r3, [r3]
 823 008e DBB2     		uxtb	r3, r3
 824 0090 23F04003 		bic	r3, r3, #64
 825 0094 DBB2     		uxtb	r3, r3
 826 0096 1370     		strb	r3, [r2]
 827 0098 0DE0     		b	.L51
 828              	.L52:
 441:Generated_Source\PSoC5/Clock_1.c ****     }
 442:Generated_Source\PSoC5/Clock_1.c ****     else
 443:Generated_Source\PSoC5/Clock_1.c ****     {
 444:Generated_Source\PSoC5/Clock_1.c ****         Clock_1_MOD_SRC =
 829              		.loc 1 444 0
 830 009a 0949     		ldr	r1, .L53
 445:Generated_Source\PSoC5/Clock_1.c ****             (Clock_1_MOD_SRC & (uint8)(~Clock_1_SRC_SEL_MSK)) | clkSource;
 831              		.loc 1 445 0
 832 009c 084B     		ldr	r3, .L53
 833 009e 1B78     		ldrb	r3, [r3]
 834 00a0 DBB2     		uxtb	r3, r3
 444:Generated_Source\PSoC5/Clock_1.c ****             (Clock_1_MOD_SRC & (uint8)(~Clock_1_SRC_SEL_MSK)) | clkSource;
 835              		.loc 1 444 0
 836 00a2 5BB2     		sxtb	r3, r3
 837 00a4 23F00703 		bic	r3, r3, #7
 838 00a8 5AB2     		sxtb	r2, r3
 839 00aa 97F90730 		ldrsb	r3, [r7, #7]
 840 00ae 1343     		orrs	r3, r3, r2
 841 00b0 5BB2     		sxtb	r3, r3
 842 00b2 DBB2     		uxtb	r3, r3
 843 00b4 0B70     		strb	r3, [r1]
 844              	.L51:
 446:Generated_Source\PSoC5/Clock_1.c ****     }
 447:Generated_Source\PSoC5/Clock_1.c **** }
 845              		.loc 1 447 0
 846 00b6 00BF     		nop
 847 00b8 1037     		adds	r7, r7, #16
 848              		.cfi_def_cfa_offset 8
 849 00ba BD46     		mov	sp, r7
 850              		.cfi_def_cfa_register 13
 851              		@ sp needed
 852 00bc 80BD     		pop	{r7, pc}
 853              	.L54:
 854 00be 00BF     		.align	2
 855              	.L53:
 856 00c0 86400040 		.word	1073758342
ARM GAS  C:\Users\HPz420\AppData\Local\Temp\cchCdHFa.s 			page 24


 857              		.cfi_endproc
 858              	.LFE9:
 859              		.size	Clock_1_SetSourceRegister, .-Clock_1_SetSourceRegister
 860              		.section	.text.Clock_1_GetSourceRegister,"ax",%progbits
 861              		.align	2
 862              		.global	Clock_1_GetSourceRegister
 863              		.thumb
 864              		.thumb_func
 865              		.type	Clock_1_GetSourceRegister, %function
 866              	Clock_1_GetSourceRegister:
 867              	.LFB10:
 448:Generated_Source\PSoC5/Clock_1.c **** 
 449:Generated_Source\PSoC5/Clock_1.c **** 
 450:Generated_Source\PSoC5/Clock_1.c **** /*******************************************************************************
 451:Generated_Source\PSoC5/Clock_1.c **** * Function Name: Clock_1_GetSourceRegister
 452:Generated_Source\PSoC5/Clock_1.c **** ********************************************************************************
 453:Generated_Source\PSoC5/Clock_1.c **** *
 454:Generated_Source\PSoC5/Clock_1.c **** * Summary:
 455:Generated_Source\PSoC5/Clock_1.c **** *  Gets the input source of the clock.
 456:Generated_Source\PSoC5/Clock_1.c **** *
 457:Generated_Source\PSoC5/Clock_1.c **** * Parameters:
 458:Generated_Source\PSoC5/Clock_1.c **** *  None
 459:Generated_Source\PSoC5/Clock_1.c **** *
 460:Generated_Source\PSoC5/Clock_1.c **** * Returns:
 461:Generated_Source\PSoC5/Clock_1.c **** *  The input source of the clock. See SetSourceRegister for details.
 462:Generated_Source\PSoC5/Clock_1.c **** *
 463:Generated_Source\PSoC5/Clock_1.c **** *******************************************************************************/
 464:Generated_Source\PSoC5/Clock_1.c **** uint8 Clock_1_GetSourceRegister(void) 
 465:Generated_Source\PSoC5/Clock_1.c **** {
 868              		.loc 1 465 0
 869              		.cfi_startproc
 870              		@ args = 0, pretend = 0, frame = 0
 871              		@ frame_needed = 1, uses_anonymous_args = 0
 872              		@ link register save eliminated.
 873 0000 80B4     		push	{r7}
 874              		.cfi_def_cfa_offset 4
 875              		.cfi_offset 7, -4
 876 0002 00AF     		add	r7, sp, #0
 877              		.cfi_def_cfa_register 7
 466:Generated_Source\PSoC5/Clock_1.c ****     return Clock_1_MOD_SRC & Clock_1_SRC_SEL_MSK;
 878              		.loc 1 466 0
 879 0004 044B     		ldr	r3, .L57
 880 0006 1B78     		ldrb	r3, [r3]
 881 0008 DBB2     		uxtb	r3, r3
 882 000a 03F00703 		and	r3, r3, #7
 883 000e DBB2     		uxtb	r3, r3
 467:Generated_Source\PSoC5/Clock_1.c **** }
 884              		.loc 1 467 0
 885 0010 1846     		mov	r0, r3
 886 0012 BD46     		mov	sp, r7
 887              		.cfi_def_cfa_register 13
 888              		@ sp needed
 889 0014 80BC     		pop	{r7}
 890              		.cfi_restore 7
 891              		.cfi_def_cfa_offset 0
 892 0016 7047     		bx	lr
 893              	.L58:
ARM GAS  C:\Users\HPz420\AppData\Local\Temp\cchCdHFa.s 			page 25


 894              		.align	2
 895              	.L57:
 896 0018 86400040 		.word	1073758342
 897              		.cfi_endproc
 898              	.LFE10:
 899              		.size	Clock_1_GetSourceRegister, .-Clock_1_GetSourceRegister
 900              		.text
 901              	.Letext0:
 902              		.file 2 "Generated_Source\\PSoC5/cytypes.h"