ARM GAS  C:\Users\HPz420\AppData\Local\Temp\cczyCxcG.s 			page 1


   1              		.syntax unified
   2              		.cpu cortex-m3
   3              		.fpu softvfp
   4              		.eabi_attribute 20, 1
   5              		.eabi_attribute 21, 1
   6              		.eabi_attribute 23, 3
   7              		.eabi_attribute 24, 1
   8              		.eabi_attribute 25, 1
   9              		.eabi_attribute 26, 1
  10              		.eabi_attribute 30, 6
  11              		.eabi_attribute 34, 1
  12              		.eabi_attribute 18, 4
  13              		.thumb
  14              		.syntax unified
  15              		.file	"main.c"
  16              		.text
  17              	.Ltext0:
  18              		.cfi_sections	.debug_frame
  19              		.comm	NSDSPI_bEnableDMA,1,1
  20              		.comm	NSDSPI_RX_Chan,1,1
  21              		.comm	NSDSPI_RX_TD,1,4
  22              		.comm	NSDSPI_TX_Chan,1,1
  23              		.comm	NSDSPI_TX_TD,1,4
  24              		.comm	NSDSPI_g_nTransferFlags,1,1
  25              		.comm	NSDSPI_g_nCtrlState,1,1
  26              		.global	nmillis
  27              		.bss
  28              		.align	2
  29              		.type	nmillis, %object
  30              		.size	nmillis, 4
  31              	nmillis:
  32 0000 00000000 		.space	4
  33              		.section	.text.MillisISR,"ax",%progbits
  34              		.align	2
  35              		.global	MillisISR
  36              		.thumb
  37              		.thumb_func
  38              		.type	MillisISR, %function
  39              	MillisISR:
  40              	.LFB56:
  41              		.file 1 "main.c"
   1:main.c        **** /* ========================================
   2:main.c        ****  * Example project for NSDSPI component.
   3:main.c        ****  * DMA - capable SD card interface with FatFS
   4:main.c        ****  * Filesystem integrated as GCC Cortex M3
   5:main.c        ****  * library. Intended for PSoC 5 series
   6:main.c        ****  *
   7:main.c        ****  * Performs read/write benchmarks and writes
   8:main.c        ****  * results to SD card (BACKUP SD CARD FIRST
   9:main.c        ****  * IF YOU HAVE IMPORTANT FILES ON IT! I
  10:main.c        ****  * cannot promise this won't scramble your
  11:main.c        ****  * SD card!)
  12:main.c        ****  *
  13:main.c        ****  * This example shows how to start component
  14:main.c        ****  * and filesystem, how to enable DMA mode,
  15:main.c        ****  * and how to read / write files.
  16:main.c        ****  * See FatFS online documentation for more
ARM GAS  C:\Users\HPz420\AppData\Local\Temp\cczyCxcG.s 			page 2


  17:main.c        ****  * information regarding the FatFS API
  18:main.c        ****  * http://elm-chan.org/fsw/ff/00index_e.html
  19:main.c        ****  *
  20:main.c        ****  * ========================================
  21:main.c        **** */
  22:main.c        **** /*---------------------------------------------------------------------------/
  23:main.c        **** / FatFs module is a free software that opened under license policy of
  24:main.c        **** / following conditions.
  25:main.c        **** /
  26:main.c        **** / Copyright (C) 2015, ChaN, all right reserved.
  27:main.c        **** /
  28:main.c        **** / 1. Redistributions of source code must retain the above copyright notice,
  29:main.c        **** /    this condition and the following disclaimer.
  30:main.c        **** /
  31:main.c        **** / This software is provided by the copyright holder and contributors "AS IS"
  32:main.c        **** / and any warranties related to this software are DISCLAIMED.
  33:main.c        **** / The copyright owner or contributors be NOT LIABLE for any damages caused
  34:main.c        **** / by use of this software.
  35:main.c        **** /---------------------------------------------------------------------------*/
  36:main.c        **** 
  37:main.c        **** #include <project.h>
  38:main.c        **** #include "string.h"
  39:main.c        **** 
  40:main.c        **** volatile unsigned long nmillis = 0; //used for time measurement
  41:main.c        **** 
  42:main.c        **** void MillisISR()
  43:main.c        **** {
  42              		.loc 1 43 0
  43              		.cfi_startproc
  44              		@ args = 0, pretend = 0, frame = 0
  45              		@ frame_needed = 1, uses_anonymous_args = 0
  46 0000 80B5     		push	{r7, lr}
  47              		.cfi_def_cfa_offset 8
  48              		.cfi_offset 7, -8
  49              		.cfi_offset 14, -4
  50 0002 00AF     		add	r7, sp, #0
  51              		.cfi_def_cfa_register 7
  44:main.c        ****     nmillis++;          //used for time measurements
  52              		.loc 1 44 0
  53 0004 044B     		ldr	r3, .L2
  54 0006 1B68     		ldr	r3, [r3]
  55 0008 0133     		adds	r3, r3, #1
  56 000a 034A     		ldr	r2, .L2
  57 000c 1360     		str	r3, [r2]
  45:main.c        ****     disk_timerproc();   //MUST attach this to 1kHz interrupt for file system timeouts to work
  58              		.loc 1 45 0
  59 000e FFF7FEFF 		bl	disk_timerproc
  46:main.c        **** }
  60              		.loc 1 46 0
  61 0012 00BF     		nop
  62 0014 80BD     		pop	{r7, pc}
  63              	.L3:
  64 0016 00BF     		.align	2
  65              	.L2:
  66 0018 00000000 		.word	nmillis
  67              		.cfi_endproc
  68              	.LFE56:
ARM GAS  C:\Users\HPz420\AppData\Local\Temp\cczyCxcG.s 			page 3


  69              		.size	MillisISR, .-MillisISR
  70              		.section	.text.SDCARD_FAST,"ax",%progbits
  71              		.align	2
  72              		.global	SDCARD_FAST
  73              		.thumb
  74              		.thumb_func
  75              		.type	SDCARD_FAST, %function
  76              	SDCARD_FAST:
  77              	.LFB57:
  47:main.c        **** 
  48:main.c        **** void SDCARD_FAST()
  49:main.c        **** {
  78              		.loc 1 49 0
  79              		.cfi_startproc
  80              		@ args = 0, pretend = 0, frame = 0
  81              		@ frame_needed = 1, uses_anonymous_args = 0
  82 0000 80B5     		push	{r7, lr}
  83              		.cfi_def_cfa_offset 8
  84              		.cfi_offset 7, -8
  85              		.cfi_offset 14, -4
  86 0002 00AF     		add	r7, sp, #0
  87              		.cfi_def_cfa_register 7
  50:main.c        ****     SD_CLK_SetDivider(3); //This should work even at 79.5 MHz clock, giving (79.5/5) MHz bitrate
  88              		.loc 1 50 0
  89 0004 0121     		movs	r1, #1
  90 0006 0320     		movs	r0, #3
  91 0008 FFF7FEFF 		bl	SD_CLK_SetDividerRegister
  51:main.c        ****     //this can push up to 10.6 Mbps reads in my tests so far, and 5.3 Mbps writes (possibly faster 
  52:main.c        **** }
  92              		.loc 1 52 0
  93 000c 00BF     		nop
  94 000e 80BD     		pop	{r7, pc}
  95              		.cfi_endproc
  96              	.LFE57:
  97              		.size	SDCARD_FAST, .-SDCARD_FAST
  98              		.section	.text.SDCARD_SLOW,"ax",%progbits
  99              		.align	2
 100              		.global	SDCARD_SLOW
 101              		.thumb
 102              		.thumb_func
 103              		.type	SDCARD_SLOW, %function
 104              	SDCARD_SLOW:
 105              	.LFB58:
  53:main.c        **** 
  54:main.c        **** void SDCARD_SLOW()
  55:main.c        **** {
 106              		.loc 1 55 0
 107              		.cfi_startproc
 108              		@ args = 0, pretend = 0, frame = 0
 109              		@ frame_needed = 1, uses_anonymous_args = 0
 110 0000 80B5     		push	{r7, lr}
 111              		.cfi_def_cfa_offset 8
 112              		.cfi_offset 7, -8
 113              		.cfi_offset 14, -4
 114 0002 00AF     		add	r7, sp, #0
 115              		.cfi_def_cfa_register 7
  56:main.c        ****     SD_CLK_SetDivider(200);   //SD card must be initialised at max. 400 kHz
ARM GAS  C:\Users\HPz420\AppData\Local\Temp\cczyCxcG.s 			page 4


 116              		.loc 1 56 0
 117 0004 0121     		movs	r1, #1
 118 0006 C820     		movs	r0, #200
 119 0008 FFF7FEFF 		bl	SD_CLK_SetDividerRegister
  57:main.c        **** }
 120              		.loc 1 57 0
 121 000c 00BF     		nop
 122 000e 80BD     		pop	{r7, pc}
 123              		.cfi_endproc
 124              	.LFE58:
 125              		.size	SDCARD_SLOW, .-SDCARD_SLOW
 126              		.section	.text.PrintFxn,"ax",%progbits
 127              		.align	2
 128              		.global	PrintFxn
 129              		.thumb
 130              		.thumb_func
 131              		.type	PrintFxn, %function
 132              	PrintFxn:
 133              	.LFB59:
  58:main.c        **** 
  59:main.c        **** void PrintFxn(char* pString)
  60:main.c        **** {
 134              		.loc 1 60 0
 135              		.cfi_startproc
 136              		@ args = 0, pretend = 0, frame = 8
 137              		@ frame_needed = 1, uses_anonymous_args = 0
 138              		@ link register save eliminated.
 139 0000 80B4     		push	{r7}
 140              		.cfi_def_cfa_offset 4
 141              		.cfi_offset 7, -4
 142 0002 83B0     		sub	sp, sp, #12
 143              		.cfi_def_cfa_offset 16
 144 0004 00AF     		add	r7, sp, #0
 145              		.cfi_def_cfa_register 7
 146 0006 7860     		str	r0, [r7, #4]
  61:main.c        ****     //Only used for test purposes! If you attach this to a print routine for your system,
  62:main.c        ****     //you should see output when you run the function: scan_files()
  63:main.c        ****     //e.g.
  64:main.c        ****     //  char path[512];     //create buffer
  65:main.c        ****     //  sprintf(path, "/"); //set to root path
  66:main.c        ****     //  scan_files(path);   //run scan_files to test that the card seems to be working by listing f
  67:main.c        **** }
 147              		.loc 1 67 0
 148 0008 00BF     		nop
 149 000a 0C37     		adds	r7, r7, #12
 150              		.cfi_def_cfa_offset 4
 151 000c BD46     		mov	sp, r7
 152              		.cfi_def_cfa_register 13
 153              		@ sp needed
 154 000e 80BC     		pop	{r7}
 155              		.cfi_restore 7
 156              		.cfi_def_cfa_offset 0
 157 0010 7047     		bx	lr
 158              		.cfi_endproc
 159              	.LFE59:
 160              		.size	PrintFxn, .-PrintFxn
 161 0012 00BF     		.section	.rodata
ARM GAS  C:\Users\HPz420\AppData\Local\Temp\cczyCxcG.s 			page 5


 162              		.align	2
 163              	.LC0:
 164 0000 2F00     		.ascii	"/\000"
 165 0002 0000     		.align	2
 166              	.LC1:
 167 0004 2F2F7465 		.ascii	"//test.txt\000"
 167      73742E74 
 167      787400
 168 000f 00       		.align	2
 169              	.LC2:
 170 0010 54657374 		.ascii	"Testing Speed\012\000"
 170      696E6720 
 170      53706565 
 170      640A00
 171              		.global	__aeabi_d2iz
 172              		.global	__aeabi_dmul
 173              		.global	__aeabi_dadd
 174              		.global	__aeabi_dcmplt
 175 001f 00       		.align	2
 176              	.LC3:
 177 0020 57726974 		.ascii	"Writing %d bytes to file, non-DMA\012\000"
 177      696E6720 
 177      25642062 
 177      79746573 
 177      20746F20 
 178 0043 00       		.align	2
 179              	.LC4:
 180 0044 2F2F6269 		.ascii	"//binarray.bin\000"
 180      6E617272 
 180      61792E62 
 180      696E00
 181 0053 00       		.align	2
 182              	.LC5:
 183 0054 546F6F6B 		.ascii	"Took %lu ms\012\000"
 183      20256C75 
 183      206D730A 
 183      00
 184 0061 000000   		.align	2
 185              	.LC6:
 186 0064 52617465 		.ascii	"Rate %lu kbps\012\012\000"
 186      20256C75 
 186      206B6270 
 186      730A0A00 
 187              		.align	2
 188              	.LC7:
 189 0074 52656164 		.ascii	"Reading %d bytes to file, non-DMA\012\000"
 189      696E6720 
 189      25642062 
 189      79746573 
 189      20746F20 
 190 0097 00       		.align	2
 191              	.LC8:
 192 0098 546F6F6B 		.ascii	"Took %lu ms\012Verifying...\000"
 192      20256C75 
 192      206D730A 
 192      56657269 
 192      6679696E 
ARM GAS  C:\Users\HPz420\AppData\Local\Temp\cczyCxcG.s 			page 6


 193              		.global	__aeabi_dcmpeq
 194 00b1 000000   		.align	2
 195              	.LC9:
 196 00b4 4641494C 		.ascii	"FAIL :O\012\000"
 196      203A4F0A 
 196      00
 197 00bd 000000   		.align	2
 198              	.LC10:
 199 00c0 20416C6C 		.ascii	" All Good! :D\012\000"
 199      20476F6F 
 199      6421203A 
 199      440A00
 200 00cf 00       		.align	2
 201              	.LC11:
 202 00d0 57726974 		.ascii	"Writing %d bytes to file, DMA\012\000"
 202      696E6720 
 202      25642062 
 202      79746573 
 202      20746F20 
 203 00ef 00       		.align	2
 204              	.LC12:
 205 00f0 2F2F6269 		.ascii	"//binarrayDMA.bin\000"
 205      6E617272 
 205      6179444D 
 205      412E6269 
 205      6E00
 206 0102 0000     		.align	2
 207              	.LC13:
 208 0104 52656164 		.ascii	"Reading %d bytes to file, DMA\012\000"
 208      696E6720 
 208      25642062 
 208      79746573 
 208      20746F20 
 209              		.section	.text.main,"ax",%progbits
 210              		.align	2
 211              		.global	main
 212              		.thumb
 213              		.thumb_func
 214              		.type	main, %function
 215              	main:
 216              	.LFB60:
  68:main.c        **** 
  69:main.c        **** #define BUFFER_SIZE 16000   //Test buffer size. This will be read/written
  70:main.c        **** 
  71:main.c        **** int main()
  72:main.c        **** {
 217              		.loc 1 72 0
 218              		.cfi_startproc
 219              		@ args = 0, pretend = 0, frame = 17792
 220              		@ frame_needed = 1, uses_anonymous_args = 0
 221 0000 B0B5     		push	{r4, r5, r7, lr}
 222              		.cfi_def_cfa_offset 16
 223              		.cfi_offset 4, -16
 224              		.cfi_offset 5, -12
 225              		.cfi_offset 7, -8
 226              		.cfi_offset 14, -4
 227 0002 ADF58B4D 		sub	sp, sp, #17792
ARM GAS  C:\Users\HPz420\AppData\Local\Temp\cczyCxcG.s 			page 7


 228              		.cfi_def_cfa_offset 17808
 229 0006 00AF     		add	r7, sp, #0
 230              		.cfi_def_cfa_register 7
  73:main.c        ****     CyGlobalIntEnable;              //Enable interrupts
 231              		.loc 1 73 0
 232              		.syntax unified
 233              	@ 73 "main.c" 1
 234 0008 62B6     		CPSIE   i
 235              	@ 0 "" 2
  74:main.c        ****     
  75:main.c        ****     MillisecISR_StartEx(MillisISR); //start millisec ISR
 236              		.loc 1 75 0
 237              		.thumb
 238              		.syntax unified
 239 000a 4F48     		ldr	r0, .L42
 240 000c FFF7FEFF 		bl	MillisecISR_StartEx
  76:main.c        ****     
  77:main.c        ****     NSDSPI_Start(SDCARD_SLOW, SDCARD_FAST, PrintFxn);   //Initialise SD card and file system (note:
 241              		.loc 1 77 0
 242 0010 4E4A     		ldr	r2, .L42+4
 243 0012 4F49     		ldr	r1, .L42+8
 244 0014 4F48     		ldr	r0, .L42+12
 245 0016 FFF7FEFF 		bl	NSDSPI_Start
  78:main.c        ****     
  79:main.c        ****     
  80:main.c        ****     FATFS FileSys;          //this will be our mounted file system
  81:main.c        ****     disk_initialize(0);     //initialise FatFS
 246              		.loc 1 81 0
 247 001a 0020     		movs	r0, #0
 248 001c FFF7FEFF 		bl	disk_initialize
  82:main.c        **** 
  83:main.c        ****     //and mount. Note: if/else and case statements below allow identification of status. 
  84:main.c        ****     //in this example, I just assume everything went ok, and have left the below for reference.
  85:main.c        ****     FRESULT nRes;
  86:main.c        ****     if((nRes = f_mount(&FileSys, "/", 1)) != FR_OK) //Fail to mount...
 249              		.loc 1 86 0
 250 0020 07F58643 		add	r3, r7, #17152
 251 0024 03F13803 		add	r3, r3, #56
 252 0028 0122     		movs	r2, #1
 253 002a 4B49     		ldr	r1, .L42+16
 254 002c 1846     		mov	r0, r3
 255 002e FFF7FEFF 		bl	f_mount
 256 0032 0346     		mov	r3, r0
 257 0034 07F58A42 		add	r2, r7, #17664
 258 0038 02F17602 		add	r2, r2, #118
 259 003c 1370     		strb	r3, [r2]
 260 003e 07F58A43 		add	r3, r7, #17664
 261 0042 03F17603 		add	r3, r3, #118
 262 0046 1B78     		ldrb	r3, [r3]	@ zero_extendqisi2
 263 0048 002B     		cmp	r3, #0
 264 004a 25D0     		beq	.L8
  87:main.c        ****     {
  88:main.c        ****         switch(nRes)    //reasons...
 265              		.loc 1 88 0
 266 004c 07F58A43 		add	r3, r7, #17664
 267 0050 03F17603 		add	r3, r3, #118
 268 0054 1B78     		ldrb	r3, [r3]	@ zero_extendqisi2
ARM GAS  C:\Users\HPz420\AppData\Local\Temp\cczyCxcG.s 			page 8


 269 0056 013B     		subs	r3, r3, #1
 270 0058 0C2B     		cmp	r3, #12
 271 005a 29D8     		bhi	.L38
 272 005c 01A2     		adr	r2, .L11
 273 005e 52F823F0 		ldr	pc, [r2, r3, lsl #2]
 274 0062 00BF     		.p2align 2
 275              	.L11:
 276 0064 B1000000 		.word	.L38+1
 277 0068 B1000000 		.word	.L38+1
 278 006c B1000000 		.word	.L38+1
 279 0070 B1000000 		.word	.L38+1
 280 0074 B1000000 		.word	.L38+1
 281 0078 B1000000 		.word	.L38+1
 282 007c B1000000 		.word	.L38+1
 283 0080 B1000000 		.word	.L38+1
 284 0084 B1000000 		.word	.L38+1
 285 0088 B1000000 		.word	.L38+1
 286 008c B1000000 		.word	.L38+1
 287 0090 B1000000 		.word	.L38+1
 288 0094 B1000000 		.word	.L38+1
 289              		.p2align 1
 290              	.L8:
  89:main.c        ****         {
  90:main.c        ****             case FR_INVALID_DRIVE: break;
  91:main.c        ****             case FR_DISK_ERR: break;
  92:main.c        ****             case FR_NOT_READY: break;
  93:main.c        ****             case FR_NO_FILESYSTEM: break;
  94:main.c        ****             default: break;
  95:main.c        ****         }
  96:main.c        ****     }
  97:main.c        **** 
  98:main.c        ****     else    //Mounted
  99:main.c        ****     {
 100:main.c        ****         switch(FileSys.fs_type) //In case filesys type is of interest
 291              		.loc 1 100 0
 292 0098 07F58643 		add	r3, r7, #17152
 293 009c 03F13803 		add	r3, r3, #56
 294 00a0 1B78     		ldrb	r3, [r3]	@ zero_extendqisi2
 295 00a2 022B     		cmp	r3, #2
 296 00a4 06D0     		beq	.L39
 297 00a6 032B     		cmp	r3, #3
 298 00a8 06D0     		beq	.L40
 299 00aa 012B     		cmp	r3, #1
 300 00ac 06D0     		beq	.L41
 101:main.c        ****         {
 102:main.c        ****             case FS_FAT12: break;
 103:main.c        ****             case FS_FAT16: break;
 104:main.c        ****             case FS_FAT32: break;
 105:main.c        ****             default: break;
 301              		.loc 1 105 0
 302 00ae 06E0     		b	.L16
 303              	.L38:
  94:main.c        ****         }
 304              		.loc 1 94 0
 305 00b0 00BF     		nop
 306 00b2 04E0     		b	.L16
 307              	.L39:
ARM GAS  C:\Users\HPz420\AppData\Local\Temp\cczyCxcG.s 			page 9


 103:main.c        ****             case FS_FAT32: break;
 308              		.loc 1 103 0
 309 00b4 00BF     		nop
 310 00b6 02E0     		b	.L16
 311              	.L40:
 104:main.c        ****             default: break;
 312              		.loc 1 104 0
 313 00b8 00BF     		nop
 314 00ba 00E0     		b	.L16
 315              	.L41:
 102:main.c        ****             case FS_FAT16: break;
 316              		.loc 1 102 0
 317 00bc 00BF     		nop
 318              	.L16:
 106:main.c        ****         }
 107:main.c        ****     }    
 108:main.c        ****     
 109:main.c        ****     //Now for the benchmarking step...
 110:main.c        ****     NSDSPI_SetDMAMode(0);    
 319              		.loc 1 110 0
 320 00be 0020     		movs	r0, #0
 321 00c0 FFF7FEFF 		bl	NSDSPI_SetDMAMode
 111:main.c        ****    
 112:main.c        ****     //Open a file and write "Testing Output" to it
 113:main.c        ****     FIL File;
 114:main.c        ****     f_open(&File, "//test.txt", FA_CREATE_ALWAYS | FA_WRITE);
 322              		.loc 1 114 0
 323 00c4 07F58243 		add	r3, r7, #16640
 324 00c8 03F11403 		add	r3, r3, #20
 325 00cc 0A22     		movs	r2, #10
 326 00ce 2349     		ldr	r1, .L42+20
 327 00d0 1846     		mov	r0, r3
 328 00d2 FFF7FEFF 		bl	f_open
 115:main.c        ****     char tmpchr[100];
 116:main.c        ****     UINT BytesWritten, BytesRead;
 117:main.c        ****     sprintf(tmpchr, "Testing Speed\n");
 329              		.loc 1 117 0
 330 00d6 07F58143 		add	r3, r7, #16512
 331 00da 03F13003 		add	r3, r3, #48
 332 00de 204A     		ldr	r2, .L42+24
 333 00e0 1C46     		mov	r4, r3
 334 00e2 1346     		mov	r3, r2
 335 00e4 0FCB     		ldmia	r3, {r0, r1, r2, r3}
 336 00e6 07C4     		stmia	r4!, {r0, r1, r2}
 337 00e8 2380     		strh	r3, [r4]	@ movhi
 338 00ea 0234     		adds	r4, r4, #2
 339 00ec 1B0C     		lsrs	r3, r3, #16
 340 00ee 2370     		strb	r3, [r4]
 118:main.c        ****     f_write(&File, tmpchr, strlen(tmpchr), &BytesWritten);
 341              		.loc 1 118 0
 342 00f0 07F58143 		add	r3, r7, #16512
 343 00f4 03F13003 		add	r3, r3, #48
 344 00f8 1846     		mov	r0, r3
 345 00fa FFF7FEFF 		bl	strlen
 346 00fe 0246     		mov	r2, r0
 347 0100 07F58143 		add	r3, r7, #16512
 348 0104 03F12C03 		add	r3, r3, #44
ARM GAS  C:\Users\HPz420\AppData\Local\Temp\cczyCxcG.s 			page 10


 349 0108 07F58141 		add	r1, r7, #16512
 350 010c 01F13001 		add	r1, r1, #48
 351 0110 07F58240 		add	r0, r7, #16640
 352 0114 00F11400 		add	r0, r0, #20
 353 0118 FFF7FEFF 		bl	f_write
 119:main.c        **** 
 120:main.c        ****     //generate dataset...
 121:main.c        ****     double vals[BUFFER_SIZE/sizeof(double)];
 122:main.c        ****     double i = 0;
 354              		.loc 1 122 0
 355 011c 4FF00003 		mov	r3, #0
 356 0120 4FF00004 		mov	r4, #0
 357 0124 07F58A42 		add	r2, r7, #17664
 358 0128 02F17802 		add	r2, r2, #120
 359 012c C2E90034 		strd	r3, [r2]
 123:main.c        ****     for(i = 0; i < BUFFER_SIZE/sizeof(double); i++)
 360              		.loc 1 123 0
 361 0130 4FF00003 		mov	r3, #0
 362 0134 4FF00004 		mov	r4, #0
 363 0138 07F58A42 		add	r2, r7, #17664
 364 013c 02F17802 		add	r2, r2, #120
 365 0140 C2E90034 		strd	r3, [r2]
 366 0144 43E0     		b	.L21
 367              	.L43:
 368 0146 00BF     		.align	2
 369              	.L42:
 370 0148 00000000 		.word	MillisISR
 371 014c 00000000 		.word	PrintFxn
 372 0150 00000000 		.word	SDCARD_FAST
 373 0154 00000000 		.word	SDCARD_SLOW
 374 0158 00000000 		.word	.LC0
 375 015c 04000000 		.word	.LC1
 376 0160 10000000 		.word	.LC2
 377              	.L22:
 124:main.c        ****     {
 125:main.c        ****         vals[(int)i] = i*i;
 378              		.loc 1 125 0 discriminator 3
 379 0164 07F58A43 		add	r3, r7, #17664
 380 0168 03F17803 		add	r3, r3, #120
 381 016c D3E90001 		ldrd	r0, [r3]
 382 0170 FFF7FEFF 		bl	__aeabi_d2iz
 383 0174 0446     		mov	r4, r0
 384 0176 07F58A43 		add	r3, r7, #17664
 385 017a 03F17803 		add	r3, r3, #120
 386 017e D3E90023 		ldrd	r2, [r3]
 387 0182 07F58A41 		add	r1, r7, #17664
 388 0186 01F17801 		add	r1, r1, #120
 389 018a D1E90001 		ldrd	r0, [r1]
 390 018e FFF7FEFF 		bl	__aeabi_dmul
 391 0192 0246     		mov	r2, r0
 392 0194 0B46     		mov	r3, r1
 393 0196 1146     		mov	r1, r2
 394 0198 1A46     		mov	r2, r3
 395 019a 07F52073 		add	r3, r7, #640
 396 019e 583B     		subs	r3, r3, #88
 397 01a0 E000     		lsls	r0, r4, #3
 398 01a2 0344     		add	r3, r3, r0
ARM GAS  C:\Users\HPz420\AppData\Local\Temp\cczyCxcG.s 			page 11


 399 01a4 C3E90012 		strd	r1, [r3]
 123:main.c        ****     for(i = 0; i < BUFFER_SIZE/sizeof(double); i++)
 400              		.loc 1 123 0 discriminator 3
 401 01a8 4FF00002 		mov	r2, #0
 402 01ac D24B     		ldr	r3, .L44
 403 01ae 07F58A41 		add	r1, r7, #17664
 404 01b2 01F17801 		add	r1, r1, #120
 405 01b6 D1E90001 		ldrd	r0, [r1]
 406 01ba FFF7FEFF 		bl	__aeabi_dadd
 407 01be 0346     		mov	r3, r0
 408 01c0 0C46     		mov	r4, r1
 409 01c2 07F58A42 		add	r2, r7, #17664
 410 01c6 02F17802 		add	r2, r2, #120
 411 01ca C2E90034 		strd	r3, [r2]
 412              	.L21:
 123:main.c        ****     for(i = 0; i < BUFFER_SIZE/sizeof(double); i++)
 413              		.loc 1 123 0 is_stmt 0 discriminator 1
 414 01ce 4FF00002 		mov	r2, #0
 415 01d2 CA4B     		ldr	r3, .L44+4
 416 01d4 07F58A41 		add	r1, r7, #17664
 417 01d8 01F17801 		add	r1, r1, #120
 418 01dc D1E90001 		ldrd	r0, [r1]
 419 01e0 FFF7FEFF 		bl	__aeabi_dcmplt
 420 01e4 0346     		mov	r3, r0
 421 01e6 002B     		cmp	r3, #0
 422 01e8 BCD1     		bne	.L22
 126:main.c        ****     }
 127:main.c        **** 
 128:main.c        ****     
 129:main.c        ****     //First, we'll write the dataset to a file in the root direcory, time the operation, then
 130:main.c        ****     //output results to test.txt in the SD card root.
 131:main.c        ****     
 132:main.c        ****     //Indicate in test.txt what we're doing
 133:main.c        ****     sprintf(tmpchr, "Writing %d bytes to file, non-DMA\n", BUFFER_SIZE);
 423              		.loc 1 133 0 is_stmt 1
 424 01ea 07F58143 		add	r3, r7, #16512
 425 01ee 03F13003 		add	r3, r3, #48
 426 01f2 4FF47A52 		mov	r2, #16000
 427 01f6 C249     		ldr	r1, .L44+8
 428 01f8 1846     		mov	r0, r3
 429 01fa FFF7FEFF 		bl	sprintf
 134:main.c        ****     f_write(&File, tmpchr, strlen(tmpchr), &BytesWritten);
 430              		.loc 1 134 0
 431 01fe 07F58143 		add	r3, r7, #16512
 432 0202 03F13003 		add	r3, r3, #48
 433 0206 1846     		mov	r0, r3
 434 0208 FFF7FEFF 		bl	strlen
 435 020c 0246     		mov	r2, r0
 436 020e 07F58143 		add	r3, r7, #16512
 437 0212 03F12C03 		add	r3, r3, #44
 438 0216 07F58141 		add	r1, r7, #16512
 439 021a 01F13001 		add	r1, r1, #48
 440 021e 07F58240 		add	r0, r7, #16640
 441 0222 00F11400 		add	r0, r0, #20
 442 0226 FFF7FEFF 		bl	f_write
 135:main.c        **** 
 136:main.c        ****     //perform operation
ARM GAS  C:\Users\HPz420\AppData\Local\Temp\cczyCxcG.s 			page 12


 137:main.c        ****     unsigned long nCurrentMillis = nmillis; //get current millisecond count
 443              		.loc 1 137 0
 444 022a B64B     		ldr	r3, .L44+12
 445 022c 1B68     		ldr	r3, [r3]
 446 022e 07F58A42 		add	r2, r7, #17664
 447 0232 02F17002 		add	r2, r2, #112
 448 0236 1360     		str	r3, [r2]
 138:main.c        ****     FIL BinFile;
 139:main.c        ****     f_open(&BinFile, "//binarray.bin", FA_CREATE_ALWAYS | FA_WRITE);
 449              		.loc 1 139 0
 450 0238 07F18003 		add	r3, r7, #128
 451 023c 7C3B     		subs	r3, r3, #124
 452 023e 0A22     		movs	r2, #10
 453 0240 B149     		ldr	r1, .L44+16
 454 0242 1846     		mov	r0, r3
 455 0244 FFF7FEFF 		bl	f_open
 140:main.c        ****     f_write(&BinFile, vals, BUFFER_SIZE, &BytesWritten);
 456              		.loc 1 140 0
 457 0248 07F58143 		add	r3, r7, #16512
 458 024c 03F12C03 		add	r3, r3, #44
 459 0250 07F52071 		add	r1, r7, #640
 460 0254 5839     		subs	r1, r1, #88
 461 0256 07F18000 		add	r0, r7, #128
 462 025a 7C38     		subs	r0, r0, #124
 463 025c 4FF47A52 		mov	r2, #16000
 464 0260 FFF7FEFF 		bl	f_write
 141:main.c        ****     f_close(&BinFile);
 465              		.loc 1 141 0
 466 0264 07F18003 		add	r3, r7, #128
 467 0268 7C3B     		subs	r3, r3, #124
 468 026a 1846     		mov	r0, r3
 469 026c FFF7FEFF 		bl	f_close
 142:main.c        ****     
 143:main.c        ****     //indicate in test.txt how long it took
 144:main.c        ****     unsigned long nTime = nmillis-nCurrentMillis;
 470              		.loc 1 144 0
 471 0270 A44B     		ldr	r3, .L44+12
 472 0272 1A68     		ldr	r2, [r3]
 473 0274 07F58A43 		add	r3, r7, #17664
 474 0278 03F17003 		add	r3, r3, #112
 475 027c 1B68     		ldr	r3, [r3]
 476 027e D31A     		subs	r3, r2, r3
 477 0280 07F58A42 		add	r2, r7, #17664
 478 0284 02F16C02 		add	r2, r2, #108
 479 0288 1360     		str	r3, [r2]
 145:main.c        ****     sprintf(tmpchr, "Took %lu ms\n", nTime);
 480              		.loc 1 145 0
 481 028a 07F58143 		add	r3, r7, #16512
 482 028e 03F13003 		add	r3, r3, #48
 483 0292 07F58A42 		add	r2, r7, #17664
 484 0296 02F16C02 		add	r2, r2, #108
 485 029a 1268     		ldr	r2, [r2]
 486 029c 9B49     		ldr	r1, .L44+20
 487 029e 1846     		mov	r0, r3
 488 02a0 FFF7FEFF 		bl	sprintf
 146:main.c        ****     f_write(&File, tmpchr, strlen(tmpchr), &BytesWritten);
 489              		.loc 1 146 0
ARM GAS  C:\Users\HPz420\AppData\Local\Temp\cczyCxcG.s 			page 13


 490 02a4 07F58143 		add	r3, r7, #16512
 491 02a8 03F13003 		add	r3, r3, #48
 492 02ac 1846     		mov	r0, r3
 493 02ae FFF7FEFF 		bl	strlen
 494 02b2 0246     		mov	r2, r0
 495 02b4 07F58143 		add	r3, r7, #16512
 496 02b8 03F12C03 		add	r3, r3, #44
 497 02bc 07F58141 		add	r1, r7, #16512
 498 02c0 01F13001 		add	r1, r1, #48
 499 02c4 07F58240 		add	r0, r7, #16640
 500 02c8 00F11400 		add	r0, r0, #20
 501 02cc FFF7FEFF 		bl	f_write
 147:main.c        ****     
 148:main.c        ****     unsigned long kbps = BUFFER_SIZE*8 / nTime;
 502              		.loc 1 148 0
 503 02d0 4FF4FA32 		mov	r2, #128000
 504 02d4 07F58A43 		add	r3, r7, #17664
 505 02d8 03F16C03 		add	r3, r3, #108
 506 02dc 1B68     		ldr	r3, [r3]
 507 02de B2FBF3F3 		udiv	r3, r2, r3
 508 02e2 07F58A42 		add	r2, r7, #17664
 509 02e6 02F16802 		add	r2, r2, #104
 510 02ea 1360     		str	r3, [r2]
 149:main.c        ****     sprintf(tmpchr, "Rate %lu kbps\n\n", kbps);
 511              		.loc 1 149 0
 512 02ec 07F58143 		add	r3, r7, #16512
 513 02f0 03F13003 		add	r3, r3, #48
 514 02f4 07F58A42 		add	r2, r7, #17664
 515 02f8 02F16802 		add	r2, r2, #104
 516 02fc 1268     		ldr	r2, [r2]
 517 02fe 8449     		ldr	r1, .L44+24
 518 0300 1846     		mov	r0, r3
 519 0302 FFF7FEFF 		bl	sprintf
 150:main.c        ****     f_write(&File, tmpchr, strlen(tmpchr), &BytesWritten);
 520              		.loc 1 150 0
 521 0306 07F58143 		add	r3, r7, #16512
 522 030a 03F13003 		add	r3, r3, #48
 523 030e 1846     		mov	r0, r3
 524 0310 FFF7FEFF 		bl	strlen
 525 0314 0246     		mov	r2, r0
 526 0316 07F58143 		add	r3, r7, #16512
 527 031a 03F12C03 		add	r3, r3, #44
 528 031e 07F58141 		add	r1, r7, #16512
 529 0322 01F13001 		add	r1, r1, #48
 530 0326 07F58240 		add	r0, r7, #16640
 531 032a 00F11400 		add	r0, r0, #20
 532 032e FFF7FEFF 		bl	f_write
 151:main.c        ****     
 152:main.c        ****     //Next, read file in
 153:main.c        ****     
 154:main.c        ****     //Indicate in test.txt what we're doing
 155:main.c        ****     sprintf(tmpchr, "Reading %d bytes to file, non-DMA\n", BUFFER_SIZE);
 533              		.loc 1 155 0
 534 0332 07F58143 		add	r3, r7, #16512
 535 0336 03F13003 		add	r3, r3, #48
 536 033a 4FF47A52 		mov	r2, #16000
 537 033e 7549     		ldr	r1, .L44+28
ARM GAS  C:\Users\HPz420\AppData\Local\Temp\cczyCxcG.s 			page 14


 538 0340 1846     		mov	r0, r3
 539 0342 FFF7FEFF 		bl	sprintf
 156:main.c        ****     f_write(&File, tmpchr, strlen(tmpchr), &BytesWritten);
 540              		.loc 1 156 0
 541 0346 07F58143 		add	r3, r7, #16512
 542 034a 03F13003 		add	r3, r3, #48
 543 034e 1846     		mov	r0, r3
 544 0350 FFF7FEFF 		bl	strlen
 545 0354 0246     		mov	r2, r0
 546 0356 07F58143 		add	r3, r7, #16512
 547 035a 03F12C03 		add	r3, r3, #44
 548 035e 07F58141 		add	r1, r7, #16512
 549 0362 01F13001 		add	r1, r1, #48
 550 0366 07F58240 		add	r0, r7, #16640
 551 036a 00F11400 		add	r0, r0, #20
 552 036e FFF7FEFF 		bl	f_write
 157:main.c        **** 
 158:main.c        ****     //perform operation
 159:main.c        ****     nCurrentMillis = nmillis; //get current millisecond count
 553              		.loc 1 159 0
 554 0372 644B     		ldr	r3, .L44+12
 555 0374 1B68     		ldr	r3, [r3]
 556 0376 07F58A42 		add	r2, r7, #17664
 557 037a 02F17002 		add	r2, r2, #112
 558 037e 1360     		str	r3, [r2]
 160:main.c        ****     
 161:main.c        ****     f_open(&BinFile, "//binarray.bin", FA_OPEN_EXISTING | FA_READ);
 559              		.loc 1 161 0
 560 0380 07F18003 		add	r3, r7, #128
 561 0384 7C3B     		subs	r3, r3, #124
 562 0386 0122     		movs	r2, #1
 563 0388 5F49     		ldr	r1, .L44+16
 564 038a 1846     		mov	r0, r3
 565 038c FFF7FEFF 		bl	f_open
 162:main.c        ****     f_read(&BinFile, vals, BUFFER_SIZE, &BytesRead);
 566              		.loc 1 162 0
 567 0390 07F58143 		add	r3, r7, #16512
 568 0394 03F12803 		add	r3, r3, #40
 569 0398 07F52071 		add	r1, r7, #640
 570 039c 5839     		subs	r1, r1, #88
 571 039e 07F18000 		add	r0, r7, #128
 572 03a2 7C38     		subs	r0, r0, #124
 573 03a4 4FF47A52 		mov	r2, #16000
 574 03a8 FFF7FEFF 		bl	f_read
 163:main.c        ****     f_close(&BinFile);
 575              		.loc 1 163 0
 576 03ac 07F18003 		add	r3, r7, #128
 577 03b0 7C3B     		subs	r3, r3, #124
 578 03b2 1846     		mov	r0, r3
 579 03b4 FFF7FEFF 		bl	f_close
 164:main.c        ****     
 165:main.c        ****     //indicate in test.txt how long it took
 166:main.c        ****     nTime = nmillis-nCurrentMillis;
 580              		.loc 1 166 0
 581 03b8 524B     		ldr	r3, .L44+12
 582 03ba 1A68     		ldr	r2, [r3]
 583 03bc 07F58A43 		add	r3, r7, #17664
ARM GAS  C:\Users\HPz420\AppData\Local\Temp\cczyCxcG.s 			page 15


 584 03c0 03F17003 		add	r3, r3, #112
 585 03c4 1B68     		ldr	r3, [r3]
 586 03c6 D31A     		subs	r3, r2, r3
 587 03c8 07F58A42 		add	r2, r7, #17664
 588 03cc 02F16C02 		add	r2, r2, #108
 589 03d0 1360     		str	r3, [r2]
 167:main.c        ****     sprintf(tmpchr, "Took %lu ms\nVerifying...", nTime);
 590              		.loc 1 167 0
 591 03d2 07F58143 		add	r3, r7, #16512
 592 03d6 03F13003 		add	r3, r3, #48
 593 03da 07F58A42 		add	r2, r7, #17664
 594 03de 02F16C02 		add	r2, r2, #108
 595 03e2 1268     		ldr	r2, [r2]
 596 03e4 4C49     		ldr	r1, .L44+32
 597 03e6 1846     		mov	r0, r3
 598 03e8 FFF7FEFF 		bl	sprintf
 168:main.c        ****     f_write(&File, tmpchr, strlen(tmpchr), &BytesWritten);
 599              		.loc 1 168 0
 600 03ec 07F58143 		add	r3, r7, #16512
 601 03f0 03F13003 		add	r3, r3, #48
 602 03f4 1846     		mov	r0, r3
 603 03f6 FFF7FEFF 		bl	strlen
 604 03fa 0246     		mov	r2, r0
 605 03fc 07F58143 		add	r3, r7, #16512
 606 0400 03F12C03 		add	r3, r3, #44
 607 0404 07F58141 		add	r1, r7, #16512
 608 0408 01F13001 		add	r1, r1, #48
 609 040c 07F58240 		add	r0, r7, #16640
 610 0410 00F11400 		add	r0, r0, #20
 611 0414 FFF7FEFF 		bl	f_write
 169:main.c        ****     
 170:main.c        ****     unsigned char bVerifyFail = 0;
 612              		.loc 1 170 0
 613 0418 0023     		movs	r3, #0
 614 041a 07F58A42 		add	r2, r7, #17664
 615 041e 02F17702 		add	r2, r2, #119
 616 0422 1370     		strb	r3, [r2]
 171:main.c        ****     for(i = 0; i < 500; i++)
 617              		.loc 1 171 0
 618 0424 4FF00003 		mov	r3, #0
 619 0428 4FF00004 		mov	r4, #0
 620 042c 07F58A42 		add	r2, r7, #17664
 621 0430 02F17802 		add	r2, r2, #120
 622 0434 C2E90034 		strd	r3, [r2]
 623 0438 3FE0     		b	.L23
 624              	.L26:
 172:main.c        ****     {
 173:main.c        ****         if(vals[(int)i] != i*i) bVerifyFail = 1;
 625              		.loc 1 173 0
 626 043a 07F58A43 		add	r3, r7, #17664
 627 043e 03F17803 		add	r3, r3, #120
 628 0442 D3E90001 		ldrd	r0, [r3]
 629 0446 FFF7FEFF 		bl	__aeabi_d2iz
 630 044a 0246     		mov	r2, r0
 631 044c 07F52073 		add	r3, r7, #640
 632 0450 583B     		subs	r3, r3, #88
 633 0452 D200     		lsls	r2, r2, #3
ARM GAS  C:\Users\HPz420\AppData\Local\Temp\cczyCxcG.s 			page 16


 634 0454 1344     		add	r3, r3, r2
 635 0456 D3E90045 		ldrd	r4, [r3]
 636 045a 07F58A43 		add	r3, r7, #17664
 637 045e 03F17803 		add	r3, r3, #120
 638 0462 D3E90023 		ldrd	r2, [r3]
 639 0466 07F58A41 		add	r1, r7, #17664
 640 046a 01F17801 		add	r1, r1, #120
 641 046e D1E90001 		ldrd	r0, [r1]
 642 0472 FFF7FEFF 		bl	__aeabi_dmul
 643 0476 0246     		mov	r2, r0
 644 0478 0B46     		mov	r3, r1
 645 047a 2046     		mov	r0, r4
 646 047c 2946     		mov	r1, r5
 647 047e FFF7FEFF 		bl	__aeabi_dcmpeq
 648 0482 0346     		mov	r3, r0
 649 0484 002B     		cmp	r3, #0
 650 0486 05D1     		bne	.L24
 651              		.loc 1 173 0 is_stmt 0 discriminator 1
 652 0488 0123     		movs	r3, #1
 653 048a 07F58A42 		add	r2, r7, #17664
 654 048e 02F17702 		add	r2, r2, #119
 655 0492 1370     		strb	r3, [r2]
 656              	.L24:
 171:main.c        ****     for(i = 0; i < 500; i++)
 657              		.loc 1 171 0 is_stmt 1 discriminator 2
 658 0494 4FF00002 		mov	r2, #0
 659 0498 174B     		ldr	r3, .L44
 660 049a 07F58A41 		add	r1, r7, #17664
 661 049e 01F17801 		add	r1, r1, #120
 662 04a2 D1E90001 		ldrd	r0, [r1]
 663 04a6 FFF7FEFF 		bl	__aeabi_dadd
 664 04aa 0346     		mov	r3, r0
 665 04ac 0C46     		mov	r4, r1
 666 04ae 07F58A42 		add	r2, r7, #17664
 667 04b2 02F17802 		add	r2, r2, #120
 668 04b6 C2E90034 		strd	r3, [r2]
 669              	.L23:
 171:main.c        ****     for(i = 0; i < 500; i++)
 670              		.loc 1 171 0 is_stmt 0 discriminator 1
 671 04ba 4FF00002 		mov	r2, #0
 672 04be 174B     		ldr	r3, .L44+36
 673 04c0 07F58A41 		add	r1, r7, #17664
 674 04c4 01F17801 		add	r1, r1, #120
 675 04c8 D1E90001 		ldrd	r0, [r1]
 676 04cc FFF7FEFF 		bl	__aeabi_dcmplt
 677 04d0 0346     		mov	r3, r0
 678 04d2 002B     		cmp	r3, #0
 679 04d4 B1D1     		bne	.L26
 174:main.c        ****     }
 175:main.c        ****     if(bVerifyFail)
 680              		.loc 1 175 0 is_stmt 1
 681 04d6 07F58A43 		add	r3, r7, #17664
 682 04da 03F17703 		add	r3, r3, #119
 683 04de 1B78     		ldrb	r3, [r3]	@ zero_extendqisi2
 684 04e0 002B     		cmp	r3, #0
 685 04e2 1FD0     		beq	.L27
 176:main.c        ****         sprintf(tmpchr, "FAIL :O\n");       
ARM GAS  C:\Users\HPz420\AppData\Local\Temp\cczyCxcG.s 			page 17


 686              		.loc 1 176 0
 687 04e4 07F58143 		add	r3, r7, #16512
 688 04e8 03F13003 		add	r3, r3, #48
 689 04ec 0C4A     		ldr	r2, .L44+40
 690 04ee 07CA     		ldmia	r2, {r0, r1, r2}
 691 04f0 03C3     		stmia	r3!, {r0, r1}
 692 04f2 1A70     		strb	r2, [r3]
 693 04f4 23E0     		b	.L28
 694              	.L45:
 695 04f6 00BF     		.align	2
 696              	.L44:
 697 04f8 0000F03F 		.word	1072693248
 698 04fc 00409F40 		.word	1084178432
 699 0500 20000000 		.word	.LC3
 700 0504 00000000 		.word	nmillis
 701 0508 44000000 		.word	.LC4
 702 050c 54000000 		.word	.LC5
 703 0510 64000000 		.word	.LC6
 704 0514 74000000 		.word	.LC7
 705 0518 98000000 		.word	.LC8
 706 051c 00407F40 		.word	1082081280
 707 0520 B4000000 		.word	.LC9
 708              	.L27:
 177:main.c        ****     else
 178:main.c        ****         sprintf(tmpchr, " All Good! :D\n");               
 709              		.loc 1 178 0
 710 0524 07F58143 		add	r3, r7, #16512
 711 0528 03F13003 		add	r3, r3, #48
 712 052c BD4A     		ldr	r2, .L46
 713 052e 1C46     		mov	r4, r3
 714 0530 1346     		mov	r3, r2
 715 0532 0FCB     		ldmia	r3, {r0, r1, r2, r3}
 716 0534 07C4     		stmia	r4!, {r0, r1, r2}
 717 0536 2380     		strh	r3, [r4]	@ movhi
 718 0538 0234     		adds	r4, r4, #2
 719 053a 1B0C     		lsrs	r3, r3, #16
 720 053c 2370     		strb	r3, [r4]
 721              	.L28:
 179:main.c        ****     f_write(&File, tmpchr, strlen(tmpchr), &BytesWritten);
 722              		.loc 1 179 0
 723 053e 07F58143 		add	r3, r7, #16512
 724 0542 03F13003 		add	r3, r3, #48
 725 0546 1846     		mov	r0, r3
 726 0548 FFF7FEFF 		bl	strlen
 727 054c 0246     		mov	r2, r0
 728 054e 07F58143 		add	r3, r7, #16512
 729 0552 03F12C03 		add	r3, r3, #44
 730 0556 07F58141 		add	r1, r7, #16512
 731 055a 01F13001 		add	r1, r1, #48
 732 055e 07F58240 		add	r0, r7, #16640
 733 0562 00F11400 		add	r0, r0, #20
 734 0566 FFF7FEFF 		bl	f_write
 180:main.c        **** 
 181:main.c        ****     kbps = BUFFER_SIZE*8 / nTime;
 735              		.loc 1 181 0
 736 056a 4FF4FA32 		mov	r2, #128000
 737 056e 07F58A43 		add	r3, r7, #17664
ARM GAS  C:\Users\HPz420\AppData\Local\Temp\cczyCxcG.s 			page 18


 738 0572 03F16C03 		add	r3, r3, #108
 739 0576 1B68     		ldr	r3, [r3]
 740 0578 B2FBF3F3 		udiv	r3, r2, r3
 741 057c 07F58A42 		add	r2, r7, #17664
 742 0580 02F16802 		add	r2, r2, #104
 743 0584 1360     		str	r3, [r2]
 182:main.c        ****     sprintf(tmpchr, "Rate %lu kbps\n\n", kbps);
 744              		.loc 1 182 0
 745 0586 07F58143 		add	r3, r7, #16512
 746 058a 03F13003 		add	r3, r3, #48
 747 058e 07F58A42 		add	r2, r7, #17664
 748 0592 02F16802 		add	r2, r2, #104
 749 0596 1268     		ldr	r2, [r2]
 750 0598 A349     		ldr	r1, .L46+4
 751 059a 1846     		mov	r0, r3
 752 059c FFF7FEFF 		bl	sprintf
 183:main.c        ****     f_write(&File, tmpchr, strlen(tmpchr), &BytesWritten);
 753              		.loc 1 183 0
 754 05a0 07F58143 		add	r3, r7, #16512
 755 05a4 03F13003 		add	r3, r3, #48
 756 05a8 1846     		mov	r0, r3
 757 05aa FFF7FEFF 		bl	strlen
 758 05ae 0246     		mov	r2, r0
 759 05b0 07F58143 		add	r3, r7, #16512
 760 05b4 03F12C03 		add	r3, r3, #44
 761 05b8 07F58141 		add	r1, r7, #16512
 762 05bc 01F13001 		add	r1, r1, #48
 763 05c0 07F58240 		add	r0, r7, #16640
 764 05c4 00F11400 		add	r0, r0, #20
 765 05c8 FFF7FEFF 		bl	f_write
 184:main.c        **** 
 185:main.c        ****     //Now, enable DMA...
 186:main.c        ****     NSDSPI_SetDMAMode(1);
 766              		.loc 1 186 0
 767 05cc 0120     		movs	r0, #1
 768 05ce FFF7FEFF 		bl	NSDSPI_SetDMAMode
 187:main.c        ****     
 188:main.c        ****     //and repeat tests
 189:main.c        ****     //Indicate in test.txt what we're doing
 190:main.c        ****     sprintf(tmpchr, "Writing %d bytes to file, DMA\n", BUFFER_SIZE);
 769              		.loc 1 190 0
 770 05d2 07F58143 		add	r3, r7, #16512
 771 05d6 03F13003 		add	r3, r3, #48
 772 05da 4FF47A52 		mov	r2, #16000
 773 05de 9349     		ldr	r1, .L46+8
 774 05e0 1846     		mov	r0, r3
 775 05e2 FFF7FEFF 		bl	sprintf
 191:main.c        ****     f_write(&File, tmpchr, strlen(tmpchr), &BytesWritten);
 776              		.loc 1 191 0
 777 05e6 07F58143 		add	r3, r7, #16512
 778 05ea 03F13003 		add	r3, r3, #48
 779 05ee 1846     		mov	r0, r3
 780 05f0 FFF7FEFF 		bl	strlen
 781 05f4 0246     		mov	r2, r0
 782 05f6 07F58143 		add	r3, r7, #16512
 783 05fa 03F12C03 		add	r3, r3, #44
 784 05fe 07F58141 		add	r1, r7, #16512
ARM GAS  C:\Users\HPz420\AppData\Local\Temp\cczyCxcG.s 			page 19


 785 0602 01F13001 		add	r1, r1, #48
 786 0606 07F58240 		add	r0, r7, #16640
 787 060a 00F11400 		add	r0, r0, #20
 788 060e FFF7FEFF 		bl	f_write
 192:main.c        **** 
 193:main.c        ****     //perform operation
 194:main.c        ****     nCurrentMillis = nmillis; //get current millisecond count
 789              		.loc 1 194 0
 790 0612 874B     		ldr	r3, .L46+12
 791 0614 1B68     		ldr	r3, [r3]
 792 0616 07F58A42 		add	r2, r7, #17664
 793 061a 02F17002 		add	r2, r2, #112
 794 061e 1360     		str	r3, [r2]
 195:main.c        ****     f_open(&BinFile, "//binarrayDMA.bin", FA_CREATE_ALWAYS | FA_WRITE);
 795              		.loc 1 195 0
 796 0620 07F18003 		add	r3, r7, #128
 797 0624 7C3B     		subs	r3, r3, #124
 798 0626 0A22     		movs	r2, #10
 799 0628 8249     		ldr	r1, .L46+16
 800 062a 1846     		mov	r0, r3
 801 062c FFF7FEFF 		bl	f_open
 196:main.c        ****     f_write(&BinFile, vals, BUFFER_SIZE, &BytesWritten);
 802              		.loc 1 196 0
 803 0630 07F58143 		add	r3, r7, #16512
 804 0634 03F12C03 		add	r3, r3, #44
 805 0638 07F52071 		add	r1, r7, #640
 806 063c 5839     		subs	r1, r1, #88
 807 063e 07F18000 		add	r0, r7, #128
 808 0642 7C38     		subs	r0, r0, #124
 809 0644 4FF47A52 		mov	r2, #16000
 810 0648 FFF7FEFF 		bl	f_write
 197:main.c        ****     f_close(&BinFile);
 811              		.loc 1 197 0
 812 064c 07F18003 		add	r3, r7, #128
 813 0650 7C3B     		subs	r3, r3, #124
 814 0652 1846     		mov	r0, r3
 815 0654 FFF7FEFF 		bl	f_close
 198:main.c        ****     
 199:main.c        ****     //indicate in test.txt how long it took
 200:main.c        ****     nTime = nmillis-nCurrentMillis;
 816              		.loc 1 200 0
 817 0658 754B     		ldr	r3, .L46+12
 818 065a 1A68     		ldr	r2, [r3]
 819 065c 07F58A43 		add	r3, r7, #17664
 820 0660 03F17003 		add	r3, r3, #112
 821 0664 1B68     		ldr	r3, [r3]
 822 0666 D31A     		subs	r3, r2, r3
 823 0668 07F58A42 		add	r2, r7, #17664
 824 066c 02F16C02 		add	r2, r2, #108
 825 0670 1360     		str	r3, [r2]
 201:main.c        ****     sprintf(tmpchr, "Took %lu ms\n", nTime);
 826              		.loc 1 201 0
 827 0672 07F58143 		add	r3, r7, #16512
 828 0676 03F13003 		add	r3, r3, #48
 829 067a 07F58A42 		add	r2, r7, #17664
 830 067e 02F16C02 		add	r2, r2, #108
 831 0682 1268     		ldr	r2, [r2]
ARM GAS  C:\Users\HPz420\AppData\Local\Temp\cczyCxcG.s 			page 20


 832 0684 6C49     		ldr	r1, .L46+20
 833 0686 1846     		mov	r0, r3
 834 0688 FFF7FEFF 		bl	sprintf
 202:main.c        ****     f_write(&File, tmpchr, strlen(tmpchr), &BytesWritten);
 835              		.loc 1 202 0
 836 068c 07F58143 		add	r3, r7, #16512
 837 0690 03F13003 		add	r3, r3, #48
 838 0694 1846     		mov	r0, r3
 839 0696 FFF7FEFF 		bl	strlen
 840 069a 0246     		mov	r2, r0
 841 069c 07F58143 		add	r3, r7, #16512
 842 06a0 03F12C03 		add	r3, r3, #44
 843 06a4 07F58141 		add	r1, r7, #16512
 844 06a8 01F13001 		add	r1, r1, #48
 845 06ac 07F58240 		add	r0, r7, #16640
 846 06b0 00F11400 		add	r0, r0, #20
 847 06b4 FFF7FEFF 		bl	f_write
 203:main.c        ****     
 204:main.c        ****     kbps = BUFFER_SIZE*8 / nTime;
 848              		.loc 1 204 0
 849 06b8 4FF4FA32 		mov	r2, #128000
 850 06bc 07F58A43 		add	r3, r7, #17664
 851 06c0 03F16C03 		add	r3, r3, #108
 852 06c4 1B68     		ldr	r3, [r3]
 853 06c6 B2FBF3F3 		udiv	r3, r2, r3
 854 06ca 07F58A42 		add	r2, r7, #17664
 855 06ce 02F16802 		add	r2, r2, #104
 856 06d2 1360     		str	r3, [r2]
 205:main.c        ****     sprintf(tmpchr, "Rate %lu kbps\n\n", kbps);
 857              		.loc 1 205 0
 858 06d4 07F58143 		add	r3, r7, #16512
 859 06d8 03F13003 		add	r3, r3, #48
 860 06dc 07F58A42 		add	r2, r7, #17664
 861 06e0 02F16802 		add	r2, r2, #104
 862 06e4 1268     		ldr	r2, [r2]
 863 06e6 5049     		ldr	r1, .L46+4
 864 06e8 1846     		mov	r0, r3
 865 06ea FFF7FEFF 		bl	sprintf
 206:main.c        ****     f_write(&File, tmpchr, strlen(tmpchr), &BytesWritten);
 866              		.loc 1 206 0
 867 06ee 07F58143 		add	r3, r7, #16512
 868 06f2 03F13003 		add	r3, r3, #48
 869 06f6 1846     		mov	r0, r3
 870 06f8 FFF7FEFF 		bl	strlen
 871 06fc 0246     		mov	r2, r0
 872 06fe 07F58143 		add	r3, r7, #16512
 873 0702 03F12C03 		add	r3, r3, #44
 874 0706 07F58141 		add	r1, r7, #16512
 875 070a 01F13001 		add	r1, r1, #48
 876 070e 07F58240 		add	r0, r7, #16640
 877 0712 00F11400 		add	r0, r0, #20
 878 0716 FFF7FEFF 		bl	f_write
 207:main.c        ****     //Next, read file in
 208:main.c        ****     
 209:main.c        ****     //Indicate in test.txt what we're doing
 210:main.c        ****     sprintf(tmpchr, "Reading %d bytes to file, DMA\n", BUFFER_SIZE);
 879              		.loc 1 210 0
ARM GAS  C:\Users\HPz420\AppData\Local\Temp\cczyCxcG.s 			page 21


 880 071a 07F58143 		add	r3, r7, #16512
 881 071e 03F13003 		add	r3, r3, #48
 882 0722 4FF47A52 		mov	r2, #16000
 883 0726 4549     		ldr	r1, .L46+24
 884 0728 1846     		mov	r0, r3
 885 072a FFF7FEFF 		bl	sprintf
 211:main.c        ****     f_write(&File, tmpchr, strlen(tmpchr), &BytesWritten);
 886              		.loc 1 211 0
 887 072e 07F58143 		add	r3, r7, #16512
 888 0732 03F13003 		add	r3, r3, #48
 889 0736 1846     		mov	r0, r3
 890 0738 FFF7FEFF 		bl	strlen
 891 073c 0246     		mov	r2, r0
 892 073e 07F58143 		add	r3, r7, #16512
 893 0742 03F12C03 		add	r3, r3, #44
 894 0746 07F58141 		add	r1, r7, #16512
 895 074a 01F13001 		add	r1, r1, #48
 896 074e 07F58240 		add	r0, r7, #16640
 897 0752 00F11400 		add	r0, r0, #20
 898 0756 FFF7FEFF 		bl	f_write
 212:main.c        **** 
 213:main.c        ****     //perform operation
 214:main.c        ****     nCurrentMillis = nmillis; //get current millisecond count
 899              		.loc 1 214 0
 900 075a 354B     		ldr	r3, .L46+12
 901 075c 1B68     		ldr	r3, [r3]
 902 075e 07F58A42 		add	r2, r7, #17664
 903 0762 02F17002 		add	r2, r2, #112
 904 0766 1360     		str	r3, [r2]
 215:main.c        ****     
 216:main.c        ****     f_open(&BinFile, "//binarrayDMA.bin", FA_OPEN_EXISTING | FA_READ);
 905              		.loc 1 216 0
 906 0768 07F18003 		add	r3, r7, #128
 907 076c 7C3B     		subs	r3, r3, #124
 908 076e 0122     		movs	r2, #1
 909 0770 3049     		ldr	r1, .L46+16
 910 0772 1846     		mov	r0, r3
 911 0774 FFF7FEFF 		bl	f_open
 217:main.c        ****     f_read(&BinFile, vals, BUFFER_SIZE, &BytesRead);
 912              		.loc 1 217 0
 913 0778 07F58143 		add	r3, r7, #16512
 914 077c 03F12803 		add	r3, r3, #40
 915 0780 07F52071 		add	r1, r7, #640
 916 0784 5839     		subs	r1, r1, #88
 917 0786 07F18000 		add	r0, r7, #128
 918 078a 7C38     		subs	r0, r0, #124
 919 078c 4FF47A52 		mov	r2, #16000
 920 0790 FFF7FEFF 		bl	f_read
 218:main.c        ****     f_close(&BinFile);
 921              		.loc 1 218 0
 922 0794 07F18003 		add	r3, r7, #128
 923 0798 7C3B     		subs	r3, r3, #124
 924 079a 1846     		mov	r0, r3
 925 079c FFF7FEFF 		bl	f_close
 219:main.c        ****     
 220:main.c        ****     //indicate in test.txt how long it took
 221:main.c        ****     nTime = nmillis-nCurrentMillis;
ARM GAS  C:\Users\HPz420\AppData\Local\Temp\cczyCxcG.s 			page 22


 926              		.loc 1 221 0
 927 07a0 234B     		ldr	r3, .L46+12
 928 07a2 1A68     		ldr	r2, [r3]
 929 07a4 07F58A43 		add	r3, r7, #17664
 930 07a8 03F17003 		add	r3, r3, #112
 931 07ac 1B68     		ldr	r3, [r3]
 932 07ae D31A     		subs	r3, r2, r3
 933 07b0 07F58A42 		add	r2, r7, #17664
 934 07b4 02F16C02 		add	r2, r2, #108
 935 07b8 1360     		str	r3, [r2]
 222:main.c        ****     sprintf(tmpchr, "Took %lu ms\nVerifying...", nTime);
 936              		.loc 1 222 0
 937 07ba 07F58143 		add	r3, r7, #16512
 938 07be 03F13003 		add	r3, r3, #48
 939 07c2 07F58A42 		add	r2, r7, #17664
 940 07c6 02F16C02 		add	r2, r2, #108
 941 07ca 1268     		ldr	r2, [r2]
 942 07cc 1C49     		ldr	r1, .L46+28
 943 07ce 1846     		mov	r0, r3
 944 07d0 FFF7FEFF 		bl	sprintf
 223:main.c        ****     f_write(&File, tmpchr, strlen(tmpchr), &BytesWritten);
 945              		.loc 1 223 0
 946 07d4 07F58143 		add	r3, r7, #16512
 947 07d8 03F13003 		add	r3, r3, #48
 948 07dc 1846     		mov	r0, r3
 949 07de FFF7FEFF 		bl	strlen
 950 07e2 0246     		mov	r2, r0
 951 07e4 07F58143 		add	r3, r7, #16512
 952 07e8 03F12C03 		add	r3, r3, #44
 953 07ec 07F58141 		add	r1, r7, #16512
 954 07f0 01F13001 		add	r1, r1, #48
 955 07f4 07F58240 		add	r0, r7, #16640
 956 07f8 00F11400 		add	r0, r0, #20
 957 07fc FFF7FEFF 		bl	f_write
 224:main.c        ****     
 225:main.c        ****     bVerifyFail = 0;
 958              		.loc 1 225 0
 959 0800 0023     		movs	r3, #0
 960 0802 07F58A42 		add	r2, r7, #17664
 961 0806 02F17702 		add	r2, r2, #119
 962 080a 1370     		strb	r3, [r2]
 226:main.c        ****     for(i = 0; i < 500; i++)
 963              		.loc 1 226 0
 964 080c 4FF00003 		mov	r3, #0
 965 0810 4FF00004 		mov	r4, #0
 966 0814 07F58A42 		add	r2, r7, #17664
 967 0818 02F17802 		add	r2, r2, #120
 968 081c C2E90034 		strd	r3, [r2]
 969 0820 50E0     		b	.L29
 970              	.L47:
 971 0822 00BF     		.align	2
 972              	.L46:
 973 0824 C0000000 		.word	.LC10
 974 0828 64000000 		.word	.LC6
 975 082c D0000000 		.word	.LC11
 976 0830 00000000 		.word	nmillis
 977 0834 F0000000 		.word	.LC12
ARM GAS  C:\Users\HPz420\AppData\Local\Temp\cczyCxcG.s 			page 23


 978 0838 54000000 		.word	.LC5
 979 083c 04010000 		.word	.LC13
 980 0840 98000000 		.word	.LC8
 981              	.L32:
 227:main.c        ****     {
 228:main.c        ****         if(vals[(int)i] != i*i) bVerifyFail = 1;
 982              		.loc 1 228 0
 983 0844 07F58A43 		add	r3, r7, #17664
 984 0848 03F17803 		add	r3, r3, #120
 985 084c D3E90001 		ldrd	r0, [r3]
 986 0850 FFF7FEFF 		bl	__aeabi_d2iz
 987 0854 0246     		mov	r2, r0
 988 0856 07F52073 		add	r3, r7, #640
 989 085a 583B     		subs	r3, r3, #88
 990 085c D200     		lsls	r2, r2, #3
 991 085e 1344     		add	r3, r3, r2
 992 0860 D3E90045 		ldrd	r4, [r3]
 993 0864 07F58A43 		add	r3, r7, #17664
 994 0868 03F17803 		add	r3, r3, #120
 995 086c D3E90023 		ldrd	r2, [r3]
 996 0870 07F58A41 		add	r1, r7, #17664
 997 0874 01F17801 		add	r1, r1, #120
 998 0878 D1E90001 		ldrd	r0, [r1]
 999 087c FFF7FEFF 		bl	__aeabi_dmul
 1000 0880 0246     		mov	r2, r0
 1001 0882 0B46     		mov	r3, r1
 1002 0884 2046     		mov	r0, r4
 1003 0886 2946     		mov	r1, r5
 1004 0888 FFF7FEFF 		bl	__aeabi_dcmpeq
 1005 088c 0346     		mov	r3, r0
 1006 088e 002B     		cmp	r3, #0
 1007 0890 05D1     		bne	.L30
 1008              		.loc 1 228 0 is_stmt 0 discriminator 1
 1009 0892 0123     		movs	r3, #1
 1010 0894 07F58A42 		add	r2, r7, #17664
 1011 0898 02F17702 		add	r2, r2, #119
 1012 089c 1370     		strb	r3, [r2]
 1013              	.L30:
 226:main.c        ****     for(i = 0; i < 500; i++)
 1014              		.loc 1 226 0 is_stmt 1 discriminator 2
 1015 089e 4FF00002 		mov	r2, #0
 1016 08a2 454B     		ldr	r3, .L48
 1017 08a4 07F58A41 		add	r1, r7, #17664
 1018 08a8 01F17801 		add	r1, r1, #120
 1019 08ac D1E90001 		ldrd	r0, [r1]
 1020 08b0 FFF7FEFF 		bl	__aeabi_dadd
 1021 08b4 0346     		mov	r3, r0
 1022 08b6 0C46     		mov	r4, r1
 1023 08b8 07F58A42 		add	r2, r7, #17664
 1024 08bc 02F17802 		add	r2, r2, #120
 1025 08c0 C2E90034 		strd	r3, [r2]
 1026              	.L29:
 226:main.c        ****     for(i = 0; i < 500; i++)
 1027              		.loc 1 226 0 is_stmt 0 discriminator 1
 1028 08c4 4FF00002 		mov	r2, #0
 1029 08c8 3C4B     		ldr	r3, .L48+4
 1030 08ca 07F58A41 		add	r1, r7, #17664
ARM GAS  C:\Users\HPz420\AppData\Local\Temp\cczyCxcG.s 			page 24


 1031 08ce 01F17801 		add	r1, r1, #120
 1032 08d2 D1E90001 		ldrd	r0, [r1]
 1033 08d6 FFF7FEFF 		bl	__aeabi_dcmplt
 1034 08da 0346     		mov	r3, r0
 1035 08dc 002B     		cmp	r3, #0
 1036 08de B1D1     		bne	.L32
 229:main.c        ****     }
 230:main.c        ****     if(bVerifyFail)
 1037              		.loc 1 230 0 is_stmt 1
 1038 08e0 07F58A43 		add	r3, r7, #17664
 1039 08e4 03F17703 		add	r3, r3, #119
 1040 08e8 1B78     		ldrb	r3, [r3]	@ zero_extendqisi2
 1041 08ea 002B     		cmp	r3, #0
 1042 08ec 08D0     		beq	.L33
 231:main.c        ****         sprintf(tmpchr, "FAIL :O\n");       
 1043              		.loc 1 231 0
 1044 08ee 07F58143 		add	r3, r7, #16512
 1045 08f2 03F13003 		add	r3, r3, #48
 1046 08f6 324A     		ldr	r2, .L48+8
 1047 08f8 07CA     		ldmia	r2, {r0, r1, r2}
 1048 08fa 03C3     		stmia	r3!, {r0, r1}
 1049 08fc 1A70     		strb	r2, [r3]
 1050 08fe 0CE0     		b	.L34
 1051              	.L33:
 232:main.c        ****     else
 233:main.c        ****         sprintf(tmpchr, " All Good! :D\n");               
 1052              		.loc 1 233 0
 1053 0900 07F58143 		add	r3, r7, #16512
 1054 0904 03F13003 		add	r3, r3, #48
 1055 0908 2E4A     		ldr	r2, .L48+12
 1056 090a 1C46     		mov	r4, r3
 1057 090c 1346     		mov	r3, r2
 1058 090e 0FCB     		ldmia	r3, {r0, r1, r2, r3}
 1059 0910 07C4     		stmia	r4!, {r0, r1, r2}
 1060 0912 2380     		strh	r3, [r4]	@ movhi
 1061 0914 0234     		adds	r4, r4, #2
 1062 0916 1B0C     		lsrs	r3, r3, #16
 1063 0918 2370     		strb	r3, [r4]
 1064              	.L34:
 234:main.c        ****     f_write(&File, tmpchr, strlen(tmpchr), &BytesWritten); 
 1065              		.loc 1 234 0
 1066 091a 07F58143 		add	r3, r7, #16512
 1067 091e 03F13003 		add	r3, r3, #48
 1068 0922 1846     		mov	r0, r3
 1069 0924 FFF7FEFF 		bl	strlen
 1070 0928 0246     		mov	r2, r0
 1071 092a 07F58143 		add	r3, r7, #16512
 1072 092e 03F12C03 		add	r3, r3, #44
 1073 0932 07F58141 		add	r1, r7, #16512
 1074 0936 01F13001 		add	r1, r1, #48
 1075 093a 07F58240 		add	r0, r7, #16640
 1076 093e 00F11400 		add	r0, r0, #20
 1077 0942 FFF7FEFF 		bl	f_write
 235:main.c        ****     
 236:main.c        ****     kbps = BUFFER_SIZE*8 / nTime;
 1078              		.loc 1 236 0
 1079 0946 4FF4FA32 		mov	r2, #128000
ARM GAS  C:\Users\HPz420\AppData\Local\Temp\cczyCxcG.s 			page 25


 1080 094a 07F58A43 		add	r3, r7, #17664
 1081 094e 03F16C03 		add	r3, r3, #108
 1082 0952 1B68     		ldr	r3, [r3]
 1083 0954 B2FBF3F3 		udiv	r3, r2, r3
 1084 0958 07F58A42 		add	r2, r7, #17664
 1085 095c 02F16802 		add	r2, r2, #104
 1086 0960 1360     		str	r3, [r2]
 237:main.c        ****     sprintf(tmpchr, "Rate %lu kbps\n\n", kbps);
 1087              		.loc 1 237 0
 1088 0962 07F58143 		add	r3, r7, #16512
 1089 0966 03F13003 		add	r3, r3, #48
 1090 096a 07F58A42 		add	r2, r7, #17664
 1091 096e 02F16802 		add	r2, r2, #104
 1092 0972 1268     		ldr	r2, [r2]
 1093 0974 1449     		ldr	r1, .L48+16
 1094 0976 1846     		mov	r0, r3
 1095 0978 FFF7FEFF 		bl	sprintf
 238:main.c        ****     f_write(&File, tmpchr, strlen(tmpchr), &BytesWritten);
 1096              		.loc 1 238 0
 1097 097c 07F58143 		add	r3, r7, #16512
 1098 0980 03F13003 		add	r3, r3, #48
 1099 0984 1846     		mov	r0, r3
 1100 0986 FFF7FEFF 		bl	strlen
 1101 098a 0246     		mov	r2, r0
 1102 098c 07F58143 		add	r3, r7, #16512
 1103 0990 03F12C03 		add	r3, r3, #44
 1104 0994 07F58141 		add	r1, r7, #16512
 1105 0998 01F13001 		add	r1, r1, #48
 1106 099c 07F58240 		add	r0, r7, #16640
 1107 09a0 00F11400 		add	r0, r0, #20
 1108 09a4 FFF7FEFF 		bl	f_write
 239:main.c        **** 
 240:main.c        ****     f_close(&File);
 1109              		.loc 1 240 0
 1110 09a8 07F58243 		add	r3, r7, #16640
 1111 09ac 03F11403 		add	r3, r3, #20
 1112 09b0 1846     		mov	r0, r3
 1113 09b2 FFF7FEFF 		bl	f_close
 1114              	.L35:
 241:main.c        **** 
 242:main.c        ****     
 243:main.c        ****     for(;;)
 244:main.c        ****     {
 245:main.c        ****         /* done. */
 246:main.c        ****     }
 1115              		.loc 1 246 0 discriminator 6
 1116 09b6 FEE7     		b	.L35
 1117              	.L49:
 1118              		.align	2
 1119              	.L48:
 1120 09b8 0000F03F 		.word	1072693248
 1121 09bc 00407F40 		.word	1082081280
 1122 09c0 B4000000 		.word	.LC9
 1123 09c4 C0000000 		.word	.LC10
 1124 09c8 64000000 		.word	.LC6
 1125              		.cfi_endproc
 1126              	.LFE60:
ARM GAS  C:\Users\HPz420\AppData\Local\Temp\cczyCxcG.s 			page 26


 1127              		.size	main, .-main
 1128              		.text
 1129              	.Letext0:
 1130              		.file 2 "c:\\program files (x86)\\cypress\\psoc creator\\4.2\\psoc creator\\import\\gnu\\arm\\5.4.
 1131              		.file 3 "c:\\program files (x86)\\cypress\\psoc creator\\4.2\\psoc creator\\import\\gnu\\arm\\5.4.
 1132              		.file 4 "Generated_Source\\PSoC5/cytypes.h"
 1133              		.file 5 "Generated_Source\\PSoC5/NSDSPI_LowLevelFilesys.h"
 1134              		.file 6 "Generated_Source\\PSoC5/NSDSPI_funcs.h"
 1135              		.file 7 "Generated_Source\\PSoC5/core_cm3.h"
 1136              		.file 8 "<built-in>"