ARM GAS  C:\Users\HPz420\AppData\Local\Temp\cczyCxcG.s 			page 1


   1              		.syntax unified
   2              		.cpu cortex-m3
   3              		.fpu softvfp
   4              		.eabi_attribute 20, 1
   5              		.eabi_attribute 21, 1
   6              		.eabi_attribute 23, 3
   7              		.eabi_attribute 24, 1
   8              		.eabi_attribute 25, 1
   9              		.eabi_attribute 26, 1
  10              		.eabi_attribute 30, 6
  11              		.eabi_attribute 34, 1
  12              		.eabi_attribute 18, 4
  13              		.thumb
  14              		.syntax unified
  15              		.file	"main.c"
  16              		.text
  17              	.Ltext0:
  18              		.cfi_sections	.debug_frame
  19              		.comm	NSDSPI_bEnableDMA,1,1
  20              		.comm	NSDSPI_RX_Chan,1,1
  21              		.comm	NSDSPI_RX_TD,1,4
  22              		.comm	NSDSPI_TX_Chan,1,1
  23              		.comm	NSDSPI_TX_TD,1,4
  24              		.comm	NSDSPI_g_nTransferFlags,1,1
  25              		.comm	NSDSPI_g_nCtrlState,1,1
  26              		.global	nmillis
  27              		.bss
  28              		.align	2
  29              		.type	nmillis, %object
  30              		.size	nmillis, 4
  31              	nmillis:
  32 0000 00000000 		.space	4
  33              		.section	.text.MillisISR,"ax",%progbits
  34              		.align	2
  35              		.global	MillisISR
  36              		.thumb
  37              		.thumb_func
  38              		.type	MillisISR, %function
  39              	MillisISR:
  40              	.LFB56:
  41              		.file 1 "main.c"
   1:main.c        **** /* ========================================
   2:main.c        ****  * Example project for NSDSPI component.
   3:main.c        ****  * DMA - capable SD card interface with FatFS
   4:main.c        ****  * Filesystem integrated as GCC Cortex M3
   5:main.c        ****  * library. Intended for PSoC 5 series
   6:main.c        ****  *
   7:main.c        ****  * Performs read/write benchmarks and writes
   8:main.c        ****  * results to SD card (BACKUP SD CARD FIRST
   9:main.c        ****  * IF YOU HAVE IMPORTANT FILES ON IT! I
  10:main.c        ****  * cannot promise this won't scramble your
  11:main.c        ****  * SD card!)
  12:main.c        ****  *
  13:main.c        ****  * This example shows how to start component
  14:main.c        ****  * and filesystem, how to enable DMA mode,
  15:main.c        ****  * and how to read / write files.
  16:main.c        ****  * See FatFS online documentation for more
ARM GAS  C:\Users\HPz420\AppData\Local\Temp\cczyCxcG.s 			page 2


  17:main.c        ****  * information regarding the FatFS API
  18:main.c        ****  * http://elm-chan.org/fsw/ff/00index_e.html
  19:main.c        ****  *
  20:main.c        ****  * ========================================
  21:main.c        **** */
  22:main.c        **** /*---------------------------------------------------------------------------/
  23:main.c        **** / FatFs module is a free software that opened under license policy of
  24:main.c        **** / following conditions.
  25:main.c        **** /
  26:main.c        **** / Copyright (C) 2015, ChaN, all right reserved.
  27:main.c        **** /
  28:main.c        **** / 1. Redistributions of source code must retain the above copyright notice,
  29:main.c        **** /    this condition and the following disclaimer.
  30:main.c        **** /
  31:main.c        **** / This software is provided by the copyright holder and contributors "AS IS"
  32:main.c        **** / and any warranties related to this software are DISCLAIMED.
  33:main.c        **** / The copyright owner or contributors be NOT LIABLE for any damages caused
  34:main.c        **** / by use of this software.
  35:main.c        **** /---------------------------------------------------------------------------*/
  36:main.c        **** 
  37:main.c        **** #include <project.h>
  38:main.c        **** #include "string.h"
  39:main.c        **** 
  40:main.c        **** volatile unsigned long nmillis = 0; //used for time measurement
  41:main.c        **** 
  42:main.c        **** void MillisISR()
  43:main.c        **** {
  42              		.loc 1 43 0
  43              		.cfi_startproc
  44              		@ args = 0, pretend = 0, frame = 0
  45              		@ frame_needed = 1, uses_anonymous_args = 0
  46 0000 80B5     		push	{r7, lr}
  47              		.cfi_def_cfa_offset 8
  48              		.cfi_offset 7, -8
  49              		.cfi_offset 14, -4
  50 0002 00AF     		add	r7, sp, #0
  51              		.cfi_def_cfa_register 7
  44:main.c        ****     nmillis++;          //used for time measurements
  52              		.loc 1 44 0
  53 0004 044B     		ldr	r3, .L2
  54 0006 1B68     		ldr	r3, [r3]
  55 0008 0133     		adds	r3, r3, #1
  56 000a 034A     		ldr	r2, .L2
  57 000c 1360     		str	r3, [r2]
  45:main.c        ****     disk_timerproc();   //MUST attach this to 1kHz interrupt for file system timeouts to work
  58              		.loc 1 45 0
  59 000e FFF7FEFF 		bl	disk_timerproc
  46:main.c        **** }
  60              		.loc 1 46 0
  61 0012 00BF     		nop
  62 0014 80BD     		pop	{r7, pc}
  63              	.L3:
  64 0016 00BF     		.align	2
  65              	.L2:
  66 0018 00000000 		.word	nmillis
  67              		.cfi_endproc
  68              	.LFE56:
ARM GAS  C:\Users\HPz420\AppData\Local\Temp\cczyCxcG.s 			page 3


  69              		.size	MillisISR, .-MillisISR
  70              		.section	.text.SDCARD_FAST,"ax",%progbits
  71              		.align	2
  72              		.global	SDCARD_FAST
  73              		.thumb
  74              		.thumb_func
  75              		.type	SDCARD_FAST, %function
  76              	SDCARD_FAST:
  77              	.LFB57:
  47:main.c        **** 
  48:main.c        **** void SDCARD_FAST()
  49:main.c        **** {
  78              		.loc 1 49 0
  79              		.cfi_startproc
  80              		@ args = 0, pretend = 0, frame = 0
  81              		@ frame_needed = 1, uses_anonymous_args = 0
  82 0000 80B5     		push	{r7, lr}
  83              		.cfi_def_cfa_offset 8
  84              		.cfi_offset 7, -8
  85              		.cfi_offset 14, -4
  86 0002 00AF     		add	r7, sp, #0
  87              		.cfi_def_cfa_register 7
  50:main.c        ****     SD_CLK_SetDivider(3); //This should work even at 79.5 MHz clock, giving (79.5/5) MHz bitrate
  88              		.loc 1 50 0
  89 0004 0121     		movs	r1, #1
  90 0006 0320     		movs	r0, #3
  91 0008 FFF7FEFF 		bl	SD_CLK_SetDividerRegister
  51:main.c        ****     //this can push up to 10.6 Mbps reads in my tests so far, and 5.3 Mbps writes (possibly faster 
  52:main.c        **** }
  92              		.loc 1 52 0
  93 000c 00BF     		nop
  94 000e 80BD     		pop	{r7, pc}
  95              		.cfi_endproc
  96              	.LFE57:
  97              		.size	SDCARD_FAST, .-SDCARD_FAST
  98              		.section	.text.SDCARD_SLOW,"ax",%progbits
  99              		.align	2
 100              		.global	SDCARD_SLOW
 101              		.thumb
 102              		.thumb_func
 103              		.type	SDCARD_SLOW, %function
 104              	SDCARD_SLOW:
 105              	.LFB58:
  53:main.c        **** 
  54:main.c        **** void SDCARD_SLOW()
  55:main.c        **** {
 106              		.loc 1 55 0
 107              		.cfi_startproc
 108              		@ args = 0, pretend = 0, frame = 0
 109              		@ frame_needed = 1, uses_anonymous_args = 0
 110 0000 80B5     		push	{r7, lr}
 111              		.cfi_def_cfa_offset 8
 112              		.cfi_offset 7, -8
 113              		.cfi_offset 14, -4
 114 0002 00AF     		add	r7, sp, #0
 115              		.cfi_def_cfa_register 7
  56:main.c        ****     SD_CLK_SetDivider(200);   //SD card must be initialised at max. 400 kHz
ARM GAS  C:\Users\HPz420\AppData\Local\Temp\cczyCxcG.s 			page 4


 116              		.loc 1 56 0
 117 0004 0121     		movs	r1, #1
 118 0006 C820     		movs	r0, #200
 119 0008 FFF7FEFF 		bl	SD_CLK_SetDividerRegister
  57:main.c        **** }
 120              		.loc 1 57 0
 121 000c 00BF     		nop
 122 000e 80BD     		pop	{r7, pc}
 123              		.cfi_endproc
 124              	.LFE58:
 125              		.size	SDCARD_SLOW, .-SDCARD_SLOW
 126              		.section	.text.PrintFxn,"ax",%progbits
 127              		.align	2
 128              		.global	PrintFxn
 129              		.thumb
 130              		.thumb_func
 131              		.type	PrintFxn, %function
 132              	PrintFxn:
 133              	.LFB59:
  58:main.c        **** 
  59:main.c        **** void PrintFxn(char* pString)
  60:main.c        **** {
 134              		.loc 1 60 0
 135              		.cfi_startproc
 136              		@ args = 0, pretend = 0, frame = 8
 137              		@ frame_needed = 1, uses_anonymous_args = 0
 138              		@ link register save eliminated.
 139 0000 80B4     		push	{r7}
 140              		.cfi_def_cfa_offset 4
 141              		.cfi_offset 7, -4
 142 0002 83B0     		sub	sp, sp, #12
 143              		.cfi_def_cfa_offset 16
 144 0004 00AF     		add	r7, sp, #0
 145              		.cfi_def_cfa_register 7
 146 0006 7860     		str	r0, [r7, #4]
  61:main.c        ****     //Only used for test purposes! If you attach this to a print routine for your system,
  62:main.c        ****     //you should see output when you run the function: scan_files()
  63:main.c        ****     //e.g.
  64:main.c        ****     //  char path[512];     //create buffer
  65:main.c        ****     //  sprintf(path, "/"); //set to root path
  66:main.c        ****     //  scan_files(path);   //run scan_files to test that the card seems to be working by listing f
  67:main.c        **** }
 147              		.loc 1 67 0
 148 0008 00BF     		nop
 149 000a 0C37     		adds	r7, r7, #12
 150              		.cfi_def_cfa_offset 4
 151 000c BD46     		mov	sp, r7
 152              		.cfi_def_cfa_register 13
 153              		@ sp needed
 154 000e 80BC     		pop	{r7}
 155              		.cfi_restore 7
 156              		.cfi_def_cfa_offset 0
 157 0010 7047     		bx	lr
 158              		.cfi_endproc
 159              	.LFE59:
 160              		.size	PrintFxn, .-PrintFxn
 161 0012 00BF     		.section	.rodata
ARM GAS  C:\Users\HPz420\AppData\Local\Temp\cczyCxcG.s 			page 5


 162              		.align	2
 163              	.LC0:
 164 0000 2F00     		.ascii	"/\000"
 165 0002 0000     		.align	2
 166              	.LC1:
 167 0004 2F2F7465 		.ascii	"//test.txt\000"
 167      73742E74 
 167      787400
 168 000f 00       		.align	2
 169              	.LC2:
 170 0010 54657374 		.ascii	"Testing Speed\012\000"
 170      696E6720 
 170      53706565 
 170      640A00
 171              		.global	__aeabi_d2iz
 172              		.global	__aeabi_dmul
 173              		.global	__aeabi_dadd
 174              		.global	__aeabi_dcmplt
 175 001f 00       		.align	2
 176              	.LC3:
 177 0020 57726974 		.ascii	"Writing %d bytes to file, non-DMA\012\000"
 177      696E6720 
 177      25642062 
 177      79746573 
 177      20746F20 
 178 0043 00       		.align	2
 179              	.LC4:
 180 0044 2F2F6269 		.ascii	"//binarray.bin\000"
 180      6E617272 
 180      61792E62 
 180      696E00
 181 0053 00       		.align	2
 182              	.LC5:
 183 0054 546F6F6B 		.ascii	"Took %lu ms\012\000"
 183      20256C75 
 183      206D730A 
 183      00
 184 0061 000000   		.align	2
 185              	.LC6:
 186 0064 52617465 		.ascii	"Rate %lu kbps\012\012\000"
 186      20256C75 
 186      206B6270 
 186      730A0A00 
 187              		.align	2
 188              	.LC7:
 189 0074 52656164 		.ascii	"Reading %d bytes to file, non-DMA\012\000"
 189      696E6720 
 189      25642062 
 189      79746573 
 189      20746F20 
 190 0097 00       		.align	2
 191              	.LC8:
 192 0098 546F6F6B 		.ascii	"Took %lu ms\012Verifying...\000"
 192      20256C75 
 192      206D730A 
 192      56657269 
 192      6679696E 
ARM GAS  C:\Users\HPz420\AppData\Local\Temp\cczyCxcG.s 			page 6


 193              		.global	__aeabi_dcmpeq
 194 00b1 000000   		.align	2
 195              	.LC9:
 196 00b4 4641494C 		.ascii	"FAIL :O\012\000"
 196      203A4F0A 
 196      00
 197 00bd 000000   		.align	2
 198              	.LC10:
 199 00c0 20416C6C 		.ascii	" All Good! :D\012\000"
 199      20476F6F 
 199      6421203A 
 199      440A00
 200 00cf 00       		.align	2
 201              	.LC11:
 202 00d0 57726974 		.ascii	"Writing %d bytes to file, DMA\012\000"
 202      696E6720 
 202      25642062 
 202      79746573 
 202      20746F20 
 203 00ef 00       		.align	2
 204              	.LC12:
 205 00f0 2F2F6269 		.ascii	"//binarrayDMA.bin\000"
 205      6E617272 
 205      6179444D 
 205      412E6269 
 205      6E00
 206 0102 0000     		.align	2
 207              	.LC13:
 208 0104 52656164 		.ascii	"Reading %d bytes to file, DMA\012\000"
 208      696E6720 
 208      25642062 
 208      79746573 
 208      20746F20 
 209              		.section	.text.main,"ax",%progbits
 210              		.align	2
 211              		.global	main
 212              		.thumb
 213              		.thumb_func
 214              		.type	main, %function
 215              	main:
 216              	.LFB60:
  68:main.c        **** 
  69:main.c        **** #define BUFFER_SIZE 16000   //Test buffer size. This will be read/written
  70:main.c        **** 
  71:main.c        **** int main()
  72:main.c        **** {
 217              		.loc 1 72 0
 218              		.cfi_startproc
 219              		@ args = 0, pretend = 0, frame = 17792
 220              		@ frame_needed = 1, uses_anonymous_args = 0
 221 0000 B0B5     		push	{r4, r5, r7, lr}
 222              		.cfi_def_cfa_offset 16
 223              		.cfi_offset 4, -16
 224              		.cfi_offset 5, -12
 225              		.cfi_offset 7, -8
 226              		.cfi_offset 14, -4
 227 0002 ADF58B4D 		sub	sp, sp, #17792
ARM GAS  C:\Users\HPz420\AppData\Local\Temp\cczyCxcG.s 			page 7


 228              		.cfi_def_cfa_offset 17808
 229 0006 00AF     		add	r7, sp, #0
 230              		.cfi_def_cfa_register 7
  73:main.c        ****     CyGlobalIntEnable;              //Enable interrupts
 231              		.loc 1 73 0
 232              		.syntax unified
 233              	@ 73 "main.c" 1
 234 0008 62B6     		CPSIE   i
 235              	@ 0 "" 2
  74:main.c        ****     
  75:main.c        ****     MillisecISR_StartEx(MillisISR); //start millisec ISR
 236              		.loc 1 75 0
 237              		.thumb
 238              		.syntax unified
 239 000a 4F48     		ldr	r0, .L42
 240 000c FFF7FEFF 		bl	MillisecISR_StartEx
  76:main.c        ****     
  77:main.c        ****     NSDSPI_Start(SDCARD_SLOW, SDCARD_FAST, PrintFxn);   //Initialise SD card and file system (note:
 241              		.loc 1 77 0
 242 0010 4E4A     		ldr	r2, .L42+4
 243 0012 4F49     		ldr	r1, .L42+8
 244 0014 4F48     		ldr	r0, .L42+12
 245 0016 FFF7FEFF 		bl	NSDSPI_Start
  78:main.c        ****     
  79:main.c        ****     
  80:main.c        ****     FATFS FileSys;          //this will be our mounted file system
  81:main.c        ****     disk_initialize(0);     //initialise FatFS
 246              		.loc 1 81 0
 247 001a 0020     		movs	r0, #0
 248 001c FFF7FEFF 		bl	disk_initialize
  82:main.c        **** 
  83:main.c        ****     //and mount. Note: if/else and case statements below allow identification of status. 
  84:main.c        ****     //in this example, I just assume everything went ok, and have left the below for reference.
  85:main.c        ****     FRESULT nRes;
  86:main.c        ****     if((nRes = f_mount(&FileSys, "/", 1)) != FR_OK) //Fail to mount...
 249              		.loc 1 86 0
 250 0020 07F58643 		add	r3, r7, #17152
 251 0024 03F13803 		add	r3, r3, #56
 252 0028 0122     		movs	r2, #1
 253 002a 4B49     		ldr	r1, .L42+16
 254 002c 1846     		mov	r0, r3
 255 002e FFF7FEFF 		bl	f_mount
 256 0032 0346     		mov	r3, r0
 257 0034 07F58A42 		add	r2, r7, #17664
 258 0038 02F17602 		add	r2, r2, #118
 259 003c 1370     		strb	r3, [r2]
 260 003e 07F58A43 		add	r3, r7, #17664
 261 0042 03F17603 		add	r3, r3, #118
 262 0046 1B78     		ldrb	r3, [r3]	@ zero_extendqisi2
 263 0048 002B     		cmp	r3, #0
 264 004a 25D0     		beq	.L8
  87:main.c        ****     {
  88:main.c        ****         switch(nRes)    //reasons...
 265              		.loc 1 88 0
 266 004c 07F58A43 		add	r3, r7, #17664
 267 0050 03F17603 		add	r3, r3, #118
 268 0054 1B78     		ldrb	r3, [r3]	@ zero_extendqisi2
ARM GAS  C:\Users\HPz420\AppData\Local\Temp\cczyCxcG.s 			page 8


 269 0056 013B     		subs	r3, r3, #1
 270 0058 0C2B     		cmp	r3, #12
 271 005a 29D8     		bhi	.L38
 272 005c 01A2     		adr	r2, .L11
 273 005e 52F823F0 		ldr	pc, [r2, r3, lsl #2]
 274 0062 00BF     		.p2align 2
 275              	.L11:
 276 0064 B1000000 		.word	.L38+1
 277 0068 B1000000 		.word	.L38+1
 278 006c B1000000 		.word	.L38+1
 279 0070 B1000000 		.word	.L38+1
 280 0074 B1000000 		.word	.L38+1
 281 0078 B1000000 		.word	.L38+1
 282 007c B1000000 		.word	.L38+1
 283 0080 B1000000 		.word	.L38+1
 284 0084 B1000000 		.word	.L38+1
 285 0088 B1000000 		.word	.L38+1
 286 008c B1000000 		.word	.L38+1
 287 0090 B1000000 		.word	.L38+1
 288 0094 B1000000 		.word	.L38+1
 289              		.p2align 1
 290              	.L8:
  89:main.c        ****         {
  90:main.c        ****             case FR_INVALID_DRIVE: break;
  91:main.c        ****             case FR_DISK_ERR: break;
  92:main.c        ****             case FR_NOT_READY: break;
  93:main.c        ****             case FR_NO_FILESYSTEM: break;
  94:main.c        ****             default: break;
  95:main.c        ****         }
  96:main.c        ****     }
  97:main.c        **** 
  98:main.c        ****     else    //Mounted
  99:main.c        ****     {
 100:main.c        ****         switch(FileSys.fs_type) //In case filesys type is of interest
 291              		.loc 1 100 0
 292 0098 07F58643 		add	r3, r7, #17152
 293 009c 03F13803 		add	r3, r3, #56
 294 00a0 1B78     		ldrb	r3, [r3]	@ zero_extendqisi2
 295 00a2 022B     		cmp	r3, #2
 296 00a4 06D0     		beq	.L39
 297 00a6 032B     		cmp	r3, #3
 298 00a8 06D0     		beq	.L40
 299 00aa 012B     		cmp	r3, #1
 300 00ac 06D0     		beq	.L41
 101:main.c        ****         {
 102:main.c        ****             case FS_FAT12: break;
 103:main.c        ****             case FS_FAT16: break;
 104:main.c        ****             case FS_FAT32: break;
 105:main.c        ****             default: break;
 301              		.loc 1 105 0
 302 00ae 06E0     		b	.L16
 303              	.L38:
  94:main.c        ****         }
 304              		.loc 1 94 0
 305 00b0 00BF     		nop
 306 00b2 04E0     		b	.L16
 307              	.L39:
ARM GAS  C:\Users\HPz420\AppData\Local\Temp\cczyCxcG.s 			page 9


 103:main.c        ****             case FS_FAT32: break;
 308              		.loc 1 103 0
 309 00b4 00BF     		nop
 310 00b6 02E0     		b	.L16
 311              	.L40:
 104:main.c        ****             default: break;
 312              		.loc 1 104 0
 313 00b8 00BF     		nop
 314 00ba 00E0     		b	.L16
 315              	.L41:
 102:main.c        ****             case FS_FAT16: break;
 316              		.loc 1 102 0
 317 00bc 00BF     		nop
 318              	.L16:
 106:main.c        ****         }
 107:main.c        ****     }    
 108:main.c        ****     
 109:main.c        ****     //Now for the benchmarking step...
 110:main.c        ****     NSDSPI_SetDMAMode(0);    
 319              		.loc 1 110 0
 320 00be 0020     		movs	r0, #0
 321 00c0 FFF7FEFF 		bl	NSDSPI_SetDMAMode
 111:main.c        ****    
 112:main.c        ****     //Open a file and write "Testing Output" to it
 113:main.c        ****     FIL File;
 114:main.c        ****     f_open(&File, "//test.txt", FA_CREATE_ALWAYS | FA_WRITE);
 322              		.loc 1 114 0
 323 00c4 07F58243 		add	r3, r7, #16640
 324 00c8 03F11403 		add	r3, r3, #20
 325 00cc 0A22     		movs	r2, #10
 326 00ce 2349     		ldr	r1, .L42+20
 327 00d0 1846     		mov	r0, r3
 328 00d2 FFF7FEFF 		bl	f_open
 115:main.c        ****     char tmpchr[100];
 116:main.c        ****     UINT BytesWritten, BytesRead;
 117:main.c        ****     sprintf(tmpchr, "Testing Speed\n");
 329              		.loc 1 117 0
 330 00d6 07F58143 		add	r3, r7, #16512
 331 00da 03F13003 		add	r3, r3, #48
 332 00de 204A     		ldr	r2, .L42+24
 333 00e0 1C46     		mov	r4, r3
 334 00e2 1346     		mov	r3, r2
 335 00e4 0FCB     		ldmia	r3, {r0, r1, r2, r3}
 336 00e6 07C4     		stmia	r4!, {r0, r1, r2}
 337 00e8 2380     		strh	r3, [r4]	@ movhi
 338 00ea 0234     		adds	r4, r4, #2
 339 00ec 1B0C     		lsrs	r3, r3, #16
 340 00ee 2370     		strb	r3, [r4]
 118:main.c        ****     f_write(&File, tmpchr, strlen(tmpchr), &BytesWritten);
 341              		.loc 1 118 0
 342 00f0 07F58143 		add	r3, r7, #16512
 343 00f4 03F13003 		add	r3, r3, #48
 344 00f8 1846     		mov	r0, r3
 345 00fa FFF7FEFF 		bl	strlen
 346 00fe 0246     		mov	r2, r0
 347 0100 07F58143 		add	r3, r7, #16512
 348 0104 03F12C03 		add	r3, r3, #44
ARM GAS  C:\Users\HPz420\AppData\Local\Temp\cczyCxcG.s 			page 10


 349 0108 07F58141 		add	r1, r7, #16512
 350 010c 01F13001 		add	r1, r1, #48
 351 0110 07F58240 		add	r0, r7, #16640
 352 0114 00F11400 		add	r0, r0, #20
 353 0118 FFF7FEFF 		bl	f_write
 119:main.c        **** 
 120:main.c        ****     //generate dataset...
 121:main.c        ****     double vals[BUFFER_SIZE/sizeof(double)];
 122:main.c        ****     double i = 0;
 354              		.loc 1 122 0
 355 011c 4FF00003 		mov	r3, #0
 356 0120 4FF00004 		mov	r4, #0
 357 0124 07F58A42 		add	r2, r7, #17664
 358 0128 02F17802 		add	r2, r2, #120
 359 012c C2E90034 		strd	r3, [r2]
 123:main.c        ****     for(i = 0; i < BUFFER_SIZE/sizeof(double); i++)
 360              		.loc 1 123 0
 361 0130 4FF00003 		mov	r3, #0
 362 0134 4FF00004 		mov	r4, #0
 363 0138 07F58A42 		add	r2, r7, #17664
 364 013c 02F17802 		add	r2, r2, #120
 365 0140 C2E90034 		strd	r3, [r2]
 366 0144 43E0     		b	.L21
 367              	.L43:
 368 0146 00BF     		.align	2
 369              	.L42:
 370 0148 00000000 		.word	MillisISR
 371 014c 00000000 		.word	PrintFxn
 372 0150 00000000 		.word	SDCARD_FAST
 373 0154 00000000 		.word	SDCARD_SLOW
 374 0158 00000000 		.word	.LC0
 375 015c 04000000 		.word	.LC1
 376 0160 10000000 		.word	.LC2
 377              	.L22:
 124:main.c        ****     {
 125:main.c        ****         vals[(int)i] = i*i;
 378              		.loc 1 125 0 discriminator 3
 379 0164 07F58A43 		add	r3, r7, #17664
 380 0168 03F17803 		add	r3, r3, #120
 381 016c D3E90001 		ldrd	r0, [r3]
 382 0170 FFF7FEFF 		bl	__aeabi_d2iz
 383 0174 0446     		mov	r4, r0
 384 0176 07F58A43 		add	r3, r7, #17664
 385 017a 03F17803 		add	r3, r3, #120
 386 017e D3E90023 		ldrd	r2, [r3]
 387 0182 07F58A41 		add	r1, r7, #17664
 388 0186 01F17801 		add	r1, r1, #120
 389 018a D1E90001 		ldrd	r0, [r1]
 390 018e FFF7FEFF 		bl	__aeabi_dmul
 391 0192 0246     		mov	r2, r0
 392 0194 0B46     		mov	r3, r1
 393 0196 1146     		mov	r1, r2
 394 0198 1A46     		mov	r2, r3
 395 019a 07F52073 		add	r3, r7, #640
 396 019e 583B     		subs	r3, r3, #88
 397 01a0 E000     		lsls	r0, r4, #3
 398 01a2 0344     		add	r3, r3, r0
ARM GAS  C:\Users\HPz420\AppData\Local\Temp\cczyCxcG.s 			page 11


 399 01a4 C3E90012 		strd	r1, [r3]
 123:main.c        ****     for(i = 0; i < BUFFER_SIZE/sizeof(double); i++)
 400              		.loc 1 123 0 discriminator 3
 401 01a8 4FF00002 		mov	r2, #0
 402 01ac D24B     		ldr	r3, .L44
 403 01ae 07F58A41 		add	r1, r7, #17664
 404 01b2 01F17801 		add	r1, r1, #120
 405 01b6 D1E90001 		ldrd	r0, [r1]
 406 01ba FFF7FEFF 		bl	__aeabi_dadd
 407 01be 0346     		mov	r3, r0
 408 01c0 0C46     		mov	r4, r1
 409 01c2 07F58A42 		add	r2, r7, #17664
 410 01c6 02F17802 		add	r2, r2, #120
 411 01ca C2E90034 		strd	r3, [r2]
 412              	.L21:
 123:main.c        ****     for(i = 0; i < BUFFER_SIZE/sizeof(double); i++)
 413              		.loc 1 123 0 is_stmt 0 discriminator 1
 414 01ce 4FF00002 		mov	r2, #0
 415 01d2 CA4B     		ldr	r3, .L44+4
 416 01d4 07F58A41 		add	r1, r7, #17664
 417 01d8 01F17801 		add	r1, r1, #120
 418 01dc D1E90001 		ldrd	r0, [r1]
 419 01e0 FFF7FEFF 		bl	__aeabi_dcmplt
 420 01e4 0346     		mov	r3, r0
 421 01e6 002B     		cmp	r3, #0
 422 01e8 BCD1     		bne	.L22
 126:main.c        ****     }
 127:main.c        **** 
 128:main.c        ****     
 129:main.c        ****     //First, we'll write the dataset to a file in the root direcory, time the operation, then
 130:main.c        ****     //output results to test.txt in the SD card root.
 131:main.c        ****     
 132:main.c        ****     //Indicate in test.txt what we're doing
 133:main.c        ****     sprintf(tmpchr, "Writing %d bytes to file, non-DMA\n", BUFFER_SIZE);
 423              		.loc 1 133 0 is_stmt 1
 424 01ea 07F58143 		add	r3, r7, #16512
 425 01ee 03F13003 		add	r3, r3, #48
 426 01f2 4FF47A52 		mov	r2, #16000
 427 01f6 C249     		ldr	r1, .L44+8
 428 01f8 1846     		mov	r0, r3
 429 01fa FFF7FEFF 		bl	sprintf
 134:main.c        ****     f_write(&File, tmpchr, strlen(tmpchr), &BytesWritten);
 430              		.loc 1 134 0
 431 01fe 07F58143 		add	r3, r7, #16512
 432 0202 03F13003 		add	r3, r3, #48
 433 0206 1846     		mov	r0, r3
 434 0208 FFF7FEFF 		bl	strlen
 435 020c 0246     		mov	r2, r0
 436 020e 07F58143 		add	r3, r7, #16512
 437 0212 03F12C03 		add	r3, r3, #44
 438 0216 07F58141 		add	r1, r7, #16512
 439 021a 01F13001 		add	r1, r1, #48
 440 021e 07F58240 		add	r0, r7, #16640
 441 0222 00F11400 		add	r0, r0, #20
 442 0226 FFF7FEFF 		bl	f_write
 135:main.c        **** 
 136:main.c        ****     //perform operation
ARM GAS  C:\Users\HPz420\AppData\Local\Temp\cczyCxcG.s 			page 12


 137:main.c        ****     unsigned long nCurrentMillis = nmillis; //get current millisecond count
 443              		.loc 1 137 0
 444 022a B64B     		ldr	r3, .L44+12
 445 022c 1B68     		ldr	r3, [r3]
 446 022e 07F58A42 		add	r2, r7, #17664
 447 0232 02F17002 		add	r2, r2, #112
 448 0236 1360     		str	r3, [r2]
 138:main.c        ****     FIL BinFile;
 139:main.c        ****     f_open(&BinFile, "//binarray.bin", FA_CREATE_ALWAYS | FA_WRITE);
 449              		.loc 1 139 0
 450 0238 07F18003 		add	r3, r7, #128
 451 023c 7C3B     		subs	r3, r3, #124
 452 023e 0A22     		movs	r2, #10
 453 0240 B149     		ldr	r1, .L44+16
 454 0242 1846     		mov	r0, r3
 455 0244 FFF7FEFF 		bl	f_open
 140:main.c        ****     f_write(&BinFile, vals, BUFFER_SIZE, &BytesWritten);
 456              		.loc 1 140 0
 457 0248 07F58143 		add	r3, r7, #16512
 458 024c 03F12C03 		add	r3, r3, #44
 459 0250 07F52071 		add	r1, r7, #640
 460 0254 5839     		subs	r1, r1, #88
 461 0256 07F18000 		add	r0, r7, #128
 462 025a 7C38     		subs	r0, r0, #124
 463 025c 4FF47A52 		mov	r2, #16000
 464 0260 FFF7FEFF 		bl	f_write
 141:main.c        ****     f_close(&BinFile);
 465              		.loc 1 141 0
 466 0264 07F18003 		add	r3, r7, #128
 467 0268 7C3B     		subs	r3, r3, #124
 468 026a 1846     		mov	r0, r3
 469 026c FFF7FEFF 		bl	f_close
 142:main.c        ****     
 143:main.c        ****     //indicate in test.txt how long it took
 144:main.c        ****     unsigned long nTime = nmillis-nCurrentMillis;
 470              		.loc 1 144 0
 471 0270 A44B     		ldr	r3, .L44+12
 472 0272 1A68     		ldr	r2, [r3]
 473 0274 07F58A43 		add	r3, r7, #17664
 474 0278 03F17003 		add	r3, r3, #112
 475 027c 1B68     		ldr	r3, [r3]
 476 027e D31A     		subs	r3, r2, r3
 477 0280 07F58A42 		add	r2, r7, #17664
 478 0284 02F16C02 		add	r2, r2, #108
 479 0288 1360     		str	r3, [r2]
 145:main.c        ****     sprintf(tmpchr, "Took %lu ms\n", nTime);
 480              		.loc 1 145 0
 481 028a 07F58143 		add	r3, r7, #16512
 482 028e 03F13003 		add	r3, r3, #48
 483 0292 07F58A42 		add	r2, r7, #17664
 484 0296 02F16C02 		add	r2, r2, #108
 485 029a 1268     		ldr	r2, [r2]
 486 029c 9B49     		ldr	r1, .L44+20
 487 029e 1846     		mov	r0, r3
 488 02a0 FFF7FEFF 		bl	sprintf
 146:main.c        ****     f_write(&File, tmpchr, strlen(tmpchr), &BytesWritten);
 489              		.loc 1 146 0
ARM GAS  C:\Users\HPz420\AppData\Local\Temp\cczyCxcG.s 			page 13


 490 02a4 07F58143 		add	r3, r7, #16512
 491 02a8 03F13003 		add	r3, r3, #48
 492 02ac 1846     		mov	r0, r3
 493 02ae FFF7FEFF 		bl	strlen
 494 02b2 0246     		mov	r2, r0
 495 02b4 07F58143 		add	r3, r7, #16512
 496 02b8 03F12C03 		add	r3, r3, #44
 497 02bc 07F58141 		add	r1, r7, #16512
 498 02c0 01F13001 		add	r1, r1, #48
 499 02c4 07F58240 		add	r0, r7, #16640
 500 02c8 00F11400 		add	r0, r0, #20
 501 02cc FFF7FEFF 		bl	f_write
 147:main.c        ****     
 148:main.c        ****     unsigned long kbps = BUFFER_SIZE*8 / nTime;
 502              		.loc 1 148 0
 503 02d0 4FF4FA32 		mov	r2, #128000
 504 02d4 07F58A43 		add	r3, r7, #17664
 505 02d8 03F16C03 		add	r3, r3, #108
 506 02dc 1B68     		ldr	r3, [r3]
 507 02de B2FBF3F3 		udiv	r3, r2, r3
 508 02e2 07F58A42 		add	r2, r7, #17664
 509 02e6 02F16802 		add	r2, r2, #104
 510 02ea 1360     		str	r3, [r2]
 149:main.c        ****     sprintf(tmpchr, "Rate %lu kbps\n\n", kbps);
 511              		.loc 1 149 0
 512 02ec 07F58143 		add	r3, r7, #16512
 513 02f0 03F13003 		add	r3, r3, #48
 514 02f4 07F58A42 		add	r2, r7, #17664
 515 02f8 02F16802 		add	r2, r2, #104
 516 02fc 1268     		ldr	r2, [r2]
 517 02fe 8449     		ldr	r1, .L44+24
 518 0300 1846     		mov	r0, r3
 519 0302 FFF7FEFF 		bl	sprintf
 150:main.c        ****     f_write(&File, tmpchr, strlen(tmpchr), &BytesWritten);
 520              		.loc 1 150 0
 521 0306 07F58143 		add	r3, r7, #16512
 522 030a 03F13003 		add	r3, r3, #48
 523 030e 1846     		mov	r0, r3
 524 0310 FFF7FEFF 		bl	strlen
 525 0314 0246     		mov	r2, r0
 526 0316 07F58143 		add	r3, r7, #16512
 527 031a 03F12C03 		add	r3, r3, #44
 528 031e 07F58141 		add	r1, r7, #16512
 529 0322 01F13001 		add	r1, r1, #48
 530 0326 07F58240 		add	r0, r7, #16640
 531 032a 00F11400 		add	r0, r0, #20
 532 032e FFF7FEFF 		bl	f_write
 151:main.c        ****     
 152:main.c        ****     //Next, read file in
 153:main.c        ****     
 154:main.c        ****     //Indicate in test.txt what we're doing
 155:main.c        ****     sprintf(tmpchr, "Reading %d bytes to file, non-DMA\n", BUFFER_SIZE);
 533              		.loc 1 155 0
 534 0332 07F58143 		add	r3, r7, #16512
 535 0336 03F13003 		add	r3, r3, #48
 536 033a 4FF47A52 		mov	r2, #16000
 537 033e 7549     		ldr	r1, .L44+28
ARM GAS  C:\Users\HPz420\AppData\Local\Temp\cczyCxcG.s 			page 14


 538 0340 1846     		mov	r0, r3
 539 0342 FFF7FEFF 		bl	sprintf
 156:main.c        ****     f_write(&File, tmpchr, strlen(tmpchr), &BytesWritten);
 540              		.loc 1 156 0
 541 0346 07F58143 		add	r3, r7, #16512
 542 034a 03F13003 		add	r3, r3, #48
 543 034e 1846     		mov	r0, r3
 544 0350 FFF7FEFF 		bl	strlen
 545 0354 0246     		mov	r2, r0
 546 0356 07F58143 		add	r3, r7, #16512
 547 035a 03F12C03 		add	r3, r3, #44
 548 035e 07F58141 		add	r1, r7, #16512
 549 0362 01F13001 		add	r1, r1, #48
 550 0366 07F58240 		add	r0, r7, #16640
 551 036a 00F11400 		add	r0, r0, #20
 552 036e FFF7FEFF 		bl	f_write
 157:main.c        **** 
 158:main.c        ****     //perform operation
 159:main.c        ****     nCurrentMillis = nmillis; //get current millisecond count
 553              		.loc 1 159 0
 554 0372 644B     		ldr	r3, .L44+12
 555 0374 1B68     		ldr	r3, [r3]
 556 0376 07F58A42 		add	r2, r7, #17664
 557 037a 02F17002 		add	r2, r2, #112
 558 037e 1360     		str	r3, [r2]
 160:main.c        ****     
 161:main.c        ****     f_open(&BinFile, "//binarray.bin", FA_OPEN_EXISTING | FA_READ);
 559              		.loc 1 161 0
 560 0380 07F18003 		add	r3, r7, #128
 561 0384 7C3B     		subs	r3, r3, #124
 562 0386 0122     		movs	r2, #1
 563 0388 5F49     		ldr	r1, .L44+16
 564 038a 1846     		mov	r0, r3
 565 038c FFF7FEFF 		bl	f_open
 162:main.c        ****     f_read(&BinFile, vals, BUFFER_SIZE, &BytesRead);
 566              		.loc 1 162 0
 567 0390 07F58143 		add	r3, r7, #16512
 568 0394 03F12803 		add	r3, r3, #40
 569 0398 07F52071 		add	r1, r7, #640
 570 039c 5839     		subs	r1, r1, #88
 571 039e 07F18000 		add	r0, r7, #128
 572 03a2 7C38     		subs	r0, r0, #124
 573 03a4 4FF47A52 		mov	r2, #16000
 574 03a8 FFF7FEFF 		bl	f_read
 163:main.c        ****     f_close(&BinFile);
 575              		.loc 1 163 0
 576 03ac 07F18003 		add	r3, r7, #128
 577 03b0 7C3B     		subs	r3, r3, #124
 578 03b2 1846     		mov	r0, r3
 579 03b4 FFF7FEFF 		bl	f_close
 164:main.c        ****     
 165:main.c        ****     //indicate in test.txt how long it took
 166:main.c        ****     nTime = nmillis-nCurrentMillis;
 580              		.loc 1 166 0
 581 03b8 524B     		ldr	r3, .L44+12
 582 03ba 1A68     		ldr	r2, [r3]
 583 03bc 07F58A43 		add	r3, r7, #17664
ARM GAS  C:\Users\HPz420\AppData\Local\Temp\cczyCxcG.s 			page 15


 584 03c0 03F17003 		add	r3, r3, #112
 585 03c4 1B68     		ldr	r3, [r3]
 586 03c6 D31A     		subs	r3, r2, r3
 587 03c8 07F58A42 		add	r2, r7, #17664
 588 03cc 02F16C02 		add	r2, r2, #108
 589 03d0 1360     		str	r3, [r2]
 167:main.c        ****     sprintf(tmpchr, "Took %lu ms\nVerifying...", nTime);
 590              		.loc 1 167 0
 591 03d2 07F58143 		add	r3, r7, #16512
 592 03d6 03F13003 		add	r3, r3, #48
 593 03da 07F58A42 		add	r2, r7, #17664
 594 03de 02F16C02 		add	r2, r2, #108
 595 03e2 1268     		ldr	r2, [r2]
 596 03e4 4C49     		ldr	r1, .L44+32
 597 03e6 1846     		mov	r0, r3
 598 03e8 FFF7FEFF 		bl	sprintf
 168:main.c        ****     f_write(&File, tmpchr, strlen(tmpchr), &BytesWritten);
 599              		.loc 1 168 0
 600 03ec 07F58143 		add	r3, r7, #16512
 601 03f0 03F13003 		add	r3, r3, #48
 602 03f4 1846     		mov	r0, r3
 603 03f6 FFF7FEFF 		bl	strlen
 604 03fa 0246     		mov	r2, r0
 605 03fc 07F58143 		add	r3, r7, #16512
 606 0400 03F12C03 		add	r3, r3, #44
 607 0404 07F58141 		add	r1, r7, #16512
 608 0408 01F13001 		add	r1, r1, #48
 609 040c 07F58240 		add	r0, r7, #16640
 610 0410 00F11400 		add	r0, r0, #20
 611 0414 FFF7FEFF 		bl	f_write
 169:main.c        ****     
 170:main.c        ****     unsigned char bVerifyFail = 0;
 612              		.loc 1 170 0
 613 0418 0023     		movs	r3, #0
 614 041a 07F58A42 		add	r2, r7, #17664
 615 041e 02F17702 		add	r2, r2, #119
 616 0422 1370     		strb	r3, [r2]
 171:main.c        ****     for(i = 0; i < 500; i++)
 617              		.loc 1 171 0
 618 0424 4FF00003 		mov	r3, #0
 619 0428 4FF00004 		mov	r4, #0
 620 042c 07F58A42 		add	r2, r7, #17664
 621 0430 02F17802 		add	r2, r2, #120
 622 0434 C2E90034 		strd	r3, [r2]
 623 0438 3FE0     		b	.L23
 624              	.L26:
 172:main.c        ****     {
 173:main.c        ****         if(vals[(int)i] != i*i) bVerifyFail = 1;
 625              		.loc 1 173 0
 626 043a 07F58A43 		add	r3, r7, #17664
 627 043e 03F17803 		add	r3, r3, #120
 628 0442 D3E90001 		ldrd	r0, [r3]
 629 0446 FFF7FEFF 		bl	__aeabi_d2iz
 630 044a 0246     		mov	r2, r0
 631 044c 07F52073 		add	r3, r7, #640
 632 0450 583B     		subs	r3, r3, #88
 633 0452 D200     		lsls	r2, r2, #3
ARM GAS  C:\Users\HPz420\AppData\Local\Temp\cczyCxcG.s 			page 16


 634 0454 1344     		add	r3, r3, r2
 635 0456 D3E90045 		ldrd	r4, [r3]
 636 045a 07F58A43 		add	r3, r7, #17664
 637 045e 03F17803 		add	r3, r3, #120
 638 0462 D3E90023 		ldrd	r2, [r3]
 639 0466 07F58A41 		add	r1, r7, #17664
 640 046a 01F17801 		add	r1, r1, #120
 641 046e D1E90001 		ldrd	r0, [r1]
 642 0472 FFF7FEFF 		bl	__aeabi_dmul
 643 0476 0246     		mov	r2, r0
 644 0478 0B46     		mov	r3, r1
 645 047a 2046     		mov	r0, r4
 646 047c 2946     		mov	r1, r5
 647 047e FFF7FEFF 		bl	__aeabi_dcmpeq
 648 0482 0346     		mov	r3, r0
 649 0484 002B     		cmp	r3, #0
 650 0486 05D1     		bne	.L24
 651              		.loc 1 173 0 is_stmt 0 discriminator 1
 652 0488 0123     		movs	r3, #1
 653 048a 07F58A42 		add	r2, r7, #17664
 654 048e 02F17702 		add	r2, r2, #119
 655 0492 1370     		strb	r3, [r2]
 656              	.L24:
 171:main.c        ****     for(i = 0; i < 500; i++)
 657              		.loc 1 171 0 is_stmt 1 discriminator 2
 658 0494 4FF00002 		mov	r2, #0
 659 0498 174B     		ldr	r3, .L44
 660 049a 07F58A41 		add	r1, r7, #17664
 661 049e 01F17801 		add	r1, r1, #120
 662 04a2 D1E90001 		ldrd	r0, [r1]
 663 04a6 FFF7FEFF 		bl	__aeabi_dadd
 664 04aa 0346     		mov	r3, r0
 665 04ac 0C46     		mov	r4, r1
 666 04ae 07F58A42 		add	r2, r7, #17664
 667 04b2 02F17802 		add	r2, r2, #120
 668 04b6 C2E90034 		strd	r3, [r2]
 669              	.L23:
 171:main.c        ****     for(i = 0; i < 500; i++)
 670              		.loc 1 171 0 is_stmt 0 discriminator 1
 671 04ba 4FF00002 		mov	r2, #0
 672 04be 174B     		ldr	r3, .L44+36
 673 04c0 07F58A41 		add	r1, r7, #17664
 674 04c4 01F17801 		add	r1, r1, #120
 675 04c8 D1E90001 		ldrd	r0, [r1]
 676 04cc FFF7FEFF 		bl	__aeabi_dcmplt
 677 04d0 0346     		mov	r3, r0
 678 04d2 002B     		cmp	r3, #0
 679 04d4 B1D1     		bne	.L26
 174:main.c        ****     }
 175:main.c        ****     if(bVerifyFail)
 680              		.loc 1 175 0 is_stmt 1
 681 04d6 07F58A43 		add	r3, r7, #17664
 682 04da 03F17703 		add	r3, r3, #119
 683 04de 1B78     		ldrb	r3, [r3]	@ zero_extendqisi2
 684 04e0 002B     		cmp	r3, #0
 685 04e2 1FD0     		beq	.L27
 176:main.c        ****         sprintf(tmpchr, "FAIL :O\n");       
ARM GAS  C:\Users\HPz420\AppData\Local\Temp\cczyCxcG.s 			page 17


 686              		.loc 1 176 0
 687 04e4 07F58143 		add	r3, r7, #16512
 688 04e8 03F13003 		add	r3, r3, #48
 689 04ec 0C4A     		ldr	r2, .L44+40
 690 04ee 07CA     		ldmia	r2, {r0, r1, r2}
 691 04f0 03C3     		stmia	r3!, {r0, r1}
 692 04f2 1A70     		strb	r2, [r3]
 693 04f4 23E0     		b	.L28
 694              	.L45:
 695 04f6 00BF     		.align	2
 696              	.L44:
 697 04f8 0000F03F 		.word	1072693248
 698 04fc 00409F40 		.word	1084178432
 699 0500 20000000 		.word	.LC3
 700 0504 00000000 		.word	nmillis
 701 0508 44000000 		.word	.LC4
 702 050c 54000000 		.word	.LC5
 703 0510 64000000 		.word	.LC6
 704 0514 74000000 		.word	.LC7
 705 0518 98000000 		.word	.LC8
 706 051c 00407F40 		.word	1082081280
 707 0520 B4000000 		.word	.LC9
 708              	.L27:
 177:main.c        ****     else
 178:main.c        ****         sprintf(tmpchr, " All Good! :D\n");               
 709              		.loc 1 178 0
 710 0524 07F58143 		add	r3, r7, #16512
 711 0528 03F13003 		add	r3, r3, #48
 712 052c BD4A     		ldr	r2, .L46
 713 052e 1C46     		mov	r4, r3
 714 0530 1346     		mov	r3, r2
 715 0532 0FCB     		ldmia	r3, {r0, r1, r2, r3}
 716 0534 07C4     		stmia	r4!, {r0, r1, r2}
 717 0536 2380     		strh	r3, [r4]	@ movhi
 718 0538 0234     		adds	r4, r4, #2
 719 053a 1B0C     		lsrs	r3, r3, #16
 720 053c 2370     		strb	r3, [r4]
 721              	.L28:
 179:main.c        ****     f_write(&File, tmpchr, strlen(tmpchr), &BytesWritten);
 722              		.loc 1 179 0
 723 053e 07F58143 		add	r3, r7, #16512
 724 0542 03F13003 		add	r3, r3, #48
 725 0546 1846     		mov	r0, r3
 726 0548 FFF7FEFF 		bl	strlen
 727 054c 0246     		mov	r2, r0
 728 054e 07F58143 		add	r3, r7, #16512
 729 0552 03F12C03 		add	r3, r3, #44
 730 0556 07F58141 		add	r1, r7, #16512
 731 055a 01F13001 		add	r1, r1, #48
 732 055e 07F58240 		add	r0, r7, #16640
 733 0562 00F11400 		add	r0, r0, #20
 734 0566 FFF7FEFF 		bl	f_write
 180:main.c        **** 
 181:main.c        ****     kbps = BUFFER_SIZE*8 / nTime;
 735              		.loc 1 181 0
 736 056a 4FF4FA32 		mov	r2, #128000
 737 056e 07F58A43 		add	r3, r7, #17664
ARM GAS  C:\Users\HPz420\AppData\Local\Temp\cczyCxcG.s 			page 18


 738 0572 03F16C03 		add	r3, r3, #108
 739 0576 1B68     		ldr	r3, [r3]
 740 0578 B2FBF3F3 		udiv	r3, r2, r3
 741 057c 07F58A42 		add	r2, r7, #17664
 742 0580 02F16802 		add	r2, r2, #104
 743 0584 1360     		str	r3, [r2]
 182:main.c        ****     sprintf(tmpchr, "Rate %lu kbps\n\n", kbps);
 744              		.loc 1 182 0
 745 0586 07F58143 		add	r3, r7, #16512
 746 058a 03F13003 		add	r3, r3, #48
 747 058e 07F58A42 		add	r2, r7, #17664
 748 0592 02F16802 		add	r2, r2, #104
 749 0596 1268     		ldr	r2, [r2]
 750 0598 A349     		ldr	r1, .L46+4
 751 059a 1846     		mov	r0, r3
 752 059c FFF7FEFF 		bl	sprintf
 183:main.c        ****     f_write(&File, tmpchr, strlen(tmpchr), &BytesWritten);
 753              		.loc 1 183 0
 754 05a0 07F58143 		add	r3, r7, #16512
 755 05a4 03F13003 		add	r3, r3, #48
 756 05a8 1846     		mov	r0, r3
 757 05aa FFF7FEFF 		bl	strlen
 758 05ae 0246     		mov	r2, r0
 759 05b0 07F58143 		add	r3, r7, #16512
 760 05b4 03F12C03 		add	r3, r3, #44
 761 05b8 07F58141 		add	r1, r7, #16512
 762 05bc 01F13001 		add	r1, r1, #48
 763 05c0 07F58240 		add	r0, r7, #16640
 764 05c4 00F11400 		add	r0, r0, #20
 765 05c8 FFF7FEFF 		bl	f_write
 184:main.c        **** 
 185:main.c        ****     //Now, enable DMA...
 186:main.c        ****     NSDSPI_SetDMAMode(1);
 766              		.loc 1 186 0
 767 05cc 0120     		movs	r0, #1
 768 05ce FFF7FEFF 		bl	NSDSPI_SetDMAMode
 187:main.c        ****     
 188:main.c        ****     //and repeat tests
 189:main.c        ****     //Indicate in test.txt what we're doing
 190:main.c        ****     sprintf(tmpchr, "Writing %d bytes to file, DMA\n", BUFFER_SIZE);
 769              		.loc 1 190 0
 770 05d2 07F58143 		add	r3, r7, #16512
 771 05d6 03F13003 		add	r3, r3, #48
 772 05da 4FF47A52 		mov	r2, #16000
 773 05de 9349     		ldr	r1, .L46+8
 774 05e0 1846     		mov	r0, r3
 775 05e2 FFF7FEFF 		bl	sprintf
 191:main.c        ****     f_write(&File, tmpchr, strlen(tmpchr), &BytesWritten);
 776              		.loc 1 191 0
 777 05e6 07F58143 		add	r3, r7, #16512
 778 05ea 03F13003 		add	r3, r3, #48
 779 05ee 1846     		mov	r0, r3
 780 05f0 FFF7FEFF 		bl	strlen
 781 05f4 0246     		mov	r2, r0
 782 05f6 07F58143 		add	r3, r7, #16512
 783 05fa 03F12C03 		add	r3, r3, #44
 784 05fe 07F58141 		add	r1, r7, #16512
ARM GAS  C:\Users\HPz420\AppData\Local\Temp\cczyCxcG.s 			page 19


 785 0602 01F13001 		add	r1, r1, #48
 786 0606 07F58240 		add	r0, r7, #16640
 787 060a 00F11400 		add	r0, r0, #20
 788 060e FFF7FEFF 		bl	f_write
 192:main.c        **** 
 193:main.c        ****     //perform operation
 194:main.c        ****     nCurrentMillis = nmillis; //get current millisecond count
 789              		.loc 1 194 0
 790 0612 874B     		ldr	r3, .L46+12
 791 0614 1B68     		ldr	r3, [r3]
 792 0616 07F58A42 		add	r2, r7, #17664
 793 061a 02F17002 		add	r2, r2, #112
 794 061e 1360     		str	r3, [r2]
 195:main.c        ****     f_open(&BinFile, "//binarrayDMA.bin", FA_CREATE_ALWAYS | FA_WRITE);
 795              		.loc 1 195 0
 796 0620 07F18003 		add	r3, r7, #128
 797 0624 7C3B     		subs	r3, r3, #124
 798 0626 0A22     		movs	r2, #10
 799 0628 8249     		ldr	r1, .L46+16
 800 062a 1846     		mov	r0, r3
 801 062c FFF7FEFF 		bl	f_open
 196:main.c        ****     f_write(&BinFile, vals, BUFFER_SIZE, &BytesWritten);
 802              		.loc 1 196 0
 803 0630 07F58143 		add	r3, r7, #16512
 804 0634 03F12C03 		add	r3, r3, #44
 805 0638 07F52071 		add	r1, r7, #640
 806 063c 5839     		subs	r1, r1, #88
 807 063e 07F18000 		add	r0, r7, #128
 808 0642 7C38     		subs	r0, r0, #124
 809 0644 4FF47A52 		mov	r2, #16000
 810 0648 FFF7FEFF 		bl	f_write
 197:main.c        ****     f_close(&BinFile);
 811              		.loc 1 197 0
 812 064c 07F18003 		add	r3, r7, #128
 813 0650 7C3B     		subs	r3, r3, #124
 814 0652 1846     		mov	r0, r3
 815 0654 FFF7FEFF 		bl	f_close
 198:main.c        ****     
 199:main.c        ****     //indicate in test.txt how long it took
 200:main.c        ****     nTime = nmillis-nCurrentMillis;
 816              		.loc 1 200 0
 817 0658 754B     		ldr	r3, .L46+12
 818 065a 1A68     		ldr	r2, [r3]
 819 065c 07F58A43 		add	r3, r7, #17664
 820 0660 03F17003 		add	r3, r3, #112
 821 0664 1B68     		ldr	r3, [r3]
 822 0666 D31A     		subs	r3, r2, r3
 823 0668 07F58A42 		add	r2, r7, #17664
 824 066c 02F16C02 		add	r2, r2, #108
 825 0670 1360     		str	r3, [r2]
 201:main.c        ****     sprintf(tmpchr, "Took %lu ms\n", nTime);
 826              		.loc 1 201 0
 827 0672 07F58143 		add	r3, r7, #16512
 828 0676 03F13003 		add	r3, r3, #48
 829 067a 07F58A42 		add	r2, r7, #17664
 830 067e 02F16C02 		add	r2, r2, #108
 831 0682 1268     		ldr	r2, [r2]
ARM GAS  C:\Users\HPz420\AppData\Local\Temp\cczyCxcG.s 			page 20


 832 0684 6C49     		ldr	r1, .L46+20
 833 0686 1846     		mov	r0, r3
 834 0688 FFF7FEFF 		bl	sprintf
 202:main.c        ****     f_write(&File, tmpchr, strlen(tmpchr), &BytesWritten);
 835              		.loc 1 202 0
 836 068c 07F58143 		add	r3, r7, #16512
 837 0690 03F13003 		add	r3, r3, #48
 838 0694 1846     		mov	r0, r3
 839 0696 FFF7FEFF 		bl	strlen
 840 069a 0246     		mov	r2, r0
 841 069c 07F58143 		add	r3, r7, #16512
 842 06a0 03F12C03 		add	r3, r3, #44
 843 06a4 07F58141 		add	r1, r7, #16512
 844 06a8 01F13001 		add	r1, r1, #48
 845 06ac 07F58240 		add	r0, r7, #16640
 846 06b0 00F11400 		add	r0, r0, #20
 847 06b4 FFF7FEFF 		bl	f_write
 203:main.c        ****     
 204:main.c        ****     kbps = BUFFER_SIZE*8 / nTime;
 848              		.loc 1 204 0
 849 06b8 4FF4FA32 		mov	r2, #128000
 850 06bc 07F58A43 		add	r3, r7, #17664
 851 06c0 03F16C03 		add	r3, r3, #108
 852 06c4 1B68     		ldr	r3, [r3]
 853 06c6 B2FBF3F3 		udiv	r3, r2, r3
 854 06ca 07F58A42 		add	r2, r7, #17664
 855 06ce 02F16802 		add	r2, r2, #104
 856 06d2 1360     		str	r3, [r2]
 205:main.c        ****     sprintf(tmpchr, "Rate %lu kbps\n\n", kbps);
 857              		.loc 1 205 0
 858 06d4 07F58143 		add	r3, r7, #16512
 859 06d8 03F13003 		add	r3, r3, #48
 860 06dc 07F58A42 		add	r2, r7, #17664
 861 06e0 02F16802 		add	r2, r2, #104
 862 06e4 1268     		ldr	r2, [r2]
 863 06e6 5049     		ldr	r1, .L46+4
 864 06e8 1846     		mov	r0, r3
 865 06ea FFF7FEFF 		bl	sprintf
 206:main.c        ****     f_write(&File, tmpchr, strlen(tmpchr), &BytesWritten);
 866              		.loc 1 206 0
 867 06ee 07F58143 		add	r3, r7, #16512
 868 06f2 03F13003 		add	r3, r3, #48
 869 06f6 1846     		mov	r0, r3
 870 06f8 FFF7FEFF 		bl	strlen
 871 06fc 0246     		mov	r2, r0
 872 06fe 07F58143 		add	r3, r7, #16512
 873 0702 03F12C03 		add	r3, r3, #44
 874 0706 07F58141 		add	r1, r7, #16512
 875 070a 01F13001 		add	r1, r1, #48
 876 070e 07F58240 		add	r0, r7, #16640
 877 0712 00F11400 		add	r0, r0, #20
 878 0716 FFF7FEFF 		bl	f_write
 207:main.c        ****     //Next, read file in
 208:main.c        ****     
 209:main.c        ****     //Indicate in test.txt what we're doing
 210:main.c        ****     sprintf(tmpchr, "Reading %d bytes to file, DMA\n", BUFFER_SIZE);
 879              		.loc 1 210 0
ARM GAS  C:\Users\HPz420\AppData\Local\Temp\cczyCxcG.s 			page 21


 880 071a 07F58143 		add	r3, r7, #16512
 881 071e 03F13003 		add	r3, r3, #48
 882 0722 4FF47A52 		mov	r2, #16000
 883 0726 4549     		ldr	r1, .L46+24
 884 0728 1846     		mov	r0, r3
 885 072a FFF7FEFF 		bl	sprintf
 211:main.c        ****     f_write(&File, tmpchr, strlen(tmpchr), &BytesWritten);
 886              		.loc 1 211 0
 887 072e 07F58143 		add	r3, r7, #16512
 888 0732 03F13003 		add	r3, r3, #48
 889 0736 1846     		mov	r0, r3
 890 0738 FFF7FEFF 		bl	strlen
 891 073c 0246     		mov	r2, r0
 892 073e 07F58143 		add	r3, r7, #16512
 893 0742 03F12C03 		add	r3, r3, #44
 894 0746 07F58141 		add	r1, r7, #16512
 895 074a 01F13001 		add	r1, r1, #48
 896 074e 07F58240 		add	r0, r7, #16640
 897 0752 00F11400 		add	r0, r0, #20
 898 0756 FFF7FEFF 		bl	f_write
 212:main.c        **** 
 213:main.c        ****     //perform operation
 214:main.c        ****     nCurrentMillis = nmillis; //get current millisecond count
 899              		.loc 1 214 0
 900 075a 354B     		ldr	r3, .L46+12
 901 075c 1B68     		ldr	r3, [r3]
 902 075e 07F58A42 		add	r2, r7, #17664
 903 0762 02F17002 		add	r2, r2, #112
 904 0766 1360     		str	r3, [r2]
 215:main.c        ****     
 216:main.c        ****     f_open(&BinFile, "//binarrayDMA.bin", FA_OPEN_EXISTING | FA_READ);
 905              		.loc 1 216 0
 906 0768 07F18003 		add	r3, r7, #128
 907 076c 7C3B     		subs	r3, r3, #124
 908 076e 0122     		movs	r2, #1
 909 0770 3049     		ldr	r1, .L46+16
 910 0772 1846     		mov	r0, r3
 911 0774 FFF7FEFF 		bl	f_open
 217:main.c        ****     f_read(&BinFile, vals, BUFFER_SIZE, &BytesRead);
 912              		.loc 1 217 0
 913 0778 07F58143 		add	r3, r7, #16512
 914 077c 03F12803 		add	r3, r3, #40
 915 0780 07F52071 		add	r1, r7, #640
 916 0784 5839     		subs	r1, r1, #88
 917 0786 07F18000 		add	r0, r7, #128
 918 078a 7C38     		subs	r0, r0, #124
 919 078c 4FF47A52 		mov	r2, #16000
 920 0790 FFF7FEFF 		bl	f_read
 218:main.c        ****     f_close(&BinFile);
 921              		.loc 1 218 0
 922 0794 07F18003 		add	r3, r7, #128
 923 0798 7C3B     		subs	r3, r3, #124
 924 079a 1846     		mov	r0, r3
 925 079c FFF7FEFF 		bl	f_close
 219:main.c        ****     
 220:main.c        ****     //indicate in test.txt how long it took
 221:main.c        ****     nTime = nmillis-nCurrentMillis;
ARM GAS  C:\Users\HPz420\AppData\Local\Temp\cczyCxcG.s 			page 22


 926              		.loc 1 221 0
 927 07a0 234B     		ldr	r3, .L46+12
 928 07a2 1A68     		ldr	r2, [r3]
 929 07a4 07F58A43 		add	r3, r7, #17664
 930 07a8 03F17003 		add	r3, r3, #112
 931 07ac 1B68     		ldr	r3, [r3]
 932 07ae D31A     		subs	r3, r2, r3
 933 07b0 07F58A42 		add	r2, r7, #17664
 934 07b4 02F16C02 		add	r2, r2, #108
 935 07b8 1360     		str	r3, [r2]
 222:main.c        ****     sprintf(tmpchr, "Took %lu ms\nVerifying...", nTime);
 936              		.loc 1 222 0
 937 07ba 07F58143 		add	r3, r7, #16512
 938 07be 03F13003 		add	r3, r3, #48
 939 07c2 07F58A42 		add	r2, r7, #17664
 940 07c6 02F16C02 		add	r2, r2, #108
 941 07ca 1268     		ldr	r2, [r2]
 942 07cc 1C49     		ldr	r1, .L46+28
 943 07ce 1846     		mov	r0, r3
 944 07d0 FFF7FEFF 		bl	sprintf
 223:main.c        ****     f_write(&File, tmpchr, strlen(tmpchr), &BytesWritten);
 945              		.loc 1 223 0
 946 07d4 07F58143 		add	r3, r7, #16512
 947 07d8 03F13003 		add	r3, r3, #48
 948 07dc 1846     		mov	r0, r3
 949 07de FFF7FEFF 		bl	strlen
 950 07e2 0246     		mov	r2, r0
 951 07e4 07F58143 		add	r3, r7, #16512
 952 07e8 03F12C03 		add	r3, r3, #44
 953 07ec 07F58141 		add	r1, r7, #16512
 954 07f0 01F13001 		add	r1, r1, #48
 955 07f4 07F58240 		add	r0, r7, #16640
 956 07f8 00F11400 		add	r0, r0, #20
 957 07fc FFF7FEFF 		bl	f_write
 224:main.c        ****     
 225:main.c        ****     bVerifyFail = 0;
 958              		.loc 1 225 0
 959 0800 0023     		movs	r3, #0
 960 0802 07F58A42 		add	r2, r7, #17664
 961 0806 02F17702 		add	r2, r2, #119
 962 080a 1370     		strb	r3, [r2]
 226:main.c        ****     for(i = 0; i < 500; i++)
 963              		.loc 1 226 0
 964 080c 4FF00003 		mov	r3, #0
 965 0810 4FF00004 		mov	r4, #0
 966 0814 07F58A42 		add	r2, r7, #17664
 967 0818 02F17802 		add	r2, r2, #120
 968 081c C2E90034 		strd	r3, [r2]
 969 0820 50E0     		b	.L29
 970              	.L47:
 971 0822 00BF     		.align	2
 972              	.L46:
 973 0824 C0000000 		.word	.LC10
 974 0828 64000000 		.word	.LC6
 975 082c D0000000 		.word	.LC11
 976 0830 00000000 		.word	nmillis
 977 0834 F0000000 		.word	.LC12
ARM GAS  C:\Users\HPz420\AppData\Local\Temp\cczyCxcG.s 			page 23


 978 0838 54000000 		.word	.LC5
 979 083c 04010000 		.word	.LC13
 980 0840 98000000 		.word	.LC8
 981              	.L32:
 227:main.c        ****     {
 228:main.c        ****         if(vals[(int)i] != i*i) bVerifyFail = 1;
 982              		.loc 1 228 0
 983 0844 07F58A43 		add	r3, r7, #17664
 984 0848 03F17803 		add	r3, r3, #120
 985 084c D3E90001 		ldrd	r0, [r3]
 986 0850 FFF7FEFF 		bl	__aeabi_d2iz
 987 0854 0246     		mov	r2, r0
 988 0856 07F52073 		add	r3, r7, #640
 989 085a 583B     		subs	r3, r3, #88
 990 085c D200     		lsls	r2, r2, #3
 991 085e 1344     		add	r3, r3, r2
 992 0860 D3E90045 		ldrd	r4, [r3]
 993 0864 07F58A43 		add	r3, r7, #17664
 994 0868 03F17803 		add	r3, r3, #120
 995 086c D3E90023 		ldrd	r2, [r3]
 996 0870 07F58A41 		add	r1, r7, #17664
 997 0874 01F17801 		add	r1, r1, #120
 998 0878 D1E90001 		ldrd	r0, [r1]
 999 087c FFF7FEFF 		bl	__aeabi_dmul
 1000 0880 0246     		mov	r2, r0
 1001 0882 0B46     		mov	r3, r1
 1002 0884 2046     		mov	r0, r4
 1003 0886 2946     		mov	r1, r5
 1004 0888 FFF7FEFF 		bl	__aeabi_dcmpeq
 1005 088c 0346     		mov	r3, r0
 1006 088e 002B     		cmp	r3, #0
 1007 0890 05D1     		bne	.L30
 1008              		.loc 1 228 0 is_stmt 0 discriminator 1
 1009 0892 0123     		movs	r3, #1
 1010 0894 07F58A42 		add	r2, r7, #17664
 1011 0898 02F17702 		add	r2, r2, #119
 1012 089c 1370     		strb	r3, [r2]
 1013              	.L30:
 226:main.c        ****     for(i = 0; i < 500; i++)
 1014              		.loc 1 226 0 is_stmt 1 discriminator 2
 1015 089e 4FF00002 		mov	r2, #0
 1016 08a2 454B     		ldr	r3, .L48
 1017 08a4 07F58A41 		add	r1, r7, #17664
 1018 08a8 01F17801 		add	r1, r1, #120
 1019 08ac D1E90001 		ldrd	r0, [r1]
 1020 08b0 FFF7FEFF 		bl	__aeabi_dadd
 1021 08b4 0346     		mov	r3, r0
 1022 08b6 0C46     		mov	r4, r1
 1023 08b8 07F58A42 		add	r2, r7, #17664
 1024 08bc 02F17802 		add	r2, r2, #120
 1025 08c0 C2E90034 		strd	r3, [r2]
 1026              	.L29:
 226:main.c        ****     for(i = 0; i < 500; i++)
 1027              		.loc 1 226 0 is_stmt 0 discriminator 1
 1028 08c4 4FF00002 		mov	r2, #0
 1029 08c8 3C4B     		ldr	r3, .L48+4
 1030 08ca 07F58A41 		add	r1, r7, #17664
ARM GAS  C:\Users\HPz420\AppData\Local\Temp\cczyCxcG.s 			page 24


 1031 08ce 01F17801 		add	r1, r1, #120
 1032 08d2 D1E90001 		ldrd	r0, [r1]
 1033 08d6 FFF7FEFF 		bl	__aeabi_dcmplt
 1034 08da 0346     		mov	r3, r0
 1035 08dc 002B     		cmp	r3, #0
 1036 08de B1D1     		bne	.L32
 229:main.c        ****     }
 230:main.c        ****     if(bVerifyFail)
 1037              		.loc 1 230 0 is_stmt 1
 1038 08e0 07F58A43 		add	r3, r7, #17664
 1039 08e4 03F17703 		add	r3, r3, #119
 1040 08e8 1B78     		ldrb	r3, [r3]	@ zero_extendqisi2
 1041 08ea 002B     		cmp	r3, #0
 1042 08ec 08D0     		beq	.L33
 231:main.c        ****         sprintf(tmpchr, "FAIL :O\n");       
 1043              		.loc 1 231 0
 1044 08ee 07F58143 		add	r3, r7, #16512
 1045 08f2 03F13003 		add	r3, r3, #48
 1046 08f6 324A     		ldr	r2, .L48+8
 1047 08f8 07CA     		ldmia	r2, {r0, r1, r2}
 1048 08fa 03C3     		stmia	r3!, {r0, r1}
 1049 08fc 1A70     		strb	r2, [r3]
 1050 08fe 0CE0     		b	.L34
 1051              	.L33:
 232:main.c        ****     else
 233:main.c        ****         sprintf(tmpchr, " All Good! :D\n");               
 1052              		.loc 1 233 0
 1053 0900 07F58143 		add	r3, r7, #16512
 1054 0904 03F13003 		add	r3, r3, #48
 1055 0908 2E4A     		ldr	r2, .L48+12
 1056 090a 1C46     		mov	r4, r3
 1057 090c 1346     		mov	r3, r2
 1058 090e 0FCB     		ldmia	r3, {r0, r1, r2, r3}
 1059 0910 07C4     		stmia	r4!, {r0, r1, r2}
 1060 0912 2380     		strh	r3, [r4]	@ movhi
 1061 0914 0234     		adds	r4, r4, #2
 1062 0916 1B0C     		lsrs	r3, r3, #16
 1063 0918 2370     		strb	r3, [r4]
 1064              	.L34:
 234:main.c        ****     f_write(&File, tmpchr, strlen(tmpchr), &BytesWritten); 
 1065              		.loc 1 234 0
 1066 091a 07F58143 		add	r3, r7, #16512
 1067 091e 03F13003 		add	r3, r3, #48
 1068 0922 1846     		mov	r0, r3
 1069 0924 FFF7FEFF 		bl	strlen
 1070 0928 0246     		mov	r2, r0
 1071 092a 07F58143 		add	r3, r7, #16512
 1072 092e 03F12C03 		add	r3, r3, #44
 1073 0932 07F58141 		add	r1, r7, #16512
 1074 0936 01F13001 		add	r1, r1, #48
 1075 093a 07F58240 		add	r0, r7, #16640
 1076 093e 00F11400 		add	r0, r0, #20
 1077 0942 FFF7FEFF 		bl	f_write
 235:main.c        ****     
 236:main.c        ****     kbps = BUFFER_SIZE*8 / nTime;
 1078              		.loc 1 236 0
 1079 0946 4FF4FA32 		mov	r2, #128000
ARM GAS  C:\Users\HPz420\AppData\Local\Temp\cczyCxcG.s 			page 25


 1080 094a 07F58A43 		add	r3, r7, #17664
 1081 094e 03F16C03 		add	r3, r3, #108
 1082 0952 1B68     		ldr	r3, [r3]
 1083 0954 B2FBF3F3 		udiv	r3, r2, r3
 1084 0958 07F58A42 		add	r2, r7, #17664
 1085 095c 02F16802 		add	r2, r2, #104
 1086 0960 1360     		str	r3, [r2]
 237:main.c        ****     sprintf(tmpchr, "Rate %lu kbps\n\n", kbps);
 1087              		.loc 1 237 0
 1088 0962 07F58143 		add	r3, r7, #16512
 1089 0966 03F13003 		add	r3, r3, #48
 1090 096a 07F58A42 		add	r2, r7, #17664
 1091 096e 02F16802 		add	r2, r2, #104
 1092 0972 1268     		ldr	r2, [r2]
 1093 0974 1449     		ldr	r1, .L48+16
 1094 0976 1846     		mov	r0, r3
 1095 0978 FFF7FEFF 		bl	sprintf
 238:main.c        ****     f_write(&File, tmpchr, strlen(tmpchr), &BytesWritten);
 1096              		.loc 1 238 0
 1097 097c 07F58143 		add	r3, r7, #16512
 1098 0980 03F13003 		add	r3, r3, #48
 1099 0984 1846     		mov	r0, r3
 1100 0986 FFF7FEFF 		bl	strlen
 1101 098a 0246     		mov	r2, r0
 1102 098c 07F58143 		add	r3, r7, #16512
 1103 0990 03F12C03 		add	r3, r3, #44
 1104 0994 07F58141 		add	r1, r7, #16512
 1105 0998 01F13001 		add	r1, r1, #48
 1106 099c 07F58240 		add	r0, r7, #16640
 1107 09a0 00F11400 		add	r0, r0, #20
 1108 09a4 FFF7FEFF 		bl	f_write
 239:main.c        **** 
 240:main.c        ****     f_close(&File);
 1109              		.loc 1 240 0
 1110 09a8 07F58243 		add	r3, r7, #16640
 1111 09ac 03F11403 		add	r3, r3, #20
 1112 09b0 1846     		mov	r0, r3
 1113 09b2 FFF7FEFF 		bl	f_close
 1114              	.L35:
 241:main.c        **** 
 242:main.c        ****     
 243:main.c        ****     for(;;)
 244:main.c        ****     {
 245:main.c        ****         /* done. */
 246:main.c        ****     }
 1115              		.loc 1 246 0 discriminator 6
 1116 09b6 FEE7     		b	.L35
 1117              	.L49:
 1118              		.align	2
 1119              	.L48:
 1120 09b8 0000F03F 		.word	1072693248
 1121 09bc 00407F40 		.word	1082081280
 1122 09c0 B4000000 		.word	.LC9
 1123 09c4 C0000000 		.word	.LC10
 1124 09c8 64000000 		.word	.LC6
 1125              		.cfi_endproc
 1126              	.LFE60:
ARM GAS  C:\Users\HPz420\AppData\Local\Temp\cczyCxcG.s 			page 26


 1127              		.size	main, .-main
 1128              		.text
 1129              	.Letext0:
 1130              		.file 2 "c:\\program files (x86)\\cypress\\psoc creator\\4.2\\psoc creator\\import\\gnu\\arm\\5.4.
 1131              		.file 3 "c:\\program files (x86)\\cypress\\psoc creator\\4.2\\psoc creator\\import\\gnu\\arm\\5.4.
 1132              		.file 4 "Generated_Source\\PSoC5/cytypes.h"
 1133              		.file 5 "Generated_Source\\PSoC5/NSDSPI_LowLevelFilesys.h"
 1134              		.file 6 "Generated_Source\\PSoC5/NSDSPI_funcs.h"
 1135              		.file 7 "Generated_Source\\PSoC5/core_cm3.h"
 1136              		.file 8 "<built-in>"
 1137              		.section	.debug_info,"",%progbits
 1138              	.Ldebug_info0:
 1139 0000 42050000 		.4byte	0x542
 1140 0004 0400     		.2byte	0x4
 1141 0006 00000000 		.4byte	.Ldebug_abbrev0
 1142 000a 04       		.byte	0x4
 1143 000b 01       		.uleb128 0x1
 1144 000c 81000000 		.4byte	.LASF91
 1145 0010 0C       		.byte	0xc
 1146 0011 76030000 		.4byte	.LASF92
 1147 0015 D3030000 		.4byte	.LASF93
 1148 0019 00000000 		.4byte	.Ldebug_ranges0+0
 1149 001d 00000000 		.4byte	0
 1150 0021 00000000 		.4byte	.Ldebug_line0
 1151 0025 02       		.uleb128 0x2
 1152 0026 01       		.byte	0x1
 1153 0027 06       		.byte	0x6
 1154 0028 82010000 		.4byte	.LASF0
 1155 002c 02       		.uleb128 0x2
 1156 002d 01       		.byte	0x1
 1157 002e 08       		.byte	0x8
 1158 002f 0F020000 		.4byte	.LASF1
 1159 0033 02       		.uleb128 0x2
 1160 0034 02       		.byte	0x2
 1161 0035 05       		.byte	0x5
 1162 0036 5D000000 		.4byte	.LASF2
 1163 003a 02       		.uleb128 0x2
 1164 003b 02       		.byte	0x2
 1165 003c 07       		.byte	0x7
 1166 003d 40030000 		.4byte	.LASF3
 1167 0041 03       		.uleb128 0x3
 1168 0042 C9030000 		.4byte	.LASF9
 1169 0046 02       		.byte	0x2
 1170 0047 3F       		.byte	0x3f
 1171 0048 4C000000 		.4byte	0x4c
 1172 004c 02       		.uleb128 0x2
 1173 004d 04       		.byte	0x4
 1174 004e 05       		.byte	0x5
 1175 004f B5010000 		.4byte	.LASF4
 1176 0053 02       		.uleb128 0x2
 1177 0054 04       		.byte	0x4
 1178 0055 07       		.byte	0x7
 1179 0056 7D030000 		.4byte	.LASF5
 1180 005a 02       		.uleb128 0x2
 1181 005b 08       		.byte	0x8
 1182 005c 05       		.byte	0x5
 1183 005d 9F010000 		.4byte	.LASF6
ARM GAS  C:\Users\HPz420\AppData\Local\Temp\cczyCxcG.s 			page 27


 1184 0061 02       		.uleb128 0x2
 1185 0062 08       		.byte	0x8
 1186 0063 07       		.byte	0x7
 1187 0064 7C020000 		.4byte	.LASF7
 1188 0068 04       		.uleb128 0x4
 1189 0069 04       		.byte	0x4
 1190 006a 05       		.byte	0x5
 1191 006b 696E7400 		.ascii	"int\000"
 1192 006f 02       		.uleb128 0x2
 1193 0070 04       		.byte	0x4
 1194 0071 07       		.byte	0x7
 1195 0072 9B020000 		.4byte	.LASF8
 1196 0076 03       		.uleb128 0x3
 1197 0077 74020000 		.4byte	.LASF10
 1198 007b 03       		.byte	0x3
 1199 007c 2C       		.byte	0x2c
 1200 007d 41000000 		.4byte	0x41
 1201 0081 03       		.uleb128 0x3
 1202 0082 66010000 		.4byte	.LASF11
 1203 0086 04       		.byte	0x4
 1204 0087 A1       		.byte	0xa1
 1205 0088 2C000000 		.4byte	0x2c
 1206 008c 02       		.uleb128 0x2
 1207 008d 04       		.byte	0x4
 1208 008e 04       		.byte	0x4
 1209 008f 8E010000 		.4byte	.LASF12
 1210 0093 02       		.uleb128 0x2
 1211 0094 08       		.byte	0x8
 1212 0095 04       		.byte	0x4
 1213 0096 8F030000 		.4byte	.LASF13
 1214 009a 02       		.uleb128 0x2
 1215 009b 01       		.byte	0x1
 1216 009c 08       		.byte	0x8
 1217 009d 21030000 		.4byte	.LASF14
 1218 00a1 02       		.uleb128 0x2
 1219 00a2 08       		.byte	0x8
 1220 00a3 04       		.byte	0x4
 1221 00a4 2C020000 		.4byte	.LASF15
 1222 00a8 02       		.uleb128 0x2
 1223 00a9 04       		.byte	0x4
 1224 00aa 07       		.byte	0x7
 1225 00ab 79040000 		.4byte	.LASF16
 1226 00af 05       		.uleb128 0x5
 1227 00b0 04       		.byte	0x4
 1228 00b1 9A000000 		.4byte	0x9a
 1229 00b5 05       		.uleb128 0x5
 1230 00b6 04       		.byte	0x4
 1231 00b7 BB000000 		.4byte	0xbb
 1232 00bb 06       		.uleb128 0x6
 1233 00bc 9A000000 		.4byte	0x9a
 1234 00c0 03       		.uleb128 0x3
 1235 00c1 23010000 		.4byte	.LASF17
 1236 00c5 05       		.byte	0x5
 1237 00c6 26       		.byte	0x26
 1238 00c7 2C000000 		.4byte	0x2c
 1239 00cb 03       		.uleb128 0x3
 1240 00cc 40010000 		.4byte	.LASF18
ARM GAS  C:\Users\HPz420\AppData\Local\Temp\cczyCxcG.s 			page 28


 1241 00d0 05       		.byte	0x5
 1242 00d1 2A       		.byte	0x2a
 1243 00d2 3A000000 		.4byte	0x3a
 1244 00d6 03       		.uleb128 0x3
 1245 00d7 D2010000 		.4byte	.LASF19
 1246 00db 05       		.byte	0x5
 1247 00dc 2F       		.byte	0x2f
 1248 00dd 6F000000 		.4byte	0x6f
 1249 00e1 03       		.uleb128 0x3
 1250 00e2 1D020000 		.4byte	.LASF20
 1251 00e6 05       		.byte	0x5
 1252 00e7 33       		.byte	0x33
 1253 00e8 53000000 		.4byte	0x53
 1254 00ec 07       		.uleb128 0x7
 1255 00ed 3002     		.2byte	0x230
 1256 00ef 05       		.byte	0x5
 1257 00f0 7B       		.byte	0x7b
 1258 00f1 CD010000 		.4byte	0x1cd
 1259 00f5 08       		.uleb128 0x8
 1260 00f6 39000000 		.4byte	.LASF21
 1261 00fa 05       		.byte	0x5
 1262 00fb 7C       		.byte	0x7c
 1263 00fc C0000000 		.4byte	0xc0
 1264 0100 00       		.byte	0
 1265 0101 09       		.uleb128 0x9
 1266 0102 64727600 		.ascii	"drv\000"
 1267 0106 05       		.byte	0x5
 1268 0107 7D       		.byte	0x7d
 1269 0108 C0000000 		.4byte	0xc0
 1270 010c 01       		.byte	0x1
 1271 010d 08       		.uleb128 0x8
 1272 010e C4010000 		.4byte	.LASF22
 1273 0112 05       		.byte	0x5
 1274 0113 7E       		.byte	0x7e
 1275 0114 C0000000 		.4byte	0xc0
 1276 0118 02       		.byte	0x2
 1277 0119 08       		.uleb128 0x8
 1278 011a 00000000 		.4byte	.LASF23
 1279 011e 05       		.byte	0x5
 1280 011f 7F       		.byte	0x7f
 1281 0120 C0000000 		.4byte	0xc0
 1282 0124 03       		.byte	0x3
 1283 0125 08       		.uleb128 0x8
 1284 0126 6E020000 		.4byte	.LASF24
 1285 012a 05       		.byte	0x5
 1286 012b 80       		.byte	0x80
 1287 012c C0000000 		.4byte	0xc0
 1288 0130 04       		.byte	0x4
 1289 0131 08       		.uleb128 0x8
 1290 0132 23020000 		.4byte	.LASF25
 1291 0136 05       		.byte	0x5
 1292 0137 81       		.byte	0x81
 1293 0138 C0000000 		.4byte	0xc0
 1294 013c 05       		.byte	0x5
 1295 013d 09       		.uleb128 0x9
 1296 013e 696400   		.ascii	"id\000"
 1297 0141 05       		.byte	0x5
ARM GAS  C:\Users\HPz420\AppData\Local\Temp\cczyCxcG.s 			page 29


 1298 0142 82       		.byte	0x82
 1299 0143 CB000000 		.4byte	0xcb
 1300 0147 06       		.byte	0x6
 1301 0148 08       		.uleb128 0x8
 1302 0149 28010000 		.4byte	.LASF26
 1303 014d 05       		.byte	0x5
 1304 014e 83       		.byte	0x83
 1305 014f CB000000 		.4byte	0xcb
 1306 0153 08       		.byte	0x8
 1307 0154 08       		.uleb128 0x8
 1308 0155 94010000 		.4byte	.LASF27
 1309 0159 05       		.byte	0x5
 1310 015a 84       		.byte	0x84
 1311 015b E1000000 		.4byte	0xe1
 1312 015f 0C       		.byte	0xc
 1313 0160 08       		.uleb128 0x8
 1314 0161 4F020000 		.4byte	.LASF28
 1315 0165 05       		.byte	0x5
 1316 0166 85       		.byte	0x85
 1317 0167 E1000000 		.4byte	0xe1
 1318 016b 10       		.byte	0x10
 1319 016c 08       		.uleb128 0x8
 1320 016d 30000000 		.4byte	.LASF29
 1321 0171 05       		.byte	0x5
 1322 0172 86       		.byte	0x86
 1323 0173 E1000000 		.4byte	0xe1
 1324 0177 14       		.byte	0x14
 1325 0178 08       		.uleb128 0x8
 1326 0179 3A010000 		.4byte	.LASF30
 1327 017d 05       		.byte	0x5
 1328 017e 87       		.byte	0x87
 1329 017f E1000000 		.4byte	0xe1
 1330 0183 18       		.byte	0x18
 1331 0184 08       		.uleb128 0x8
 1332 0185 D7010000 		.4byte	.LASF31
 1333 0189 05       		.byte	0x5
 1334 018a 88       		.byte	0x88
 1335 018b E1000000 		.4byte	0xe1
 1336 018f 1C       		.byte	0x1c
 1337 0190 08       		.uleb128 0x8
 1338 0191 26030000 		.4byte	.LASF32
 1339 0195 05       		.byte	0x5
 1340 0196 89       		.byte	0x89
 1341 0197 E1000000 		.4byte	0xe1
 1342 019b 20       		.byte	0x20
 1343 019c 08       		.uleb128 0x8
 1344 019d CA010000 		.4byte	.LASF33
 1345 01a1 05       		.byte	0x5
 1346 01a2 8A       		.byte	0x8a
 1347 01a3 E1000000 		.4byte	0xe1
 1348 01a7 24       		.byte	0x24
 1349 01a8 08       		.uleb128 0x8
 1350 01a9 1A010000 		.4byte	.LASF34
 1351 01ad 05       		.byte	0x5
 1352 01ae 8B       		.byte	0x8b
 1353 01af E1000000 		.4byte	0xe1
 1354 01b3 28       		.byte	0x28
ARM GAS  C:\Users\HPz420\AppData\Local\Temp\cczyCxcG.s 			page 30


 1355 01b4 08       		.uleb128 0x8
 1356 01b5 BA040000 		.4byte	.LASF35
 1357 01b9 05       		.byte	0x5
 1358 01ba 8C       		.byte	0x8c
 1359 01bb E1000000 		.4byte	0xe1
 1360 01bf 2C       		.byte	0x2c
 1361 01c0 09       		.uleb128 0x9
 1362 01c1 77696E00 		.ascii	"win\000"
 1363 01c5 05       		.byte	0x5
 1364 01c6 8D       		.byte	0x8d
 1365 01c7 CD010000 		.4byte	0x1cd
 1366 01cb 30       		.byte	0x30
 1367 01cc 00       		.byte	0
 1368 01cd 0A       		.uleb128 0xa
 1369 01ce C0000000 		.4byte	0xc0
 1370 01d2 DE010000 		.4byte	0x1de
 1371 01d6 0B       		.uleb128 0xb
 1372 01d7 A8000000 		.4byte	0xa8
 1373 01db FF01     		.2byte	0x1ff
 1374 01dd 00       		.byte	0
 1375 01de 03       		.uleb128 0x3
 1376 01df 70030000 		.4byte	.LASF36
 1377 01e3 05       		.byte	0x5
 1378 01e4 8E       		.byte	0x8e
 1379 01e5 EC000000 		.4byte	0xec
 1380 01e9 07       		.uleb128 0x7
 1381 01ea 2402     		.2byte	0x224
 1382 01ec 05       		.byte	0x5
 1383 01ed 91       		.byte	0x91
 1384 01ee 81020000 		.4byte	0x281
 1385 01f2 09       		.uleb128 0x9
 1386 01f3 667300   		.ascii	"fs\000"
 1387 01f6 05       		.byte	0x5
 1388 01f7 92       		.byte	0x92
 1389 01f8 81020000 		.4byte	0x281
 1390 01fc 00       		.byte	0
 1391 01fd 09       		.uleb128 0x9
 1392 01fe 696400   		.ascii	"id\000"
 1393 0201 05       		.byte	0x5
 1394 0202 93       		.byte	0x93
 1395 0203 CB000000 		.4byte	0xcb
 1396 0207 04       		.byte	0x4
 1397 0208 08       		.uleb128 0x8
 1398 0209 AB040000 		.4byte	.LASF37
 1399 020d 05       		.byte	0x5
 1400 020e 94       		.byte	0x94
 1401 020f C0000000 		.4byte	0xc0
 1402 0213 06       		.byte	0x6
 1403 0214 09       		.uleb128 0x9
 1404 0215 65727200 		.ascii	"err\000"
 1405 0219 05       		.byte	0x5
 1406 021a 95       		.byte	0x95
 1407 021b C0000000 		.4byte	0xc0
 1408 021f 07       		.byte	0x7
 1409 0220 08       		.uleb128 0x8
 1410 0221 6C010000 		.4byte	.LASF38
 1411 0225 05       		.byte	0x5
ARM GAS  C:\Users\HPz420\AppData\Local\Temp\cczyCxcG.s 			page 31


 1412 0226 96       		.byte	0x96
 1413 0227 E1000000 		.4byte	0xe1
 1414 022b 08       		.byte	0x8
 1415 022c 08       		.uleb128 0x8
 1416 022d 3A010000 		.4byte	.LASF30
 1417 0231 05       		.byte	0x5
 1418 0232 97       		.byte	0x97
 1419 0233 E1000000 		.4byte	0xe1
 1420 0237 0C       		.byte	0xc
 1421 0238 08       		.uleb128 0x8
 1422 0239 72040000 		.4byte	.LASF39
 1423 023d 05       		.byte	0x5
 1424 023e 98       		.byte	0x98
 1425 023f E1000000 		.4byte	0xe1
 1426 0243 10       		.byte	0x10
 1427 0244 08       		.uleb128 0x8
 1428 0245 BE010000 		.4byte	.LASF40
 1429 0249 05       		.byte	0x5
 1430 024a 99       		.byte	0x99
 1431 024b E1000000 		.4byte	0xe1
 1432 024f 14       		.byte	0x14
 1433 0250 08       		.uleb128 0x8
 1434 0251 6C000000 		.4byte	.LASF41
 1435 0255 05       		.byte	0x5
 1436 0256 9A       		.byte	0x9a
 1437 0257 E1000000 		.4byte	0xe1
 1438 025b 18       		.byte	0x18
 1439 025c 08       		.uleb128 0x8
 1440 025d C2040000 		.4byte	.LASF42
 1441 0261 05       		.byte	0x5
 1442 0262 9B       		.byte	0x9b
 1443 0263 E1000000 		.4byte	0xe1
 1444 0267 1C       		.byte	0x1c
 1445 0268 08       		.uleb128 0x8
 1446 0269 04030000 		.4byte	.LASF43
 1447 026d 05       		.byte	0x5
 1448 026e 9C       		.byte	0x9c
 1449 026f 87020000 		.4byte	0x287
 1450 0273 20       		.byte	0x20
 1451 0274 09       		.uleb128 0x9
 1452 0275 62756600 		.ascii	"buf\000"
 1453 0279 05       		.byte	0x5
 1454 027a 9D       		.byte	0x9d
 1455 027b CD010000 		.4byte	0x1cd
 1456 027f 24       		.byte	0x24
 1457 0280 00       		.byte	0
 1458 0281 05       		.uleb128 0x5
 1459 0282 04       		.byte	0x4
 1460 0283 DE010000 		.4byte	0x1de
 1461 0287 05       		.uleb128 0x5
 1462 0288 04       		.byte	0x4
 1463 0289 C0000000 		.4byte	0xc0
 1464 028d 0C       		.uleb128 0xc
 1465 028e 46494C00 		.ascii	"FIL\000"
 1466 0292 05       		.byte	0x5
 1467 0293 9E       		.byte	0x9e
 1468 0294 E9010000 		.4byte	0x1e9
ARM GAS  C:\Users\HPz420\AppData\Local\Temp\cczyCxcG.s 			page 32


 1469 0298 0D       		.uleb128 0xd
 1470 0299 01       		.byte	0x1
 1471 029a 2C000000 		.4byte	0x2c
 1472 029e 05       		.byte	0x5
 1473 029f BA       		.byte	0xba
 1474 02a0 1D030000 		.4byte	0x31d
 1475 02a4 0E       		.uleb128 0xe
 1476 02a5 57010000 		.4byte	.LASF44
 1477 02a9 00       		.byte	0
 1478 02aa 0E       		.uleb128 0xe
 1479 02ab 5A020000 		.4byte	.LASF45
 1480 02af 01       		.byte	0x1
 1481 02b0 0E       		.uleb128 0xe
 1482 02b1 BE030000 		.4byte	.LASF46
 1483 02b5 02       		.byte	0x2
 1484 02b6 0E       		.uleb128 0xe
 1485 02b7 EF010000 		.4byte	.LASF47
 1486 02bb 03       		.byte	0x3
 1487 02bc 0E       		.uleb128 0xe
 1488 02bd AE030000 		.4byte	.LASF48
 1489 02c1 04       		.byte	0x4
 1490 02c2 0E       		.uleb128 0xe
 1491 02c3 0F010000 		.4byte	.LASF49
 1492 02c7 05       		.byte	0x5
 1493 02c8 0E       		.uleb128 0xe
 1494 02c9 EB040000 		.4byte	.LASF50
 1495 02cd 06       		.byte	0x6
 1496 02ce 0E       		.uleb128 0xe
 1497 02cf 26000000 		.4byte	.LASF51
 1498 02d3 07       		.byte	0x7
 1499 02d4 0E       		.uleb128 0xe
 1500 02d5 18030000 		.4byte	.LASF52
 1501 02d9 08       		.byte	0x8
 1502 02da 0E       		.uleb128 0xe
 1503 02db 45010000 		.4byte	.LASF53
 1504 02df 09       		.byte	0x9
 1505 02e0 0E       		.uleb128 0xe
 1506 02e1 FC010000 		.4byte	.LASF54
 1507 02e5 0A       		.byte	0xa
 1508 02e6 0E       		.uleb128 0xe
 1509 02e7 82040000 		.4byte	.LASF55
 1510 02eb 0B       		.byte	0xb
 1511 02ec 0E       		.uleb128 0xe
 1512 02ed F5020000 		.4byte	.LASF56
 1513 02f1 0C       		.byte	0xc
 1514 02f2 0E       		.uleb128 0xe
 1515 02f3 71010000 		.4byte	.LASF57
 1516 02f7 0D       		.byte	0xd
 1517 02f8 0E       		.uleb128 0xe
 1518 02f9 DF010000 		.4byte	.LASF58
 1519 02fd 0E       		.byte	0xe
 1520 02fe 0E       		.uleb128 0xe
 1521 02ff 96030000 		.4byte	.LASF59
 1522 0303 0F       		.byte	0xf
 1523 0304 0E       		.uleb128 0xe
 1524 0305 B0040000 		.4byte	.LASF60
 1525 0309 10       		.byte	0x10
ARM GAS  C:\Users\HPz420\AppData\Local\Temp\cczyCxcG.s 			page 33


 1526 030a 0E       		.uleb128 0xe
 1527 030b D8040000 		.4byte	.LASF61
 1528 030f 11       		.byte	0x11
 1529 0310 0E       		.uleb128 0xe
 1530 0311 BA020000 		.4byte	.LASF62
 1531 0315 12       		.byte	0x12
 1532 0316 0E       		.uleb128 0xe
 1533 0317 E0020000 		.4byte	.LASF63
 1534 031b 13       		.byte	0x13
 1535 031c 00       		.byte	0
 1536 031d 03       		.uleb128 0x3
 1537 031e 93020000 		.4byte	.LASF64
 1538 0322 05       		.byte	0x5
 1539 0323 CF       		.byte	0xcf
 1540 0324 98020000 		.4byte	0x298
 1541 0328 0F       		.uleb128 0xf
 1542 0329 68040000 		.4byte	.LASF65
 1543 032d 01       		.byte	0x1
 1544 032e 2A       		.byte	0x2a
 1545 032f 00000000 		.4byte	.LFB56
 1546 0333 1C000000 		.4byte	.LFE56-.LFB56
 1547 0337 01       		.uleb128 0x1
 1548 0338 9C       		.byte	0x9c
 1549 0339 0F       		.uleb128 0xf
 1550 033a 5F030000 		.4byte	.LASF66
 1551 033e 01       		.byte	0x1
 1552 033f 30       		.byte	0x30
 1553 0340 00000000 		.4byte	.LFB57
 1554 0344 10000000 		.4byte	.LFE57-.LFB57
 1555 0348 01       		.uleb128 0x1
 1556 0349 9C       		.byte	0x9c
 1557 034a 0F       		.uleb128 0xf
 1558 034b 53030000 		.4byte	.LASF67
 1559 034f 01       		.byte	0x1
 1560 0350 36       		.byte	0x36
 1561 0351 00000000 		.4byte	.LFB58
 1562 0355 10000000 		.4byte	.LFE58-.LFB58
 1563 0359 01       		.uleb128 0x1
 1564 035a 9C       		.byte	0x9c
 1565 035b 10       		.uleb128 0x10
 1566 035c 5D010000 		.4byte	.LASF68
 1567 0360 01       		.byte	0x1
 1568 0361 3B       		.byte	0x3b
 1569 0362 00000000 		.4byte	.LFB59
 1570 0366 12000000 		.4byte	.LFE59-.LFB59
 1571 036a 01       		.uleb128 0x1
 1572 036b 9C       		.byte	0x9c
 1573 036c 7F030000 		.4byte	0x37f
 1574 0370 11       		.uleb128 0x11
 1575 0371 41000000 		.4byte	.LASF94
 1576 0375 01       		.byte	0x1
 1577 0376 3B       		.byte	0x3b
 1578 0377 AF000000 		.4byte	0xaf
 1579 037b 02       		.uleb128 0x2
 1580 037c 91       		.byte	0x91
 1581 037d 74       		.sleb128 -12
 1582 037e 00       		.byte	0
ARM GAS  C:\Users\HPz420\AppData\Local\Temp\cczyCxcG.s 			page 34


 1583 037f 12       		.uleb128 0x12
 1584 0380 2E030000 		.4byte	.LASF69
 1585 0384 01       		.byte	0x1
 1586 0385 47       		.byte	0x47
 1587 0386 68000000 		.4byte	0x68
 1588 038a 00000000 		.4byte	.LFB60
 1589 038e CC090000 		.4byte	.LFE60-.LFB60
 1590 0392 01       		.uleb128 0x1
 1591 0393 9C       		.byte	0x9c
 1592 0394 71040000 		.4byte	0x471
 1593 0398 13       		.uleb128 0x13
 1594 0399 38020000 		.4byte	.LASF70
 1595 039d 01       		.byte	0x1
 1596 039e 50       		.byte	0x50
 1597 039f DE010000 		.4byte	0x1de
 1598 03a3 03       		.uleb128 0x3
 1599 03a4 91       		.byte	0x91
 1600 03a5 A87B     		.sleb128 -600
 1601 03a7 13       		.uleb128 0x13
 1602 03a8 67000000 		.4byte	.LASF71
 1603 03ac 01       		.byte	0x1
 1604 03ad 55       		.byte	0x55
 1605 03ae 1D030000 		.4byte	0x31d
 1606 03b2 02       		.uleb128 0x2
 1607 03b3 91       		.byte	0x91
 1608 03b4 66       		.sleb128 -26
 1609 03b5 13       		.uleb128 0x13
 1610 03b6 A0040000 		.4byte	.LASF72
 1611 03ba 01       		.byte	0x1
 1612 03bb 71       		.byte	0x71
 1613 03bc 8D020000 		.4byte	0x28d
 1614 03c0 03       		.uleb128 0x3
 1615 03c1 91       		.byte	0x91
 1616 03c2 8477     		.sleb128 -1148
 1617 03c4 13       		.uleb128 0x13
 1618 03c5 1F000000 		.4byte	.LASF73
 1619 03c9 01       		.byte	0x1
 1620 03ca 73       		.byte	0x73
 1621 03cb 71040000 		.4byte	0x471
 1622 03cf 03       		.uleb128 0x3
 1623 03d0 91       		.byte	0x91
 1624 03d1 A076     		.sleb128 -1248
 1625 03d3 13       		.uleb128 0x13
 1626 03d4 93040000 		.4byte	.LASF74
 1627 03d8 01       		.byte	0x1
 1628 03d9 74       		.byte	0x74
 1629 03da D6000000 		.4byte	0xd6
 1630 03de 03       		.uleb128 0x3
 1631 03df 91       		.byte	0x91
 1632 03e0 9C76     		.sleb128 -1252
 1633 03e2 13       		.uleb128 0x13
 1634 03e3 5E040000 		.4byte	.LASF75
 1635 03e7 01       		.byte	0x1
 1636 03e8 74       		.byte	0x74
 1637 03e9 D6000000 		.4byte	0xd6
 1638 03ed 03       		.uleb128 0x3
 1639 03ee 91       		.byte	0x91
ARM GAS  C:\Users\HPz420\AppData\Local\Temp\cczyCxcG.s 			page 35


 1640 03ef 9876     		.sleb128 -1256
 1641 03f1 14       		.uleb128 0x14
 1642 03f2 66020000 		.4byte	.LASF95
 1643 03f6 08       		.byte	0x8
 1644 03f7 00       		.byte	0
 1645 03f8 68000000 		.4byte	0x68
 1646 03fc 0C040000 		.4byte	0x40c
 1647 0400 15       		.uleb128 0x15
 1648 0401 AF000000 		.4byte	0xaf
 1649 0405 15       		.uleb128 0x15
 1650 0406 B5000000 		.4byte	0xb5
 1651 040a 16       		.uleb128 0x16
 1652 040b 00       		.byte	0
 1653 040c 13       		.uleb128 0x13
 1654 040d B9030000 		.4byte	.LASF76
 1655 0411 01       		.byte	0x1
 1656 0412 79       		.byte	0x79
 1657 0413 81040000 		.4byte	0x481
 1658 0417 04       		.uleb128 0x4
 1659 0418 91       		.byte	0x91
 1660 0419 98F97E   		.sleb128 -17256
 1661 041c 17       		.uleb128 0x17
 1662 041d 6900     		.ascii	"i\000"
 1663 041f 01       		.byte	0x1
 1664 0420 7A       		.byte	0x7a
 1665 0421 93000000 		.4byte	0x93
 1666 0425 02       		.uleb128 0x2
 1667 0426 91       		.byte	0x91
 1668 0427 68       		.sleb128 -24
 1669 0428 13       		.uleb128 0x13
 1670 0429 72000000 		.4byte	.LASF77
 1671 042d 01       		.byte	0x1
 1672 042e 89       		.byte	0x89
 1673 042f 53000000 		.4byte	0x53
 1674 0433 02       		.uleb128 0x2
 1675 0434 91       		.byte	0x91
 1676 0435 60       		.sleb128 -32
 1677 0436 13       		.uleb128 0x13
 1678 0437 32010000 		.4byte	.LASF78
 1679 043b 01       		.byte	0x1
 1680 043c 8A       		.byte	0x8a
 1681 043d 8D020000 		.4byte	0x28d
 1682 0441 04       		.uleb128 0x4
 1683 0442 91       		.byte	0x91
 1684 0443 F4F47E   		.sleb128 -17804
 1685 0446 13       		.uleb128 0x13
 1686 0447 A5040000 		.4byte	.LASF79
 1687 044b 01       		.byte	0x1
 1688 044c 90       		.byte	0x90
 1689 044d 53000000 		.4byte	0x53
 1690 0451 02       		.uleb128 0x2
 1691 0452 91       		.byte	0x91
 1692 0453 5C       		.sleb128 -36
 1693 0454 13       		.uleb128 0x13
 1694 0455 6B030000 		.4byte	.LASF80
 1695 0459 01       		.byte	0x1
 1696 045a 94       		.byte	0x94
ARM GAS  C:\Users\HPz420\AppData\Local\Temp\cczyCxcG.s 			page 36


 1697 045b 53000000 		.4byte	0x53
 1698 045f 02       		.uleb128 0x2
 1699 0460 91       		.byte	0x91
 1700 0461 58       		.sleb128 -40
 1701 0462 13       		.uleb128 0x13
 1702 0463 0C030000 		.4byte	.LASF81
 1703 0467 01       		.byte	0x1
 1704 0468 AA       		.byte	0xaa
 1705 0469 2C000000 		.4byte	0x2c
 1706 046d 02       		.uleb128 0x2
 1707 046e 91       		.byte	0x91
 1708 046f 67       		.sleb128 -25
 1709 0470 00       		.byte	0
 1710 0471 0A       		.uleb128 0xa
 1711 0472 9A000000 		.4byte	0x9a
 1712 0476 81040000 		.4byte	0x481
 1713 047a 18       		.uleb128 0x18
 1714 047b A8000000 		.4byte	0xa8
 1715 047f 63       		.byte	0x63
 1716 0480 00       		.byte	0
 1717 0481 0A       		.uleb128 0xa
 1718 0482 93000000 		.4byte	0x93
 1719 0486 92040000 		.4byte	0x492
 1720 048a 0B       		.uleb128 0xb
 1721 048b A8000000 		.4byte	0xa8
 1722 048f CF07     		.2byte	0x7cf
 1723 0491 00       		.byte	0
 1724 0492 19       		.uleb128 0x19
 1725 0493 A8020000 		.4byte	.LASF82
 1726 0497 06       		.byte	0x6
 1727 0498 1A       		.byte	0x1a
 1728 0499 81000000 		.4byte	0x81
 1729 049d 05       		.uleb128 0x5
 1730 049e 03       		.byte	0x3
 1731 049f 00000000 		.4byte	NSDSPI_bEnableDMA
 1732 04a3 19       		.uleb128 0x19
 1733 04a4 40020000 		.4byte	.LASF83
 1734 04a8 06       		.byte	0x6
 1735 04a9 1E       		.byte	0x1e
 1736 04aa 81000000 		.4byte	0x81
 1737 04ae 05       		.uleb128 0x5
 1738 04af 03       		.byte	0x3
 1739 04b0 00000000 		.4byte	NSDSPI_RX_Chan
 1740 04b4 0A       		.uleb128 0xa
 1741 04b5 81000000 		.4byte	0x81
 1742 04b9 C4040000 		.4byte	0x4c4
 1743 04bd 18       		.uleb128 0x18
 1744 04be A8000000 		.4byte	0xa8
 1745 04c2 00       		.byte	0
 1746 04c3 00       		.byte	0
 1747 04c4 19       		.uleb128 0x19
 1748 04c5 CB040000 		.4byte	.LASF84
 1749 04c9 06       		.byte	0x6
 1750 04ca 1F       		.byte	0x1f
 1751 04cb B4040000 		.4byte	0x4b4
 1752 04cf 05       		.uleb128 0x5
 1753 04d0 03       		.byte	0x3
ARM GAS  C:\Users\HPz420\AppData\Local\Temp\cczyCxcG.s 			page 37


 1754 04d1 00000000 		.4byte	NSDSPI_RX_TD
 1755 04d5 19       		.uleb128 0x19
 1756 04d6 D1020000 		.4byte	.LASF85
 1757 04da 06       		.byte	0x6
 1758 04db 29       		.byte	0x29
 1759 04dc 81000000 		.4byte	0x81
 1760 04e0 05       		.uleb128 0x5
 1761 04e1 03       		.byte	0x3
 1762 04e2 00000000 		.4byte	NSDSPI_TX_Chan
 1763 04e6 19       		.uleb128 0x19
 1764 04e7 33030000 		.4byte	.LASF86
 1765 04eb 06       		.byte	0x6
 1766 04ec 2A       		.byte	0x2a
 1767 04ed B4040000 		.4byte	0x4b4
 1768 04f1 05       		.uleb128 0x5
 1769 04f2 03       		.byte	0x3
 1770 04f3 00000000 		.4byte	NSDSPI_TX_TD
 1771 04f7 19       		.uleb128 0x19
 1772 04f8 07000000 		.4byte	.LASF87
 1773 04fc 06       		.byte	0x6
 1774 04fd 39       		.byte	0x39
 1775 04fe 08050000 		.4byte	0x508
 1776 0502 05       		.uleb128 0x5
 1777 0503 03       		.byte	0x3
 1778 0504 00000000 		.4byte	NSDSPI_g_nTransferFlags
 1779 0508 1A       		.uleb128 0x1a
 1780 0509 2C000000 		.4byte	0x2c
 1781 050d 19       		.uleb128 0x19
 1782 050e 49000000 		.4byte	.LASF88
 1783 0512 06       		.byte	0x6
 1784 0513 3A       		.byte	0x3a
 1785 0514 08050000 		.4byte	0x508
 1786 0518 05       		.uleb128 0x5
 1787 0519 03       		.byte	0x3
 1788 051a 00000000 		.4byte	NSDSPI_g_nCtrlState
 1789 051e 1B       		.uleb128 0x1b
 1790 051f A1030000 		.4byte	.LASF89
 1791 0523 07       		.byte	0x7
 1792 0524 1606     		.2byte	0x616
 1793 0526 2A050000 		.4byte	0x52a
 1794 052a 1A       		.uleb128 0x1a
 1795 052b 76000000 		.4byte	0x76
 1796 052f 19       		.uleb128 0x19
 1797 0530 AD010000 		.4byte	.LASF90
 1798 0534 01       		.byte	0x1
 1799 0535 28       		.byte	0x28
 1800 0536 40050000 		.4byte	0x540
 1801 053a 05       		.uleb128 0x5
 1802 053b 03       		.byte	0x3
 1803 053c 00000000 		.4byte	nmillis
 1804 0540 1A       		.uleb128 0x1a
 1805 0541 53000000 		.4byte	0x53
 1806 0545 00       		.byte	0
 1807              		.section	.debug_abbrev,"",%progbits
 1808              	.Ldebug_abbrev0:
 1809 0000 01       		.uleb128 0x1
 1810 0001 11       		.uleb128 0x11
ARM GAS  C:\Users\HPz420\AppData\Local\Temp\cczyCxcG.s 			page 38


 1811 0002 01       		.byte	0x1
 1812 0003 25       		.uleb128 0x25
 1813 0004 0E       		.uleb128 0xe
 1814 0005 13       		.uleb128 0x13
 1815 0006 0B       		.uleb128 0xb
 1816 0007 03       		.uleb128 0x3
 1817 0008 0E       		.uleb128 0xe
 1818 0009 1B       		.uleb128 0x1b
 1819 000a 0E       		.uleb128 0xe
 1820 000b 55       		.uleb128 0x55
 1821 000c 17       		.uleb128 0x17
 1822 000d 11       		.uleb128 0x11
 1823 000e 01       		.uleb128 0x1
 1824 000f 10       		.uleb128 0x10
 1825 0010 17       		.uleb128 0x17
 1826 0011 00       		.byte	0
 1827 0012 00       		.byte	0
 1828 0013 02       		.uleb128 0x2
 1829 0014 24       		.uleb128 0x24
 1830 0015 00       		.byte	0
 1831 0016 0B       		.uleb128 0xb
 1832 0017 0B       		.uleb128 0xb
 1833 0018 3E       		.uleb128 0x3e
 1834 0019 0B       		.uleb128 0xb
 1835 001a 03       		.uleb128 0x3
 1836 001b 0E       		.uleb128 0xe
 1837 001c 00       		.byte	0
 1838 001d 00       		.byte	0
 1839 001e 03       		.uleb128 0x3
 1840 001f 16       		.uleb128 0x16
 1841 0020 00       		.byte	0
 1842 0021 03       		.uleb128 0x3
 1843 0022 0E       		.uleb128 0xe
 1844 0023 3A       		.uleb128 0x3a
 1845 0024 0B       		.uleb128 0xb
 1846 0025 3B       		.uleb128 0x3b
 1847 0026 0B       		.uleb128 0xb
 1848 0027 49       		.uleb128 0x49
 1849 0028 13       		.uleb128 0x13
 1850 0029 00       		.byte	0
 1851 002a 00       		.byte	0
 1852 002b 04       		.uleb128 0x4
 1853 002c 24       		.uleb128 0x24
 1854 002d 00       		.byte	0
 1855 002e 0B       		.uleb128 0xb
 1856 002f 0B       		.uleb128 0xb
 1857 0030 3E       		.uleb128 0x3e
 1858 0031 0B       		.uleb128 0xb
 1859 0032 03       		.uleb128 0x3
 1860 0033 08       		.uleb128 0x8
 1861 0034 00       		.byte	0
 1862 0035 00       		.byte	0
 1863 0036 05       		.uleb128 0x5
 1864 0037 0F       		.uleb128 0xf
 1865 0038 00       		.byte	0
 1866 0039 0B       		.uleb128 0xb
 1867 003a 0B       		.uleb128 0xb
ARM GAS  C:\Users\HPz420\AppData\Local\Temp\cczyCxcG.s 			page 39


 1868 003b 49       		.uleb128 0x49
 1869 003c 13       		.uleb128 0x13
 1870 003d 00       		.byte	0
 1871 003e 00       		.byte	0
 1872 003f 06       		.uleb128 0x6
 1873 0040 26       		.uleb128 0x26
 1874 0041 00       		.byte	0
 1875 0042 49       		.uleb128 0x49
 1876 0043 13       		.uleb128 0x13
 1877 0044 00       		.byte	0
 1878 0045 00       		.byte	0
 1879 0046 07       		.uleb128 0x7
 1880 0047 13       		.uleb128 0x13
 1881 0048 01       		.byte	0x1
 1882 0049 0B       		.uleb128 0xb
 1883 004a 05       		.uleb128 0x5
 1884 004b 3A       		.uleb128 0x3a
 1885 004c 0B       		.uleb128 0xb
 1886 004d 3B       		.uleb128 0x3b
 1887 004e 0B       		.uleb128 0xb
 1888 004f 01       		.uleb128 0x1
 1889 0050 13       		.uleb128 0x13
 1890 0051 00       		.byte	0
 1891 0052 00       		.byte	0
 1892 0053 08       		.uleb128 0x8
 1893 0054 0D       		.uleb128 0xd
 1894 0055 00       		.byte	0
 1895 0056 03       		.uleb128 0x3
 1896 0057 0E       		.uleb128 0xe
 1897 0058 3A       		.uleb128 0x3a
 1898 0059 0B       		.uleb128 0xb
 1899 005a 3B       		.uleb128 0x3b
 1900 005b 0B       		.uleb128 0xb
 1901 005c 49       		.uleb128 0x49
 1902 005d 13       		.uleb128 0x13
 1903 005e 38       		.uleb128 0x38
 1904 005f 0B       		.uleb128 0xb
 1905 0060 00       		.byte	0
 1906 0061 00       		.byte	0
 1907 0062 09       		.uleb128 0x9
 1908 0063 0D       		.uleb128 0xd
 1909 0064 00       		.byte	0
 1910 0065 03       		.uleb128 0x3
 1911 0066 08       		.uleb128 0x8
 1912 0067 3A       		.uleb128 0x3a
 1913 0068 0B       		.uleb128 0xb
 1914 0069 3B       		.uleb128 0x3b
 1915 006a 0B       		.uleb128 0xb
 1916 006b 49       		.uleb128 0x49
 1917 006c 13       		.uleb128 0x13
 1918 006d 38       		.uleb128 0x38
 1919 006e 0B       		.uleb128 0xb
 1920 006f 00       		.byte	0
 1921 0070 00       		.byte	0
 1922 0071 0A       		.uleb128 0xa
 1923 0072 01       		.uleb128 0x1
 1924 0073 01       		.byte	0x1
ARM GAS  C:\Users\HPz420\AppData\Local\Temp\cczyCxcG.s 			page 40


 1925 0074 49       		.uleb128 0x49
 1926 0075 13       		.uleb128 0x13
 1927 0076 01       		.uleb128 0x1
 1928 0077 13       		.uleb128 0x13
 1929 0078 00       		.byte	0
 1930 0079 00       		.byte	0
 1931 007a 0B       		.uleb128 0xb
 1932 007b 21       		.uleb128 0x21
 1933 007c 00       		.byte	0
 1934 007d 49       		.uleb128 0x49
 1935 007e 13       		.uleb128 0x13
 1936 007f 2F       		.uleb128 0x2f
 1937 0080 05       		.uleb128 0x5
 1938 0081 00       		.byte	0
 1939 0082 00       		.byte	0
 1940 0083 0C       		.uleb128 0xc
 1941 0084 16       		.uleb128 0x16
 1942 0085 00       		.byte	0
 1943 0086 03       		.uleb128 0x3
 1944 0087 08       		.uleb128 0x8
 1945 0088 3A       		.uleb128 0x3a
 1946 0089 0B       		.uleb128 0xb
 1947 008a 3B       		.uleb128 0x3b
 1948 008b 0B       		.uleb128 0xb
 1949 008c 49       		.uleb128 0x49
 1950 008d 13       		.uleb128 0x13
 1951 008e 00       		.byte	0
 1952 008f 00       		.byte	0
 1953 0090 0D       		.uleb128 0xd
 1954 0091 04       		.uleb128 0x4
 1955 0092 01       		.byte	0x1
 1956 0093 0B       		.uleb128 0xb
 1957 0094 0B       		.uleb128 0xb
 1958 0095 49       		.uleb128 0x49
 1959 0096 13       		.uleb128 0x13
 1960 0097 3A       		.uleb128 0x3a
 1961 0098 0B       		.uleb128 0xb
 1962 0099 3B       		.uleb128 0x3b
 1963 009a 0B       		.uleb128 0xb
 1964 009b 01       		.uleb128 0x1
 1965 009c 13       		.uleb128 0x13
 1966 009d 00       		.byte	0
 1967 009e 00       		.byte	0
 1968 009f 0E       		.uleb128 0xe
 1969 00a0 28       		.uleb128 0x28
 1970 00a1 00       		.byte	0
 1971 00a2 03       		.uleb128 0x3
 1972 00a3 0E       		.uleb128 0xe
 1973 00a4 1C       		.uleb128 0x1c
 1974 00a5 0B       		.uleb128 0xb
 1975 00a6 00       		.byte	0
 1976 00a7 00       		.byte	0
 1977 00a8 0F       		.uleb128 0xf
 1978 00a9 2E       		.uleb128 0x2e
 1979 00aa 00       		.byte	0
 1980 00ab 3F       		.uleb128 0x3f
 1981 00ac 19       		.uleb128 0x19
ARM GAS  C:\Users\HPz420\AppData\Local\Temp\cczyCxcG.s 			page 41


 1982 00ad 03       		.uleb128 0x3
 1983 00ae 0E       		.uleb128 0xe
 1984 00af 3A       		.uleb128 0x3a
 1985 00b0 0B       		.uleb128 0xb
 1986 00b1 3B       		.uleb128 0x3b
 1987 00b2 0B       		.uleb128 0xb
 1988 00b3 11       		.uleb128 0x11
 1989 00b4 01       		.uleb128 0x1
 1990 00b5 12       		.uleb128 0x12
 1991 00b6 06       		.uleb128 0x6
 1992 00b7 40       		.uleb128 0x40
 1993 00b8 18       		.uleb128 0x18
 1994 00b9 9642     		.uleb128 0x2116
 1995 00bb 19       		.uleb128 0x19
 1996 00bc 00       		.byte	0
 1997 00bd 00       		.byte	0
 1998 00be 10       		.uleb128 0x10
 1999 00bf 2E       		.uleb128 0x2e
 2000 00c0 01       		.byte	0x1
 2001 00c1 3F       		.uleb128 0x3f
 2002 00c2 19       		.uleb128 0x19
 2003 00c3 03       		.uleb128 0x3
 2004 00c4 0E       		.uleb128 0xe
 2005 00c5 3A       		.uleb128 0x3a
 2006 00c6 0B       		.uleb128 0xb
 2007 00c7 3B       		.uleb128 0x3b
 2008 00c8 0B       		.uleb128 0xb
 2009 00c9 27       		.uleb128 0x27
 2010 00ca 19       		.uleb128 0x19
 2011 00cb 11       		.uleb128 0x11
 2012 00cc 01       		.uleb128 0x1
 2013 00cd 12       		.uleb128 0x12
 2014 00ce 06       		.uleb128 0x6
 2015 00cf 40       		.uleb128 0x40
 2016 00d0 18       		.uleb128 0x18
 2017 00d1 9742     		.uleb128 0x2117
 2018 00d3 19       		.uleb128 0x19
 2019 00d4 01       		.uleb128 0x1
 2020 00d5 13       		.uleb128 0x13
 2021 00d6 00       		.byte	0
 2022 00d7 00       		.byte	0
 2023 00d8 11       		.uleb128 0x11
 2024 00d9 05       		.uleb128 0x5
 2025 00da 00       		.byte	0
 2026 00db 03       		.uleb128 0x3
 2027 00dc 0E       		.uleb128 0xe
 2028 00dd 3A       		.uleb128 0x3a
 2029 00de 0B       		.uleb128 0xb
 2030 00df 3B       		.uleb128 0x3b
 2031 00e0 0B       		.uleb128 0xb
 2032 00e1 49       		.uleb128 0x49
 2033 00e2 13       		.uleb128 0x13
 2034 00e3 02       		.uleb128 0x2
 2035 00e4 18       		.uleb128 0x18
 2036 00e5 00       		.byte	0
 2037 00e6 00       		.byte	0
 2038 00e7 12       		.uleb128 0x12
ARM GAS  C:\Users\HPz420\AppData\Local\Temp\cczyCxcG.s 			page 42


 2039 00e8 2E       		.uleb128 0x2e
 2040 00e9 01       		.byte	0x1
 2041 00ea 3F       		.uleb128 0x3f
 2042 00eb 19       		.uleb128 0x19
 2043 00ec 03       		.uleb128 0x3
 2044 00ed 0E       		.uleb128 0xe
 2045 00ee 3A       		.uleb128 0x3a
 2046 00ef 0B       		.uleb128 0xb
 2047 00f0 3B       		.uleb128 0x3b
 2048 00f1 0B       		.uleb128 0xb
 2049 00f2 49       		.uleb128 0x49
 2050 00f3 13       		.uleb128 0x13
 2051 00f4 11       		.uleb128 0x11
 2052 00f5 01       		.uleb128 0x1
 2053 00f6 12       		.uleb128 0x12
 2054 00f7 06       		.uleb128 0x6
 2055 00f8 40       		.uleb128 0x40
 2056 00f9 18       		.uleb128 0x18
 2057 00fa 9642     		.uleb128 0x2116
 2058 00fc 19       		.uleb128 0x19
 2059 00fd 01       		.uleb128 0x1
 2060 00fe 13       		.uleb128 0x13
 2061 00ff 00       		.byte	0
 2062 0100 00       		.byte	0
 2063 0101 13       		.uleb128 0x13
 2064 0102 34       		.uleb128 0x34
 2065 0103 00       		.byte	0
 2066 0104 03       		.uleb128 0x3
 2067 0105 0E       		.uleb128 0xe
 2068 0106 3A       		.uleb128 0x3a
 2069 0107 0B       		.uleb128 0xb
 2070 0108 3B       		.uleb128 0x3b
 2071 0109 0B       		.uleb128 0xb
 2072 010a 49       		.uleb128 0x49
 2073 010b 13       		.uleb128 0x13
 2074 010c 02       		.uleb128 0x2
 2075 010d 18       		.uleb128 0x18
 2076 010e 00       		.byte	0
 2077 010f 00       		.byte	0
 2078 0110 14       		.uleb128 0x14
 2079 0111 2E       		.uleb128 0x2e
 2080 0112 01       		.byte	0x1
 2081 0113 3F       		.uleb128 0x3f
 2082 0114 19       		.uleb128 0x19
 2083 0115 03       		.uleb128 0x3
 2084 0116 0E       		.uleb128 0xe
 2085 0117 3A       		.uleb128 0x3a
 2086 0118 0B       		.uleb128 0xb
 2087 0119 3B       		.uleb128 0x3b
 2088 011a 0B       		.uleb128 0xb
 2089 011b 27       		.uleb128 0x27
 2090 011c 19       		.uleb128 0x19
 2091 011d 49       		.uleb128 0x49
 2092 011e 13       		.uleb128 0x13
 2093 011f 3C       		.uleb128 0x3c
 2094 0120 19       		.uleb128 0x19
 2095 0121 01       		.uleb128 0x1
ARM GAS  C:\Users\HPz420\AppData\Local\Temp\cczyCxcG.s 			page 43


 2096 0122 13       		.uleb128 0x13
 2097 0123 00       		.byte	0
 2098 0124 00       		.byte	0
 2099 0125 15       		.uleb128 0x15
 2100 0126 05       		.uleb128 0x5
 2101 0127 00       		.byte	0
 2102 0128 49       		.uleb128 0x49
 2103 0129 13       		.uleb128 0x13
 2104 012a 00       		.byte	0
 2105 012b 00       		.byte	0
 2106 012c 16       		.uleb128 0x16
 2107 012d 18       		.uleb128 0x18
 2108 012e 00       		.byte	0
 2109 012f 00       		.byte	0
 2110 0130 00       		.byte	0
 2111 0131 17       		.uleb128 0x17
 2112 0132 34       		.uleb128 0x34
 2113 0133 00       		.byte	0
 2114 0134 03       		.uleb128 0x3
 2115 0135 08       		.uleb128 0x8
 2116 0136 3A       		.uleb128 0x3a
 2117 0137 0B       		.uleb128 0xb
 2118 0138 3B       		.uleb128 0x3b
 2119 0139 0B       		.uleb128 0xb
 2120 013a 49       		.uleb128 0x49
 2121 013b 13       		.uleb128 0x13
 2122 013c 02       		.uleb128 0x2
 2123 013d 18       		.uleb128 0x18
 2124 013e 00       		.byte	0
 2125 013f 00       		.byte	0
 2126 0140 18       		.uleb128 0x18
 2127 0141 21       		.uleb128 0x21
 2128 0142 00       		.byte	0
 2129 0143 49       		.uleb128 0x49
 2130 0144 13       		.uleb128 0x13
 2131 0145 2F       		.uleb128 0x2f
 2132 0146 0B       		.uleb128 0xb
 2133 0147 00       		.byte	0
 2134 0148 00       		.byte	0
 2135 0149 19       		.uleb128 0x19
 2136 014a 34       		.uleb128 0x34
 2137 014b 00       		.byte	0
 2138 014c 03       		.uleb128 0x3
 2139 014d 0E       		.uleb128 0xe
 2140 014e 3A       		.uleb128 0x3a
 2141 014f 0B       		.uleb128 0xb
 2142 0150 3B       		.uleb128 0x3b
 2143 0151 0B       		.uleb128 0xb
 2144 0152 49       		.uleb128 0x49
 2145 0153 13       		.uleb128 0x13
 2146 0154 3F       		.uleb128 0x3f
 2147 0155 19       		.uleb128 0x19
 2148 0156 02       		.uleb128 0x2
 2149 0157 18       		.uleb128 0x18
 2150 0158 00       		.byte	0
 2151 0159 00       		.byte	0
 2152 015a 1A       		.uleb128 0x1a
ARM GAS  C:\Users\HPz420\AppData\Local\Temp\cczyCxcG.s 			page 44


 2153 015b 35       		.uleb128 0x35
 2154 015c 00       		.byte	0
 2155 015d 49       		.uleb128 0x49
 2156 015e 13       		.uleb128 0x13
 2157 015f 00       		.byte	0
 2158 0160 00       		.byte	0
 2159 0161 1B       		.uleb128 0x1b
 2160 0162 34       		.uleb128 0x34
 2161 0163 00       		.byte	0
 2162 0164 03       		.uleb128 0x3
 2163 0165 0E       		.uleb128 0xe
 2164 0166 3A       		.uleb128 0x3a
 2165 0167 0B       		.uleb128 0xb
 2166 0168 3B       		.uleb128 0x3b
 2167 0169 05       		.uleb128 0x5
 2168 016a 49       		.uleb128 0x49
 2169 016b 13       		.uleb128 0x13
 2170 016c 3F       		.uleb128 0x3f
 2171 016d 19       		.uleb128 0x19
 2172 016e 3C       		.uleb128 0x3c
 2173 016f 19       		.uleb128 0x19
 2174 0170 00       		.byte	0
 2175 0171 00       		.byte	0
 2176 0172 00       		.byte	0
 2177              		.section	.debug_aranges,"",%progbits
 2178 0000 3C000000 		.4byte	0x3c
 2179 0004 0200     		.2byte	0x2
 2180 0006 00000000 		.4byte	.Ldebug_info0
 2181 000a 04       		.byte	0x4
 2182 000b 00       		.byte	0
 2183 000c 0000     		.2byte	0
 2184 000e 0000     		.2byte	0
 2185 0010 00000000 		.4byte	.LFB56
 2186 0014 1C000000 		.4byte	.LFE56-.LFB56
 2187 0018 00000000 		.4byte	.LFB57
 2188 001c 10000000 		.4byte	.LFE57-.LFB57
 2189 0020 00000000 		.4byte	.LFB58
 2190 0024 10000000 		.4byte	.LFE58-.LFB58
 2191 0028 00000000 		.4byte	.LFB59
 2192 002c 12000000 		.4byte	.LFE59-.LFB59
 2193 0030 00000000 		.4byte	.LFB60
 2194 0034 CC090000 		.4byte	.LFE60-.LFB60
 2195 0038 00000000 		.4byte	0
 2196 003c 00000000 		.4byte	0
 2197              		.section	.debug_ranges,"",%progbits
 2198              	.Ldebug_ranges0:
 2199 0000 00000000 		.4byte	.LFB56
 2200 0004 1C000000 		.4byte	.LFE56
 2201 0008 00000000 		.4byte	.LFB57
 2202 000c 10000000 		.4byte	.LFE57
 2203 0010 00000000 		.4byte	.LFB58
 2204 0014 10000000 		.4byte	.LFE58
 2205 0018 00000000 		.4byte	.LFB59
 2206 001c 12000000 		.4byte	.LFE59
 2207 0020 00000000 		.4byte	.LFB60
 2208 0024 CC090000 		.4byte	.LFE60
 2209 0028 00000000 		.4byte	0
ARM GAS  C:\Users\HPz420\AppData\Local\Temp\cczyCxcG.s 			page 45


 2210 002c 00000000 		.4byte	0
 2211              		.section	.debug_line,"",%progbits
 2212              	.Ldebug_line0:
 2213 0000 95020000 		.section	.debug_str,"MS",%progbits,1
 2213      02008801 
 2213      00000201 
 2213      FB0E0D00 
 2213      01010101 
 2214              	.LASF23:
 2215 0000 6E5F6661 		.ascii	"n_fats\000"
 2215      747300
 2216              	.LASF87:
 2217 0007 4E534453 		.ascii	"NSDSPI_g_nTransferFlags\000"
 2217      50495F67 
 2217      5F6E5472 
 2217      616E7366 
 2217      6572466C 
 2218              	.LASF73:
 2219 001f 746D7063 		.ascii	"tmpchr\000"
 2219      687200
 2220              	.LASF51:
 2221 0026 46525F44 		.ascii	"FR_DENIED\000"
 2221      454E4945 
 2221      4400
 2222              	.LASF29:
 2223 0030 6E5F6661 		.ascii	"n_fatent\000"
 2223      74656E74 
 2223      00
 2224              	.LASF21:
 2225 0039 66735F74 		.ascii	"fs_type\000"
 2225      79706500 
 2226              	.LASF94:
 2227 0041 70537472 		.ascii	"pString\000"
 2227      696E6700 
 2228              	.LASF88:
 2229 0049 4E534453 		.ascii	"NSDSPI_g_nCtrlState\000"
 2229      50495F67 
 2229      5F6E4374 
 2229      726C5374 
 2229      61746500 
 2230              	.LASF2:
 2231 005d 73686F72 		.ascii	"short int\000"
 2231      7420696E 
 2231      7400
 2232              	.LASF71:
 2233 0067 6E526573 		.ascii	"nRes\000"
 2233      00
 2234              	.LASF41:
 2235 006c 64736563 		.ascii	"dsect\000"
 2235      7400
 2236              	.LASF77:
 2237 0072 6E437572 		.ascii	"nCurrentMillis\000"
 2237      72656E74 
 2237      4D696C6C 
 2237      697300
 2238              	.LASF91:
 2239 0081 474E5520 		.ascii	"GNU C11 5.4.1 20160609 (release) [ARM/embedded-5-br"
ARM GAS  C:\Users\HPz420\AppData\Local\Temp\cczyCxcG.s 			page 46


 2239      43313120 
 2239      352E342E 
 2239      31203230 
 2239      31363036 
 2240 00b4 616E6368 		.ascii	"anch revision 237715] -mcpu=cortex-m3 -mthumb -g -O"
 2240      20726576 
 2240      6973696F 
 2240      6E203233 
 2240      37373135 
 2241 00e7 30202D66 		.ascii	"0 -ffunction-sections -ffat-lto-objects\000"
 2241      66756E63 
 2241      74696F6E 
 2241      2D736563 
 2241      74696F6E 
 2242              	.LASF49:
 2243 010f 46525F4E 		.ascii	"FR_NO_PATH\000"
 2243      4F5F5041 
 2243      544800
 2244              	.LASF34:
 2245 011a 64617461 		.ascii	"database\000"
 2245      62617365 
 2245      00
 2246              	.LASF17:
 2247 0123 42595445 		.ascii	"BYTE\000"
 2247      00
 2248              	.LASF26:
 2249 0128 6E5F726F 		.ascii	"n_rootdir\000"
 2249      6F746469 
 2249      7200
 2250              	.LASF78:
 2251 0132 42696E46 		.ascii	"BinFile\000"
 2251      696C6500 
 2252              	.LASF30:
 2253 013a 6673697A 		.ascii	"fsize\000"
 2253      6500
 2254              	.LASF18:
 2255 0140 574F5244 		.ascii	"WORD\000"
 2255      00
 2256              	.LASF53:
 2257 0145 46525F49 		.ascii	"FR_INVALID_OBJECT\000"
 2257      4E56414C 
 2257      49445F4F 
 2257      424A4543 
 2257      5400
 2258              	.LASF44:
 2259 0157 46525F4F 		.ascii	"FR_OK\000"
 2259      4B00
 2260              	.LASF68:
 2261 015d 5072696E 		.ascii	"PrintFxn\000"
 2261      7446786E 
 2261      00
 2262              	.LASF11:
 2263 0166 75696E74 		.ascii	"uint8\000"
 2263      3800
 2264              	.LASF38:
 2265 016c 66707472 		.ascii	"fptr\000"
 2265      00
ARM GAS  C:\Users\HPz420\AppData\Local\Temp\cczyCxcG.s 			page 47


 2266              	.LASF57:
 2267 0171 46525F4E 		.ascii	"FR_NO_FILESYSTEM\000"
 2267      4F5F4649 
 2267      4C455359 
 2267      5354454D 
 2267      00
 2268              	.LASF0:
 2269 0182 7369676E 		.ascii	"signed char\000"
 2269      65642063 
 2269      68617200 
 2270              	.LASF12:
 2271 018e 666C6F61 		.ascii	"float\000"
 2271      7400
 2272              	.LASF27:
 2273 0194 6C617374 		.ascii	"last_clust\000"
 2273      5F636C75 
 2273      737400
 2274              	.LASF6:
 2275 019f 6C6F6E67 		.ascii	"long long int\000"
 2275      206C6F6E 
 2275      6720696E 
 2275      7400
 2276              	.LASF90:
 2277 01ad 6E6D696C 		.ascii	"nmillis\000"
 2277      6C697300 
 2278              	.LASF4:
 2279 01b5 6C6F6E67 		.ascii	"long int\000"
 2279      20696E74 
 2279      00
 2280              	.LASF40:
 2281 01be 636C7573 		.ascii	"clust\000"
 2281      7400
 2282              	.LASF22:
 2283 01c4 6373697A 		.ascii	"csize\000"
 2283      6500
 2284              	.LASF33:
 2285 01ca 64697262 		.ascii	"dirbase\000"
 2285      61736500 
 2286              	.LASF19:
 2287 01d2 55494E54 		.ascii	"UINT\000"
 2287      00
 2288              	.LASF31:
 2289 01d7 766F6C62 		.ascii	"volbase\000"
 2289      61736500 
 2290              	.LASF58:
 2291 01df 46525F4D 		.ascii	"FR_MKFS_ABORTED\000"
 2291      4B46535F 
 2291      41424F52 
 2291      54454400 
 2292              	.LASF47:
 2293 01ef 46525F4E 		.ascii	"FR_NOT_READY\000"
 2293      4F545F52 
 2293      45414459 
 2293      00
 2294              	.LASF54:
 2295 01fc 46525F57 		.ascii	"FR_WRITE_PROTECTED\000"
 2295      52495445 
ARM GAS  C:\Users\HPz420\AppData\Local\Temp\cczyCxcG.s 			page 48


 2295      5F50524F 
 2295      54454354 
 2295      454400
 2296              	.LASF1:
 2297 020f 756E7369 		.ascii	"unsigned char\000"
 2297      676E6564 
 2297      20636861 
 2297      7200
 2298              	.LASF20:
 2299 021d 44574F52 		.ascii	"DWORD\000"
 2299      4400
 2300              	.LASF25:
 2301 0223 6673695F 		.ascii	"fsi_flag\000"
 2301      666C6167 
 2301      00
 2302              	.LASF15:
 2303 022c 6C6F6E67 		.ascii	"long double\000"
 2303      20646F75 
 2303      626C6500 
 2304              	.LASF70:
 2305 0238 46696C65 		.ascii	"FileSys\000"
 2305      53797300 
 2306              	.LASF83:
 2307 0240 4E534453 		.ascii	"NSDSPI_RX_Chan\000"
 2307      50495F52 
 2307      585F4368 
 2307      616E00
 2308              	.LASF28:
 2309 024f 66726565 		.ascii	"free_clust\000"
 2309      5F636C75 
 2309      737400
 2310              	.LASF45:
 2311 025a 46525F44 		.ascii	"FR_DISK_ERR\000"
 2311      49534B5F 
 2311      45525200 
 2312              	.LASF95:
 2313 0266 73707269 		.ascii	"sprintf\000"
 2313      6E746600 
 2314              	.LASF24:
 2315 026e 77666C61 		.ascii	"wflag\000"
 2315      6700
 2316              	.LASF10:
 2317 0274 696E7433 		.ascii	"int32_t\000"
 2317      325F7400 
 2318              	.LASF7:
 2319 027c 6C6F6E67 		.ascii	"long long unsigned int\000"
 2319      206C6F6E 
 2319      6720756E 
 2319      7369676E 
 2319      65642069 
 2320              	.LASF64:
 2321 0293 46524553 		.ascii	"FRESULT\000"
 2321      554C5400 
 2322              	.LASF8:
 2323 029b 756E7369 		.ascii	"unsigned int\000"
 2323      676E6564 
 2323      20696E74 
ARM GAS  C:\Users\HPz420\AppData\Local\Temp\cczyCxcG.s 			page 49


 2323      00
 2324              	.LASF82:
 2325 02a8 4E534453 		.ascii	"NSDSPI_bEnableDMA\000"
 2325      50495F62 
 2325      456E6162 
 2325      6C65444D 
 2325      4100
 2326              	.LASF62:
 2327 02ba 46525F54 		.ascii	"FR_TOO_MANY_OPEN_FILES\000"
 2327      4F4F5F4D 
 2327      414E595F 
 2327      4F50454E 
 2327      5F46494C 
 2328              	.LASF85:
 2329 02d1 4E534453 		.ascii	"NSDSPI_TX_Chan\000"
 2329      50495F54 
 2329      585F4368 
 2329      616E00
 2330              	.LASF63:
 2331 02e0 46525F49 		.ascii	"FR_INVALID_PARAMETER\000"
 2331      4E56414C 
 2331      49445F50 
 2331      4152414D 
 2331      45544552 
 2332              	.LASF56:
 2333 02f5 46525F4E 		.ascii	"FR_NOT_ENABLED\000"
 2333      4F545F45 
 2333      4E41424C 
 2333      454400
 2334              	.LASF43:
 2335 0304 6469725F 		.ascii	"dir_ptr\000"
 2335      70747200 
 2336              	.LASF81:
 2337 030c 62566572 		.ascii	"bVerifyFail\000"
 2337      69667946 
 2337      61696C00 
 2338              	.LASF52:
 2339 0318 46525F45 		.ascii	"FR_EXIST\000"
 2339      58495354 
 2339      00
 2340              	.LASF14:
 2341 0321 63686172 		.ascii	"char\000"
 2341      00
 2342              	.LASF32:
 2343 0326 66617462 		.ascii	"fatbase\000"
 2343      61736500 
 2344              	.LASF69:
 2345 032e 6D61696E 		.ascii	"main\000"
 2345      00
 2346              	.LASF86:
 2347 0333 4E534453 		.ascii	"NSDSPI_TX_TD\000"
 2347      50495F54 
 2347      585F5444 
 2347      00
 2348              	.LASF3:
 2349 0340 73686F72 		.ascii	"short unsigned int\000"
 2349      7420756E 
ARM GAS  C:\Users\HPz420\AppData\Local\Temp\cczyCxcG.s 			page 50


 2349      7369676E 
 2349      65642069 
 2349      6E7400
 2350              	.LASF67:
 2351 0353 53444341 		.ascii	"SDCARD_SLOW\000"
 2351      52445F53 
 2351      4C4F5700 
 2352              	.LASF66:
 2353 035f 53444341 		.ascii	"SDCARD_FAST\000"
 2353      52445F46 
 2353      41535400 
 2354              	.LASF80:
 2355 036b 6B627073 		.ascii	"kbps\000"
 2355      00
 2356              	.LASF36:
 2357 0370 46415446 		.ascii	"FATFS\000"
 2357      5300
 2358              	.LASF92:
 2359 0376 6D61696E 		.ascii	"main.c\000"
 2359      2E6300
 2360              	.LASF5:
 2361 037d 6C6F6E67 		.ascii	"long unsigned int\000"
 2361      20756E73 
 2361      69676E65 
 2361      6420696E 
 2361      7400
 2362              	.LASF13:
 2363 038f 646F7562 		.ascii	"double\000"
 2363      6C6500
 2364              	.LASF59:
 2365 0396 46525F54 		.ascii	"FR_TIMEOUT\000"
 2365      494D454F 
 2365      555400
 2366              	.LASF89:
 2367 03a1 49544D5F 		.ascii	"ITM_RxBuffer\000"
 2367      52784275 
 2367      66666572 
 2367      00
 2368              	.LASF48:
 2369 03ae 46525F4E 		.ascii	"FR_NO_FILE\000"
 2369      4F5F4649 
 2369      4C4500
 2370              	.LASF76:
 2371 03b9 76616C73 		.ascii	"vals\000"
 2371      00
 2372              	.LASF46:
 2373 03be 46525F49 		.ascii	"FR_INT_ERR\000"
 2373      4E545F45 
 2373      525200
 2374              	.LASF9:
 2375 03c9 5F5F696E 		.ascii	"__int32_t\000"
 2375      7433325F 
 2375      7400
 2376              	.LASF93:
 2377 03d3 433A5C55 		.ascii	"C:\\Users\\HPz420\\Documents\\GitHub\\Doug Gillilan"
 2377      73657273 
 2377      5C48507A 
ARM GAS  C:\Users\HPz420\AppData\Local\Temp\cczyCxcG.s 			page 51


 2377      3432305C 
 2377      446F6375 
 2378 0401 645C5265 		.ascii	"d\\Retro-Computers\\Z80\\PSOC\\PSOC_Design_Files\\N"
 2378      74726F2D 
 2378      436F6D70 
 2378      75746572 
 2378      735C5A38 
 2379 042f 53445350 		.ascii	"SDSPI-master\\ComponentTest\\ComponentTest.cydsn\000"
 2379      492D6D61 
 2379      73746572 
 2379      5C436F6D 
 2379      706F6E65 
 2380              	.LASF75:
 2381 045e 42797465 		.ascii	"BytesRead\000"
 2381      73526561 
 2381      6400
 2382              	.LASF65:
 2383 0468 4D696C6C 		.ascii	"MillisISR\000"
 2383      69734953 
 2383      5200
 2384              	.LASF39:
 2385 0472 73636C75 		.ascii	"sclust\000"
 2385      737400
 2386              	.LASF16:
 2387 0479 73697A65 		.ascii	"sizetype\000"
 2387      74797065 
 2387      00
 2388              	.LASF55:
 2389 0482 46525F49 		.ascii	"FR_INVALID_DRIVE\000"
 2389      4E56414C 
 2389      49445F44 
 2389      52495645 
 2389      00
 2390              	.LASF74:
 2391 0493 42797465 		.ascii	"BytesWritten\000"
 2391      73577269 
 2391      7474656E 
 2391      00
 2392              	.LASF72:
 2393 04a0 46696C65 		.ascii	"File\000"
 2393      00
 2394              	.LASF79:
 2395 04a5 6E54696D 		.ascii	"nTime\000"
 2395      6500
 2396              	.LASF37:
 2397 04ab 666C6167 		.ascii	"flag\000"
 2397      00
 2398              	.LASF60:
 2399 04b0 46525F4C 		.ascii	"FR_LOCKED\000"
 2399      4F434B45 
 2399      4400
 2400              	.LASF35:
 2401 04ba 77696E73 		.ascii	"winsect\000"
 2401      65637400 
 2402              	.LASF42:
 2403 04c2 6469725F 		.ascii	"dir_sect\000"
 2403      73656374 
ARM GAS  C:\Users\HPz420\AppData\Local\Temp\cczyCxcG.s 			page 52


 2403      00
 2404              	.LASF84:
 2405 04cb 4E534453 		.ascii	"NSDSPI_RX_TD\000"
 2405      50495F52 
 2405      585F5444 
 2405      00
 2406              	.LASF61:
 2407 04d8 46525F4E 		.ascii	"FR_NOT_ENOUGH_CORE\000"
 2407      4F545F45 
 2407      4E4F5547 
 2407      485F434F 
 2407      524500
 2408              	.LASF50:
 2409 04eb 46525F49 		.ascii	"FR_INVALID_NAME\000"
 2409      4E56414C 
 2409      49445F4E 
 2409      414D4500 
 2410              		.ident	"GCC: (GNU Tools for ARM Embedded Processors) 5.4.1 20160609 (release) [ARM/embedded-5-bran
