ARM GAS  C:\Users\HPz420\AppData\Local\Temp\ccJh6ZcJ.s 			page 1


   1              		.syntax unified
   2              		.cpu cortex-m3
   3              		.fpu softvfp
   4              		.eabi_attribute 20, 1
   5              		.eabi_attribute 21, 1
   6              		.eabi_attribute 23, 3
   7              		.eabi_attribute 24, 1
   8              		.eabi_attribute 25, 1
   9              		.eabi_attribute 26, 1
  10              		.eabi_attribute 30, 6
  11              		.eabi_attribute 34, 1
  12              		.eabi_attribute 18, 4
  13              		.thumb
  14              		.syntax unified
  15              		.file	"NSDSPI_UDB_BIT_COUNTER.c"
  16              		.text
  17              	.Ltext0:
  18              		.cfi_sections	.debug_frame
  19              		.global	NSDSPI_UDB_BIT_COUNTER_initVar
  20              		.bss
  21              		.type	NSDSPI_UDB_BIT_COUNTER_initVar, %object
  22              		.size	NSDSPI_UDB_BIT_COUNTER_initVar, 1
  23              	NSDSPI_UDB_BIT_COUNTER_initVar:
  24 0000 00       		.space	1
  25              		.section	.text.NSDSPI_UDB_BIT_COUNTER_Init,"ax",%progbits
  26              		.align	2
  27              		.global	NSDSPI_UDB_BIT_COUNTER_Init
  28              		.thumb
  29              		.thumb_func
  30              		.type	NSDSPI_UDB_BIT_COUNTER_Init, %function
  31              	NSDSPI_UDB_BIT_COUNTER_Init:
  32              	.LFB0:
  33              		.file 1 "Generated_Source\\PSoC5\\NSDSPI_UDB_BIT_COUNTER.c"
   1:Generated_Source\PSoC5/NSDSPI_UDB_BIT_COUNTER.c **** /*******************************************************************************
   2:Generated_Source\PSoC5/NSDSPI_UDB_BIT_COUNTER.c **** * File Name: NSDSPI_UDB_BIT_COUNTER.c
   3:Generated_Source\PSoC5/NSDSPI_UDB_BIT_COUNTER.c **** * Version 1.0
   4:Generated_Source\PSoC5/NSDSPI_UDB_BIT_COUNTER.c **** *
   5:Generated_Source\PSoC5/NSDSPI_UDB_BIT_COUNTER.c **** * Description:
   6:Generated_Source\PSoC5/NSDSPI_UDB_BIT_COUNTER.c **** *  This file provides source code for the Count7 component's API.
   7:Generated_Source\PSoC5/NSDSPI_UDB_BIT_COUNTER.c **** *
   8:Generated_Source\PSoC5/NSDSPI_UDB_BIT_COUNTER.c **** * Note:
   9:Generated_Source\PSoC5/NSDSPI_UDB_BIT_COUNTER.c **** *
  10:Generated_Source\PSoC5/NSDSPI_UDB_BIT_COUNTER.c **** ********************************************************************************
  11:Generated_Source\PSoC5/NSDSPI_UDB_BIT_COUNTER.c **** * Copyright 2013, Cypress Semiconductor Corporation.  All rights reserved.
  12:Generated_Source\PSoC5/NSDSPI_UDB_BIT_COUNTER.c **** * You may use this file only in accordance with the license, terms, conditions,
  13:Generated_Source\PSoC5/NSDSPI_UDB_BIT_COUNTER.c **** * disclaimers, and limitations in the end user license agreement accompanying
  14:Generated_Source\PSoC5/NSDSPI_UDB_BIT_COUNTER.c **** * the software package with which this file was provided.
  15:Generated_Source\PSoC5/NSDSPI_UDB_BIT_COUNTER.c **** *******************************************************************************/
  16:Generated_Source\PSoC5/NSDSPI_UDB_BIT_COUNTER.c **** 
  17:Generated_Source\PSoC5/NSDSPI_UDB_BIT_COUNTER.c **** #include "NSDSPI_UDB_BIT_COUNTER.h"
  18:Generated_Source\PSoC5/NSDSPI_UDB_BIT_COUNTER.c **** 
  19:Generated_Source\PSoC5/NSDSPI_UDB_BIT_COUNTER.c **** uint8 NSDSPI_UDB_BIT_COUNTER_initVar = 0u;
  20:Generated_Source\PSoC5/NSDSPI_UDB_BIT_COUNTER.c **** 
  21:Generated_Source\PSoC5/NSDSPI_UDB_BIT_COUNTER.c **** 
  22:Generated_Source\PSoC5/NSDSPI_UDB_BIT_COUNTER.c **** /*******************************************************************************
  23:Generated_Source\PSoC5/NSDSPI_UDB_BIT_COUNTER.c **** * Function Name: NSDSPI_UDB_BIT_COUNTER_Init
  24:Generated_Source\PSoC5/NSDSPI_UDB_BIT_COUNTER.c **** ********************************************************************************
ARM GAS  C:\Users\HPz420\AppData\Local\Temp\ccJh6ZcJ.s 			page 2


  25:Generated_Source\PSoC5/NSDSPI_UDB_BIT_COUNTER.c **** *
  26:Generated_Source\PSoC5/NSDSPI_UDB_BIT_COUNTER.c **** * Summary:
  27:Generated_Source\PSoC5/NSDSPI_UDB_BIT_COUNTER.c **** *  Initializes or restores the component according to the parameter editor
  28:Generated_Source\PSoC5/NSDSPI_UDB_BIT_COUNTER.c **** *  settings.
  29:Generated_Source\PSoC5/NSDSPI_UDB_BIT_COUNTER.c **** *
  30:Generated_Source\PSoC5/NSDSPI_UDB_BIT_COUNTER.c **** * Parameters:
  31:Generated_Source\PSoC5/NSDSPI_UDB_BIT_COUNTER.c **** *  None
  32:Generated_Source\PSoC5/NSDSPI_UDB_BIT_COUNTER.c **** *
  33:Generated_Source\PSoC5/NSDSPI_UDB_BIT_COUNTER.c **** * Return:
  34:Generated_Source\PSoC5/NSDSPI_UDB_BIT_COUNTER.c **** *  None
  35:Generated_Source\PSoC5/NSDSPI_UDB_BIT_COUNTER.c **** *
  36:Generated_Source\PSoC5/NSDSPI_UDB_BIT_COUNTER.c **** * Theory:
  37:Generated_Source\PSoC5/NSDSPI_UDB_BIT_COUNTER.c **** *  It is not necessary to call Count7_Init() because the Count7_Start() API
  38:Generated_Source\PSoC5/NSDSPI_UDB_BIT_COUNTER.c **** *  calls this function and is the preferred method to begin component
  39:Generated_Source\PSoC5/NSDSPI_UDB_BIT_COUNTER.c **** *  operation.
  40:Generated_Source\PSoC5/NSDSPI_UDB_BIT_COUNTER.c **** *
  41:Generated_Source\PSoC5/NSDSPI_UDB_BIT_COUNTER.c **** *******************************************************************************/
  42:Generated_Source\PSoC5/NSDSPI_UDB_BIT_COUNTER.c **** void NSDSPI_UDB_BIT_COUNTER_Init(void) 
  43:Generated_Source\PSoC5/NSDSPI_UDB_BIT_COUNTER.c **** {
  34              		.loc 1 43 0
  35              		.cfi_startproc
  36              		@ args = 0, pretend = 0, frame = 0
  37              		@ frame_needed = 1, uses_anonymous_args = 0
  38              		@ link register save eliminated.
  39 0000 80B4     		push	{r7}
  40              		.cfi_def_cfa_offset 4
  41              		.cfi_offset 7, -4
  42 0002 00AF     		add	r7, sp, #0
  43              		.cfi_def_cfa_register 7
  44:Generated_Source\PSoC5/NSDSPI_UDB_BIT_COUNTER.c ****     /* Set the initial period value from parameter editor */
  45:Generated_Source\PSoC5/NSDSPI_UDB_BIT_COUNTER.c ****     NSDSPI_UDB_BIT_COUNTER_PERIOD_REG = NSDSPI_UDB_BIT_COUNTER_INITIAL_PERIOD;
  44              		.loc 1 45 0
  45 0004 034B     		ldr	r3, .L2
  46 0006 0622     		movs	r2, #6
  47 0008 1A70     		strb	r2, [r3]
  46:Generated_Source\PSoC5/NSDSPI_UDB_BIT_COUNTER.c **** }
  48              		.loc 1 46 0
  49 000a 00BF     		nop
  50 000c BD46     		mov	sp, r7
  51              		.cfi_def_cfa_register 13
  52              		@ sp needed
  53 000e 80BC     		pop	{r7}
  54              		.cfi_restore 7
  55              		.cfi_def_cfa_offset 0
  56 0010 7047     		bx	lr
  57              	.L3:
  58 0012 00BF     		.align	2
  59              	.L2:
  60 0014 8C640040 		.word	1073767564
  61              		.cfi_endproc
  62              	.LFE0:
  63              		.size	NSDSPI_UDB_BIT_COUNTER_Init, .-NSDSPI_UDB_BIT_COUNTER_Init
  64              		.section	.text.NSDSPI_UDB_BIT_COUNTER_Enable,"ax",%progbits
  65              		.align	2
  66              		.global	NSDSPI_UDB_BIT_COUNTER_Enable
  67              		.thumb
  68              		.thumb_func
ARM GAS  C:\Users\HPz420\AppData\Local\Temp\ccJh6ZcJ.s 			page 3


  69              		.type	NSDSPI_UDB_BIT_COUNTER_Enable, %function
  70              	NSDSPI_UDB_BIT_COUNTER_Enable:
  71              	.LFB1:
  47:Generated_Source\PSoC5/NSDSPI_UDB_BIT_COUNTER.c **** 
  48:Generated_Source\PSoC5/NSDSPI_UDB_BIT_COUNTER.c **** 
  49:Generated_Source\PSoC5/NSDSPI_UDB_BIT_COUNTER.c **** /*******************************************************************************
  50:Generated_Source\PSoC5/NSDSPI_UDB_BIT_COUNTER.c **** * Function Name: NSDSPI_UDB_BIT_COUNTER_Enable
  51:Generated_Source\PSoC5/NSDSPI_UDB_BIT_COUNTER.c **** ********************************************************************************
  52:Generated_Source\PSoC5/NSDSPI_UDB_BIT_COUNTER.c **** *
  53:Generated_Source\PSoC5/NSDSPI_UDB_BIT_COUNTER.c **** * Summary:
  54:Generated_Source\PSoC5/NSDSPI_UDB_BIT_COUNTER.c **** *  Enables the software enable of the counter.
  55:Generated_Source\PSoC5/NSDSPI_UDB_BIT_COUNTER.c **** *
  56:Generated_Source\PSoC5/NSDSPI_UDB_BIT_COUNTER.c **** * Parameters:
  57:Generated_Source\PSoC5/NSDSPI_UDB_BIT_COUNTER.c **** *  None
  58:Generated_Source\PSoC5/NSDSPI_UDB_BIT_COUNTER.c **** *
  59:Generated_Source\PSoC5/NSDSPI_UDB_BIT_COUNTER.c **** * Return:
  60:Generated_Source\PSoC5/NSDSPI_UDB_BIT_COUNTER.c **** *  None
  61:Generated_Source\PSoC5/NSDSPI_UDB_BIT_COUNTER.c **** *
  62:Generated_Source\PSoC5/NSDSPI_UDB_BIT_COUNTER.c **** * Theory:
  63:Generated_Source\PSoC5/NSDSPI_UDB_BIT_COUNTER.c **** *  It is not necessary to call Count7_Enable() because the Count7_Start() API
  64:Generated_Source\PSoC5/NSDSPI_UDB_BIT_COUNTER.c **** *  calls this function, which is the preferred method to begin component
  65:Generated_Source\PSoC5/NSDSPI_UDB_BIT_COUNTER.c **** *  operation.
  66:Generated_Source\PSoC5/NSDSPI_UDB_BIT_COUNTER.c **** *  This API performs modification of auxiliary control register which is a
  67:Generated_Source\PSoC5/NSDSPI_UDB_BIT_COUNTER.c **** *  shared resource so it is required to disable interrupts until the
  68:Generated_Source\PSoC5/NSDSPI_UDB_BIT_COUNTER.c **** *  modification will complete.
  69:Generated_Source\PSoC5/NSDSPI_UDB_BIT_COUNTER.c **** *
  70:Generated_Source\PSoC5/NSDSPI_UDB_BIT_COUNTER.c **** *******************************************************************************/
  71:Generated_Source\PSoC5/NSDSPI_UDB_BIT_COUNTER.c **** void NSDSPI_UDB_BIT_COUNTER_Enable(void) 
  72:Generated_Source\PSoC5/NSDSPI_UDB_BIT_COUNTER.c **** {
  72              		.loc 1 72 0
  73              		.cfi_startproc
  74              		@ args = 0, pretend = 0, frame = 8
  75              		@ frame_needed = 1, uses_anonymous_args = 0
  76 0000 80B5     		push	{r7, lr}
  77              		.cfi_def_cfa_offset 8
  78              		.cfi_offset 7, -8
  79              		.cfi_offset 14, -4
  80 0002 82B0     		sub	sp, sp, #8
  81              		.cfi_def_cfa_offset 16
  82 0004 00AF     		add	r7, sp, #0
  83              		.cfi_def_cfa_register 7
  73:Generated_Source\PSoC5/NSDSPI_UDB_BIT_COUNTER.c ****     uint8 interruptState;
  74:Generated_Source\PSoC5/NSDSPI_UDB_BIT_COUNTER.c **** 
  75:Generated_Source\PSoC5/NSDSPI_UDB_BIT_COUNTER.c ****     interruptState = CyEnterCriticalSection();
  84              		.loc 1 75 0
  85 0006 FFF7FEFF 		bl	CyEnterCriticalSection
  86 000a 0346     		mov	r3, r0
  87 000c FB71     		strb	r3, [r7, #7]
  76:Generated_Source\PSoC5/NSDSPI_UDB_BIT_COUNTER.c ****     /* Set the counter start bit in auxiliary control. If routed enable
  77:Generated_Source\PSoC5/NSDSPI_UDB_BIT_COUNTER.c ****     * isn't used then this will immediately star the Count7 operation.
  78:Generated_Source\PSoC5/NSDSPI_UDB_BIT_COUNTER.c ****     */
  79:Generated_Source\PSoC5/NSDSPI_UDB_BIT_COUNTER.c ****     NSDSPI_UDB_BIT_COUNTER_AUX_CONTROL_REG |= NSDSPI_UDB_BIT_COUNTER_COUNTER_START;
  88              		.loc 1 79 0
  89 000e 084A     		ldr	r2, .L5
  90 0010 074B     		ldr	r3, .L5
  91 0012 1B78     		ldrb	r3, [r3]
  92 0014 DBB2     		uxtb	r3, r3
ARM GAS  C:\Users\HPz420\AppData\Local\Temp\ccJh6ZcJ.s 			page 4


  93 0016 43F02003 		orr	r3, r3, #32
  94 001a DBB2     		uxtb	r3, r3
  95 001c 1370     		strb	r3, [r2]
  80:Generated_Source\PSoC5/NSDSPI_UDB_BIT_COUNTER.c **** 
  81:Generated_Source\PSoC5/NSDSPI_UDB_BIT_COUNTER.c ****     CyExitCriticalSection(interruptState);
  96              		.loc 1 81 0
  97 001e FB79     		ldrb	r3, [r7, #7]	@ zero_extendqisi2
  98 0020 1846     		mov	r0, r3
  99 0022 FFF7FEFF 		bl	CyExitCriticalSection
  82:Generated_Source\PSoC5/NSDSPI_UDB_BIT_COUNTER.c **** }
 100              		.loc 1 82 0
 101 0026 00BF     		nop
 102 0028 0837     		adds	r7, r7, #8
 103              		.cfi_def_cfa_offset 8
 104 002a BD46     		mov	sp, r7
 105              		.cfi_def_cfa_register 13
 106              		@ sp needed
 107 002c 80BD     		pop	{r7, pc}
 108              	.L6:
 109 002e 00BF     		.align	2
 110              	.L5:
 111 0030 9C640040 		.word	1073767580
 112              		.cfi_endproc
 113              	.LFE1:
 114              		.size	NSDSPI_UDB_BIT_COUNTER_Enable, .-NSDSPI_UDB_BIT_COUNTER_Enable
 115              		.section	.text.NSDSPI_UDB_BIT_COUNTER_Start,"ax",%progbits
 116              		.align	2
 117              		.global	NSDSPI_UDB_BIT_COUNTER_Start
 118              		.thumb
 119              		.thumb_func
 120              		.type	NSDSPI_UDB_BIT_COUNTER_Start, %function
 121              	NSDSPI_UDB_BIT_COUNTER_Start:
 122              	.LFB2:
  83:Generated_Source\PSoC5/NSDSPI_UDB_BIT_COUNTER.c **** 
  84:Generated_Source\PSoC5/NSDSPI_UDB_BIT_COUNTER.c **** 
  85:Generated_Source\PSoC5/NSDSPI_UDB_BIT_COUNTER.c **** /*******************************************************************************
  86:Generated_Source\PSoC5/NSDSPI_UDB_BIT_COUNTER.c **** * Function Name: NSDSPI_UDB_BIT_COUNTER_Start
  87:Generated_Source\PSoC5/NSDSPI_UDB_BIT_COUNTER.c **** ********************************************************************************
  88:Generated_Source\PSoC5/NSDSPI_UDB_BIT_COUNTER.c **** *
  89:Generated_Source\PSoC5/NSDSPI_UDB_BIT_COUNTER.c **** * Summary:
  90:Generated_Source\PSoC5/NSDSPI_UDB_BIT_COUNTER.c **** *  Performs all of the required initialization for the component and enables
  91:Generated_Source\PSoC5/NSDSPI_UDB_BIT_COUNTER.c **** *  the counter. The first time the routine is executed, the period is set as
  92:Generated_Source\PSoC5/NSDSPI_UDB_BIT_COUNTER.c **** *  configured in the customizer. When called to restart the counter following a
  93:Generated_Source\PSoC5/NSDSPI_UDB_BIT_COUNTER.c **** *  Count7_Stop() call, the current period value is retained.
  94:Generated_Source\PSoC5/NSDSPI_UDB_BIT_COUNTER.c **** *
  95:Generated_Source\PSoC5/NSDSPI_UDB_BIT_COUNTER.c **** * Parameters:
  96:Generated_Source\PSoC5/NSDSPI_UDB_BIT_COUNTER.c **** *  None.
  97:Generated_Source\PSoC5/NSDSPI_UDB_BIT_COUNTER.c **** *
  98:Generated_Source\PSoC5/NSDSPI_UDB_BIT_COUNTER.c **** * Global Variables:
  99:Generated_Source\PSoC5/NSDSPI_UDB_BIT_COUNTER.c **** *  NSDSPI_UDB_BIT_COUNTER_initVar - global variable.
 100:Generated_Source\PSoC5/NSDSPI_UDB_BIT_COUNTER.c **** *
 101:Generated_Source\PSoC5/NSDSPI_UDB_BIT_COUNTER.c **** * Return:
 102:Generated_Source\PSoC5/NSDSPI_UDB_BIT_COUNTER.c **** *  None.
 103:Generated_Source\PSoC5/NSDSPI_UDB_BIT_COUNTER.c **** *
 104:Generated_Source\PSoC5/NSDSPI_UDB_BIT_COUNTER.c **** *******************************************************************************/
 105:Generated_Source\PSoC5/NSDSPI_UDB_BIT_COUNTER.c **** void NSDSPI_UDB_BIT_COUNTER_Start(void) 
 106:Generated_Source\PSoC5/NSDSPI_UDB_BIT_COUNTER.c **** {
ARM GAS  C:\Users\HPz420\AppData\Local\Temp\ccJh6ZcJ.s 			page 5


 123              		.loc 1 106 0
 124              		.cfi_startproc
 125              		@ args = 0, pretend = 0, frame = 0
 126              		@ frame_needed = 1, uses_anonymous_args = 0
 127 0000 80B5     		push	{r7, lr}
 128              		.cfi_def_cfa_offset 8
 129              		.cfi_offset 7, -8
 130              		.cfi_offset 14, -4
 131 0002 00AF     		add	r7, sp, #0
 132              		.cfi_def_cfa_register 7
 107:Generated_Source\PSoC5/NSDSPI_UDB_BIT_COUNTER.c ****     /* If not initialized then perform initialization */
 108:Generated_Source\PSoC5/NSDSPI_UDB_BIT_COUNTER.c ****     if(NSDSPI_UDB_BIT_COUNTER_initVar == 0u)
 133              		.loc 1 108 0
 134 0004 064B     		ldr	r3, .L9
 135 0006 1B78     		ldrb	r3, [r3]	@ zero_extendqisi2
 136 0008 002B     		cmp	r3, #0
 137 000a 04D1     		bne	.L8
 109:Generated_Source\PSoC5/NSDSPI_UDB_BIT_COUNTER.c ****     {
 110:Generated_Source\PSoC5/NSDSPI_UDB_BIT_COUNTER.c ****         NSDSPI_UDB_BIT_COUNTER_Init();
 138              		.loc 1 110 0
 139 000c FFF7FEFF 		bl	NSDSPI_UDB_BIT_COUNTER_Init
 111:Generated_Source\PSoC5/NSDSPI_UDB_BIT_COUNTER.c ****         NSDSPI_UDB_BIT_COUNTER_initVar = 1u;
 140              		.loc 1 111 0
 141 0010 034B     		ldr	r3, .L9
 142 0012 0122     		movs	r2, #1
 143 0014 1A70     		strb	r2, [r3]
 144              	.L8:
 112:Generated_Source\PSoC5/NSDSPI_UDB_BIT_COUNTER.c ****     }
 113:Generated_Source\PSoC5/NSDSPI_UDB_BIT_COUNTER.c **** 
 114:Generated_Source\PSoC5/NSDSPI_UDB_BIT_COUNTER.c ****     /* Enable Count7 */
 115:Generated_Source\PSoC5/NSDSPI_UDB_BIT_COUNTER.c ****     NSDSPI_UDB_BIT_COUNTER_Enable();
 145              		.loc 1 115 0
 146 0016 FFF7FEFF 		bl	NSDSPI_UDB_BIT_COUNTER_Enable
 116:Generated_Source\PSoC5/NSDSPI_UDB_BIT_COUNTER.c **** }
 147              		.loc 1 116 0
 148 001a 00BF     		nop
 149 001c 80BD     		pop	{r7, pc}
 150              	.L10:
 151 001e 00BF     		.align	2
 152              	.L9:
 153 0020 00000000 		.word	NSDSPI_UDB_BIT_COUNTER_initVar
 154              		.cfi_endproc
 155              	.LFE2:
 156              		.size	NSDSPI_UDB_BIT_COUNTER_Start, .-NSDSPI_UDB_BIT_COUNTER_Start
 157              		.section	.text.NSDSPI_UDB_BIT_COUNTER_Stop,"ax",%progbits
 158              		.align	2
 159              		.global	NSDSPI_UDB_BIT_COUNTER_Stop
 160              		.thumb
 161              		.thumb_func
 162              		.type	NSDSPI_UDB_BIT_COUNTER_Stop, %function
 163              	NSDSPI_UDB_BIT_COUNTER_Stop:
 164              	.LFB3:
 117:Generated_Source\PSoC5/NSDSPI_UDB_BIT_COUNTER.c **** 
 118:Generated_Source\PSoC5/NSDSPI_UDB_BIT_COUNTER.c **** 
 119:Generated_Source\PSoC5/NSDSPI_UDB_BIT_COUNTER.c **** /*******************************************************************************
 120:Generated_Source\PSoC5/NSDSPI_UDB_BIT_COUNTER.c **** * Function Name: NSDSPI_UDB_BIT_COUNTER_Stop
 121:Generated_Source\PSoC5/NSDSPI_UDB_BIT_COUNTER.c **** ********************************************************************************
ARM GAS  C:\Users\HPz420\AppData\Local\Temp\ccJh6ZcJ.s 			page 6


 122:Generated_Source\PSoC5/NSDSPI_UDB_BIT_COUNTER.c **** *
 123:Generated_Source\PSoC5/NSDSPI_UDB_BIT_COUNTER.c **** * Summary:
 124:Generated_Source\PSoC5/NSDSPI_UDB_BIT_COUNTER.c **** *  Disables the software enable of the counter.
 125:Generated_Source\PSoC5/NSDSPI_UDB_BIT_COUNTER.c **** *
 126:Generated_Source\PSoC5/NSDSPI_UDB_BIT_COUNTER.c **** * Parameters:
 127:Generated_Source\PSoC5/NSDSPI_UDB_BIT_COUNTER.c **** *  None
 128:Generated_Source\PSoC5/NSDSPI_UDB_BIT_COUNTER.c **** *
 129:Generated_Source\PSoC5/NSDSPI_UDB_BIT_COUNTER.c **** * Return:
 130:Generated_Source\PSoC5/NSDSPI_UDB_BIT_COUNTER.c **** *  None
 131:Generated_Source\PSoC5/NSDSPI_UDB_BIT_COUNTER.c **** *
 132:Generated_Source\PSoC5/NSDSPI_UDB_BIT_COUNTER.c **** *******************************************************************************/
 133:Generated_Source\PSoC5/NSDSPI_UDB_BIT_COUNTER.c **** void NSDSPI_UDB_BIT_COUNTER_Stop(void) 
 134:Generated_Source\PSoC5/NSDSPI_UDB_BIT_COUNTER.c **** {
 165              		.loc 1 134 0
 166              		.cfi_startproc
 167              		@ args = 0, pretend = 0, frame = 8
 168              		@ frame_needed = 1, uses_anonymous_args = 0
 169 0000 80B5     		push	{r7, lr}
 170              		.cfi_def_cfa_offset 8
 171              		.cfi_offset 7, -8
 172              		.cfi_offset 14, -4
 173 0002 82B0     		sub	sp, sp, #8
 174              		.cfi_def_cfa_offset 16
 175 0004 00AF     		add	r7, sp, #0
 176              		.cfi_def_cfa_register 7
 135:Generated_Source\PSoC5/NSDSPI_UDB_BIT_COUNTER.c ****     uint8 interruptState;
 136:Generated_Source\PSoC5/NSDSPI_UDB_BIT_COUNTER.c **** 
 137:Generated_Source\PSoC5/NSDSPI_UDB_BIT_COUNTER.c ****     interruptState = CyEnterCriticalSection();
 177              		.loc 1 137 0
 178 0006 FFF7FEFF 		bl	CyEnterCriticalSection
 179 000a 0346     		mov	r3, r0
 180 000c FB71     		strb	r3, [r7, #7]
 138:Generated_Source\PSoC5/NSDSPI_UDB_BIT_COUNTER.c ****     /* Clear the counter start bit in auxiliary control. */
 139:Generated_Source\PSoC5/NSDSPI_UDB_BIT_COUNTER.c ****     NSDSPI_UDB_BIT_COUNTER_AUX_CONTROL_REG &= (uint8) ~((uint8) NSDSPI_UDB_BIT_COUNTER_COUNTER_STAR
 181              		.loc 1 139 0
 182 000e 084A     		ldr	r2, .L12
 183 0010 074B     		ldr	r3, .L12
 184 0012 1B78     		ldrb	r3, [r3]
 185 0014 DBB2     		uxtb	r3, r3
 186 0016 23F02003 		bic	r3, r3, #32
 187 001a DBB2     		uxtb	r3, r3
 188 001c 1370     		strb	r3, [r2]
 140:Generated_Source\PSoC5/NSDSPI_UDB_BIT_COUNTER.c **** 
 141:Generated_Source\PSoC5/NSDSPI_UDB_BIT_COUNTER.c ****     CyExitCriticalSection(interruptState);
 189              		.loc 1 141 0
 190 001e FB79     		ldrb	r3, [r7, #7]	@ zero_extendqisi2
 191 0020 1846     		mov	r0, r3
 192 0022 FFF7FEFF 		bl	CyExitCriticalSection
 142:Generated_Source\PSoC5/NSDSPI_UDB_BIT_COUNTER.c **** }
 193              		.loc 1 142 0
 194 0026 00BF     		nop
 195 0028 0837     		adds	r7, r7, #8
 196              		.cfi_def_cfa_offset 8
 197 002a BD46     		mov	sp, r7
 198              		.cfi_def_cfa_register 13
 199              		@ sp needed
 200 002c 80BD     		pop	{r7, pc}
ARM GAS  C:\Users\HPz420\AppData\Local\Temp\ccJh6ZcJ.s 			page 7


 201              	.L13:
 202 002e 00BF     		.align	2
 203              	.L12:
 204 0030 9C640040 		.word	1073767580
 205              		.cfi_endproc
 206              	.LFE3:
 207              		.size	NSDSPI_UDB_BIT_COUNTER_Stop, .-NSDSPI_UDB_BIT_COUNTER_Stop
 208              		.section	.text.NSDSPI_UDB_BIT_COUNTER_WriteCounter,"ax",%progbits
 209              		.align	2
 210              		.global	NSDSPI_UDB_BIT_COUNTER_WriteCounter
 211              		.thumb
 212              		.thumb_func
 213              		.type	NSDSPI_UDB_BIT_COUNTER_WriteCounter, %function
 214              	NSDSPI_UDB_BIT_COUNTER_WriteCounter:
 215              	.LFB4:
 143:Generated_Source\PSoC5/NSDSPI_UDB_BIT_COUNTER.c **** 
 144:Generated_Source\PSoC5/NSDSPI_UDB_BIT_COUNTER.c **** 
 145:Generated_Source\PSoC5/NSDSPI_UDB_BIT_COUNTER.c **** /*******************************************************************************
 146:Generated_Source\PSoC5/NSDSPI_UDB_BIT_COUNTER.c **** * Function Name: NSDSPI_UDB_BIT_COUNTER_WriteCounter
 147:Generated_Source\PSoC5/NSDSPI_UDB_BIT_COUNTER.c **** ********************************************************************************
 148:Generated_Source\PSoC5/NSDSPI_UDB_BIT_COUNTER.c **** *
 149:Generated_Source\PSoC5/NSDSPI_UDB_BIT_COUNTER.c **** * Summary:
 150:Generated_Source\PSoC5/NSDSPI_UDB_BIT_COUNTER.c **** *  This function writes the counter directly. The counter should be disabled
 151:Generated_Source\PSoC5/NSDSPI_UDB_BIT_COUNTER.c **** *  before calling this function.
 152:Generated_Source\PSoC5/NSDSPI_UDB_BIT_COUNTER.c **** *
 153:Generated_Source\PSoC5/NSDSPI_UDB_BIT_COUNTER.c **** * Parameters:
 154:Generated_Source\PSoC5/NSDSPI_UDB_BIT_COUNTER.c **** *  count - Value to be written to counter.
 155:Generated_Source\PSoC5/NSDSPI_UDB_BIT_COUNTER.c **** *
 156:Generated_Source\PSoC5/NSDSPI_UDB_BIT_COUNTER.c **** * Return:
 157:Generated_Source\PSoC5/NSDSPI_UDB_BIT_COUNTER.c **** *  None
 158:Generated_Source\PSoC5/NSDSPI_UDB_BIT_COUNTER.c **** *
 159:Generated_Source\PSoC5/NSDSPI_UDB_BIT_COUNTER.c **** *******************************************************************************/
 160:Generated_Source\PSoC5/NSDSPI_UDB_BIT_COUNTER.c **** void NSDSPI_UDB_BIT_COUNTER_WriteCounter(uint8 count) 
 161:Generated_Source\PSoC5/NSDSPI_UDB_BIT_COUNTER.c **** {
 216              		.loc 1 161 0
 217              		.cfi_startproc
 218              		@ args = 0, pretend = 0, frame = 8
 219              		@ frame_needed = 1, uses_anonymous_args = 0
 220              		@ link register save eliminated.
 221 0000 80B4     		push	{r7}
 222              		.cfi_def_cfa_offset 4
 223              		.cfi_offset 7, -4
 224 0002 83B0     		sub	sp, sp, #12
 225              		.cfi_def_cfa_offset 16
 226 0004 00AF     		add	r7, sp, #0
 227              		.cfi_def_cfa_register 7
 228 0006 0346     		mov	r3, r0
 229 0008 FB71     		strb	r3, [r7, #7]
 162:Generated_Source\PSoC5/NSDSPI_UDB_BIT_COUNTER.c ****     NSDSPI_UDB_BIT_COUNTER_COUNT_REG = (count & NSDSPI_UDB_BIT_COUNTER_COUNT_7BIT_MASK);
 230              		.loc 1 162 0
 231 000a 054A     		ldr	r2, .L15
 232 000c FB79     		ldrb	r3, [r7, #7]
 233 000e 03F07F03 		and	r3, r3, #127
 234 0012 DBB2     		uxtb	r3, r3
 235 0014 1370     		strb	r3, [r2]
 163:Generated_Source\PSoC5/NSDSPI_UDB_BIT_COUNTER.c **** }
 236              		.loc 1 163 0
ARM GAS  C:\Users\HPz420\AppData\Local\Temp\ccJh6ZcJ.s 			page 8


 237 0016 00BF     		nop
 238 0018 0C37     		adds	r7, r7, #12
 239              		.cfi_def_cfa_offset 4
 240 001a BD46     		mov	sp, r7
 241              		.cfi_def_cfa_register 13
 242              		@ sp needed
 243 001c 80BC     		pop	{r7}
 244              		.cfi_restore 7
 245              		.cfi_def_cfa_offset 0
 246 001e 7047     		bx	lr
 247              	.L16:
 248              		.align	2
 249              	.L15:
 250 0020 7C640040 		.word	1073767548
 251              		.cfi_endproc
 252              	.LFE4:
 253              		.size	NSDSPI_UDB_BIT_COUNTER_WriteCounter, .-NSDSPI_UDB_BIT_COUNTER_WriteCounter
 254              		.section	.text.NSDSPI_UDB_BIT_COUNTER_ReadCounter,"ax",%progbits
 255              		.align	2
 256              		.global	NSDSPI_UDB_BIT_COUNTER_ReadCounter
 257              		.thumb
 258              		.thumb_func
 259              		.type	NSDSPI_UDB_BIT_COUNTER_ReadCounter, %function
 260              	NSDSPI_UDB_BIT_COUNTER_ReadCounter:
 261              	.LFB5:
 164:Generated_Source\PSoC5/NSDSPI_UDB_BIT_COUNTER.c **** 
 165:Generated_Source\PSoC5/NSDSPI_UDB_BIT_COUNTER.c **** 
 166:Generated_Source\PSoC5/NSDSPI_UDB_BIT_COUNTER.c **** /*******************************************************************************
 167:Generated_Source\PSoC5/NSDSPI_UDB_BIT_COUNTER.c **** * Function Name: NSDSPI_UDB_BIT_COUNTER_ReadCounter
 168:Generated_Source\PSoC5/NSDSPI_UDB_BIT_COUNTER.c **** ********************************************************************************
 169:Generated_Source\PSoC5/NSDSPI_UDB_BIT_COUNTER.c **** *
 170:Generated_Source\PSoC5/NSDSPI_UDB_BIT_COUNTER.c **** * Summary:
 171:Generated_Source\PSoC5/NSDSPI_UDB_BIT_COUNTER.c **** *  This function reads the counter value.
 172:Generated_Source\PSoC5/NSDSPI_UDB_BIT_COUNTER.c **** *
 173:Generated_Source\PSoC5/NSDSPI_UDB_BIT_COUNTER.c **** * Parameters:
 174:Generated_Source\PSoC5/NSDSPI_UDB_BIT_COUNTER.c **** *  None
 175:Generated_Source\PSoC5/NSDSPI_UDB_BIT_COUNTER.c **** *
 176:Generated_Source\PSoC5/NSDSPI_UDB_BIT_COUNTER.c **** * Return:
 177:Generated_Source\PSoC5/NSDSPI_UDB_BIT_COUNTER.c **** *  None
 178:Generated_Source\PSoC5/NSDSPI_UDB_BIT_COUNTER.c **** *
 179:Generated_Source\PSoC5/NSDSPI_UDB_BIT_COUNTER.c **** *******************************************************************************/
 180:Generated_Source\PSoC5/NSDSPI_UDB_BIT_COUNTER.c **** uint8 NSDSPI_UDB_BIT_COUNTER_ReadCounter(void) 
 181:Generated_Source\PSoC5/NSDSPI_UDB_BIT_COUNTER.c **** {
 262              		.loc 1 181 0
 263              		.cfi_startproc
 264              		@ args = 0, pretend = 0, frame = 0
 265              		@ frame_needed = 1, uses_anonymous_args = 0
 266              		@ link register save eliminated.
 267 0000 80B4     		push	{r7}
 268              		.cfi_def_cfa_offset 4
 269              		.cfi_offset 7, -4
 270 0002 00AF     		add	r7, sp, #0
 271              		.cfi_def_cfa_register 7
 182:Generated_Source\PSoC5/NSDSPI_UDB_BIT_COUNTER.c ****     return(NSDSPI_UDB_BIT_COUNTER_COUNT_REG & NSDSPI_UDB_BIT_COUNTER_COUNT_7BIT_MASK);
 272              		.loc 1 182 0
 273 0004 044B     		ldr	r3, .L19
 274 0006 1B78     		ldrb	r3, [r3]
ARM GAS  C:\Users\HPz420\AppData\Local\Temp\ccJh6ZcJ.s 			page 9


 275 0008 DBB2     		uxtb	r3, r3
 276 000a 03F07F03 		and	r3, r3, #127
 277 000e DBB2     		uxtb	r3, r3
 183:Generated_Source\PSoC5/NSDSPI_UDB_BIT_COUNTER.c **** }
 278              		.loc 1 183 0
 279 0010 1846     		mov	r0, r3
 280 0012 BD46     		mov	sp, r7
 281              		.cfi_def_cfa_register 13
 282              		@ sp needed
 283 0014 80BC     		pop	{r7}
 284              		.cfi_restore 7
 285              		.cfi_def_cfa_offset 0
 286 0016 7047     		bx	lr
 287              	.L20:
 288              		.align	2
 289              	.L19:
 290 0018 7C640040 		.word	1073767548
 291              		.cfi_endproc
 292              	.LFE5:
 293              		.size	NSDSPI_UDB_BIT_COUNTER_ReadCounter, .-NSDSPI_UDB_BIT_COUNTER_ReadCounter
 294              		.section	.text.NSDSPI_UDB_BIT_COUNTER_WritePeriod,"ax",%progbits
 295              		.align	2
 296              		.global	NSDSPI_UDB_BIT_COUNTER_WritePeriod
 297              		.thumb
 298              		.thumb_func
 299              		.type	NSDSPI_UDB_BIT_COUNTER_WritePeriod, %function
 300              	NSDSPI_UDB_BIT_COUNTER_WritePeriod:
 301              	.LFB6:
 184:Generated_Source\PSoC5/NSDSPI_UDB_BIT_COUNTER.c **** 
 185:Generated_Source\PSoC5/NSDSPI_UDB_BIT_COUNTER.c **** 
 186:Generated_Source\PSoC5/NSDSPI_UDB_BIT_COUNTER.c **** /*******************************************************************************
 187:Generated_Source\PSoC5/NSDSPI_UDB_BIT_COUNTER.c **** * Function Name: NSDSPI_UDB_BIT_COUNTER_WritePeriod
 188:Generated_Source\PSoC5/NSDSPI_UDB_BIT_COUNTER.c **** ********************************************************************************
 189:Generated_Source\PSoC5/NSDSPI_UDB_BIT_COUNTER.c **** *
 190:Generated_Source\PSoC5/NSDSPI_UDB_BIT_COUNTER.c **** * Summary:
 191:Generated_Source\PSoC5/NSDSPI_UDB_BIT_COUNTER.c **** *  This function writes the period register. The actual period is one greater
 192:Generated_Source\PSoC5/NSDSPI_UDB_BIT_COUNTER.c **** *  than the value in the period register since the counting sequence starts
 193:Generated_Source\PSoC5/NSDSPI_UDB_BIT_COUNTER.c **** *  with the period register and counts down to 0 inclusive. The period of the
 194:Generated_Source\PSoC5/NSDSPI_UDB_BIT_COUNTER.c **** *  counter output does not change until the counter is reloaded following the
 195:Generated_Source\PSoC5/NSDSPI_UDB_BIT_COUNTER.c **** *  terminal count value of 0 or due to a hardware load signal.
 196:Generated_Source\PSoC5/NSDSPI_UDB_BIT_COUNTER.c **** *
 197:Generated_Source\PSoC5/NSDSPI_UDB_BIT_COUNTER.c **** * Parameters:
 198:Generated_Source\PSoC5/NSDSPI_UDB_BIT_COUNTER.c **** *  period - Period value to be written.
 199:Generated_Source\PSoC5/NSDSPI_UDB_BIT_COUNTER.c **** *
 200:Generated_Source\PSoC5/NSDSPI_UDB_BIT_COUNTER.c **** * Return:
 201:Generated_Source\PSoC5/NSDSPI_UDB_BIT_COUNTER.c **** *  None
 202:Generated_Source\PSoC5/NSDSPI_UDB_BIT_COUNTER.c **** *
 203:Generated_Source\PSoC5/NSDSPI_UDB_BIT_COUNTER.c **** *******************************************************************************/
 204:Generated_Source\PSoC5/NSDSPI_UDB_BIT_COUNTER.c **** void NSDSPI_UDB_BIT_COUNTER_WritePeriod(uint8 period) 
 205:Generated_Source\PSoC5/NSDSPI_UDB_BIT_COUNTER.c **** {
 302              		.loc 1 205 0
 303              		.cfi_startproc
 304              		@ args = 0, pretend = 0, frame = 8
 305              		@ frame_needed = 1, uses_anonymous_args = 0
 306              		@ link register save eliminated.
 307 0000 80B4     		push	{r7}
 308              		.cfi_def_cfa_offset 4
ARM GAS  C:\Users\HPz420\AppData\Local\Temp\ccJh6ZcJ.s 			page 10


 309              		.cfi_offset 7, -4
 310 0002 83B0     		sub	sp, sp, #12
 311              		.cfi_def_cfa_offset 16
 312 0004 00AF     		add	r7, sp, #0
 313              		.cfi_def_cfa_register 7
 314 0006 0346     		mov	r3, r0
 315 0008 FB71     		strb	r3, [r7, #7]
 206:Generated_Source\PSoC5/NSDSPI_UDB_BIT_COUNTER.c ****     NSDSPI_UDB_BIT_COUNTER_PERIOD_REG = period;
 316              		.loc 1 206 0
 317 000a 044A     		ldr	r2, .L22
 318 000c FB79     		ldrb	r3, [r7, #7]
 319 000e 1370     		strb	r3, [r2]
 207:Generated_Source\PSoC5/NSDSPI_UDB_BIT_COUNTER.c **** }
 320              		.loc 1 207 0
 321 0010 00BF     		nop
 322 0012 0C37     		adds	r7, r7, #12
 323              		.cfi_def_cfa_offset 4
 324 0014 BD46     		mov	sp, r7
 325              		.cfi_def_cfa_register 13
 326              		@ sp needed
 327 0016 80BC     		pop	{r7}
 328              		.cfi_restore 7
 329              		.cfi_def_cfa_offset 0
 330 0018 7047     		bx	lr
 331              	.L23:
 332 001a 00BF     		.align	2
 333              	.L22:
 334 001c 8C640040 		.word	1073767564
 335              		.cfi_endproc
 336              	.LFE6:
 337              		.size	NSDSPI_UDB_BIT_COUNTER_WritePeriod, .-NSDSPI_UDB_BIT_COUNTER_WritePeriod
 338              		.section	.text.NSDSPI_UDB_BIT_COUNTER_ReadPeriod,"ax",%progbits
 339              		.align	2
 340              		.global	NSDSPI_UDB_BIT_COUNTER_ReadPeriod
 341              		.thumb
 342              		.thumb_func
 343              		.type	NSDSPI_UDB_BIT_COUNTER_ReadPeriod, %function
 344              	NSDSPI_UDB_BIT_COUNTER_ReadPeriod:
 345              	.LFB7:
 208:Generated_Source\PSoC5/NSDSPI_UDB_BIT_COUNTER.c **** 
 209:Generated_Source\PSoC5/NSDSPI_UDB_BIT_COUNTER.c **** 
 210:Generated_Source\PSoC5/NSDSPI_UDB_BIT_COUNTER.c **** /*******************************************************************************
 211:Generated_Source\PSoC5/NSDSPI_UDB_BIT_COUNTER.c **** * Function Name: NSDSPI_UDB_BIT_COUNTER_ReadPeriod
 212:Generated_Source\PSoC5/NSDSPI_UDB_BIT_COUNTER.c **** ********************************************************************************
 213:Generated_Source\PSoC5/NSDSPI_UDB_BIT_COUNTER.c **** *
 214:Generated_Source\PSoC5/NSDSPI_UDB_BIT_COUNTER.c **** * Summary:
 215:Generated_Source\PSoC5/NSDSPI_UDB_BIT_COUNTER.c **** *  This function reads the period register.
 216:Generated_Source\PSoC5/NSDSPI_UDB_BIT_COUNTER.c **** *
 217:Generated_Source\PSoC5/NSDSPI_UDB_BIT_COUNTER.c **** * Parameters:
 218:Generated_Source\PSoC5/NSDSPI_UDB_BIT_COUNTER.c **** *  None
 219:Generated_Source\PSoC5/NSDSPI_UDB_BIT_COUNTER.c **** *
 220:Generated_Source\PSoC5/NSDSPI_UDB_BIT_COUNTER.c **** * Return:
 221:Generated_Source\PSoC5/NSDSPI_UDB_BIT_COUNTER.c **** *  uint8 - Current period value.
 222:Generated_Source\PSoC5/NSDSPI_UDB_BIT_COUNTER.c **** *
 223:Generated_Source\PSoC5/NSDSPI_UDB_BIT_COUNTER.c **** *******************************************************************************/
 224:Generated_Source\PSoC5/NSDSPI_UDB_BIT_COUNTER.c **** uint8 NSDSPI_UDB_BIT_COUNTER_ReadPeriod(void) 
 225:Generated_Source\PSoC5/NSDSPI_UDB_BIT_COUNTER.c **** {
ARM GAS  C:\Users\HPz420\AppData\Local\Temp\ccJh6ZcJ.s 			page 11


 346              		.loc 1 225 0
 347              		.cfi_startproc
 348              		@ args = 0, pretend = 0, frame = 0
 349              		@ frame_needed = 1, uses_anonymous_args = 0
 350              		@ link register save eliminated.
 351 0000 80B4     		push	{r7}
 352              		.cfi_def_cfa_offset 4
 353              		.cfi_offset 7, -4
 354 0002 00AF     		add	r7, sp, #0
 355              		.cfi_def_cfa_register 7
 226:Generated_Source\PSoC5/NSDSPI_UDB_BIT_COUNTER.c ****     return(NSDSPI_UDB_BIT_COUNTER_PERIOD_REG);
 356              		.loc 1 226 0
 357 0004 034B     		ldr	r3, .L26
 358 0006 1B78     		ldrb	r3, [r3]
 359 0008 DBB2     		uxtb	r3, r3
 227:Generated_Source\PSoC5/NSDSPI_UDB_BIT_COUNTER.c **** }
 360              		.loc 1 227 0
 361 000a 1846     		mov	r0, r3
 362 000c BD46     		mov	sp, r7
 363              		.cfi_def_cfa_register 13
 364              		@ sp needed
 365 000e 80BC     		pop	{r7}
 366              		.cfi_restore 7
 367              		.cfi_def_cfa_offset 0
 368 0010 7047     		bx	lr
 369              	.L27:
 370 0012 00BF     		.align	2
 371              	.L26:
 372 0014 8C640040 		.word	1073767564
 373              		.cfi_endproc
 374              	.LFE7:
 375              		.size	NSDSPI_UDB_BIT_COUNTER_ReadPeriod, .-NSDSPI_UDB_BIT_COUNTER_ReadPeriod
 376              		.text
 377              	.Letext0:
 378              		.file 2 "Generated_Source\\PSoC5\\cytypes.h"