ARM GAS  C:\Users\HPz420\AppData\Local\Temp\ccU4UZIu.s 			page 1


   1              		.syntax unified
   2              		.cpu cortex-m3
   3              		.fpu softvfp
   4              		.eabi_attribute 20, 1
   5              		.eabi_attribute 21, 1
   6              		.eabi_attribute 23, 3
   7              		.eabi_attribute 24, 1
   8              		.eabi_attribute 25, 1
   9              		.eabi_attribute 26, 1
  10              		.eabi_attribute 30, 6
  11              		.eabi_attribute 34, 1
  12              		.eabi_attribute 18, 4
  13              		.thumb
  14              		.syntax unified
  15              		.file	"NSDSPI_CTRL_PM.c"
  16              		.text
  17              	.Ltext0:
  18              		.cfi_sections	.debug_frame
  19              		.bss
  20              		.align	2
  21              	NSDSPI_CTRL_backup:
  22 0000 00       		.space	1
  23              		.section	.text.NSDSPI_CTRL_SaveConfig,"ax",%progbits
  24              		.align	2
  25              		.global	NSDSPI_CTRL_SaveConfig
  26              		.thumb
  27              		.thumb_func
  28              		.type	NSDSPI_CTRL_SaveConfig, %function
  29              	NSDSPI_CTRL_SaveConfig:
  30              	.LFB0:
  31              		.file 1 "Generated_Source\\PSoC5\\NSDSPI_CTRL_PM.c"
   1:Generated_Source\PSoC5/NSDSPI_CTRL_PM.c **** /*******************************************************************************
   2:Generated_Source\PSoC5/NSDSPI_CTRL_PM.c **** * File Name: NSDSPI_CTRL_PM.c
   3:Generated_Source\PSoC5/NSDSPI_CTRL_PM.c **** * Version 1.80
   4:Generated_Source\PSoC5/NSDSPI_CTRL_PM.c **** *
   5:Generated_Source\PSoC5/NSDSPI_CTRL_PM.c **** * Description:
   6:Generated_Source\PSoC5/NSDSPI_CTRL_PM.c **** *  This file contains the setup, control, and status commands to support 
   7:Generated_Source\PSoC5/NSDSPI_CTRL_PM.c **** *  the component operation in the low power mode. 
   8:Generated_Source\PSoC5/NSDSPI_CTRL_PM.c **** *
   9:Generated_Source\PSoC5/NSDSPI_CTRL_PM.c **** * Note:
  10:Generated_Source\PSoC5/NSDSPI_CTRL_PM.c **** *
  11:Generated_Source\PSoC5/NSDSPI_CTRL_PM.c **** ********************************************************************************
  12:Generated_Source\PSoC5/NSDSPI_CTRL_PM.c **** * Copyright 2015, Cypress Semiconductor Corporation.  All rights reserved.
  13:Generated_Source\PSoC5/NSDSPI_CTRL_PM.c **** * You may use this file only in accordance with the license, terms, conditions, 
  14:Generated_Source\PSoC5/NSDSPI_CTRL_PM.c **** * disclaimers, and limitations in the end user license agreement accompanying 
  15:Generated_Source\PSoC5/NSDSPI_CTRL_PM.c **** * the software package with which this file was provided.
  16:Generated_Source\PSoC5/NSDSPI_CTRL_PM.c **** *******************************************************************************/
  17:Generated_Source\PSoC5/NSDSPI_CTRL_PM.c **** 
  18:Generated_Source\PSoC5/NSDSPI_CTRL_PM.c **** #include "NSDSPI_CTRL.h"
  19:Generated_Source\PSoC5/NSDSPI_CTRL_PM.c **** 
  20:Generated_Source\PSoC5/NSDSPI_CTRL_PM.c **** /* Check for removal by optimization */
  21:Generated_Source\PSoC5/NSDSPI_CTRL_PM.c **** #if !defined(NSDSPI_CTRL_Sync_ctrl_reg__REMOVED)
  22:Generated_Source\PSoC5/NSDSPI_CTRL_PM.c **** 
  23:Generated_Source\PSoC5/NSDSPI_CTRL_PM.c **** static NSDSPI_CTRL_BACKUP_STRUCT  NSDSPI_CTRL_backup = {0u};
  24:Generated_Source\PSoC5/NSDSPI_CTRL_PM.c **** 
  25:Generated_Source\PSoC5/NSDSPI_CTRL_PM.c ****     
  26:Generated_Source\PSoC5/NSDSPI_CTRL_PM.c **** /*******************************************************************************
ARM GAS  C:\Users\HPz420\AppData\Local\Temp\ccU4UZIu.s 			page 2


  27:Generated_Source\PSoC5/NSDSPI_CTRL_PM.c **** * Function Name: NSDSPI_CTRL_SaveConfig
  28:Generated_Source\PSoC5/NSDSPI_CTRL_PM.c **** ********************************************************************************
  29:Generated_Source\PSoC5/NSDSPI_CTRL_PM.c **** *
  30:Generated_Source\PSoC5/NSDSPI_CTRL_PM.c **** * Summary:
  31:Generated_Source\PSoC5/NSDSPI_CTRL_PM.c **** *  Saves the control register value.
  32:Generated_Source\PSoC5/NSDSPI_CTRL_PM.c **** *
  33:Generated_Source\PSoC5/NSDSPI_CTRL_PM.c **** * Parameters:
  34:Generated_Source\PSoC5/NSDSPI_CTRL_PM.c **** *  None
  35:Generated_Source\PSoC5/NSDSPI_CTRL_PM.c **** *
  36:Generated_Source\PSoC5/NSDSPI_CTRL_PM.c **** * Return:
  37:Generated_Source\PSoC5/NSDSPI_CTRL_PM.c **** *  None
  38:Generated_Source\PSoC5/NSDSPI_CTRL_PM.c **** *
  39:Generated_Source\PSoC5/NSDSPI_CTRL_PM.c **** *******************************************************************************/
  40:Generated_Source\PSoC5/NSDSPI_CTRL_PM.c **** void NSDSPI_CTRL_SaveConfig(void) 
  41:Generated_Source\PSoC5/NSDSPI_CTRL_PM.c **** {
  32              		.loc 1 41 0
  33              		.cfi_startproc
  34              		@ args = 0, pretend = 0, frame = 0
  35              		@ frame_needed = 1, uses_anonymous_args = 0
  36              		@ link register save eliminated.
  37 0000 80B4     		push	{r7}
  38              		.cfi_def_cfa_offset 4
  39              		.cfi_offset 7, -4
  40 0002 00AF     		add	r7, sp, #0
  41              		.cfi_def_cfa_register 7
  42:Generated_Source\PSoC5/NSDSPI_CTRL_PM.c ****     NSDSPI_CTRL_backup.controlState = NSDSPI_CTRL_Control;
  42              		.loc 1 42 0
  43 0004 044B     		ldr	r3, .L2
  44 0006 1B78     		ldrb	r3, [r3]
  45 0008 DAB2     		uxtb	r2, r3
  46 000a 044B     		ldr	r3, .L2+4
  47 000c 1A70     		strb	r2, [r3]
  43:Generated_Source\PSoC5/NSDSPI_CTRL_PM.c **** }
  48              		.loc 1 43 0
  49 000e 00BF     		nop
  50 0010 BD46     		mov	sp, r7
  51              		.cfi_def_cfa_register 13
  52              		@ sp needed
  53 0012 80BC     		pop	{r7}
  54              		.cfi_restore 7
  55              		.cfi_def_cfa_offset 0
  56 0014 7047     		bx	lr
  57              	.L3:
  58 0016 00BF     		.align	2
  59              	.L2:
  60 0018 7B640040 		.word	1073767547
  61 001c 00000000 		.word	NSDSPI_CTRL_backup
  62              		.cfi_endproc
  63              	.LFE0:
  64              		.size	NSDSPI_CTRL_SaveConfig, .-NSDSPI_CTRL_SaveConfig
  65              		.section	.text.NSDSPI_CTRL_RestoreConfig,"ax",%progbits
  66              		.align	2
  67              		.global	NSDSPI_CTRL_RestoreConfig
  68              		.thumb
  69              		.thumb_func
  70              		.type	NSDSPI_CTRL_RestoreConfig, %function
  71              	NSDSPI_CTRL_RestoreConfig:
ARM GAS  C:\Users\HPz420\AppData\Local\Temp\ccU4UZIu.s 			page 3


  72              	.LFB1:
  44:Generated_Source\PSoC5/NSDSPI_CTRL_PM.c **** 
  45:Generated_Source\PSoC5/NSDSPI_CTRL_PM.c **** 
  46:Generated_Source\PSoC5/NSDSPI_CTRL_PM.c **** /*******************************************************************************
  47:Generated_Source\PSoC5/NSDSPI_CTRL_PM.c **** * Function Name: NSDSPI_CTRL_RestoreConfig
  48:Generated_Source\PSoC5/NSDSPI_CTRL_PM.c **** ********************************************************************************
  49:Generated_Source\PSoC5/NSDSPI_CTRL_PM.c **** *
  50:Generated_Source\PSoC5/NSDSPI_CTRL_PM.c **** * Summary:
  51:Generated_Source\PSoC5/NSDSPI_CTRL_PM.c **** *  Restores the control register value.
  52:Generated_Source\PSoC5/NSDSPI_CTRL_PM.c **** *
  53:Generated_Source\PSoC5/NSDSPI_CTRL_PM.c **** * Parameters:
  54:Generated_Source\PSoC5/NSDSPI_CTRL_PM.c **** *  None
  55:Generated_Source\PSoC5/NSDSPI_CTRL_PM.c **** *
  56:Generated_Source\PSoC5/NSDSPI_CTRL_PM.c **** * Return:
  57:Generated_Source\PSoC5/NSDSPI_CTRL_PM.c **** *  None
  58:Generated_Source\PSoC5/NSDSPI_CTRL_PM.c **** *
  59:Generated_Source\PSoC5/NSDSPI_CTRL_PM.c **** *
  60:Generated_Source\PSoC5/NSDSPI_CTRL_PM.c **** *******************************************************************************/
  61:Generated_Source\PSoC5/NSDSPI_CTRL_PM.c **** void NSDSPI_CTRL_RestoreConfig(void) 
  62:Generated_Source\PSoC5/NSDSPI_CTRL_PM.c **** {
  73              		.loc 1 62 0
  74              		.cfi_startproc
  75              		@ args = 0, pretend = 0, frame = 0
  76              		@ frame_needed = 1, uses_anonymous_args = 0
  77              		@ link register save eliminated.
  78 0000 80B4     		push	{r7}
  79              		.cfi_def_cfa_offset 4
  80              		.cfi_offset 7, -4
  81 0002 00AF     		add	r7, sp, #0
  82              		.cfi_def_cfa_register 7
  63:Generated_Source\PSoC5/NSDSPI_CTRL_PM.c ****      NSDSPI_CTRL_Control = NSDSPI_CTRL_backup.controlState;
  83              		.loc 1 63 0
  84 0004 034B     		ldr	r3, .L5
  85 0006 044A     		ldr	r2, .L5+4
  86 0008 1278     		ldrb	r2, [r2]	@ zero_extendqisi2
  87 000a 1A70     		strb	r2, [r3]
  64:Generated_Source\PSoC5/NSDSPI_CTRL_PM.c **** }
  88              		.loc 1 64 0
  89 000c 00BF     		nop
  90 000e BD46     		mov	sp, r7
  91              		.cfi_def_cfa_register 13
  92              		@ sp needed
  93 0010 80BC     		pop	{r7}
  94              		.cfi_restore 7
  95              		.cfi_def_cfa_offset 0
  96 0012 7047     		bx	lr
  97              	.L6:
  98              		.align	2
  99              	.L5:
 100 0014 7B640040 		.word	1073767547
 101 0018 00000000 		.word	NSDSPI_CTRL_backup
 102              		.cfi_endproc
 103              	.LFE1:
 104              		.size	NSDSPI_CTRL_RestoreConfig, .-NSDSPI_CTRL_RestoreConfig
 105              		.section	.text.NSDSPI_CTRL_Sleep,"ax",%progbits
 106              		.align	2
 107              		.global	NSDSPI_CTRL_Sleep
ARM GAS  C:\Users\HPz420\AppData\Local\Temp\ccU4UZIu.s 			page 4


 108              		.thumb
 109              		.thumb_func
 110              		.type	NSDSPI_CTRL_Sleep, %function
 111              	NSDSPI_CTRL_Sleep:
 112              	.LFB2:
  65:Generated_Source\PSoC5/NSDSPI_CTRL_PM.c **** 
  66:Generated_Source\PSoC5/NSDSPI_CTRL_PM.c **** 
  67:Generated_Source\PSoC5/NSDSPI_CTRL_PM.c **** /*******************************************************************************
  68:Generated_Source\PSoC5/NSDSPI_CTRL_PM.c **** * Function Name: NSDSPI_CTRL_Sleep
  69:Generated_Source\PSoC5/NSDSPI_CTRL_PM.c **** ********************************************************************************
  70:Generated_Source\PSoC5/NSDSPI_CTRL_PM.c **** *
  71:Generated_Source\PSoC5/NSDSPI_CTRL_PM.c **** * Summary:
  72:Generated_Source\PSoC5/NSDSPI_CTRL_PM.c **** *  Prepares the component for entering the low power mode.
  73:Generated_Source\PSoC5/NSDSPI_CTRL_PM.c **** *
  74:Generated_Source\PSoC5/NSDSPI_CTRL_PM.c **** * Parameters:
  75:Generated_Source\PSoC5/NSDSPI_CTRL_PM.c **** *  None
  76:Generated_Source\PSoC5/NSDSPI_CTRL_PM.c **** *
  77:Generated_Source\PSoC5/NSDSPI_CTRL_PM.c **** * Return:
  78:Generated_Source\PSoC5/NSDSPI_CTRL_PM.c **** *  None
  79:Generated_Source\PSoC5/NSDSPI_CTRL_PM.c **** *
  80:Generated_Source\PSoC5/NSDSPI_CTRL_PM.c **** *******************************************************************************/
  81:Generated_Source\PSoC5/NSDSPI_CTRL_PM.c **** void NSDSPI_CTRL_Sleep(void) 
  82:Generated_Source\PSoC5/NSDSPI_CTRL_PM.c **** {
 113              		.loc 1 82 0
 114              		.cfi_startproc
 115              		@ args = 0, pretend = 0, frame = 0
 116              		@ frame_needed = 1, uses_anonymous_args = 0
 117 0000 80B5     		push	{r7, lr}
 118              		.cfi_def_cfa_offset 8
 119              		.cfi_offset 7, -8
 120              		.cfi_offset 14, -4
 121 0002 00AF     		add	r7, sp, #0
 122              		.cfi_def_cfa_register 7
  83:Generated_Source\PSoC5/NSDSPI_CTRL_PM.c ****     NSDSPI_CTRL_SaveConfig();
 123              		.loc 1 83 0
 124 0004 FFF7FEFF 		bl	NSDSPI_CTRL_SaveConfig
  84:Generated_Source\PSoC5/NSDSPI_CTRL_PM.c **** }
 125              		.loc 1 84 0
 126 0008 00BF     		nop
 127 000a 80BD     		pop	{r7, pc}
 128              		.cfi_endproc
 129              	.LFE2:
 130              		.size	NSDSPI_CTRL_Sleep, .-NSDSPI_CTRL_Sleep
 131              		.section	.text.NSDSPI_CTRL_Wakeup,"ax",%progbits
 132              		.align	2
 133              		.global	NSDSPI_CTRL_Wakeup
 134              		.thumb
 135              		.thumb_func
 136              		.type	NSDSPI_CTRL_Wakeup, %function
 137              	NSDSPI_CTRL_Wakeup:
 138              	.LFB3:
  85:Generated_Source\PSoC5/NSDSPI_CTRL_PM.c **** 
  86:Generated_Source\PSoC5/NSDSPI_CTRL_PM.c **** 
  87:Generated_Source\PSoC5/NSDSPI_CTRL_PM.c **** /*******************************************************************************
  88:Generated_Source\PSoC5/NSDSPI_CTRL_PM.c **** * Function Name: NSDSPI_CTRL_Wakeup
  89:Generated_Source\PSoC5/NSDSPI_CTRL_PM.c **** ********************************************************************************
  90:Generated_Source\PSoC5/NSDSPI_CTRL_PM.c **** *
ARM GAS  C:\Users\HPz420\AppData\Local\Temp\ccU4UZIu.s 			page 5


  91:Generated_Source\PSoC5/NSDSPI_CTRL_PM.c **** * Summary:
  92:Generated_Source\PSoC5/NSDSPI_CTRL_PM.c **** *  Restores the component after waking up from the low power mode.
  93:Generated_Source\PSoC5/NSDSPI_CTRL_PM.c **** *
  94:Generated_Source\PSoC5/NSDSPI_CTRL_PM.c **** * Parameters:
  95:Generated_Source\PSoC5/NSDSPI_CTRL_PM.c **** *  None
  96:Generated_Source\PSoC5/NSDSPI_CTRL_PM.c **** *
  97:Generated_Source\PSoC5/NSDSPI_CTRL_PM.c **** * Return:
  98:Generated_Source\PSoC5/NSDSPI_CTRL_PM.c **** *  None
  99:Generated_Source\PSoC5/NSDSPI_CTRL_PM.c **** *
 100:Generated_Source\PSoC5/NSDSPI_CTRL_PM.c **** *******************************************************************************/
 101:Generated_Source\PSoC5/NSDSPI_CTRL_PM.c **** void NSDSPI_CTRL_Wakeup(void)  
 102:Generated_Source\PSoC5/NSDSPI_CTRL_PM.c **** {
 139              		.loc 1 102 0
 140              		.cfi_startproc
 141              		@ args = 0, pretend = 0, frame = 0
 142              		@ frame_needed = 1, uses_anonymous_args = 0
 143 0000 80B5     		push	{r7, lr}
 144              		.cfi_def_cfa_offset 8
 145              		.cfi_offset 7, -8
 146              		.cfi_offset 14, -4
 147 0002 00AF     		add	r7, sp, #0
 148              		.cfi_def_cfa_register 7
 103:Generated_Source\PSoC5/NSDSPI_CTRL_PM.c ****     NSDSPI_CTRL_RestoreConfig();
 149              		.loc 1 103 0
 150 0004 FFF7FEFF 		bl	NSDSPI_CTRL_RestoreConfig
 104:Generated_Source\PSoC5/NSDSPI_CTRL_PM.c **** }
 151              		.loc 1 104 0
 152 0008 00BF     		nop
 153 000a 80BD     		pop	{r7, pc}
 154              		.cfi_endproc
 155              	.LFE3:
 156              		.size	NSDSPI_CTRL_Wakeup, .-NSDSPI_CTRL_Wakeup
 157              		.text
 158              	.Letext0:
 159              		.file 2 "Generated_Source\\PSoC5\\cytypes.h"
 160              		.file 3 "Generated_Source\\PSoC5\\NSDSPI_CTRL.h"