ARM GAS  C:\Users\HPz420\AppData\Local\Temp\ccz8Yfav.s 			page 1


   1              		.syntax unified
   2              		.cpu cortex-m3
   3              		.fpu softvfp
   4              		.eabi_attribute 20, 1
   5              		.eabi_attribute 21, 1
   6              		.eabi_attribute 23, 3
   7              		.eabi_attribute 24, 1
   8              		.eabi_attribute 25, 1
   9              		.eabi_attribute 26, 1
  10              		.eabi_attribute 30, 6
  11              		.eabi_attribute 34, 1
  12              		.eabi_attribute 18, 4
  13              		.thumb
  14              		.syntax unified
  15              		.file	"NSDSPI_funcs.c"
  16              		.text
  17              	.Ltext0:
  18              		.cfi_sections	.debug_frame
  19              		.comm	NSDSPI_bEnableDMA,1,1
  20              		.comm	NSDSPI_RX_Chan,1,1
  21              		.comm	NSDSPI_RX_TD,1,4
  22              		.comm	NSDSPI_TX_Chan,1,1
  23              		.comm	NSDSPI_TX_TD,1,4
  24              		.comm	NSDSPI_g_nTransferFlags,1,1
  25              		.comm	NSDSPI_g_nCtrlState,1,1
  26              		.section	.text.NSDSPI_RX_ISR,"ax",%progbits
  27              		.align	2
  28              		.global	NSDSPI_RX_ISR
  29              		.thumb
  30              		.thumb_func
  31              		.type	NSDSPI_RX_ISR, %function
  32              	NSDSPI_RX_ISR:
  33              	.LFB0:
  34              		.file 1 "Generated_Source\\PSoC5\\NSDSPI_funcs.c"
   1:Generated_Source\PSoC5/NSDSPI_funcs.c **** /* ========================================
   2:Generated_Source\PSoC5/NSDSPI_funcs.c ****  *
   3:Generated_Source\PSoC5/NSDSPI_funcs.c ****  * Copyright YOUR COMPANY, THE YEAR
   4:Generated_Source\PSoC5/NSDSPI_funcs.c ****  * All Rights Reserved
   5:Generated_Source\PSoC5/NSDSPI_funcs.c ****  * UNPUBLISHED, LICENSED SOFTWARE.
   6:Generated_Source\PSoC5/NSDSPI_funcs.c ****  *
   7:Generated_Source\PSoC5/NSDSPI_funcs.c ****  * CONFIDENTIAL AND PROPRIETARY INFORMATION
   8:Generated_Source\PSoC5/NSDSPI_funcs.c ****  * WHICH IS THE PROPERTY OF your company.
   9:Generated_Source\PSoC5/NSDSPI_funcs.c ****  *
  10:Generated_Source\PSoC5/NSDSPI_funcs.c ****  * ========================================
  11:Generated_Source\PSoC5/NSDSPI_funcs.c **** */
  12:Generated_Source\PSoC5/NSDSPI_funcs.c **** #include "NSDSPI_funcs.h"
  13:Generated_Source\PSoC5/NSDSPI_funcs.c **** #include "NSDSPI_LowLevelFileSys.h"
  14:Generated_Source\PSoC5/NSDSPI_funcs.c **** 
  15:Generated_Source\PSoC5/NSDSPI_funcs.c **** //Standard (non DMA receive) ISR
  16:Generated_Source\PSoC5/NSDSPI_funcs.c **** void NSDSPI_RX_ISR()
  17:Generated_Source\PSoC5/NSDSPI_funcs.c **** {
  35              		.loc 1 17 0
  36              		.cfi_startproc
  37              		@ args = 0, pretend = 0, frame = 0
  38              		@ frame_needed = 1, uses_anonymous_args = 0
  39 0000 80B5     		push	{r7, lr}
  40              		.cfi_def_cfa_offset 8
ARM GAS  C:\Users\HPz420\AppData\Local\Temp\ccz8Yfav.s 			page 2


  41              		.cfi_offset 7, -8
  42              		.cfi_offset 14, -4
  43 0002 00AF     		add	r7, sp, #0
  44              		.cfi_def_cfa_register 7
  18:Generated_Source\PSoC5/NSDSPI_funcs.c ****     NSDSPI_g_nTransferFlags &= ~NSDSPI_TRANSFER_WAIT_RXISR;
  45              		.loc 1 18 0
  46 0004 054B     		ldr	r3, .L2
  47 0006 1B78     		ldrb	r3, [r3]
  48 0008 DBB2     		uxtb	r3, r3
  49 000a 23F00103 		bic	r3, r3, #1
  50 000e DAB2     		uxtb	r2, r3
  51 0010 024B     		ldr	r3, .L2
  52 0012 1A70     		strb	r2, [r3]
  19:Generated_Source\PSoC5/NSDSPI_funcs.c ****     NSDSPI_RX_ISR_Disable();
  53              		.loc 1 19 0
  54 0014 FFF7FEFF 		bl	NSDSPI_RX_ISR_Disable
  20:Generated_Source\PSoC5/NSDSPI_funcs.c **** }
  55              		.loc 1 20 0
  56 0018 00BF     		nop
  57 001a 80BD     		pop	{r7, pc}
  58              	.L3:
  59              		.align	2
  60              	.L2:
  61 001c 00000000 		.word	NSDSPI_g_nTransferFlags
  62              		.cfi_endproc
  63              	.LFE0:
  64              		.size	NSDSPI_RX_ISR, .-NSDSPI_RX_ISR
  65              		.section	.text.NSDSPI_RX_DMA_ISR,"ax",%progbits
  66              		.align	2
  67              		.global	NSDSPI_RX_DMA_ISR
  68              		.thumb
  69              		.thumb_func
  70              		.type	NSDSPI_RX_DMA_ISR, %function
  71              	NSDSPI_RX_DMA_ISR:
  72              	.LFB1:
  21:Generated_Source\PSoC5/NSDSPI_funcs.c **** 
  22:Generated_Source\PSoC5/NSDSPI_funcs.c **** //DMA termination ISRs
  23:Generated_Source\PSoC5/NSDSPI_funcs.c **** void NSDSPI_RX_DMA_ISR()
  24:Generated_Source\PSoC5/NSDSPI_funcs.c **** {   NSDSPI_g_nTransferFlags &= ~NSDSPI_TRANSFER_WAIT_RXDMAISR;}
  73              		.loc 1 24 0
  74              		.cfi_startproc
  75              		@ args = 0, pretend = 0, frame = 0
  76              		@ frame_needed = 1, uses_anonymous_args = 0
  77              		@ link register save eliminated.
  78 0000 80B4     		push	{r7}
  79              		.cfi_def_cfa_offset 4
  80              		.cfi_offset 7, -4
  81 0002 00AF     		add	r7, sp, #0
  82              		.cfi_def_cfa_register 7
  83              		.loc 1 24 0
  84 0004 054B     		ldr	r3, .L5
  85 0006 1B78     		ldrb	r3, [r3]
  86 0008 DBB2     		uxtb	r3, r3
  87 000a 23F00203 		bic	r3, r3, #2
  88 000e DAB2     		uxtb	r2, r3
  89 0010 024B     		ldr	r3, .L5
  90 0012 1A70     		strb	r2, [r3]
ARM GAS  C:\Users\HPz420\AppData\Local\Temp\ccz8Yfav.s 			page 3


  91 0014 00BF     		nop
  92 0016 BD46     		mov	sp, r7
  93              		.cfi_def_cfa_register 13
  94              		@ sp needed
  95 0018 80BC     		pop	{r7}
  96              		.cfi_restore 7
  97              		.cfi_def_cfa_offset 0
  98 001a 7047     		bx	lr
  99              	.L6:
 100              		.align	2
 101              	.L5:
 102 001c 00000000 		.word	NSDSPI_g_nTransferFlags
 103              		.cfi_endproc
 104              	.LFE1:
 105              		.size	NSDSPI_RX_DMA_ISR, .-NSDSPI_RX_DMA_ISR
 106              		.section	.text.NSDSPI_TX_DMA_ISR,"ax",%progbits
 107              		.align	2
 108              		.global	NSDSPI_TX_DMA_ISR
 109              		.thumb
 110              		.thumb_func
 111              		.type	NSDSPI_TX_DMA_ISR, %function
 112              	NSDSPI_TX_DMA_ISR:
 113              	.LFB2:
  25:Generated_Source\PSoC5/NSDSPI_funcs.c **** 
  26:Generated_Source\PSoC5/NSDSPI_funcs.c **** void NSDSPI_TX_DMA_ISR()
  27:Generated_Source\PSoC5/NSDSPI_funcs.c **** {   NSDSPI_g_nTransferFlags &= ~NSDSPI_TRANSFER_WAIT_TXDMAISR;}
 114              		.loc 1 27 0
 115              		.cfi_startproc
 116              		@ args = 0, pretend = 0, frame = 0
 117              		@ frame_needed = 1, uses_anonymous_args = 0
 118              		@ link register save eliminated.
 119 0000 80B4     		push	{r7}
 120              		.cfi_def_cfa_offset 4
 121              		.cfi_offset 7, -4
 122 0002 00AF     		add	r7, sp, #0
 123              		.cfi_def_cfa_register 7
 124              		.loc 1 27 0
 125 0004 054B     		ldr	r3, .L8
 126 0006 1B78     		ldrb	r3, [r3]
 127 0008 DBB2     		uxtb	r3, r3
 128 000a 23F00403 		bic	r3, r3, #4
 129 000e DAB2     		uxtb	r2, r3
 130 0010 024B     		ldr	r3, .L8
 131 0012 1A70     		strb	r2, [r3]
 132 0014 00BF     		nop
 133 0016 BD46     		mov	sp, r7
 134              		.cfi_def_cfa_register 13
 135              		@ sp needed
 136 0018 80BC     		pop	{r7}
 137              		.cfi_restore 7
 138              		.cfi_def_cfa_offset 0
 139 001a 7047     		bx	lr
 140              	.L9:
 141              		.align	2
 142              	.L8:
 143 001c 00000000 		.word	NSDSPI_g_nTransferFlags
 144              		.cfi_endproc
ARM GAS  C:\Users\HPz420\AppData\Local\Temp\ccz8Yfav.s 			page 4


 145              	.LFE2:
 146              		.size	NSDSPI_TX_DMA_ISR, .-NSDSPI_TX_DMA_ISR
 147              		.section	.text.NSDSPI_Start,"ax",%progbits
 148              		.align	2
 149              		.global	NSDSPI_Start
 150              		.thumb
 151              		.thumb_func
 152              		.type	NSDSPI_Start, %function
 153              	NSDSPI_Start:
 154              	.LFB3:
  28:Generated_Source\PSoC5/NSDSPI_funcs.c **** 
  29:Generated_Source\PSoC5/NSDSPI_funcs.c **** 
  30:Generated_Source\PSoC5/NSDSPI_funcs.c **** void NSDSPI_Start(NSDSPI_VOIDFXN FnSelSlowCk, NSDSPI_VOIDFXN FnSelFastCk, NSDSPI_PRNTFXN FnPrint)
  31:Generated_Source\PSoC5/NSDSPI_funcs.c **** {
 155              		.loc 1 31 0
 156              		.cfi_startproc
 157              		@ args = 0, pretend = 0, frame = 56
 158              		@ frame_needed = 1, uses_anonymous_args = 0
 159 0000 80B5     		push	{r7, lr}
 160              		.cfi_def_cfa_offset 8
 161              		.cfi_offset 7, -8
 162              		.cfi_offset 14, -4
 163 0002 8EB0     		sub	sp, sp, #56
 164              		.cfi_def_cfa_offset 64
 165 0004 00AF     		add	r7, sp, #0
 166              		.cfi_def_cfa_register 7
 167 0006 F860     		str	r0, [r7, #12]
 168 0008 B960     		str	r1, [r7, #8]
 169 000a 7A60     		str	r2, [r7, #4]
  32:Generated_Source\PSoC5/NSDSPI_funcs.c ****     NSDSPI_bEnableDMA = 0;
 170              		.loc 1 32 0
 171 000c 0F4B     		ldr	r3, .L11
 172 000e 0022     		movs	r2, #0
 173 0010 1A70     		strb	r2, [r3]
  33:Generated_Source\PSoC5/NSDSPI_funcs.c ****     SPI_FUNCTIONS SpiFuncs;
  34:Generated_Source\PSoC5/NSDSPI_funcs.c ****     SpiFuncs.SPSTART = NSDSPI_StartInterface;
 174              		.loc 1 34 0
 175 0012 0F4B     		ldr	r3, .L11+4
 176 0014 3B62     		str	r3, [r7, #32]
  35:Generated_Source\PSoC5/NSDSPI_funcs.c ****     SpiFuncs.SPSTOP = NSDSPI_Stop;
 177              		.loc 1 35 0
 178 0016 0F4B     		ldr	r3, .L11+8
 179 0018 7B62     		str	r3, [r7, #36]
  36:Generated_Source\PSoC5/NSDSPI_funcs.c ****     SpiFuncs.SPRXSTREAM = NSDSPI_ReceiveData;
 180              		.loc 1 36 0
 181 001a 0F4B     		ldr	r3, .L11+12
 182 001c FB62     		str	r3, [r7, #44]
  37:Generated_Source\PSoC5/NSDSPI_funcs.c ****     SpiFuncs.SPTXSTREAM = NSDSPI_SendData;
 183              		.loc 1 37 0
 184 001e 0F4B     		ldr	r3, .L11+16
 185 0020 3B63     		str	r3, [r7, #48]
  38:Generated_Source\PSoC5/NSDSPI_funcs.c ****     SpiFuncs.SPEXCHANGE = NSDSPI_SwapByte;
 186              		.loc 1 38 0
 187 0022 0F4B     		ldr	r3, .L11+20
 188 0024 BB62     		str	r3, [r7, #40]
  39:Generated_Source\PSoC5/NSDSPI_funcs.c ****     SpiFuncs.SPSELECTCARD = NSDSPI_SelectCard;
 189              		.loc 1 39 0
ARM GAS  C:\Users\HPz420\AppData\Local\Temp\ccz8Yfav.s 			page 5


 190 0026 0F4B     		ldr	r3, .L11+24
 191 0028 3B61     		str	r3, [r7, #16]
  40:Generated_Source\PSoC5/NSDSPI_funcs.c ****     SpiFuncs.SPDESELECTCARD = NSDSPI_DeselectCard;
 192              		.loc 1 40 0
 193 002a 0F4B     		ldr	r3, .L11+28
 194 002c 7B61     		str	r3, [r7, #20]
  41:Generated_Source\PSoC5/NSDSPI_funcs.c ****     SpiFuncs.SPFASTCK = FnSelFastCk;
 195              		.loc 1 41 0
 196 002e BB68     		ldr	r3, [r7, #8]
 197 0030 FB61     		str	r3, [r7, #28]
  42:Generated_Source\PSoC5/NSDSPI_funcs.c ****     SpiFuncs.SPSLOWCK = FnSelSlowCk;
 198              		.loc 1 42 0
 199 0032 FB68     		ldr	r3, [r7, #12]
 200 0034 BB61     		str	r3, [r7, #24]
  43:Generated_Source\PSoC5/NSDSPI_funcs.c **** 
  44:Generated_Source\PSoC5/NSDSPI_funcs.c ****     SpiFuncs.PRINT = FnPrint;
 201              		.loc 1 44 0
 202 0036 7B68     		ldr	r3, [r7, #4]
 203 0038 7B63     		str	r3, [r7, #52]
  45:Generated_Source\PSoC5/NSDSPI_funcs.c ****     disk_attach_spifuncs(&SpiFuncs);   
 204              		.loc 1 45 0
 205 003a 07F11003 		add	r3, r7, #16
 206 003e 1846     		mov	r0, r3
 207 0040 FFF7FEFF 		bl	disk_attach_spifuncs
  46:Generated_Source\PSoC5/NSDSPI_funcs.c **** }
 208              		.loc 1 46 0
 209 0044 00BF     		nop
 210 0046 3837     		adds	r7, r7, #56
 211              		.cfi_def_cfa_offset 8
 212 0048 BD46     		mov	sp, r7
 213              		.cfi_def_cfa_register 13
 214              		@ sp needed
 215 004a 80BD     		pop	{r7, pc}
 216              	.L12:
 217              		.align	2
 218              	.L11:
 219 004c 00000000 		.word	NSDSPI_bEnableDMA
 220 0050 00000000 		.word	NSDSPI_StartInterface
 221 0054 00000000 		.word	NSDSPI_Stop
 222 0058 00000000 		.word	NSDSPI_ReceiveData
 223 005c 00000000 		.word	NSDSPI_SendData
 224 0060 00000000 		.word	NSDSPI_SwapByte
 225 0064 00000000 		.word	NSDSPI_SelectCard
 226 0068 00000000 		.word	NSDSPI_DeselectCard
 227              		.cfi_endproc
 228              	.LFE3:
 229              		.size	NSDSPI_Start, .-NSDSPI_Start
 230              		.section	.text.NSDSPI_StartInterface,"ax",%progbits
 231              		.align	2
 232              		.global	NSDSPI_StartInterface
 233              		.thumb
 234              		.thumb_func
 235              		.type	NSDSPI_StartInterface, %function
 236              	NSDSPI_StartInterface:
 237              	.LFB4:
  47:Generated_Source\PSoC5/NSDSPI_funcs.c **** 
  48:Generated_Source\PSoC5/NSDSPI_funcs.c **** 
ARM GAS  C:\Users\HPz420\AppData\Local\Temp\ccz8Yfav.s 			page 6


  49:Generated_Source\PSoC5/NSDSPI_funcs.c **** //initialise component, attach ISRs, etc.
  50:Generated_Source\PSoC5/NSDSPI_funcs.c **** void NSDSPI_StartInterface(void)
  51:Generated_Source\PSoC5/NSDSPI_funcs.c **** {  
 238              		.loc 1 51 0
 239              		.cfi_startproc
 240              		@ args = 0, pretend = 0, frame = 0
 241              		@ frame_needed = 1, uses_anonymous_args = 0
 242 0000 80B5     		push	{r7, lr}
 243              		.cfi_def_cfa_offset 8
 244              		.cfi_offset 7, -8
 245              		.cfi_offset 14, -4
 246 0002 00AF     		add	r7, sp, #0
 247              		.cfi_def_cfa_register 7
  52:Generated_Source\PSoC5/NSDSPI_funcs.c ****     NSDSPI_UDB_BIT_COUNTER_Start();
 248              		.loc 1 52 0
 249 0004 FFF7FEFF 		bl	NSDSPI_UDB_BIT_COUNTER_Start
  53:Generated_Source\PSoC5/NSDSPI_funcs.c ****     NSDSPI_g_nTransferFlags = 0;
 250              		.loc 1 53 0
 251 0008 294B     		ldr	r3, .L14
 252 000a 0022     		movs	r2, #0
 253 000c 1A70     		strb	r2, [r3]
  54:Generated_Source\PSoC5/NSDSPI_funcs.c ****     NSDSPI_g_nCtrlState = 1;
 254              		.loc 1 54 0
 255 000e 294B     		ldr	r3, .L14+4
 256 0010 0122     		movs	r2, #1
 257 0012 1A70     		strb	r2, [r3]
  55:Generated_Source\PSoC5/NSDSPI_funcs.c ****     NSDSPI_CTRL_Write(0x05);      //reset pulse to make sure bulk receive isn't active
 258              		.loc 1 55 0
 259 0014 0520     		movs	r0, #5
 260 0016 FFF7FEFF 		bl	NSDSPI_CTRL_Write
  56:Generated_Source\PSoC5/NSDSPI_funcs.c ****     NSDSPI_UDB_SPI_DPTH_F0_CLEAR;
 261              		.loc 1 56 0
 262 001a 274A     		ldr	r2, .L14+8
 263 001c 264B     		ldr	r3, .L14+8
 264 001e 1B78     		ldrb	r3, [r3]
 265 0020 DBB2     		uxtb	r3, r3
 266 0022 43F00103 		orr	r3, r3, #1
 267 0026 DBB2     		uxtb	r3, r3
 268 0028 1370     		strb	r3, [r2]
 269 002a 234A     		ldr	r2, .L14+8
 270 002c 224B     		ldr	r3, .L14+8
 271 002e 1B78     		ldrb	r3, [r3]
 272 0030 DBB2     		uxtb	r3, r3
 273 0032 23F00103 		bic	r3, r3, #1
 274 0036 DBB2     		uxtb	r3, r3
 275 0038 1370     		strb	r3, [r2]
  57:Generated_Source\PSoC5/NSDSPI_funcs.c ****     NSDSPI_UDB_SPI_DPTH_F1_CLEAR;     //clear FIFO buffers
 276              		.loc 1 57 0
 277 003a 1F4A     		ldr	r2, .L14+8
 278 003c 1E4B     		ldr	r3, .L14+8
 279 003e 1B78     		ldrb	r3, [r3]
 280 0040 DBB2     		uxtb	r3, r3
 281 0042 43F00203 		orr	r3, r3, #2
 282 0046 DBB2     		uxtb	r3, r3
 283 0048 1370     		strb	r3, [r2]
 284 004a 1B4A     		ldr	r2, .L14+8
 285 004c 1A4B     		ldr	r3, .L14+8
ARM GAS  C:\Users\HPz420\AppData\Local\Temp\ccz8Yfav.s 			page 7


 286 004e 1B78     		ldrb	r3, [r3]
 287 0050 DBB2     		uxtb	r3, r3
 288 0052 23F00203 		bic	r3, r3, #2
 289 0056 DBB2     		uxtb	r3, r3
 290 0058 1370     		strb	r3, [r2]
  58:Generated_Source\PSoC5/NSDSPI_funcs.c ****     NSDSPI_RX_BYTE_COUNTER_Start();
 291              		.loc 1 58 0
 292 005a FFF7FEFF 		bl	NSDSPI_RX_BYTE_COUNTER_Start
  59:Generated_Source\PSoC5/NSDSPI_funcs.c ****     
  60:Generated_Source\PSoC5/NSDSPI_funcs.c ****     NSDSPI_RX_ISR_StartEx(NSDSPI_RX_ISR);
 293              		.loc 1 60 0
 294 005e 1748     		ldr	r0, .L14+12
 295 0060 FFF7FEFF 		bl	NSDSPI_RX_ISR_StartEx
  61:Generated_Source\PSoC5/NSDSPI_funcs.c ****     
  62:Generated_Source\PSoC5/NSDSPI_funcs.c ****     NSDSPI_UDB_SPI_DPTH_F0_CLEAR;
 296              		.loc 1 62 0
 297 0064 144A     		ldr	r2, .L14+8
 298 0066 144B     		ldr	r3, .L14+8
 299 0068 1B78     		ldrb	r3, [r3]
 300 006a DBB2     		uxtb	r3, r3
 301 006c 43F00103 		orr	r3, r3, #1
 302 0070 DBB2     		uxtb	r3, r3
 303 0072 1370     		strb	r3, [r2]
 304 0074 104A     		ldr	r2, .L14+8
 305 0076 104B     		ldr	r3, .L14+8
 306 0078 1B78     		ldrb	r3, [r3]
 307 007a DBB2     		uxtb	r3, r3
 308 007c 23F00103 		bic	r3, r3, #1
 309 0080 DBB2     		uxtb	r3, r3
 310 0082 1370     		strb	r3, [r2]
  63:Generated_Source\PSoC5/NSDSPI_funcs.c ****     NSDSPI_UDB_SPI_DPTH_F1_CLEAR;     //clear FIFO buffers
 311              		.loc 1 63 0
 312 0084 0C4A     		ldr	r2, .L14+8
 313 0086 0C4B     		ldr	r3, .L14+8
 314 0088 1B78     		ldrb	r3, [r3]
 315 008a DBB2     		uxtb	r3, r3
 316 008c 43F00203 		orr	r3, r3, #2
 317 0090 DBB2     		uxtb	r3, r3
 318 0092 1370     		strb	r3, [r2]
 319 0094 084A     		ldr	r2, .L14+8
 320 0096 084B     		ldr	r3, .L14+8
 321 0098 1B78     		ldrb	r3, [r3]
 322 009a DBB2     		uxtb	r3, r3
 323 009c 23F00203 		bic	r3, r3, #2
 324 00a0 DBB2     		uxtb	r3, r3
 325 00a2 1370     		strb	r3, [r2]
  64:Generated_Source\PSoC5/NSDSPI_funcs.c **** 
  65:Generated_Source\PSoC5/NSDSPI_funcs.c ****     NSDSPI_SetDMAMode(1);
 326              		.loc 1 65 0
 327 00a4 0120     		movs	r0, #1
 328 00a6 FFF7FEFF 		bl	NSDSPI_SetDMAMode
  66:Generated_Source\PSoC5/NSDSPI_funcs.c **** }
 329              		.loc 1 66 0
 330 00aa 00BF     		nop
 331 00ac 80BD     		pop	{r7, pc}
 332              	.L15:
 333 00ae 00BF     		.align	2
ARM GAS  C:\Users\HPz420\AppData\Local\Temp\ccz8Yfav.s 			page 8


 334              	.L14:
 335 00b0 00000000 		.word	NSDSPI_g_nTransferFlags
 336 00b4 00000000 		.word	NSDSPI_g_nCtrlState
 337 00b8 9C640040 		.word	1073767580
 338 00bc 00000000 		.word	NSDSPI_RX_ISR
 339              		.cfi_endproc
 340              	.LFE4:
 341              		.size	NSDSPI_StartInterface, .-NSDSPI_StartInterface
 342              		.section	.text.NSDSPI_Stop,"ax",%progbits
 343              		.align	2
 344              		.global	NSDSPI_Stop
 345              		.thumb
 346              		.thumb_func
 347              		.type	NSDSPI_Stop, %function
 348              	NSDSPI_Stop:
 349              	.LFB5:
  67:Generated_Source\PSoC5/NSDSPI_funcs.c **** 
  68:Generated_Source\PSoC5/NSDSPI_funcs.c **** 
  69:Generated_Source\PSoC5/NSDSPI_funcs.c **** 
  70:Generated_Source\PSoC5/NSDSPI_funcs.c **** void NSDSPI_Stop()
  71:Generated_Source\PSoC5/NSDSPI_funcs.c **** {
 350              		.loc 1 71 0
 351              		.cfi_startproc
 352              		@ args = 0, pretend = 0, frame = 0
 353              		@ frame_needed = 1, uses_anonymous_args = 0
 354 0000 80B5     		push	{r7, lr}
 355              		.cfi_def_cfa_offset 8
 356              		.cfi_offset 7, -8
 357              		.cfi_offset 14, -4
 358 0002 00AF     		add	r7, sp, #0
 359              		.cfi_def_cfa_register 7
  72:Generated_Source\PSoC5/NSDSPI_funcs.c ****     if(NSDSPI_bEnableDMA)
 360              		.loc 1 72 0
 361 0004 0A4B     		ldr	r3, .L18
 362 0006 1B78     		ldrb	r3, [r3]	@ zero_extendqisi2
 363 0008 002B     		cmp	r3, #0
 364 000a 07D0     		beq	.L17
  73:Generated_Source\PSoC5/NSDSPI_funcs.c ****     {
  74:Generated_Source\PSoC5/NSDSPI_funcs.c ****         NSDSPI_RX_DMA_ISR_Stop();
 365              		.loc 1 74 0
 366 000c FFF7FEFF 		bl	NSDSPI_RX_DMA_ISR_Stop
  75:Generated_Source\PSoC5/NSDSPI_funcs.c ****         NSDSPI_TX_DMA_ISR_Stop();
 367              		.loc 1 75 0
 368 0010 FFF7FEFF 		bl	NSDSPI_TX_DMA_ISR_Stop
  76:Generated_Source\PSoC5/NSDSPI_funcs.c ****         NSDSPI_RX_DmaRelease();
 369              		.loc 1 76 0
 370 0014 FFF7FEFF 		bl	NSDSPI_RX_DmaRelease
  77:Generated_Source\PSoC5/NSDSPI_funcs.c ****         NSDSPI_TX_DmaRelease();
 371              		.loc 1 77 0
 372 0018 FFF7FEFF 		bl	NSDSPI_TX_DmaRelease
 373              	.L17:
  78:Generated_Source\PSoC5/NSDSPI_funcs.c ****     }
  79:Generated_Source\PSoC5/NSDSPI_funcs.c ****     NSDSPI_DeselectCard();
 374              		.loc 1 79 0
 375 001c FFF7FEFF 		bl	NSDSPI_DeselectCard
  80:Generated_Source\PSoC5/NSDSPI_funcs.c ****     NSDSPI_RX_ISR_Stop();    
 376              		.loc 1 80 0
ARM GAS  C:\Users\HPz420\AppData\Local\Temp\ccz8Yfav.s 			page 9


 377 0020 FFF7FEFF 		bl	NSDSPI_RX_ISR_Stop
  81:Generated_Source\PSoC5/NSDSPI_funcs.c ****     NSDSPI_RX_BYTE_COUNTER_Stop();
 378              		.loc 1 81 0
 379 0024 FFF7FEFF 		bl	NSDSPI_RX_BYTE_COUNTER_Stop
  82:Generated_Source\PSoC5/NSDSPI_funcs.c ****     NSDSPI_UDB_BIT_COUNTER_Stop();
 380              		.loc 1 82 0
 381 0028 FFF7FEFF 		bl	NSDSPI_UDB_BIT_COUNTER_Stop
  83:Generated_Source\PSoC5/NSDSPI_funcs.c **** }
 382              		.loc 1 83 0
 383 002c 00BF     		nop
 384 002e 80BD     		pop	{r7, pc}
 385              	.L19:
 386              		.align	2
 387              	.L18:
 388 0030 00000000 		.word	NSDSPI_bEnableDMA
 389              		.cfi_endproc
 390              	.LFE5:
 391              		.size	NSDSPI_Stop, .-NSDSPI_Stop
 392              		.section	.text.NSDSPI_SelectCard,"ax",%progbits
 393              		.align	2
 394              		.global	NSDSPI_SelectCard
 395              		.thumb
 396              		.thumb_func
 397              		.type	NSDSPI_SelectCard, %function
 398              	NSDSPI_SelectCard:
 399              	.LFB6:
  84:Generated_Source\PSoC5/NSDSPI_funcs.c **** 
  85:Generated_Source\PSoC5/NSDSPI_funcs.c **** 
  86:Generated_Source\PSoC5/NSDSPI_funcs.c **** void NSDSPI_SelectCard()
  87:Generated_Source\PSoC5/NSDSPI_funcs.c **** {
 400              		.loc 1 87 0
 401              		.cfi_startproc
 402              		@ args = 0, pretend = 0, frame = 0
 403              		@ frame_needed = 1, uses_anonymous_args = 0
 404 0000 80B5     		push	{r7, lr}
 405              		.cfi_def_cfa_offset 8
 406              		.cfi_offset 7, -8
 407              		.cfi_offset 14, -4
 408 0002 00AF     		add	r7, sp, #0
 409              		.cfi_def_cfa_register 7
  88:Generated_Source\PSoC5/NSDSPI_funcs.c ****     NSDSPI_g_nCtrlState &= ~0x01;
 410              		.loc 1 88 0
 411 0004 074B     		ldr	r3, .L21
 412 0006 1B78     		ldrb	r3, [r3]
 413 0008 DBB2     		uxtb	r3, r3
 414 000a 23F00103 		bic	r3, r3, #1
 415 000e DAB2     		uxtb	r2, r3
 416 0010 044B     		ldr	r3, .L21
 417 0012 1A70     		strb	r2, [r3]
  89:Generated_Source\PSoC5/NSDSPI_funcs.c ****     NSDSPI_CTRL_Write(NSDSPI_g_nCtrlState);
 418              		.loc 1 89 0
 419 0014 034B     		ldr	r3, .L21
 420 0016 1B78     		ldrb	r3, [r3]
 421 0018 DBB2     		uxtb	r3, r3
 422 001a 1846     		mov	r0, r3
 423 001c FFF7FEFF 		bl	NSDSPI_CTRL_Write
  90:Generated_Source\PSoC5/NSDSPI_funcs.c **** }
ARM GAS  C:\Users\HPz420\AppData\Local\Temp\ccz8Yfav.s 			page 10


 424              		.loc 1 90 0
 425 0020 00BF     		nop
 426 0022 80BD     		pop	{r7, pc}
 427              	.L22:
 428              		.align	2
 429              	.L21:
 430 0024 00000000 		.word	NSDSPI_g_nCtrlState
 431              		.cfi_endproc
 432              	.LFE6:
 433              		.size	NSDSPI_SelectCard, .-NSDSPI_SelectCard
 434              		.section	.text.NSDSPI_DeselectCard,"ax",%progbits
 435              		.align	2
 436              		.global	NSDSPI_DeselectCard
 437              		.thumb
 438              		.thumb_func
 439              		.type	NSDSPI_DeselectCard, %function
 440              	NSDSPI_DeselectCard:
 441              	.LFB7:
  91:Generated_Source\PSoC5/NSDSPI_funcs.c **** 
  92:Generated_Source\PSoC5/NSDSPI_funcs.c **** void NSDSPI_DeselectCard()
  93:Generated_Source\PSoC5/NSDSPI_funcs.c **** {
 442              		.loc 1 93 0
 443              		.cfi_startproc
 444              		@ args = 0, pretend = 0, frame = 0
 445              		@ frame_needed = 1, uses_anonymous_args = 0
 446 0000 80B5     		push	{r7, lr}
 447              		.cfi_def_cfa_offset 8
 448              		.cfi_offset 7, -8
 449              		.cfi_offset 14, -4
 450 0002 00AF     		add	r7, sp, #0
 451              		.cfi_def_cfa_register 7
  94:Generated_Source\PSoC5/NSDSPI_funcs.c ****     NSDSPI_g_nCtrlState |= 0x01;
 452              		.loc 1 94 0
 453 0004 074B     		ldr	r3, .L24
 454 0006 1B78     		ldrb	r3, [r3]
 455 0008 DBB2     		uxtb	r3, r3
 456 000a 43F00103 		orr	r3, r3, #1
 457 000e DAB2     		uxtb	r2, r3
 458 0010 044B     		ldr	r3, .L24
 459 0012 1A70     		strb	r2, [r3]
  95:Generated_Source\PSoC5/NSDSPI_funcs.c ****     NSDSPI_CTRL_Write(NSDSPI_g_nCtrlState);
 460              		.loc 1 95 0
 461 0014 034B     		ldr	r3, .L24
 462 0016 1B78     		ldrb	r3, [r3]
 463 0018 DBB2     		uxtb	r3, r3
 464 001a 1846     		mov	r0, r3
 465 001c FFF7FEFF 		bl	NSDSPI_CTRL_Write
  96:Generated_Source\PSoC5/NSDSPI_funcs.c **** }
 466              		.loc 1 96 0
 467 0020 00BF     		nop
 468 0022 80BD     		pop	{r7, pc}
 469              	.L25:
 470              		.align	2
 471              	.L24:
 472 0024 00000000 		.word	NSDSPI_g_nCtrlState
 473              		.cfi_endproc
 474              	.LFE7:
ARM GAS  C:\Users\HPz420\AppData\Local\Temp\ccz8Yfav.s 			page 11


 475              		.size	NSDSPI_DeselectCard, .-NSDSPI_DeselectCard
 476              		.section	.text.NSDSPI_SendData,"ax",%progbits
 477              		.align	2
 478              		.global	NSDSPI_SendData
 479              		.thumb
 480              		.thumb_func
 481              		.type	NSDSPI_SendData, %function
 482              	NSDSPI_SendData:
 483              	.LFB8:
  97:Generated_Source\PSoC5/NSDSPI_funcs.c **** 
  98:Generated_Source\PSoC5/NSDSPI_funcs.c **** //Send a block of data and discard received bytes.
  99:Generated_Source\PSoC5/NSDSPI_funcs.c **** void NSDSPI_SendData(unsigned char* pBuffer, unsigned int nLength)
 100:Generated_Source\PSoC5/NSDSPI_funcs.c **** {
 484              		.loc 1 100 0
 485              		.cfi_startproc
 486              		@ args = 0, pretend = 0, frame = 16
 487              		@ frame_needed = 1, uses_anonymous_args = 0
 488 0000 80B5     		push	{r7, lr}
 489              		.cfi_def_cfa_offset 8
 490              		.cfi_offset 7, -8
 491              		.cfi_offset 14, -4
 492 0002 84B0     		sub	sp, sp, #16
 493              		.cfi_def_cfa_offset 24
 494 0004 00AF     		add	r7, sp, #0
 495              		.cfi_def_cfa_register 7
 496 0006 7860     		str	r0, [r7, #4]
 497 0008 3960     		str	r1, [r7]
 101:Generated_Source\PSoC5/NSDSPI_funcs.c ****     if((nLength > 4095)||(nLength < 1))
 498              		.loc 1 101 0
 499 000a 3B68     		ldr	r3, [r7]
 500 000c B3F5805F 		cmp	r3, #4096
 501 0010 70D2     		bcs	.L34
 502              		.loc 1 101 0 is_stmt 0 discriminator 1
 503 0012 3B68     		ldr	r3, [r7]
 504 0014 002B     		cmp	r3, #0
 505 0016 6DD0     		beq	.L34
 102:Generated_Source\PSoC5/NSDSPI_funcs.c ****         return; //this never happens - filesys transfers max. 512 bytes at a time
 103:Generated_Source\PSoC5/NSDSPI_funcs.c ****     if(NSDSPI_bEnableDMA)
 506              		.loc 1 103 0 is_stmt 1
 507 0018 384B     		ldr	r3, .L35
 508 001a 1B78     		ldrb	r3, [r3]	@ zero_extendqisi2
 509 001c 002B     		cmp	r3, #0
 510 001e 57D0     		beq	.L30
 104:Generated_Source\PSoC5/NSDSPI_funcs.c ****     {
 105:Generated_Source\PSoC5/NSDSPI_funcs.c ****         //Fast (DMA) implementation...
 106:Generated_Source\PSoC5/NSDSPI_funcs.c ****         
 107:Generated_Source\PSoC5/NSDSPI_funcs.c ****         NSDSPI_TX_TD[0] = CyDmaTdAllocate();
 511              		.loc 1 107 0
 512 0020 FFF7FEFF 		bl	CyDmaTdAllocate
 513 0024 0346     		mov	r3, r0
 514 0026 1A46     		mov	r2, r3
 515 0028 354B     		ldr	r3, .L35+4
 516 002a 1A70     		strb	r2, [r3]
 108:Generated_Source\PSoC5/NSDSPI_funcs.c ****         CyDmaTdSetConfiguration(NSDSPI_TX_TD[0], nLength, CY_DMA_DISABLE_TD, NSDSPI_TX__TD_TERMOUT_
 517              		.loc 1 108 0
 518 002c 344B     		ldr	r3, .L35+4
 519 002e 1878     		ldrb	r0, [r3]	@ zero_extendqisi2
ARM GAS  C:\Users\HPz420\AppData\Local\Temp\ccz8Yfav.s 			page 12


 520 0030 3B68     		ldr	r3, [r7]
 521 0032 99B2     		uxth	r1, r3
 522 0034 0523     		movs	r3, #5
 523 0036 FE22     		movs	r2, #254
 524 0038 FFF7FEFF 		bl	CyDmaTdSetConfiguration
 109:Generated_Source\PSoC5/NSDSPI_funcs.c ****         CyDmaTdSetAddress(NSDSPI_TX_TD[0], LO16((uint32)pBuffer), LO16((uint32)NSDSPI_UDB_SPI_DPTH_
 525              		.loc 1 109 0
 526 003c 304B     		ldr	r3, .L35+4
 527 003e 1B78     		ldrb	r3, [r3]	@ zero_extendqisi2
 528 0040 7A68     		ldr	r2, [r7, #4]
 529 0042 91B2     		uxth	r1, r2
 530 0044 46F24C42 		movw	r2, #25676
 531 0048 1846     		mov	r0, r3
 532 004a FFF7FEFF 		bl	CyDmaTdSetAddress
 110:Generated_Source\PSoC5/NSDSPI_funcs.c ****         CyDmaChSetInitialTd(NSDSPI_TX_Chan, NSDSPI_TX_TD[0]);
 533              		.loc 1 110 0
 534 004e 2D4B     		ldr	r3, .L35+8
 535 0050 1A78     		ldrb	r2, [r3]	@ zero_extendqisi2
 536 0052 2B4B     		ldr	r3, .L35+4
 537 0054 1B78     		ldrb	r3, [r3]	@ zero_extendqisi2
 538 0056 1946     		mov	r1, r3
 539 0058 1046     		mov	r0, r2
 540 005a FFF7FEFF 		bl	CyDmaChSetInitialTd
 111:Generated_Source\PSoC5/NSDSPI_funcs.c ****     
 112:Generated_Source\PSoC5/NSDSPI_funcs.c ****         CyDmaClearPendingDrq(NSDSPI_TX_Chan);
 541              		.loc 1 112 0
 542 005e 294B     		ldr	r3, .L35+8
 543 0060 1B78     		ldrb	r3, [r3]	@ zero_extendqisi2
 544 0062 1846     		mov	r0, r3
 545 0064 FFF7FEFF 		bl	CyDmaClearPendingDrq
 113:Generated_Source\PSoC5/NSDSPI_funcs.c ****         NSDSPI_g_nTransferFlags |= NSDSPI_TRANSFER_WAIT_TXDMAISR;   //set flag
 546              		.loc 1 113 0
 547 0068 274B     		ldr	r3, .L35+12
 548 006a 1B78     		ldrb	r3, [r3]
 549 006c DBB2     		uxtb	r3, r3
 550 006e 43F00403 		orr	r3, r3, #4
 551 0072 DAB2     		uxtb	r2, r3
 552 0074 244B     		ldr	r3, .L35+12
 553 0076 1A70     		strb	r2, [r3]
 114:Generated_Source\PSoC5/NSDSPI_funcs.c ****         CyDmaChEnable(NSDSPI_TX_Chan, 1);         //this will start the transfer
 554              		.loc 1 114 0
 555 0078 224B     		ldr	r3, .L35+8
 556 007a 1B78     		ldrb	r3, [r3]	@ zero_extendqisi2
 557 007c 0121     		movs	r1, #1
 558 007e 1846     		mov	r0, r3
 559 0080 FFF7FEFF 		bl	CyDmaChEnable
 115:Generated_Source\PSoC5/NSDSPI_funcs.c ****         while(NSDSPI_g_nTransferFlags & NSDSPI_TRANSFER_WAIT_TXDMAISR); //wait for flag to clear
 560              		.loc 1 115 0
 561 0084 00BF     		nop
 562              	.L31:
 563              		.loc 1 115 0 is_stmt 0 discriminator 1
 564 0086 204B     		ldr	r3, .L35+12
 565 0088 1B78     		ldrb	r3, [r3]
 566 008a DBB2     		uxtb	r3, r3
 567 008c 03F00403 		and	r3, r3, #4
 568 0090 002B     		cmp	r3, #0
 569 0092 F8D1     		bne	.L31
ARM GAS  C:\Users\HPz420\AppData\Local\Temp\ccz8Yfav.s 			page 13


 116:Generated_Source\PSoC5/NSDSPI_funcs.c ****         
 117:Generated_Source\PSoC5/NSDSPI_funcs.c ****         CyDmaChSetRequest(NSDSPI_TX_Chan, CPU_TERM_CHAIN);
 570              		.loc 1 117 0 is_stmt 1
 571 0094 1B4B     		ldr	r3, .L35+8
 572 0096 1B78     		ldrb	r3, [r3]	@ zero_extendqisi2
 573 0098 0421     		movs	r1, #4
 574 009a 1846     		mov	r0, r3
 575 009c FFF7FEFF 		bl	CyDmaChSetRequest
 118:Generated_Source\PSoC5/NSDSPI_funcs.c ****         CyDmaTdFree(NSDSPI_TX_TD[0]);                       //Free Transfer Descriptor    
 576              		.loc 1 118 0
 577 00a0 174B     		ldr	r3, .L35+4
 578 00a2 1B78     		ldrb	r3, [r3]	@ zero_extendqisi2
 579 00a4 1846     		mov	r0, r3
 580 00a6 FFF7FEFF 		bl	CyDmaTdFree
 119:Generated_Source\PSoC5/NSDSPI_funcs.c ****     
 120:Generated_Source\PSoC5/NSDSPI_funcs.c ****         NSDSPI_UDB_SPI_DPTH_F1_CLEAR;     //clear output FIFO buffer
 581              		.loc 1 120 0
 582 00aa 184A     		ldr	r2, .L35+16
 583 00ac 174B     		ldr	r3, .L35+16
 584 00ae 1B78     		ldrb	r3, [r3]
 585 00b0 DBB2     		uxtb	r3, r3
 586 00b2 43F00203 		orr	r3, r3, #2
 587 00b6 DBB2     		uxtb	r3, r3
 588 00b8 1370     		strb	r3, [r2]
 589 00ba 144A     		ldr	r2, .L35+16
 590 00bc 134B     		ldr	r3, .L35+16
 591 00be 1B78     		ldrb	r3, [r3]
 592 00c0 DBB2     		uxtb	r3, r3
 593 00c2 23F00203 		bic	r3, r3, #2
 594 00c6 DBB2     		uxtb	r3, r3
 595 00c8 1370     		strb	r3, [r2]
 121:Generated_Source\PSoC5/NSDSPI_funcs.c ****         NSDSPI_RX_ISR_ClearPending(); //clear pending interrupt from RX_ISR (non-DMA)
 596              		.loc 1 121 0
 597 00ca FFF7FEFF 		bl	NSDSPI_RX_ISR_ClearPending
 122:Generated_Source\PSoC5/NSDSPI_funcs.c ****         return;
 598              		.loc 1 122 0
 599 00ce 12E0     		b	.L26
 600              	.L30:
 123:Generated_Source\PSoC5/NSDSPI_funcs.c ****     }
 124:Generated_Source\PSoC5/NSDSPI_funcs.c ****     
 125:Generated_Source\PSoC5/NSDSPI_funcs.c ****     //Slow (non DMA) implementation...
 126:Generated_Source\PSoC5/NSDSPI_funcs.c ****     unsigned int i;
 127:Generated_Source\PSoC5/NSDSPI_funcs.c ****     for(i = 0; i < nLength; i++)
 601              		.loc 1 127 0
 602 00d0 0023     		movs	r3, #0
 603 00d2 FB60     		str	r3, [r7, #12]
 604 00d4 09E0     		b	.L32
 605              	.L33:
 128:Generated_Source\PSoC5/NSDSPI_funcs.c ****         NSDSPI_SwapByte(pBuffer[i]);
 606              		.loc 1 128 0 discriminator 3
 607 00d6 7A68     		ldr	r2, [r7, #4]
 608 00d8 FB68     		ldr	r3, [r7, #12]
 609 00da 1344     		add	r3, r3, r2
 610 00dc 1B78     		ldrb	r3, [r3]	@ zero_extendqisi2
 611 00de 1846     		mov	r0, r3
 612 00e0 FFF7FEFF 		bl	NSDSPI_SwapByte
 127:Generated_Source\PSoC5/NSDSPI_funcs.c ****         NSDSPI_SwapByte(pBuffer[i]);
ARM GAS  C:\Users\HPz420\AppData\Local\Temp\ccz8Yfav.s 			page 14


 613              		.loc 1 127 0 discriminator 3
 614 00e4 FB68     		ldr	r3, [r7, #12]
 615 00e6 0133     		adds	r3, r3, #1
 616 00e8 FB60     		str	r3, [r7, #12]
 617              	.L32:
 127:Generated_Source\PSoC5/NSDSPI_funcs.c ****         NSDSPI_SwapByte(pBuffer[i]);
 618              		.loc 1 127 0 is_stmt 0 discriminator 1
 619 00ea FA68     		ldr	r2, [r7, #12]
 620 00ec 3B68     		ldr	r3, [r7]
 621 00ee 9A42     		cmp	r2, r3
 622 00f0 F1D3     		bcc	.L33
 623 00f2 00E0     		b	.L26
 624              	.L34:
 102:Generated_Source\PSoC5/NSDSPI_funcs.c ****     if(NSDSPI_bEnableDMA)
 625              		.loc 1 102 0 is_stmt 1
 626 00f4 00BF     		nop
 627              	.L26:
 129:Generated_Source\PSoC5/NSDSPI_funcs.c **** }
 628              		.loc 1 129 0
 629 00f6 1037     		adds	r7, r7, #16
 630              		.cfi_def_cfa_offset 8
 631 00f8 BD46     		mov	sp, r7
 632              		.cfi_def_cfa_register 13
 633              		@ sp needed
 634 00fa 80BD     		pop	{r7, pc}
 635              	.L36:
 636              		.align	2
 637              	.L35:
 638 00fc 00000000 		.word	NSDSPI_bEnableDMA
 639 0100 00000000 		.word	NSDSPI_TX_TD
 640 0104 00000000 		.word	NSDSPI_TX_Chan
 641 0108 00000000 		.word	NSDSPI_g_nTransferFlags
 642 010c 9C640040 		.word	1073767580
 643              		.cfi_endproc
 644              	.LFE8:
 645              		.size	NSDSPI_SendData, .-NSDSPI_SendData
 646              		.section	.text.NSDSPI_ReceiveData,"ax",%progbits
 647              		.align	2
 648              		.global	NSDSPI_ReceiveData
 649              		.thumb
 650              		.thumb_func
 651              		.type	NSDSPI_ReceiveData, %function
 652              	NSDSPI_ReceiveData:
 653              	.LFB9:
 130:Generated_Source\PSoC5/NSDSPI_funcs.c **** 
 131:Generated_Source\PSoC5/NSDSPI_funcs.c **** //Send a block of NULL data (default 0xFF) and place received bytes into buffer.
 132:Generated_Source\PSoC5/NSDSPI_funcs.c **** void NSDSPI_ReceiveData(unsigned char* pBuffer, unsigned int nLength)
 133:Generated_Source\PSoC5/NSDSPI_funcs.c **** {   
 654              		.loc 1 133 0
 655              		.cfi_startproc
 656              		@ args = 0, pretend = 0, frame = 16
 657              		@ frame_needed = 1, uses_anonymous_args = 0
 658 0000 90B5     		push	{r4, r7, lr}
 659              		.cfi_def_cfa_offset 12
 660              		.cfi_offset 4, -12
 661              		.cfi_offset 7, -8
 662              		.cfi_offset 14, -4
ARM GAS  C:\Users\HPz420\AppData\Local\Temp\ccz8Yfav.s 			page 15


 663 0002 85B0     		sub	sp, sp, #20
 664              		.cfi_def_cfa_offset 32
 665 0004 00AF     		add	r7, sp, #0
 666              		.cfi_def_cfa_register 7
 667 0006 7860     		str	r0, [r7, #4]
 668 0008 3960     		str	r1, [r7]
 134:Generated_Source\PSoC5/NSDSPI_funcs.c ****     if((nLength > 4095)||(nLength < 1))
 669              		.loc 1 134 0
 670 000a 3B68     		ldr	r3, [r7]
 671 000c B3F5805F 		cmp	r3, #4096
 672 0010 71D2     		bcs	.L45
 673              		.loc 1 134 0 is_stmt 0 discriminator 1
 674 0012 3B68     		ldr	r3, [r7]
 675 0014 002B     		cmp	r3, #0
 676 0016 6ED0     		beq	.L45
 135:Generated_Source\PSoC5/NSDSPI_funcs.c ****         return; //this never happens - filesys transfers max. 512 bytes at a time
 136:Generated_Source\PSoC5/NSDSPI_funcs.c ****     if(NSDSPI_bEnableDMA)
 677              		.loc 1 136 0 is_stmt 1
 678 0018 394B     		ldr	r3, .L46
 679 001a 1B78     		ldrb	r3, [r3]	@ zero_extendqisi2
 680 001c 002B     		cmp	r3, #0
 681 001e 57D0     		beq	.L41
 137:Generated_Source\PSoC5/NSDSPI_funcs.c ****     {
 138:Generated_Source\PSoC5/NSDSPI_funcs.c ****         //DMA implementation...
 139:Generated_Source\PSoC5/NSDSPI_funcs.c ****    
 140:Generated_Source\PSoC5/NSDSPI_funcs.c ****         NSDSPI_RX_BYTE_COUNTER_WriteCompare(nLength-1); //write byte counter
 682              		.loc 1 140 0
 683 0020 3B68     		ldr	r3, [r7]
 684 0022 9BB2     		uxth	r3, r3
 685 0024 013B     		subs	r3, r3, #1
 686 0026 9BB2     		uxth	r3, r3
 687 0028 1846     		mov	r0, r3
 688 002a FFF7FEFF 		bl	NSDSPI_RX_BYTE_COUNTER_WriteCompare
 141:Generated_Source\PSoC5/NSDSPI_funcs.c ****         NSDSPI_RX_TD[0] = CyDmaTdAllocate();          //allocate a TD
 689              		.loc 1 141 0
 690 002e FFF7FEFF 		bl	CyDmaTdAllocate
 691 0032 0346     		mov	r3, r0
 692 0034 1A46     		mov	r2, r3
 693 0036 334B     		ldr	r3, .L46+4
 694 0038 1A70     		strb	r2, [r3]
 142:Generated_Source\PSoC5/NSDSPI_funcs.c ****        
 143:Generated_Source\PSoC5/NSDSPI_funcs.c ****         //setup TD and attach to channel
 144:Generated_Source\PSoC5/NSDSPI_funcs.c ****         CyDmaTdSetConfiguration(NSDSPI_RX_TD[0], nLength, CY_DMA_DISABLE_TD, NSDSPI_RX__TD_TERMOUT_
 695              		.loc 1 144 0
 696 003a 324B     		ldr	r3, .L46+4
 697 003c 1878     		ldrb	r0, [r3]	@ zero_extendqisi2
 698 003e 3B68     		ldr	r3, [r7]
 699 0040 99B2     		uxth	r1, r3
 700 0042 0623     		movs	r3, #6
 701 0044 FE22     		movs	r2, #254
 702 0046 FFF7FEFF 		bl	CyDmaTdSetConfiguration
 145:Generated_Source\PSoC5/NSDSPI_funcs.c ****         CyDmaTdSetAddress(NSDSPI_RX_TD[0], LO16((uint32)NSDSPI_UDB_SPI_DPTH_F1_PTR), LO16((uint32)p
 703              		.loc 1 145 0
 704 004a 2E4B     		ldr	r3, .L46+4
 705 004c 1B78     		ldrb	r3, [r3]	@ zero_extendqisi2
 706 004e 7A68     		ldr	r2, [r7, #4]
 707 0050 92B2     		uxth	r2, r2
ARM GAS  C:\Users\HPz420\AppData\Local\Temp\ccz8Yfav.s 			page 16


 708 0052 46F25C41 		movw	r1, #25692
 709 0056 1846     		mov	r0, r3
 710 0058 FFF7FEFF 		bl	CyDmaTdSetAddress
 146:Generated_Source\PSoC5/NSDSPI_funcs.c ****         CyDmaChSetInitialTd(NSDSPI_RX_Chan, NSDSPI_RX_TD[0]);
 711              		.loc 1 146 0
 712 005c 2A4B     		ldr	r3, .L46+8
 713 005e 1A78     		ldrb	r2, [r3]	@ zero_extendqisi2
 714 0060 284B     		ldr	r3, .L46+4
 715 0062 1B78     		ldrb	r3, [r3]	@ zero_extendqisi2
 716 0064 1946     		mov	r1, r3
 717 0066 1046     		mov	r0, r2
 718 0068 FFF7FEFF 		bl	CyDmaChSetInitialTd
 147:Generated_Source\PSoC5/NSDSPI_funcs.c ****         
 148:Generated_Source\PSoC5/NSDSPI_funcs.c ****         CyDmaClearPendingDrq(NSDSPI_RX_Chan);
 719              		.loc 1 148 0
 720 006c 264B     		ldr	r3, .L46+8
 721 006e 1B78     		ldrb	r3, [r3]	@ zero_extendqisi2
 722 0070 1846     		mov	r0, r3
 723 0072 FFF7FEFF 		bl	CyDmaClearPendingDrq
 149:Generated_Source\PSoC5/NSDSPI_funcs.c ****         CyDmaChEnable(NSDSPI_RX_Chan, 1);
 724              		.loc 1 149 0
 725 0076 244B     		ldr	r3, .L46+8
 726 0078 1B78     		ldrb	r3, [r3]	@ zero_extendqisi2
 727 007a 0121     		movs	r1, #1
 728 007c 1846     		mov	r0, r3
 729 007e FFF7FEFF 		bl	CyDmaChEnable
 150:Generated_Source\PSoC5/NSDSPI_funcs.c ****     
 151:Generated_Source\PSoC5/NSDSPI_funcs.c ****         NSDSPI_g_nTransferFlags |= NSDSPI_TRANSFER_WAIT_RXDMAISR;   //Set flag
 730              		.loc 1 151 0
 731 0082 224B     		ldr	r3, .L46+12
 732 0084 1B78     		ldrb	r3, [r3]
 733 0086 DBB2     		uxtb	r3, r3
 734 0088 43F00203 		orr	r3, r3, #2
 735 008c DAB2     		uxtb	r2, r3
 736 008e 1F4B     		ldr	r3, .L46+12
 737 0090 1A70     		strb	r2, [r3]
 152:Generated_Source\PSoC5/NSDSPI_funcs.c ****         
 153:Generated_Source\PSoC5/NSDSPI_funcs.c ****         NSDSPI_CTRL_Write(NSDSPI_g_nCtrlState | 0x02);  //trigger transfer
 738              		.loc 1 153 0
 739 0092 1F4B     		ldr	r3, .L46+16
 740 0094 1B78     		ldrb	r3, [r3]
 741 0096 DBB2     		uxtb	r3, r3
 742 0098 43F00203 		orr	r3, r3, #2
 743 009c DBB2     		uxtb	r3, r3
 744 009e 1846     		mov	r0, r3
 745 00a0 FFF7FEFF 		bl	NSDSPI_CTRL_Write
 154:Generated_Source\PSoC5/NSDSPI_funcs.c ****         
 155:Generated_Source\PSoC5/NSDSPI_funcs.c ****         //wait until done.
 156:Generated_Source\PSoC5/NSDSPI_funcs.c ****         while(NSDSPI_g_nTransferFlags & NSDSPI_TRANSFER_WAIT_RXDMAISR);
 746              		.loc 1 156 0
 747 00a4 00BF     		nop
 748              	.L42:
 749              		.loc 1 156 0 is_stmt 0 discriminator 1
 750 00a6 194B     		ldr	r3, .L46+12
 751 00a8 1B78     		ldrb	r3, [r3]
 752 00aa DBB2     		uxtb	r3, r3
 753 00ac 03F00203 		and	r3, r3, #2
ARM GAS  C:\Users\HPz420\AppData\Local\Temp\ccz8Yfav.s 			page 17


 754 00b0 002B     		cmp	r3, #0
 755 00b2 F8D1     		bne	.L42
 157:Generated_Source\PSoC5/NSDSPI_funcs.c ****         
 158:Generated_Source\PSoC5/NSDSPI_funcs.c ****         CyDmaChSetRequest(NSDSPI_RX_Chan, CPU_TERM_CHAIN);
 756              		.loc 1 158 0 is_stmt 1
 757 00b4 144B     		ldr	r3, .L46+8
 758 00b6 1B78     		ldrb	r3, [r3]	@ zero_extendqisi2
 759 00b8 0421     		movs	r1, #4
 760 00ba 1846     		mov	r0, r3
 761 00bc FFF7FEFF 		bl	CyDmaChSetRequest
 159:Generated_Source\PSoC5/NSDSPI_funcs.c ****         CyDmaTdFree(NSDSPI_RX_TD[0]);                       //Free Transfer Descriptor    
 762              		.loc 1 159 0
 763 00c0 104B     		ldr	r3, .L46+4
 764 00c2 1B78     		ldrb	r3, [r3]	@ zero_extendqisi2
 765 00c4 1846     		mov	r0, r3
 766 00c6 FFF7FEFF 		bl	CyDmaTdFree
 160:Generated_Source\PSoC5/NSDSPI_funcs.c ****         
 161:Generated_Source\PSoC5/NSDSPI_funcs.c ****         NSDSPI_RX_ISR_ClearPending(); //clear pending interrupt from RX_ISR (non-DMA)
 767              		.loc 1 161 0
 768 00ca FFF7FEFF 		bl	NSDSPI_RX_ISR_ClearPending
 162:Generated_Source\PSoC5/NSDSPI_funcs.c ****         return;
 769              		.loc 1 162 0
 770 00ce 13E0     		b	.L37
 771              	.L41:
 163:Generated_Source\PSoC5/NSDSPI_funcs.c ****     }    
 164:Generated_Source\PSoC5/NSDSPI_funcs.c ****     
 165:Generated_Source\PSoC5/NSDSPI_funcs.c ****     //Slow (non DMA) implementation...
 166:Generated_Source\PSoC5/NSDSPI_funcs.c ****     unsigned int i;
 167:Generated_Source\PSoC5/NSDSPI_funcs.c ****     for(i = 0; i < nLength; i++)
 772              		.loc 1 167 0
 773 00d0 0023     		movs	r3, #0
 774 00d2 FB60     		str	r3, [r7, #12]
 775 00d4 0AE0     		b	.L43
 776              	.L44:
 168:Generated_Source\PSoC5/NSDSPI_funcs.c ****         pBuffer[i] = NSDSPI_SwapByte(0xFF);    
 777              		.loc 1 168 0 discriminator 3
 778 00d6 7A68     		ldr	r2, [r7, #4]
 779 00d8 FB68     		ldr	r3, [r7, #12]
 780 00da D418     		adds	r4, r2, r3
 781 00dc FF20     		movs	r0, #255
 782 00de FFF7FEFF 		bl	NSDSPI_SwapByte
 783 00e2 0346     		mov	r3, r0
 784 00e4 2370     		strb	r3, [r4]
 167:Generated_Source\PSoC5/NSDSPI_funcs.c ****         pBuffer[i] = NSDSPI_SwapByte(0xFF);    
 785              		.loc 1 167 0 discriminator 3
 786 00e6 FB68     		ldr	r3, [r7, #12]
 787 00e8 0133     		adds	r3, r3, #1
 788 00ea FB60     		str	r3, [r7, #12]
 789              	.L43:
 167:Generated_Source\PSoC5/NSDSPI_funcs.c ****         pBuffer[i] = NSDSPI_SwapByte(0xFF);    
 790              		.loc 1 167 0 is_stmt 0 discriminator 1
 791 00ec FA68     		ldr	r2, [r7, #12]
 792 00ee 3B68     		ldr	r3, [r7]
 793 00f0 9A42     		cmp	r2, r3
 794 00f2 F0D3     		bcc	.L44
 795 00f4 00E0     		b	.L37
 796              	.L45:
ARM GAS  C:\Users\HPz420\AppData\Local\Temp\ccz8Yfav.s 			page 18


 135:Generated_Source\PSoC5/NSDSPI_funcs.c ****     if(NSDSPI_bEnableDMA)
 797              		.loc 1 135 0 is_stmt 1
 798 00f6 00BF     		nop
 799              	.L37:
 169:Generated_Source\PSoC5/NSDSPI_funcs.c ****         
 170:Generated_Source\PSoC5/NSDSPI_funcs.c **** }
 800              		.loc 1 170 0
 801 00f8 1437     		adds	r7, r7, #20
 802              		.cfi_def_cfa_offset 12
 803 00fa BD46     		mov	sp, r7
 804              		.cfi_def_cfa_register 13
 805              		@ sp needed
 806 00fc 90BD     		pop	{r4, r7, pc}
 807              	.L47:
 808 00fe 00BF     		.align	2
 809              	.L46:
 810 0100 00000000 		.word	NSDSPI_bEnableDMA
 811 0104 00000000 		.word	NSDSPI_RX_TD
 812 0108 00000000 		.word	NSDSPI_RX_Chan
 813 010c 00000000 		.word	NSDSPI_g_nTransferFlags
 814 0110 00000000 		.word	NSDSPI_g_nCtrlState
 815              		.cfi_endproc
 816              	.LFE9:
 817              		.size	NSDSPI_ReceiveData, .-NSDSPI_ReceiveData
 818              		.section	.text.NSDSPI_SwapByte,"ax",%progbits
 819              		.align	2
 820              		.global	NSDSPI_SwapByte
 821              		.thumb
 822              		.thumb_func
 823              		.type	NSDSPI_SwapByte, %function
 824              	NSDSPI_SwapByte:
 825              	.LFB10:
 171:Generated_Source\PSoC5/NSDSPI_funcs.c **** 
 172:Generated_Source\PSoC5/NSDSPI_funcs.c **** //Swap a single byte (send it, and receive RX byte)
 173:Generated_Source\PSoC5/NSDSPI_funcs.c **** unsigned char NSDSPI_SwapByte(unsigned char nByte)
 174:Generated_Source\PSoC5/NSDSPI_funcs.c **** {
 826              		.loc 1 174 0
 827              		.cfi_startproc
 828              		@ args = 0, pretend = 0, frame = 16
 829              		@ frame_needed = 1, uses_anonymous_args = 0
 830 0000 80B5     		push	{r7, lr}
 831              		.cfi_def_cfa_offset 8
 832              		.cfi_offset 7, -8
 833              		.cfi_offset 14, -4
 834 0002 84B0     		sub	sp, sp, #16
 835              		.cfi_def_cfa_offset 24
 836 0004 00AF     		add	r7, sp, #0
 837              		.cfi_def_cfa_register 7
 838 0006 0346     		mov	r3, r0
 839 0008 FB71     		strb	r3, [r7, #7]
 175:Generated_Source\PSoC5/NSDSPI_funcs.c ****     NSDSPI_RX_ISR_Enable();   //will be disabled after being triggered
 840              		.loc 1 175 0
 841 000a FFF7FEFF 		bl	NSDSPI_RX_ISR_Enable
 176:Generated_Source\PSoC5/NSDSPI_funcs.c ****     //Set waiting flag...
 177:Generated_Source\PSoC5/NSDSPI_funcs.c ****     NSDSPI_g_nTransferFlags |= NSDSPI_TRANSFER_WAIT_RXISR;
 842              		.loc 1 177 0
 843 000e 0D4B     		ldr	r3, .L51
ARM GAS  C:\Users\HPz420\AppData\Local\Temp\ccz8Yfav.s 			page 19


 844 0010 1B78     		ldrb	r3, [r3]
 845 0012 DBB2     		uxtb	r3, r3
 846 0014 43F00103 		orr	r3, r3, #1
 847 0018 DAB2     		uxtb	r2, r3
 848 001a 0A4B     		ldr	r3, .L51
 849 001c 1A70     		strb	r2, [r3]
 178:Generated_Source\PSoC5/NSDSPI_funcs.c ****     //write byte to TX
 179:Generated_Source\PSoC5/NSDSPI_funcs.c ****     CY_SET_REG8(NSDSPI_UDB_SPI_DPTH_F0_PTR, nByte);
 850              		.loc 1 179 0
 851 001e 0A4A     		ldr	r2, .L51+4
 852 0020 FB79     		ldrb	r3, [r7, #7]
 853 0022 1370     		strb	r3, [r2]
 180:Generated_Source\PSoC5/NSDSPI_funcs.c ****     //wait for RX interrupt
 181:Generated_Source\PSoC5/NSDSPI_funcs.c ****     while(NSDSPI_g_nTransferFlags & NSDSPI_TRANSFER_WAIT_RXISR);
 854              		.loc 1 181 0
 855 0024 00BF     		nop
 856              	.L49:
 857              		.loc 1 181 0 is_stmt 0 discriminator 1
 858 0026 074B     		ldr	r3, .L51
 859 0028 1B78     		ldrb	r3, [r3]
 860 002a DBB2     		uxtb	r3, r3
 861 002c 03F00103 		and	r3, r3, #1
 862 0030 002B     		cmp	r3, #0
 863 0032 F8D1     		bne	.L49
 182:Generated_Source\PSoC5/NSDSPI_funcs.c ****     //read byte from RX
 183:Generated_Source\PSoC5/NSDSPI_funcs.c ****     unsigned char rv = CY_GET_REG8(NSDSPI_UDB_SPI_DPTH_F1_PTR);
 864              		.loc 1 183 0 is_stmt 1
 865 0034 054B     		ldr	r3, .L51+8
 866 0036 1B78     		ldrb	r3, [r3]
 867 0038 FB73     		strb	r3, [r7, #15]
 184:Generated_Source\PSoC5/NSDSPI_funcs.c ****     //return byte
 185:Generated_Source\PSoC5/NSDSPI_funcs.c ****     return rv;
 868              		.loc 1 185 0
 869 003a FB7B     		ldrb	r3, [r7, #15]	@ zero_extendqisi2
 186:Generated_Source\PSoC5/NSDSPI_funcs.c **** }
 870              		.loc 1 186 0
 871 003c 1846     		mov	r0, r3
 872 003e 1037     		adds	r7, r7, #16
 873              		.cfi_def_cfa_offset 8
 874 0040 BD46     		mov	sp, r7
 875              		.cfi_def_cfa_register 13
 876              		@ sp needed
 877 0042 80BD     		pop	{r7, pc}
 878              	.L52:
 879              		.align	2
 880              	.L51:
 881 0044 00000000 		.word	NSDSPI_g_nTransferFlags
 882 0048 4C640040 		.word	1073767500
 883 004c 5C640040 		.word	1073767516
 884              		.cfi_endproc
 885              	.LFE10:
 886              		.size	NSDSPI_SwapByte, .-NSDSPI_SwapByte
 887              		.section	.text.NSDSPI_SetDMAMode,"ax",%progbits
 888              		.align	2
 889              		.global	NSDSPI_SetDMAMode
 890              		.thumb
 891              		.thumb_func
ARM GAS  C:\Users\HPz420\AppData\Local\Temp\ccz8Yfav.s 			page 20


 892              		.type	NSDSPI_SetDMAMode, %function
 893              	NSDSPI_SetDMAMode:
 894              	.LFB11:
 187:Generated_Source\PSoC5/NSDSPI_funcs.c **** void NSDSPI_SetDMAMode(unsigned char bEnableDMA)
 188:Generated_Source\PSoC5/NSDSPI_funcs.c **** {
 895              		.loc 1 188 0
 896              		.cfi_startproc
 897              		@ args = 0, pretend = 0, frame = 8
 898              		@ frame_needed = 1, uses_anonymous_args = 0
 899 0000 80B5     		push	{r7, lr}
 900              		.cfi_def_cfa_offset 8
 901              		.cfi_offset 7, -8
 902              		.cfi_offset 14, -4
 903 0002 82B0     		sub	sp, sp, #8
 904              		.cfi_def_cfa_offset 16
 905 0004 00AF     		add	r7, sp, #0
 906              		.cfi_def_cfa_register 7
 907 0006 0346     		mov	r3, r0
 908 0008 FB71     		strb	r3, [r7, #7]
 189:Generated_Source\PSoC5/NSDSPI_funcs.c ****     while(NSDSPI_g_nTransferFlags);   //make absolutely sure no transfers are in progress
 909              		.loc 1 189 0
 910 000a 00BF     		nop
 911              	.L54:
 912              		.loc 1 189 0 is_stmt 0 discriminator 1
 913 000c 224B     		ldr	r3, .L60
 914 000e 1B78     		ldrb	r3, [r3]
 915 0010 DBB2     		uxtb	r3, r3
 916 0012 002B     		cmp	r3, #0
 917 0014 FAD1     		bne	.L54
 190:Generated_Source\PSoC5/NSDSPI_funcs.c ****     
 191:Generated_Source\PSoC5/NSDSPI_funcs.c ****     if(NSDSPI_bEnableDMA == bEnableDMA) return;
 918              		.loc 1 191 0 is_stmt 1
 919 0016 214B     		ldr	r3, .L60+4
 920 0018 1B78     		ldrb	r3, [r3]	@ zero_extendqisi2
 921 001a FA79     		ldrb	r2, [r7, #7]	@ zero_extendqisi2
 922 001c 9A42     		cmp	r2, r3
 923 001e 37D0     		beq	.L59
 192:Generated_Source\PSoC5/NSDSPI_funcs.c ****     
 193:Generated_Source\PSoC5/NSDSPI_funcs.c ****     if(bEnableDMA)
 924              		.loc 1 193 0
 925 0020 FB79     		ldrb	r3, [r7, #7]	@ zero_extendqisi2
 926 0022 002B     		cmp	r3, #0
 927 0024 28D0     		beq	.L57
 194:Generated_Source\PSoC5/NSDSPI_funcs.c ****     {
 195:Generated_Source\PSoC5/NSDSPI_funcs.c ****         NSDSPI_RX_DMA_ISR_StartEx(NSDSPI_RX_DMA_ISR);
 928              		.loc 1 195 0
 929 0026 1E48     		ldr	r0, .L60+8
 930 0028 FFF7FEFF 		bl	NSDSPI_RX_DMA_ISR_StartEx
 196:Generated_Source\PSoC5/NSDSPI_funcs.c ****         NSDSPI_TX_DMA_ISR_StartEx(NSDSPI_TX_DMA_ISR);
 931              		.loc 1 196 0
 932 002c 1D48     		ldr	r0, .L60+12
 933 002e FFF7FEFF 		bl	NSDSPI_TX_DMA_ISR_StartEx
 197:Generated_Source\PSoC5/NSDSPI_funcs.c ****         NSDSPI_RX_Chan = NSDSPI_RX_DmaInitialize(NSDSPI_RX_BYTES_PER_BURST, NSDSPI_RX_REQUEST_PER_B
 934              		.loc 1 197 0
 935 0032 41F6FF73 		movw	r3, #8191
 936 0036 4FF48042 		mov	r2, #16384
 937 003a 0121     		movs	r1, #1
ARM GAS  C:\Users\HPz420\AppData\Local\Temp\ccz8Yfav.s 			page 21


 938 003c 0120     		movs	r0, #1
 939 003e FFF7FEFF 		bl	NSDSPI_RX_DmaInitialize
 940 0042 0346     		mov	r3, r0
 941 0044 1A46     		mov	r2, r3
 942 0046 184B     		ldr	r3, .L60+16
 943 0048 1A70     		strb	r2, [r3]
 198:Generated_Source\PSoC5/NSDSPI_funcs.c ****             HI16(NSDSPI_RX_SRC_BASE), HI16(NSDSPI_RX_DST_BASE));
 199:Generated_Source\PSoC5/NSDSPI_funcs.c ****         NSDSPI_TX_Chan = NSDSPI_TX_DmaInitialize(NSDSPI_TX_BYTES_PER_BURST, NSDSPI_TX_REQUEST_PER_B
 944              		.loc 1 199 0
 945 004a 4FF48043 		mov	r3, #16384
 946 004e 41F6FF72 		movw	r2, #8191
 947 0052 0121     		movs	r1, #1
 948 0054 0120     		movs	r0, #1
 949 0056 FFF7FEFF 		bl	NSDSPI_TX_DmaInitialize
 950 005a 0346     		mov	r3, r0
 951 005c 1A46     		mov	r2, r3
 952 005e 134B     		ldr	r3, .L60+20
 953 0060 1A70     		strb	r2, [r3]
 200:Generated_Source\PSoC5/NSDSPI_funcs.c ****             HI16(NSDSPI_TX_SRC_BASE), HI16(NSDSPI_TX_DST_BASE));
 201:Generated_Source\PSoC5/NSDSPI_funcs.c ****         CyDmaClearPendingDrq(NSDSPI_RX_Chan);
 954              		.loc 1 201 0
 955 0062 114B     		ldr	r3, .L60+16
 956 0064 1B78     		ldrb	r3, [r3]	@ zero_extendqisi2
 957 0066 1846     		mov	r0, r3
 958 0068 FFF7FEFF 		bl	CyDmaClearPendingDrq
 202:Generated_Source\PSoC5/NSDSPI_funcs.c ****         CyDmaClearPendingDrq(NSDSPI_TX_Chan);    
 959              		.loc 1 202 0
 960 006c 0F4B     		ldr	r3, .L60+20
 961 006e 1B78     		ldrb	r3, [r3]	@ zero_extendqisi2
 962 0070 1846     		mov	r0, r3
 963 0072 FFF7FEFF 		bl	CyDmaClearPendingDrq
 964 0076 07E0     		b	.L58
 965              	.L57:
 203:Generated_Source\PSoC5/NSDSPI_funcs.c ****     }
 204:Generated_Source\PSoC5/NSDSPI_funcs.c ****     else
 205:Generated_Source\PSoC5/NSDSPI_funcs.c ****     {
 206:Generated_Source\PSoC5/NSDSPI_funcs.c ****         NSDSPI_RX_DMA_ISR_Stop();
 966              		.loc 1 206 0
 967 0078 FFF7FEFF 		bl	NSDSPI_RX_DMA_ISR_Stop
 207:Generated_Source\PSoC5/NSDSPI_funcs.c ****         NSDSPI_TX_DMA_ISR_Stop();
 968              		.loc 1 207 0
 969 007c FFF7FEFF 		bl	NSDSPI_TX_DMA_ISR_Stop
 208:Generated_Source\PSoC5/NSDSPI_funcs.c ****         NSDSPI_RX_DmaRelease();
 970              		.loc 1 208 0
 971 0080 FFF7FEFF 		bl	NSDSPI_RX_DmaRelease
 209:Generated_Source\PSoC5/NSDSPI_funcs.c ****         NSDSPI_TX_DmaRelease();
 972              		.loc 1 209 0
 973 0084 FFF7FEFF 		bl	NSDSPI_TX_DmaRelease
 974              	.L58:
 210:Generated_Source\PSoC5/NSDSPI_funcs.c ****     }
 211:Generated_Source\PSoC5/NSDSPI_funcs.c ****     NSDSPI_bEnableDMA = bEnableDMA;
 975              		.loc 1 211 0
 976 0088 044A     		ldr	r2, .L60+4
 977 008a FB79     		ldrb	r3, [r7, #7]
 978 008c 1370     		strb	r3, [r2]
 979 008e 00E0     		b	.L53
 980              	.L59:
ARM GAS  C:\Users\HPz420\AppData\Local\Temp\ccz8Yfav.s 			page 22


 191:Generated_Source\PSoC5/NSDSPI_funcs.c ****     
 981              		.loc 1 191 0
 982 0090 00BF     		nop
 983              	.L53:
 212:Generated_Source\PSoC5/NSDSPI_funcs.c **** }
 984              		.loc 1 212 0
 985 0092 0837     		adds	r7, r7, #8
 986              		.cfi_def_cfa_offset 8
 987 0094 BD46     		mov	sp, r7
 988              		.cfi_def_cfa_register 13
 989              		@ sp needed
 990 0096 80BD     		pop	{r7, pc}
 991              	.L61:
 992              		.align	2
 993              	.L60:
 994 0098 00000000 		.word	NSDSPI_g_nTransferFlags
 995 009c 00000000 		.word	NSDSPI_bEnableDMA
 996 00a0 00000000 		.word	NSDSPI_RX_DMA_ISR
 997 00a4 00000000 		.word	NSDSPI_TX_DMA_ISR
 998 00a8 00000000 		.word	NSDSPI_RX_Chan
 999 00ac 00000000 		.word	NSDSPI_TX_Chan
 1000              		.cfi_endproc
 1001              	.LFE11:
 1002              		.size	NSDSPI_SetDMAMode, .-NSDSPI_SetDMAMode
 1003              		.text
 1004              	.Letext0:
 1005              		.file 2 "Generated_Source\\PSoC5\\cytypes.h"
 1006              		.file 3 "Generated_Source\\PSoC5\\NSDSPI_funcs.h"
 1007              		.file 4 "Generated_Source\\PSoC5\\NSDSPI_LowLevelFileSys.h"