ARM GAS  C:\Users\HPz420\AppData\Local\Temp\ccnE7yDR.s 			page 1


   1              		.syntax unified
   2              		.cpu cortex-m3
   3              		.fpu softvfp
   4              		.eabi_attribute 20, 1
   5              		.eabi_attribute 21, 1
   6              		.eabi_attribute 23, 3
   7              		.eabi_attribute 24, 1
   8              		.eabi_attribute 25, 1
   9              		.eabi_attribute 26, 1
  10              		.eabi_attribute 30, 6
  11              		.eabi_attribute 34, 1
  12              		.eabi_attribute 18, 4
  13              		.thumb
  14              		.syntax unified
  15              		.file	"NSDSPI_UDB_BIT_COUNTER_PM.c"
  16              		.text
  17              	.Ltext0:
  18              		.cfi_sections	.debug_frame
  19              		.comm	NSDSPI_UDB_BIT_COUNTER_backup,2,4
  20              		.section	.text.NSDSPI_UDB_BIT_COUNTER_SaveConfig,"ax",%progbits
  21              		.align	2
  22              		.global	NSDSPI_UDB_BIT_COUNTER_SaveConfig
  23              		.thumb
  24              		.thumb_func
  25              		.type	NSDSPI_UDB_BIT_COUNTER_SaveConfig, %function
  26              	NSDSPI_UDB_BIT_COUNTER_SaveConfig:
  27              	.LFB0:
  28              		.file 1 "Generated_Source\\PSoC5\\NSDSPI_UDB_BIT_COUNTER_PM.c"
   1:Generated_Source\PSoC5/NSDSPI_UDB_BIT_COUNTER_PM.c **** /*******************************************************************************
   2:Generated_Source\PSoC5/NSDSPI_UDB_BIT_COUNTER_PM.c **** * File Name: NSDSPI_UDB_BIT_COUNTER_PM.c
   3:Generated_Source\PSoC5/NSDSPI_UDB_BIT_COUNTER_PM.c **** * Version 1.0
   4:Generated_Source\PSoC5/NSDSPI_UDB_BIT_COUNTER_PM.c **** *
   5:Generated_Source\PSoC5/NSDSPI_UDB_BIT_COUNTER_PM.c **** * Description:
   6:Generated_Source\PSoC5/NSDSPI_UDB_BIT_COUNTER_PM.c **** *  This file provides Low power mode APIs for Count7 component.
   7:Generated_Source\PSoC5/NSDSPI_UDB_BIT_COUNTER_PM.c **** *
   8:Generated_Source\PSoC5/NSDSPI_UDB_BIT_COUNTER_PM.c **** * Note:
   9:Generated_Source\PSoC5/NSDSPI_UDB_BIT_COUNTER_PM.c **** *  None
  10:Generated_Source\PSoC5/NSDSPI_UDB_BIT_COUNTER_PM.c **** *
  11:Generated_Source\PSoC5/NSDSPI_UDB_BIT_COUNTER_PM.c **** ********************************************************************************
  12:Generated_Source\PSoC5/NSDSPI_UDB_BIT_COUNTER_PM.c **** * Copyright 2013, Cypress Semiconductor Corporation.  All rights reserved.
  13:Generated_Source\PSoC5/NSDSPI_UDB_BIT_COUNTER_PM.c **** * You may use this file only in accordance with the license, terms, conditions,
  14:Generated_Source\PSoC5/NSDSPI_UDB_BIT_COUNTER_PM.c **** * disclaimers, and limitations in the end user license agreement accompanying
  15:Generated_Source\PSoC5/NSDSPI_UDB_BIT_COUNTER_PM.c **** * the software package with which this file was provided.
  16:Generated_Source\PSoC5/NSDSPI_UDB_BIT_COUNTER_PM.c **** *******************************************************************************/
  17:Generated_Source\PSoC5/NSDSPI_UDB_BIT_COUNTER_PM.c **** 
  18:Generated_Source\PSoC5/NSDSPI_UDB_BIT_COUNTER_PM.c **** #include "NSDSPI_UDB_BIT_COUNTER.h"
  19:Generated_Source\PSoC5/NSDSPI_UDB_BIT_COUNTER_PM.c **** 
  20:Generated_Source\PSoC5/NSDSPI_UDB_BIT_COUNTER_PM.c **** 
  21:Generated_Source\PSoC5/NSDSPI_UDB_BIT_COUNTER_PM.c **** NSDSPI_UDB_BIT_COUNTER_BACKUP_STRUCT NSDSPI_UDB_BIT_COUNTER_backup;
  22:Generated_Source\PSoC5/NSDSPI_UDB_BIT_COUNTER_PM.c **** 
  23:Generated_Source\PSoC5/NSDSPI_UDB_BIT_COUNTER_PM.c **** 
  24:Generated_Source\PSoC5/NSDSPI_UDB_BIT_COUNTER_PM.c **** /*******************************************************************************
  25:Generated_Source\PSoC5/NSDSPI_UDB_BIT_COUNTER_PM.c **** * Function Name: NSDSPI_UDB_BIT_COUNTER_SaveConfig
  26:Generated_Source\PSoC5/NSDSPI_UDB_BIT_COUNTER_PM.c **** ********************************************************************************
  27:Generated_Source\PSoC5/NSDSPI_UDB_BIT_COUNTER_PM.c **** *
  28:Generated_Source\PSoC5/NSDSPI_UDB_BIT_COUNTER_PM.c **** * Summary:
  29:Generated_Source\PSoC5/NSDSPI_UDB_BIT_COUNTER_PM.c **** *  This function saves the component configuration and non-retention registers.
ARM GAS  C:\Users\HPz420\AppData\Local\Temp\ccnE7yDR.s 			page 2


  30:Generated_Source\PSoC5/NSDSPI_UDB_BIT_COUNTER_PM.c **** *  This function is called by the Count7_Sleep() function.
  31:Generated_Source\PSoC5/NSDSPI_UDB_BIT_COUNTER_PM.c **** *
  32:Generated_Source\PSoC5/NSDSPI_UDB_BIT_COUNTER_PM.c **** * Parameters:
  33:Generated_Source\PSoC5/NSDSPI_UDB_BIT_COUNTER_PM.c **** *  None
  34:Generated_Source\PSoC5/NSDSPI_UDB_BIT_COUNTER_PM.c **** *
  35:Generated_Source\PSoC5/NSDSPI_UDB_BIT_COUNTER_PM.c **** * Return:
  36:Generated_Source\PSoC5/NSDSPI_UDB_BIT_COUNTER_PM.c **** *  None
  37:Generated_Source\PSoC5/NSDSPI_UDB_BIT_COUNTER_PM.c **** *
  38:Generated_Source\PSoC5/NSDSPI_UDB_BIT_COUNTER_PM.c **** * Global Variables:
  39:Generated_Source\PSoC5/NSDSPI_UDB_BIT_COUNTER_PM.c **** *  NSDSPI_UDB_BIT_COUNTER_backup - used to save component configuration and non-
  40:Generated_Source\PSoC5/NSDSPI_UDB_BIT_COUNTER_PM.c **** *  retention registers before enter sleep mode.
  41:Generated_Source\PSoC5/NSDSPI_UDB_BIT_COUNTER_PM.c **** *
  42:Generated_Source\PSoC5/NSDSPI_UDB_BIT_COUNTER_PM.c **** *******************************************************************************/
  43:Generated_Source\PSoC5/NSDSPI_UDB_BIT_COUNTER_PM.c **** void NSDSPI_UDB_BIT_COUNTER_SaveConfig(void) 
  44:Generated_Source\PSoC5/NSDSPI_UDB_BIT_COUNTER_PM.c **** {
  29              		.loc 1 44 0
  30              		.cfi_startproc
  31              		@ args = 0, pretend = 0, frame = 0
  32              		@ frame_needed = 1, uses_anonymous_args = 0
  33              		@ link register save eliminated.
  34 0000 80B4     		push	{r7}
  35              		.cfi_def_cfa_offset 4
  36              		.cfi_offset 7, -4
  37 0002 00AF     		add	r7, sp, #0
  38              		.cfi_def_cfa_register 7
  45:Generated_Source\PSoC5/NSDSPI_UDB_BIT_COUNTER_PM.c ****     NSDSPI_UDB_BIT_COUNTER_backup.count = NSDSPI_UDB_BIT_COUNTER_COUNT_REG;
  39              		.loc 1 45 0
  40 0004 044B     		ldr	r3, .L2
  41 0006 1B78     		ldrb	r3, [r3]
  42 0008 DAB2     		uxtb	r2, r3
  43 000a 044B     		ldr	r3, .L2+4
  44 000c 5A70     		strb	r2, [r3, #1]
  46:Generated_Source\PSoC5/NSDSPI_UDB_BIT_COUNTER_PM.c **** }
  45              		.loc 1 46 0
  46 000e 00BF     		nop
  47 0010 BD46     		mov	sp, r7
  48              		.cfi_def_cfa_register 13
  49              		@ sp needed
  50 0012 80BC     		pop	{r7}
  51              		.cfi_restore 7
  52              		.cfi_def_cfa_offset 0
  53 0014 7047     		bx	lr
  54              	.L3:
  55 0016 00BF     		.align	2
  56              	.L2:
  57 0018 7C640040 		.word	1073767548
  58 001c 00000000 		.word	NSDSPI_UDB_BIT_COUNTER_backup
  59              		.cfi_endproc
  60              	.LFE0:
  61              		.size	NSDSPI_UDB_BIT_COUNTER_SaveConfig, .-NSDSPI_UDB_BIT_COUNTER_SaveConfig
  62              		.section	.text.NSDSPI_UDB_BIT_COUNTER_Sleep,"ax",%progbits
  63              		.align	2
  64              		.global	NSDSPI_UDB_BIT_COUNTER_Sleep
  65              		.thumb
  66              		.thumb_func
  67              		.type	NSDSPI_UDB_BIT_COUNTER_Sleep, %function
  68              	NSDSPI_UDB_BIT_COUNTER_Sleep:
ARM GAS  C:\Users\HPz420\AppData\Local\Temp\ccnE7yDR.s 			page 3


  69              	.LFB1:
  47:Generated_Source\PSoC5/NSDSPI_UDB_BIT_COUNTER_PM.c **** 
  48:Generated_Source\PSoC5/NSDSPI_UDB_BIT_COUNTER_PM.c **** 
  49:Generated_Source\PSoC5/NSDSPI_UDB_BIT_COUNTER_PM.c **** /*******************************************************************************
  50:Generated_Source\PSoC5/NSDSPI_UDB_BIT_COUNTER_PM.c **** * Function Name: NSDSPI_UDB_BIT_COUNTER_Sleep
  51:Generated_Source\PSoC5/NSDSPI_UDB_BIT_COUNTER_PM.c **** ********************************************************************************
  52:Generated_Source\PSoC5/NSDSPI_UDB_BIT_COUNTER_PM.c **** *
  53:Generated_Source\PSoC5/NSDSPI_UDB_BIT_COUNTER_PM.c **** * Summary:
  54:Generated_Source\PSoC5/NSDSPI_UDB_BIT_COUNTER_PM.c **** *  This is the preferred API to prepare the component for low power mode
  55:Generated_Source\PSoC5/NSDSPI_UDB_BIT_COUNTER_PM.c **** *  operation. The Count7_Sleep() API saves the current component state using
  56:Generated_Source\PSoC5/NSDSPI_UDB_BIT_COUNTER_PM.c **** *  Count7_SaveConfig() and disables the counter.
  57:Generated_Source\PSoC5/NSDSPI_UDB_BIT_COUNTER_PM.c **** *
  58:Generated_Source\PSoC5/NSDSPI_UDB_BIT_COUNTER_PM.c **** * Parameters:
  59:Generated_Source\PSoC5/NSDSPI_UDB_BIT_COUNTER_PM.c **** *  None
  60:Generated_Source\PSoC5/NSDSPI_UDB_BIT_COUNTER_PM.c **** *
  61:Generated_Source\PSoC5/NSDSPI_UDB_BIT_COUNTER_PM.c **** * Return:
  62:Generated_Source\PSoC5/NSDSPI_UDB_BIT_COUNTER_PM.c **** *  None
  63:Generated_Source\PSoC5/NSDSPI_UDB_BIT_COUNTER_PM.c **** *
  64:Generated_Source\PSoC5/NSDSPI_UDB_BIT_COUNTER_PM.c **** *******************************************************************************/
  65:Generated_Source\PSoC5/NSDSPI_UDB_BIT_COUNTER_PM.c **** void NSDSPI_UDB_BIT_COUNTER_Sleep(void) 
  66:Generated_Source\PSoC5/NSDSPI_UDB_BIT_COUNTER_PM.c **** {
  70              		.loc 1 66 0
  71              		.cfi_startproc
  72              		@ args = 0, pretend = 0, frame = 0
  73              		@ frame_needed = 1, uses_anonymous_args = 0
  74 0000 80B5     		push	{r7, lr}
  75              		.cfi_def_cfa_offset 8
  76              		.cfi_offset 7, -8
  77              		.cfi_offset 14, -4
  78 0002 00AF     		add	r7, sp, #0
  79              		.cfi_def_cfa_register 7
  67:Generated_Source\PSoC5/NSDSPI_UDB_BIT_COUNTER_PM.c ****     if(0u != (NSDSPI_UDB_BIT_COUNTER_AUX_CONTROL_REG & NSDSPI_UDB_BIT_COUNTER_COUNTER_START))
  80              		.loc 1 67 0
  81 0004 094B     		ldr	r3, .L7
  82 0006 1B78     		ldrb	r3, [r3]
  83 0008 DBB2     		uxtb	r3, r3
  84 000a 03F02003 		and	r3, r3, #32
  85 000e 002B     		cmp	r3, #0
  86 0010 05D0     		beq	.L5
  68:Generated_Source\PSoC5/NSDSPI_UDB_BIT_COUNTER_PM.c ****     {
  69:Generated_Source\PSoC5/NSDSPI_UDB_BIT_COUNTER_PM.c ****         NSDSPI_UDB_BIT_COUNTER_backup.enableState = 1u;
  87              		.loc 1 69 0
  88 0012 074B     		ldr	r3, .L7+4
  89 0014 0122     		movs	r2, #1
  90 0016 1A70     		strb	r2, [r3]
  70:Generated_Source\PSoC5/NSDSPI_UDB_BIT_COUNTER_PM.c ****         NSDSPI_UDB_BIT_COUNTER_Stop();
  91              		.loc 1 70 0
  92 0018 FFF7FEFF 		bl	NSDSPI_UDB_BIT_COUNTER_Stop
  93 001c 02E0     		b	.L6
  94              	.L5:
  71:Generated_Source\PSoC5/NSDSPI_UDB_BIT_COUNTER_PM.c ****     }
  72:Generated_Source\PSoC5/NSDSPI_UDB_BIT_COUNTER_PM.c ****     else
  73:Generated_Source\PSoC5/NSDSPI_UDB_BIT_COUNTER_PM.c ****     {
  74:Generated_Source\PSoC5/NSDSPI_UDB_BIT_COUNTER_PM.c ****         NSDSPI_UDB_BIT_COUNTER_backup.enableState = 0u;
  95              		.loc 1 74 0
  96 001e 044B     		ldr	r3, .L7+4
  97 0020 0022     		movs	r2, #0
ARM GAS  C:\Users\HPz420\AppData\Local\Temp\ccnE7yDR.s 			page 4


  98 0022 1A70     		strb	r2, [r3]
  99              	.L6:
  75:Generated_Source\PSoC5/NSDSPI_UDB_BIT_COUNTER_PM.c ****     }
  76:Generated_Source\PSoC5/NSDSPI_UDB_BIT_COUNTER_PM.c **** 
  77:Generated_Source\PSoC5/NSDSPI_UDB_BIT_COUNTER_PM.c ****     NSDSPI_UDB_BIT_COUNTER_SaveConfig();
 100              		.loc 1 77 0
 101 0024 FFF7FEFF 		bl	NSDSPI_UDB_BIT_COUNTER_SaveConfig
  78:Generated_Source\PSoC5/NSDSPI_UDB_BIT_COUNTER_PM.c **** }
 102              		.loc 1 78 0
 103 0028 00BF     		nop
 104 002a 80BD     		pop	{r7, pc}
 105              	.L8:
 106              		.align	2
 107              	.L7:
 108 002c 9C640040 		.word	1073767580
 109 0030 00000000 		.word	NSDSPI_UDB_BIT_COUNTER_backup
 110              		.cfi_endproc
 111              	.LFE1:
 112              		.size	NSDSPI_UDB_BIT_COUNTER_Sleep, .-NSDSPI_UDB_BIT_COUNTER_Sleep
 113              		.section	.text.NSDSPI_UDB_BIT_COUNTER_RestoreConfig,"ax",%progbits
 114              		.align	2
 115              		.global	NSDSPI_UDB_BIT_COUNTER_RestoreConfig
 116              		.thumb
 117              		.thumb_func
 118              		.type	NSDSPI_UDB_BIT_COUNTER_RestoreConfig, %function
 119              	NSDSPI_UDB_BIT_COUNTER_RestoreConfig:
 120              	.LFB2:
  79:Generated_Source\PSoC5/NSDSPI_UDB_BIT_COUNTER_PM.c **** 
  80:Generated_Source\PSoC5/NSDSPI_UDB_BIT_COUNTER_PM.c **** 
  81:Generated_Source\PSoC5/NSDSPI_UDB_BIT_COUNTER_PM.c **** /*******************************************************************************
  82:Generated_Source\PSoC5/NSDSPI_UDB_BIT_COUNTER_PM.c **** * Function Name: NSDSPI_UDB_BIT_COUNTER_RestoreConfig
  83:Generated_Source\PSoC5/NSDSPI_UDB_BIT_COUNTER_PM.c **** ********************************************************************************
  84:Generated_Source\PSoC5/NSDSPI_UDB_BIT_COUNTER_PM.c **** *
  85:Generated_Source\PSoC5/NSDSPI_UDB_BIT_COUNTER_PM.c **** * Summary:
  86:Generated_Source\PSoC5/NSDSPI_UDB_BIT_COUNTER_PM.c **** *  This function restores the component configuration and non-retention
  87:Generated_Source\PSoC5/NSDSPI_UDB_BIT_COUNTER_PM.c **** *  registers. This function is called by the Count7_Wakeup() function.
  88:Generated_Source\PSoC5/NSDSPI_UDB_BIT_COUNTER_PM.c **** *
  89:Generated_Source\PSoC5/NSDSPI_UDB_BIT_COUNTER_PM.c **** * Parameters:
  90:Generated_Source\PSoC5/NSDSPI_UDB_BIT_COUNTER_PM.c **** *  None
  91:Generated_Source\PSoC5/NSDSPI_UDB_BIT_COUNTER_PM.c **** *
  92:Generated_Source\PSoC5/NSDSPI_UDB_BIT_COUNTER_PM.c **** * Return:
  93:Generated_Source\PSoC5/NSDSPI_UDB_BIT_COUNTER_PM.c **** *  None
  94:Generated_Source\PSoC5/NSDSPI_UDB_BIT_COUNTER_PM.c **** *
  95:Generated_Source\PSoC5/NSDSPI_UDB_BIT_COUNTER_PM.c **** * Global Variables:
  96:Generated_Source\PSoC5/NSDSPI_UDB_BIT_COUNTER_PM.c **** *  NSDSPI_UDB_BIT_COUNTER_backup - used to save component configuration and
  97:Generated_Source\PSoC5/NSDSPI_UDB_BIT_COUNTER_PM.c **** *  non-retention registers before exit sleep mode.
  98:Generated_Source\PSoC5/NSDSPI_UDB_BIT_COUNTER_PM.c **** *
  99:Generated_Source\PSoC5/NSDSPI_UDB_BIT_COUNTER_PM.c **** *******************************************************************************/
 100:Generated_Source\PSoC5/NSDSPI_UDB_BIT_COUNTER_PM.c **** void NSDSPI_UDB_BIT_COUNTER_RestoreConfig(void) 
 101:Generated_Source\PSoC5/NSDSPI_UDB_BIT_COUNTER_PM.c **** {
 121              		.loc 1 101 0
 122              		.cfi_startproc
 123              		@ args = 0, pretend = 0, frame = 0
 124              		@ frame_needed = 1, uses_anonymous_args = 0
 125              		@ link register save eliminated.
 126 0000 80B4     		push	{r7}
 127              		.cfi_def_cfa_offset 4
ARM GAS  C:\Users\HPz420\AppData\Local\Temp\ccnE7yDR.s 			page 5


 128              		.cfi_offset 7, -4
 129 0002 00AF     		add	r7, sp, #0
 130              		.cfi_def_cfa_register 7
 102:Generated_Source\PSoC5/NSDSPI_UDB_BIT_COUNTER_PM.c ****     NSDSPI_UDB_BIT_COUNTER_COUNT_REG = NSDSPI_UDB_BIT_COUNTER_backup.count;
 131              		.loc 1 102 0
 132 0004 034B     		ldr	r3, .L10
 133 0006 044A     		ldr	r2, .L10+4
 134 0008 5278     		ldrb	r2, [r2, #1]	@ zero_extendqisi2
 135 000a 1A70     		strb	r2, [r3]
 103:Generated_Source\PSoC5/NSDSPI_UDB_BIT_COUNTER_PM.c **** }
 136              		.loc 1 103 0
 137 000c 00BF     		nop
 138 000e BD46     		mov	sp, r7
 139              		.cfi_def_cfa_register 13
 140              		@ sp needed
 141 0010 80BC     		pop	{r7}
 142              		.cfi_restore 7
 143              		.cfi_def_cfa_offset 0
 144 0012 7047     		bx	lr
 145              	.L11:
 146              		.align	2
 147              	.L10:
 148 0014 7C640040 		.word	1073767548
 149 0018 00000000 		.word	NSDSPI_UDB_BIT_COUNTER_backup
 150              		.cfi_endproc
 151              	.LFE2:
 152              		.size	NSDSPI_UDB_BIT_COUNTER_RestoreConfig, .-NSDSPI_UDB_BIT_COUNTER_RestoreConfig
 153              		.section	.text.NSDSPI_UDB_BIT_COUNTER_Wakeup,"ax",%progbits
 154              		.align	2
 155              		.global	NSDSPI_UDB_BIT_COUNTER_Wakeup
 156              		.thumb
 157              		.thumb_func
 158              		.type	NSDSPI_UDB_BIT_COUNTER_Wakeup, %function
 159              	NSDSPI_UDB_BIT_COUNTER_Wakeup:
 160              	.LFB3:
 104:Generated_Source\PSoC5/NSDSPI_UDB_BIT_COUNTER_PM.c **** 
 105:Generated_Source\PSoC5/NSDSPI_UDB_BIT_COUNTER_PM.c **** 
 106:Generated_Source\PSoC5/NSDSPI_UDB_BIT_COUNTER_PM.c **** /*******************************************************************************
 107:Generated_Source\PSoC5/NSDSPI_UDB_BIT_COUNTER_PM.c **** * Function Name: NSDSPI_UDB_BIT_COUNTER_Wakeup
 108:Generated_Source\PSoC5/NSDSPI_UDB_BIT_COUNTER_PM.c **** ********************************************************************************
 109:Generated_Source\PSoC5/NSDSPI_UDB_BIT_COUNTER_PM.c **** *
 110:Generated_Source\PSoC5/NSDSPI_UDB_BIT_COUNTER_PM.c **** * Summary:
 111:Generated_Source\PSoC5/NSDSPI_UDB_BIT_COUNTER_PM.c **** *  This is the preferred API to restore the component to the state when
 112:Generated_Source\PSoC5/NSDSPI_UDB_BIT_COUNTER_PM.c **** *  Count7_Sleep() was called. The Count7_Wakeup() function calls the
 113:Generated_Source\PSoC5/NSDSPI_UDB_BIT_COUNTER_PM.c **** *  Count7_RestoreConfig() function to restore the configuration.
 114:Generated_Source\PSoC5/NSDSPI_UDB_BIT_COUNTER_PM.c **** *
 115:Generated_Source\PSoC5/NSDSPI_UDB_BIT_COUNTER_PM.c **** * Parameters:
 116:Generated_Source\PSoC5/NSDSPI_UDB_BIT_COUNTER_PM.c **** *  None
 117:Generated_Source\PSoC5/NSDSPI_UDB_BIT_COUNTER_PM.c **** *
 118:Generated_Source\PSoC5/NSDSPI_UDB_BIT_COUNTER_PM.c **** * Return:
 119:Generated_Source\PSoC5/NSDSPI_UDB_BIT_COUNTER_PM.c **** *  None
 120:Generated_Source\PSoC5/NSDSPI_UDB_BIT_COUNTER_PM.c **** *
 121:Generated_Source\PSoC5/NSDSPI_UDB_BIT_COUNTER_PM.c **** *******************************************************************************/
 122:Generated_Source\PSoC5/NSDSPI_UDB_BIT_COUNTER_PM.c **** void NSDSPI_UDB_BIT_COUNTER_Wakeup(void) 
 123:Generated_Source\PSoC5/NSDSPI_UDB_BIT_COUNTER_PM.c **** {
 161              		.loc 1 123 0
 162              		.cfi_startproc
ARM GAS  C:\Users\HPz420\AppData\Local\Temp\ccnE7yDR.s 			page 6


 163              		@ args = 0, pretend = 0, frame = 0
 164              		@ frame_needed = 1, uses_anonymous_args = 0
 165 0000 80B5     		push	{r7, lr}
 166              		.cfi_def_cfa_offset 8
 167              		.cfi_offset 7, -8
 168              		.cfi_offset 14, -4
 169 0002 00AF     		add	r7, sp, #0
 170              		.cfi_def_cfa_register 7
 124:Generated_Source\PSoC5/NSDSPI_UDB_BIT_COUNTER_PM.c ****     NSDSPI_UDB_BIT_COUNTER_RestoreConfig();
 171              		.loc 1 124 0
 172 0004 FFF7FEFF 		bl	NSDSPI_UDB_BIT_COUNTER_RestoreConfig
 125:Generated_Source\PSoC5/NSDSPI_UDB_BIT_COUNTER_PM.c **** 
 126:Generated_Source\PSoC5/NSDSPI_UDB_BIT_COUNTER_PM.c ****     /* Restore enable state */
 127:Generated_Source\PSoC5/NSDSPI_UDB_BIT_COUNTER_PM.c ****     if (NSDSPI_UDB_BIT_COUNTER_backup.enableState != 0u)
 173              		.loc 1 127 0
 174 0008 034B     		ldr	r3, .L15
 175 000a 1B78     		ldrb	r3, [r3]	@ zero_extendqisi2
 176 000c 002B     		cmp	r3, #0
 177 000e 01D0     		beq	.L14
 128:Generated_Source\PSoC5/NSDSPI_UDB_BIT_COUNTER_PM.c ****     {
 129:Generated_Source\PSoC5/NSDSPI_UDB_BIT_COUNTER_PM.c ****         NSDSPI_UDB_BIT_COUNTER_Enable();
 178              		.loc 1 129 0
 179 0010 FFF7FEFF 		bl	NSDSPI_UDB_BIT_COUNTER_Enable
 180              	.L14:
 130:Generated_Source\PSoC5/NSDSPI_UDB_BIT_COUNTER_PM.c ****     }
 131:Generated_Source\PSoC5/NSDSPI_UDB_BIT_COUNTER_PM.c **** }
 181              		.loc 1 131 0
 182 0014 00BF     		nop
 183 0016 80BD     		pop	{r7, pc}
 184              	.L16:
 185              		.align	2
 186              	.L15:
 187 0018 00000000 		.word	NSDSPI_UDB_BIT_COUNTER_backup
 188              		.cfi_endproc
 189              	.LFE3:
 190              		.size	NSDSPI_UDB_BIT_COUNTER_Wakeup, .-NSDSPI_UDB_BIT_COUNTER_Wakeup
 191              		.text
 192              	.Letext0:
 193              		.file 2 "Generated_Source\\PSoC5\\cytypes.h"
 194              		.file 3 "Generated_Source\\PSoC5\\NSDSPI_UDB_BIT_COUNTER.h"