ARM GAS  C:\Users\HPz420\AppData\Local\Temp\ccz8Yfav.s 			page 1


   1              		.syntax unified
   2              		.cpu cortex-m3
   3              		.fpu softvfp
   4              		.eabi_attribute 20, 1
   5              		.eabi_attribute 21, 1
   6              		.eabi_attribute 23, 3
   7              		.eabi_attribute 24, 1
   8              		.eabi_attribute 25, 1
   9              		.eabi_attribute 26, 1
  10              		.eabi_attribute 30, 6
  11              		.eabi_attribute 34, 1
  12              		.eabi_attribute 18, 4
  13              		.thumb
  14              		.syntax unified
  15              		.file	"NSDSPI_funcs.c"
  16              		.text
  17              	.Ltext0:
  18              		.cfi_sections	.debug_frame
  19              		.comm	NSDSPI_bEnableDMA,1,1
  20              		.comm	NSDSPI_RX_Chan,1,1
  21              		.comm	NSDSPI_RX_TD,1,4
  22              		.comm	NSDSPI_TX_Chan,1,1
  23              		.comm	NSDSPI_TX_TD,1,4
  24              		.comm	NSDSPI_g_nTransferFlags,1,1
  25              		.comm	NSDSPI_g_nCtrlState,1,1
  26              		.section	.text.NSDSPI_RX_ISR,"ax",%progbits
  27              		.align	2
  28              		.global	NSDSPI_RX_ISR
  29              		.thumb
  30              		.thumb_func
  31              		.type	NSDSPI_RX_ISR, %function
  32              	NSDSPI_RX_ISR:
  33              	.LFB0:
  34              		.file 1 "Generated_Source\\PSoC5\\NSDSPI_funcs.c"
   1:Generated_Source\PSoC5/NSDSPI_funcs.c **** /* ========================================
   2:Generated_Source\PSoC5/NSDSPI_funcs.c ****  *
   3:Generated_Source\PSoC5/NSDSPI_funcs.c ****  * Copyright YOUR COMPANY, THE YEAR
   4:Generated_Source\PSoC5/NSDSPI_funcs.c ****  * All Rights Reserved
   5:Generated_Source\PSoC5/NSDSPI_funcs.c ****  * UNPUBLISHED, LICENSED SOFTWARE.
   6:Generated_Source\PSoC5/NSDSPI_funcs.c ****  *
   7:Generated_Source\PSoC5/NSDSPI_funcs.c ****  * CONFIDENTIAL AND PROPRIETARY INFORMATION
   8:Generated_Source\PSoC5/NSDSPI_funcs.c ****  * WHICH IS THE PROPERTY OF your company.
   9:Generated_Source\PSoC5/NSDSPI_funcs.c ****  *
  10:Generated_Source\PSoC5/NSDSPI_funcs.c ****  * ========================================
  11:Generated_Source\PSoC5/NSDSPI_funcs.c **** */
  12:Generated_Source\PSoC5/NSDSPI_funcs.c **** #include "NSDSPI_funcs.h"
  13:Generated_Source\PSoC5/NSDSPI_funcs.c **** #include "NSDSPI_LowLevelFileSys.h"
  14:Generated_Source\PSoC5/NSDSPI_funcs.c **** 
  15:Generated_Source\PSoC5/NSDSPI_funcs.c **** //Standard (non DMA receive) ISR
  16:Generated_Source\PSoC5/NSDSPI_funcs.c **** void NSDSPI_RX_ISR()
  17:Generated_Source\PSoC5/NSDSPI_funcs.c **** {
  35              		.loc 1 17 0
  36              		.cfi_startproc
  37              		@ args = 0, pretend = 0, frame = 0
  38              		@ frame_needed = 1, uses_anonymous_args = 0
  39 0000 80B5     		push	{r7, lr}
  40              		.cfi_def_cfa_offset 8
ARM GAS  C:\Users\HPz420\AppData\Local\Temp\ccz8Yfav.s 			page 2


  41              		.cfi_offset 7, -8
  42              		.cfi_offset 14, -4
  43 0002 00AF     		add	r7, sp, #0
  44              		.cfi_def_cfa_register 7
  18:Generated_Source\PSoC5/NSDSPI_funcs.c ****     NSDSPI_g_nTransferFlags &= ~NSDSPI_TRANSFER_WAIT_RXISR;
  45              		.loc 1 18 0
  46 0004 054B     		ldr	r3, .L2
  47 0006 1B78     		ldrb	r3, [r3]
  48 0008 DBB2     		uxtb	r3, r3
  49 000a 23F00103 		bic	r3, r3, #1
  50 000e DAB2     		uxtb	r2, r3
  51 0010 024B     		ldr	r3, .L2
  52 0012 1A70     		strb	r2, [r3]
  19:Generated_Source\PSoC5/NSDSPI_funcs.c ****     NSDSPI_RX_ISR_Disable();
  53              		.loc 1 19 0
  54 0014 FFF7FEFF 		bl	NSDSPI_RX_ISR_Disable
  20:Generated_Source\PSoC5/NSDSPI_funcs.c **** }
  55              		.loc 1 20 0
  56 0018 00BF     		nop
  57 001a 80BD     		pop	{r7, pc}
  58              	.L3:
  59              		.align	2
  60              	.L2:
  61 001c 00000000 		.word	NSDSPI_g_nTransferFlags
  62              		.cfi_endproc
  63              	.LFE0:
  64              		.size	NSDSPI_RX_ISR, .-NSDSPI_RX_ISR
  65              		.section	.text.NSDSPI_RX_DMA_ISR,"ax",%progbits
  66              		.align	2
  67              		.global	NSDSPI_RX_DMA_ISR
  68              		.thumb
  69              		.thumb_func
  70              		.type	NSDSPI_RX_DMA_ISR, %function
  71              	NSDSPI_RX_DMA_ISR:
  72              	.LFB1:
  21:Generated_Source\PSoC5/NSDSPI_funcs.c **** 
  22:Generated_Source\PSoC5/NSDSPI_funcs.c **** //DMA termination ISRs
  23:Generated_Source\PSoC5/NSDSPI_funcs.c **** void NSDSPI_RX_DMA_ISR()
  24:Generated_Source\PSoC5/NSDSPI_funcs.c **** {   NSDSPI_g_nTransferFlags &= ~NSDSPI_TRANSFER_WAIT_RXDMAISR;}
  73              		.loc 1 24 0
  74              		.cfi_startproc
  75              		@ args = 0, pretend = 0, frame = 0
  76              		@ frame_needed = 1, uses_anonymous_args = 0
  77              		@ link register save eliminated.
  78 0000 80B4     		push	{r7}
  79              		.cfi_def_cfa_offset 4
  80              		.cfi_offset 7, -4
  81 0002 00AF     		add	r7, sp, #0
  82              		.cfi_def_cfa_register 7
  83              		.loc 1 24 0
  84 0004 054B     		ldr	r3, .L5
  85 0006 1B78     		ldrb	r3, [r3]
  86 0008 DBB2     		uxtb	r3, r3
  87 000a 23F00203 		bic	r3, r3, #2
  88 000e DAB2     		uxtb	r2, r3
  89 0010 024B     		ldr	r3, .L5
  90 0012 1A70     		strb	r2, [r3]
ARM GAS  C:\Users\HPz420\AppData\Local\Temp\ccz8Yfav.s 			page 3


  91 0014 00BF     		nop
  92 0016 BD46     		mov	sp, r7
  93              		.cfi_def_cfa_register 13
  94              		@ sp needed
  95 0018 80BC     		pop	{r7}
  96              		.cfi_restore 7
  97              		.cfi_def_cfa_offset 0
  98 001a 7047     		bx	lr
  99              	.L6:
 100              		.align	2
 101              	.L5:
 102 001c 00000000 		.word	NSDSPI_g_nTransferFlags
 103              		.cfi_endproc
 104              	.LFE1:
 105              		.size	NSDSPI_RX_DMA_ISR, .-NSDSPI_RX_DMA_ISR
 106              		.section	.text.NSDSPI_TX_DMA_ISR,"ax",%progbits
 107              		.align	2
 108              		.global	NSDSPI_TX_DMA_ISR
 109              		.thumb
 110              		.thumb_func
 111              		.type	NSDSPI_TX_DMA_ISR, %function
 112              	NSDSPI_TX_DMA_ISR:
 113              	.LFB2:
  25:Generated_Source\PSoC5/NSDSPI_funcs.c **** 
  26:Generated_Source\PSoC5/NSDSPI_funcs.c **** void NSDSPI_TX_DMA_ISR()
  27:Generated_Source\PSoC5/NSDSPI_funcs.c **** {   NSDSPI_g_nTransferFlags &= ~NSDSPI_TRANSFER_WAIT_TXDMAISR;}
 114              		.loc 1 27 0
 115              		.cfi_startproc
 116              		@ args = 0, pretend = 0, frame = 0
 117              		@ frame_needed = 1, uses_anonymous_args = 0
 118              		@ link register save eliminated.
 119 0000 80B4     		push	{r7}
 120              		.cfi_def_cfa_offset 4
 121              		.cfi_offset 7, -4
 122 0002 00AF     		add	r7, sp, #0
 123              		.cfi_def_cfa_register 7
 124              		.loc 1 27 0
 125 0004 054B     		ldr	r3, .L8
 126 0006 1B78     		ldrb	r3, [r3]
 127 0008 DBB2     		uxtb	r3, r3
 128 000a 23F00403 		bic	r3, r3, #4
 129 000e DAB2     		uxtb	r2, r3
 130 0010 024B     		ldr	r3, .L8
 131 0012 1A70     		strb	r2, [r3]
 132 0014 00BF     		nop
 133 0016 BD46     		mov	sp, r7
 134              		.cfi_def_cfa_register 13
 135              		@ sp needed
 136 0018 80BC     		pop	{r7}
 137              		.cfi_restore 7
 138              		.cfi_def_cfa_offset 0
 139 001a 7047     		bx	lr
 140              	.L9:
 141              		.align	2
 142              	.L8:
 143 001c 00000000 		.word	NSDSPI_g_nTransferFlags
 144              		.cfi_endproc
ARM GAS  C:\Users\HPz420\AppData\Local\Temp\ccz8Yfav.s 			page 4


 145              	.LFE2:
 146              		.size	NSDSPI_TX_DMA_ISR, .-NSDSPI_TX_DMA_ISR
 147              		.section	.text.NSDSPI_Start,"ax",%progbits
 148              		.align	2
 149              		.global	NSDSPI_Start
 150              		.thumb
 151              		.thumb_func
 152              		.type	NSDSPI_Start, %function
 153              	NSDSPI_Start:
 154              	.LFB3:
  28:Generated_Source\PSoC5/NSDSPI_funcs.c **** 
  29:Generated_Source\PSoC5/NSDSPI_funcs.c **** 
  30:Generated_Source\PSoC5/NSDSPI_funcs.c **** void NSDSPI_Start(NSDSPI_VOIDFXN FnSelSlowCk, NSDSPI_VOIDFXN FnSelFastCk, NSDSPI_PRNTFXN FnPrint)
  31:Generated_Source\PSoC5/NSDSPI_funcs.c **** {
 155              		.loc 1 31 0
 156              		.cfi_startproc
 157              		@ args = 0, pretend = 0, frame = 56
 158              		@ frame_needed = 1, uses_anonymous_args = 0
 159 0000 80B5     		push	{r7, lr}
 160              		.cfi_def_cfa_offset 8
 161              		.cfi_offset 7, -8
 162              		.cfi_offset 14, -4
 163 0002 8EB0     		sub	sp, sp, #56
 164              		.cfi_def_cfa_offset 64
 165 0004 00AF     		add	r7, sp, #0
 166              		.cfi_def_cfa_register 7
 167 0006 F860     		str	r0, [r7, #12]
 168 0008 B960     		str	r1, [r7, #8]
 169 000a 7A60     		str	r2, [r7, #4]
  32:Generated_Source\PSoC5/NSDSPI_funcs.c ****     NSDSPI_bEnableDMA = 0;
 170              		.loc 1 32 0
 171 000c 0F4B     		ldr	r3, .L11
 172 000e 0022     		movs	r2, #0
 173 0010 1A70     		strb	r2, [r3]
  33:Generated_Source\PSoC5/NSDSPI_funcs.c ****     SPI_FUNCTIONS SpiFuncs;
  34:Generated_Source\PSoC5/NSDSPI_funcs.c ****     SpiFuncs.SPSTART = NSDSPI_StartInterface;
 174              		.loc 1 34 0
 175 0012 0F4B     		ldr	r3, .L11+4
 176 0014 3B62     		str	r3, [r7, #32]
  35:Generated_Source\PSoC5/NSDSPI_funcs.c ****     SpiFuncs.SPSTOP = NSDSPI_Stop;
 177              		.loc 1 35 0
 178 0016 0F4B     		ldr	r3, .L11+8
 179 0018 7B62     		str	r3, [r7, #36]
  36:Generated_Source\PSoC5/NSDSPI_funcs.c ****     SpiFuncs.SPRXSTREAM = NSDSPI_ReceiveData;
 180              		.loc 1 36 0
 181 001a 0F4B     		ldr	r3, .L11+12
 182 001c FB62     		str	r3, [r7, #44]
  37:Generated_Source\PSoC5/NSDSPI_funcs.c ****     SpiFuncs.SPTXSTREAM = NSDSPI_SendData;
 183              		.loc 1 37 0
 184 001e 0F4B     		ldr	r3, .L11+16
 185 0020 3B63     		str	r3, [r7, #48]
  38:Generated_Source\PSoC5/NSDSPI_funcs.c ****     SpiFuncs.SPEXCHANGE = NSDSPI_SwapByte;
 186              		.loc 1 38 0
 187 0022 0F4B     		ldr	r3, .L11+20
 188 0024 BB62     		str	r3, [r7, #40]
  39:Generated_Source\PSoC5/NSDSPI_funcs.c ****     SpiFuncs.SPSELECTCARD = NSDSPI_SelectCard;
 189              		.loc 1 39 0
ARM GAS  C:\Users\HPz420\AppData\Local\Temp\ccz8Yfav.s 			page 5


 190 0026 0F4B     		ldr	r3, .L11+24
 191 0028 3B61     		str	r3, [r7, #16]
  40:Generated_Source\PSoC5/NSDSPI_funcs.c ****     SpiFuncs.SPDESELECTCARD = NSDSPI_DeselectCard;
 192              		.loc 1 40 0
 193 002a 0F4B     		ldr	r3, .L11+28
 194 002c 7B61     		str	r3, [r7, #20]
  41:Generated_Source\PSoC5/NSDSPI_funcs.c ****     SpiFuncs.SPFASTCK = FnSelFastCk;
 195              		.loc 1 41 0
 196 002e BB68     		ldr	r3, [r7, #8]
 197 0030 FB61     		str	r3, [r7, #28]
  42:Generated_Source\PSoC5/NSDSPI_funcs.c ****     SpiFuncs.SPSLOWCK = FnSelSlowCk;
 198              		.loc 1 42 0
 199 0032 FB68     		ldr	r3, [r7, #12]
 200 0034 BB61     		str	r3, [r7, #24]
  43:Generated_Source\PSoC5/NSDSPI_funcs.c **** 
  44:Generated_Source\PSoC5/NSDSPI_funcs.c ****     SpiFuncs.PRINT = FnPrint;
 201              		.loc 1 44 0
 202 0036 7B68     		ldr	r3, [r7, #4]
 203 0038 7B63     		str	r3, [r7, #52]
  45:Generated_Source\PSoC5/NSDSPI_funcs.c ****     disk_attach_spifuncs(&SpiFuncs);   
 204              		.loc 1 45 0
 205 003a 07F11003 		add	r3, r7, #16
 206 003e 1846     		mov	r0, r3
 207 0040 FFF7FEFF 		bl	disk_attach_spifuncs
  46:Generated_Source\PSoC5/NSDSPI_funcs.c **** }
 208              		.loc 1 46 0
 209 0044 00BF     		nop
 210 0046 3837     		adds	r7, r7, #56
 211              		.cfi_def_cfa_offset 8
 212 0048 BD46     		mov	sp, r7
 213              		.cfi_def_cfa_register 13
 214              		@ sp needed
 215 004a 80BD     		pop	{r7, pc}
 216              	.L12:
 217              		.align	2
 218              	.L11:
 219 004c 00000000 		.word	NSDSPI_bEnableDMA
 220 0050 00000000 		.word	NSDSPI_StartInterface
 221 0054 00000000 		.word	NSDSPI_Stop
 222 0058 00000000 		.word	NSDSPI_ReceiveData
 223 005c 00000000 		.word	NSDSPI_SendData
 224 0060 00000000 		.word	NSDSPI_SwapByte
 225 0064 00000000 		.word	NSDSPI_SelectCard
 226 0068 00000000 		.word	NSDSPI_DeselectCard
 227              		.cfi_endproc
 228              	.LFE3:
 229              		.size	NSDSPI_Start, .-NSDSPI_Start
 230              		.section	.text.NSDSPI_StartInterface,"ax",%progbits
 231              		.align	2
 232              		.global	NSDSPI_StartInterface
 233              		.thumb
 234              		.thumb_func
 235              		.type	NSDSPI_StartInterface, %function
 236              	NSDSPI_StartInterface:
 237              	.LFB4:
  47:Generated_Source\PSoC5/NSDSPI_funcs.c **** 
  48:Generated_Source\PSoC5/NSDSPI_funcs.c **** 
ARM GAS  C:\Users\HPz420\AppData\Local\Temp\ccz8Yfav.s 			page 6


  49:Generated_Source\PSoC5/NSDSPI_funcs.c **** //initialise component, attach ISRs, etc.
  50:Generated_Source\PSoC5/NSDSPI_funcs.c **** void NSDSPI_StartInterface(void)
  51:Generated_Source\PSoC5/NSDSPI_funcs.c **** {  
 238              		.loc 1 51 0
 239              		.cfi_startproc
 240              		@ args = 0, pretend = 0, frame = 0
 241              		@ frame_needed = 1, uses_anonymous_args = 0
 242 0000 80B5     		push	{r7, lr}
 243              		.cfi_def_cfa_offset 8
 244              		.cfi_offset 7, -8
 245              		.cfi_offset 14, -4
 246 0002 00AF     		add	r7, sp, #0
 247              		.cfi_def_cfa_register 7
  52:Generated_Source\PSoC5/NSDSPI_funcs.c ****     NSDSPI_UDB_BIT_COUNTER_Start();
 248              		.loc 1 52 0
 249 0004 FFF7FEFF 		bl	NSDSPI_UDB_BIT_COUNTER_Start
  53:Generated_Source\PSoC5/NSDSPI_funcs.c ****     NSDSPI_g_nTransferFlags = 0;
 250              		.loc 1 53 0
 251 0008 294B     		ldr	r3, .L14
 252 000a 0022     		movs	r2, #0
 253 000c 1A70     		strb	r2, [r3]
  54:Generated_Source\PSoC5/NSDSPI_funcs.c ****     NSDSPI_g_nCtrlState = 1;
 254              		.loc 1 54 0
 255 000e 294B     		ldr	r3, .L14+4
 256 0010 0122     		movs	r2, #1
 257 0012 1A70     		strb	r2, [r3]
  55:Generated_Source\PSoC5/NSDSPI_funcs.c ****     NSDSPI_CTRL_Write(0x05);      //reset pulse to make sure bulk receive isn't active
 258              		.loc 1 55 0
 259 0014 0520     		movs	r0, #5
 260 0016 FFF7FEFF 		bl	NSDSPI_CTRL_Write
  56:Generated_Source\PSoC5/NSDSPI_funcs.c ****     NSDSPI_UDB_SPI_DPTH_F0_CLEAR;
 261              		.loc 1 56 0
 262 001a 274A     		ldr	r2, .L14+8
 263 001c 264B     		ldr	r3, .L14+8
 264 001e 1B78     		ldrb	r3, [r3]
 265 0020 DBB2     		uxtb	r3, r3
 266 0022 43F00103 		orr	r3, r3, #1
 267 0026 DBB2     		uxtb	r3, r3
 268 0028 1370     		strb	r3, [r2]
 269 002a 234A     		ldr	r2, .L14+8
 270 002c 224B     		ldr	r3, .L14+8
 271 002e 1B78     		ldrb	r3, [r3]
 272 0030 DBB2     		uxtb	r3, r3
 273 0032 23F00103 		bic	r3, r3, #1
 274 0036 DBB2     		uxtb	r3, r3
 275 0038 1370     		strb	r3, [r2]
  57:Generated_Source\PSoC5/NSDSPI_funcs.c ****     NSDSPI_UDB_SPI_DPTH_F1_CLEAR;     //clear FIFO buffers
 276              		.loc 1 57 0
 277 003a 1F4A     		ldr	r2, .L14+8
 278 003c 1E4B     		ldr	r3, .L14+8
 279 003e 1B78     		ldrb	r3, [r3]
 280 0040 DBB2     		uxtb	r3, r3
 281 0042 43F00203 		orr	r3, r3, #2
 282 0046 DBB2     		uxtb	r3, r3
 283 0048 1370     		strb	r3, [r2]
 284 004a 1B4A     		ldr	r2, .L14+8
 285 004c 1A4B     		ldr	r3, .L14+8
ARM GAS  C:\Users\HPz420\AppData\Local\Temp\ccz8Yfav.s 			page 7


 286 004e 1B78     		ldrb	r3, [r3]
 287 0050 DBB2     		uxtb	r3, r3
 288 0052 23F00203 		bic	r3, r3, #2
 289 0056 DBB2     		uxtb	r3, r3
 290 0058 1370     		strb	r3, [r2]
  58:Generated_Source\PSoC5/NSDSPI_funcs.c ****     NSDSPI_RX_BYTE_COUNTER_Start();
 291              		.loc 1 58 0
 292 005a FFF7FEFF 		bl	NSDSPI_RX_BYTE_COUNTER_Start
  59:Generated_Source\PSoC5/NSDSPI_funcs.c ****     
  60:Generated_Source\PSoC5/NSDSPI_funcs.c ****     NSDSPI_RX_ISR_StartEx(NSDSPI_RX_ISR);
 293              		.loc 1 60 0
 294 005e 1748     		ldr	r0, .L14+12
 295 0060 FFF7FEFF 		bl	NSDSPI_RX_ISR_StartEx
  61:Generated_Source\PSoC5/NSDSPI_funcs.c ****     
  62:Generated_Source\PSoC5/NSDSPI_funcs.c ****     NSDSPI_UDB_SPI_DPTH_F0_CLEAR;
 296              		.loc 1 62 0
 297 0064 144A     		ldr	r2, .L14+8
 298 0066 144B     		ldr	r3, .L14+8
 299 0068 1B78     		ldrb	r3, [r3]
 300 006a DBB2     		uxtb	r3, r3
 301 006c 43F00103 		orr	r3, r3, #1
 302 0070 DBB2     		uxtb	r3, r3
 303 0072 1370     		strb	r3, [r2]
 304 0074 104A     		ldr	r2, .L14+8
 305 0076 104B     		ldr	r3, .L14+8
 306 0078 1B78     		ldrb	r3, [r3]
 307 007a DBB2     		uxtb	r3, r3
 308 007c 23F00103 		bic	r3, r3, #1
 309 0080 DBB2     		uxtb	r3, r3
 310 0082 1370     		strb	r3, [r2]
  63:Generated_Source\PSoC5/NSDSPI_funcs.c ****     NSDSPI_UDB_SPI_DPTH_F1_CLEAR;     //clear FIFO buffers
 311              		.loc 1 63 0
 312 0084 0C4A     		ldr	r2, .L14+8
 313 0086 0C4B     		ldr	r3, .L14+8
 314 0088 1B78     		ldrb	r3, [r3]
 315 008a DBB2     		uxtb	r3, r3
 316 008c 43F00203 		orr	r3, r3, #2
 317 0090 DBB2     		uxtb	r3, r3
 318 0092 1370     		strb	r3, [r2]
 319 0094 084A     		ldr	r2, .L14+8
 320 0096 084B     		ldr	r3, .L14+8
 321 0098 1B78     		ldrb	r3, [r3]
 322 009a DBB2     		uxtb	r3, r3
 323 009c 23F00203 		bic	r3, r3, #2
 324 00a0 DBB2     		uxtb	r3, r3
 325 00a2 1370     		strb	r3, [r2]
  64:Generated_Source\PSoC5/NSDSPI_funcs.c **** 
  65:Generated_Source\PSoC5/NSDSPI_funcs.c ****     NSDSPI_SetDMAMode(1);
 326              		.loc 1 65 0
 327 00a4 0120     		movs	r0, #1
 328 00a6 FFF7FEFF 		bl	NSDSPI_SetDMAMode
  66:Generated_Source\PSoC5/NSDSPI_funcs.c **** }
 329              		.loc 1 66 0
 330 00aa 00BF     		nop
 331 00ac 80BD     		pop	{r7, pc}
 332              	.L15:
 333 00ae 00BF     		.align	2
ARM GAS  C:\Users\HPz420\AppData\Local\Temp\ccz8Yfav.s 			page 8


 334              	.L14:
 335 00b0 00000000 		.word	NSDSPI_g_nTransferFlags
 336 00b4 00000000 		.word	NSDSPI_g_nCtrlState
 337 00b8 9C640040 		.word	1073767580
 338 00bc 00000000 		.word	NSDSPI_RX_ISR
 339              		.cfi_endproc
 340              	.LFE4:
 341              		.size	NSDSPI_StartInterface, .-NSDSPI_StartInterface
 342              		.section	.text.NSDSPI_Stop,"ax",%progbits
 343              		.align	2
 344              		.global	NSDSPI_Stop
 345              		.thumb
 346              		.thumb_func
 347              		.type	NSDSPI_Stop, %function
 348              	NSDSPI_Stop:
 349              	.LFB5:
  67:Generated_Source\PSoC5/NSDSPI_funcs.c **** 
  68:Generated_Source\PSoC5/NSDSPI_funcs.c **** 
  69:Generated_Source\PSoC5/NSDSPI_funcs.c **** 
  70:Generated_Source\PSoC5/NSDSPI_funcs.c **** void NSDSPI_Stop()
  71:Generated_Source\PSoC5/NSDSPI_funcs.c **** {
 350              		.loc 1 71 0
 351              		.cfi_startproc
 352              		@ args = 0, pretend = 0, frame = 0
 353              		@ frame_needed = 1, uses_anonymous_args = 0
 354 0000 80B5     		push	{r7, lr}
 355              		.cfi_def_cfa_offset 8
 356              		.cfi_offset 7, -8
 357              		.cfi_offset 14, -4
 358 0002 00AF     		add	r7, sp, #0
 359              		.cfi_def_cfa_register 7
  72:Generated_Source\PSoC5/NSDSPI_funcs.c ****     if(NSDSPI_bEnableDMA)
 360              		.loc 1 72 0
 361 0004 0A4B     		ldr	r3, .L18
 362 0006 1B78     		ldrb	r3, [r3]	@ zero_extendqisi2
 363 0008 002B     		cmp	r3, #0
 364 000a 07D0     		beq	.L17
  73:Generated_Source\PSoC5/NSDSPI_funcs.c ****     {
  74:Generated_Source\PSoC5/NSDSPI_funcs.c ****         NSDSPI_RX_DMA_ISR_Stop();
 365              		.loc 1 74 0
 366 000c FFF7FEFF 		bl	NSDSPI_RX_DMA_ISR_Stop
  75:Generated_Source\PSoC5/NSDSPI_funcs.c ****         NSDSPI_TX_DMA_ISR_Stop();
 367              		.loc 1 75 0
 368 0010 FFF7FEFF 		bl	NSDSPI_TX_DMA_ISR_Stop
  76:Generated_Source\PSoC5/NSDSPI_funcs.c ****         NSDSPI_RX_DmaRelease();
 369              		.loc 1 76 0
 370 0014 FFF7FEFF 		bl	NSDSPI_RX_DmaRelease
  77:Generated_Source\PSoC5/NSDSPI_funcs.c ****         NSDSPI_TX_DmaRelease();
 371              		.loc 1 77 0
 372 0018 FFF7FEFF 		bl	NSDSPI_TX_DmaRelease
 373              	.L17:
  78:Generated_Source\PSoC5/NSDSPI_funcs.c ****     }
  79:Generated_Source\PSoC5/NSDSPI_funcs.c ****     NSDSPI_DeselectCard();
 374              		.loc 1 79 0
 375 001c FFF7FEFF 		bl	NSDSPI_DeselectCard
  80:Generated_Source\PSoC5/NSDSPI_funcs.c ****     NSDSPI_RX_ISR_Stop();    
 376              		.loc 1 80 0
ARM GAS  C:\Users\HPz420\AppData\Local\Temp\ccz8Yfav.s 			page 9


 377 0020 FFF7FEFF 		bl	NSDSPI_RX_ISR_Stop
  81:Generated_Source\PSoC5/NSDSPI_funcs.c ****     NSDSPI_RX_BYTE_COUNTER_Stop();
 378              		.loc 1 81 0
 379 0024 FFF7FEFF 		bl	NSDSPI_RX_BYTE_COUNTER_Stop
  82:Generated_Source\PSoC5/NSDSPI_funcs.c ****     NSDSPI_UDB_BIT_COUNTER_Stop();
 380              		.loc 1 82 0
 381 0028 FFF7FEFF 		bl	NSDSPI_UDB_BIT_COUNTER_Stop
  83:Generated_Source\PSoC5/NSDSPI_funcs.c **** }
 382              		.loc 1 83 0
 383 002c 00BF     		nop
 384 002e 80BD     		pop	{r7, pc}
 385              	.L19:
 386              		.align	2
 387              	.L18:
 388 0030 00000000 		.word	NSDSPI_bEnableDMA
 389              		.cfi_endproc
 390              	.LFE5:
 391              		.size	NSDSPI_Stop, .-NSDSPI_Stop
 392              		.section	.text.NSDSPI_SelectCard,"ax",%progbits
 393              		.align	2
 394              		.global	NSDSPI_SelectCard
 395              		.thumb
 396              		.thumb_func
 397              		.type	NSDSPI_SelectCard, %function
 398              	NSDSPI_SelectCard:
 399              	.LFB6:
  84:Generated_Source\PSoC5/NSDSPI_funcs.c **** 
  85:Generated_Source\PSoC5/NSDSPI_funcs.c **** 
  86:Generated_Source\PSoC5/NSDSPI_funcs.c **** void NSDSPI_SelectCard()
  87:Generated_Source\PSoC5/NSDSPI_funcs.c **** {
 400              		.loc 1 87 0
 401              		.cfi_startproc
 402              		@ args = 0, pretend = 0, frame = 0
 403              		@ frame_needed = 1, uses_anonymous_args = 0
 404 0000 80B5     		push	{r7, lr}
 405              		.cfi_def_cfa_offset 8
 406              		.cfi_offset 7, -8
 407              		.cfi_offset 14, -4
 408 0002 00AF     		add	r7, sp, #0
 409              		.cfi_def_cfa_register 7
  88:Generated_Source\PSoC5/NSDSPI_funcs.c ****     NSDSPI_g_nCtrlState &= ~0x01;
 410              		.loc 1 88 0
 411 0004 074B     		ldr	r3, .L21
 412 0006 1B78     		ldrb	r3, [r3]
 413 0008 DBB2     		uxtb	r3, r3
 414 000a 23F00103 		bic	r3, r3, #1
 415 000e DAB2     		uxtb	r2, r3
 416 0010 044B     		ldr	r3, .L21
 417 0012 1A70     		strb	r2, [r3]
  89:Generated_Source\PSoC5/NSDSPI_funcs.c ****     NSDSPI_CTRL_Write(NSDSPI_g_nCtrlState);
 418              		.loc 1 89 0
 419 0014 034B     		ldr	r3, .L21
 420 0016 1B78     		ldrb	r3, [r3]
 421 0018 DBB2     		uxtb	r3, r3
 422 001a 1846     		mov	r0, r3
 423 001c FFF7FEFF 		bl	NSDSPI_CTRL_Write
  90:Generated_Source\PSoC5/NSDSPI_funcs.c **** }
ARM GAS  C:\Users\HPz420\AppData\Local\Temp\ccz8Yfav.s 			page 10


 424              		.loc 1 90 0
 425 0020 00BF     		nop
 426 0022 80BD     		pop	{r7, pc}
 427              	.L22:
 428              		.align	2
 429              	.L21:
 430 0024 00000000 		.word	NSDSPI_g_nCtrlState
 431              		.cfi_endproc
 432              	.LFE6:
 433              		.size	NSDSPI_SelectCard, .-NSDSPI_SelectCard
 434              		.section	.text.NSDSPI_DeselectCard,"ax",%progbits
 435              		.align	2
 436              		.global	NSDSPI_DeselectCard
 437              		.thumb
 438              		.thumb_func
 439              		.type	NSDSPI_DeselectCard, %function
 440              	NSDSPI_DeselectCard:
 441              	.LFB7:
  91:Generated_Source\PSoC5/NSDSPI_funcs.c **** 
  92:Generated_Source\PSoC5/NSDSPI_funcs.c **** void NSDSPI_DeselectCard()
  93:Generated_Source\PSoC5/NSDSPI_funcs.c **** {
 442              		.loc 1 93 0
 443              		.cfi_startproc
 444              		@ args = 0, pretend = 0, frame = 0
 445              		@ frame_needed = 1, uses_anonymous_args = 0
 446 0000 80B5     		push	{r7, lr}
 447              		.cfi_def_cfa_offset 8
 448              		.cfi_offset 7, -8
 449              		.cfi_offset 14, -4
 450 0002 00AF     		add	r7, sp, #0
 451              		.cfi_def_cfa_register 7
  94:Generated_Source\PSoC5/NSDSPI_funcs.c ****     NSDSPI_g_nCtrlState |= 0x01;
 452              		.loc 1 94 0
 453 0004 074B     		ldr	r3, .L24
 454 0006 1B78     		ldrb	r3, [r3]
 455 0008 DBB2     		uxtb	r3, r3
 456 000a 43F00103 		orr	r3, r3, #1
 457 000e DAB2     		uxtb	r2, r3
 458 0010 044B     		ldr	r3, .L24
 459 0012 1A70     		strb	r2, [r3]
  95:Generated_Source\PSoC5/NSDSPI_funcs.c ****     NSDSPI_CTRL_Write(NSDSPI_g_nCtrlState);
 460              		.loc 1 95 0
 461 0014 034B     		ldr	r3, .L24
 462 0016 1B78     		ldrb	r3, [r3]
 463 0018 DBB2     		uxtb	r3, r3
 464 001a 1846     		mov	r0, r3
 465 001c FFF7FEFF 		bl	NSDSPI_CTRL_Write
  96:Generated_Source\PSoC5/NSDSPI_funcs.c **** }
 466              		.loc 1 96 0
 467 0020 00BF     		nop
 468 0022 80BD     		pop	{r7, pc}
 469              	.L25:
 470              		.align	2
 471              	.L24:
 472 0024 00000000 		.word	NSDSPI_g_nCtrlState
 473              		.cfi_endproc
 474              	.LFE7:
ARM GAS  C:\Users\HPz420\AppData\Local\Temp\ccz8Yfav.s 			page 11


 475              		.size	NSDSPI_DeselectCard, .-NSDSPI_DeselectCard
 476              		.section	.text.NSDSPI_SendData,"ax",%progbits
 477              		.align	2
 478              		.global	NSDSPI_SendData
 479              		.thumb
 480              		.thumb_func
 481              		.type	NSDSPI_SendData, %function
 482              	NSDSPI_SendData:
 483              	.LFB8:
  97:Generated_Source\PSoC5/NSDSPI_funcs.c **** 
  98:Generated_Source\PSoC5/NSDSPI_funcs.c **** //Send a block of data and discard received bytes.
  99:Generated_Source\PSoC5/NSDSPI_funcs.c **** void NSDSPI_SendData(unsigned char* pBuffer, unsigned int nLength)
 100:Generated_Source\PSoC5/NSDSPI_funcs.c **** {
 484              		.loc 1 100 0
 485              		.cfi_startproc
 486              		@ args = 0, pretend = 0, frame = 16
 487              		@ frame_needed = 1, uses_anonymous_args = 0
 488 0000 80B5     		push	{r7, lr}
 489              		.cfi_def_cfa_offset 8
 490              		.cfi_offset 7, -8
 491              		.cfi_offset 14, -4
 492 0002 84B0     		sub	sp, sp, #16
 493              		.cfi_def_cfa_offset 24
 494 0004 00AF     		add	r7, sp, #0
 495              		.cfi_def_cfa_register 7
 496 0006 7860     		str	r0, [r7, #4]
 497 0008 3960     		str	r1, [r7]
 101:Generated_Source\PSoC5/NSDSPI_funcs.c ****     if((nLength > 4095)||(nLength < 1))
 498              		.loc 1 101 0
 499 000a 3B68     		ldr	r3, [r7]
 500 000c B3F5805F 		cmp	r3, #4096
 501 0010 70D2     		bcs	.L34
 502              		.loc 1 101 0 is_stmt 0 discriminator 1
 503 0012 3B68     		ldr	r3, [r7]
 504 0014 002B     		cmp	r3, #0
 505 0016 6DD0     		beq	.L34
 102:Generated_Source\PSoC5/NSDSPI_funcs.c ****         return; //this never happens - filesys transfers max. 512 bytes at a time
 103:Generated_Source\PSoC5/NSDSPI_funcs.c ****     if(NSDSPI_bEnableDMA)
 506              		.loc 1 103 0 is_stmt 1
 507 0018 384B     		ldr	r3, .L35
 508 001a 1B78     		ldrb	r3, [r3]	@ zero_extendqisi2
 509 001c 002B     		cmp	r3, #0
 510 001e 57D0     		beq	.L30
 104:Generated_Source\PSoC5/NSDSPI_funcs.c ****     {
 105:Generated_Source\PSoC5/NSDSPI_funcs.c ****         //Fast (DMA) implementation...
 106:Generated_Source\PSoC5/NSDSPI_funcs.c ****         
 107:Generated_Source\PSoC5/NSDSPI_funcs.c ****         NSDSPI_TX_TD[0] = CyDmaTdAllocate();
 511              		.loc 1 107 0
 512 0020 FFF7FEFF 		bl	CyDmaTdAllocate
 513 0024 0346     		mov	r3, r0
 514 0026 1A46     		mov	r2, r3
 515 0028 354B     		ldr	r3, .L35+4
 516 002a 1A70     		strb	r2, [r3]
 108:Generated_Source\PSoC5/NSDSPI_funcs.c ****         CyDmaTdSetConfiguration(NSDSPI_TX_TD[0], nLength, CY_DMA_DISABLE_TD, NSDSPI_TX__TD_TERMOUT_
 517              		.loc 1 108 0
 518 002c 344B     		ldr	r3, .L35+4
 519 002e 1878     		ldrb	r0, [r3]	@ zero_extendqisi2
ARM GAS  C:\Users\HPz420\AppData\Local\Temp\ccz8Yfav.s 			page 12


 520 0030 3B68     		ldr	r3, [r7]
 521 0032 99B2     		uxth	r1, r3
 522 0034 0523     		movs	r3, #5
 523 0036 FE22     		movs	r2, #254
 524 0038 FFF7FEFF 		bl	CyDmaTdSetConfiguration
 109:Generated_Source\PSoC5/NSDSPI_funcs.c ****         CyDmaTdSetAddress(NSDSPI_TX_TD[0], LO16((uint32)pBuffer), LO16((uint32)NSDSPI_UDB_SPI_DPTH_
 525              		.loc 1 109 0
 526 003c 304B     		ldr	r3, .L35+4
 527 003e 1B78     		ldrb	r3, [r3]	@ zero_extendqisi2
 528 0040 7A68     		ldr	r2, [r7, #4]
 529 0042 91B2     		uxth	r1, r2
 530 0044 46F24C42 		movw	r2, #25676
 531 0048 1846     		mov	r0, r3
 532 004a FFF7FEFF 		bl	CyDmaTdSetAddress
 110:Generated_Source\PSoC5/NSDSPI_funcs.c ****         CyDmaChSetInitialTd(NSDSPI_TX_Chan, NSDSPI_TX_TD[0]);
 533              		.loc 1 110 0
 534 004e 2D4B     		ldr	r3, .L35+8
 535 0050 1A78     		ldrb	r2, [r3]	@ zero_extendqisi2
 536 0052 2B4B     		ldr	r3, .L35+4
 537 0054 1B78     		ldrb	r3, [r3]	@ zero_extendqisi2
 538 0056 1946     		mov	r1, r3
 539 0058 1046     		mov	r0, r2
 540 005a FFF7FEFF 		bl	CyDmaChSetInitialTd
 111:Generated_Source\PSoC5/NSDSPI_funcs.c ****     
 112:Generated_Source\PSoC5/NSDSPI_funcs.c ****         CyDmaClearPendingDrq(NSDSPI_TX_Chan);
 541              		.loc 1 112 0
 542 005e 294B     		ldr	r3, .L35+8
 543 0060 1B78     		ldrb	r3, [r3]	@ zero_extendqisi2
 544 0062 1846     		mov	r0, r3
 545 0064 FFF7FEFF 		bl	CyDmaClearPendingDrq
 113:Generated_Source\PSoC5/NSDSPI_funcs.c ****         NSDSPI_g_nTransferFlags |= NSDSPI_TRANSFER_WAIT_TXDMAISR;   //set flag
 546              		.loc 1 113 0
 547 0068 274B     		ldr	r3, .L35+12
 548 006a 1B78     		ldrb	r3, [r3]
 549 006c DBB2     		uxtb	r3, r3
 550 006e 43F00403 		orr	r3, r3, #4
 551 0072 DAB2     		uxtb	r2, r3
 552 0074 244B     		ldr	r3, .L35+12
 553 0076 1A70     		strb	r2, [r3]
 114:Generated_Source\PSoC5/NSDSPI_funcs.c ****         CyDmaChEnable(NSDSPI_TX_Chan, 1);         //this will start the transfer
 554              		.loc 1 114 0
 555 0078 224B     		ldr	r3, .L35+8
 556 007a 1B78     		ldrb	r3, [r3]	@ zero_extendqisi2
 557 007c 0121     		movs	r1, #1
 558 007e 1846     		mov	r0, r3
 559 0080 FFF7FEFF 		bl	CyDmaChEnable
 115:Generated_Source\PSoC5/NSDSPI_funcs.c ****         while(NSDSPI_g_nTransferFlags & NSDSPI_TRANSFER_WAIT_TXDMAISR); //wait for flag to clear
 560              		.loc 1 115 0
 561 0084 00BF     		nop
 562              	.L31:
 563              		.loc 1 115 0 is_stmt 0 discriminator 1
 564 0086 204B     		ldr	r3, .L35+12
 565 0088 1B78     		ldrb	r3, [r3]
 566 008a DBB2     		uxtb	r3, r3
 567 008c 03F00403 		and	r3, r3, #4
 568 0090 002B     		cmp	r3, #0
 569 0092 F8D1     		bne	.L31
ARM GAS  C:\Users\HPz420\AppData\Local\Temp\ccz8Yfav.s 			page 13


 116:Generated_Source\PSoC5/NSDSPI_funcs.c ****         
 117:Generated_Source\PSoC5/NSDSPI_funcs.c ****         CyDmaChSetRequest(NSDSPI_TX_Chan, CPU_TERM_CHAIN);
 570              		.loc 1 117 0 is_stmt 1
 571 0094 1B4B     		ldr	r3, .L35+8
 572 0096 1B78     		ldrb	r3, [r3]	@ zero_extendqisi2
 573 0098 0421     		movs	r1, #4
 574 009a 1846     		mov	r0, r3
 575 009c FFF7FEFF 		bl	CyDmaChSetRequest
 118:Generated_Source\PSoC5/NSDSPI_funcs.c ****         CyDmaTdFree(NSDSPI_TX_TD[0]);                       //Free Transfer Descriptor    
 576              		.loc 1 118 0
 577 00a0 174B     		ldr	r3, .L35+4
 578 00a2 1B78     		ldrb	r3, [r3]	@ zero_extendqisi2
 579 00a4 1846     		mov	r0, r3
 580 00a6 FFF7FEFF 		bl	CyDmaTdFree
 119:Generated_Source\PSoC5/NSDSPI_funcs.c ****     
 120:Generated_Source\PSoC5/NSDSPI_funcs.c ****         NSDSPI_UDB_SPI_DPTH_F1_CLEAR;     //clear output FIFO buffer
 581              		.loc 1 120 0
 582 00aa 184A     		ldr	r2, .L35+16
 583 00ac 174B     		ldr	r3, .L35+16
 584 00ae 1B78     		ldrb	r3, [r3]
 585 00b0 DBB2     		uxtb	r3, r3
 586 00b2 43F00203 		orr	r3, r3, #2
 587 00b6 DBB2     		uxtb	r3, r3
 588 00b8 1370     		strb	r3, [r2]
 589 00ba 144A     		ldr	r2, .L35+16
 590 00bc 134B     		ldr	r3, .L35+16
 591 00be 1B78     		ldrb	r3, [r3]
 592 00c0 DBB2     		uxtb	r3, r3
 593 00c2 23F00203 		bic	r3, r3, #2
 594 00c6 DBB2     		uxtb	r3, r3
 595 00c8 1370     		strb	r3, [r2]
 121:Generated_Source\PSoC5/NSDSPI_funcs.c ****         NSDSPI_RX_ISR_ClearPending(); //clear pending interrupt from RX_ISR (non-DMA)
 596              		.loc 1 121 0
 597 00ca FFF7FEFF 		bl	NSDSPI_RX_ISR_ClearPending
 122:Generated_Source\PSoC5/NSDSPI_funcs.c ****         return;
 598              		.loc 1 122 0
 599 00ce 12E0     		b	.L26
 600              	.L30:
 123:Generated_Source\PSoC5/NSDSPI_funcs.c ****     }
 124:Generated_Source\PSoC5/NSDSPI_funcs.c ****     
 125:Generated_Source\PSoC5/NSDSPI_funcs.c ****     //Slow (non DMA) implementation...
 126:Generated_Source\PSoC5/NSDSPI_funcs.c ****     unsigned int i;
 127:Generated_Source\PSoC5/NSDSPI_funcs.c ****     for(i = 0; i < nLength; i++)
 601              		.loc 1 127 0
 602 00d0 0023     		movs	r3, #0
 603 00d2 FB60     		str	r3, [r7, #12]
 604 00d4 09E0     		b	.L32
 605              	.L33:
 128:Generated_Source\PSoC5/NSDSPI_funcs.c ****         NSDSPI_SwapByte(pBuffer[i]);
 606              		.loc 1 128 0 discriminator 3
 607 00d6 7A68     		ldr	r2, [r7, #4]
 608 00d8 FB68     		ldr	r3, [r7, #12]
 609 00da 1344     		add	r3, r3, r2
 610 00dc 1B78     		ldrb	r3, [r3]	@ zero_extendqisi2
 611 00de 1846     		mov	r0, r3
 612 00e0 FFF7FEFF 		bl	NSDSPI_SwapByte
 127:Generated_Source\PSoC5/NSDSPI_funcs.c ****         NSDSPI_SwapByte(pBuffer[i]);
ARM GAS  C:\Users\HPz420\AppData\Local\Temp\ccz8Yfav.s 			page 14


 613              		.loc 1 127 0 discriminator 3
 614 00e4 FB68     		ldr	r3, [r7, #12]
 615 00e6 0133     		adds	r3, r3, #1
 616 00e8 FB60     		str	r3, [r7, #12]
 617              	.L32:
 127:Generated_Source\PSoC5/NSDSPI_funcs.c ****         NSDSPI_SwapByte(pBuffer[i]);
 618              		.loc 1 127 0 is_stmt 0 discriminator 1
 619 00ea FA68     		ldr	r2, [r7, #12]
 620 00ec 3B68     		ldr	r3, [r7]
 621 00ee 9A42     		cmp	r2, r3
 622 00f0 F1D3     		bcc	.L33
 623 00f2 00E0     		b	.L26
 624              	.L34:
 102:Generated_Source\PSoC5/NSDSPI_funcs.c ****     if(NSDSPI_bEnableDMA)
 625              		.loc 1 102 0 is_stmt 1
 626 00f4 00BF     		nop
 627              	.L26:
 129:Generated_Source\PSoC5/NSDSPI_funcs.c **** }
 628              		.loc 1 129 0
 629 00f6 1037     		adds	r7, r7, #16
 630              		.cfi_def_cfa_offset 8
 631 00f8 BD46     		mov	sp, r7
 632              		.cfi_def_cfa_register 13
 633              		@ sp needed
 634 00fa 80BD     		pop	{r7, pc}
 635              	.L36:
 636              		.align	2
 637              	.L35:
 638 00fc 00000000 		.word	NSDSPI_bEnableDMA
 639 0100 00000000 		.word	NSDSPI_TX_TD
 640 0104 00000000 		.word	NSDSPI_TX_Chan
 641 0108 00000000 		.word	NSDSPI_g_nTransferFlags
 642 010c 9C640040 		.word	1073767580
 643              		.cfi_endproc
 644              	.LFE8:
 645              		.size	NSDSPI_SendData, .-NSDSPI_SendData
 646              		.section	.text.NSDSPI_ReceiveData,"ax",%progbits
 647              		.align	2
 648              		.global	NSDSPI_ReceiveData
 649              		.thumb
 650              		.thumb_func
 651              		.type	NSDSPI_ReceiveData, %function
 652              	NSDSPI_ReceiveData:
 653              	.LFB9:
 130:Generated_Source\PSoC5/NSDSPI_funcs.c **** 
 131:Generated_Source\PSoC5/NSDSPI_funcs.c **** //Send a block of NULL data (default 0xFF) and place received bytes into buffer.
 132:Generated_Source\PSoC5/NSDSPI_funcs.c **** void NSDSPI_ReceiveData(unsigned char* pBuffer, unsigned int nLength)
 133:Generated_Source\PSoC5/NSDSPI_funcs.c **** {   
 654              		.loc 1 133 0
 655              		.cfi_startproc
 656              		@ args = 0, pretend = 0, frame = 16
 657              		@ frame_needed = 1, uses_anonymous_args = 0
 658 0000 90B5     		push	{r4, r7, lr}
 659              		.cfi_def_cfa_offset 12
 660              		.cfi_offset 4, -12
 661              		.cfi_offset 7, -8
 662              		.cfi_offset 14, -4
ARM GAS  C:\Users\HPz420\AppData\Local\Temp\ccz8Yfav.s 			page 15


 663 0002 85B0     		sub	sp, sp, #20
 664              		.cfi_def_cfa_offset 32
 665 0004 00AF     		add	r7, sp, #0
 666              		.cfi_def_cfa_register 7
 667 0006 7860     		str	r0, [r7, #4]
 668 0008 3960     		str	r1, [r7]
 134:Generated_Source\PSoC5/NSDSPI_funcs.c ****     if((nLength > 4095)||(nLength < 1))
 669              		.loc 1 134 0
 670 000a 3B68     		ldr	r3, [r7]
 671 000c B3F5805F 		cmp	r3, #4096
 672 0010 71D2     		bcs	.L45
 673              		.loc 1 134 0 is_stmt 0 discriminator 1
 674 0012 3B68     		ldr	r3, [r7]
 675 0014 002B     		cmp	r3, #0
 676 0016 6ED0     		beq	.L45
 135:Generated_Source\PSoC5/NSDSPI_funcs.c ****         return; //this never happens - filesys transfers max. 512 bytes at a time
 136:Generated_Source\PSoC5/NSDSPI_funcs.c ****     if(NSDSPI_bEnableDMA)
 677              		.loc 1 136 0 is_stmt 1
 678 0018 394B     		ldr	r3, .L46
 679 001a 1B78     		ldrb	r3, [r3]	@ zero_extendqisi2
 680 001c 002B     		cmp	r3, #0
 681 001e 57D0     		beq	.L41
 137:Generated_Source\PSoC5/NSDSPI_funcs.c ****     {
 138:Generated_Source\PSoC5/NSDSPI_funcs.c ****         //DMA implementation...
 139:Generated_Source\PSoC5/NSDSPI_funcs.c ****    
 140:Generated_Source\PSoC5/NSDSPI_funcs.c ****         NSDSPI_RX_BYTE_COUNTER_WriteCompare(nLength-1); //write byte counter
 682              		.loc 1 140 0
 683 0020 3B68     		ldr	r3, [r7]
 684 0022 9BB2     		uxth	r3, r3
 685 0024 013B     		subs	r3, r3, #1
 686 0026 9BB2     		uxth	r3, r3
 687 0028 1846     		mov	r0, r3
 688 002a FFF7FEFF 		bl	NSDSPI_RX_BYTE_COUNTER_WriteCompare
 141:Generated_Source\PSoC5/NSDSPI_funcs.c ****         NSDSPI_RX_TD[0] = CyDmaTdAllocate();          //allocate a TD
 689              		.loc 1 141 0
 690 002e FFF7FEFF 		bl	CyDmaTdAllocate
 691 0032 0346     		mov	r3, r0
 692 0034 1A46     		mov	r2, r3
 693 0036 334B     		ldr	r3, .L46+4
 694 0038 1A70     		strb	r2, [r3]
 142:Generated_Source\PSoC5/NSDSPI_funcs.c ****        
 143:Generated_Source\PSoC5/NSDSPI_funcs.c ****         //setup TD and attach to channel
 144:Generated_Source\PSoC5/NSDSPI_funcs.c ****         CyDmaTdSetConfiguration(NSDSPI_RX_TD[0], nLength, CY_DMA_DISABLE_TD, NSDSPI_RX__TD_TERMOUT_
 695              		.loc 1 144 0
 696 003a 324B     		ldr	r3, .L46+4
 697 003c 1878     		ldrb	r0, [r3]	@ zero_extendqisi2
 698 003e 3B68     		ldr	r3, [r7]
 699 0040 99B2     		uxth	r1, r3
 700 0042 0623     		movs	r3, #6
 701 0044 FE22     		movs	r2, #254
 702 0046 FFF7FEFF 		bl	CyDmaTdSetConfiguration
 145:Generated_Source\PSoC5/NSDSPI_funcs.c ****         CyDmaTdSetAddress(NSDSPI_RX_TD[0], LO16((uint32)NSDSPI_UDB_SPI_DPTH_F1_PTR), LO16((uint32)p
 703              		.loc 1 145 0
 704 004a 2E4B     		ldr	r3, .L46+4
 705 004c 1B78     		ldrb	r3, [r3]	@ zero_extendqisi2
 706 004e 7A68     		ldr	r2, [r7, #4]
 707 0050 92B2     		uxth	r2, r2
ARM GAS  C:\Users\HPz420\AppData\Local\Temp\ccz8Yfav.s 			page 16


 708 0052 46F25C41 		movw	r1, #25692
 709 0056 1846     		mov	r0, r3
 710 0058 FFF7FEFF 		bl	CyDmaTdSetAddress
 146:Generated_Source\PSoC5/NSDSPI_funcs.c ****         CyDmaChSetInitialTd(NSDSPI_RX_Chan, NSDSPI_RX_TD[0]);
 711              		.loc 1 146 0
 712 005c 2A4B     		ldr	r3, .L46+8
 713 005e 1A78     		ldrb	r2, [r3]	@ zero_extendqisi2
 714 0060 284B     		ldr	r3, .L46+4
 715 0062 1B78     		ldrb	r3, [r3]	@ zero_extendqisi2
 716 0064 1946     		mov	r1, r3
 717 0066 1046     		mov	r0, r2
 718 0068 FFF7FEFF 		bl	CyDmaChSetInitialTd
 147:Generated_Source\PSoC5/NSDSPI_funcs.c ****         
 148:Generated_Source\PSoC5/NSDSPI_funcs.c ****         CyDmaClearPendingDrq(NSDSPI_RX_Chan);
 719              		.loc 1 148 0
 720 006c 264B     		ldr	r3, .L46+8
 721 006e 1B78     		ldrb	r3, [r3]	@ zero_extendqisi2
 722 0070 1846     		mov	r0, r3
 723 0072 FFF7FEFF 		bl	CyDmaClearPendingDrq
 149:Generated_Source\PSoC5/NSDSPI_funcs.c ****         CyDmaChEnable(NSDSPI_RX_Chan, 1);
 724              		.loc 1 149 0
 725 0076 244B     		ldr	r3, .L46+8
 726 0078 1B78     		ldrb	r3, [r3]	@ zero_extendqisi2
 727 007a 0121     		movs	r1, #1
 728 007c 1846     		mov	r0, r3
 729 007e FFF7FEFF 		bl	CyDmaChEnable
 150:Generated_Source\PSoC5/NSDSPI_funcs.c ****     
 151:Generated_Source\PSoC5/NSDSPI_funcs.c ****         NSDSPI_g_nTransferFlags |= NSDSPI_TRANSFER_WAIT_RXDMAISR;   //Set flag
 730              		.loc 1 151 0
 731 0082 224B     		ldr	r3, .L46+12
 732 0084 1B78     		ldrb	r3, [r3]
 733 0086 DBB2     		uxtb	r3, r3
 734 0088 43F00203 		orr	r3, r3, #2
 735 008c DAB2     		uxtb	r2, r3
 736 008e 1F4B     		ldr	r3, .L46+12
 737 0090 1A70     		strb	r2, [r3]
 152:Generated_Source\PSoC5/NSDSPI_funcs.c ****         
 153:Generated_Source\PSoC5/NSDSPI_funcs.c ****         NSDSPI_CTRL_Write(NSDSPI_g_nCtrlState | 0x02);  //trigger transfer
 738              		.loc 1 153 0
 739 0092 1F4B     		ldr	r3, .L46+16
 740 0094 1B78     		ldrb	r3, [r3]
 741 0096 DBB2     		uxtb	r3, r3
 742 0098 43F00203 		orr	r3, r3, #2
 743 009c DBB2     		uxtb	r3, r3
 744 009e 1846     		mov	r0, r3
 745 00a0 FFF7FEFF 		bl	NSDSPI_CTRL_Write
 154:Generated_Source\PSoC5/NSDSPI_funcs.c ****         
 155:Generated_Source\PSoC5/NSDSPI_funcs.c ****         //wait until done.
 156:Generated_Source\PSoC5/NSDSPI_funcs.c ****         while(NSDSPI_g_nTransferFlags & NSDSPI_TRANSFER_WAIT_RXDMAISR);
 746              		.loc 1 156 0
 747 00a4 00BF     		nop
 748              	.L42:
 749              		.loc 1 156 0 is_stmt 0 discriminator 1
 750 00a6 194B     		ldr	r3, .L46+12
 751 00a8 1B78     		ldrb	r3, [r3]
 752 00aa DBB2     		uxtb	r3, r3
 753 00ac 03F00203 		and	r3, r3, #2
ARM GAS  C:\Users\HPz420\AppData\Local\Temp\ccz8Yfav.s 			page 17


 754 00b0 002B     		cmp	r3, #0
 755 00b2 F8D1     		bne	.L42
 157:Generated_Source\PSoC5/NSDSPI_funcs.c ****         
 158:Generated_Source\PSoC5/NSDSPI_funcs.c ****         CyDmaChSetRequest(NSDSPI_RX_Chan, CPU_TERM_CHAIN);
 756              		.loc 1 158 0 is_stmt 1
 757 00b4 144B     		ldr	r3, .L46+8
 758 00b6 1B78     		ldrb	r3, [r3]	@ zero_extendqisi2
 759 00b8 0421     		movs	r1, #4
 760 00ba 1846     		mov	r0, r3
 761 00bc FFF7FEFF 		bl	CyDmaChSetRequest
 159:Generated_Source\PSoC5/NSDSPI_funcs.c ****         CyDmaTdFree(NSDSPI_RX_TD[0]);                       //Free Transfer Descriptor    
 762              		.loc 1 159 0
 763 00c0 104B     		ldr	r3, .L46+4
 764 00c2 1B78     		ldrb	r3, [r3]	@ zero_extendqisi2
 765 00c4 1846     		mov	r0, r3
 766 00c6 FFF7FEFF 		bl	CyDmaTdFree
 160:Generated_Source\PSoC5/NSDSPI_funcs.c ****         
 161:Generated_Source\PSoC5/NSDSPI_funcs.c ****         NSDSPI_RX_ISR_ClearPending(); //clear pending interrupt from RX_ISR (non-DMA)
 767              		.loc 1 161 0
 768 00ca FFF7FEFF 		bl	NSDSPI_RX_ISR_ClearPending
 162:Generated_Source\PSoC5/NSDSPI_funcs.c ****         return;
 769              		.loc 1 162 0
 770 00ce 13E0     		b	.L37
 771              	.L41:
 163:Generated_Source\PSoC5/NSDSPI_funcs.c ****     }    
 164:Generated_Source\PSoC5/NSDSPI_funcs.c ****     
 165:Generated_Source\PSoC5/NSDSPI_funcs.c ****     //Slow (non DMA) implementation...
 166:Generated_Source\PSoC5/NSDSPI_funcs.c ****     unsigned int i;
 167:Generated_Source\PSoC5/NSDSPI_funcs.c ****     for(i = 0; i < nLength; i++)
 772              		.loc 1 167 0
 773 00d0 0023     		movs	r3, #0
 774 00d2 FB60     		str	r3, [r7, #12]
 775 00d4 0AE0     		b	.L43
 776              	.L44:
 168:Generated_Source\PSoC5/NSDSPI_funcs.c ****         pBuffer[i] = NSDSPI_SwapByte(0xFF);    
 777              		.loc 1 168 0 discriminator 3
 778 00d6 7A68     		ldr	r2, [r7, #4]
 779 00d8 FB68     		ldr	r3, [r7, #12]
 780 00da D418     		adds	r4, r2, r3
 781 00dc FF20     		movs	r0, #255
 782 00de FFF7FEFF 		bl	NSDSPI_SwapByte
 783 00e2 0346     		mov	r3, r0
 784 00e4 2370     		strb	r3, [r4]
 167:Generated_Source\PSoC5/NSDSPI_funcs.c ****         pBuffer[i] = NSDSPI_SwapByte(0xFF);    
 785              		.loc 1 167 0 discriminator 3
 786 00e6 FB68     		ldr	r3, [r7, #12]
 787 00e8 0133     		adds	r3, r3, #1
 788 00ea FB60     		str	r3, [r7, #12]
 789              	.L43:
 167:Generated_Source\PSoC5/NSDSPI_funcs.c ****         pBuffer[i] = NSDSPI_SwapByte(0xFF);    
 790              		.loc 1 167 0 is_stmt 0 discriminator 1
 791 00ec FA68     		ldr	r2, [r7, #12]
 792 00ee 3B68     		ldr	r3, [r7]
 793 00f0 9A42     		cmp	r2, r3
 794 00f2 F0D3     		bcc	.L44
 795 00f4 00E0     		b	.L37
 796              	.L45:
ARM GAS  C:\Users\HPz420\AppData\Local\Temp\ccz8Yfav.s 			page 18


 135:Generated_Source\PSoC5/NSDSPI_funcs.c ****     if(NSDSPI_bEnableDMA)
 797              		.loc 1 135 0 is_stmt 1
 798 00f6 00BF     		nop
 799              	.L37:
 169:Generated_Source\PSoC5/NSDSPI_funcs.c ****         
 170:Generated_Source\PSoC5/NSDSPI_funcs.c **** }
 800              		.loc 1 170 0
 801 00f8 1437     		adds	r7, r7, #20
 802              		.cfi_def_cfa_offset 12
 803 00fa BD46     		mov	sp, r7
 804              		.cfi_def_cfa_register 13
 805              		@ sp needed
 806 00fc 90BD     		pop	{r4, r7, pc}
 807              	.L47:
 808 00fe 00BF     		.align	2
 809              	.L46:
 810 0100 00000000 		.word	NSDSPI_bEnableDMA
 811 0104 00000000 		.word	NSDSPI_RX_TD
 812 0108 00000000 		.word	NSDSPI_RX_Chan
 813 010c 00000000 		.word	NSDSPI_g_nTransferFlags
 814 0110 00000000 		.word	NSDSPI_g_nCtrlState
 815              		.cfi_endproc
 816              	.LFE9:
 817              		.size	NSDSPI_ReceiveData, .-NSDSPI_ReceiveData
 818              		.section	.text.NSDSPI_SwapByte,"ax",%progbits
 819              		.align	2
 820              		.global	NSDSPI_SwapByte
 821              		.thumb
 822              		.thumb_func
 823              		.type	NSDSPI_SwapByte, %function
 824              	NSDSPI_SwapByte:
 825              	.LFB10:
 171:Generated_Source\PSoC5/NSDSPI_funcs.c **** 
 172:Generated_Source\PSoC5/NSDSPI_funcs.c **** //Swap a single byte (send it, and receive RX byte)
 173:Generated_Source\PSoC5/NSDSPI_funcs.c **** unsigned char NSDSPI_SwapByte(unsigned char nByte)
 174:Generated_Source\PSoC5/NSDSPI_funcs.c **** {
 826              		.loc 1 174 0
 827              		.cfi_startproc
 828              		@ args = 0, pretend = 0, frame = 16
 829              		@ frame_needed = 1, uses_anonymous_args = 0
 830 0000 80B5     		push	{r7, lr}
 831              		.cfi_def_cfa_offset 8
 832              		.cfi_offset 7, -8
 833              		.cfi_offset 14, -4
 834 0002 84B0     		sub	sp, sp, #16
 835              		.cfi_def_cfa_offset 24
 836 0004 00AF     		add	r7, sp, #0
 837              		.cfi_def_cfa_register 7
 838 0006 0346     		mov	r3, r0
 839 0008 FB71     		strb	r3, [r7, #7]
 175:Generated_Source\PSoC5/NSDSPI_funcs.c ****     NSDSPI_RX_ISR_Enable();   //will be disabled after being triggered
 840              		.loc 1 175 0
 841 000a FFF7FEFF 		bl	NSDSPI_RX_ISR_Enable
 176:Generated_Source\PSoC5/NSDSPI_funcs.c ****     //Set waiting flag...
 177:Generated_Source\PSoC5/NSDSPI_funcs.c ****     NSDSPI_g_nTransferFlags |= NSDSPI_TRANSFER_WAIT_RXISR;
 842              		.loc 1 177 0
 843 000e 0D4B     		ldr	r3, .L51
ARM GAS  C:\Users\HPz420\AppData\Local\Temp\ccz8Yfav.s 			page 19


 844 0010 1B78     		ldrb	r3, [r3]
 845 0012 DBB2     		uxtb	r3, r3
 846 0014 43F00103 		orr	r3, r3, #1
 847 0018 DAB2     		uxtb	r2, r3
 848 001a 0A4B     		ldr	r3, .L51
 849 001c 1A70     		strb	r2, [r3]
 178:Generated_Source\PSoC5/NSDSPI_funcs.c ****     //write byte to TX
 179:Generated_Source\PSoC5/NSDSPI_funcs.c ****     CY_SET_REG8(NSDSPI_UDB_SPI_DPTH_F0_PTR, nByte);
 850              		.loc 1 179 0
 851 001e 0A4A     		ldr	r2, .L51+4
 852 0020 FB79     		ldrb	r3, [r7, #7]
 853 0022 1370     		strb	r3, [r2]
 180:Generated_Source\PSoC5/NSDSPI_funcs.c ****     //wait for RX interrupt
 181:Generated_Source\PSoC5/NSDSPI_funcs.c ****     while(NSDSPI_g_nTransferFlags & NSDSPI_TRANSFER_WAIT_RXISR);
 854              		.loc 1 181 0
 855 0024 00BF     		nop
 856              	.L49:
 857              		.loc 1 181 0 is_stmt 0 discriminator 1
 858 0026 074B     		ldr	r3, .L51
 859 0028 1B78     		ldrb	r3, [r3]
 860 002a DBB2     		uxtb	r3, r3
 861 002c 03F00103 		and	r3, r3, #1
 862 0030 002B     		cmp	r3, #0
 863 0032 F8D1     		bne	.L49
 182:Generated_Source\PSoC5/NSDSPI_funcs.c ****     //read byte from RX
 183:Generated_Source\PSoC5/NSDSPI_funcs.c ****     unsigned char rv = CY_GET_REG8(NSDSPI_UDB_SPI_DPTH_F1_PTR);
 864              		.loc 1 183 0 is_stmt 1
 865 0034 054B     		ldr	r3, .L51+8
 866 0036 1B78     		ldrb	r3, [r3]
 867 0038 FB73     		strb	r3, [r7, #15]
 184:Generated_Source\PSoC5/NSDSPI_funcs.c ****     //return byte
 185:Generated_Source\PSoC5/NSDSPI_funcs.c ****     return rv;
 868              		.loc 1 185 0
 869 003a FB7B     		ldrb	r3, [r7, #15]	@ zero_extendqisi2
 186:Generated_Source\PSoC5/NSDSPI_funcs.c **** }
 870              		.loc 1 186 0
 871 003c 1846     		mov	r0, r3
 872 003e 1037     		adds	r7, r7, #16
 873              		.cfi_def_cfa_offset 8
 874 0040 BD46     		mov	sp, r7
 875              		.cfi_def_cfa_register 13
 876              		@ sp needed
 877 0042 80BD     		pop	{r7, pc}
 878              	.L52:
 879              		.align	2
 880              	.L51:
 881 0044 00000000 		.word	NSDSPI_g_nTransferFlags
 882 0048 4C640040 		.word	1073767500
 883 004c 5C640040 		.word	1073767516
 884              		.cfi_endproc
 885              	.LFE10:
 886              		.size	NSDSPI_SwapByte, .-NSDSPI_SwapByte
 887              		.section	.text.NSDSPI_SetDMAMode,"ax",%progbits
 888              		.align	2
 889              		.global	NSDSPI_SetDMAMode
 890              		.thumb
 891              		.thumb_func
ARM GAS  C:\Users\HPz420\AppData\Local\Temp\ccz8Yfav.s 			page 20


 892              		.type	NSDSPI_SetDMAMode, %function
 893              	NSDSPI_SetDMAMode:
 894              	.LFB11:
 187:Generated_Source\PSoC5/NSDSPI_funcs.c **** void NSDSPI_SetDMAMode(unsigned char bEnableDMA)
 188:Generated_Source\PSoC5/NSDSPI_funcs.c **** {
 895              		.loc 1 188 0
 896              		.cfi_startproc
 897              		@ args = 0, pretend = 0, frame = 8
 898              		@ frame_needed = 1, uses_anonymous_args = 0
 899 0000 80B5     		push	{r7, lr}
 900              		.cfi_def_cfa_offset 8
 901              		.cfi_offset 7, -8
 902              		.cfi_offset 14, -4
 903 0002 82B0     		sub	sp, sp, #8
 904              		.cfi_def_cfa_offset 16
 905 0004 00AF     		add	r7, sp, #0
 906              		.cfi_def_cfa_register 7
 907 0006 0346     		mov	r3, r0
 908 0008 FB71     		strb	r3, [r7, #7]
 189:Generated_Source\PSoC5/NSDSPI_funcs.c ****     while(NSDSPI_g_nTransferFlags);   //make absolutely sure no transfers are in progress
 909              		.loc 1 189 0
 910 000a 00BF     		nop
 911              	.L54:
 912              		.loc 1 189 0 is_stmt 0 discriminator 1
 913 000c 224B     		ldr	r3, .L60
 914 000e 1B78     		ldrb	r3, [r3]
 915 0010 DBB2     		uxtb	r3, r3
 916 0012 002B     		cmp	r3, #0
 917 0014 FAD1     		bne	.L54
 190:Generated_Source\PSoC5/NSDSPI_funcs.c ****     
 191:Generated_Source\PSoC5/NSDSPI_funcs.c ****     if(NSDSPI_bEnableDMA == bEnableDMA) return;
 918              		.loc 1 191 0 is_stmt 1
 919 0016 214B     		ldr	r3, .L60+4
 920 0018 1B78     		ldrb	r3, [r3]	@ zero_extendqisi2
 921 001a FA79     		ldrb	r2, [r7, #7]	@ zero_extendqisi2
 922 001c 9A42     		cmp	r2, r3
 923 001e 37D0     		beq	.L59
 192:Generated_Source\PSoC5/NSDSPI_funcs.c ****     
 193:Generated_Source\PSoC5/NSDSPI_funcs.c ****     if(bEnableDMA)
 924              		.loc 1 193 0
 925 0020 FB79     		ldrb	r3, [r7, #7]	@ zero_extendqisi2
 926 0022 002B     		cmp	r3, #0
 927 0024 28D0     		beq	.L57
 194:Generated_Source\PSoC5/NSDSPI_funcs.c ****     {
 195:Generated_Source\PSoC5/NSDSPI_funcs.c ****         NSDSPI_RX_DMA_ISR_StartEx(NSDSPI_RX_DMA_ISR);
 928              		.loc 1 195 0
 929 0026 1E48     		ldr	r0, .L60+8
 930 0028 FFF7FEFF 		bl	NSDSPI_RX_DMA_ISR_StartEx
 196:Generated_Source\PSoC5/NSDSPI_funcs.c ****         NSDSPI_TX_DMA_ISR_StartEx(NSDSPI_TX_DMA_ISR);
 931              		.loc 1 196 0
 932 002c 1D48     		ldr	r0, .L60+12
 933 002e FFF7FEFF 		bl	NSDSPI_TX_DMA_ISR_StartEx
 197:Generated_Source\PSoC5/NSDSPI_funcs.c ****         NSDSPI_RX_Chan = NSDSPI_RX_DmaInitialize(NSDSPI_RX_BYTES_PER_BURST, NSDSPI_RX_REQUEST_PER_B
 934              		.loc 1 197 0
 935 0032 41F6FF73 		movw	r3, #8191
 936 0036 4FF48042 		mov	r2, #16384
 937 003a 0121     		movs	r1, #1
ARM GAS  C:\Users\HPz420\AppData\Local\Temp\ccz8Yfav.s 			page 21


 938 003c 0120     		movs	r0, #1
 939 003e FFF7FEFF 		bl	NSDSPI_RX_DmaInitialize
 940 0042 0346     		mov	r3, r0
 941 0044 1A46     		mov	r2, r3
 942 0046 184B     		ldr	r3, .L60+16
 943 0048 1A70     		strb	r2, [r3]
 198:Generated_Source\PSoC5/NSDSPI_funcs.c ****             HI16(NSDSPI_RX_SRC_BASE), HI16(NSDSPI_RX_DST_BASE));
 199:Generated_Source\PSoC5/NSDSPI_funcs.c ****         NSDSPI_TX_Chan = NSDSPI_TX_DmaInitialize(NSDSPI_TX_BYTES_PER_BURST, NSDSPI_TX_REQUEST_PER_B
 944              		.loc 1 199 0
 945 004a 4FF48043 		mov	r3, #16384
 946 004e 41F6FF72 		movw	r2, #8191
 947 0052 0121     		movs	r1, #1
 948 0054 0120     		movs	r0, #1
 949 0056 FFF7FEFF 		bl	NSDSPI_TX_DmaInitialize
 950 005a 0346     		mov	r3, r0
 951 005c 1A46     		mov	r2, r3
 952 005e 134B     		ldr	r3, .L60+20
 953 0060 1A70     		strb	r2, [r3]
 200:Generated_Source\PSoC5/NSDSPI_funcs.c ****             HI16(NSDSPI_TX_SRC_BASE), HI16(NSDSPI_TX_DST_BASE));
 201:Generated_Source\PSoC5/NSDSPI_funcs.c ****         CyDmaClearPendingDrq(NSDSPI_RX_Chan);
 954              		.loc 1 201 0
 955 0062 114B     		ldr	r3, .L60+16
 956 0064 1B78     		ldrb	r3, [r3]	@ zero_extendqisi2
 957 0066 1846     		mov	r0, r3
 958 0068 FFF7FEFF 		bl	CyDmaClearPendingDrq
 202:Generated_Source\PSoC5/NSDSPI_funcs.c ****         CyDmaClearPendingDrq(NSDSPI_TX_Chan);    
 959              		.loc 1 202 0
 960 006c 0F4B     		ldr	r3, .L60+20
 961 006e 1B78     		ldrb	r3, [r3]	@ zero_extendqisi2
 962 0070 1846     		mov	r0, r3
 963 0072 FFF7FEFF 		bl	CyDmaClearPendingDrq
 964 0076 07E0     		b	.L58
 965              	.L57:
 203:Generated_Source\PSoC5/NSDSPI_funcs.c ****     }
 204:Generated_Source\PSoC5/NSDSPI_funcs.c ****     else
 205:Generated_Source\PSoC5/NSDSPI_funcs.c ****     {
 206:Generated_Source\PSoC5/NSDSPI_funcs.c ****         NSDSPI_RX_DMA_ISR_Stop();
 966              		.loc 1 206 0
 967 0078 FFF7FEFF 		bl	NSDSPI_RX_DMA_ISR_Stop
 207:Generated_Source\PSoC5/NSDSPI_funcs.c ****         NSDSPI_TX_DMA_ISR_Stop();
 968              		.loc 1 207 0
 969 007c FFF7FEFF 		bl	NSDSPI_TX_DMA_ISR_Stop
 208:Generated_Source\PSoC5/NSDSPI_funcs.c ****         NSDSPI_RX_DmaRelease();
 970              		.loc 1 208 0
 971 0080 FFF7FEFF 		bl	NSDSPI_RX_DmaRelease
 209:Generated_Source\PSoC5/NSDSPI_funcs.c ****         NSDSPI_TX_DmaRelease();
 972              		.loc 1 209 0
 973 0084 FFF7FEFF 		bl	NSDSPI_TX_DmaRelease
 974              	.L58:
 210:Generated_Source\PSoC5/NSDSPI_funcs.c ****     }
 211:Generated_Source\PSoC5/NSDSPI_funcs.c ****     NSDSPI_bEnableDMA = bEnableDMA;
 975              		.loc 1 211 0
 976 0088 044A     		ldr	r2, .L60+4
 977 008a FB79     		ldrb	r3, [r7, #7]
 978 008c 1370     		strb	r3, [r2]
 979 008e 00E0     		b	.L53
 980              	.L59:
ARM GAS  C:\Users\HPz420\AppData\Local\Temp\ccz8Yfav.s 			page 22


 191:Generated_Source\PSoC5/NSDSPI_funcs.c ****     
 981              		.loc 1 191 0
 982 0090 00BF     		nop
 983              	.L53:
 212:Generated_Source\PSoC5/NSDSPI_funcs.c **** }
 984              		.loc 1 212 0
 985 0092 0837     		adds	r7, r7, #8
 986              		.cfi_def_cfa_offset 8
 987 0094 BD46     		mov	sp, r7
 988              		.cfi_def_cfa_register 13
 989              		@ sp needed
 990 0096 80BD     		pop	{r7, pc}
 991              	.L61:
 992              		.align	2
 993              	.L60:
 994 0098 00000000 		.word	NSDSPI_g_nTransferFlags
 995 009c 00000000 		.word	NSDSPI_bEnableDMA
 996 00a0 00000000 		.word	NSDSPI_RX_DMA_ISR
 997 00a4 00000000 		.word	NSDSPI_TX_DMA_ISR
 998 00a8 00000000 		.word	NSDSPI_RX_Chan
 999 00ac 00000000 		.word	NSDSPI_TX_Chan
 1000              		.cfi_endproc
 1001              	.LFE11:
 1002              		.size	NSDSPI_SetDMAMode, .-NSDSPI_SetDMAMode
 1003              		.text
 1004              	.Letext0:
 1005              		.file 2 "Generated_Source\\PSoC5\\cytypes.h"
 1006              		.file 3 "Generated_Source\\PSoC5\\NSDSPI_funcs.h"
 1007              		.file 4 "Generated_Source\\PSoC5\\NSDSPI_LowLevelFileSys.h"
 1008              		.section	.debug_info,"",%progbits
 1009              	.Ldebug_info0:
 1010 0000 00040000 		.4byte	0x400
 1011 0004 0400     		.2byte	0x4
 1012 0006 00000000 		.4byte	.Ldebug_abbrev0
 1013 000a 04       		.byte	0x4
 1014 000b 01       		.uleb128 0x1
 1015 000c 89000000 		.4byte	.LASF58
 1016 0010 0C       		.byte	0xc
 1017 0011 ED030000 		.4byte	.LASF59
 1018 0015 DB010000 		.4byte	.LASF60
 1019 0019 00000000 		.4byte	.Ldebug_ranges0+0
 1020 001d 00000000 		.4byte	0
 1021 0021 00000000 		.4byte	.Ldebug_line0
 1022 0025 02       		.uleb128 0x2
 1023 0026 01       		.byte	0x1
 1024 0027 06       		.byte	0x6
 1025 0028 BD020000 		.4byte	.LASF0
 1026 002c 02       		.uleb128 0x2
 1027 002d 01       		.byte	0x1
 1028 002e 08       		.byte	0x8
 1029 002f 9D020000 		.4byte	.LASF1
 1030 0033 02       		.uleb128 0x2
 1031 0034 02       		.byte	0x2
 1032 0035 05       		.byte	0x5
 1033 0036 39010000 		.4byte	.LASF2
 1034 003a 02       		.uleb128 0x2
 1035 003b 02       		.byte	0x2
ARM GAS  C:\Users\HPz420\AppData\Local\Temp\ccz8Yfav.s 			page 23


 1036 003c 07       		.byte	0x7
 1037 003d 2C030000 		.4byte	.LASF3
 1038 0041 02       		.uleb128 0x2
 1039 0042 04       		.byte	0x4
 1040 0043 05       		.byte	0x5
 1041 0044 B0010000 		.4byte	.LASF4
 1042 0048 02       		.uleb128 0x2
 1043 0049 04       		.byte	0x4
 1044 004a 07       		.byte	0x7
 1045 004b B9030000 		.4byte	.LASF5
 1046 004f 02       		.uleb128 0x2
 1047 0050 08       		.byte	0x8
 1048 0051 05       		.byte	0x5
 1049 0052 A2010000 		.4byte	.LASF6
 1050 0056 02       		.uleb128 0x2
 1051 0057 08       		.byte	0x8
 1052 0058 07       		.byte	0x7
 1053 0059 DB020000 		.4byte	.LASF7
 1054 005d 03       		.uleb128 0x3
 1055 005e 04       		.byte	0x4
 1056 005f 05       		.byte	0x5
 1057 0060 696E7400 		.ascii	"int\000"
 1058 0064 02       		.uleb128 0x2
 1059 0065 04       		.byte	0x4
 1060 0066 07       		.byte	0x7
 1061 0067 F2020000 		.4byte	.LASF8
 1062 006b 04       		.uleb128 0x4
 1063 006c 4A010000 		.4byte	.LASF9
 1064 0070 02       		.byte	0x2
 1065 0071 A1       		.byte	0xa1
 1066 0072 2C000000 		.4byte	0x2c
 1067 0076 04       		.uleb128 0x4
 1068 0077 43010000 		.4byte	.LASF10
 1069 007b 02       		.byte	0x2
 1070 007c A2       		.byte	0xa2
 1071 007d 3A000000 		.4byte	0x3a
 1072 0081 04       		.uleb128 0x4
 1073 0082 A2030000 		.4byte	.LASF11
 1074 0086 02       		.byte	0x2
 1075 0087 A3       		.byte	0xa3
 1076 0088 48000000 		.4byte	0x48
 1077 008c 02       		.uleb128 0x2
 1078 008d 04       		.byte	0x4
 1079 008e 04       		.byte	0x4
 1080 008f 91010000 		.4byte	.LASF12
 1081 0093 02       		.uleb128 0x2
 1082 0094 08       		.byte	0x8
 1083 0095 04       		.byte	0x4
 1084 0096 CB030000 		.4byte	.LASF13
 1085 009a 02       		.uleb128 0x2
 1086 009b 01       		.byte	0x1
 1087 009c 08       		.byte	0x8
 1088 009d 53030000 		.4byte	.LASF14
 1089 00a1 05       		.uleb128 0x5
 1090 00a2 B4030000 		.4byte	.LASF15
 1091 00a6 02       		.byte	0x2
 1092 00a7 4B01     		.2byte	0x14b
ARM GAS  C:\Users\HPz420\AppData\Local\Temp\ccz8Yfav.s 			page 24


 1093 00a9 AD000000 		.4byte	0xad
 1094 00ad 06       		.uleb128 0x6
 1095 00ae 6B000000 		.4byte	0x6b
 1096 00b2 07       		.uleb128 0x7
 1097 00b3 04       		.byte	0x4
 1098 00b4 B8000000 		.4byte	0xb8
 1099 00b8 08       		.uleb128 0x8
 1100 00b9 02       		.uleb128 0x2
 1101 00ba 08       		.byte	0x8
 1102 00bb 04       		.byte	0x4
 1103 00bc 72020000 		.4byte	.LASF16
 1104 00c0 02       		.uleb128 0x2
 1105 00c1 04       		.byte	0x4
 1106 00c2 07       		.byte	0x7
 1107 00c3 65000000 		.4byte	.LASF17
 1108 00c7 07       		.uleb128 0x7
 1109 00c8 04       		.byte	0x4
 1110 00c9 9A000000 		.4byte	0x9a
 1111 00cd 07       		.uleb128 0x7
 1112 00ce 04       		.byte	0x4
 1113 00cf 2C000000 		.4byte	0x2c
 1114 00d3 04       		.uleb128 0x4
 1115 00d4 5D030000 		.4byte	.LASF18
 1116 00d8 03       		.byte	0x3
 1117 00d9 32       		.byte	0x32
 1118 00da B2000000 		.4byte	0xb2
 1119 00de 04       		.uleb128 0x4
 1120 00df 76010000 		.4byte	.LASF19
 1121 00e3 03       		.byte	0x3
 1122 00e4 33       		.byte	0x33
 1123 00e5 E9000000 		.4byte	0xe9
 1124 00e9 07       		.uleb128 0x7
 1125 00ea 04       		.byte	0x4
 1126 00eb EF000000 		.4byte	0xef
 1127 00ef 09       		.uleb128 0x9
 1128 00f0 FA000000 		.4byte	0xfa
 1129 00f4 0A       		.uleb128 0xa
 1130 00f5 C7000000 		.4byte	0xc7
 1131 00f9 00       		.byte	0
 1132 00fa 04       		.uleb128 0x4
 1133 00fb 29010000 		.4byte	.LASF20
 1134 00ff 04       		.byte	0x4
 1135 0100 26       		.byte	0x26
 1136 0101 2C000000 		.4byte	0x2c
 1137 0105 04       		.uleb128 0x4
 1138 0106 58030000 		.4byte	.LASF21
 1139 010a 04       		.byte	0x4
 1140 010b 2F       		.byte	0x2f
 1141 010c 64000000 		.4byte	0x64
 1142 0110 07       		.uleb128 0x7
 1143 0111 04       		.byte	0x4
 1144 0112 FA000000 		.4byte	0xfa
 1145 0116 0B       		.uleb128 0xb
 1146 0117 6E000000 		.4byte	.LASF32
 1147 011b 28       		.byte	0x28
 1148 011c 04       		.byte	0x4
 1149 011d 3201     		.2byte	0x132
ARM GAS  C:\Users\HPz420\AppData\Local\Temp\ccz8Yfav.s 			page 25


 1150 011f A6010000 		.4byte	0x1a6
 1151 0123 0C       		.uleb128 0xc
 1152 0124 69010000 		.4byte	.LASF22
 1153 0128 04       		.byte	0x4
 1154 0129 3501     		.2byte	0x135
 1155 012b B2000000 		.4byte	0xb2
 1156 012f 00       		.byte	0
 1157 0130 0C       		.uleb128 0xc
 1158 0131 C4010000 		.4byte	.LASF23
 1159 0135 04       		.byte	0x4
 1160 0136 3601     		.2byte	0x136
 1161 0138 B2000000 		.4byte	0xb2
 1162 013c 04       		.byte	0x4
 1163 013d 0C       		.uleb128 0xc
 1164 013e D2030000 		.4byte	.LASF24
 1165 0142 04       		.byte	0x4
 1166 0143 3701     		.2byte	0x137
 1167 0145 B2000000 		.4byte	0xb2
 1168 0149 08       		.byte	0x8
 1169 014a 0C       		.uleb128 0xc
 1170 014b 13040000 		.4byte	.LASF25
 1171 014f 04       		.byte	0x4
 1172 0150 3801     		.2byte	0x138
 1173 0152 B2000000 		.4byte	0xb2
 1174 0156 0C       		.byte	0xc
 1175 0157 0C       		.uleb128 0xc
 1176 0158 57000000 		.4byte	.LASF26
 1177 015c 04       		.byte	0x4
 1178 015d 3A01     		.2byte	0x13a
 1179 015f B2000000 		.4byte	0xb2
 1180 0163 10       		.byte	0x10
 1181 0164 0C       		.uleb128 0xc
 1182 0165 00000000 		.4byte	.LASF27
 1183 0169 04       		.byte	0x4
 1184 016a 3B01     		.2byte	0x13b
 1185 016c B2000000 		.4byte	0xb2
 1186 0170 14       		.byte	0x14
 1187 0171 0C       		.uleb128 0xc
 1188 0172 A9030000 		.4byte	.LASF28
 1189 0176 04       		.byte	0x4
 1190 0177 3D01     		.2byte	0x13d
 1191 0179 B5010000 		.4byte	0x1b5
 1192 017d 18       		.byte	0x18
 1193 017e 0C       		.uleb128 0xc
 1194 017f 2E010000 		.4byte	.LASF29
 1195 0183 04       		.byte	0x4
 1196 0184 3E01     		.2byte	0x13e
 1197 0186 CB010000 		.4byte	0x1cb
 1198 018a 1C       		.byte	0x1c
 1199 018b 0C       		.uleb128 0xc
 1200 018c B9010000 		.4byte	.LASF30
 1201 0190 04       		.byte	0x4
 1202 0191 3F01     		.2byte	0x13f
 1203 0193 CB010000 		.4byte	0x1cb
 1204 0197 20       		.byte	0x20
 1205 0198 0C       		.uleb128 0xc
 1206 0199 35000000 		.4byte	.LASF31
ARM GAS  C:\Users\HPz420\AppData\Local\Temp\ccz8Yfav.s 			page 26


 1207 019d 04       		.byte	0x4
 1208 019e 4101     		.2byte	0x141
 1209 01a0 E9000000 		.4byte	0xe9
 1210 01a4 24       		.byte	0x24
 1211 01a5 00       		.byte	0
 1212 01a6 0D       		.uleb128 0xd
 1213 01a7 FA000000 		.4byte	0xfa
 1214 01ab B5010000 		.4byte	0x1b5
 1215 01af 0A       		.uleb128 0xa
 1216 01b0 FA000000 		.4byte	0xfa
 1217 01b4 00       		.byte	0
 1218 01b5 07       		.uleb128 0x7
 1219 01b6 04       		.byte	0x4
 1220 01b7 A6010000 		.4byte	0x1a6
 1221 01bb 09       		.uleb128 0x9
 1222 01bc CB010000 		.4byte	0x1cb
 1223 01c0 0A       		.uleb128 0xa
 1224 01c1 10010000 		.4byte	0x110
 1225 01c5 0A       		.uleb128 0xa
 1226 01c6 05010000 		.4byte	0x105
 1227 01ca 00       		.byte	0
 1228 01cb 07       		.uleb128 0x7
 1229 01cc 04       		.byte	0x4
 1230 01cd BB010000 		.4byte	0x1bb
 1231 01d1 05       		.uleb128 0x5
 1232 01d2 6E000000 		.4byte	.LASF32
 1233 01d6 04       		.byte	0x4
 1234 01d7 4201     		.2byte	0x142
 1235 01d9 16010000 		.4byte	0x116
 1236 01dd 0E       		.uleb128 0xe
 1237 01de 27000000 		.4byte	.LASF33
 1238 01e2 01       		.byte	0x1
 1239 01e3 10       		.byte	0x10
 1240 01e4 00000000 		.4byte	.LFB0
 1241 01e8 20000000 		.4byte	.LFE0-.LFB0
 1242 01ec 01       		.uleb128 0x1
 1243 01ed 9C       		.byte	0x9c
 1244 01ee 0F       		.uleb128 0xf
 1245 01ef C9020000 		.4byte	.LASF34
 1246 01f3 01       		.byte	0x1
 1247 01f4 17       		.byte	0x17
 1248 01f5 00000000 		.4byte	.LFB1
 1249 01f9 20000000 		.4byte	.LFE1-.LFB1
 1250 01fd 01       		.uleb128 0x1
 1251 01fe 9C       		.byte	0x9c
 1252 01ff 0F       		.uleb128 0xf
 1253 0200 AB020000 		.4byte	.LASF35
 1254 0204 01       		.byte	0x1
 1255 0205 1A       		.byte	0x1a
 1256 0206 00000000 		.4byte	.LFB2
 1257 020a 20000000 		.4byte	.LFE2-.LFB2
 1258 020e 01       		.uleb128 0x1
 1259 020f 9C       		.byte	0x9c
 1260 0210 10       		.uleb128 0x10
 1261 0211 7C000000 		.4byte	.LASF42
 1262 0215 01       		.byte	0x1
 1263 0216 1E       		.byte	0x1e
ARM GAS  C:\Users\HPz420\AppData\Local\Temp\ccz8Yfav.s 			page 27


 1264 0217 00000000 		.4byte	.LFB3
 1265 021b 6C000000 		.4byte	.LFE3-.LFB3
 1266 021f 01       		.uleb128 0x1
 1267 0220 9C       		.byte	0x9c
 1268 0221 5E020000 		.4byte	0x25e
 1269 0225 11       		.uleb128 0x11
 1270 0226 66020000 		.4byte	.LASF36
 1271 022a 01       		.byte	0x1
 1272 022b 1E       		.byte	0x1e
 1273 022c D3000000 		.4byte	0xd3
 1274 0230 02       		.uleb128 0x2
 1275 0231 91       		.byte	0x91
 1276 0232 4C       		.sleb128 -52
 1277 0233 11       		.uleb128 0x11
 1278 0234 20030000 		.4byte	.LASF37
 1279 0238 01       		.byte	0x1
 1280 0239 1E       		.byte	0x1e
 1281 023a D3000000 		.4byte	0xd3
 1282 023e 02       		.uleb128 0x2
 1283 023f 91       		.byte	0x91
 1284 0240 48       		.sleb128 -56
 1285 0241 11       		.uleb128 0x11
 1286 0242 1F000000 		.4byte	.LASF38
 1287 0246 01       		.byte	0x1
 1288 0247 1E       		.byte	0x1e
 1289 0248 DE000000 		.4byte	0xde
 1290 024c 02       		.uleb128 0x2
 1291 024d 91       		.byte	0x91
 1292 024e 44       		.sleb128 -60
 1293 024f 12       		.uleb128 0x12
 1294 0250 60010000 		.4byte	.LASF46
 1295 0254 01       		.byte	0x1
 1296 0255 21       		.byte	0x21
 1297 0256 D1010000 		.4byte	0x1d1
 1298 025a 02       		.uleb128 0x2
 1299 025b 91       		.byte	0x91
 1300 025c 50       		.sleb128 -48
 1301 025d 00       		.byte	0
 1302 025e 13       		.uleb128 0x13
 1303 025f 8C030000 		.4byte	.LASF61
 1304 0263 01       		.byte	0x1
 1305 0264 32       		.byte	0x32
 1306 0265 00000000 		.4byte	.LFB4
 1307 0269 C0000000 		.4byte	.LFE4-.LFB4
 1308 026d 01       		.uleb128 0x1
 1309 026e 9C       		.byte	0x9c
 1310 026f 0E       		.uleb128 0xe
 1311 0270 85010000 		.4byte	.LASF39
 1312 0274 01       		.byte	0x1
 1313 0275 46       		.byte	0x46
 1314 0276 00000000 		.4byte	.LFB5
 1315 027a 34000000 		.4byte	.LFE5-.LFB5
 1316 027e 01       		.uleb128 0x1
 1317 027f 9C       		.byte	0x9c
 1318 0280 0E       		.uleb128 0xe
 1319 0281 DB030000 		.4byte	.LASF40
 1320 0285 01       		.byte	0x1
ARM GAS  C:\Users\HPz420\AppData\Local\Temp\ccz8Yfav.s 			page 28


 1321 0286 56       		.byte	0x56
 1322 0287 00000000 		.4byte	.LFB6
 1323 028b 28000000 		.4byte	.LFE6-.LFB6
 1324 028f 01       		.uleb128 0x1
 1325 0290 9C       		.byte	0x9c
 1326 0291 0E       		.uleb128 0xe
 1327 0292 3F030000 		.4byte	.LASF41
 1328 0296 01       		.byte	0x1
 1329 0297 5C       		.byte	0x5c
 1330 0298 00000000 		.4byte	.LFB7
 1331 029c 28000000 		.4byte	.LFE7-.LFB7
 1332 02a0 01       		.uleb128 0x1
 1333 02a1 9C       		.byte	0x9c
 1334 02a2 10       		.uleb128 0x10
 1335 02a3 7E020000 		.4byte	.LASF43
 1336 02a7 01       		.byte	0x1
 1337 02a8 63       		.byte	0x63
 1338 02a9 00000000 		.4byte	.LFB8
 1339 02ad 10010000 		.4byte	.LFE8-.LFB8
 1340 02b1 01       		.uleb128 0x1
 1341 02b2 9C       		.byte	0x9c
 1342 02b3 E0020000 		.4byte	0x2e0
 1343 02b7 11       		.uleb128 0x11
 1344 02b8 D3010000 		.4byte	.LASF44
 1345 02bc 01       		.byte	0x1
 1346 02bd 63       		.byte	0x63
 1347 02be CD000000 		.4byte	0xcd
 1348 02c2 02       		.uleb128 0x2
 1349 02c3 91       		.byte	0x91
 1350 02c4 6C       		.sleb128 -20
 1351 02c5 11       		.uleb128 0x11
 1352 02c6 3B000000 		.4byte	.LASF45
 1353 02ca 01       		.byte	0x1
 1354 02cb 63       		.byte	0x63
 1355 02cc 64000000 		.4byte	0x64
 1356 02d0 02       		.uleb128 0x2
 1357 02d1 91       		.byte	0x91
 1358 02d2 68       		.sleb128 -24
 1359 02d3 14       		.uleb128 0x14
 1360 02d4 6900     		.ascii	"i\000"
 1361 02d6 01       		.byte	0x1
 1362 02d7 7E       		.byte	0x7e
 1363 02d8 64000000 		.4byte	0x64
 1364 02dc 02       		.uleb128 0x2
 1365 02dd 91       		.byte	0x91
 1366 02de 74       		.sleb128 -12
 1367 02df 00       		.byte	0
 1368 02e0 10       		.uleb128 0x10
 1369 02e1 79030000 		.4byte	.LASF47
 1370 02e5 01       		.byte	0x1
 1371 02e6 84       		.byte	0x84
 1372 02e7 00000000 		.4byte	.LFB9
 1373 02eb 14010000 		.4byte	.LFE9-.LFB9
 1374 02ef 01       		.uleb128 0x1
 1375 02f0 9C       		.byte	0x9c
 1376 02f1 1E030000 		.4byte	0x31e
 1377 02f5 11       		.uleb128 0x11
ARM GAS  C:\Users\HPz420\AppData\Local\Temp\ccz8Yfav.s 			page 29


 1378 02f6 D3010000 		.4byte	.LASF44
 1379 02fa 01       		.byte	0x1
 1380 02fb 84       		.byte	0x84
 1381 02fc CD000000 		.4byte	0xcd
 1382 0300 02       		.uleb128 0x2
 1383 0301 91       		.byte	0x91
 1384 0302 64       		.sleb128 -28
 1385 0303 11       		.uleb128 0x11
 1386 0304 3B000000 		.4byte	.LASF45
 1387 0308 01       		.byte	0x1
 1388 0309 84       		.byte	0x84
 1389 030a 64000000 		.4byte	0x64
 1390 030e 02       		.uleb128 0x2
 1391 030f 91       		.byte	0x91
 1392 0310 60       		.sleb128 -32
 1393 0311 14       		.uleb128 0x14
 1394 0312 6900     		.ascii	"i\000"
 1395 0314 01       		.byte	0x1
 1396 0315 A6       		.byte	0xa6
 1397 0316 64000000 		.4byte	0x64
 1398 031a 02       		.uleb128 0x2
 1399 031b 91       		.byte	0x91
 1400 031c 6C       		.sleb128 -20
 1401 031d 00       		.byte	0
 1402 031e 15       		.uleb128 0x15
 1403 031f 50010000 		.4byte	.LASF62
 1404 0323 01       		.byte	0x1
 1405 0324 AD       		.byte	0xad
 1406 0325 2C000000 		.4byte	0x2c
 1407 0329 00000000 		.4byte	.LFB10
 1408 032d 50000000 		.4byte	.LFE10-.LFB10
 1409 0331 01       		.uleb128 0x1
 1410 0332 9C       		.byte	0x9c
 1411 0333 53030000 		.4byte	0x353
 1412 0337 11       		.uleb128 0x11
 1413 0338 5F000000 		.4byte	.LASF48
 1414 033c 01       		.byte	0x1
 1415 033d AD       		.byte	0xad
 1416 033e 2C000000 		.4byte	0x2c
 1417 0342 02       		.uleb128 0x2
 1418 0343 91       		.byte	0x91
 1419 0344 6F       		.sleb128 -17
 1420 0345 14       		.uleb128 0x14
 1421 0346 727600   		.ascii	"rv\000"
 1422 0349 01       		.byte	0x1
 1423 034a B7       		.byte	0xb7
 1424 034b 2C000000 		.4byte	0x2c
 1425 034f 02       		.uleb128 0x2
 1426 0350 91       		.byte	0x91
 1427 0351 77       		.sleb128 -9
 1428 0352 00       		.byte	0
 1429 0353 10       		.uleb128 0x10
 1430 0354 17010000 		.4byte	.LASF49
 1431 0358 01       		.byte	0x1
 1432 0359 BB       		.byte	0xbb
 1433 035a 00000000 		.4byte	.LFB11
 1434 035e B0000000 		.4byte	.LFE11-.LFB11
ARM GAS  C:\Users\HPz420\AppData\Local\Temp\ccz8Yfav.s 			page 30


 1435 0362 01       		.uleb128 0x1
 1436 0363 9C       		.byte	0x9c
 1437 0364 77030000 		.4byte	0x377
 1438 0368 11       		.uleb128 0x11
 1439 0369 97010000 		.4byte	.LASF50
 1440 036d 01       		.byte	0x1
 1441 036e BB       		.byte	0xbb
 1442 036f 2C000000 		.4byte	0x2c
 1443 0373 02       		.uleb128 0x2
 1444 0374 91       		.byte	0x91
 1445 0375 77       		.sleb128 -9
 1446 0376 00       		.byte	0
 1447 0377 16       		.uleb128 0x16
 1448 0378 FF020000 		.4byte	.LASF51
 1449 037c 03       		.byte	0x3
 1450 037d 1A       		.byte	0x1a
 1451 037e 6B000000 		.4byte	0x6b
 1452 0382 05       		.uleb128 0x5
 1453 0383 03       		.byte	0x3
 1454 0384 00000000 		.4byte	NSDSPI_bEnableDMA
 1455 0388 16       		.uleb128 0x16
 1456 0389 8E020000 		.4byte	.LASF52
 1457 038d 03       		.byte	0x3
 1458 038e 1E       		.byte	0x1e
 1459 038f 6B000000 		.4byte	0x6b
 1460 0393 05       		.uleb128 0x5
 1461 0394 03       		.byte	0x3
 1462 0395 00000000 		.4byte	NSDSPI_RX_Chan
 1463 0399 17       		.uleb128 0x17
 1464 039a 6B000000 		.4byte	0x6b
 1465 039e A9030000 		.4byte	0x3a9
 1466 03a2 18       		.uleb128 0x18
 1467 03a3 C0000000 		.4byte	0xc0
 1468 03a7 00       		.byte	0
 1469 03a8 00       		.byte	0
 1470 03a9 16       		.uleb128 0x16
 1471 03aa 1C040000 		.4byte	.LASF53
 1472 03ae 03       		.byte	0x3
 1473 03af 1F       		.byte	0x1f
 1474 03b0 99030000 		.4byte	0x399
 1475 03b4 05       		.uleb128 0x5
 1476 03b5 03       		.byte	0x3
 1477 03b6 00000000 		.4byte	NSDSPI_RX_TD
 1478 03ba 16       		.uleb128 0x16
 1479 03bb 11030000 		.4byte	.LASF54
 1480 03bf 03       		.byte	0x3
 1481 03c0 29       		.byte	0x29
 1482 03c1 6B000000 		.4byte	0x6b
 1483 03c5 05       		.uleb128 0x5
 1484 03c6 03       		.byte	0x3
 1485 03c7 00000000 		.4byte	NSDSPI_TX_Chan
 1486 03cb 16       		.uleb128 0x16
 1487 03cc 6C030000 		.4byte	.LASF55
 1488 03d0 03       		.byte	0x3
 1489 03d1 2A       		.byte	0x2a
 1490 03d2 99030000 		.4byte	0x399
 1491 03d6 05       		.uleb128 0x5
ARM GAS  C:\Users\HPz420\AppData\Local\Temp\ccz8Yfav.s 			page 31


 1492 03d7 03       		.byte	0x3
 1493 03d8 00000000 		.4byte	NSDSPI_TX_TD
 1494 03dc 16       		.uleb128 0x16
 1495 03dd 07000000 		.4byte	.LASF56
 1496 03e1 03       		.byte	0x3
 1497 03e2 39       		.byte	0x39
 1498 03e3 ED030000 		.4byte	0x3ed
 1499 03e7 05       		.uleb128 0x5
 1500 03e8 03       		.byte	0x3
 1501 03e9 00000000 		.4byte	NSDSPI_g_nTransferFlags
 1502 03ed 06       		.uleb128 0x6
 1503 03ee 2C000000 		.4byte	0x2c
 1504 03f2 16       		.uleb128 0x16
 1505 03f3 43000000 		.4byte	.LASF57
 1506 03f7 03       		.byte	0x3
 1507 03f8 3A       		.byte	0x3a
 1508 03f9 ED030000 		.4byte	0x3ed
 1509 03fd 05       		.uleb128 0x5
 1510 03fe 03       		.byte	0x3
 1511 03ff 00000000 		.4byte	NSDSPI_g_nCtrlState
 1512 0403 00       		.byte	0
 1513              		.section	.debug_abbrev,"",%progbits
 1514              	.Ldebug_abbrev0:
 1515 0000 01       		.uleb128 0x1
 1516 0001 11       		.uleb128 0x11
 1517 0002 01       		.byte	0x1
 1518 0003 25       		.uleb128 0x25
 1519 0004 0E       		.uleb128 0xe
 1520 0005 13       		.uleb128 0x13
 1521 0006 0B       		.uleb128 0xb
 1522 0007 03       		.uleb128 0x3
 1523 0008 0E       		.uleb128 0xe
 1524 0009 1B       		.uleb128 0x1b
 1525 000a 0E       		.uleb128 0xe
 1526 000b 55       		.uleb128 0x55
 1527 000c 17       		.uleb128 0x17
 1528 000d 11       		.uleb128 0x11
 1529 000e 01       		.uleb128 0x1
 1530 000f 10       		.uleb128 0x10
 1531 0010 17       		.uleb128 0x17
 1532 0011 00       		.byte	0
 1533 0012 00       		.byte	0
 1534 0013 02       		.uleb128 0x2
 1535 0014 24       		.uleb128 0x24
 1536 0015 00       		.byte	0
 1537 0016 0B       		.uleb128 0xb
 1538 0017 0B       		.uleb128 0xb
 1539 0018 3E       		.uleb128 0x3e
 1540 0019 0B       		.uleb128 0xb
 1541 001a 03       		.uleb128 0x3
 1542 001b 0E       		.uleb128 0xe
 1543 001c 00       		.byte	0
 1544 001d 00       		.byte	0
 1545 001e 03       		.uleb128 0x3
 1546 001f 24       		.uleb128 0x24
 1547 0020 00       		.byte	0
 1548 0021 0B       		.uleb128 0xb
ARM GAS  C:\Users\HPz420\AppData\Local\Temp\ccz8Yfav.s 			page 32


 1549 0022 0B       		.uleb128 0xb
 1550 0023 3E       		.uleb128 0x3e
 1551 0024 0B       		.uleb128 0xb
 1552 0025 03       		.uleb128 0x3
 1553 0026 08       		.uleb128 0x8
 1554 0027 00       		.byte	0
 1555 0028 00       		.byte	0
 1556 0029 04       		.uleb128 0x4
 1557 002a 16       		.uleb128 0x16
 1558 002b 00       		.byte	0
 1559 002c 03       		.uleb128 0x3
 1560 002d 0E       		.uleb128 0xe
 1561 002e 3A       		.uleb128 0x3a
 1562 002f 0B       		.uleb128 0xb
 1563 0030 3B       		.uleb128 0x3b
 1564 0031 0B       		.uleb128 0xb
 1565 0032 49       		.uleb128 0x49
 1566 0033 13       		.uleb128 0x13
 1567 0034 00       		.byte	0
 1568 0035 00       		.byte	0
 1569 0036 05       		.uleb128 0x5
 1570 0037 16       		.uleb128 0x16
 1571 0038 00       		.byte	0
 1572 0039 03       		.uleb128 0x3
 1573 003a 0E       		.uleb128 0xe
 1574 003b 3A       		.uleb128 0x3a
 1575 003c 0B       		.uleb128 0xb
 1576 003d 3B       		.uleb128 0x3b
 1577 003e 05       		.uleb128 0x5
 1578 003f 49       		.uleb128 0x49
 1579 0040 13       		.uleb128 0x13
 1580 0041 00       		.byte	0
 1581 0042 00       		.byte	0
 1582 0043 06       		.uleb128 0x6
 1583 0044 35       		.uleb128 0x35
 1584 0045 00       		.byte	0
 1585 0046 49       		.uleb128 0x49
 1586 0047 13       		.uleb128 0x13
 1587 0048 00       		.byte	0
 1588 0049 00       		.byte	0
 1589 004a 07       		.uleb128 0x7
 1590 004b 0F       		.uleb128 0xf
 1591 004c 00       		.byte	0
 1592 004d 0B       		.uleb128 0xb
 1593 004e 0B       		.uleb128 0xb
 1594 004f 49       		.uleb128 0x49
 1595 0050 13       		.uleb128 0x13
 1596 0051 00       		.byte	0
 1597 0052 00       		.byte	0
 1598 0053 08       		.uleb128 0x8
 1599 0054 15       		.uleb128 0x15
 1600 0055 00       		.byte	0
 1601 0056 27       		.uleb128 0x27
 1602 0057 19       		.uleb128 0x19
 1603 0058 00       		.byte	0
 1604 0059 00       		.byte	0
 1605 005a 09       		.uleb128 0x9
ARM GAS  C:\Users\HPz420\AppData\Local\Temp\ccz8Yfav.s 			page 33


 1606 005b 15       		.uleb128 0x15
 1607 005c 01       		.byte	0x1
 1608 005d 27       		.uleb128 0x27
 1609 005e 19       		.uleb128 0x19
 1610 005f 01       		.uleb128 0x1
 1611 0060 13       		.uleb128 0x13
 1612 0061 00       		.byte	0
 1613 0062 00       		.byte	0
 1614 0063 0A       		.uleb128 0xa
 1615 0064 05       		.uleb128 0x5
 1616 0065 00       		.byte	0
 1617 0066 49       		.uleb128 0x49
 1618 0067 13       		.uleb128 0x13
 1619 0068 00       		.byte	0
 1620 0069 00       		.byte	0
 1621 006a 0B       		.uleb128 0xb
 1622 006b 13       		.uleb128 0x13
 1623 006c 01       		.byte	0x1
 1624 006d 03       		.uleb128 0x3
 1625 006e 0E       		.uleb128 0xe
 1626 006f 0B       		.uleb128 0xb
 1627 0070 0B       		.uleb128 0xb
 1628 0071 3A       		.uleb128 0x3a
 1629 0072 0B       		.uleb128 0xb
 1630 0073 3B       		.uleb128 0x3b
 1631 0074 05       		.uleb128 0x5
 1632 0075 01       		.uleb128 0x1
 1633 0076 13       		.uleb128 0x13
 1634 0077 00       		.byte	0
 1635 0078 00       		.byte	0
 1636 0079 0C       		.uleb128 0xc
 1637 007a 0D       		.uleb128 0xd
 1638 007b 00       		.byte	0
 1639 007c 03       		.uleb128 0x3
 1640 007d 0E       		.uleb128 0xe
 1641 007e 3A       		.uleb128 0x3a
 1642 007f 0B       		.uleb128 0xb
 1643 0080 3B       		.uleb128 0x3b
 1644 0081 05       		.uleb128 0x5
 1645 0082 49       		.uleb128 0x49
 1646 0083 13       		.uleb128 0x13
 1647 0084 38       		.uleb128 0x38
 1648 0085 0B       		.uleb128 0xb
 1649 0086 00       		.byte	0
 1650 0087 00       		.byte	0
 1651 0088 0D       		.uleb128 0xd
 1652 0089 15       		.uleb128 0x15
 1653 008a 01       		.byte	0x1
 1654 008b 27       		.uleb128 0x27
 1655 008c 19       		.uleb128 0x19
 1656 008d 49       		.uleb128 0x49
 1657 008e 13       		.uleb128 0x13
 1658 008f 01       		.uleb128 0x1
 1659 0090 13       		.uleb128 0x13
 1660 0091 00       		.byte	0
 1661 0092 00       		.byte	0
 1662 0093 0E       		.uleb128 0xe
ARM GAS  C:\Users\HPz420\AppData\Local\Temp\ccz8Yfav.s 			page 34


 1663 0094 2E       		.uleb128 0x2e
 1664 0095 00       		.byte	0
 1665 0096 3F       		.uleb128 0x3f
 1666 0097 19       		.uleb128 0x19
 1667 0098 03       		.uleb128 0x3
 1668 0099 0E       		.uleb128 0xe
 1669 009a 3A       		.uleb128 0x3a
 1670 009b 0B       		.uleb128 0xb
 1671 009c 3B       		.uleb128 0x3b
 1672 009d 0B       		.uleb128 0xb
 1673 009e 11       		.uleb128 0x11
 1674 009f 01       		.uleb128 0x1
 1675 00a0 12       		.uleb128 0x12
 1676 00a1 06       		.uleb128 0x6
 1677 00a2 40       		.uleb128 0x40
 1678 00a3 18       		.uleb128 0x18
 1679 00a4 9642     		.uleb128 0x2116
 1680 00a6 19       		.uleb128 0x19
 1681 00a7 00       		.byte	0
 1682 00a8 00       		.byte	0
 1683 00a9 0F       		.uleb128 0xf
 1684 00aa 2E       		.uleb128 0x2e
 1685 00ab 00       		.byte	0
 1686 00ac 3F       		.uleb128 0x3f
 1687 00ad 19       		.uleb128 0x19
 1688 00ae 03       		.uleb128 0x3
 1689 00af 0E       		.uleb128 0xe
 1690 00b0 3A       		.uleb128 0x3a
 1691 00b1 0B       		.uleb128 0xb
 1692 00b2 3B       		.uleb128 0x3b
 1693 00b3 0B       		.uleb128 0xb
 1694 00b4 11       		.uleb128 0x11
 1695 00b5 01       		.uleb128 0x1
 1696 00b6 12       		.uleb128 0x12
 1697 00b7 06       		.uleb128 0x6
 1698 00b8 40       		.uleb128 0x40
 1699 00b9 18       		.uleb128 0x18
 1700 00ba 9742     		.uleb128 0x2117
 1701 00bc 19       		.uleb128 0x19
 1702 00bd 00       		.byte	0
 1703 00be 00       		.byte	0
 1704 00bf 10       		.uleb128 0x10
 1705 00c0 2E       		.uleb128 0x2e
 1706 00c1 01       		.byte	0x1
 1707 00c2 3F       		.uleb128 0x3f
 1708 00c3 19       		.uleb128 0x19
 1709 00c4 03       		.uleb128 0x3
 1710 00c5 0E       		.uleb128 0xe
 1711 00c6 3A       		.uleb128 0x3a
 1712 00c7 0B       		.uleb128 0xb
 1713 00c8 3B       		.uleb128 0x3b
 1714 00c9 0B       		.uleb128 0xb
 1715 00ca 27       		.uleb128 0x27
 1716 00cb 19       		.uleb128 0x19
 1717 00cc 11       		.uleb128 0x11
 1718 00cd 01       		.uleb128 0x1
 1719 00ce 12       		.uleb128 0x12
ARM GAS  C:\Users\HPz420\AppData\Local\Temp\ccz8Yfav.s 			page 35


 1720 00cf 06       		.uleb128 0x6
 1721 00d0 40       		.uleb128 0x40
 1722 00d1 18       		.uleb128 0x18
 1723 00d2 9642     		.uleb128 0x2116
 1724 00d4 19       		.uleb128 0x19
 1725 00d5 01       		.uleb128 0x1
 1726 00d6 13       		.uleb128 0x13
 1727 00d7 00       		.byte	0
 1728 00d8 00       		.byte	0
 1729 00d9 11       		.uleb128 0x11
 1730 00da 05       		.uleb128 0x5
 1731 00db 00       		.byte	0
 1732 00dc 03       		.uleb128 0x3
 1733 00dd 0E       		.uleb128 0xe
 1734 00de 3A       		.uleb128 0x3a
 1735 00df 0B       		.uleb128 0xb
 1736 00e0 3B       		.uleb128 0x3b
 1737 00e1 0B       		.uleb128 0xb
 1738 00e2 49       		.uleb128 0x49
 1739 00e3 13       		.uleb128 0x13
 1740 00e4 02       		.uleb128 0x2
 1741 00e5 18       		.uleb128 0x18
 1742 00e6 00       		.byte	0
 1743 00e7 00       		.byte	0
 1744 00e8 12       		.uleb128 0x12
 1745 00e9 34       		.uleb128 0x34
 1746 00ea 00       		.byte	0
 1747 00eb 03       		.uleb128 0x3
 1748 00ec 0E       		.uleb128 0xe
 1749 00ed 3A       		.uleb128 0x3a
 1750 00ee 0B       		.uleb128 0xb
 1751 00ef 3B       		.uleb128 0x3b
 1752 00f0 0B       		.uleb128 0xb
 1753 00f1 49       		.uleb128 0x49
 1754 00f2 13       		.uleb128 0x13
 1755 00f3 02       		.uleb128 0x2
 1756 00f4 18       		.uleb128 0x18
 1757 00f5 00       		.byte	0
 1758 00f6 00       		.byte	0
 1759 00f7 13       		.uleb128 0x13
 1760 00f8 2E       		.uleb128 0x2e
 1761 00f9 00       		.byte	0
 1762 00fa 3F       		.uleb128 0x3f
 1763 00fb 19       		.uleb128 0x19
 1764 00fc 03       		.uleb128 0x3
 1765 00fd 0E       		.uleb128 0xe
 1766 00fe 3A       		.uleb128 0x3a
 1767 00ff 0B       		.uleb128 0xb
 1768 0100 3B       		.uleb128 0x3b
 1769 0101 0B       		.uleb128 0xb
 1770 0102 27       		.uleb128 0x27
 1771 0103 19       		.uleb128 0x19
 1772 0104 11       		.uleb128 0x11
 1773 0105 01       		.uleb128 0x1
 1774 0106 12       		.uleb128 0x12
 1775 0107 06       		.uleb128 0x6
 1776 0108 40       		.uleb128 0x40
ARM GAS  C:\Users\HPz420\AppData\Local\Temp\ccz8Yfav.s 			page 36


 1777 0109 18       		.uleb128 0x18
 1778 010a 9642     		.uleb128 0x2116
 1779 010c 19       		.uleb128 0x19
 1780 010d 00       		.byte	0
 1781 010e 00       		.byte	0
 1782 010f 14       		.uleb128 0x14
 1783 0110 34       		.uleb128 0x34
 1784 0111 00       		.byte	0
 1785 0112 03       		.uleb128 0x3
 1786 0113 08       		.uleb128 0x8
 1787 0114 3A       		.uleb128 0x3a
 1788 0115 0B       		.uleb128 0xb
 1789 0116 3B       		.uleb128 0x3b
 1790 0117 0B       		.uleb128 0xb
 1791 0118 49       		.uleb128 0x49
 1792 0119 13       		.uleb128 0x13
 1793 011a 02       		.uleb128 0x2
 1794 011b 18       		.uleb128 0x18
 1795 011c 00       		.byte	0
 1796 011d 00       		.byte	0
 1797 011e 15       		.uleb128 0x15
 1798 011f 2E       		.uleb128 0x2e
 1799 0120 01       		.byte	0x1
 1800 0121 3F       		.uleb128 0x3f
 1801 0122 19       		.uleb128 0x19
 1802 0123 03       		.uleb128 0x3
 1803 0124 0E       		.uleb128 0xe
 1804 0125 3A       		.uleb128 0x3a
 1805 0126 0B       		.uleb128 0xb
 1806 0127 3B       		.uleb128 0x3b
 1807 0128 0B       		.uleb128 0xb
 1808 0129 27       		.uleb128 0x27
 1809 012a 19       		.uleb128 0x19
 1810 012b 49       		.uleb128 0x49
 1811 012c 13       		.uleb128 0x13
 1812 012d 11       		.uleb128 0x11
 1813 012e 01       		.uleb128 0x1
 1814 012f 12       		.uleb128 0x12
 1815 0130 06       		.uleb128 0x6
 1816 0131 40       		.uleb128 0x40
 1817 0132 18       		.uleb128 0x18
 1818 0133 9642     		.uleb128 0x2116
 1819 0135 19       		.uleb128 0x19
 1820 0136 01       		.uleb128 0x1
 1821 0137 13       		.uleb128 0x13
 1822 0138 00       		.byte	0
 1823 0139 00       		.byte	0
 1824 013a 16       		.uleb128 0x16
 1825 013b 34       		.uleb128 0x34
 1826 013c 00       		.byte	0
 1827 013d 03       		.uleb128 0x3
 1828 013e 0E       		.uleb128 0xe
 1829 013f 3A       		.uleb128 0x3a
 1830 0140 0B       		.uleb128 0xb
 1831 0141 3B       		.uleb128 0x3b
 1832 0142 0B       		.uleb128 0xb
 1833 0143 49       		.uleb128 0x49
ARM GAS  C:\Users\HPz420\AppData\Local\Temp\ccz8Yfav.s 			page 37


 1834 0144 13       		.uleb128 0x13
 1835 0145 3F       		.uleb128 0x3f
 1836 0146 19       		.uleb128 0x19
 1837 0147 02       		.uleb128 0x2
 1838 0148 18       		.uleb128 0x18
 1839 0149 00       		.byte	0
 1840 014a 00       		.byte	0
 1841 014b 17       		.uleb128 0x17
 1842 014c 01       		.uleb128 0x1
 1843 014d 01       		.byte	0x1
 1844 014e 49       		.uleb128 0x49
 1845 014f 13       		.uleb128 0x13
 1846 0150 01       		.uleb128 0x1
 1847 0151 13       		.uleb128 0x13
 1848 0152 00       		.byte	0
 1849 0153 00       		.byte	0
 1850 0154 18       		.uleb128 0x18
 1851 0155 21       		.uleb128 0x21
 1852 0156 00       		.byte	0
 1853 0157 49       		.uleb128 0x49
 1854 0158 13       		.uleb128 0x13
 1855 0159 2F       		.uleb128 0x2f
 1856 015a 0B       		.uleb128 0xb
 1857 015b 00       		.byte	0
 1858 015c 00       		.byte	0
 1859 015d 00       		.byte	0
 1860              		.section	.debug_aranges,"",%progbits
 1861 0000 74000000 		.4byte	0x74
 1862 0004 0200     		.2byte	0x2
 1863 0006 00000000 		.4byte	.Ldebug_info0
 1864 000a 04       		.byte	0x4
 1865 000b 00       		.byte	0
 1866 000c 0000     		.2byte	0
 1867 000e 0000     		.2byte	0
 1868 0010 00000000 		.4byte	.LFB0
 1869 0014 20000000 		.4byte	.LFE0-.LFB0
 1870 0018 00000000 		.4byte	.LFB1
 1871 001c 20000000 		.4byte	.LFE1-.LFB1
 1872 0020 00000000 		.4byte	.LFB2
 1873 0024 20000000 		.4byte	.LFE2-.LFB2
 1874 0028 00000000 		.4byte	.LFB3
 1875 002c 6C000000 		.4byte	.LFE3-.LFB3
 1876 0030 00000000 		.4byte	.LFB4
 1877 0034 C0000000 		.4byte	.LFE4-.LFB4
 1878 0038 00000000 		.4byte	.LFB5
 1879 003c 34000000 		.4byte	.LFE5-.LFB5
 1880 0040 00000000 		.4byte	.LFB6
 1881 0044 28000000 		.4byte	.LFE6-.LFB6
 1882 0048 00000000 		.4byte	.LFB7
 1883 004c 28000000 		.4byte	.LFE7-.LFB7
 1884 0050 00000000 		.4byte	.LFB8
 1885 0054 10010000 		.4byte	.LFE8-.LFB8
 1886 0058 00000000 		.4byte	.LFB9
 1887 005c 14010000 		.4byte	.LFE9-.LFB9
 1888 0060 00000000 		.4byte	.LFB10
 1889 0064 50000000 		.4byte	.LFE10-.LFB10
 1890 0068 00000000 		.4byte	.LFB11
ARM GAS  C:\Users\HPz420\AppData\Local\Temp\ccz8Yfav.s 			page 38


 1891 006c B0000000 		.4byte	.LFE11-.LFB11
 1892 0070 00000000 		.4byte	0
 1893 0074 00000000 		.4byte	0
 1894              		.section	.debug_ranges,"",%progbits
 1895              	.Ldebug_ranges0:
 1896 0000 00000000 		.4byte	.LFB0
 1897 0004 20000000 		.4byte	.LFE0
 1898 0008 00000000 		.4byte	.LFB1
 1899 000c 20000000 		.4byte	.LFE1
 1900 0010 00000000 		.4byte	.LFB2
 1901 0014 20000000 		.4byte	.LFE2
 1902 0018 00000000 		.4byte	.LFB3
 1903 001c 6C000000 		.4byte	.LFE3
 1904 0020 00000000 		.4byte	.LFB4
 1905 0024 C0000000 		.4byte	.LFE4
 1906 0028 00000000 		.4byte	.LFB5
 1907 002c 34000000 		.4byte	.LFE5
 1908 0030 00000000 		.4byte	.LFB6
 1909 0034 28000000 		.4byte	.LFE6
 1910 0038 00000000 		.4byte	.LFB7
 1911 003c 28000000 		.4byte	.LFE7
 1912 0040 00000000 		.4byte	.LFB8
 1913 0044 10010000 		.4byte	.LFE8
 1914 0048 00000000 		.4byte	.LFB9
 1915 004c 14010000 		.4byte	.LFE9
 1916 0050 00000000 		.4byte	.LFB10
 1917 0054 50000000 		.4byte	.LFE10
 1918 0058 00000000 		.4byte	.LFB11
 1919 005c B0000000 		.4byte	.LFE11
 1920 0060 00000000 		.4byte	0
 1921 0064 00000000 		.4byte	0
 1922              		.section	.debug_line,"",%progbits
 1923              	.Ldebug_line0:
 1924 0000 FA010000 		.section	.debug_str,"MS",%progbits,1
 1924      02007700 
 1924      00000201 
 1924      FB0E0D00 
 1924      01010101 
 1925              	.LASF27:
 1926 0000 53505354 		.ascii	"SPSTOP\000"
 1926      4F5000
 1927              	.LASF56:
 1928 0007 4E534453 		.ascii	"NSDSPI_g_nTransferFlags\000"
 1928      50495F67 
 1928      5F6E5472 
 1928      616E7366 
 1928      6572466C 
 1929              	.LASF38:
 1930 001f 466E5072 		.ascii	"FnPrint\000"
 1930      696E7400 
 1931              	.LASF33:
 1932 0027 4E534453 		.ascii	"NSDSPI_RX_ISR\000"
 1932      50495F52 
 1932      585F4953 
 1932      5200
 1933              	.LASF31:
 1934 0035 5052494E 		.ascii	"PRINT\000"
ARM GAS  C:\Users\HPz420\AppData\Local\Temp\ccz8Yfav.s 			page 39


 1934      5400
 1935              	.LASF45:
 1936 003b 6E4C656E 		.ascii	"nLength\000"
 1936      67746800 
 1937              	.LASF57:
 1938 0043 4E534453 		.ascii	"NSDSPI_g_nCtrlState\000"
 1938      50495F67 
 1938      5F6E4374 
 1938      726C5374 
 1938      61746500 
 1939              	.LASF26:
 1940 0057 53505354 		.ascii	"SPSTART\000"
 1940      41525400 
 1941              	.LASF48:
 1942 005f 6E427974 		.ascii	"nByte\000"
 1942      6500
 1943              	.LASF17:
 1944 0065 73697A65 		.ascii	"sizetype\000"
 1944      74797065 
 1944      00
 1945              	.LASF32:
 1946 006e 5350495F 		.ascii	"SPI_FUNCTIONS\000"
 1946      46554E43 
 1946      54494F4E 
 1946      5300
 1947              	.LASF42:
 1948 007c 4E534453 		.ascii	"NSDSPI_Start\000"
 1948      50495F53 
 1948      74617274 
 1948      00
 1949              	.LASF58:
 1950 0089 474E5520 		.ascii	"GNU C11 5.4.1 20160609 (release) [ARM/embedded-5-br"
 1950      43313120 
 1950      352E342E 
 1950      31203230 
 1950      31363036 
 1951 00bc 616E6368 		.ascii	"anch revision 237715] -mcpu=cortex-m3 -mthumb -g -O"
 1951      20726576 
 1951      6973696F 
 1951      6E203233 
 1951      37373135 
 1952 00ef 30202D66 		.ascii	"0 -ffunction-sections -ffat-lto-objects\000"
 1952      66756E63 
 1952      74696F6E 
 1952      2D736563 
 1952      74696F6E 
 1953              	.LASF49:
 1954 0117 4E534453 		.ascii	"NSDSPI_SetDMAMode\000"
 1954      50495F53 
 1954      6574444D 
 1954      414D6F64 
 1954      6500
 1955              	.LASF20:
 1956 0129 42595445 		.ascii	"BYTE\000"
 1956      00
 1957              	.LASF29:
 1958 012e 53505258 		.ascii	"SPRXSTREAM\000"
ARM GAS  C:\Users\HPz420\AppData\Local\Temp\ccz8Yfav.s 			page 40


 1958      53545245 
 1958      414D00
 1959              	.LASF2:
 1960 0139 73686F72 		.ascii	"short int\000"
 1960      7420696E 
 1960      7400
 1961              	.LASF10:
 1962 0143 75696E74 		.ascii	"uint16\000"
 1962      313600
 1963              	.LASF9:
 1964 014a 75696E74 		.ascii	"uint8\000"
 1964      3800
 1965              	.LASF62:
 1966 0150 4E534453 		.ascii	"NSDSPI_SwapByte\000"
 1966      50495F53 
 1966      77617042 
 1966      79746500 
 1967              	.LASF46:
 1968 0160 53706946 		.ascii	"SpiFuncs\000"
 1968      756E6373 
 1968      00
 1969              	.LASF22:
 1970 0169 53505345 		.ascii	"SPSELECTCARD\000"
 1970      4C454354 
 1970      43415244 
 1970      00
 1971              	.LASF19:
 1972 0176 4E534453 		.ascii	"NSDSPI_PRNTFXN\000"
 1972      50495F50 
 1972      524E5446 
 1972      584E00
 1973              	.LASF39:
 1974 0185 4E534453 		.ascii	"NSDSPI_Stop\000"
 1974      50495F53 
 1974      746F7000 
 1975              	.LASF12:
 1976 0191 666C6F61 		.ascii	"float\000"
 1976      7400
 1977              	.LASF50:
 1978 0197 62456E61 		.ascii	"bEnableDMA\000"
 1978      626C6544 
 1978      4D4100
 1979              	.LASF6:
 1980 01a2 6C6F6E67 		.ascii	"long long int\000"
 1980      206C6F6E 
 1980      6720696E 
 1980      7400
 1981              	.LASF4:
 1982 01b0 6C6F6E67 		.ascii	"long int\000"
 1982      20696E74 
 1982      00
 1983              	.LASF30:
 1984 01b9 53505458 		.ascii	"SPTXSTREAM\000"
 1984      53545245 
 1984      414D00
 1985              	.LASF23:
 1986 01c4 53504445 		.ascii	"SPDESELECTCARD\000"
ARM GAS  C:\Users\HPz420\AppData\Local\Temp\ccz8Yfav.s 			page 41


 1986      53454C45 
 1986      43544341 
 1986      524400
 1987              	.LASF44:
 1988 01d3 70427566 		.ascii	"pBuffer\000"
 1988      66657200 
 1989              	.LASF60:
 1990 01db 433A5C55 		.ascii	"C:\\Users\\HPz420\\Documents\\GitHub\\Doug Gillilan"
 1990      73657273 
 1990      5C48507A 
 1990      3432305C 
 1990      446F6375 
 1991 0209 645C5265 		.ascii	"d\\Retro-Computers\\Z80\\PSOC\\PSOC_Design_Files\\N"
 1991      74726F2D 
 1991      436F6D70 
 1991      75746572 
 1991      735C5A38 
 1992 0237 53445350 		.ascii	"SDSPI-master\\ComponentTest\\ComponentTest.cydsn\000"
 1992      492D6D61 
 1992      73746572 
 1992      5C436F6D 
 1992      706F6E65 
 1993              	.LASF36:
 1994 0266 466E5365 		.ascii	"FnSelSlowCk\000"
 1994      6C536C6F 
 1994      77436B00 
 1995              	.LASF16:
 1996 0272 6C6F6E67 		.ascii	"long double\000"
 1996      20646F75 
 1996      626C6500 
 1997              	.LASF43:
 1998 027e 4E534453 		.ascii	"NSDSPI_SendData\000"
 1998      50495F53 
 1998      656E6444 
 1998      61746100 
 1999              	.LASF52:
 2000 028e 4E534453 		.ascii	"NSDSPI_RX_Chan\000"
 2000      50495F52 
 2000      585F4368 
 2000      616E00
 2001              	.LASF1:
 2002 029d 756E7369 		.ascii	"unsigned char\000"
 2002      676E6564 
 2002      20636861 
 2002      7200
 2003              	.LASF35:
 2004 02ab 4E534453 		.ascii	"NSDSPI_TX_DMA_ISR\000"
 2004      50495F54 
 2004      585F444D 
 2004      415F4953 
 2004      5200
 2005              	.LASF0:
 2006 02bd 7369676E 		.ascii	"signed char\000"
 2006      65642063 
 2006      68617200 
 2007              	.LASF34:
 2008 02c9 4E534453 		.ascii	"NSDSPI_RX_DMA_ISR\000"
ARM GAS  C:\Users\HPz420\AppData\Local\Temp\ccz8Yfav.s 			page 42


 2008      50495F52 
 2008      585F444D 
 2008      415F4953 
 2008      5200
 2009              	.LASF7:
 2010 02db 6C6F6E67 		.ascii	"long long unsigned int\000"
 2010      206C6F6E 
 2010      6720756E 
 2010      7369676E 
 2010      65642069 
 2011              	.LASF8:
 2012 02f2 756E7369 		.ascii	"unsigned int\000"
 2012      676E6564 
 2012      20696E74 
 2012      00
 2013              	.LASF51:
 2014 02ff 4E534453 		.ascii	"NSDSPI_bEnableDMA\000"
 2014      50495F62 
 2014      456E6162 
 2014      6C65444D 
 2014      4100
 2015              	.LASF54:
 2016 0311 4E534453 		.ascii	"NSDSPI_TX_Chan\000"
 2016      50495F54 
 2016      585F4368 
 2016      616E00
 2017              	.LASF37:
 2018 0320 466E5365 		.ascii	"FnSelFastCk\000"
 2018      6C466173 
 2018      74436B00 
 2019              	.LASF3:
 2020 032c 73686F72 		.ascii	"short unsigned int\000"
 2020      7420756E 
 2020      7369676E 
 2020      65642069 
 2020      6E7400
 2021              	.LASF41:
 2022 033f 4E534453 		.ascii	"NSDSPI_DeselectCard\000"
 2022      50495F44 
 2022      6573656C 
 2022      65637443 
 2022      61726400 
 2023              	.LASF14:
 2024 0353 63686172 		.ascii	"char\000"
 2024      00
 2025              	.LASF21:
 2026 0358 55494E54 		.ascii	"UINT\000"
 2026      00
 2027              	.LASF18:
 2028 035d 4E534453 		.ascii	"NSDSPI_VOIDFXN\000"
 2028      50495F56 
 2028      4F494446 
 2028      584E00
 2029              	.LASF55:
 2030 036c 4E534453 		.ascii	"NSDSPI_TX_TD\000"
 2030      50495F54 
 2030      585F5444 
ARM GAS  C:\Users\HPz420\AppData\Local\Temp\ccz8Yfav.s 			page 43


 2030      00
 2031              	.LASF47:
 2032 0379 4E534453 		.ascii	"NSDSPI_ReceiveData\000"
 2032      50495F52 
 2032      65636569 
 2032      76654461 
 2032      746100
 2033              	.LASF61:
 2034 038c 4E534453 		.ascii	"NSDSPI_StartInterface\000"
 2034      50495F53 
 2034      74617274 
 2034      496E7465 
 2034      72666163 
 2035              	.LASF11:
 2036 03a2 75696E74 		.ascii	"uint32\000"
 2036      333200
 2037              	.LASF28:
 2038 03a9 53504558 		.ascii	"SPEXCHANGE\000"
 2038      4348414E 
 2038      474500
 2039              	.LASF15:
 2040 03b4 72656738 		.ascii	"reg8\000"
 2040      00
 2041              	.LASF5:
 2042 03b9 6C6F6E67 		.ascii	"long unsigned int\000"
 2042      20756E73 
 2042      69676E65 
 2042      6420696E 
 2042      7400
 2043              	.LASF13:
 2044 03cb 646F7562 		.ascii	"double\000"
 2044      6C6500
 2045              	.LASF24:
 2046 03d2 5350534C 		.ascii	"SPSLOWCK\000"
 2046      4F57434B 
 2046      00
 2047              	.LASF40:
 2048 03db 4E534453 		.ascii	"NSDSPI_SelectCard\000"
 2048      50495F53 
 2048      656C6563 
 2048      74436172 
 2048      6400
 2049              	.LASF59:
 2050 03ed 47656E65 		.ascii	"Generated_Source\\PSoC5\\NSDSPI_funcs.c\000"
 2050      72617465 
 2050      645F536F 
 2050      75726365 
 2050      5C50536F 
 2051              	.LASF25:
 2052 0413 53504641 		.ascii	"SPFASTCK\000"
 2052      5354434B 
 2052      00
 2053              	.LASF53:
 2054 041c 4E534453 		.ascii	"NSDSPI_RX_TD\000"
 2054      50495F52 
 2054      585F5444 
 2054      00
ARM GAS  C:\Users\HPz420\AppData\Local\Temp\ccz8Yfav.s 			page 44


 2055              		.ident	"GCC: (GNU Tools for ARM Embedded Processors) 5.4.1 20160609 (release) [ARM/embedded-5-bran
