ARM GAS  C:\Users\HPz420\AppData\Local\Temp\ccL1Z7eE.s 			page 1


   1              		.syntax unified
   2              		.cpu cortex-m3
   3              		.fpu softvfp
   4              		.eabi_attribute 20, 1
   5              		.eabi_attribute 21, 1
   6              		.eabi_attribute 23, 3
   7              		.eabi_attribute 24, 1
   8              		.eabi_attribute 25, 1
   9              		.eabi_attribute 26, 1
  10              		.eabi_attribute 30, 6
  11              		.eabi_attribute 34, 1
  12              		.eabi_attribute 18, 4
  13              		.thumb
  14              		.syntax unified
  15              		.file	"Pin_1.c"
  16              		.text
  17              	.Ltext0:
  18              		.cfi_sections	.debug_frame
  19              		.section	.text.Pin_1_Write,"ax",%progbits
  20              		.align	2
  21              		.global	Pin_1_Write
  22              		.thumb
  23              		.thumb_func
  24              		.type	Pin_1_Write, %function
  25              	Pin_1_Write:
  26              	.LFB0:
  27              		.file 1 "Generated_Source\\PSoC5\\Pin_1.c"
   1:Generated_Source\PSoC5/Pin_1.c **** /*******************************************************************************
   2:Generated_Source\PSoC5/Pin_1.c **** * File Name: Pin_1.c  
   3:Generated_Source\PSoC5/Pin_1.c **** * Version 2.10
   4:Generated_Source\PSoC5/Pin_1.c **** *
   5:Generated_Source\PSoC5/Pin_1.c **** * Description:
   6:Generated_Source\PSoC5/Pin_1.c **** *  This file contains API to enable firmware control of a Pins component.
   7:Generated_Source\PSoC5/Pin_1.c **** *
   8:Generated_Source\PSoC5/Pin_1.c **** * Note:
   9:Generated_Source\PSoC5/Pin_1.c **** *
  10:Generated_Source\PSoC5/Pin_1.c **** ********************************************************************************
  11:Generated_Source\PSoC5/Pin_1.c **** * Copyright 2008-2014, Cypress Semiconductor Corporation.  All rights reserved.
  12:Generated_Source\PSoC5/Pin_1.c **** * You may use this file only in accordance with the license, terms, conditions, 
  13:Generated_Source\PSoC5/Pin_1.c **** * disclaimers, and limitations in the end user license agreement accompanying 
  14:Generated_Source\PSoC5/Pin_1.c **** * the software package with which this file was provided.
  15:Generated_Source\PSoC5/Pin_1.c **** *******************************************************************************/
  16:Generated_Source\PSoC5/Pin_1.c **** 
  17:Generated_Source\PSoC5/Pin_1.c **** #include "cytypes.h"
  18:Generated_Source\PSoC5/Pin_1.c **** #include "Pin_1.h"
  19:Generated_Source\PSoC5/Pin_1.c **** 
  20:Generated_Source\PSoC5/Pin_1.c **** /* APIs are not generated for P15[7:6] on PSoC 5 */
  21:Generated_Source\PSoC5/Pin_1.c **** #if !(CY_PSOC5A &&\
  22:Generated_Source\PSoC5/Pin_1.c **** 	 Pin_1__PORT == 15 && ((Pin_1__MASK & 0xC0) != 0))
  23:Generated_Source\PSoC5/Pin_1.c **** 
  24:Generated_Source\PSoC5/Pin_1.c **** 
  25:Generated_Source\PSoC5/Pin_1.c **** /*******************************************************************************
  26:Generated_Source\PSoC5/Pin_1.c **** * Function Name: Pin_1_Write
  27:Generated_Source\PSoC5/Pin_1.c **** ********************************************************************************
  28:Generated_Source\PSoC5/Pin_1.c **** *
  29:Generated_Source\PSoC5/Pin_1.c **** * Summary:
  30:Generated_Source\PSoC5/Pin_1.c **** *  Assign a new value to the digital port's data output register.  
ARM GAS  C:\Users\HPz420\AppData\Local\Temp\ccL1Z7eE.s 			page 2


  31:Generated_Source\PSoC5/Pin_1.c **** *
  32:Generated_Source\PSoC5/Pin_1.c **** * Parameters:  
  33:Generated_Source\PSoC5/Pin_1.c **** *  prtValue:  The value to be assigned to the Digital Port. 
  34:Generated_Source\PSoC5/Pin_1.c **** *
  35:Generated_Source\PSoC5/Pin_1.c **** * Return: 
  36:Generated_Source\PSoC5/Pin_1.c **** *  None
  37:Generated_Source\PSoC5/Pin_1.c **** *  
  38:Generated_Source\PSoC5/Pin_1.c **** *******************************************************************************/
  39:Generated_Source\PSoC5/Pin_1.c **** void Pin_1_Write(uint8 value) 
  40:Generated_Source\PSoC5/Pin_1.c **** {
  28              		.loc 1 40 0
  29              		.cfi_startproc
  30              		@ args = 0, pretend = 0, frame = 16
  31              		@ frame_needed = 1, uses_anonymous_args = 0
  32              		@ link register save eliminated.
  33 0000 80B4     		push	{r7}
  34              		.cfi_def_cfa_offset 4
  35              		.cfi_offset 7, -4
  36 0002 85B0     		sub	sp, sp, #20
  37              		.cfi_def_cfa_offset 24
  38 0004 00AF     		add	r7, sp, #0
  39              		.cfi_def_cfa_register 7
  40 0006 0346     		mov	r3, r0
  41 0008 FB71     		strb	r3, [r7, #7]
  41:Generated_Source\PSoC5/Pin_1.c ****     uint8 staticBits = (Pin_1_DR & (uint8)(~Pin_1_MASK));
  42              		.loc 1 41 0
  43 000a 094B     		ldr	r3, .L2
  44 000c 1B78     		ldrb	r3, [r3]
  45 000e DBB2     		uxtb	r3, r3
  46 0010 03F07F03 		and	r3, r3, #127
  47 0014 FB73     		strb	r3, [r7, #15]
  42:Generated_Source\PSoC5/Pin_1.c ****     Pin_1_DR = staticBits | ((uint8)(value << Pin_1_SHIFT) & Pin_1_MASK);
  48              		.loc 1 42 0
  49 0016 0649     		ldr	r1, .L2
  50 0018 FB79     		ldrb	r3, [r7, #7]
  51 001a DB01     		lsls	r3, r3, #7
  52 001c DAB2     		uxtb	r2, r3
  53 001e FB7B     		ldrb	r3, [r7, #15]
  54 0020 1343     		orrs	r3, r3, r2
  55 0022 DBB2     		uxtb	r3, r3
  56 0024 0B70     		strb	r3, [r1]
  43:Generated_Source\PSoC5/Pin_1.c **** }
  57              		.loc 1 43 0
  58 0026 00BF     		nop
  59 0028 1437     		adds	r7, r7, #20
  60              		.cfi_def_cfa_offset 4
  61 002a BD46     		mov	sp, r7
  62              		.cfi_def_cfa_register 13
  63              		@ sp needed
  64 002c 80BC     		pop	{r7}
  65              		.cfi_restore 7
  66              		.cfi_def_cfa_offset 0
  67 002e 7047     		bx	lr
  68              	.L3:
  69              		.align	2
  70              	.L2:
  71 0030 00510040 		.word	1073762560
ARM GAS  C:\Users\HPz420\AppData\Local\Temp\ccL1Z7eE.s 			page 3


  72              		.cfi_endproc
  73              	.LFE0:
  74              		.size	Pin_1_Write, .-Pin_1_Write
  75              		.section	.text.Pin_1_SetDriveMode,"ax",%progbits
  76              		.align	2
  77              		.global	Pin_1_SetDriveMode
  78              		.thumb
  79              		.thumb_func
  80              		.type	Pin_1_SetDriveMode, %function
  81              	Pin_1_SetDriveMode:
  82              	.LFB1:
  44:Generated_Source\PSoC5/Pin_1.c **** 
  45:Generated_Source\PSoC5/Pin_1.c **** 
  46:Generated_Source\PSoC5/Pin_1.c **** /*******************************************************************************
  47:Generated_Source\PSoC5/Pin_1.c **** * Function Name: Pin_1_SetDriveMode
  48:Generated_Source\PSoC5/Pin_1.c **** ********************************************************************************
  49:Generated_Source\PSoC5/Pin_1.c **** *
  50:Generated_Source\PSoC5/Pin_1.c **** * Summary:
  51:Generated_Source\PSoC5/Pin_1.c **** *  Change the drive mode on the pins of the port.
  52:Generated_Source\PSoC5/Pin_1.c **** * 
  53:Generated_Source\PSoC5/Pin_1.c **** * Parameters:  
  54:Generated_Source\PSoC5/Pin_1.c **** *  mode:  Change the pins to one of the following drive modes.
  55:Generated_Source\PSoC5/Pin_1.c **** *
  56:Generated_Source\PSoC5/Pin_1.c **** *  Pin_1_DM_STRONG     Strong Drive 
  57:Generated_Source\PSoC5/Pin_1.c **** *  Pin_1_DM_OD_HI      Open Drain, Drives High 
  58:Generated_Source\PSoC5/Pin_1.c **** *  Pin_1_DM_OD_LO      Open Drain, Drives Low 
  59:Generated_Source\PSoC5/Pin_1.c **** *  Pin_1_DM_RES_UP     Resistive Pull Up 
  60:Generated_Source\PSoC5/Pin_1.c **** *  Pin_1_DM_RES_DWN    Resistive Pull Down 
  61:Generated_Source\PSoC5/Pin_1.c **** *  Pin_1_DM_RES_UPDWN  Resistive Pull Up/Down 
  62:Generated_Source\PSoC5/Pin_1.c **** *  Pin_1_DM_DIG_HIZ    High Impedance Digital 
  63:Generated_Source\PSoC5/Pin_1.c **** *  Pin_1_DM_ALG_HIZ    High Impedance Analog 
  64:Generated_Source\PSoC5/Pin_1.c **** *
  65:Generated_Source\PSoC5/Pin_1.c **** * Return: 
  66:Generated_Source\PSoC5/Pin_1.c **** *  None
  67:Generated_Source\PSoC5/Pin_1.c **** *
  68:Generated_Source\PSoC5/Pin_1.c **** *******************************************************************************/
  69:Generated_Source\PSoC5/Pin_1.c **** void Pin_1_SetDriveMode(uint8 mode) 
  70:Generated_Source\PSoC5/Pin_1.c **** {
  83              		.loc 1 70 0
  84              		.cfi_startproc
  85              		@ args = 0, pretend = 0, frame = 8
  86              		@ frame_needed = 1, uses_anonymous_args = 0
  87              		@ link register save eliminated.
  88 0000 80B4     		push	{r7}
  89              		.cfi_def_cfa_offset 4
  90              		.cfi_offset 7, -4
  91 0002 83B0     		sub	sp, sp, #12
  92              		.cfi_def_cfa_offset 16
  93 0004 00AF     		add	r7, sp, #0
  94              		.cfi_def_cfa_register 7
  95 0006 0346     		mov	r3, r0
  96 0008 FB71     		strb	r3, [r7, #7]
  71:Generated_Source\PSoC5/Pin_1.c **** 	CyPins_SetPinDriveMode(Pin_1_0, mode);
  97              		.loc 1 71 0
  98 000a 0B49     		ldr	r1, .L5
  99 000c 0A4B     		ldr	r3, .L5
 100 000e 1B78     		ldrb	r3, [r3]
ARM GAS  C:\Users\HPz420\AppData\Local\Temp\ccL1Z7eE.s 			page 4


 101 0010 DBB2     		uxtb	r3, r3
 102 0012 5BB2     		sxtb	r3, r3
 103 0014 23F00E03 		bic	r3, r3, #14
 104 0018 5AB2     		sxtb	r2, r3
 105 001a 97F90730 		ldrsb	r3, [r7, #7]
 106 001e 03F00E03 		and	r3, r3, #14
 107 0022 5BB2     		sxtb	r3, r3
 108 0024 1343     		orrs	r3, r3, r2
 109 0026 5BB2     		sxtb	r3, r3
 110 0028 DBB2     		uxtb	r3, r3
 111 002a 0B70     		strb	r3, [r1]
  72:Generated_Source\PSoC5/Pin_1.c **** }
 112              		.loc 1 72 0
 113 002c 00BF     		nop
 114 002e 0C37     		adds	r7, r7, #12
 115              		.cfi_def_cfa_offset 4
 116 0030 BD46     		mov	sp, r7
 117              		.cfi_def_cfa_register 13
 118              		@ sp needed
 119 0032 80BC     		pop	{r7}
 120              		.cfi_restore 7
 121              		.cfi_def_cfa_offset 0
 122 0034 7047     		bx	lr
 123              	.L6:
 124 0036 00BF     		.align	2
 125              	.L5:
 126 0038 07500040 		.word	1073762311
 127              		.cfi_endproc
 128              	.LFE1:
 129              		.size	Pin_1_SetDriveMode, .-Pin_1_SetDriveMode
 130              		.section	.text.Pin_1_Read,"ax",%progbits
 131              		.align	2
 132              		.global	Pin_1_Read
 133              		.thumb
 134              		.thumb_func
 135              		.type	Pin_1_Read, %function
 136              	Pin_1_Read:
 137              	.LFB2:
  73:Generated_Source\PSoC5/Pin_1.c **** 
  74:Generated_Source\PSoC5/Pin_1.c **** 
  75:Generated_Source\PSoC5/Pin_1.c **** /*******************************************************************************
  76:Generated_Source\PSoC5/Pin_1.c **** * Function Name: Pin_1_Read
  77:Generated_Source\PSoC5/Pin_1.c **** ********************************************************************************
  78:Generated_Source\PSoC5/Pin_1.c **** *
  79:Generated_Source\PSoC5/Pin_1.c **** * Summary:
  80:Generated_Source\PSoC5/Pin_1.c **** *  Read the current value on the pins of the Digital Port in right justified 
  81:Generated_Source\PSoC5/Pin_1.c **** *  form.
  82:Generated_Source\PSoC5/Pin_1.c **** *
  83:Generated_Source\PSoC5/Pin_1.c **** * Parameters:  
  84:Generated_Source\PSoC5/Pin_1.c **** *  None
  85:Generated_Source\PSoC5/Pin_1.c **** *
  86:Generated_Source\PSoC5/Pin_1.c **** * Return: 
  87:Generated_Source\PSoC5/Pin_1.c **** *  Returns the current value of the Digital Port as a right justified number
  88:Generated_Source\PSoC5/Pin_1.c **** *  
  89:Generated_Source\PSoC5/Pin_1.c **** * Note:
  90:Generated_Source\PSoC5/Pin_1.c **** *  Macro Pin_1_ReadPS calls this function. 
  91:Generated_Source\PSoC5/Pin_1.c **** *  
ARM GAS  C:\Users\HPz420\AppData\Local\Temp\ccL1Z7eE.s 			page 5


  92:Generated_Source\PSoC5/Pin_1.c **** *******************************************************************************/
  93:Generated_Source\PSoC5/Pin_1.c **** uint8 Pin_1_Read(void) 
  94:Generated_Source\PSoC5/Pin_1.c **** {
 138              		.loc 1 94 0
 139              		.cfi_startproc
 140              		@ args = 0, pretend = 0, frame = 0
 141              		@ frame_needed = 1, uses_anonymous_args = 0
 142              		@ link register save eliminated.
 143 0000 80B4     		push	{r7}
 144              		.cfi_def_cfa_offset 4
 145              		.cfi_offset 7, -4
 146 0002 00AF     		add	r7, sp, #0
 147              		.cfi_def_cfa_register 7
  95:Generated_Source\PSoC5/Pin_1.c ****     return (Pin_1_PS & Pin_1_MASK) >> Pin_1_SHIFT;
 148              		.loc 1 95 0
 149 0004 054B     		ldr	r3, .L9
 150 0006 1B78     		ldrb	r3, [r3]
 151 0008 DBB2     		uxtb	r3, r3
 152 000a 03F08003 		and	r3, r3, #128
 153 000e DB09     		lsrs	r3, r3, #7
 154 0010 DBB2     		uxtb	r3, r3
  96:Generated_Source\PSoC5/Pin_1.c **** }
 155              		.loc 1 96 0
 156 0012 1846     		mov	r0, r3
 157 0014 BD46     		mov	sp, r7
 158              		.cfi_def_cfa_register 13
 159              		@ sp needed
 160 0016 80BC     		pop	{r7}
 161              		.cfi_restore 7
 162              		.cfi_def_cfa_offset 0
 163 0018 7047     		bx	lr
 164              	.L10:
 165 001a 00BF     		.align	2
 166              	.L9:
 167 001c 01510040 		.word	1073762561
 168              		.cfi_endproc
 169              	.LFE2:
 170              		.size	Pin_1_Read, .-Pin_1_Read
 171              		.section	.text.Pin_1_ReadDataReg,"ax",%progbits
 172              		.align	2
 173              		.global	Pin_1_ReadDataReg
 174              		.thumb
 175              		.thumb_func
 176              		.type	Pin_1_ReadDataReg, %function
 177              	Pin_1_ReadDataReg:
 178              	.LFB3:
  97:Generated_Source\PSoC5/Pin_1.c **** 
  98:Generated_Source\PSoC5/Pin_1.c **** 
  99:Generated_Source\PSoC5/Pin_1.c **** /*******************************************************************************
 100:Generated_Source\PSoC5/Pin_1.c **** * Function Name: Pin_1_ReadDataReg
 101:Generated_Source\PSoC5/Pin_1.c **** ********************************************************************************
 102:Generated_Source\PSoC5/Pin_1.c **** *
 103:Generated_Source\PSoC5/Pin_1.c **** * Summary:
 104:Generated_Source\PSoC5/Pin_1.c **** *  Read the current value assigned to a Digital Port's data output register
 105:Generated_Source\PSoC5/Pin_1.c **** *
 106:Generated_Source\PSoC5/Pin_1.c **** * Parameters:  
 107:Generated_Source\PSoC5/Pin_1.c **** *  None 
ARM GAS  C:\Users\HPz420\AppData\Local\Temp\ccL1Z7eE.s 			page 6


 108:Generated_Source\PSoC5/Pin_1.c **** *
 109:Generated_Source\PSoC5/Pin_1.c **** * Return: 
 110:Generated_Source\PSoC5/Pin_1.c **** *  Returns the current value assigned to the Digital Port's data output register
 111:Generated_Source\PSoC5/Pin_1.c **** *  
 112:Generated_Source\PSoC5/Pin_1.c **** *******************************************************************************/
 113:Generated_Source\PSoC5/Pin_1.c **** uint8 Pin_1_ReadDataReg(void) 
 114:Generated_Source\PSoC5/Pin_1.c **** {
 179              		.loc 1 114 0
 180              		.cfi_startproc
 181              		@ args = 0, pretend = 0, frame = 0
 182              		@ frame_needed = 1, uses_anonymous_args = 0
 183              		@ link register save eliminated.
 184 0000 80B4     		push	{r7}
 185              		.cfi_def_cfa_offset 4
 186              		.cfi_offset 7, -4
 187 0002 00AF     		add	r7, sp, #0
 188              		.cfi_def_cfa_register 7
 115:Generated_Source\PSoC5/Pin_1.c ****     return (Pin_1_DR & Pin_1_MASK) >> Pin_1_SHIFT;
 189              		.loc 1 115 0
 190 0004 054B     		ldr	r3, .L13
 191 0006 1B78     		ldrb	r3, [r3]
 192 0008 DBB2     		uxtb	r3, r3
 193 000a 03F08003 		and	r3, r3, #128
 194 000e DB09     		lsrs	r3, r3, #7
 195 0010 DBB2     		uxtb	r3, r3
 116:Generated_Source\PSoC5/Pin_1.c **** }
 196              		.loc 1 116 0
 197 0012 1846     		mov	r0, r3
 198 0014 BD46     		mov	sp, r7
 199              		.cfi_def_cfa_register 13
 200              		@ sp needed
 201 0016 80BC     		pop	{r7}
 202              		.cfi_restore 7
 203              		.cfi_def_cfa_offset 0
 204 0018 7047     		bx	lr
 205              	.L14:
 206 001a 00BF     		.align	2
 207              	.L13:
 208 001c 00510040 		.word	1073762560
 209              		.cfi_endproc
 210              	.LFE3:
 211              		.size	Pin_1_ReadDataReg, .-Pin_1_ReadDataReg
 212              		.text
 213              	.Letext0:
 214              		.file 2 "Generated_Source\\PSoC5\\cytypes.h"