ARM GAS  C:\Users\HPz420\AppData\Local\Temp\ccpmxJjL.s 			page 1


   1              		.syntax unified
   2              		.cpu cortex-m3
   3              		.fpu softvfp
   4              		.eabi_attribute 20, 1
   5              		.eabi_attribute 21, 1
   6              		.eabi_attribute 23, 3
   7              		.eabi_attribute 24, 1
   8              		.eabi_attribute 25, 1
   9              		.eabi_attribute 26, 1
  10              		.eabi_attribute 30, 6
  11              		.eabi_attribute 34, 1
  12              		.eabi_attribute 18, 4
  13              		.thumb
  14              		.syntax unified
  15              		.file	"SD_SCLK.c"
  16              		.text
  17              	.Ltext0:
  18              		.cfi_sections	.debug_frame
  19              		.section	.text.SD_SCLK_Write,"ax",%progbits
  20              		.align	2
  21              		.global	SD_SCLK_Write
  22              		.thumb
  23              		.thumb_func
  24              		.type	SD_SCLK_Write, %function
  25              	SD_SCLK_Write:
  26              	.LFB0:
  27              		.file 1 "Generated_Source\\PSoC5\\SD_SCLK.c"
   1:Generated_Source\PSoC5/SD_SCLK.c **** /*******************************************************************************
   2:Generated_Source\PSoC5/SD_SCLK.c **** * File Name: SD_SCLK.c  
   3:Generated_Source\PSoC5/SD_SCLK.c **** * Version 2.10
   4:Generated_Source\PSoC5/SD_SCLK.c **** *
   5:Generated_Source\PSoC5/SD_SCLK.c **** * Description:
   6:Generated_Source\PSoC5/SD_SCLK.c **** *  This file contains API to enable firmware control of a Pins component.
   7:Generated_Source\PSoC5/SD_SCLK.c **** *
   8:Generated_Source\PSoC5/SD_SCLK.c **** * Note:
   9:Generated_Source\PSoC5/SD_SCLK.c **** *
  10:Generated_Source\PSoC5/SD_SCLK.c **** ********************************************************************************
  11:Generated_Source\PSoC5/SD_SCLK.c **** * Copyright 2008-2014, Cypress Semiconductor Corporation.  All rights reserved.
  12:Generated_Source\PSoC5/SD_SCLK.c **** * You may use this file only in accordance with the license, terms, conditions, 
  13:Generated_Source\PSoC5/SD_SCLK.c **** * disclaimers, and limitations in the end user license agreement accompanying 
  14:Generated_Source\PSoC5/SD_SCLK.c **** * the software package with which this file was provided.
  15:Generated_Source\PSoC5/SD_SCLK.c **** *******************************************************************************/
  16:Generated_Source\PSoC5/SD_SCLK.c **** 
  17:Generated_Source\PSoC5/SD_SCLK.c **** #include "cytypes.h"
  18:Generated_Source\PSoC5/SD_SCLK.c **** #include "SD_SCLK.h"
  19:Generated_Source\PSoC5/SD_SCLK.c **** 
  20:Generated_Source\PSoC5/SD_SCLK.c **** /* APIs are not generated for P15[7:6] on PSoC 5 */
  21:Generated_Source\PSoC5/SD_SCLK.c **** #if !(CY_PSOC5A &&\
  22:Generated_Source\PSoC5/SD_SCLK.c **** 	 SD_SCLK__PORT == 15 && ((SD_SCLK__MASK & 0xC0) != 0))
  23:Generated_Source\PSoC5/SD_SCLK.c **** 
  24:Generated_Source\PSoC5/SD_SCLK.c **** 
  25:Generated_Source\PSoC5/SD_SCLK.c **** /*******************************************************************************
  26:Generated_Source\PSoC5/SD_SCLK.c **** * Function Name: SD_SCLK_Write
  27:Generated_Source\PSoC5/SD_SCLK.c **** ********************************************************************************
  28:Generated_Source\PSoC5/SD_SCLK.c **** *
  29:Generated_Source\PSoC5/SD_SCLK.c **** * Summary:
  30:Generated_Source\PSoC5/SD_SCLK.c **** *  Assign a new value to the digital port's data output register.  
ARM GAS  C:\Users\HPz420\AppData\Local\Temp\ccpmxJjL.s 			page 2


  31:Generated_Source\PSoC5/SD_SCLK.c **** *
  32:Generated_Source\PSoC5/SD_SCLK.c **** * Parameters:  
  33:Generated_Source\PSoC5/SD_SCLK.c **** *  prtValue:  The value to be assigned to the Digital Port. 
  34:Generated_Source\PSoC5/SD_SCLK.c **** *
  35:Generated_Source\PSoC5/SD_SCLK.c **** * Return: 
  36:Generated_Source\PSoC5/SD_SCLK.c **** *  None
  37:Generated_Source\PSoC5/SD_SCLK.c **** *  
  38:Generated_Source\PSoC5/SD_SCLK.c **** *******************************************************************************/
  39:Generated_Source\PSoC5/SD_SCLK.c **** void SD_SCLK_Write(uint8 value) 
  40:Generated_Source\PSoC5/SD_SCLK.c **** {
  28              		.loc 1 40 0
  29              		.cfi_startproc
  30              		@ args = 0, pretend = 0, frame = 16
  31              		@ frame_needed = 1, uses_anonymous_args = 0
  32              		@ link register save eliminated.
  33 0000 80B4     		push	{r7}
  34              		.cfi_def_cfa_offset 4
  35              		.cfi_offset 7, -4
  36 0002 85B0     		sub	sp, sp, #20
  37              		.cfi_def_cfa_offset 24
  38 0004 00AF     		add	r7, sp, #0
  39              		.cfi_def_cfa_register 7
  40 0006 0346     		mov	r3, r0
  41 0008 FB71     		strb	r3, [r7, #7]
  41:Generated_Source\PSoC5/SD_SCLK.c ****     uint8 staticBits = (SD_SCLK_DR & (uint8)(~SD_SCLK_MASK));
  42              		.loc 1 41 0
  43 000a 0B4B     		ldr	r3, .L2
  44 000c 1B78     		ldrb	r3, [r3]
  45 000e DBB2     		uxtb	r3, r3
  46 0010 23F01003 		bic	r3, r3, #16
  47 0014 FB73     		strb	r3, [r7, #15]
  42:Generated_Source\PSoC5/SD_SCLK.c ****     SD_SCLK_DR = staticBits | ((uint8)(value << SD_SCLK_SHIFT) & SD_SCLK_MASK);
  48              		.loc 1 42 0
  49 0016 0849     		ldr	r1, .L2
  50 0018 FB79     		ldrb	r3, [r7, #7]
  51 001a 1B01     		lsls	r3, r3, #4
  52 001c DBB2     		uxtb	r3, r3
  53 001e 03F01003 		and	r3, r3, #16
  54 0022 DAB2     		uxtb	r2, r3
  55 0024 FB7B     		ldrb	r3, [r7, #15]
  56 0026 1343     		orrs	r3, r3, r2
  57 0028 DBB2     		uxtb	r3, r3
  58 002a 0B70     		strb	r3, [r1]
  43:Generated_Source\PSoC5/SD_SCLK.c **** }
  59              		.loc 1 43 0
  60 002c 00BF     		nop
  61 002e 1437     		adds	r7, r7, #20
  62              		.cfi_def_cfa_offset 4
  63 0030 BD46     		mov	sp, r7
  64              		.cfi_def_cfa_register 13
  65              		@ sp needed
  66 0032 80BC     		pop	{r7}
  67              		.cfi_restore 7
  68              		.cfi_def_cfa_offset 0
  69 0034 7047     		bx	lr
  70              	.L3:
  71 0036 00BF     		.align	2
ARM GAS  C:\Users\HPz420\AppData\Local\Temp\ccpmxJjL.s 			page 3


  72              	.L2:
  73 0038 30510040 		.word	1073762608
  74              		.cfi_endproc
  75              	.LFE0:
  76              		.size	SD_SCLK_Write, .-SD_SCLK_Write
  77              		.section	.text.SD_SCLK_SetDriveMode,"ax",%progbits
  78              		.align	2
  79              		.global	SD_SCLK_SetDriveMode
  80              		.thumb
  81              		.thumb_func
  82              		.type	SD_SCLK_SetDriveMode, %function
  83              	SD_SCLK_SetDriveMode:
  84              	.LFB1:
  44:Generated_Source\PSoC5/SD_SCLK.c **** 
  45:Generated_Source\PSoC5/SD_SCLK.c **** 
  46:Generated_Source\PSoC5/SD_SCLK.c **** /*******************************************************************************
  47:Generated_Source\PSoC5/SD_SCLK.c **** * Function Name: SD_SCLK_SetDriveMode
  48:Generated_Source\PSoC5/SD_SCLK.c **** ********************************************************************************
  49:Generated_Source\PSoC5/SD_SCLK.c **** *
  50:Generated_Source\PSoC5/SD_SCLK.c **** * Summary:
  51:Generated_Source\PSoC5/SD_SCLK.c **** *  Change the drive mode on the pins of the port.
  52:Generated_Source\PSoC5/SD_SCLK.c **** * 
  53:Generated_Source\PSoC5/SD_SCLK.c **** * Parameters:  
  54:Generated_Source\PSoC5/SD_SCLK.c **** *  mode:  Change the pins to one of the following drive modes.
  55:Generated_Source\PSoC5/SD_SCLK.c **** *
  56:Generated_Source\PSoC5/SD_SCLK.c **** *  SD_SCLK_DM_STRONG     Strong Drive 
  57:Generated_Source\PSoC5/SD_SCLK.c **** *  SD_SCLK_DM_OD_HI      Open Drain, Drives High 
  58:Generated_Source\PSoC5/SD_SCLK.c **** *  SD_SCLK_DM_OD_LO      Open Drain, Drives Low 
  59:Generated_Source\PSoC5/SD_SCLK.c **** *  SD_SCLK_DM_RES_UP     Resistive Pull Up 
  60:Generated_Source\PSoC5/SD_SCLK.c **** *  SD_SCLK_DM_RES_DWN    Resistive Pull Down 
  61:Generated_Source\PSoC5/SD_SCLK.c **** *  SD_SCLK_DM_RES_UPDWN  Resistive Pull Up/Down 
  62:Generated_Source\PSoC5/SD_SCLK.c **** *  SD_SCLK_DM_DIG_HIZ    High Impedance Digital 
  63:Generated_Source\PSoC5/SD_SCLK.c **** *  SD_SCLK_DM_ALG_HIZ    High Impedance Analog 
  64:Generated_Source\PSoC5/SD_SCLK.c **** *
  65:Generated_Source\PSoC5/SD_SCLK.c **** * Return: 
  66:Generated_Source\PSoC5/SD_SCLK.c **** *  None
  67:Generated_Source\PSoC5/SD_SCLK.c **** *
  68:Generated_Source\PSoC5/SD_SCLK.c **** *******************************************************************************/
  69:Generated_Source\PSoC5/SD_SCLK.c **** void SD_SCLK_SetDriveMode(uint8 mode) 
  70:Generated_Source\PSoC5/SD_SCLK.c **** {
  85              		.loc 1 70 0
  86              		.cfi_startproc
  87              		@ args = 0, pretend = 0, frame = 8
  88              		@ frame_needed = 1, uses_anonymous_args = 0
  89              		@ link register save eliminated.
  90 0000 80B4     		push	{r7}
  91              		.cfi_def_cfa_offset 4
  92              		.cfi_offset 7, -4
  93 0002 83B0     		sub	sp, sp, #12
  94              		.cfi_def_cfa_offset 16
  95 0004 00AF     		add	r7, sp, #0
  96              		.cfi_def_cfa_register 7
  97 0006 0346     		mov	r3, r0
  98 0008 FB71     		strb	r3, [r7, #7]
  71:Generated_Source\PSoC5/SD_SCLK.c **** 	CyPins_SetPinDriveMode(SD_SCLK_0, mode);
  99              		.loc 1 71 0
 100 000a 0B49     		ldr	r1, .L5
ARM GAS  C:\Users\HPz420\AppData\Local\Temp\ccpmxJjL.s 			page 4


 101 000c 0A4B     		ldr	r3, .L5
 102 000e 1B78     		ldrb	r3, [r3]
 103 0010 DBB2     		uxtb	r3, r3
 104 0012 5BB2     		sxtb	r3, r3
 105 0014 23F00E03 		bic	r3, r3, #14
 106 0018 5AB2     		sxtb	r2, r3
 107 001a 97F90730 		ldrsb	r3, [r7, #7]
 108 001e 03F00E03 		and	r3, r3, #14
 109 0022 5BB2     		sxtb	r3, r3
 110 0024 1343     		orrs	r3, r3, r2
 111 0026 5BB2     		sxtb	r3, r3
 112 0028 DBB2     		uxtb	r3, r3
 113 002a 0B70     		strb	r3, [r1]
  72:Generated_Source\PSoC5/SD_SCLK.c **** }
 114              		.loc 1 72 0
 115 002c 00BF     		nop
 116 002e 0C37     		adds	r7, r7, #12
 117              		.cfi_def_cfa_offset 4
 118 0030 BD46     		mov	sp, r7
 119              		.cfi_def_cfa_register 13
 120              		@ sp needed
 121 0032 80BC     		pop	{r7}
 122              		.cfi_restore 7
 123              		.cfi_def_cfa_offset 0
 124 0034 7047     		bx	lr
 125              	.L6:
 126 0036 00BF     		.align	2
 127              	.L5:
 128 0038 1C500040 		.word	1073762332
 129              		.cfi_endproc
 130              	.LFE1:
 131              		.size	SD_SCLK_SetDriveMode, .-SD_SCLK_SetDriveMode
 132              		.section	.text.SD_SCLK_Read,"ax",%progbits
 133              		.align	2
 134              		.global	SD_SCLK_Read
 135              		.thumb
 136              		.thumb_func
 137              		.type	SD_SCLK_Read, %function
 138              	SD_SCLK_Read:
 139              	.LFB2:
  73:Generated_Source\PSoC5/SD_SCLK.c **** 
  74:Generated_Source\PSoC5/SD_SCLK.c **** 
  75:Generated_Source\PSoC5/SD_SCLK.c **** /*******************************************************************************
  76:Generated_Source\PSoC5/SD_SCLK.c **** * Function Name: SD_SCLK_Read
  77:Generated_Source\PSoC5/SD_SCLK.c **** ********************************************************************************
  78:Generated_Source\PSoC5/SD_SCLK.c **** *
  79:Generated_Source\PSoC5/SD_SCLK.c **** * Summary:
  80:Generated_Source\PSoC5/SD_SCLK.c **** *  Read the current value on the pins of the Digital Port in right justified 
  81:Generated_Source\PSoC5/SD_SCLK.c **** *  form.
  82:Generated_Source\PSoC5/SD_SCLK.c **** *
  83:Generated_Source\PSoC5/SD_SCLK.c **** * Parameters:  
  84:Generated_Source\PSoC5/SD_SCLK.c **** *  None
  85:Generated_Source\PSoC5/SD_SCLK.c **** *
  86:Generated_Source\PSoC5/SD_SCLK.c **** * Return: 
  87:Generated_Source\PSoC5/SD_SCLK.c **** *  Returns the current value of the Digital Port as a right justified number
  88:Generated_Source\PSoC5/SD_SCLK.c **** *  
  89:Generated_Source\PSoC5/SD_SCLK.c **** * Note:
ARM GAS  C:\Users\HPz420\AppData\Local\Temp\ccpmxJjL.s 			page 5


  90:Generated_Source\PSoC5/SD_SCLK.c **** *  Macro SD_SCLK_ReadPS calls this function. 
  91:Generated_Source\PSoC5/SD_SCLK.c **** *  
  92:Generated_Source\PSoC5/SD_SCLK.c **** *******************************************************************************/
  93:Generated_Source\PSoC5/SD_SCLK.c **** uint8 SD_SCLK_Read(void) 
  94:Generated_Source\PSoC5/SD_SCLK.c **** {
 140              		.loc 1 94 0
 141              		.cfi_startproc
 142              		@ args = 0, pretend = 0, frame = 0
 143              		@ frame_needed = 1, uses_anonymous_args = 0
 144              		@ link register save eliminated.
 145 0000 80B4     		push	{r7}
 146              		.cfi_def_cfa_offset 4
 147              		.cfi_offset 7, -4
 148 0002 00AF     		add	r7, sp, #0
 149              		.cfi_def_cfa_register 7
  95:Generated_Source\PSoC5/SD_SCLK.c ****     return (SD_SCLK_PS & SD_SCLK_MASK) >> SD_SCLK_SHIFT;
 150              		.loc 1 95 0
 151 0004 054B     		ldr	r3, .L9
 152 0006 1B78     		ldrb	r3, [r3]
 153 0008 DBB2     		uxtb	r3, r3
 154 000a 03F01003 		and	r3, r3, #16
 155 000e 1B09     		lsrs	r3, r3, #4
 156 0010 DBB2     		uxtb	r3, r3
  96:Generated_Source\PSoC5/SD_SCLK.c **** }
 157              		.loc 1 96 0
 158 0012 1846     		mov	r0, r3
 159 0014 BD46     		mov	sp, r7
 160              		.cfi_def_cfa_register 13
 161              		@ sp needed
 162 0016 80BC     		pop	{r7}
 163              		.cfi_restore 7
 164              		.cfi_def_cfa_offset 0
 165 0018 7047     		bx	lr
 166              	.L10:
 167 001a 00BF     		.align	2
 168              	.L9:
 169 001c 31510040 		.word	1073762609
 170              		.cfi_endproc
 171              	.LFE2:
 172              		.size	SD_SCLK_Read, .-SD_SCLK_Read
 173              		.section	.text.SD_SCLK_ReadDataReg,"ax",%progbits
 174              		.align	2
 175              		.global	SD_SCLK_ReadDataReg
 176              		.thumb
 177              		.thumb_func
 178              		.type	SD_SCLK_ReadDataReg, %function
 179              	SD_SCLK_ReadDataReg:
 180              	.LFB3:
  97:Generated_Source\PSoC5/SD_SCLK.c **** 
  98:Generated_Source\PSoC5/SD_SCLK.c **** 
  99:Generated_Source\PSoC5/SD_SCLK.c **** /*******************************************************************************
 100:Generated_Source\PSoC5/SD_SCLK.c **** * Function Name: SD_SCLK_ReadDataReg
 101:Generated_Source\PSoC5/SD_SCLK.c **** ********************************************************************************
 102:Generated_Source\PSoC5/SD_SCLK.c **** *
 103:Generated_Source\PSoC5/SD_SCLK.c **** * Summary:
 104:Generated_Source\PSoC5/SD_SCLK.c **** *  Read the current value assigned to a Digital Port's data output register
 105:Generated_Source\PSoC5/SD_SCLK.c **** *
ARM GAS  C:\Users\HPz420\AppData\Local\Temp\ccpmxJjL.s 			page 6


 106:Generated_Source\PSoC5/SD_SCLK.c **** * Parameters:  
 107:Generated_Source\PSoC5/SD_SCLK.c **** *  None 
 108:Generated_Source\PSoC5/SD_SCLK.c **** *
 109:Generated_Source\PSoC5/SD_SCLK.c **** * Return: 
 110:Generated_Source\PSoC5/SD_SCLK.c **** *  Returns the current value assigned to the Digital Port's data output register
 111:Generated_Source\PSoC5/SD_SCLK.c **** *  
 112:Generated_Source\PSoC5/SD_SCLK.c **** *******************************************************************************/
 113:Generated_Source\PSoC5/SD_SCLK.c **** uint8 SD_SCLK_ReadDataReg(void) 
 114:Generated_Source\PSoC5/SD_SCLK.c **** {
 181              		.loc 1 114 0
 182              		.cfi_startproc
 183              		@ args = 0, pretend = 0, frame = 0
 184              		@ frame_needed = 1, uses_anonymous_args = 0
 185              		@ link register save eliminated.
 186 0000 80B4     		push	{r7}
 187              		.cfi_def_cfa_offset 4
 188              		.cfi_offset 7, -4
 189 0002 00AF     		add	r7, sp, #0
 190              		.cfi_def_cfa_register 7
 115:Generated_Source\PSoC5/SD_SCLK.c ****     return (SD_SCLK_DR & SD_SCLK_MASK) >> SD_SCLK_SHIFT;
 191              		.loc 1 115 0
 192 0004 054B     		ldr	r3, .L13
 193 0006 1B78     		ldrb	r3, [r3]
 194 0008 DBB2     		uxtb	r3, r3
 195 000a 03F01003 		and	r3, r3, #16
 196 000e 1B09     		lsrs	r3, r3, #4
 197 0010 DBB2     		uxtb	r3, r3
 116:Generated_Source\PSoC5/SD_SCLK.c **** }
 198              		.loc 1 116 0
 199 0012 1846     		mov	r0, r3
 200 0014 BD46     		mov	sp, r7
 201              		.cfi_def_cfa_register 13
 202              		@ sp needed
 203 0016 80BC     		pop	{r7}
 204              		.cfi_restore 7
 205              		.cfi_def_cfa_offset 0
 206 0018 7047     		bx	lr
 207              	.L14:
 208 001a 00BF     		.align	2
 209              	.L13:
 210 001c 30510040 		.word	1073762608
 211              		.cfi_endproc
 212              	.LFE3:
 213              		.size	SD_SCLK_ReadDataReg, .-SD_SCLK_ReadDataReg
 214              		.text
 215              	.Letext0:
 216              		.file 2 "Generated_Source\\PSoC5\\cytypes.h"