Modules list:
-------------
screen-c1p-48x16.o:
    CODE              Offs=000000  Size=000088  Align=00001  Fill=0000
    RODATA            Offs=000000  Size=000020  Align=00001  Fill=0000
    BSS               Offs=000000  Size=000000  Align=00001  Fill=0000
    DATA              Offs=000000  Size=000000  Align=00001  Fill=0000
    ZEROPAGE          Offs=000000  Size=000000  Align=00001  Fill=0000
    NULL              Offs=000000  Size=000000  Align=00001  Fill=0000
hello.o:
    CODE              Offs=000088  Size=000191  Align=00001  Fill=0000
    RODATA            Offs=000020  Size=000092  Align=00001  Fill=0000
    BSS               Offs=000000  Size=000000  Align=00001  Fill=0000
    DATA              Offs=000000  Size=000000  Align=00001  Fill=0000
    ZEROPAGE          Offs=000000  Size=000000  Align=00001  Fill=0000
    NULL              Offs=000000  Size=000000  Align=00001  Fill=0000
C:\Users\HPz420\Documents\GitHub\Doug Gilliland\Retro-Computers\6502\CC65\lib/osic1p.lib(_cursor.o):
    CODE              Offs=000219  Size=000000  Align=00001  Fill=0000
    RODATA            Offs=0000B2  Size=000000  Align=00001  Fill=0000
    BSS               Offs=000000  Size=000001  Align=00001  Fill=0000
    DATA              Offs=000000  Size=000000  Align=00001  Fill=0000
    ZEROPAGE          Offs=000000  Size=000000  Align=00001  Fill=0000
    NULL              Offs=000000  Size=000000  Align=00001  Fill=0000
C:\Users\HPz420\Documents\GitHub\Doug Gilliland\Retro-Computers\6502\CC65\lib/osic1p.lib(_hextab.o):
    CODE              Offs=000219  Size=000000  Align=00001  Fill=0000
    RODATA            Offs=0000B2  Size=000010  Align=00001  Fill=0000
    BSS               Offs=000001  Size=000000  Align=00001  Fill=0000
    DATA              Offs=000000  Size=000000  Align=00001  Fill=0000
    ZEROPAGE          Offs=000000  Size=000000  Align=00001  Fill=0000
    NULL              Offs=000000  Size=000000  Align=00001  Fill=0000
C:\Users\HPz420\Documents\GitHub\Doug Gilliland\Retro-Computers\6502\CC65\lib/osic1p.lib(_longminstr.o):
    CODE              Offs=000219  Size=000000  Align=00001  Fill=0000
    RODATA            Offs=0000C2  Size=00000C  Align=00001  Fill=0000
    BSS               Offs=000001  Size=000000  Align=00001  Fill=0000
    DATA              Offs=000000  Size=000000  Align=00001  Fill=0000
    ZEROPAGE          Offs=000000  Size=000000  Align=00001  Fill=0000
    NULL              Offs=000000  Size=000000  Align=00001  Fill=0000
C:\Users\HPz420\Documents\GitHub\Doug Gilliland\Retro-Computers\6502\CC65\lib/osic1p.lib(_printf.o):
    CODE              Offs=000219  Size=0003A5  Align=00001  Fill=0000
    RODATA            Offs=0000CE  Size=000000  Align=00001  Fill=0000
    BSS               Offs=000001  Size=00002B  Align=00001  Fill=0000
    DATA              Offs=000000  Size=000003  Align=00001  Fill=0000
    ZEROPAGE          Offs=000000  Size=000000  Align=00001  Fill=0000
    NULL              Offs=000000  Size=000000  Align=00001  Fill=0000
C:\Users\HPz420\Documents\GitHub\Doug Gilliland\Retro-Computers\6502\CC65\lib/osic1p.lib(addysp.o):
    CODE              Offs=0005BE  Size=00000E  Align=00001  Fill=0000
    RODATA            Offs=0000CE  Size=000000  Align=00001  Fill=0000
    BSS               Offs=00002C  Size=000000  Align=00001  Fill=0000
    DATA              Offs=000003  Size=000000  Align=00001  Fill=0000
    ZEROPAGE          Offs=000000  Size=000000  Align=00001  Fill=0000
    NULL              Offs=000000  Size=000000  Align=00001  Fill=0000
C:\Users\HPz420\Documents\GitHub\Doug Gilliland\Retro-Computers\6502\CC65\lib/osic1p.lib(axlong.o):
    CODE              Offs=0005CC  Size=00000D  Align=00001  Fill=0000
    RODATA            Offs=0000CE  Size=000000  Align=00001  Fill=0000
    BSS               Offs=00002C  Size=000000  Align=00001  Fill=0000
    DATA              Offs=000003  Size=000000  Align=00001  Fill=0000
    ZEROPAGE          Offs=000000  Size=000000  Align=00001  Fill=0000
    NULL              Offs=000000  Size=000000  Align=00001  Fill=0000
C:\Users\HPz420\Documents\GitHub\Doug Gilliland\Retro-Computers\6502\CC65\lib/osic1p.lib(cgetc.o):
    CODE              Offs=0005D9  Size=00002D  Align=00001  Fill=0000
    RODATA            Offs=0000CE  Size=000000  Align=00001  Fill=0000
    BSS               Offs=00002C  Size=000000  Align=00001  Fill=0000
    DATA              Offs=000003  Size=000000  Align=00001  Fill=0000
    ZEROPAGE          Offs=000000  Size=000000  Align=00001  Fill=0000
    NULL              Offs=000000  Size=000000  Align=00001  Fill=0000
    ONCE              Offs=000000  Size=000005  Align=00001  Fill=0000
C:\Users\HPz420\Documents\GitHub\Doug Gilliland\Retro-Computers\6502\CC65\lib/osic1p.lib(condes.o):
    CODE              Offs=000606  Size=00000C  Align=00001  Fill=0000
    RODATA            Offs=0000CE  Size=000000  Align=00001  Fill=0000
    BSS               Offs=00002C  Size=000000  Align=00001  Fill=0000
    DATA              Offs=000003  Size=000025  Align=00001  Fill=0000
    ZEROPAGE          Offs=000000  Size=000000  Align=00001  Fill=0000
    NULL              Offs=000000  Size=000000  Align=00001  Fill=0000
    ONCE              Offs=000005  Size=00000C  Align=00001  Fill=0000
C:\Users\HPz420\Documents\GitHub\Doug Gilliland\Retro-Computers\6502\CC65\lib/osic1p.lib(cprintf.o):
    CODE              Offs=000612  Size=00002A  Align=00001  Fill=0000
    RODATA            Offs=0000CE  Size=000000  Align=00001  Fill=0000
    BSS               Offs=00002C  Size=000001  Align=00001  Fill=0000
    DATA              Offs=000028  Size=000000  Align=00001  Fill=0000
    ZEROPAGE          Offs=000000  Size=000000  Align=00001  Fill=0000
    NULL              Offs=000000  Size=000000  Align=00001  Fill=0000
C:\Users\HPz420\Documents\GitHub\Doug Gilliland\Retro-Computers\6502\CC65\lib/osic1p.lib(crt0.o):
    CODE              Offs=00063C  Size=000000  Align=00001  Fill=0000
    RODATA            Offs=0000CE  Size=000000  Align=00001  Fill=0000
    BSS               Offs=00002D  Size=000000  Align=00001  Fill=0000
    DATA              Offs=000028  Size=000000  Align=00001  Fill=0000
    ZEROPAGE          Offs=000000  Size=000000  Align=00001  Fill=0000
    NULL              Offs=000000  Size=000000  Align=00001  Fill=0000
    STARTUP           Offs=000000  Size=00001B  Align=00001  Fill=0000
C:\Users\HPz420\Documents\GitHub\Doug Gilliland\Retro-Computers\6502\CC65\lib/osic1p.lib(ctype.o):
    CODE              Offs=00063C  Size=000000  Align=00001  Fill=0000
    RODATA            Offs=0000CE  Size=000100  Align=00001  Fill=0000
    BSS               Offs=00002D  Size=000000  Align=00001  Fill=0000
    DATA              Offs=000028  Size=000000  Align=00001  Fill=0000
    ZEROPAGE          Offs=000000  Size=000000  Align=00001  Fill=0000
    NULL              Offs=000000  Size=000000  Align=00001  Fill=0000
C:\Users\HPz420\Documents\GitHub\Doug Gilliland\Retro-Computers\6502\CC65\lib/osic1p.lib(decsp1.o):
    CODE              Offs=00063C  Size=000009  Align=00001  Fill=0000
    RODATA            Offs=0001CE  Size=000000  Align=00001  Fill=0000
    BSS               Offs=00002D  Size=000000  Align=00001  Fill=0000
    DATA              Offs=000028  Size=000000  Align=00001  Fill=0000
    ZEROPAGE          Offs=000000  Size=000000  Align=00001  Fill=0000
    NULL              Offs=000000  Size=000000  Align=00001  Fill=0000
C:\Users\HPz420\Documents\GitHub\Doug Gilliland\Retro-Computers\6502\CC65\lib/osic1p.lib(decsp4.o):
    CODE              Offs=000645  Size=00000D  Align=00001  Fill=0000
    RODATA            Offs=0001CE  Size=000000  Align=00001  Fill=0000
    BSS               Offs=00002D  Size=000000  Align=00001  Fill=0000
    DATA              Offs=000028  Size=000000  Align=00001  Fill=0000
    ZEROPAGE          Offs=000000  Size=000000  Align=00001  Fill=0000
    NULL              Offs=000000  Size=000000  Align=00001  Fill=0000
C:\Users\HPz420\Documents\GitHub\Doug Gilliland\Retro-Computers\6502\CC65\lib/osic1p.lib(decsp6.o):
    CODE              Offs=000652  Size=00000D  Align=00001  Fill=0000
    RODATA            Offs=0001CE  Size=000000  Align=00001  Fill=0000
    BSS               Offs=00002D  Size=000000  Align=00001  Fill=0000
    DATA              Offs=000028  Size=000000  Align=00001  Fill=0000
    ZEROPAGE          Offs=000000  Size=000000  Align=00001  Fill=0000
    NULL              Offs=000000  Size=000000  Align=00001  Fill=0000
C:\Users\HPz420\Documents\GitHub\Doug Gilliland\Retro-Computers\6502\CC65\lib/osic1p.lib(extzp.o):
    CODE              Offs=00065F  Size=000000  Align=00001  Fill=0000
    RODATA            Offs=0001CE  Size=000000  Align=00001  Fill=0000
    BSS               Offs=00002D  Size=000000  Align=00001  Fill=0000
    DATA              Offs=000028  Size=000000  Align=00001  Fill=0000
    ZEROPAGE          Offs=000000  Size=000000  Align=00001  Fill=0000
    NULL              Offs=000000  Size=000000  Align=00001  Fill=0000
    EXTZP             Offs=000000  Size=000005  Align=00001  Fill=0000
C:\Users\HPz420\Documents\GitHub\Doug Gilliland\Retro-Computers\6502\CC65\lib/osic1p.lib(gotoxy.o):
    CODE              Offs=00065F  Size=00000D  Align=00001  Fill=0000
    RODATA            Offs=0001CE  Size=000000  Align=00001  Fill=0000
    BSS               Offs=00002D  Size=000000  Align=00001  Fill=0000
    DATA              Offs=000028  Size=000000  Align=00001  Fill=0000
    ZEROPAGE          Offs=000000  Size=000000  Align=00001  Fill=0000
    NULL              Offs=000000  Size=000000  Align=00001  Fill=0000
C:\Users\HPz420\Documents\GitHub\Doug Gilliland\Retro-Computers\6502\CC65\lib/osic1p.lib(incsp2.o):
    CODE              Offs=00066C  Size=000016  Align=00001  Fill=0000
    RODATA            Offs=0001CE  Size=000000  Align=00001  Fill=0000
    BSS               Offs=00002D  Size=000000  Align=00001  Fill=0000
    DATA              Offs=000028  Size=000000  Align=00001  Fill=0000
    ZEROPAGE          Offs=000000  Size=000000  Align=00001  Fill=0000
    NULL              Offs=000000  Size=000000  Align=00001  Fill=0000
C:\Users\HPz420\Documents\GitHub\Doug Gilliland\Retro-Computers\6502\CC65\lib/osic1p.lib(incsp3.o):
    CODE              Offs=000682  Size=000005  Align=00001  Fill=0000
    RODATA            Offs=0001CE  Size=000000  Align=00001  Fill=0000
    BSS               Offs=00002D  Size=000000  Align=00001  Fill=0000
    DATA              Offs=000028  Size=000000  Align=00001  Fill=0000
    ZEROPAGE          Offs=000000  Size=000000  Align=00001  Fill=0000
    NULL              Offs=000000  Size=000000  Align=00001  Fill=0000
C:\Users\HPz420\Documents\GitHub\Doug Gilliland\Retro-Computers\6502\CC65\lib/osic1p.lib(lneg.o):
    CODE              Offs=000687  Size=00001E  Align=00001  Fill=0000
    RODATA            Offs=0001CE  Size=000000  Align=00001  Fill=0000
    BSS               Offs=00002D  Size=000000  Align=00001  Fill=0000
    DATA              Offs=000028  Size=000000  Align=00001  Fill=0000
    ZEROPAGE          Offs=000000  Size=000000  Align=00001  Fill=0000
    NULL              Offs=000000  Size=000000  Align=00001  Fill=0000
C:\Users\HPz420\Documents\GitHub\Doug Gilliland\Retro-Computers\6502\CC65\lib/osic1p.lib(lpush.o):
    CODE              Offs=0006A5  Size=000021  Align=00001  Fill=0000
    RODATA            Offs=0001CE  Size=000000  Align=00001  Fill=0000
    BSS               Offs=00002D  Size=000000  Align=00001  Fill=0000
    DATA              Offs=000028  Size=000000  Align=00001  Fill=0000
    ZEROPAGE          Offs=000000  Size=000000  Align=00001  Fill=0000
    NULL              Offs=000000  Size=000000  Align=00001  Fill=0000
C:\Users\HPz420\Documents\GitHub\Doug Gilliland\Retro-Computers\6502\CC65\lib/osic1p.lib(ltoa.o):
    CODE              Offs=0006C6  Size=000095  Align=00001  Fill=0000
    RODATA            Offs=0001CE  Size=000000  Align=00001  Fill=0000
    BSS               Offs=00002D  Size=000000  Align=00001  Fill=0000
    DATA              Offs=000028  Size=000000  Align=00001  Fill=0000
    ZEROPAGE          Offs=000000  Size=000000  Align=00001  Fill=0000
    NULL              Offs=000000  Size=000000  Align=00001  Fill=0000
C:\Users\HPz420\Documents\GitHub\Doug Gilliland\Retro-Computers\6502\CC65\lib/osic1p.lib(makebool.o):
    CODE              Offs=00075B  Size=00002C  Align=00001  Fill=0000
    RODATA            Offs=0001CE  Size=000000  Align=00001  Fill=0000
    BSS               Offs=00002D  Size=000000  Align=00001  Fill=0000
    DATA              Offs=000028  Size=000000  Align=00001  Fill=0000
    ZEROPAGE          Offs=000000  Size=000000  Align=00001  Fill=0000
    NULL              Offs=000000  Size=000000  Align=00001  Fill=0000
C:\Users\HPz420\Documents\GitHub\Doug Gilliland\Retro-Computers\6502\CC65\lib/osic1p.lib(memcpy.o):
    CODE              Offs=000787  Size=00003C  Align=00001  Fill=0000
    RODATA            Offs=0001CE  Size=000000  Align=00001  Fill=0000
    BSS               Offs=00002D  Size=000000  Align=00001  Fill=0000
    DATA              Offs=000028  Size=000000  Align=00001  Fill=0000
    ZEROPAGE          Offs=000000  Size=000000  Align=00001  Fill=0000
    NULL              Offs=000000  Size=000000  Align=00001  Fill=0000
C:\Users\HPz420\Documents\GitHub\Doug Gilliland\Retro-Computers\6502\CC65\lib/osic1p.lib(memmove.o):
    CODE              Offs=0007C3  Size=000050  Align=00001  Fill=0000
    RODATA            Offs=0001CE  Size=000000  Align=00001  Fill=0000
    BSS               Offs=00002D  Size=000000  Align=00001  Fill=0000
    DATA              Offs=000028  Size=000000  Align=00001  Fill=0000
    ZEROPAGE          Offs=000000  Size=000000  Align=00001  Fill=0000
    NULL              Offs=000000  Size=000000  Align=00001  Fill=0000
C:\Users\HPz420\Documents\GitHub\Doug Gilliland\Retro-Computers\6502\CC65\lib/osic1p.lib(memset.o):
    CODE              Offs=000813  Size=00005D  Align=00001  Fill=0000
    RODATA            Offs=0001CE  Size=000000  Align=00001  Fill=0000
    BSS               Offs=00002D  Size=000000  Align=00001  Fill=0000
    DATA              Offs=000028  Size=000000  Align=00001  Fill=0000
    ZEROPAGE          Offs=000000  Size=000000  Align=00001  Fill=0000
    NULL              Offs=000000  Size=000000  Align=00001  Fill=0000
C:\Users\HPz420\Documents\GitHub\Doug Gilliland\Retro-Computers\6502\CC65\lib/osic1p.lib(popa.o):
    CODE              Offs=000870  Size=00000C  Align=00001  Fill=0000
    RODATA            Offs=0001CE  Size=000000  Align=00001  Fill=0000
    BSS               Offs=00002D  Size=000000  Align=00001  Fill=0000
    DATA              Offs=000028  Size=000000  Align=00001  Fill=0000
    ZEROPAGE          Offs=000000  Size=000000  Align=00001  Fill=0000
    NULL              Offs=000000  Size=000000  Align=00001  Fill=0000
C:\Users\HPz420\Documents\GitHub\Doug Gilliland\Retro-Computers\6502\CC65\lib/osic1p.lib(popptr1.o):
    CODE              Offs=00087C  Size=00000E  Align=00001  Fill=0000
    RODATA            Offs=0001CE  Size=000000  Align=00001  Fill=0000
    BSS               Offs=00002D  Size=000000  Align=00001  Fill=0000
    DATA              Offs=000028  Size=000000  Align=00001  Fill=0000
    ZEROPAGE          Offs=000000  Size=000000  Align=00001  Fill=0000
    NULL              Offs=000000  Size=000000  Align=00001  Fill=0000
C:\Users\HPz420\Documents\GitHub\Doug Gilliland\Retro-Computers\6502\CC65\lib/osic1p.lib(push1.o):
    CODE              Offs=00088A  Size=000005  Align=00001  Fill=0000
    RODATA            Offs=0001CE  Size=000000  Align=00001  Fill=0000
    BSS               Offs=00002D  Size=000000  Align=00001  Fill=0000
    DATA              Offs=000028  Size=000000  Align=00001  Fill=0000
    ZEROPAGE          Offs=000000  Size=000000  Align=00001  Fill=0000
    NULL              Offs=000000  Size=000000  Align=00001  Fill=0000
C:\Users\HPz420\Documents\GitHub\Doug Gilliland\Retro-Computers\6502\CC65\lib/osic1p.lib(pusha.o):
    CODE              Offs=00088F  Size=000016  Align=00001  Fill=0000
    RODATA            Offs=0001CE  Size=000000  Align=00001  Fill=0000
    BSS               Offs=00002D  Size=000000  Align=00001  Fill=0000
    DATA              Offs=000028  Size=000000  Align=00001  Fill=0000
    ZEROPAGE          Offs=000000  Size=000000  Align=00001  Fill=0000
    NULL              Offs=000000  Size=000000  Align=00001  Fill=0000
C:\Users\HPz420\Documents\GitHub\Doug Gilliland\Retro-Computers\6502\CC65\lib/osic1p.lib(pushax.o):
    CODE              Offs=0008A5  Size=00001A  Align=00001  Fill=0000
    RODATA            Offs=0001CE  Size=000000  Align=00001  Fill=0000
    BSS               Offs=00002D  Size=000000  Align=00001  Fill=0000
    DATA              Offs=000028  Size=000000  Align=00001  Fill=0000
    ZEROPAGE          Offs=000000  Size=000000  Align=00001  Fill=0000
    NULL              Offs=000000  Size=000000  Align=00001  Fill=0000
C:\Users\HPz420\Documents\GitHub\Doug Gilliland\Retro-Computers\6502\CC65\lib/osic1p.lib(strlen.o):
    CODE              Offs=0008BF  Size=000016  Align=00001  Fill=0000
    RODATA            Offs=0001CE  Size=000000  Align=00001  Fill=0000
    BSS               Offs=00002D  Size=000000  Align=00001  Fill=0000
    DATA              Offs=000028  Size=000000  Align=00001  Fill=0000
    ZEROPAGE          Offs=000000  Size=000000  Align=00001  Fill=0000
    NULL              Offs=000000  Size=000000  Align=00001  Fill=0000
C:\Users\HPz420\Documents\GitHub\Doug Gilliland\Retro-Computers\6502\CC65\lib/osic1p.lib(strlower.o):
    CODE              Offs=0008D5  Size=000028  Align=00001  Fill=0000
    RODATA            Offs=0001CE  Size=000000  Align=00001  Fill=0000
    BSS               Offs=00002D  Size=000000  Align=00001  Fill=0000
    DATA              Offs=000028  Size=000000  Align=00001  Fill=0000
    ZEROPAGE          Offs=000000  Size=000000  Align=00001  Fill=0000
    NULL              Offs=000000  Size=000000  Align=00001  Fill=0000
C:\Users\HPz420\Documents\GitHub\Doug Gilliland\Retro-Computers\6502\CC65\lib/osic1p.lib(vcprintf.o):
    CODE              Offs=0008FD  Size=00007A  Align=00001  Fill=0000
    RODATA            Offs=0001CE  Size=000000  Align=00001  Fill=0000
    BSS               Offs=00002D  Size=000000  Align=00001  Fill=0000
    DATA              Offs=000028  Size=000008  Align=00001  Fill=0000
    ZEROPAGE          Offs=000000  Size=000000  Align=00001  Fill=0000
    NULL              Offs=000000  Size=000000  Align=00001  Fill=0000
C:\Users\HPz420\Documents\GitHub\Doug Gilliland\Retro-Computers\6502\CC65\lib/osic1p.lib(zerobss.o):
    CODE              Offs=000977  Size=000023  Align=00001  Fill=0000
    RODATA            Offs=0001CE  Size=000000  Align=00001  Fill=0000
    BSS               Offs=00002D  Size=000000  Align=00001  Fill=0000
    DATA              Offs=000030  Size=000000  Align=00001  Fill=0000
    ZEROPAGE          Offs=000000  Size=000000  Align=00001  Fill=0000
    NULL              Offs=000000  Size=000000  Align=00001  Fill=0000
C:\Users\HPz420\Documents\GitHub\Doug Gilliland\Retro-Computers\6502\CC65\lib/osic1p.lib(zeropage.o):
    CODE              Offs=00099A  Size=000000  Align=00001  Fill=0000
    RODATA            Offs=0001CE  Size=000000  Align=00001  Fill=0000
    BSS               Offs=00002D  Size=000000  Align=00001  Fill=0000
    DATA              Offs=000030  Size=000000  Align=00001  Fill=0000
    ZEROPAGE          Offs=000000  Size=00001A  Align=00001  Fill=0000
    NULL              Offs=000000  Size=000000  Align=00001  Fill=0000


Segment list:
-------------
Name                   Start     End    Size  Align
----------------------------------------------------
NULL                  000000  000000  000000  00001
ZEROPAGE              000002  00001B  00001A  00001
EXTZP                 00001C  000020  000005  00001
STARTUP               000300  00031A  00001B  00001
ONCE                  00031B  00032D  000013  00001
CODE                  00032E  000CC7  00099A  00001
RODATA                000CC8  000E95  0001CE  00001
DATA                  000E96  000EC5  000030  00001
BSS                   000EC6  000EF2  00002D  00001


Exports list by name:
---------------------
CHARBUF                   000020 RLZ    CURS_X                    00001C RLZ    
CURS_Y                    00001D RLZ    SCREEN_PTR                00001E RLZ    
__BSS_LOAD__              000EC6  LA    __BSS_RUN__               000EC6 RLA    
__BSS_SIZE__              00002D REA    __CONSTRUCTOR_COUNT__     000001 REA    
__CONSTRUCTOR_TABLE__     00032C RLA    __DESTRUCTOR_COUNT__      000000 REA    
__DESTRUCTOR_TABLE__      000E96 RLA    __EXTZP_LOAD__            00001C  LA    
__EXTZP_RUN__             00001C  LA    __EXTZP_SIZE__            000005  EA    
__HIMEM__                 002000  EA    __MAIN_FILEOFFS__         000000  EA    
__MAIN_LAST__             000EF3  LA    __MAIN_SIZE__             001B00 REA    
__MAIN_START__            000300 RLA    __STACKSIZE__             000200 REA    
__STARTUP__               000001 REA    __ZP_FILEOFFS__           000000  EA    
__ZP_LAST__               000021  LA    __ZP_SIZE__               00003A  EA    
__ZP_START__              000002  LA    __bzero                   000B41  LA    
__ctype                   000D96 RLA    __hextab                  000D7A RLA    
__longminstr              000D8A RLA    __printf                  00063A RLA    
_bzero                    000B41  LA    _cgetc                    000907 RLA    
_clrscr                   000398 RLA    _cprintf                  000940 RLA    
_cputc                    000333 RLA    _cputcxy                  00032E  LA    
_exit                     000315  LA    _gotoxy                   000990  LA    
_init                     000300  LA    _ltoa                     000A0C RLA    
_main                     0003B6 RLA    _memcpy                   000AB5  LA    
_memmove                  000AF1 RLA    _memset                   000B49 RLA    
_strlen                   000BED RLA    _strlower                 000C03 RLA    
_strlwr                   000C03  LA    _ultoa                    000A4D RLA    
_vcprintf                 000C75 RLA    addysp                    0008ED RLA    
addysp1                   0008EC  LA    axlong                    0008FA RLA    
axulong                   000900 RLA    booleq                    000A8F RLA    
boolge                    000AA0  LA    boolgt                    000A9E  LA    
boolle                    000A96  LA    boollt                    000A98  LA    
boolne                    000A89  LA    booluge                   000AB0  LA    
boolugt                   000AAE  LA    boolule                   000AA6  LA    
boolult                   000AA8  LA    condes                    000E99  LA    
cputdirect                000341  LA    cursor                    000EC6 RLA    
decsp1                    00096A RLA    decsp4                    000973 RLA    
decsp6                    000980 RLA    donelib                   000934 RLA    
gotoxy                    00098D RLA    incsp2                    0009A2 RLA    
incsp3                    0009B0 RLA    initcgetc                 00031B  LAI   
initlib                   000320 RLA    memcpy_getparams          000ADE RLA    
memcpy_upwards            000AB8 RLA    negeax                    0009B5 RLA    
newline                   000351  LA    plot                      000381 RLA    
popa                      000B9E RLA    popax                     00099A RLA    
popptr1                   000BAA RLA    ptr1                      00000A RLZ    
ptr2                      00000C RLZ    ptr3                      00000E RLZ    
ptr4                      000010  LZ    push0                     000BD3  LA    
push0ax                   0009D6  LA    push1                     000BB8 RLA    
pusha                     000BC1 RLA    pusha0                    000BD5 RLA    
pusha0sp                  000BBD  LA    pushax                    000BD7 RLA    
pushaysp                  000BBF  LA    pusheax                   0009DC RLA    
pushl0                    0009D3  LA    putchar                   00038E  LA    
regbank                   000016 RLZ    regsave                   000006  LZ    
screensize                000393  LA    sp                        000002 RLZ    
sreg                      000004 RLZ    tmp1                      000012 RLZ    
tmp2                      000013  LZ    tmp3                      000014  LZ    
tmp4                      000015  LZ    zerobss                   000CA5 RLA    



Exports list by value:
----------------------
__ZP_FILEOFFS__           000000  EA    __DESTRUCTOR_COUNT__      000000 REA    
__MAIN_FILEOFFS__         000000  EA    __CONSTRUCTOR_COUNT__     000001 REA    
__STARTUP__               000001 REA    __ZP_START__              000002  LA    
sp                        000002 RLZ    sreg                      000004 RLZ    
__EXTZP_SIZE__            000005  EA    regsave                   000006  LZ    
ptr1                      00000A RLZ    ptr2                      00000C RLZ    
ptr3                      00000E RLZ    ptr4                      000010  LZ    
tmp1                      000012 RLZ    tmp2                      000013  LZ    
tmp3                      000014  LZ    tmp4                      000015  LZ    
regbank                   000016 RLZ    __EXTZP_RUN__             00001C  LA    
CURS_X                    00001C RLZ    __EXTZP_LOAD__            00001C  LA    
CURS_Y                    00001D RLZ    SCREEN_PTR                00001E RLZ    
CHARBUF                   000020 RLZ    __ZP_LAST__               000021  LA    
__BSS_SIZE__              00002D REA    __ZP_SIZE__               00003A  EA    
__STACKSIZE__             000200 REA    _init                     000300  LA    
__MAIN_START__            000300 RLA    _exit                     000315  LA    
initcgetc                 00031B  LAI   initlib                   000320 RLA    
__CONSTRUCTOR_TABLE__     00032C RLA    _cputcxy                  00032E  LA    
_cputc                    000333 RLA    cputdirect                000341  LA    
newline                   000351  LA    plot                      000381 RLA    
putchar                   00038E  LA    screensize                000393  LA    
_clrscr                   000398 RLA    _main                     0003B6 RLA    
__printf                  00063A RLA    addysp1                   0008EC  LA    
addysp                    0008ED RLA    axlong                    0008FA RLA    
axulong                   000900 RLA    _cgetc                    000907 RLA    
donelib                   000934 RLA    _cprintf                  000940 RLA    
decsp1                    00096A RLA    decsp4                    000973 RLA    
decsp6                    000980 RLA    gotoxy                    00098D RLA    
_gotoxy                   000990  LA    popax                     00099A RLA    
incsp2                    0009A2 RLA    incsp3                    0009B0 RLA    
negeax                    0009B5 RLA    pushl0                    0009D3  LA    
push0ax                   0009D6  LA    pusheax                   0009DC RLA    
_ltoa                     000A0C RLA    _ultoa                    000A4D RLA    
boolne                    000A89  LA    booleq                    000A8F RLA    
boolle                    000A96  LA    boollt                    000A98  LA    
boolgt                    000A9E  LA    boolge                    000AA0  LA    
boolule                   000AA6  LA    boolult                   000AA8  LA    
boolugt                   000AAE  LA    booluge                   000AB0  LA    
_memcpy                   000AB5  LA    memcpy_upwards            000AB8 RLA    
memcpy_getparams          000ADE RLA    _memmove                  000AF1 RLA    
_bzero                    000B41  LA    __bzero                   000B41  LA    
_memset                   000B49 RLA    popa                      000B9E RLA    
popptr1                   000BAA RLA    push1                     000BB8 RLA    
pusha0sp                  000BBD  LA    pushaysp                  000BBF  LA    
pusha                     000BC1 RLA    push0                     000BD3  LA    
pusha0                    000BD5 RLA    pushax                    000BD7 RLA    
_strlen                   000BED RLA    _strlwr                   000C03  LA    
_strlower                 000C03 RLA    _vcprintf                 000C75 RLA    
zerobss                   000CA5 RLA    __hextab                  000D7A RLA    
__longminstr              000D8A RLA    __ctype                   000D96 RLA    
__DESTRUCTOR_TABLE__      000E96 RLA    condes                    000E99  LA    
__BSS_RUN__               000EC6 RLA    cursor                    000EC6 RLA    
__BSS_LOAD__              000EC6  LA    __MAIN_LAST__             000EF3  LA    
__MAIN_SIZE__             001B00 REA    __HIMEM__                 002000  EA    



Imports list:
-------------
CHARBUF (extzp.o):
    cgetc.o                   osic1p/extzp.inc(7)
CURS_X (extzp.o):
    gotoxy.o                  osic1p/extzp.inc(7)
    cgetc.o                   osic1p/extzp.inc(7)
    screen-c1p-48x16.o        extzp.inc(7)
CURS_Y (extzp.o):
    gotoxy.o                  osic1p/extzp.inc(7)
    screen-c1p-48x16.o        extzp.inc(7)
SCREEN_PTR (extzp.o):
    cgetc.o                   osic1p/extzp.inc(7)
    screen-c1p-48x16.o        extzp.inc(7)
__BSS_LOAD__ ([linker generated]):
__BSS_RUN__ ([linker generated]):
    zerobss.o                 common/zerobss.s(8)
__BSS_SIZE__ ([linker generated]):
    zerobss.o                 common/zerobss.s(8)
__CONSTRUCTOR_COUNT__ ([linker generated]):
    condes.o                  runtime/condes.s(18)
__CONSTRUCTOR_TABLE__ ([linker generated]):
    condes.o                  runtime/condes.s(18)
__DESTRUCTOR_COUNT__ ([linker generated]):
    condes.o                  runtime/condes.s(19)
__DESTRUCTOR_TABLE__ ([linker generated]):
    condes.o                  runtime/condes.s(19)
__EXTZP_LOAD__ ([linker generated]):
__EXTZP_RUN__ ([linker generated]):
__EXTZP_SIZE__ ([linker generated]):
__HIMEM__ ([linker generated]):
__MAIN_FILEOFFS__ ([linker generated]):
__MAIN_LAST__ ([linker generated]):
__MAIN_SIZE__ ([linker generated]):
    crt0.o                    osic1p/crt0.s(11)
__MAIN_START__ ([linker generated]):
    crt0.o                    osic1p/crt0.s(11)
__STACKSIZE__ ([linker generated]):
    crt0.o                    osic1p/crt0.s(12)
__STARTUP__ (crt0.o):
    hello.o                   hello.s(13)
__ZP_FILEOFFS__ ([linker generated]):
__ZP_LAST__ ([linker generated]):
__ZP_SIZE__ ([linker generated]):
__ZP_START__ ([linker generated]):
__bzero (memset.o):
__ctype (ctype.o):
    strlower.o                common/strlower.s(13)
__hextab (_hextab.o):
    ltoa.o                    common/ltoa.s(10)
__longminstr (_longminstr.o):
    ltoa.o                    common/ltoa.s(10)
__printf (_printf.o):
    vcprintf.o                conio/vcprintf.s(9)
_bzero (memset.o):
_cgetc (cgetc.o):
    hello.o                   hello.s(16)
_clrscr (screen-c1p-48x16.o):
    hello.o                   hello.s(14)
_cprintf (cprintf.o):
    hello.o                   hello.s(15)
_cputc (screen-c1p-48x16.o):
    vcprintf.o                conio/vcprintf.s(9)
_cputcxy (screen-c1p-48x16.o):
_exit (crt0.o):
_gotoxy (gotoxy.o):
_init (crt0.o):
_ltoa (ltoa.o):
    _printf.o                 common/_printf.s(12)
_main (hello.o):
    crt0.o                    osic1p/crt0.s(8)
_memcpy (memcpy.o):
_memmove (memmove.o):
    screen-c1p-48x16.o        screen-c1p-48x16.s(17)
_memset (memset.o):
    screen-c1p-48x16.o        screen-c1p-48x16.s(17)
_strlen (strlen.o):
    _printf.o                 common/_printf.s(13)
_strlower (strlower.o):
    _printf.o                 common/_printf.s(13)
_strlwr (strlower.o):
_ultoa (ltoa.o):
    _printf.o                 common/_printf.s(12)
_vcprintf (vcprintf.o):
    cprintf.o                 conio/cprintf.s(8)
addysp (addysp.o):
    incsp3.o                  runtime/incsp3.s(8)
    cprintf.o                 conio/cprintf.s(8)
addysp1 (addysp.o):
axlong (axlong.o):
    _printf.o                 common/_printf.s(11)
axulong (axlong.o):
    _printf.o                 common/_printf.s(11)
booleq (makebool.o):
    hello.o                   hello.s(219)
boolge (makebool.o):
boolgt (makebool.o):
boolle (makebool.o):
boollt (makebool.o):
boolne (makebool.o):
booluge (makebool.o):
boolugt (makebool.o):
boolule (makebool.o):
boolult (makebool.o):
condes (condes.o):
cputdirect (screen-c1p-48x16.o):
cursor (_cursor.o):
    cgetc.o                   osic1p/cgetc.s(7)
decsp1 (decsp1.o):
    hello.o                   hello.s(219)
decsp4 (decsp4.o):
    lpush.o                   runtime/lpush.s(12)
decsp6 (decsp6.o):
    _printf.o                 common/_printf.s(11)
donelib (condes.o):
    crt0.o                    osic1p/crt0.s(14)
gotoxy (gotoxy.o):
    screen-c1p-48x16.o        screen-c1p-48x16.s(17)
incsp2 (incsp2.o):
    popptr1.o                 runtime/popptr1.s(8)
incsp3 (incsp3.o):
    hello.o                   hello.s(219)
initcgetc (cgetc.o):
initlib (condes.o):
    crt0.o                    osic1p/crt0.s(14)
memcpy_getparams (memcpy.o):
    memmove.o                 common/memmove.s(12)
memcpy_upwards (memcpy.o):
    memmove.o                 common/memmove.s(12)
negeax (lneg.o):
    ltoa.o                    common/ltoa.s(9)
newline (screen-c1p-48x16.o):
plot (screen-c1p-48x16.o):
    gotoxy.o                  osic1p/gotoxy.s(10)
popa (popa.o):
    gotoxy.o                  osic1p/gotoxy.s(10)
popax (incsp2.o):
    memcpy.o                  common/memcpy.s(14)
    ltoa.o                    common/ltoa.s(9)
    _printf.o                 common/_printf.s(11)
    vcprintf.o                conio/vcprintf.s(8)
    memset.o                  common/memset.s(19)
    memmove.o                 common/memmove.s(12)
popptr1 (popptr1.o):
    memcpy.o                  common/memcpy.s(14)
    ltoa.o                    common/ltoa.s(9)
    vcprintf.o                conio/vcprintf.s(8)
ptr1 (zeropage.o):
    strlower.o                common/strlower.s(14)
    popptr1.o                 runtime/popptr1.s(9)
    memcpy.o                  common/memcpy.s(15)
    ltoa.o                    common/ltoa.s(11)
    _printf.o                 /home/travis/build/cc65/cc65/asminc/zeropage.inc(12)
    zerobss.o                 common/zerobss.s(9)
    vcprintf.o                conio/vcprintf.s(10)
    memset.o                  common/memset.s(20)
    memmove.o                 common/memmove.s(13)
    cprintf.o                 conio/cprintf.s(9)
    screen-c1p-48x16.o        screen-c1p-48x16.s(17)
ptr2 (zeropage.o):
    strlower.o                common/strlower.s(14)
    strlen.o                  common/strlen.s(12)
    memcpy.o                  common/memcpy.s(15)
    ltoa.o                    common/ltoa.s(11)
    _printf.o                 /home/travis/build/cc65/cc65/asminc/zeropage.inc(12)
    vcprintf.o                conio/vcprintf.s(10)
    memset.o                  common/memset.s(20)
    memmove.o                 common/memmove.s(13)
ptr3 (zeropage.o):
    memcpy.o                  common/memcpy.s(15)
    ltoa.o                    common/ltoa.s(11)
    vcprintf.o                conio/vcprintf.s(10)
    memset.o                  common/memset.s(20)
    memmove.o                 common/memmove.s(13)
ptr4 (zeropage.o):
push0 (pushax.o):
push0ax (lpush.o):
push1 (push1.o):
    _printf.o                 common/_printf.s(11)
pusha (pusha.o):
    hello.o                   hello.s(219)
pusha0 (pushax.o):
    push1.o                   runtime/push1.s(8)
pusha0sp (pusha.o):
pushax (pushax.o):
    _printf.o                 common/_printf.s(11)
    vcprintf.o                conio/vcprintf.s(8)
    cprintf.o                 conio/cprintf.s(8)
    hello.o                   hello.s(219)
    screen-c1p-48x16.o        screen-c1p-48x16.s(17)
pushaysp (pusha.o):
pusheax (lpush.o):
    _printf.o                 common/_printf.s(11)
pushl0 (lpush.o):
putchar (screen-c1p-48x16.o):
regbank (zeropage.o):
    _printf.o                 /home/travis/build/cc65/cc65/asminc/zeropage.inc(14)
regsave (zeropage.o):
screensize (screen-c1p-48x16.o):
sp (zeropage.o):
    decsp4.o                  runtime/decsp4.s(8)
    popptr1.o                 runtime/popptr1.s(9)
    memcpy.o                  common/memcpy.s(15)
    lpush.o                   runtime/lpush.s(13)
    incsp2.o                  runtime/incsp2.s(8)
    decsp6.o                  runtime/decsp6.s(8)
    addysp.o                  runtime/addysp.s(8)
    _printf.o                 /home/travis/build/cc65/cc65/asminc/zeropage.inc(11)
    vcprintf.o                conio/vcprintf.s(10)
    pushax.o                  runtime/pushax.s(8)
    pusha.o                   runtime/pusha.s(8)
    popa.o                    runtime/popa.s(8)
    memset.o                  common/memset.s(20)
    decsp1.o                  runtime/decsp1.s(8)
    crt0.o                    /home/travis/build/cc65/cc65/asminc/zeropage.inc(11)
    cprintf.o                 conio/cprintf.s(9)
    hello.o                   hello.s(10)
sreg (zeropage.o):
    lneg.o                    runtime/lneg.s(11)
    ltoa.o                    common/ltoa.s(11)
    lpush.o                   runtime/lpush.s(13)
    axlong.o                  runtime/axlong.s(9)
    _printf.o                 /home/travis/build/cc65/cc65/asminc/zeropage.inc(11)
tmp1 (zeropage.o):
    ltoa.o                    common/ltoa.s(11)
    _printf.o                 /home/travis/build/cc65/cc65/asminc/zeropage.inc(13)
    vcprintf.o                conio/vcprintf.s(10)
    cgetc.o                   /home/travis/build/cc65/cc65/asminc/zeropage.inc(13)
tmp2 (zeropage.o):
tmp3 (zeropage.o):
tmp4 (zeropage.o):
zerobss (zerobss.o):
    crt0.o                    osic1p/crt0.s(14)

